ARM GAS  /var/folders/wz/z09yph4n0qj4t7mjxhl6ttn80000gn/T//ccumXZX7.s 			page 1


   1              		.cpu cortex-m7
   2              		.arch armv7e-m
   3              		.fpu fpv5-d16
   4              		.eabi_attribute 28, 1
   5              		.eabi_attribute 20, 1
   6              		.eabi_attribute 21, 1
   7              		.eabi_attribute 23, 3
   8              		.eabi_attribute 24, 1
   9              		.eabi_attribute 25, 1
  10              		.eabi_attribute 26, 1
  11              		.eabi_attribute 30, 2
  12              		.eabi_attribute 34, 1
  13              		.eabi_attribute 18, 4
  14              		.file	"allpass.cpp"
  15              		.text
  16              	.Ltext0:
  17              		.cfi_sections	.debug_frame
  18              		.section	.text._ZN7allpassC2Ev,"ax",%progbits
  19              		.align	1
  20              		.p2align 2,,3
  21              		.global	_ZN7allpassC2Ev
  22              		.syntax unified
  23              		.thumb
  24              		.thumb_func
  26              	_ZN7allpassC2Ev:
  27              	.LVL0:
  28              	.LFB546:
  29              		.file 1 "DSP/FX/Reverb/allpass.cpp"
   1:DSP/FX/Reverb/allpass.cpp **** // Allpass filter implementation
   2:DSP/FX/Reverb/allpass.cpp **** //
   3:DSP/FX/Reverb/allpass.cpp **** // Written by Jezar at Dreampoint, June 2000
   4:DSP/FX/Reverb/allpass.cpp **** // http://www.dreampoint.co.uk
   5:DSP/FX/Reverb/allpass.cpp **** // This code is public domain
   6:DSP/FX/Reverb/allpass.cpp **** 
   7:DSP/FX/Reverb/allpass.cpp **** #include "allpass.hpp"
   8:DSP/FX/Reverb/allpass.cpp **** 
   9:DSP/FX/Reverb/allpass.cpp **** allpass::allpass()
  30              		.loc 1 9 1 view -0
  31              		.cfi_startproc
  32              		@ args = 0, pretend = 0, frame = 0
  33              		@ frame_needed = 0, uses_anonymous_args = 0
  34              		@ link register save eliminated.
  35              	.LBB2:
  10:DSP/FX/Reverb/allpass.cpp **** {
  11:DSP/FX/Reverb/allpass.cpp **** 	bufidx = 0;
  36              		.loc 1 11 2 view .LVU1
  37              		.loc 1 11 9 is_stmt 0 view .LVU2
  38 0000 0022     		movs	r2, #0
  39 0002 C260     		str	r2, [r0, #12]
  40              	.LBE2:
  12:DSP/FX/Reverb/allpass.cpp **** }
  41              		.loc 1 12 1 view .LVU3
  42 0004 7047     		bx	lr
  43              		.cfi_endproc
  44              	.LFE546:
  46              		.global	_ZN7allpassC1Ev
  47              		.thumb_set _ZN7allpassC1Ev,_ZN7allpassC2Ev
ARM GAS  /var/folders/wz/z09yph4n0qj4t7mjxhl6ttn80000gn/T//ccumXZX7.s 			page 2


  48 0006 00BF     		.section	.text._ZN7allpass9setbufferEPfi,"ax",%progbits
  49              		.align	1
  50              		.p2align 2,,3
  51              		.global	_ZN7allpass9setbufferEPfi
  52              		.syntax unified
  53              		.thumb
  54              		.thumb_func
  56              	_ZN7allpass9setbufferEPfi:
  57              	.LVL1:
  58              	.LFB548:
  13:DSP/FX/Reverb/allpass.cpp **** 
  14:DSP/FX/Reverb/allpass.cpp **** void allpass::setbuffer(float *buf, int size) 
  15:DSP/FX/Reverb/allpass.cpp **** {
  59              		.loc 1 15 1 is_stmt 1 view -0
  60              		.cfi_startproc
  61              		@ args = 0, pretend = 0, frame = 0
  62              		@ frame_needed = 0, uses_anonymous_args = 0
  63              		@ link register save eliminated.
  16:DSP/FX/Reverb/allpass.cpp **** 	buffer = buf; 
  64              		.loc 1 16 2 view .LVU5
  17:DSP/FX/Reverb/allpass.cpp **** 	bufsize = size;
  65              		.loc 1 17 10 is_stmt 0 view .LVU6
  66 0000 C0E90112 		strd	r1, r2, [r0, #4]
  18:DSP/FX/Reverb/allpass.cpp **** }
  67              		.loc 1 18 1 view .LVU7
  68 0004 7047     		bx	lr
  69              		.cfi_endproc
  70              	.LFE548:
  72 0006 00BF     		.section	.text._ZN7allpass4muteEv,"ax",%progbits
  73              		.align	1
  74              		.p2align 2,,3
  75              		.global	_ZN7allpass4muteEv
  76              		.syntax unified
  77              		.thumb
  78              		.thumb_func
  80              	_ZN7allpass4muteEv:
  81              	.LVL2:
  82              	.LFB549:
  19:DSP/FX/Reverb/allpass.cpp **** 
  20:DSP/FX/Reverb/allpass.cpp **** void allpass::mute()
  21:DSP/FX/Reverb/allpass.cpp **** {
  83              		.loc 1 21 1 is_stmt 1 view -0
  84              		.cfi_startproc
  85              		@ args = 0, pretend = 0, frame = 0
  86              		@ frame_needed = 0, uses_anonymous_args = 0
  87              		@ link register save eliminated.
  22:DSP/FX/Reverb/allpass.cpp **** 	for (int i=0; i<bufsize; i++)
  88              		.loc 1 22 2 view .LVU9
  89              	.LBB3:
  90              		.loc 1 22 17 view .LVU10
  91              		.loc 1 22 18 is_stmt 0 view .LVU11
  92 0000 8268     		ldr	r2, [r0, #8]
  93              		.loc 1 22 17 view .LVU12
  94 0002 002A     		cmp	r2, #0
  95 0004 04DD     		ble	.L4
  23:DSP/FX/Reverb/allpass.cpp **** 		buffer[i]=0;
  96              		.loc 1 23 12 view .LVU13
ARM GAS  /var/folders/wz/z09yph4n0qj4t7mjxhl6ttn80000gn/T//ccumXZX7.s 			page 3


  97 0006 9200     		lsls	r2, r2, #2
  98 0008 0021     		movs	r1, #0
  99 000a 4068     		ldr	r0, [r0, #4]
 100              	.LVL3:
 101              		.loc 1 23 12 view .LVU14
 102 000c FFF7FEBF 		b	memset
 103              	.LVL4:
 104              	.L4:
 105              		.loc 1 23 12 view .LVU15
 106              	.LBE3:
  24:DSP/FX/Reverb/allpass.cpp **** }
 107              		.loc 1 24 1 view .LVU16
 108 0010 7047     		bx	lr
 109              		.cfi_endproc
 110              	.LFE549:
 112 0012 00BF     		.section	.text._ZN7allpass11setfeedbackEf,"ax",%progbits
 113              		.align	1
 114              		.p2align 2,,3
 115              		.global	_ZN7allpass11setfeedbackEf
 116              		.syntax unified
 117              		.thumb
 118              		.thumb_func
 120              	_ZN7allpass11setfeedbackEf:
 121              	.LVL5:
 122              	.LFB550:
  25:DSP/FX/Reverb/allpass.cpp **** 
  26:DSP/FX/Reverb/allpass.cpp **** void allpass::setfeedback(float val) 
  27:DSP/FX/Reverb/allpass.cpp **** {
 123              		.loc 1 27 1 is_stmt 1 view -0
 124              		.cfi_startproc
 125              		@ args = 0, pretend = 0, frame = 0
 126              		@ frame_needed = 0, uses_anonymous_args = 0
 127              		@ link register save eliminated.
  28:DSP/FX/Reverb/allpass.cpp **** 	feedback = val;
 128              		.loc 1 28 2 view .LVU18
 129              		.loc 1 28 11 is_stmt 0 view .LVU19
 130 0000 80ED000A 		vstr.32	s0, [r0]
  29:DSP/FX/Reverb/allpass.cpp **** }
 131              		.loc 1 29 1 view .LVU20
 132 0004 7047     		bx	lr
 133              		.cfi_endproc
 134              	.LFE550:
 136 0006 00BF     		.section	.text._ZN7allpass11getfeedbackEv,"ax",%progbits
 137              		.align	1
 138              		.p2align 2,,3
 139              		.global	_ZN7allpass11getfeedbackEv
 140              		.syntax unified
 141              		.thumb
 142              		.thumb_func
 144              	_ZN7allpass11getfeedbackEv:
 145              	.LVL6:
 146              	.LFB551:
  30:DSP/FX/Reverb/allpass.cpp **** 
  31:DSP/FX/Reverb/allpass.cpp **** float allpass::getfeedback() 
  32:DSP/FX/Reverb/allpass.cpp **** {
 147              		.loc 1 32 1 is_stmt 1 view -0
 148              		.cfi_startproc
ARM GAS  /var/folders/wz/z09yph4n0qj4t7mjxhl6ttn80000gn/T//ccumXZX7.s 			page 4


 149              		@ args = 0, pretend = 0, frame = 0
 150              		@ frame_needed = 0, uses_anonymous_args = 0
 151              		@ link register save eliminated.
  33:DSP/FX/Reverb/allpass.cpp **** 	return feedback;
 152              		.loc 1 33 2 view .LVU22
  34:DSP/FX/Reverb/allpass.cpp **** }
 153              		.loc 1 34 1 is_stmt 0 view .LVU23
 154 0000 90ED000A 		vldr.32	s0, [r0]
 155 0004 7047     		bx	lr
 156              		.cfi_endproc
 157              	.LFE551:
 159 0006 00BF     		.text
 160              	.Letext0:
 161              		.file 2 "/Library/DaisyToolchain/0.2.0/arm/arm-none-eabi/include/c++/10.3.1/cmath"
 162              		.file 3 "/Library/DaisyToolchain/0.2.0/arm/arm-none-eabi/include/c++/10.3.1/bits/std_abs.h"
 163              		.file 4 "/Library/DaisyToolchain/0.2.0/arm/arm-none-eabi/include/c++/10.3.1/arm-none-eabi/thumb/v7
 164              		.file 5 "/Library/DaisyToolchain/0.2.0/arm/arm-none-eabi/include/math.h"
 165              		.file 6 "/Library/DaisyToolchain/0.2.0/arm/arm-none-eabi/include/c++/10.3.1/math.h"
 166              		.file 7 "DSP/FX/Reverb/allpass.hpp"
 167              		.file 8 "<built-in>"
ARM GAS  /var/folders/wz/z09yph4n0qj4t7mjxhl6ttn80000gn/T//ccumXZX7.s 			page 5

