ARM GAS  /var/folders/wz/z09yph4n0qj4t7mjxhl6ttn80000gn/T//ccwsMBIY.s 			page 1


   1              		.cpu cortex-m7
   2              		.arch armv7e-m
   3              		.fpu fpv5-d16
   4              		.eabi_attribute 28, 1
   5              		.eabi_attribute 20, 1
   6              		.eabi_attribute 21, 1
   7              		.eabi_attribute 23, 3
   8              		.eabi_attribute 24, 1
   9              		.eabi_attribute 25, 1
  10              		.eabi_attribute 26, 1
  11              		.eabi_attribute 30, 4
  12              		.eabi_attribute 34, 1
  13              		.eabi_attribute 18, 4
  14              		.file	"AudioSlider.cpp"
  15              		.text
  16              	.Ltext0:
  17              		.cfi_sections	.debug_frame
  18              		.section	.text._ZN11AudioSlider4initEiPN5daisy9DaisySeedE,"ax",%progbits
  19              		.align	1
  20              		.global	_ZN11AudioSlider4initEiPN5daisy9DaisySeedE
  21              		.syntax unified
  22              		.thumb
  23              		.thumb_func
  25              	_ZN11AudioSlider4initEiPN5daisy9DaisySeedE:
  26              	.LVL0:
  27              	.LFB2561:
  28              		.file 1 "GUI/AudioSlider.cpp"
   1:GUI/AudioSlider.cpp **** #include "AudioSlider.h"
   2:GUI/AudioSlider.cpp **** 
   3:GUI/AudioSlider.cpp **** void AudioSlider::init(int ID, DaisySeed* seed)
   4:GUI/AudioSlider.cpp **** {
  29              		.loc 1 4 1 view -0
  30              		.cfi_startproc
  31              		@ args = 0, pretend = 0, frame = 0
  32              		@ frame_needed = 0, uses_anonymous_args = 0
  33              		@ link register save eliminated.
   5:GUI/AudioSlider.cpp ****     hw = seed;
  34              		.loc 1 5 5 view .LVU1
   6:GUI/AudioSlider.cpp ****     input = 0;
  35              		.loc 1 6 11 is_stmt 0 view .LVU2
  36 0000 0023     		movs	r3, #0
   5:GUI/AudioSlider.cpp ****     hw = seed;
  37              		.loc 1 5 8 view .LVU3
  38 0002 0260     		str	r2, [r0]
  39              		.loc 1 6 5 is_stmt 1 view .LVU4
   7:GUI/AudioSlider.cpp **** 
   8:GUI/AudioSlider.cpp ****     channelID = ID;
  40              		.loc 1 8 15 is_stmt 0 view .LVU5
  41 0004 C160     		str	r1, [r0, #12]
   6:GUI/AudioSlider.cpp ****     input = 0;
  42              		.loc 1 6 11 view .LVU6
  43 0006 4360     		str	r3, [r0, #4]	@ float
  44              		.loc 1 8 5 is_stmt 1 view .LVU7
   9:GUI/AudioSlider.cpp ****     isMixerView = false;
  45              		.loc 1 9 5 view .LVU8
  46              		.loc 1 9 17 is_stmt 0 view .LVU9
  47 0008 0023     		movs	r3, #0
ARM GAS  /var/folders/wz/z09yph4n0qj4t7mjxhl6ttn80000gn/T//ccwsMBIY.s 			page 2


  48 000a 0374     		strb	r3, [r0, #16]
  10:GUI/AudioSlider.cpp **** }
  49              		.loc 1 10 1 view .LVU10
  50 000c 7047     		bx	lr
  51              		.cfi_endproc
  52              	.LFE2561:
  54              		.section	.text._ZN11AudioSlider4tickEv,"ax",%progbits
  55              		.align	1
  56              		.global	_ZN11AudioSlider4tickEv
  57              		.syntax unified
  58              		.thumb
  59              		.thumb_func
  61              	_ZN11AudioSlider4tickEv:
  62              	.LVL1:
  63              	.LFB2562:
  11:GUI/AudioSlider.cpp **** 
  12:GUI/AudioSlider.cpp **** void AudioSlider::tick()
  13:GUI/AudioSlider.cpp **** {
  64              		.loc 1 13 1 is_stmt 1 view -0
  65              		.cfi_startproc
  66              		@ args = 0, pretend = 0, frame = 0
  67              		@ frame_needed = 0, uses_anonymous_args = 0
  14:GUI/AudioSlider.cpp ****     if(!isMixerView)
  68              		.loc 1 14 5 view .LVU12
  69 0000 037C     		ldrb	r3, [r0, #16]	@ zero_extendqisi2
  13:GUI/AudioSlider.cpp ****     if(!isMixerView)
  70              		.loc 1 13 1 is_stmt 0 view .LVU13
  71 0002 10B5     		push	{r4, lr}
  72              		.cfi_def_cfa_offset 8
  73              		.cfi_offset 4, -8
  74              		.cfi_offset 14, -4
  13:GUI/AudioSlider.cpp ****     if(!isMixerView)
  75              		.loc 1 13 1 view .LVU14
  76 0004 0446     		mov	r4, r0
  77              		.loc 1 14 5 view .LVU15
  78 0006 C3B1     		cbz	r3, .L2
  15:GUI/AudioSlider.cpp ****         return;
  16:GUI/AudioSlider.cpp **** 
  17:GUI/AudioSlider.cpp ****     float newInput = hw->adc.GetFloat(channelID);
  79              		.loc 1 17 5 is_stmt 1 view .LVU16
  80              		.loc 1 17 38 is_stmt 0 view .LVU17
  81 0008 0068     		ldr	r0, [r0]
  82              	.LVL2:
  83              		.loc 1 17 38 view .LVU18
  84 000a 217B     		ldrb	r1, [r4, #12]	@ zero_extendqisi2
  85 000c 1830     		adds	r0, r0, #24
  86 000e FFF7FEFF 		bl	_ZNK5daisy9AdcHandle8GetFloatEh
  87              	.LVL3:
  18:GUI/AudioSlider.cpp ****     if(newInput > (input + jitter) || newInput < (input - jitter))
  88              		.loc 1 18 5 is_stmt 1 view .LVU19
  89              		.loc 1 18 20 is_stmt 0 view .LVU20
  90 0012 D4ED017A 		vldr.32	s15, [r4, #4]
  91              		.loc 1 18 28 view .LVU21
  92 0016 94ED027A 		vldr.32	s14, [r4, #8]
  93              		.loc 1 18 26 view .LVU22
  94 001a 77EE876A 		vadd.f32	s13, s15, s14
  95              		.loc 1 18 5 view .LVU23
ARM GAS  /var/folders/wz/z09yph4n0qj4t7mjxhl6ttn80000gn/T//ccwsMBIY.s 			page 3


  96 001e F4EEC06A 		vcmpe.f32	s13, s0
  97 0022 F1EE10FA 		vmrs	APSR_nzcv, FPSCR
  98 0026 06D4     		bmi	.L5
  99              		.loc 1 18 57 discriminator 1 view .LVU24
 100 0028 77EEC77A 		vsub.f32	s15, s15, s14
 101              		.loc 1 18 36 discriminator 1 view .LVU25
 102 002c F4EEC07A 		vcmpe.f32	s15, s0
 103 0030 F1EE10FA 		vmrs	APSR_nzcv, FPSCR
 104 0034 01DD     		ble	.L2
 105              	.L5:
  19:GUI/AudioSlider.cpp ****     {
  20:GUI/AudioSlider.cpp ****         input = newInput;
 106              		.loc 1 20 9 is_stmt 1 view .LVU26
 107              		.loc 1 20 15 is_stmt 0 view .LVU27
 108 0036 84ED010A 		vstr.32	s0, [r4, #4]
  21:GUI/AudioSlider.cpp ****         repaint();
 109              		.loc 1 21 9 is_stmt 1 view .LVU28
 110              	.LVL4:
 111              	.LBB4:
 112              	.LBI4:
  22:GUI/AudioSlider.cpp ****     }
  23:GUI/AudioSlider.cpp **** }
  24:GUI/AudioSlider.cpp **** 
  25:GUI/AudioSlider.cpp **** void AudioSlider::repaint()
 113              		.loc 1 25 6 view .LVU29
 114              	.L2:
 115              		.loc 1 25 6 is_stmt 0 view .LVU30
 116              	.LBE4:
  23:GUI/AudioSlider.cpp **** 
 117              		.loc 1 23 1 view .LVU31
 118 003a 10BD     		pop	{r4, pc}
  23:GUI/AudioSlider.cpp **** 
 119              		.loc 1 23 1 view .LVU32
 120              		.cfi_endproc
 121              	.LFE2562:
 123              		.section	.text._ZN11AudioSlider7repaintEv,"ax",%progbits
 124              		.align	1
 125              		.global	_ZN11AudioSlider7repaintEv
 126              		.syntax unified
 127              		.thumb
 128              		.thumb_func
 130              	_ZN11AudioSlider7repaintEv:
 131              	.LVL5:
 132              	.LFB2563:
  26:GUI/AudioSlider.cpp **** {
 133              		.loc 1 26 1 is_stmt 1 view -0
 134              		.cfi_startproc
 135              		@ args = 0, pretend = 0, frame = 0
 136              		@ frame_needed = 0, uses_anonymous_args = 0
 137              		@ link register save eliminated.
  27:GUI/AudioSlider.cpp ****     
  28:GUI/AudioSlider.cpp **** }...
 138              		.loc 1 28 1 is_stmt 0 view .LVU34
 139 0000 7047     		bx	lr
 140              		.cfi_endproc
 141              	.LFE2563:
 143              		.text
ARM GAS  /var/folders/wz/z09yph4n0qj4t7mjxhl6ttn80000gn/T//ccwsMBIY.s 			page 4


 144              	.Letext0:
 145              		.file 2 "/Library/DaisyToolchain/0.2.0/arm/arm-none-eabi/include/machine/_default_types.h"
 146              		.file 3 "/Library/DaisyToolchain/0.2.0/arm/arm-none-eabi/include/sys/_stdint.h"
 147              		.file 4 "/Library/DaisyToolchain/0.2.0/arm/arm-none-eabi/include/stdint.h"
 148              		.file 5 "/Library/DaisyToolchain/0.2.0/arm/lib/gcc/arm-none-eabi/10.3.1/include/stddef.h"
 149              		.file 6 "/Library/DaisyToolchain/0.2.0/arm/arm-none-eabi/include/c++/10.3.1/cmath"
 150              		.file 7 "/Library/DaisyToolchain/0.2.0/arm/arm-none-eabi/include/c++/10.3.1/bits/std_abs.h"
 151              		.file 8 "/Library/DaisyToolchain/0.2.0/arm/arm-none-eabi/include/c++/10.3.1/cstdlib"
 152              		.file 9 "/Library/DaisyToolchain/0.2.0/arm/arm-none-eabi/include/c++/10.3.1/cstdint"
 153              		.file 10 "/Library/DaisyToolchain/0.2.0/arm/arm-none-eabi/include/c++/10.3.1/type_traits"
 154              		.file 11 "/Library/DaisyToolchain/0.2.0/arm/arm-none-eabi/include/c++/10.3.1/debug/debug.h"
 155              		.file 12 "/Library/DaisyToolchain/0.2.0/arm/arm-none-eabi/include/c++/10.3.1/arm-none-eabi/thumb/v
 156              		.file 13 "/Library/DaisyToolchain/0.2.0/arm/arm-none-eabi/include/c++/10.3.1/bits/algorithmfwd.h"
 157              		.file 14 "/Library/DaisyToolchain/0.2.0/arm/arm-none-eabi/include/c++/10.3.1/bits/stl_pair.h"
 158              		.file 15 "/Library/DaisyToolchain/0.2.0/arm/arm-none-eabi/include/c++/10.3.1/bits/exception_ptr.h"
 159              		.file 16 "/Library/DaisyToolchain/0.2.0/arm/arm-none-eabi/include/c++/10.3.1/cstdarg"
 160              		.file 17 "/Library/DaisyToolchain/0.2.0/arm/arm-none-eabi/include/c++/10.3.1/cstdio"
 161              		.file 18 "/Library/DaisyToolchain/0.2.0/arm/arm-none-eabi/include/c++/10.3.1/cstring"
 162              		.file 19 "/Library/DaisyToolchain/0.2.0/arm/arm-none-eabi/include/c++/10.3.1/bits/predefined_ops.h
 163              		.file 20 "/Library/DaisyToolchain/0.2.0/arm/arm-none-eabi/include/sys/_types.h"
 164              		.file 21 "/Library/DaisyToolchain/0.2.0/arm/arm-none-eabi/include/sys/reent.h"
 165              		.file 22 "/Library/DaisyToolchain/0.2.0/arm/arm-none-eabi/include/sys/lock.h"
 166              		.file 23 "/Library/DaisyToolchain/0.2.0/arm/arm-none-eabi/include/math.h"
 167              		.file 24 "/Library/DaisyToolchain/0.2.0/arm/arm-none-eabi/include/stdlib.h"
 168              		.file 25 "/Library/DaisyToolchain/0.2.0/arm/arm-none-eabi/include/c++/10.3.1/math.h"
 169              		.file 26 "/Library/DaisyToolchain/0.2.0/arm/arm-none-eabi/include/c++/10.3.1/stdlib.h"
 170              		.file 27 "../../../libDaisy//src/daisy_core.h"
 171              		.file 28 "../../../libDaisy//src/per/tim.h"
 172              		.file 29 "../../../libDaisy//src/sys/system.h"
 173              		.file 30 "../../../libDaisy//src/per/qspi.h"
 174              		.file 31 "../../../libDaisy//src/per/dac.h"
 175              		.file 32 "../../../libDaisy//src/per/sai.h"
 176              		.file 33 "../../../libDaisy//src/hid/audio.h"
 177              		.file 34 "../../../libDaisy//src/per/adc.h"
 178              		.file 35 "../../../libDaisy//src/hid/usb.h"
 179              		.file 36 "../../../libDaisy//src/util/wav_format.h"
 180              		.file 37 "../../../libDaisy//src/dev/max11300.h"
 181              		.file 38 "../../../libDaisy//src/daisy_seed.h"
 182              		.file 39 "../../../libDaisy//src/per/gpio.h"
 183              		.file 40 "../../../libDaisy//src/dev/sdram.h"
 184              		.file 41 "/Library/DaisyToolchain/0.2.0/arm/lib/gcc/arm-none-eabi/10.3.1/include/stdarg.h"
 185              		.file 42 "/Library/DaisyToolchain/0.2.0/arm/arm-none-eabi/include/stdio.h"
 186              		.file 43 "/Library/DaisyToolchain/0.2.0/arm/arm-none-eabi/include/string.h"
 187              		.file 44 "GUI/AudioSlider.h"
 188              		.file 45 "<built-in>"
 189              		.file 46 "../../../libDaisy//src/dev/sr_595.h"
ARM GAS  /var/folders/wz/z09yph4n0qj4t7mjxhl6ttn80000gn/T//ccwsMBIY.s 			page 5

