ARM GAS  /var/folders/wz/z09yph4n0qj4t7mjxhl6ttn80000gn/T//cc3KzP2n.s 			page 1


   1              		.cpu cortex-m7
   2              		.arch armv7e-m
   3              		.fpu fpv5-d16
   4              		.eabi_attribute 28, 1
   5              		.eabi_attribute 20, 1
   6              		.eabi_attribute 21, 1
   7              		.eabi_attribute 23, 3
   8              		.eabi_attribute 24, 1
   9              		.eabi_attribute 25, 1
  10              		.eabi_attribute 26, 1
  11              		.eabi_attribute 30, 4
  12              		.eabi_attribute 34, 1
  13              		.eabi_attribute 18, 4
  14              		.file	"DelayView.cpp"
  15              		.text
  16              	.Ltext0:
  17              		.cfi_sections	.debug_frame
  18              		.section	.text._ZNSt14_Function_baseD2Ev,"axG",%progbits,_ZNSt14_Function_baseD5Ev,comdat
  19              		.align	1
  20              		.weak	_ZNSt14_Function_baseD2Ev
  21              		.syntax unified
  22              		.thumb
  23              		.thumb_func
  25              	_ZNSt14_Function_baseD2Ev:
  26              	.LVL0:
  27              	.LFB2973:
  28              		.file 1 "/Library/DaisyToolchain/0.2.0/arm/arm-none-eabi/include/c++/10.3.1/bits/std_function.h"
   1:/Library/DaisyToolchain/0.2.0/arm/arm-none-eabi/include/c++/10.3.1/bits/std_function.h **** // Implementation of std::function -*- C++ -*-
   2:/Library/DaisyToolchain/0.2.0/arm/arm-none-eabi/include/c++/10.3.1/bits/std_function.h **** 
   3:/Library/DaisyToolchain/0.2.0/arm/arm-none-eabi/include/c++/10.3.1/bits/std_function.h **** // Copyright (C) 2004-2020 Free Software Foundation, Inc.
   4:/Library/DaisyToolchain/0.2.0/arm/arm-none-eabi/include/c++/10.3.1/bits/std_function.h **** //
   5:/Library/DaisyToolchain/0.2.0/arm/arm-none-eabi/include/c++/10.3.1/bits/std_function.h **** // This file is part of the GNU ISO C++ Library.  This library is free
   6:/Library/DaisyToolchain/0.2.0/arm/arm-none-eabi/include/c++/10.3.1/bits/std_function.h **** // software; you can redistribute it and/or modify it under the
   7:/Library/DaisyToolchain/0.2.0/arm/arm-none-eabi/include/c++/10.3.1/bits/std_function.h **** // terms of the GNU General Public License as published by the
   8:/Library/DaisyToolchain/0.2.0/arm/arm-none-eabi/include/c++/10.3.1/bits/std_function.h **** // Free Software Foundation; either version 3, or (at your option)
   9:/Library/DaisyToolchain/0.2.0/arm/arm-none-eabi/include/c++/10.3.1/bits/std_function.h **** // any later version.
  10:/Library/DaisyToolchain/0.2.0/arm/arm-none-eabi/include/c++/10.3.1/bits/std_function.h **** 
  11:/Library/DaisyToolchain/0.2.0/arm/arm-none-eabi/include/c++/10.3.1/bits/std_function.h **** // This library is distributed in the hope that it will be useful,
  12:/Library/DaisyToolchain/0.2.0/arm/arm-none-eabi/include/c++/10.3.1/bits/std_function.h **** // but WITHOUT ANY WARRANTY; without even the implied warranty of
  13:/Library/DaisyToolchain/0.2.0/arm/arm-none-eabi/include/c++/10.3.1/bits/std_function.h **** // MERCHANTABILITY or FITNESS FOR A PARTICULAR PURPOSE.  See the
  14:/Library/DaisyToolchain/0.2.0/arm/arm-none-eabi/include/c++/10.3.1/bits/std_function.h **** // GNU General Public License for more details.
  15:/Library/DaisyToolchain/0.2.0/arm/arm-none-eabi/include/c++/10.3.1/bits/std_function.h **** 
  16:/Library/DaisyToolchain/0.2.0/arm/arm-none-eabi/include/c++/10.3.1/bits/std_function.h **** // Under Section 7 of GPL version 3, you are granted additional
  17:/Library/DaisyToolchain/0.2.0/arm/arm-none-eabi/include/c++/10.3.1/bits/std_function.h **** // permissions described in the GCC Runtime Library Exception, version
  18:/Library/DaisyToolchain/0.2.0/arm/arm-none-eabi/include/c++/10.3.1/bits/std_function.h **** // 3.1, as published by the Free Software Foundation.
  19:/Library/DaisyToolchain/0.2.0/arm/arm-none-eabi/include/c++/10.3.1/bits/std_function.h **** 
  20:/Library/DaisyToolchain/0.2.0/arm/arm-none-eabi/include/c++/10.3.1/bits/std_function.h **** // You should have received a copy of the GNU General Public License and
  21:/Library/DaisyToolchain/0.2.0/arm/arm-none-eabi/include/c++/10.3.1/bits/std_function.h **** // a copy of the GCC Runtime Library Exception along with this program;
  22:/Library/DaisyToolchain/0.2.0/arm/arm-none-eabi/include/c++/10.3.1/bits/std_function.h **** // see the files COPYING3 and COPYING.RUNTIME respectively.  If not, see
  23:/Library/DaisyToolchain/0.2.0/arm/arm-none-eabi/include/c++/10.3.1/bits/std_function.h **** // <http://www.gnu.org/licenses/>.
  24:/Library/DaisyToolchain/0.2.0/arm/arm-none-eabi/include/c++/10.3.1/bits/std_function.h **** 
  25:/Library/DaisyToolchain/0.2.0/arm/arm-none-eabi/include/c++/10.3.1/bits/std_function.h **** /** @file include/bits/std_function.h
  26:/Library/DaisyToolchain/0.2.0/arm/arm-none-eabi/include/c++/10.3.1/bits/std_function.h ****  *  This is an internal header file, included by other library headers.
  27:/Library/DaisyToolchain/0.2.0/arm/arm-none-eabi/include/c++/10.3.1/bits/std_function.h ****  *  Do not attempt to use it directly. @headername{functional}
  28:/Library/DaisyToolchain/0.2.0/arm/arm-none-eabi/include/c++/10.3.1/bits/std_function.h ****  */
  29:/Library/DaisyToolchain/0.2.0/arm/arm-none-eabi/include/c++/10.3.1/bits/std_function.h **** 
  30:/Library/DaisyToolchain/0.2.0/arm/arm-none-eabi/include/c++/10.3.1/bits/std_function.h **** #ifndef _GLIBCXX_STD_FUNCTION_H
ARM GAS  /var/folders/wz/z09yph4n0qj4t7mjxhl6ttn80000gn/T//cc3KzP2n.s 			page 2


  31:/Library/DaisyToolchain/0.2.0/arm/arm-none-eabi/include/c++/10.3.1/bits/std_function.h **** #define _GLIBCXX_STD_FUNCTION_H 1
  32:/Library/DaisyToolchain/0.2.0/arm/arm-none-eabi/include/c++/10.3.1/bits/std_function.h **** 
  33:/Library/DaisyToolchain/0.2.0/arm/arm-none-eabi/include/c++/10.3.1/bits/std_function.h **** #pragma GCC system_header
  34:/Library/DaisyToolchain/0.2.0/arm/arm-none-eabi/include/c++/10.3.1/bits/std_function.h **** 
  35:/Library/DaisyToolchain/0.2.0/arm/arm-none-eabi/include/c++/10.3.1/bits/std_function.h **** #if __cplusplus < 201103L
  36:/Library/DaisyToolchain/0.2.0/arm/arm-none-eabi/include/c++/10.3.1/bits/std_function.h **** # include <bits/c++0x_warning.h>
  37:/Library/DaisyToolchain/0.2.0/arm/arm-none-eabi/include/c++/10.3.1/bits/std_function.h **** #else
  38:/Library/DaisyToolchain/0.2.0/arm/arm-none-eabi/include/c++/10.3.1/bits/std_function.h **** 
  39:/Library/DaisyToolchain/0.2.0/arm/arm-none-eabi/include/c++/10.3.1/bits/std_function.h **** #if __cpp_rtti
  40:/Library/DaisyToolchain/0.2.0/arm/arm-none-eabi/include/c++/10.3.1/bits/std_function.h **** # include <typeinfo>
  41:/Library/DaisyToolchain/0.2.0/arm/arm-none-eabi/include/c++/10.3.1/bits/std_function.h **** #endif
  42:/Library/DaisyToolchain/0.2.0/arm/arm-none-eabi/include/c++/10.3.1/bits/std_function.h **** #include <bits/stl_function.h>
  43:/Library/DaisyToolchain/0.2.0/arm/arm-none-eabi/include/c++/10.3.1/bits/std_function.h **** #include <bits/invoke.h>
  44:/Library/DaisyToolchain/0.2.0/arm/arm-none-eabi/include/c++/10.3.1/bits/std_function.h **** #include <bits/refwrap.h>
  45:/Library/DaisyToolchain/0.2.0/arm/arm-none-eabi/include/c++/10.3.1/bits/std_function.h **** #include <bits/functexcept.h>
  46:/Library/DaisyToolchain/0.2.0/arm/arm-none-eabi/include/c++/10.3.1/bits/std_function.h **** 
  47:/Library/DaisyToolchain/0.2.0/arm/arm-none-eabi/include/c++/10.3.1/bits/std_function.h **** namespace std _GLIBCXX_VISIBILITY(default)
  48:/Library/DaisyToolchain/0.2.0/arm/arm-none-eabi/include/c++/10.3.1/bits/std_function.h **** {
  49:/Library/DaisyToolchain/0.2.0/arm/arm-none-eabi/include/c++/10.3.1/bits/std_function.h **** _GLIBCXX_BEGIN_NAMESPACE_VERSION
  50:/Library/DaisyToolchain/0.2.0/arm/arm-none-eabi/include/c++/10.3.1/bits/std_function.h **** 
  51:/Library/DaisyToolchain/0.2.0/arm/arm-none-eabi/include/c++/10.3.1/bits/std_function.h ****   /**
  52:/Library/DaisyToolchain/0.2.0/arm/arm-none-eabi/include/c++/10.3.1/bits/std_function.h ****    *  @brief Exception class thrown when class template function's
  53:/Library/DaisyToolchain/0.2.0/arm/arm-none-eabi/include/c++/10.3.1/bits/std_function.h ****    *  operator() is called with an empty target.
  54:/Library/DaisyToolchain/0.2.0/arm/arm-none-eabi/include/c++/10.3.1/bits/std_function.h ****    *  @ingroup exceptions
  55:/Library/DaisyToolchain/0.2.0/arm/arm-none-eabi/include/c++/10.3.1/bits/std_function.h ****    */
  56:/Library/DaisyToolchain/0.2.0/arm/arm-none-eabi/include/c++/10.3.1/bits/std_function.h ****   class bad_function_call : public std::exception
  57:/Library/DaisyToolchain/0.2.0/arm/arm-none-eabi/include/c++/10.3.1/bits/std_function.h ****   {
  58:/Library/DaisyToolchain/0.2.0/arm/arm-none-eabi/include/c++/10.3.1/bits/std_function.h ****   public:
  59:/Library/DaisyToolchain/0.2.0/arm/arm-none-eabi/include/c++/10.3.1/bits/std_function.h ****     virtual ~bad_function_call() noexcept;
  60:/Library/DaisyToolchain/0.2.0/arm/arm-none-eabi/include/c++/10.3.1/bits/std_function.h **** 
  61:/Library/DaisyToolchain/0.2.0/arm/arm-none-eabi/include/c++/10.3.1/bits/std_function.h ****     const char* what() const noexcept;
  62:/Library/DaisyToolchain/0.2.0/arm/arm-none-eabi/include/c++/10.3.1/bits/std_function.h ****   };
  63:/Library/DaisyToolchain/0.2.0/arm/arm-none-eabi/include/c++/10.3.1/bits/std_function.h **** 
  64:/Library/DaisyToolchain/0.2.0/arm/arm-none-eabi/include/c++/10.3.1/bits/std_function.h ****   /**
  65:/Library/DaisyToolchain/0.2.0/arm/arm-none-eabi/include/c++/10.3.1/bits/std_function.h ****    *  Trait identifying "location-invariant" types, meaning that the
  66:/Library/DaisyToolchain/0.2.0/arm/arm-none-eabi/include/c++/10.3.1/bits/std_function.h ****    *  address of the object (or any of its members) will not escape.
  67:/Library/DaisyToolchain/0.2.0/arm/arm-none-eabi/include/c++/10.3.1/bits/std_function.h ****    *  Trivially copyable types are location-invariant and users can
  68:/Library/DaisyToolchain/0.2.0/arm/arm-none-eabi/include/c++/10.3.1/bits/std_function.h ****    *  specialize this trait for other types.
  69:/Library/DaisyToolchain/0.2.0/arm/arm-none-eabi/include/c++/10.3.1/bits/std_function.h ****    */
  70:/Library/DaisyToolchain/0.2.0/arm/arm-none-eabi/include/c++/10.3.1/bits/std_function.h ****   template<typename _Tp>
  71:/Library/DaisyToolchain/0.2.0/arm/arm-none-eabi/include/c++/10.3.1/bits/std_function.h ****     struct __is_location_invariant
  72:/Library/DaisyToolchain/0.2.0/arm/arm-none-eabi/include/c++/10.3.1/bits/std_function.h ****     : is_trivially_copyable<_Tp>::type
  73:/Library/DaisyToolchain/0.2.0/arm/arm-none-eabi/include/c++/10.3.1/bits/std_function.h ****     { };
  74:/Library/DaisyToolchain/0.2.0/arm/arm-none-eabi/include/c++/10.3.1/bits/std_function.h **** 
  75:/Library/DaisyToolchain/0.2.0/arm/arm-none-eabi/include/c++/10.3.1/bits/std_function.h ****   class _Undefined_class;
  76:/Library/DaisyToolchain/0.2.0/arm/arm-none-eabi/include/c++/10.3.1/bits/std_function.h **** 
  77:/Library/DaisyToolchain/0.2.0/arm/arm-none-eabi/include/c++/10.3.1/bits/std_function.h ****   union _Nocopy_types
  78:/Library/DaisyToolchain/0.2.0/arm/arm-none-eabi/include/c++/10.3.1/bits/std_function.h ****   {
  79:/Library/DaisyToolchain/0.2.0/arm/arm-none-eabi/include/c++/10.3.1/bits/std_function.h ****     void*       _M_object;
  80:/Library/DaisyToolchain/0.2.0/arm/arm-none-eabi/include/c++/10.3.1/bits/std_function.h ****     const void* _M_const_object;
  81:/Library/DaisyToolchain/0.2.0/arm/arm-none-eabi/include/c++/10.3.1/bits/std_function.h ****     void (*_M_function_pointer)();
  82:/Library/DaisyToolchain/0.2.0/arm/arm-none-eabi/include/c++/10.3.1/bits/std_function.h ****     void (_Undefined_class::*_M_member_pointer)();
  83:/Library/DaisyToolchain/0.2.0/arm/arm-none-eabi/include/c++/10.3.1/bits/std_function.h ****   };
  84:/Library/DaisyToolchain/0.2.0/arm/arm-none-eabi/include/c++/10.3.1/bits/std_function.h **** 
  85:/Library/DaisyToolchain/0.2.0/arm/arm-none-eabi/include/c++/10.3.1/bits/std_function.h ****   union [[gnu::may_alias]] _Any_data
  86:/Library/DaisyToolchain/0.2.0/arm/arm-none-eabi/include/c++/10.3.1/bits/std_function.h ****   {
  87:/Library/DaisyToolchain/0.2.0/arm/arm-none-eabi/include/c++/10.3.1/bits/std_function.h ****     void*       _M_access()       { return &_M_pod_data[0]; }
ARM GAS  /var/folders/wz/z09yph4n0qj4t7mjxhl6ttn80000gn/T//cc3KzP2n.s 			page 3


  88:/Library/DaisyToolchain/0.2.0/arm/arm-none-eabi/include/c++/10.3.1/bits/std_function.h ****     const void* _M_access() const { return &_M_pod_data[0]; }
  89:/Library/DaisyToolchain/0.2.0/arm/arm-none-eabi/include/c++/10.3.1/bits/std_function.h **** 
  90:/Library/DaisyToolchain/0.2.0/arm/arm-none-eabi/include/c++/10.3.1/bits/std_function.h ****     template<typename _Tp>
  91:/Library/DaisyToolchain/0.2.0/arm/arm-none-eabi/include/c++/10.3.1/bits/std_function.h ****       _Tp&
  92:/Library/DaisyToolchain/0.2.0/arm/arm-none-eabi/include/c++/10.3.1/bits/std_function.h ****       _M_access()
  93:/Library/DaisyToolchain/0.2.0/arm/arm-none-eabi/include/c++/10.3.1/bits/std_function.h ****       { return *static_cast<_Tp*>(_M_access()); }
  94:/Library/DaisyToolchain/0.2.0/arm/arm-none-eabi/include/c++/10.3.1/bits/std_function.h **** 
  95:/Library/DaisyToolchain/0.2.0/arm/arm-none-eabi/include/c++/10.3.1/bits/std_function.h ****     template<typename _Tp>
  96:/Library/DaisyToolchain/0.2.0/arm/arm-none-eabi/include/c++/10.3.1/bits/std_function.h ****       const _Tp&
  97:/Library/DaisyToolchain/0.2.0/arm/arm-none-eabi/include/c++/10.3.1/bits/std_function.h ****       _M_access() const
  98:/Library/DaisyToolchain/0.2.0/arm/arm-none-eabi/include/c++/10.3.1/bits/std_function.h ****       { return *static_cast<const _Tp*>(_M_access()); }
  99:/Library/DaisyToolchain/0.2.0/arm/arm-none-eabi/include/c++/10.3.1/bits/std_function.h **** 
 100:/Library/DaisyToolchain/0.2.0/arm/arm-none-eabi/include/c++/10.3.1/bits/std_function.h ****     _Nocopy_types _M_unused;
 101:/Library/DaisyToolchain/0.2.0/arm/arm-none-eabi/include/c++/10.3.1/bits/std_function.h ****     char _M_pod_data[sizeof(_Nocopy_types)];
 102:/Library/DaisyToolchain/0.2.0/arm/arm-none-eabi/include/c++/10.3.1/bits/std_function.h ****   };
 103:/Library/DaisyToolchain/0.2.0/arm/arm-none-eabi/include/c++/10.3.1/bits/std_function.h **** 
 104:/Library/DaisyToolchain/0.2.0/arm/arm-none-eabi/include/c++/10.3.1/bits/std_function.h ****   enum _Manager_operation
 105:/Library/DaisyToolchain/0.2.0/arm/arm-none-eabi/include/c++/10.3.1/bits/std_function.h ****   {
 106:/Library/DaisyToolchain/0.2.0/arm/arm-none-eabi/include/c++/10.3.1/bits/std_function.h ****     __get_type_info,
 107:/Library/DaisyToolchain/0.2.0/arm/arm-none-eabi/include/c++/10.3.1/bits/std_function.h ****     __get_functor_ptr,
 108:/Library/DaisyToolchain/0.2.0/arm/arm-none-eabi/include/c++/10.3.1/bits/std_function.h ****     __clone_functor,
 109:/Library/DaisyToolchain/0.2.0/arm/arm-none-eabi/include/c++/10.3.1/bits/std_function.h ****     __destroy_functor
 110:/Library/DaisyToolchain/0.2.0/arm/arm-none-eabi/include/c++/10.3.1/bits/std_function.h ****   };
 111:/Library/DaisyToolchain/0.2.0/arm/arm-none-eabi/include/c++/10.3.1/bits/std_function.h **** 
 112:/Library/DaisyToolchain/0.2.0/arm/arm-none-eabi/include/c++/10.3.1/bits/std_function.h ****   template<typename _Signature>
 113:/Library/DaisyToolchain/0.2.0/arm/arm-none-eabi/include/c++/10.3.1/bits/std_function.h ****     class function;
 114:/Library/DaisyToolchain/0.2.0/arm/arm-none-eabi/include/c++/10.3.1/bits/std_function.h **** 
 115:/Library/DaisyToolchain/0.2.0/arm/arm-none-eabi/include/c++/10.3.1/bits/std_function.h ****   /// Base class of all polymorphic function object wrappers.
 116:/Library/DaisyToolchain/0.2.0/arm/arm-none-eabi/include/c++/10.3.1/bits/std_function.h ****   class _Function_base
 117:/Library/DaisyToolchain/0.2.0/arm/arm-none-eabi/include/c++/10.3.1/bits/std_function.h ****   {
 118:/Library/DaisyToolchain/0.2.0/arm/arm-none-eabi/include/c++/10.3.1/bits/std_function.h ****   public:
 119:/Library/DaisyToolchain/0.2.0/arm/arm-none-eabi/include/c++/10.3.1/bits/std_function.h ****     static const size_t _M_max_size = sizeof(_Nocopy_types);
 120:/Library/DaisyToolchain/0.2.0/arm/arm-none-eabi/include/c++/10.3.1/bits/std_function.h ****     static const size_t _M_max_align = __alignof__(_Nocopy_types);
 121:/Library/DaisyToolchain/0.2.0/arm/arm-none-eabi/include/c++/10.3.1/bits/std_function.h **** 
 122:/Library/DaisyToolchain/0.2.0/arm/arm-none-eabi/include/c++/10.3.1/bits/std_function.h ****     template<typename _Functor>
 123:/Library/DaisyToolchain/0.2.0/arm/arm-none-eabi/include/c++/10.3.1/bits/std_function.h ****       class _Base_manager
 124:/Library/DaisyToolchain/0.2.0/arm/arm-none-eabi/include/c++/10.3.1/bits/std_function.h ****       {
 125:/Library/DaisyToolchain/0.2.0/arm/arm-none-eabi/include/c++/10.3.1/bits/std_function.h ****       protected:
 126:/Library/DaisyToolchain/0.2.0/arm/arm-none-eabi/include/c++/10.3.1/bits/std_function.h **** 	static const bool __stored_locally =
 127:/Library/DaisyToolchain/0.2.0/arm/arm-none-eabi/include/c++/10.3.1/bits/std_function.h **** 	(__is_location_invariant<_Functor>::value
 128:/Library/DaisyToolchain/0.2.0/arm/arm-none-eabi/include/c++/10.3.1/bits/std_function.h **** 	 && sizeof(_Functor) <= _M_max_size
 129:/Library/DaisyToolchain/0.2.0/arm/arm-none-eabi/include/c++/10.3.1/bits/std_function.h **** 	 && __alignof__(_Functor) <= _M_max_align
 130:/Library/DaisyToolchain/0.2.0/arm/arm-none-eabi/include/c++/10.3.1/bits/std_function.h **** 	 && (_M_max_align % __alignof__(_Functor) == 0));
 131:/Library/DaisyToolchain/0.2.0/arm/arm-none-eabi/include/c++/10.3.1/bits/std_function.h **** 
 132:/Library/DaisyToolchain/0.2.0/arm/arm-none-eabi/include/c++/10.3.1/bits/std_function.h **** 	typedef integral_constant<bool, __stored_locally> _Local_storage;
 133:/Library/DaisyToolchain/0.2.0/arm/arm-none-eabi/include/c++/10.3.1/bits/std_function.h **** 
 134:/Library/DaisyToolchain/0.2.0/arm/arm-none-eabi/include/c++/10.3.1/bits/std_function.h **** 	// Retrieve a pointer to the function object
 135:/Library/DaisyToolchain/0.2.0/arm/arm-none-eabi/include/c++/10.3.1/bits/std_function.h **** 	static _Functor*
 136:/Library/DaisyToolchain/0.2.0/arm/arm-none-eabi/include/c++/10.3.1/bits/std_function.h **** 	_M_get_pointer(const _Any_data& __source)
 137:/Library/DaisyToolchain/0.2.0/arm/arm-none-eabi/include/c++/10.3.1/bits/std_function.h **** 	{
 138:/Library/DaisyToolchain/0.2.0/arm/arm-none-eabi/include/c++/10.3.1/bits/std_function.h **** 	  if _GLIBCXX17_CONSTEXPR (__stored_locally)
 139:/Library/DaisyToolchain/0.2.0/arm/arm-none-eabi/include/c++/10.3.1/bits/std_function.h **** 	    {
 140:/Library/DaisyToolchain/0.2.0/arm/arm-none-eabi/include/c++/10.3.1/bits/std_function.h **** 	      const _Functor& __f = __source._M_access<_Functor>();
 141:/Library/DaisyToolchain/0.2.0/arm/arm-none-eabi/include/c++/10.3.1/bits/std_function.h **** 	      return const_cast<_Functor*>(std::__addressof(__f));
 142:/Library/DaisyToolchain/0.2.0/arm/arm-none-eabi/include/c++/10.3.1/bits/std_function.h **** 	    }
 143:/Library/DaisyToolchain/0.2.0/arm/arm-none-eabi/include/c++/10.3.1/bits/std_function.h **** 	  else // have stored a pointer
 144:/Library/DaisyToolchain/0.2.0/arm/arm-none-eabi/include/c++/10.3.1/bits/std_function.h **** 	    return __source._M_access<_Functor*>();
ARM GAS  /var/folders/wz/z09yph4n0qj4t7mjxhl6ttn80000gn/T//cc3KzP2n.s 			page 4


 145:/Library/DaisyToolchain/0.2.0/arm/arm-none-eabi/include/c++/10.3.1/bits/std_function.h **** 	}
 146:/Library/DaisyToolchain/0.2.0/arm/arm-none-eabi/include/c++/10.3.1/bits/std_function.h **** 
 147:/Library/DaisyToolchain/0.2.0/arm/arm-none-eabi/include/c++/10.3.1/bits/std_function.h **** 	// Clone a location-invariant function object that fits within
 148:/Library/DaisyToolchain/0.2.0/arm/arm-none-eabi/include/c++/10.3.1/bits/std_function.h **** 	// an _Any_data structure.
 149:/Library/DaisyToolchain/0.2.0/arm/arm-none-eabi/include/c++/10.3.1/bits/std_function.h **** 	static void
 150:/Library/DaisyToolchain/0.2.0/arm/arm-none-eabi/include/c++/10.3.1/bits/std_function.h **** 	_M_clone(_Any_data& __dest, const _Any_data& __source, true_type)
 151:/Library/DaisyToolchain/0.2.0/arm/arm-none-eabi/include/c++/10.3.1/bits/std_function.h **** 	{
 152:/Library/DaisyToolchain/0.2.0/arm/arm-none-eabi/include/c++/10.3.1/bits/std_function.h **** 	  ::new (__dest._M_access()) _Functor(__source._M_access<_Functor>());
 153:/Library/DaisyToolchain/0.2.0/arm/arm-none-eabi/include/c++/10.3.1/bits/std_function.h **** 	}
 154:/Library/DaisyToolchain/0.2.0/arm/arm-none-eabi/include/c++/10.3.1/bits/std_function.h **** 
 155:/Library/DaisyToolchain/0.2.0/arm/arm-none-eabi/include/c++/10.3.1/bits/std_function.h **** 	// Clone a function object that is not location-invariant or
 156:/Library/DaisyToolchain/0.2.0/arm/arm-none-eabi/include/c++/10.3.1/bits/std_function.h **** 	// that cannot fit into an _Any_data structure.
 157:/Library/DaisyToolchain/0.2.0/arm/arm-none-eabi/include/c++/10.3.1/bits/std_function.h **** 	static void
 158:/Library/DaisyToolchain/0.2.0/arm/arm-none-eabi/include/c++/10.3.1/bits/std_function.h **** 	_M_clone(_Any_data& __dest, const _Any_data& __source, false_type)
 159:/Library/DaisyToolchain/0.2.0/arm/arm-none-eabi/include/c++/10.3.1/bits/std_function.h **** 	{
 160:/Library/DaisyToolchain/0.2.0/arm/arm-none-eabi/include/c++/10.3.1/bits/std_function.h **** 	  __dest._M_access<_Functor*>() =
 161:/Library/DaisyToolchain/0.2.0/arm/arm-none-eabi/include/c++/10.3.1/bits/std_function.h **** 	    new _Functor(*__source._M_access<const _Functor*>());
 162:/Library/DaisyToolchain/0.2.0/arm/arm-none-eabi/include/c++/10.3.1/bits/std_function.h **** 	}
 163:/Library/DaisyToolchain/0.2.0/arm/arm-none-eabi/include/c++/10.3.1/bits/std_function.h **** 
 164:/Library/DaisyToolchain/0.2.0/arm/arm-none-eabi/include/c++/10.3.1/bits/std_function.h **** 	// Destroying a location-invariant object may still require
 165:/Library/DaisyToolchain/0.2.0/arm/arm-none-eabi/include/c++/10.3.1/bits/std_function.h **** 	// destruction.
 166:/Library/DaisyToolchain/0.2.0/arm/arm-none-eabi/include/c++/10.3.1/bits/std_function.h **** 	static void
 167:/Library/DaisyToolchain/0.2.0/arm/arm-none-eabi/include/c++/10.3.1/bits/std_function.h **** 	_M_destroy(_Any_data& __victim, true_type)
 168:/Library/DaisyToolchain/0.2.0/arm/arm-none-eabi/include/c++/10.3.1/bits/std_function.h **** 	{
 169:/Library/DaisyToolchain/0.2.0/arm/arm-none-eabi/include/c++/10.3.1/bits/std_function.h **** 	  __victim._M_access<_Functor>().~_Functor();
 170:/Library/DaisyToolchain/0.2.0/arm/arm-none-eabi/include/c++/10.3.1/bits/std_function.h **** 	}
 171:/Library/DaisyToolchain/0.2.0/arm/arm-none-eabi/include/c++/10.3.1/bits/std_function.h **** 
 172:/Library/DaisyToolchain/0.2.0/arm/arm-none-eabi/include/c++/10.3.1/bits/std_function.h **** 	// Destroying an object located on the heap.
 173:/Library/DaisyToolchain/0.2.0/arm/arm-none-eabi/include/c++/10.3.1/bits/std_function.h **** 	static void
 174:/Library/DaisyToolchain/0.2.0/arm/arm-none-eabi/include/c++/10.3.1/bits/std_function.h **** 	_M_destroy(_Any_data& __victim, false_type)
 175:/Library/DaisyToolchain/0.2.0/arm/arm-none-eabi/include/c++/10.3.1/bits/std_function.h **** 	{
 176:/Library/DaisyToolchain/0.2.0/arm/arm-none-eabi/include/c++/10.3.1/bits/std_function.h **** 	  delete __victim._M_access<_Functor*>();
 177:/Library/DaisyToolchain/0.2.0/arm/arm-none-eabi/include/c++/10.3.1/bits/std_function.h **** 	}
 178:/Library/DaisyToolchain/0.2.0/arm/arm-none-eabi/include/c++/10.3.1/bits/std_function.h **** 
 179:/Library/DaisyToolchain/0.2.0/arm/arm-none-eabi/include/c++/10.3.1/bits/std_function.h ****       public:
 180:/Library/DaisyToolchain/0.2.0/arm/arm-none-eabi/include/c++/10.3.1/bits/std_function.h **** 	static bool
 181:/Library/DaisyToolchain/0.2.0/arm/arm-none-eabi/include/c++/10.3.1/bits/std_function.h **** 	_M_manager(_Any_data& __dest, const _Any_data& __source,
 182:/Library/DaisyToolchain/0.2.0/arm/arm-none-eabi/include/c++/10.3.1/bits/std_function.h **** 		   _Manager_operation __op)
 183:/Library/DaisyToolchain/0.2.0/arm/arm-none-eabi/include/c++/10.3.1/bits/std_function.h **** 	{
 184:/Library/DaisyToolchain/0.2.0/arm/arm-none-eabi/include/c++/10.3.1/bits/std_function.h **** 	  switch (__op)
 185:/Library/DaisyToolchain/0.2.0/arm/arm-none-eabi/include/c++/10.3.1/bits/std_function.h **** 	    {
 186:/Library/DaisyToolchain/0.2.0/arm/arm-none-eabi/include/c++/10.3.1/bits/std_function.h **** #if __cpp_rtti
 187:/Library/DaisyToolchain/0.2.0/arm/arm-none-eabi/include/c++/10.3.1/bits/std_function.h **** 	    case __get_type_info:
 188:/Library/DaisyToolchain/0.2.0/arm/arm-none-eabi/include/c++/10.3.1/bits/std_function.h **** 	      __dest._M_access<const type_info*>() = &typeid(_Functor);
 189:/Library/DaisyToolchain/0.2.0/arm/arm-none-eabi/include/c++/10.3.1/bits/std_function.h **** 	      break;
 190:/Library/DaisyToolchain/0.2.0/arm/arm-none-eabi/include/c++/10.3.1/bits/std_function.h **** #endif
 191:/Library/DaisyToolchain/0.2.0/arm/arm-none-eabi/include/c++/10.3.1/bits/std_function.h **** 	    case __get_functor_ptr:
 192:/Library/DaisyToolchain/0.2.0/arm/arm-none-eabi/include/c++/10.3.1/bits/std_function.h **** 	      __dest._M_access<_Functor*>() = _M_get_pointer(__source);
 193:/Library/DaisyToolchain/0.2.0/arm/arm-none-eabi/include/c++/10.3.1/bits/std_function.h **** 	      break;
 194:/Library/DaisyToolchain/0.2.0/arm/arm-none-eabi/include/c++/10.3.1/bits/std_function.h **** 
 195:/Library/DaisyToolchain/0.2.0/arm/arm-none-eabi/include/c++/10.3.1/bits/std_function.h **** 	    case __clone_functor:
 196:/Library/DaisyToolchain/0.2.0/arm/arm-none-eabi/include/c++/10.3.1/bits/std_function.h **** 	      _M_clone(__dest, __source, _Local_storage());
 197:/Library/DaisyToolchain/0.2.0/arm/arm-none-eabi/include/c++/10.3.1/bits/std_function.h **** 	      break;
 198:/Library/DaisyToolchain/0.2.0/arm/arm-none-eabi/include/c++/10.3.1/bits/std_function.h **** 
 199:/Library/DaisyToolchain/0.2.0/arm/arm-none-eabi/include/c++/10.3.1/bits/std_function.h **** 	    case __destroy_functor:
 200:/Library/DaisyToolchain/0.2.0/arm/arm-none-eabi/include/c++/10.3.1/bits/std_function.h **** 	      _M_destroy(__dest, _Local_storage());
 201:/Library/DaisyToolchain/0.2.0/arm/arm-none-eabi/include/c++/10.3.1/bits/std_function.h **** 	      break;
ARM GAS  /var/folders/wz/z09yph4n0qj4t7mjxhl6ttn80000gn/T//cc3KzP2n.s 			page 5


 202:/Library/DaisyToolchain/0.2.0/arm/arm-none-eabi/include/c++/10.3.1/bits/std_function.h **** 	    }
 203:/Library/DaisyToolchain/0.2.0/arm/arm-none-eabi/include/c++/10.3.1/bits/std_function.h **** 	  return false;
 204:/Library/DaisyToolchain/0.2.0/arm/arm-none-eabi/include/c++/10.3.1/bits/std_function.h **** 	}
 205:/Library/DaisyToolchain/0.2.0/arm/arm-none-eabi/include/c++/10.3.1/bits/std_function.h **** 
 206:/Library/DaisyToolchain/0.2.0/arm/arm-none-eabi/include/c++/10.3.1/bits/std_function.h **** 	static void
 207:/Library/DaisyToolchain/0.2.0/arm/arm-none-eabi/include/c++/10.3.1/bits/std_function.h **** 	_M_init_functor(_Any_data& __functor, _Functor&& __f)
 208:/Library/DaisyToolchain/0.2.0/arm/arm-none-eabi/include/c++/10.3.1/bits/std_function.h **** 	{ _M_init_functor(__functor, std::move(__f), _Local_storage()); }
 209:/Library/DaisyToolchain/0.2.0/arm/arm-none-eabi/include/c++/10.3.1/bits/std_function.h **** 
 210:/Library/DaisyToolchain/0.2.0/arm/arm-none-eabi/include/c++/10.3.1/bits/std_function.h **** 	template<typename _Signature>
 211:/Library/DaisyToolchain/0.2.0/arm/arm-none-eabi/include/c++/10.3.1/bits/std_function.h **** 	  static bool
 212:/Library/DaisyToolchain/0.2.0/arm/arm-none-eabi/include/c++/10.3.1/bits/std_function.h **** 	  _M_not_empty_function(const function<_Signature>& __f)
 213:/Library/DaisyToolchain/0.2.0/arm/arm-none-eabi/include/c++/10.3.1/bits/std_function.h **** 	  { return static_cast<bool>(__f); }
 214:/Library/DaisyToolchain/0.2.0/arm/arm-none-eabi/include/c++/10.3.1/bits/std_function.h **** 
 215:/Library/DaisyToolchain/0.2.0/arm/arm-none-eabi/include/c++/10.3.1/bits/std_function.h **** 	template<typename _Tp>
 216:/Library/DaisyToolchain/0.2.0/arm/arm-none-eabi/include/c++/10.3.1/bits/std_function.h **** 	  static bool
 217:/Library/DaisyToolchain/0.2.0/arm/arm-none-eabi/include/c++/10.3.1/bits/std_function.h **** 	  _M_not_empty_function(_Tp* __fp)
 218:/Library/DaisyToolchain/0.2.0/arm/arm-none-eabi/include/c++/10.3.1/bits/std_function.h **** 	  { return __fp != nullptr; }
 219:/Library/DaisyToolchain/0.2.0/arm/arm-none-eabi/include/c++/10.3.1/bits/std_function.h **** 
 220:/Library/DaisyToolchain/0.2.0/arm/arm-none-eabi/include/c++/10.3.1/bits/std_function.h **** 	template<typename _Class, typename _Tp>
 221:/Library/DaisyToolchain/0.2.0/arm/arm-none-eabi/include/c++/10.3.1/bits/std_function.h **** 	  static bool
 222:/Library/DaisyToolchain/0.2.0/arm/arm-none-eabi/include/c++/10.3.1/bits/std_function.h **** 	  _M_not_empty_function(_Tp _Class::* __mp)
 223:/Library/DaisyToolchain/0.2.0/arm/arm-none-eabi/include/c++/10.3.1/bits/std_function.h **** 	  { return __mp != nullptr; }
 224:/Library/DaisyToolchain/0.2.0/arm/arm-none-eabi/include/c++/10.3.1/bits/std_function.h **** 
 225:/Library/DaisyToolchain/0.2.0/arm/arm-none-eabi/include/c++/10.3.1/bits/std_function.h **** 	template<typename _Tp>
 226:/Library/DaisyToolchain/0.2.0/arm/arm-none-eabi/include/c++/10.3.1/bits/std_function.h **** 	  static bool
 227:/Library/DaisyToolchain/0.2.0/arm/arm-none-eabi/include/c++/10.3.1/bits/std_function.h **** 	  _M_not_empty_function(const _Tp&)
 228:/Library/DaisyToolchain/0.2.0/arm/arm-none-eabi/include/c++/10.3.1/bits/std_function.h **** 	  { return true; }
 229:/Library/DaisyToolchain/0.2.0/arm/arm-none-eabi/include/c++/10.3.1/bits/std_function.h **** 
 230:/Library/DaisyToolchain/0.2.0/arm/arm-none-eabi/include/c++/10.3.1/bits/std_function.h ****       private:
 231:/Library/DaisyToolchain/0.2.0/arm/arm-none-eabi/include/c++/10.3.1/bits/std_function.h **** 	static void
 232:/Library/DaisyToolchain/0.2.0/arm/arm-none-eabi/include/c++/10.3.1/bits/std_function.h **** 	_M_init_functor(_Any_data& __functor, _Functor&& __f, true_type)
 233:/Library/DaisyToolchain/0.2.0/arm/arm-none-eabi/include/c++/10.3.1/bits/std_function.h **** 	{ ::new (__functor._M_access()) _Functor(std::move(__f)); }
 234:/Library/DaisyToolchain/0.2.0/arm/arm-none-eabi/include/c++/10.3.1/bits/std_function.h **** 
 235:/Library/DaisyToolchain/0.2.0/arm/arm-none-eabi/include/c++/10.3.1/bits/std_function.h **** 	static void
 236:/Library/DaisyToolchain/0.2.0/arm/arm-none-eabi/include/c++/10.3.1/bits/std_function.h **** 	_M_init_functor(_Any_data& __functor, _Functor&& __f, false_type)
 237:/Library/DaisyToolchain/0.2.0/arm/arm-none-eabi/include/c++/10.3.1/bits/std_function.h **** 	{ __functor._M_access<_Functor*>() = new _Functor(std::move(__f)); }
 238:/Library/DaisyToolchain/0.2.0/arm/arm-none-eabi/include/c++/10.3.1/bits/std_function.h ****       };
 239:/Library/DaisyToolchain/0.2.0/arm/arm-none-eabi/include/c++/10.3.1/bits/std_function.h **** 
 240:/Library/DaisyToolchain/0.2.0/arm/arm-none-eabi/include/c++/10.3.1/bits/std_function.h ****     _Function_base() : _M_manager(nullptr) { }
 241:/Library/DaisyToolchain/0.2.0/arm/arm-none-eabi/include/c++/10.3.1/bits/std_function.h **** 
 242:/Library/DaisyToolchain/0.2.0/arm/arm-none-eabi/include/c++/10.3.1/bits/std_function.h ****     ~_Function_base()
  29              		.loc 1 242 5 view -0
  30              		.cfi_startproc
  31              		@ args = 0, pretend = 0, frame = 0
  32              		@ frame_needed = 0, uses_anonymous_args = 0
  33              	.LBB154:
 243:/Library/DaisyToolchain/0.2.0/arm/arm-none-eabi/include/c++/10.3.1/bits/std_function.h ****     {
 244:/Library/DaisyToolchain/0.2.0/arm/arm-none-eabi/include/c++/10.3.1/bits/std_function.h ****       if (_M_manager)
  34              		.loc 1 244 7 view .LVU1
  35              		.loc 1 244 11 is_stmt 0 view .LVU2
  36 0000 8368     		ldr	r3, [r0, #8]
  37              	.LBE154:
 242:/Library/DaisyToolchain/0.2.0/arm/arm-none-eabi/include/c++/10.3.1/bits/std_function.h ****     {
  38              		.loc 1 242 5 view .LVU3
  39 0002 10B5     		push	{r4, lr}
  40              		.cfi_def_cfa_offset 8
  41              		.cfi_offset 4, -8
ARM GAS  /var/folders/wz/z09yph4n0qj4t7mjxhl6ttn80000gn/T//cc3KzP2n.s 			page 6


  42              		.cfi_offset 14, -4
 242:/Library/DaisyToolchain/0.2.0/arm/arm-none-eabi/include/c++/10.3.1/bits/std_function.h ****     {
  43              		.loc 1 242 5 view .LVU4
  44 0004 0446     		mov	r4, r0
  45              	.LBB155:
  46              		.loc 1 244 7 view .LVU5
  47 0006 13B1     		cbz	r3, .L2
 245:/Library/DaisyToolchain/0.2.0/arm/arm-none-eabi/include/c++/10.3.1/bits/std_function.h **** 	_M_manager(_M_functor, _M_functor, __destroy_functor);
  48              		.loc 1 245 2 is_stmt 1 view .LVU6
  49              		.loc 1 245 12 is_stmt 0 view .LVU7
  50 0008 0322     		movs	r2, #3
  51 000a 0146     		mov	r1, r0
  52 000c 9847     		blx	r3
  53              	.LVL1:
  54              	.L2:
  55              		.loc 1 245 12 view .LVU8
  56              	.LBE155:
 246:/Library/DaisyToolchain/0.2.0/arm/arm-none-eabi/include/c++/10.3.1/bits/std_function.h ****     }
  57              		.loc 1 246 5 view .LVU9
  58 000e 2046     		mov	r0, r4
  59 0010 10BD     		pop	{r4, pc}
  60              		.loc 1 246 5 view .LVU10
  61              		.cfi_endproc
  62              	.LFE2973:
  64              		.weak	_ZNSt14_Function_baseD1Ev
  65              		.thumb_set _ZNSt14_Function_baseD1Ev,_ZNSt14_Function_baseD2Ev
  66              		.section	.text._ZN8UiDriver9DrawPixelEjjhh,"axG",%progbits,_ZN8UiDriver9DrawPixelEjjhh,comdat
  67              		.align	1
  68              		.weak	_ZN8UiDriver9DrawPixelEjjhh
  69              		.syntax unified
  70              		.thumb
  71              		.thumb_func
  73              	_ZN8UiDriver9DrawPixelEjjhh:
  74              	.LVL2:
  75              	.LFB5097:
  76              		.file 2 "GUI/FX/../../Drivers/daisy_ILI9341.hpp"
   1:GUI/FX/../../Drivers/daisy_ILI9341.hpp **** #ifndef DAISY_ILI9341_HPP
   2:GUI/FX/../../Drivers/daisy_ILI9341.hpp **** #define DAISY_ILI9341_HPP
   3:GUI/FX/../../Drivers/daisy_ILI9341.hpp **** 
   4:GUI/FX/../../Drivers/daisy_ILI9341.hpp **** #include <cstring>
   5:GUI/FX/../../Drivers/daisy_ILI9341.hpp **** 
   6:GUI/FX/../../Drivers/daisy_ILI9341.hpp **** #include "daisy_seed.h"
   7:GUI/FX/../../Drivers/daisy_ILI9341.hpp **** #include <util/oled_fonts.h>
   8:GUI/FX/../../Drivers/daisy_ILI9341.hpp **** #include <hid/disp/graphics_common.h>
   9:GUI/FX/../../Drivers/daisy_ILI9341.hpp **** 
  10:GUI/FX/../../Drivers/daisy_ILI9341.hpp **** using namespace daisy;
  11:GUI/FX/../../Drivers/daisy_ILI9341.hpp **** 
  12:GUI/FX/../../Drivers/daisy_ILI9341.hpp **** // #define SPI1_NSS 7    // LCD CS 3
  13:GUI/FX/../../Drivers/daisy_ILI9341.hpp **** // #define SPI1_SCK 8    // LCD SCK 7
  14:GUI/FX/../../Drivers/daisy_ILI9341.hpp **** // #define SPI1_MOSI 10  // LCD MOSI 6
  15:GUI/FX/../../Drivers/daisy_ILI9341.hpp **** // #define ADC1_INP15 16 // PIN 23 - LCD RST 4
  16:GUI/FX/../../Drivers/daisy_ILI9341.hpp **** // #define DAC1_OUT2 22  //PIN 29 - LCD DC 5
  17:GUI/FX/../../Drivers/daisy_ILI9341.hpp **** 
  18:GUI/FX/../../Drivers/daisy_ILI9341.hpp **** // #define SPI1_MISO 9 // Not used
  19:GUI/FX/../../Drivers/daisy_ILI9341.hpp **** // #define I2C1_SCL 11
  20:GUI/FX/../../Drivers/daisy_ILI9341.hpp **** // #define I2C1_SDA 12
  21:GUI/FX/../../Drivers/daisy_ILI9341.hpp **** 
ARM GAS  /var/folders/wz/z09yph4n0qj4t7mjxhl6ttn80000gn/T//cc3KzP2n.s 			page 7


  22:GUI/FX/../../Drivers/daisy_ILI9341.hpp **** enum TFT_COLOR
  23:GUI/FX/../../Drivers/daisy_ILI9341.hpp **** {
  24:GUI/FX/../../Drivers/daisy_ILI9341.hpp ****     COLOR_BLACK = 0,
  25:GUI/FX/../../Drivers/daisy_ILI9341.hpp ****     COLOR_WHITE,
  26:GUI/FX/../../Drivers/daisy_ILI9341.hpp ****     COLOR_BLUE,
  27:GUI/FX/../../Drivers/daisy_ILI9341.hpp ****     COLOR_DARK_BLUE,
  28:GUI/FX/../../Drivers/daisy_ILI9341.hpp ****     COLOR_CYAN,
  29:GUI/FX/../../Drivers/daisy_ILI9341.hpp ****     COLOR_YELLOW,
  30:GUI/FX/../../Drivers/daisy_ILI9341.hpp ****     COLOR_DARK_YELLOW,
  31:GUI/FX/../../Drivers/daisy_ILI9341.hpp ****     COLOR_ORANGE,
  32:GUI/FX/../../Drivers/daisy_ILI9341.hpp ****     COLOR_RED,
  33:GUI/FX/../../Drivers/daisy_ILI9341.hpp ****     COLOR_DARK_RED,
  34:GUI/FX/../../Drivers/daisy_ILI9341.hpp ****     COLOR_GREEN,
  35:GUI/FX/../../Drivers/daisy_ILI9341.hpp ****     COLOR_DARK_GREEN,
  36:GUI/FX/../../Drivers/daisy_ILI9341.hpp ****     COLOR_LIGHT_GREEN,
  37:GUI/FX/../../Drivers/daisy_ILI9341.hpp ****     COLOR_GRAY,
  38:GUI/FX/../../Drivers/daisy_ILI9341.hpp ****     COLOR_DARK_GRAY,
  39:GUI/FX/../../Drivers/daisy_ILI9341.hpp ****     COLOR_LIGHT_GRAY,
  40:GUI/FX/../../Drivers/daisy_ILI9341.hpp ****     COLOR_MEDIUM_GRAY,
  41:GUI/FX/../../Drivers/daisy_ILI9341.hpp ****     COLOR_ABL_BG,
  42:GUI/FX/../../Drivers/daisy_ILI9341.hpp ****     COLOR_ABL_LINE,
  43:GUI/FX/../../Drivers/daisy_ILI9341.hpp ****     COLOR_ABL_D_LINE,
  44:GUI/FX/../../Drivers/daisy_ILI9341.hpp ****     COLOR_ABL_L_GRAY,
  45:GUI/FX/../../Drivers/daisy_ILI9341.hpp ****     COLOR_ABL_M_GRAY,
  46:GUI/FX/../../Drivers/daisy_ILI9341.hpp ****     NUMBER_OF_TFT_COLORS,
  47:GUI/FX/../../Drivers/daisy_ILI9341.hpp **** };
  48:GUI/FX/../../Drivers/daisy_ILI9341.hpp **** 
  49:GUI/FX/../../Drivers/daisy_ILI9341.hpp **** /**
  50:GUI/FX/../../Drivers/daisy_ILI9341.hpp ****  * SPI Transport for ILI9341 TFT display devices
  51:GUI/FX/../../Drivers/daisy_ILI9341.hpp ****  */
  52:GUI/FX/../../Drivers/daisy_ILI9341.hpp **** class ILI9341SpiTransport
  53:GUI/FX/../../Drivers/daisy_ILI9341.hpp **** {
  54:GUI/FX/../../Drivers/daisy_ILI9341.hpp ****   public:
  55:GUI/FX/../../Drivers/daisy_ILI9341.hpp ****     void Init()
  56:GUI/FX/../../Drivers/daisy_ILI9341.hpp ****     {
  57:GUI/FX/../../Drivers/daisy_ILI9341.hpp ****         // Initialize SPI
  58:GUI/FX/../../Drivers/daisy_ILI9341.hpp ****         SpiHandle::Config spi_config;
  59:GUI/FX/../../Drivers/daisy_ILI9341.hpp ****         spi_config.periph    = SpiHandle::Config::Peripheral::SPI_1;
  60:GUI/FX/../../Drivers/daisy_ILI9341.hpp ****         spi_config.mode      = SpiHandle::Config::Mode::MASTER;
  61:GUI/FX/../../Drivers/daisy_ILI9341.hpp ****         spi_config.direction = SpiHandle::Config::Direction::TWO_LINES_TX_ONLY;
  62:GUI/FX/../../Drivers/daisy_ILI9341.hpp ****         spi_config.clock_polarity  = SpiHandle::Config::ClockPolarity::LOW;
  63:GUI/FX/../../Drivers/daisy_ILI9341.hpp ****         spi_config.baud_prescaler  = SpiHandle::Config::BaudPrescaler::PS_2;
  64:GUI/FX/../../Drivers/daisy_ILI9341.hpp ****         spi_config.clock_phase     = SpiHandle::Config::ClockPhase::ONE_EDGE;
  65:GUI/FX/../../Drivers/daisy_ILI9341.hpp ****         spi_config.nss             = SpiHandle::Config::NSS::HARD_OUTPUT;
  66:GUI/FX/../../Drivers/daisy_ILI9341.hpp ****         spi_config.datasize        = 8;
  67:GUI/FX/../../Drivers/daisy_ILI9341.hpp ****         spi_config.pin_config.sclk = {DSY_GPIOG, 11};
  68:GUI/FX/../../Drivers/daisy_ILI9341.hpp ****         spi_config.pin_config.mosi = {DSY_GPIOB, 5};
  69:GUI/FX/../../Drivers/daisy_ILI9341.hpp ****         spi_config.pin_config.nss  = {DSY_GPIOG, 10};
  70:GUI/FX/../../Drivers/daisy_ILI9341.hpp ****         // spi_config.pin_config.miso = {DSY_GPIOX, 0}; // not used
  71:GUI/FX/../../Drivers/daisy_ILI9341.hpp **** 
  72:GUI/FX/../../Drivers/daisy_ILI9341.hpp ****         // v0.1 mix up
  73:GUI/FX/../../Drivers/daisy_ILI9341.hpp ****         //uint8_t dc_pin    = 16;
  74:GUI/FX/../../Drivers/daisy_ILI9341.hpp ****         //uint8_t reset_pin = 22;
  75:GUI/FX/../../Drivers/daisy_ILI9341.hpp **** 
  76:GUI/FX/../../Drivers/daisy_ILI9341.hpp ****         // DC pin
  77:GUI/FX/../../Drivers/daisy_ILI9341.hpp ****         pin_dc_.mode = DSY_GPIO_MODE_OUTPUT_PP;
  78:GUI/FX/../../Drivers/daisy_ILI9341.hpp ****         pin_dc_.pin  = seed::D12;
ARM GAS  /var/folders/wz/z09yph4n0qj4t7mjxhl6ttn80000gn/T//cc3KzP2n.s 			page 8


  79:GUI/FX/../../Drivers/daisy_ILI9341.hpp ****         dsy_gpio_init(&pin_dc_);
  80:GUI/FX/../../Drivers/daisy_ILI9341.hpp ****         // Reset pin
  81:GUI/FX/../../Drivers/daisy_ILI9341.hpp ****         pin_reset_.mode = DSY_GPIO_MODE_OUTPUT_PP;
  82:GUI/FX/../../Drivers/daisy_ILI9341.hpp ****         pin_reset_.pin  = seed::D11;
  83:GUI/FX/../../Drivers/daisy_ILI9341.hpp ****         dsy_gpio_init(&pin_reset_);
  84:GUI/FX/../../Drivers/daisy_ILI9341.hpp ****         // CS pin
  85:GUI/FX/../../Drivers/daisy_ILI9341.hpp ****         pin_cs_.mode = DSY_GPIO_MODE_OUTPUT_PP;
  86:GUI/FX/../../Drivers/daisy_ILI9341.hpp ****         pin_cs_.pin  = spi_config.pin_config.nss;
  87:GUI/FX/../../Drivers/daisy_ILI9341.hpp ****         dsy_gpio_init(&pin_cs_);
  88:GUI/FX/../../Drivers/daisy_ILI9341.hpp **** 
  89:GUI/FX/../../Drivers/daisy_ILI9341.hpp ****         spi_.Init(spi_config);
  90:GUI/FX/../../Drivers/daisy_ILI9341.hpp **** 
  91:GUI/FX/../../Drivers/daisy_ILI9341.hpp ****         InitPalette();
  92:GUI/FX/../../Drivers/daisy_ILI9341.hpp ****     };
  93:GUI/FX/../../Drivers/daisy_ILI9341.hpp **** 
  94:GUI/FX/../../Drivers/daisy_ILI9341.hpp ****     void Reset()
  95:GUI/FX/../../Drivers/daisy_ILI9341.hpp ****     {
  96:GUI/FX/../../Drivers/daisy_ILI9341.hpp ****         dsy_gpio_write(&pin_reset_, 0);
  97:GUI/FX/../../Drivers/daisy_ILI9341.hpp ****         System::Delay(10);
  98:GUI/FX/../../Drivers/daisy_ILI9341.hpp ****         dsy_gpio_write(&pin_reset_, 1);
  99:GUI/FX/../../Drivers/daisy_ILI9341.hpp ****         System::Delay(120);
 100:GUI/FX/../../Drivers/daisy_ILI9341.hpp ****     }
 101:GUI/FX/../../Drivers/daisy_ILI9341.hpp **** 
 102:GUI/FX/../../Drivers/daisy_ILI9341.hpp ****     /*void ClearBuffer(uint16_t color) { 
 103:GUI/FX/../../Drivers/daisy_ILI9341.hpp ****         for (size_t i = 0; i < buffer_size / 2; i++) {
 104:GUI/FX/../../Drivers/daisy_ILI9341.hpp ****             frame_buffer[i * 2] = color >> 8;
 105:GUI/FX/../../Drivers/daisy_ILI9341.hpp ****             frame_buffer[i * 2 + 1] = color & 0xFF; // new function
 106:GUI/FX/../../Drivers/daisy_ILI9341.hpp ****         }
 107:GUI/FX/../../Drivers/daisy_ILI9341.hpp ****     }*/
 108:GUI/FX/../../Drivers/daisy_ILI9341.hpp **** 
 109:GUI/FX/../../Drivers/daisy_ILI9341.hpp ****     // an internal function to handle SPI DMA callbacks
 110:GUI/FX/../../Drivers/daisy_ILI9341.hpp ****     // called when an DMA transmission completes and the next driver must be updated
 111:GUI/FX/../../Drivers/daisy_ILI9341.hpp ****     static void TxCompleteCallback(void* context, SpiHandle::Result result)
 112:GUI/FX/../../Drivers/daisy_ILI9341.hpp ****     {
 113:GUI/FX/../../Drivers/daisy_ILI9341.hpp ****         if(result == SpiHandle::Result::OK)
 114:GUI/FX/../../Drivers/daisy_ILI9341.hpp ****         {
 115:GUI/FX/../../Drivers/daisy_ILI9341.hpp ****             auto transport     = static_cast<ILI9341SpiTransport*>(context);
 116:GUI/FX/../../Drivers/daisy_ILI9341.hpp ****             auto transfer_size = transport->GetTransferSize();
 117:GUI/FX/../../Drivers/daisy_ILI9341.hpp ****             transport->remaining_buff -= transfer_size;
 118:GUI/FX/../../Drivers/daisy_ILI9341.hpp ****             if(transport->remaining_buff > 0)
 119:GUI/FX/../../Drivers/daisy_ILI9341.hpp ****             {
 120:GUI/FX/../../Drivers/daisy_ILI9341.hpp ****                 uint8_t* next_buffer_ptr = transport->frame_buffer + (transport->buffer_size - tran
 121:GUI/FX/../../Drivers/daisy_ILI9341.hpp ****                 transport->SendDataDMA(
 122:GUI/FX/../../Drivers/daisy_ILI9341.hpp ****                    &frame_buffer[buffer_size - transport->remaining_buff],
 123:GUI/FX/../../Drivers/daisy_ILI9341.hpp ****                     transfer_size);
 124:GUI/FX/../../Drivers/daisy_ILI9341.hpp ****                     
 125:GUI/FX/../../Drivers/daisy_ILI9341.hpp **** 
 126:GUI/FX/../../Drivers/daisy_ILI9341.hpp ****                 // 16bit transfer             uncommented
 127:GUI/FX/../../Drivers/daisy_ILI9341.hpp ****                 // transport->SendDataDMA(
 128:GUI/FX/../../Drivers/daisy_ILI9341.hpp ****                   //   &frame_buffer[2 * transport->buf_chunk_size],
 129:GUI/FX/../../Drivers/daisy_ILI9341.hpp ****                     // transport->buf_chunk_size);
 130:GUI/FX/../../Drivers/daisy_ILI9341.hpp ****             }
 131:GUI/FX/../../Drivers/daisy_ILI9341.hpp ****             else
 132:GUI/FX/../../Drivers/daisy_ILI9341.hpp ****             {
 133:GUI/FX/../../Drivers/daisy_ILI9341.hpp ****                 //System::Delay(120);
 134:GUI/FX/../../Drivers/daisy_ILI9341.hpp ****                 transport->dma_busy = false;
 135:GUI/FX/../../Drivers/daisy_ILI9341.hpp ****                 
ARM GAS  /var/folders/wz/z09yph4n0qj4t7mjxhl6ttn80000gn/T//cc3KzP2n.s 			page 9


 136:GUI/FX/../../Drivers/daisy_ILI9341.hpp **** 
 137:GUI/FX/../../Drivers/daisy_ILI9341.hpp ****                 // 8 bit transfer
 138:GUI/FX/../../Drivers/daisy_ILI9341.hpp ****                 // auto* spi_h = transport->spi_.GetHandle();
 139:GUI/FX/../../Drivers/daisy_ILI9341.hpp ****                 // spi_h->Instance->CFG1 &= ~SPI_CFG1_DSIZE_3;
 140:GUI/FX/../../Drivers/daisy_ILI9341.hpp ****                 // spi_h->Instance->CFG2 &= ~SPI_CFG2_LSBFRST;
 141:GUI/FX/../../Drivers/daisy_ILI9341.hpp ****                 // spi_h->Init.DataSize = SPI_DATASIZE_8BIT;
 142:GUI/FX/../../Drivers/daisy_ILI9341.hpp ****             }
 143:GUI/FX/../../Drivers/daisy_ILI9341.hpp ****         }
 144:GUI/FX/../../Drivers/daisy_ILI9341.hpp ****     }
 145:GUI/FX/../../Drivers/daisy_ILI9341.hpp **** 
 146:GUI/FX/../../Drivers/daisy_ILI9341.hpp ****     SpiHandle::Result SendDataDMA()
 147:GUI/FX/../../Drivers/daisy_ILI9341.hpp ****     {
 148:GUI/FX/../../Drivers/daisy_ILI9341.hpp ****         remaining_buff = buffer_size;
 149:GUI/FX/../../Drivers/daisy_ILI9341.hpp ****         //System::Delay(120);
 150:GUI/FX/../../Drivers/daisy_ILI9341.hpp ****         dma_busy       = true;
 151:GUI/FX/../../Drivers/daisy_ILI9341.hpp ****         
 152:GUI/FX/../../Drivers/daisy_ILI9341.hpp **** 
 153:GUI/FX/../../Drivers/daisy_ILI9341.hpp ****         // auto* spi_h = spi_.GetHandle();
 154:GUI/FX/../../Drivers/daisy_ILI9341.hpp ****         // spi_h->Instance->CFG1 |= SPI_CFG1_DSIZE_3;
 155:GUI/FX/../../Drivers/daisy_ILI9341.hpp ****         // spi_h->Instance->CFG2 |= SPI_CFG2_LSBFRST;
 156:GUI/FX/../../Drivers/daisy_ILI9341.hpp ****         // spi_h->Init.DataSize = SPI_DATASIZE_16BIT; // 15;
 157:GUI/FX/../../Drivers/daisy_ILI9341.hpp **** 
 158:GUI/FX/../../Drivers/daisy_ILI9341.hpp ****         return SendDataDMA(frame_buffer, buf_chunk_size);
 159:GUI/FX/../../Drivers/daisy_ILI9341.hpp ****     };
 160:GUI/FX/../../Drivers/daisy_ILI9341.hpp **** 
 161:GUI/FX/../../Drivers/daisy_ILI9341.hpp ****     SpiHandle::Result SendDataDMA(uint8_t* buff, size_t size)
 162:GUI/FX/../../Drivers/daisy_ILI9341.hpp ****     {
 163:GUI/FX/../../Drivers/daisy_ILI9341.hpp ****         dsy_gpio_write(&pin_dc_, 1);
 164:GUI/FX/../../Drivers/daisy_ILI9341.hpp ****         return spi_.DmaTransmit(buff, size, nullptr, &TxCompleteCallback, this);
 165:GUI/FX/../../Drivers/daisy_ILI9341.hpp ****     };
 166:GUI/FX/../../Drivers/daisy_ILI9341.hpp **** 
 167:GUI/FX/../../Drivers/daisy_ILI9341.hpp ****     uint32_t GetTransferSize() const
 168:GUI/FX/../../Drivers/daisy_ILI9341.hpp ****     {
 169:GUI/FX/../../Drivers/daisy_ILI9341.hpp ****         return remaining_buff < buf_chunk_size ? remaining_buff
 170:GUI/FX/../../Drivers/daisy_ILI9341.hpp ****                                                : buf_chunk_size;
 171:GUI/FX/../../Drivers/daisy_ILI9341.hpp ****         // return remaining_buff < 2 * buf_chunk_size ? remaining_buff // uncommented these two lin
 172:GUI/FX/../../Drivers/daisy_ILI9341.hpp ****           //                                         : 2 * buf_chunk_size;
 173:GUI/FX/../../Drivers/daisy_ILI9341.hpp ****     }
 174:GUI/FX/../../Drivers/daisy_ILI9341.hpp **** 
 175:GUI/FX/../../Drivers/daisy_ILI9341.hpp ****     SpiHandle::Result SendCommand(uint8_t cmd)
 176:GUI/FX/../../Drivers/daisy_ILI9341.hpp ****     {
 177:GUI/FX/../../Drivers/daisy_ILI9341.hpp ****         dsy_gpio_write(&pin_dc_, 0);
 178:GUI/FX/../../Drivers/daisy_ILI9341.hpp ****         return spi_.BlockingTransmit(&cmd, 1);
 179:GUI/FX/../../Drivers/daisy_ILI9341.hpp ****     };
 180:GUI/FX/../../Drivers/daisy_ILI9341.hpp **** 
 181:GUI/FX/../../Drivers/daisy_ILI9341.hpp ****     SpiHandle::Result SendData(uint8_t* buff, size_t size)
 182:GUI/FX/../../Drivers/daisy_ILI9341.hpp ****     {
 183:GUI/FX/../../Drivers/daisy_ILI9341.hpp ****         dsy_gpio_write(&pin_dc_, 1);
 184:GUI/FX/../../Drivers/daisy_ILI9341.hpp ****         return spi_.BlockingTransmit(buff, size);
 185:GUI/FX/../../Drivers/daisy_ILI9341.hpp ****     };
 186:GUI/FX/../../Drivers/daisy_ILI9341.hpp **** 
 187:GUI/FX/../../Drivers/daisy_ILI9341.hpp ****     void SetAddressWindow(uint16_t x0, uint16_t y0, uint16_t x1, uint16_t y1)
 188:GUI/FX/../../Drivers/daisy_ILI9341.hpp ****     {
 189:GUI/FX/../../Drivers/daisy_ILI9341.hpp ****         // column address set
 190:GUI/FX/../../Drivers/daisy_ILI9341.hpp ****         SendCommand(0x2A); // CASET
 191:GUI/FX/../../Drivers/daisy_ILI9341.hpp ****         {
 192:GUI/FX/../../Drivers/daisy_ILI9341.hpp ****             uint8_t data[4] = {static_cast<uint8_t>((x0 >> 8) & 0xFF),
ARM GAS  /var/folders/wz/z09yph4n0qj4t7mjxhl6ttn80000gn/T//cc3KzP2n.s 			page 10


 193:GUI/FX/../../Drivers/daisy_ILI9341.hpp ****                                static_cast<uint8_t>(x0 & 0xFF),
 194:GUI/FX/../../Drivers/daisy_ILI9341.hpp ****                                static_cast<uint8_t>((x1 >> 8) & 0xFF),
 195:GUI/FX/../../Drivers/daisy_ILI9341.hpp ****                                static_cast<uint8_t>(x1 & 0xFF)};
 196:GUI/FX/../../Drivers/daisy_ILI9341.hpp ****             SendData(data, 4);
 197:GUI/FX/../../Drivers/daisy_ILI9341.hpp ****         }
 198:GUI/FX/../../Drivers/daisy_ILI9341.hpp **** 
 199:GUI/FX/../../Drivers/daisy_ILI9341.hpp ****         // row address set
 200:GUI/FX/../../Drivers/daisy_ILI9341.hpp ****         SendCommand(0x2B); // RASET
 201:GUI/FX/../../Drivers/daisy_ILI9341.hpp ****         {
 202:GUI/FX/../../Drivers/daisy_ILI9341.hpp ****             uint8_t data[4] = {static_cast<uint8_t>((y0 >> 8) & 0xFF),
 203:GUI/FX/../../Drivers/daisy_ILI9341.hpp ****                                static_cast<uint8_t>(y0 & 0xFF),
 204:GUI/FX/../../Drivers/daisy_ILI9341.hpp ****                                static_cast<uint8_t>((y1 >> 8) & 0xFF),
 205:GUI/FX/../../Drivers/daisy_ILI9341.hpp ****                                static_cast<uint8_t>(y1 & 0xFF)};
 206:GUI/FX/../../Drivers/daisy_ILI9341.hpp ****             SendData(data, 4);
 207:GUI/FX/../../Drivers/daisy_ILI9341.hpp ****         }
 208:GUI/FX/../../Drivers/daisy_ILI9341.hpp **** 
 209:GUI/FX/../../Drivers/daisy_ILI9341.hpp ****         // write to RAM
 210:GUI/FX/../../Drivers/daisy_ILI9341.hpp ****         SendCommand(0x2C); // RAMWR
 211:GUI/FX/../../Drivers/daisy_ILI9341.hpp ****     }
 212:GUI/FX/../../Drivers/daisy_ILI9341.hpp **** 
 213:GUI/FX/../../Drivers/daisy_ILI9341.hpp ****     void PaintPixel(uint32_t id, uint8_t color_id, uint8_t alpha = 255) const
 214:GUI/FX/../../Drivers/daisy_ILI9341.hpp ****     {
 215:GUI/FX/../../Drivers/daisy_ILI9341.hpp ****           
 216:GUI/FX/../../Drivers/daisy_ILI9341.hpp **** 
 217:GUI/FX/../../Drivers/daisy_ILI9341.hpp ****         auto color = tftPalette[color_id];
 218:GUI/FX/../../Drivers/daisy_ILI9341.hpp **** 
 219:GUI/FX/../../Drivers/daisy_ILI9341.hpp ****         if(alpha != 255)
 220:GUI/FX/../../Drivers/daisy_ILI9341.hpp ****         {
 221:GUI/FX/../../Drivers/daisy_ILI9341.hpp ****             
 222:GUI/FX/../../Drivers/daisy_ILI9341.hpp **** 
 223:GUI/FX/../../Drivers/daisy_ILI9341.hpp ****             auto bg_color = tftPalette[color_mem[id]];
 224:GUI/FX/../../Drivers/daisy_ILI9341.hpp ****             color         = Blend565(color, bg_color, alpha);
 225:GUI/FX/../../Drivers/daisy_ILI9341.hpp ****         }
 226:GUI/FX/../../Drivers/daisy_ILI9341.hpp **** 
 227:GUI/FX/../../Drivers/daisy_ILI9341.hpp ****         color_mem[id] = color_id; 
 228:GUI/FX/../../Drivers/daisy_ILI9341.hpp **** 
 229:GUI/FX/../../Drivers/daisy_ILI9341.hpp ****         frame_buffer[id]     = color >> 8;
 230:GUI/FX/../../Drivers/daisy_ILI9341.hpp ****         frame_buffer[id + 1] = color & 0xFF;
 231:GUI/FX/../../Drivers/daisy_ILI9341.hpp ****     }
 232:GUI/FX/../../Drivers/daisy_ILI9341.hpp **** 
 233:GUI/FX/../../Drivers/daisy_ILI9341.hpp ****     uint16_t GetPixel(uint32_t id) { return color_mem[id]; }
 234:GUI/FX/../../Drivers/daisy_ILI9341.hpp **** 
 235:GUI/FX/../../Drivers/daisy_ILI9341.hpp ****     bool     dma_busy       = false;
 236:GUI/FX/../../Drivers/daisy_ILI9341.hpp ****     uint32_t remaining_buff = 0;
 237:GUI/FX/../../Drivers/daisy_ILI9341.hpp ****     
 238:GUI/FX/../../Drivers/daisy_ILI9341.hpp **** 
 239:GUI/FX/../../Drivers/daisy_ILI9341.hpp ****     static uint32_t const buffer_size    = 153600;          // 320 * 240 * 2   = 153600
 240:GUI/FX/../../Drivers/daisy_ILI9341.hpp ****     const uint16_t        buf_chunk_size = buffer_size / 3; // 8bit data
 241:GUI/FX/../../Drivers/daisy_ILI9341.hpp ****     //const uint16_t buf_chunk_size = buffer_size / 4; // 16bit data
 242:GUI/FX/../../Drivers/daisy_ILI9341.hpp **** 
 243:GUI/FX/../../Drivers/daisy_ILI9341.hpp ****     static uint8_t DMA_BUFFER_MEM_SECTION frame_buffer[buffer_size];
 244:GUI/FX/../../Drivers/daisy_ILI9341.hpp ****     static uint8_t DSY_SDRAM_BSS          color_mem[buffer_size / 2];
 245:GUI/FX/../../Drivers/daisy_ILI9341.hpp ****     SpiHandle                             spi_;
 246:GUI/FX/../../Drivers/daisy_ILI9341.hpp **** 
 247:GUI/FX/../../Drivers/daisy_ILI9341.hpp ****     uint16_t tftPalette[NUMBER_OF_TFT_COLORS];
 248:GUI/FX/../../Drivers/daisy_ILI9341.hpp **** 
 249:GUI/FX/../../Drivers/daisy_ILI9341.hpp ****   private:
ARM GAS  /var/folders/wz/z09yph4n0qj4t7mjxhl6ttn80000gn/T//cc3KzP2n.s 			page 11


 250:GUI/FX/../../Drivers/daisy_ILI9341.hpp ****     dsy_gpio pin_reset_;
 251:GUI/FX/../../Drivers/daisy_ILI9341.hpp ****     dsy_gpio pin_dc_;
 252:GUI/FX/../../Drivers/daisy_ILI9341.hpp ****     dsy_gpio pin_cs_;
 253:GUI/FX/../../Drivers/daisy_ILI9341.hpp **** 
 254:GUI/FX/../../Drivers/daisy_ILI9341.hpp **** 
 255:GUI/FX/../../Drivers/daisy_ILI9341.hpp ****     //   rrrrrggggggbbbbb
 256:GUI/FX/../../Drivers/daisy_ILI9341.hpp **** #define MASK_RB 63519       // 0b1111100000011111
 257:GUI/FX/../../Drivers/daisy_ILI9341.hpp **** #define MASK_G 2016         // 0b0000011111100000
 258:GUI/FX/../../Drivers/daisy_ILI9341.hpp **** #define MASK_MUL_RB 4065216 // 0b1111100000011111000000
 259:GUI/FX/../../Drivers/daisy_ILI9341.hpp **** #define MASK_MUL_G 129024   // 0b0000011111100000000000
 260:GUI/FX/../../Drivers/daisy_ILI9341.hpp **** #define MAX_ALPHA 64        // 6bits+1 with rounding
 261:GUI/FX/../../Drivers/daisy_ILI9341.hpp **** 
 262:GUI/FX/../../Drivers/daisy_ILI9341.hpp ****     uint16_t Blend565(uint16_t fg, uint16_t bg, uint8_t alpha) const
 263:GUI/FX/../../Drivers/daisy_ILI9341.hpp ****     {
 264:GUI/FX/../../Drivers/daisy_ILI9341.hpp ****         // alpha for foreground multiplication
 265:GUI/FX/../../Drivers/daisy_ILI9341.hpp ****         // convert from 8bit to (6bit+1) with rounding
 266:GUI/FX/../../Drivers/daisy_ILI9341.hpp ****         // will be in [0..64] inclusive
 267:GUI/FX/../../Drivers/daisy_ILI9341.hpp ****         alpha = (alpha + 2) >> 2;
 268:GUI/FX/../../Drivers/daisy_ILI9341.hpp ****         // "beta" for background multiplication; (6bit+1);
 269:GUI/FX/../../Drivers/daisy_ILI9341.hpp ****         // will be in [0..64] inclusive
 270:GUI/FX/../../Drivers/daisy_ILI9341.hpp ****         uint8_t beta = MAX_ALPHA - alpha;
 271:GUI/FX/../../Drivers/daisy_ILI9341.hpp ****         // so (0..64)*alpha + (0..64)*beta always in 0..64
 272:GUI/FX/../../Drivers/daisy_ILI9341.hpp **** 
 273:GUI/FX/../../Drivers/daisy_ILI9341.hpp ****         return (uint16_t)((((alpha * (uint32_t)(fg & MASK_RB)
 274:GUI/FX/../../Drivers/daisy_ILI9341.hpp ****                              + beta * (uint32_t)(bg & MASK_RB))
 275:GUI/FX/../../Drivers/daisy_ILI9341.hpp ****                             & MASK_MUL_RB)
 276:GUI/FX/../../Drivers/daisy_ILI9341.hpp ****                            | ((alpha * (fg & MASK_G) + beta * (bg & MASK_G))
 277:GUI/FX/../../Drivers/daisy_ILI9341.hpp ****                               & MASK_MUL_G))
 278:GUI/FX/../../Drivers/daisy_ILI9341.hpp ****                           >> 6);
 279:GUI/FX/../../Drivers/daisy_ILI9341.hpp ****     }
 280:GUI/FX/../../Drivers/daisy_ILI9341.hpp **** 
 281:GUI/FX/../../Drivers/daisy_ILI9341.hpp ****     /*
 282:GUI/FX/../../Drivers/daisy_ILI9341.hpp ****   result masks of multiplications
 283:GUI/FX/../../Drivers/daisy_ILI9341.hpp ****   uppercase: usable bits of multiplications
 284:GUI/FX/../../Drivers/daisy_ILI9341.hpp ****   RRRRRrrrrrrBBBBBbbbbbb // 5-5 bits of red+blue
 285:GUI/FX/../../Drivers/daisy_ILI9341.hpp ****         1111100000011111 // from MASK_RB * 1
 286:GUI/FX/../../Drivers/daisy_ILI9341.hpp ****   1111100000011111000000 //   to MASK_RB * MAX_ALPHA // 22 bits!
 287:GUI/FX/../../Drivers/daisy_ILI9341.hpp **** 
 288:GUI/FX/../../Drivers/daisy_ILI9341.hpp **** 
 289:GUI/FX/../../Drivers/daisy_ILI9341.hpp ****   -----GGGGGGgggggg----- // 6 bits of green
 290:GUI/FX/../../Drivers/daisy_ILI9341.hpp ****         0000011111100000 // from MASK_G * 1
 291:GUI/FX/../../Drivers/daisy_ILI9341.hpp ****   0000011111100000000000 //   to MASK_G * MAX_ALPHA
 292:GUI/FX/../../Drivers/daisy_ILI9341.hpp **** */
 293:GUI/FX/../../Drivers/daisy_ILI9341.hpp **** 
 294:GUI/FX/../../Drivers/daisy_ILI9341.hpp **** 
 295:GUI/FX/../../Drivers/daisy_ILI9341.hpp ****     void InitPalette()
 296:GUI/FX/../../Drivers/daisy_ILI9341.hpp ****     {
 297:GUI/FX/../../Drivers/daisy_ILI9341.hpp ****         // HEX to RBG565 converter: https://trolsoft.ru/en/articles/rgb565-color-picker
 298:GUI/FX/../../Drivers/daisy_ILI9341.hpp ****         tftPalette[COLOR_BLACK]       = 0x0000;
 299:GUI/FX/../../Drivers/daisy_ILI9341.hpp ****         tftPalette[COLOR_WHITE]       = 0xffff;
 300:GUI/FX/../../Drivers/daisy_ILI9341.hpp ****         tftPalette[COLOR_BLUE]        = 0x5AFF;
 301:GUI/FX/../../Drivers/daisy_ILI9341.hpp ****         tftPalette[COLOR_DARK_BLUE]   = 0x18EB;
 302:GUI/FX/../../Drivers/daisy_ILI9341.hpp ****         tftPalette[COLOR_YELLOW]      = 0xFFE0;
 303:GUI/FX/../../Drivers/daisy_ILI9341.hpp ****         tftPalette[COLOR_DARK_YELLOW] = 0x49E1;
 304:GUI/FX/../../Drivers/daisy_ILI9341.hpp ****         tftPalette[COLOR_RED]         = 0xF9E1; // 0xff4010
 305:GUI/FX/../../Drivers/daisy_ILI9341.hpp ****         tftPalette[COLOR_DARK_RED]    = 0x4880; // 0x401000
 306:GUI/FX/../../Drivers/daisy_ILI9341.hpp ****         tftPalette[COLOR_GREEN]       = 0x3FE7; // 0x40ff40
ARM GAS  /var/folders/wz/z09yph4n0qj4t7mjxhl6ttn80000gn/T//cc3KzP2n.s 			page 12


 307:GUI/FX/../../Drivers/daisy_ILI9341.hpp ****         tftPalette[COLOR_DARK_GREEN]  = 0x01E0; // 0x004000
 308:GUI/FX/../../Drivers/daisy_ILI9341.hpp ****         tftPalette[COLOR_LIGHT_GRAY]  = 0xAD75; // 0xb0b0b0
 309:GUI/FX/../../Drivers/daisy_ILI9341.hpp ****         tftPalette[COLOR_MEDIUM_GRAY] = 0x8C71; // 0x909090
 310:GUI/FX/../../Drivers/daisy_ILI9341.hpp ****         tftPalette[COLOR_GRAY]        = 0x5AEB; // 0x606060
 311:GUI/FX/../../Drivers/daisy_ILI9341.hpp ****         tftPalette[COLOR_DARK_GRAY]   = 0x2965; // 0x303030
 312:GUI/FX/../../Drivers/daisy_ILI9341.hpp ****         tftPalette[COLOR_CYAN]        = 0x76FD; // 0x76dfef
 313:GUI/FX/../../Drivers/daisy_ILI9341.hpp ****         tftPalette[COLOR_ORANGE]      = 0xFBE0; // 0xff7f00
 314:GUI/FX/../../Drivers/daisy_ILI9341.hpp ****         tftPalette[COLOR_LIGHT_GREEN] = 0x6FED; // 0x70ff70
 315:GUI/FX/../../Drivers/daisy_ILI9341.hpp ****         // tftPalette[COLOR_ABL_BG]      = (0x2104); // 0x212121
 316:GUI/FX/../../Drivers/daisy_ILI9341.hpp ****         tftPalette[COLOR_ABL_BG]     = 0x4A69; // #4D4D4D
 317:GUI/FX/../../Drivers/daisy_ILI9341.hpp ****         tftPalette[COLOR_ABL_LINE]   = 0x39E7; // 0x3d3d3d
 318:GUI/FX/../../Drivers/daisy_ILI9341.hpp ****         tftPalette[COLOR_ABL_D_LINE] = 0x31A6; // 0x363636
 319:GUI/FX/../../Drivers/daisy_ILI9341.hpp ****         tftPalette[COLOR_ABL_L_GRAY] = 0x52AA; // 0x555555
 320:GUI/FX/../../Drivers/daisy_ILI9341.hpp ****         tftPalette[COLOR_ABL_M_GRAY] = 0x4228; // 0x454545
 321:GUI/FX/../../Drivers/daisy_ILI9341.hpp ****         //System::Delay(1000);
 322:GUI/FX/../../Drivers/daisy_ILI9341.hpp ****     }
 323:GUI/FX/../../Drivers/daisy_ILI9341.hpp **** };
 324:GUI/FX/../../Drivers/daisy_ILI9341.hpp **** 
 325:GUI/FX/../../Drivers/daisy_ILI9341.hpp **** 
 326:GUI/FX/../../Drivers/daisy_ILI9341.hpp **** /**
 327:GUI/FX/../../Drivers/daisy_ILI9341.hpp ****  * A driver implementation for the ILI9341
 328:GUI/FX/../../Drivers/daisy_ILI9341.hpp ****  */
 329:GUI/FX/../../Drivers/daisy_ILI9341.hpp **** // class ILI9341Driver
 330:GUI/FX/../../Drivers/daisy_ILI9341.hpp **** class UiDriver
 331:GUI/FX/../../Drivers/daisy_ILI9341.hpp **** {
 332:GUI/FX/../../Drivers/daisy_ILI9341.hpp ****   public:
 333:GUI/FX/../../Drivers/daisy_ILI9341.hpp ****     
 334:GUI/FX/../../Drivers/daisy_ILI9341.hpp **** 
 335:GUI/FX/../../Drivers/daisy_ILI9341.hpp ****     enum class Orientation
 336:GUI/FX/../../Drivers/daisy_ILI9341.hpp ****     {
 337:GUI/FX/../../Drivers/daisy_ILI9341.hpp ****         Default = 0,
 338:GUI/FX/../../Drivers/daisy_ILI9341.hpp ****         RRight,
 339:GUI/FX/../../Drivers/daisy_ILI9341.hpp ****         RLeft,
 340:GUI/FX/../../Drivers/daisy_ILI9341.hpp ****         UpsideDown,
 341:GUI/FX/../../Drivers/daisy_ILI9341.hpp ****     };
 342:GUI/FX/../../Drivers/daisy_ILI9341.hpp **** 
 343:GUI/FX/../../Drivers/daisy_ILI9341.hpp ****     void Init()
 344:GUI/FX/../../Drivers/daisy_ILI9341.hpp ****     {
 345:GUI/FX/../../Drivers/daisy_ILI9341.hpp ****         screen_update_period_ = 34; // 17 is roughly 60Hz
 346:GUI/FX/../../Drivers/daisy_ILI9341.hpp ****         screen_update_last_   = System::GetNow();
 347:GUI/FX/../../Drivers/daisy_ILI9341.hpp **** 
 348:GUI/FX/../../Drivers/daisy_ILI9341.hpp ****         InitDriver();
 349:GUI/FX/../../Drivers/daisy_ILI9341.hpp ****     }
 350:GUI/FX/../../Drivers/daisy_ILI9341.hpp **** 
 351:GUI/FX/../../Drivers/daisy_ILI9341.hpp ****     void InitDriver()
 352:GUI/FX/../../Drivers/daisy_ILI9341.hpp ****     {
 353:GUI/FX/../../Drivers/daisy_ILI9341.hpp ****         transport_.Init();
 354:GUI/FX/../../Drivers/daisy_ILI9341.hpp **** 
 355:GUI/FX/../../Drivers/daisy_ILI9341.hpp ****         SetOrientation(Orientation::RLeft);
 356:GUI/FX/../../Drivers/daisy_ILI9341.hpp **** 
 357:GUI/FX/../../Drivers/daisy_ILI9341.hpp ****         transport_.Reset();
 358:GUI/FX/../../Drivers/daisy_ILI9341.hpp **** 
 359:GUI/FX/../../Drivers/daisy_ILI9341.hpp ****         //Software Reset
 360:GUI/FX/../../Drivers/daisy_ILI9341.hpp ****         transport_.SendCommand(0x01);
 361:GUI/FX/../../Drivers/daisy_ILI9341.hpp ****         System::Delay(100); // TODO: maybe less?
 362:GUI/FX/../../Drivers/daisy_ILI9341.hpp **** 
 363:GUI/FX/../../Drivers/daisy_ILI9341.hpp ****         // command list is based on https://github.com/martnak/STM32-ILI9341
ARM GAS  /var/folders/wz/z09yph4n0qj4t7mjxhl6ttn80000gn/T//cc3KzP2n.s 			page 13


 364:GUI/FX/../../Drivers/daisy_ILI9341.hpp **** 
 365:GUI/FX/../../Drivers/daisy_ILI9341.hpp ****         // POWER CONTROL A
 366:GUI/FX/../../Drivers/daisy_ILI9341.hpp ****         transport_.SendCommand(0xCB);
 367:GUI/FX/../../Drivers/daisy_ILI9341.hpp ****         {
 368:GUI/FX/../../Drivers/daisy_ILI9341.hpp ****             uint8_t data[5] = {0x39, 0x2C, 0x00, 0x34, 0x02};
 369:GUI/FX/../../Drivers/daisy_ILI9341.hpp ****             transport_.SendData(data, 5);
 370:GUI/FX/../../Drivers/daisy_ILI9341.hpp ****         }
 371:GUI/FX/../../Drivers/daisy_ILI9341.hpp **** 
 372:GUI/FX/../../Drivers/daisy_ILI9341.hpp ****         // POWER CONTROL B
 373:GUI/FX/../../Drivers/daisy_ILI9341.hpp ****         transport_.SendCommand(0xCF);
 374:GUI/FX/../../Drivers/daisy_ILI9341.hpp ****         {
 375:GUI/FX/../../Drivers/daisy_ILI9341.hpp ****             uint8_t data[3] = {0x00, 0xC1, 0x30};
 376:GUI/FX/../../Drivers/daisy_ILI9341.hpp ****             transport_.SendData(data, 3);
 377:GUI/FX/../../Drivers/daisy_ILI9341.hpp ****         }
 378:GUI/FX/../../Drivers/daisy_ILI9341.hpp **** 
 379:GUI/FX/../../Drivers/daisy_ILI9341.hpp ****         // DRIVER TIMING CONTROL A
 380:GUI/FX/../../Drivers/daisy_ILI9341.hpp ****         transport_.SendCommand(0xE8);
 381:GUI/FX/../../Drivers/daisy_ILI9341.hpp ****         {
 382:GUI/FX/../../Drivers/daisy_ILI9341.hpp ****             uint8_t data[3] = {0x85, 0x00, 0x78};
 383:GUI/FX/../../Drivers/daisy_ILI9341.hpp ****             transport_.SendData(data, 3);
 384:GUI/FX/../../Drivers/daisy_ILI9341.hpp ****         }
 385:GUI/FX/../../Drivers/daisy_ILI9341.hpp **** 
 386:GUI/FX/../../Drivers/daisy_ILI9341.hpp ****         // DRIVER TIMING CONTROL B
 387:GUI/FX/../../Drivers/daisy_ILI9341.hpp ****         transport_.SendCommand(0xEA);
 388:GUI/FX/../../Drivers/daisy_ILI9341.hpp ****         {
 389:GUI/FX/../../Drivers/daisy_ILI9341.hpp ****             uint8_t data[2] = {0x00, 0x00};
 390:GUI/FX/../../Drivers/daisy_ILI9341.hpp ****             transport_.SendData(data, 2);
 391:GUI/FX/../../Drivers/daisy_ILI9341.hpp ****         }
 392:GUI/FX/../../Drivers/daisy_ILI9341.hpp **** 
 393:GUI/FX/../../Drivers/daisy_ILI9341.hpp ****         // POWER ON SEQUENCE CONTROL
 394:GUI/FX/../../Drivers/daisy_ILI9341.hpp ****         transport_.SendCommand(0xED);
 395:GUI/FX/../../Drivers/daisy_ILI9341.hpp ****         {
 396:GUI/FX/../../Drivers/daisy_ILI9341.hpp ****             uint8_t data[4] = {0x64, 0x03, 0x12, 0x81};
 397:GUI/FX/../../Drivers/daisy_ILI9341.hpp ****             transport_.SendData(data, 4);
 398:GUI/FX/../../Drivers/daisy_ILI9341.hpp ****         }
 399:GUI/FX/../../Drivers/daisy_ILI9341.hpp **** 
 400:GUI/FX/../../Drivers/daisy_ILI9341.hpp ****         // PUMP RATIO CONTROL
 401:GUI/FX/../../Drivers/daisy_ILI9341.hpp ****         transport_.SendCommand(0xF7);
 402:GUI/FX/../../Drivers/daisy_ILI9341.hpp ****         {
 403:GUI/FX/../../Drivers/daisy_ILI9341.hpp ****             uint8_t data[1] = {0x20};
 404:GUI/FX/../../Drivers/daisy_ILI9341.hpp ****             transport_.SendData(data, 1);
 405:GUI/FX/../../Drivers/daisy_ILI9341.hpp ****         }
 406:GUI/FX/../../Drivers/daisy_ILI9341.hpp **** 
 407:GUI/FX/../../Drivers/daisy_ILI9341.hpp ****         // POWER CONTROL,VRH[5:0]
 408:GUI/FX/../../Drivers/daisy_ILI9341.hpp ****         transport_.SendCommand(0xC0);
 409:GUI/FX/../../Drivers/daisy_ILI9341.hpp ****         {
 410:GUI/FX/../../Drivers/daisy_ILI9341.hpp ****             uint8_t data[1] = {0x23};
 411:GUI/FX/../../Drivers/daisy_ILI9341.hpp ****             transport_.SendData(data, 1);
 412:GUI/FX/../../Drivers/daisy_ILI9341.hpp ****         }
 413:GUI/FX/../../Drivers/daisy_ILI9341.hpp **** 
 414:GUI/FX/../../Drivers/daisy_ILI9341.hpp ****         // POWER CONTROL,SAP[2:0];BT[3:0]
 415:GUI/FX/../../Drivers/daisy_ILI9341.hpp ****         transport_.SendCommand(0xC1);
 416:GUI/FX/../../Drivers/daisy_ILI9341.hpp ****         {
 417:GUI/FX/../../Drivers/daisy_ILI9341.hpp ****             uint8_t data[1] = {0x10};
 418:GUI/FX/../../Drivers/daisy_ILI9341.hpp ****             transport_.SendData(data, 1);
 419:GUI/FX/../../Drivers/daisy_ILI9341.hpp ****         }
 420:GUI/FX/../../Drivers/daisy_ILI9341.hpp **** 
ARM GAS  /var/folders/wz/z09yph4n0qj4t7mjxhl6ttn80000gn/T//cc3KzP2n.s 			page 14


 421:GUI/FX/../../Drivers/daisy_ILI9341.hpp ****         // VCM CONTROL
 422:GUI/FX/../../Drivers/daisy_ILI9341.hpp ****         transport_.SendCommand(0xC5);
 423:GUI/FX/../../Drivers/daisy_ILI9341.hpp ****         {
 424:GUI/FX/../../Drivers/daisy_ILI9341.hpp ****             uint8_t data[2] = {0x3E, 0x28};
 425:GUI/FX/../../Drivers/daisy_ILI9341.hpp ****             transport_.SendData(data, 2);
 426:GUI/FX/../../Drivers/daisy_ILI9341.hpp ****         }
 427:GUI/FX/../../Drivers/daisy_ILI9341.hpp **** 
 428:GUI/FX/../../Drivers/daisy_ILI9341.hpp ****         // VCM CONTROL 2
 429:GUI/FX/../../Drivers/daisy_ILI9341.hpp ****         transport_.SendCommand(0xC7);
 430:GUI/FX/../../Drivers/daisy_ILI9341.hpp ****         {
 431:GUI/FX/../../Drivers/daisy_ILI9341.hpp ****             uint8_t data[1] = {0x86};
 432:GUI/FX/../../Drivers/daisy_ILI9341.hpp ****             transport_.SendData(data, 1);
 433:GUI/FX/../../Drivers/daisy_ILI9341.hpp ****         }
 434:GUI/FX/../../Drivers/daisy_ILI9341.hpp **** 
 435:GUI/FX/../../Drivers/daisy_ILI9341.hpp ****         // MEMORY ACCESS CONTROL
 436:GUI/FX/../../Drivers/daisy_ILI9341.hpp ****         transport_.SendCommand(0x36);
 437:GUI/FX/../../Drivers/daisy_ILI9341.hpp ****         {
 438:GUI/FX/../../Drivers/daisy_ILI9341.hpp ****             uint8_t data[1] = {0x48};
 439:GUI/FX/../../Drivers/daisy_ILI9341.hpp ****             transport_.SendData(data, 1);
 440:GUI/FX/../../Drivers/daisy_ILI9341.hpp ****         }
 441:GUI/FX/../../Drivers/daisy_ILI9341.hpp **** 
 442:GUI/FX/../../Drivers/daisy_ILI9341.hpp ****         // PIXEL FORMAT
 443:GUI/FX/../../Drivers/daisy_ILI9341.hpp ****         transport_.SendCommand(0x3A);
 444:GUI/FX/../../Drivers/daisy_ILI9341.hpp ****         {
 445:GUI/FX/../../Drivers/daisy_ILI9341.hpp ****             uint8_t data[1] = {0x55};
 446:GUI/FX/../../Drivers/daisy_ILI9341.hpp ****             transport_.SendData(data, 1);
 447:GUI/FX/../../Drivers/daisy_ILI9341.hpp ****         }
 448:GUI/FX/../../Drivers/daisy_ILI9341.hpp **** 
 449:GUI/FX/../../Drivers/daisy_ILI9341.hpp ****         // FRAME RATIO CONTROL, STANDARD RGB COLOR
 450:GUI/FX/../../Drivers/daisy_ILI9341.hpp ****         transport_.SendCommand(0xB1);
 451:GUI/FX/../../Drivers/daisy_ILI9341.hpp ****         {
 452:GUI/FX/../../Drivers/daisy_ILI9341.hpp ****             uint8_t data[2] = {0x00, 0x18};
 453:GUI/FX/../../Drivers/daisy_ILI9341.hpp ****             transport_.SendData(data, 2);
 454:GUI/FX/../../Drivers/daisy_ILI9341.hpp ****         }
 455:GUI/FX/../../Drivers/daisy_ILI9341.hpp **** 
 456:GUI/FX/../../Drivers/daisy_ILI9341.hpp ****         // DISPLAY FUNCTION CONTROL
 457:GUI/FX/../../Drivers/daisy_ILI9341.hpp ****         transport_.SendCommand(0xB6);
 458:GUI/FX/../../Drivers/daisy_ILI9341.hpp ****         {
 459:GUI/FX/../../Drivers/daisy_ILI9341.hpp ****             uint8_t data[3] = {0x08, 0x82, 0x27};
 460:GUI/FX/../../Drivers/daisy_ILI9341.hpp ****             transport_.SendData(data, 3);
 461:GUI/FX/../../Drivers/daisy_ILI9341.hpp ****         }
 462:GUI/FX/../../Drivers/daisy_ILI9341.hpp **** 
 463:GUI/FX/../../Drivers/daisy_ILI9341.hpp ****         // 3GAMMA FUNCTION DISABLE
 464:GUI/FX/../../Drivers/daisy_ILI9341.hpp ****         transport_.SendCommand(0xF2);
 465:GUI/FX/../../Drivers/daisy_ILI9341.hpp ****         {
 466:GUI/FX/../../Drivers/daisy_ILI9341.hpp ****             uint8_t data[1] = {0x00};
 467:GUI/FX/../../Drivers/daisy_ILI9341.hpp ****             transport_.SendData(data, 1);
 468:GUI/FX/../../Drivers/daisy_ILI9341.hpp ****         }
 469:GUI/FX/../../Drivers/daisy_ILI9341.hpp **** 
 470:GUI/FX/../../Drivers/daisy_ILI9341.hpp ****         // GAMMA CURVE SELECTED
 471:GUI/FX/../../Drivers/daisy_ILI9341.hpp ****         transport_.SendCommand(0x26);
 472:GUI/FX/../../Drivers/daisy_ILI9341.hpp ****         {
 473:GUI/FX/../../Drivers/daisy_ILI9341.hpp ****             uint8_t data[1] = {0x01};
 474:GUI/FX/../../Drivers/daisy_ILI9341.hpp ****             transport_.SendData(data, 1);
 475:GUI/FX/../../Drivers/daisy_ILI9341.hpp ****         }
 476:GUI/FX/../../Drivers/daisy_ILI9341.hpp **** 
 477:GUI/FX/../../Drivers/daisy_ILI9341.hpp ****         // POSITIVE GAMMA CORRECTION
ARM GAS  /var/folders/wz/z09yph4n0qj4t7mjxhl6ttn80000gn/T//cc3KzP2n.s 			page 15


 478:GUI/FX/../../Drivers/daisy_ILI9341.hpp ****         transport_.SendCommand(0xE0);
 479:GUI/FX/../../Drivers/daisy_ILI9341.hpp ****         {
 480:GUI/FX/../../Drivers/daisy_ILI9341.hpp ****             uint8_t data[15] = {0x0F,
 481:GUI/FX/../../Drivers/daisy_ILI9341.hpp ****                                 0x31,
 482:GUI/FX/../../Drivers/daisy_ILI9341.hpp ****                                 0x2B,
 483:GUI/FX/../../Drivers/daisy_ILI9341.hpp ****                                 0x0C,
 484:GUI/FX/../../Drivers/daisy_ILI9341.hpp ****                                 0x0E,
 485:GUI/FX/../../Drivers/daisy_ILI9341.hpp ****                                 0x08,
 486:GUI/FX/../../Drivers/daisy_ILI9341.hpp ****                                 0x4E,
 487:GUI/FX/../../Drivers/daisy_ILI9341.hpp ****                                 0xF1,
 488:GUI/FX/../../Drivers/daisy_ILI9341.hpp ****                                 0x37,
 489:GUI/FX/../../Drivers/daisy_ILI9341.hpp ****                                 0x07,
 490:GUI/FX/../../Drivers/daisy_ILI9341.hpp ****                                 0x10,
 491:GUI/FX/../../Drivers/daisy_ILI9341.hpp ****                                 0x03,
 492:GUI/FX/../../Drivers/daisy_ILI9341.hpp ****                                 0x0E,
 493:GUI/FX/../../Drivers/daisy_ILI9341.hpp ****                                 0x09,
 494:GUI/FX/../../Drivers/daisy_ILI9341.hpp ****                                 0x00};
 495:GUI/FX/../../Drivers/daisy_ILI9341.hpp ****             transport_.SendData(data, 15);
 496:GUI/FX/../../Drivers/daisy_ILI9341.hpp ****         }
 497:GUI/FX/../../Drivers/daisy_ILI9341.hpp **** 
 498:GUI/FX/../../Drivers/daisy_ILI9341.hpp ****         // NEGATIVE GAMMA CORRECTION
 499:GUI/FX/../../Drivers/daisy_ILI9341.hpp ****         transport_.SendCommand(0xE1);
 500:GUI/FX/../../Drivers/daisy_ILI9341.hpp ****         {
 501:GUI/FX/../../Drivers/daisy_ILI9341.hpp ****             uint8_t data[15] = {0x00,
 502:GUI/FX/../../Drivers/daisy_ILI9341.hpp ****                                 0x0E,
 503:GUI/FX/../../Drivers/daisy_ILI9341.hpp ****                                 0x14,
 504:GUI/FX/../../Drivers/daisy_ILI9341.hpp ****                                 0x03,
 505:GUI/FX/../../Drivers/daisy_ILI9341.hpp ****                                 0x11,
 506:GUI/FX/../../Drivers/daisy_ILI9341.hpp ****                                 0x07,
 507:GUI/FX/../../Drivers/daisy_ILI9341.hpp ****                                 0x31,
 508:GUI/FX/../../Drivers/daisy_ILI9341.hpp ****                                 0xC1,
 509:GUI/FX/../../Drivers/daisy_ILI9341.hpp ****                                 0x48,
 510:GUI/FX/../../Drivers/daisy_ILI9341.hpp ****                                 0x08,
 511:GUI/FX/../../Drivers/daisy_ILI9341.hpp ****                                 0x0F,
 512:GUI/FX/../../Drivers/daisy_ILI9341.hpp ****                                 0x0C,
 513:GUI/FX/../../Drivers/daisy_ILI9341.hpp ****                                 0x31,
 514:GUI/FX/../../Drivers/daisy_ILI9341.hpp ****                                 0x36,
 515:GUI/FX/../../Drivers/daisy_ILI9341.hpp ****                                 0x0F};
 516:GUI/FX/../../Drivers/daisy_ILI9341.hpp ****             transport_.SendData(data, 15);
 517:GUI/FX/../../Drivers/daisy_ILI9341.hpp ****         }
 518:GUI/FX/../../Drivers/daisy_ILI9341.hpp **** 
 519:GUI/FX/../../Drivers/daisy_ILI9341.hpp ****         // EXIT SLEEP
 520:GUI/FX/../../Drivers/daisy_ILI9341.hpp ****         transport_.SendCommand(0x11);
 521:GUI/FX/../../Drivers/daisy_ILI9341.hpp ****         System::Delay(120);
 522:GUI/FX/../../Drivers/daisy_ILI9341.hpp **** 
 523:GUI/FX/../../Drivers/daisy_ILI9341.hpp ****         // TURN ON DISPLAY
 524:GUI/FX/../../Drivers/daisy_ILI9341.hpp ****         transport_.SendCommand(0x29);
 525:GUI/FX/../../Drivers/daisy_ILI9341.hpp **** 
 526:GUI/FX/../../Drivers/daisy_ILI9341.hpp ****         // MADCTL
 527:GUI/FX/../../Drivers/daisy_ILI9341.hpp ****         transport_.SendCommand(0x36);
 528:GUI/FX/../../Drivers/daisy_ILI9341.hpp ****         System::Delay(10);
 529:GUI/FX/../../Drivers/daisy_ILI9341.hpp **** 
 530:GUI/FX/../../Drivers/daisy_ILI9341.hpp ****         {
 531:GUI/FX/../../Drivers/daisy_ILI9341.hpp ****             uint8_t data[1] = {rotation};
 532:GUI/FX/../../Drivers/daisy_ILI9341.hpp ****             transport_.SendData(data, 1);
 533:GUI/FX/../../Drivers/daisy_ILI9341.hpp ****         }
 534:GUI/FX/../../Drivers/daisy_ILI9341.hpp ****     };
ARM GAS  /var/folders/wz/z09yph4n0qj4t7mjxhl6ttn80000gn/T//cc3KzP2n.s 			page 16


 535:GUI/FX/../../Drivers/daisy_ILI9341.hpp **** 
 536:GUI/FX/../../Drivers/daisy_ILI9341.hpp ****     void SetOrientation(Orientation ori)
 537:GUI/FX/../../Drivers/daisy_ILI9341.hpp ****     {
 538:GUI/FX/../../Drivers/daisy_ILI9341.hpp ****         uint8_t ili_bgr = 0x08;
 539:GUI/FX/../../Drivers/daisy_ILI9341.hpp ****         uint8_t ili_mx  = 0x40;
 540:GUI/FX/../../Drivers/daisy_ILI9341.hpp ****         uint8_t ili_my  = 0x80;
 541:GUI/FX/../../Drivers/daisy_ILI9341.hpp ****         uint8_t ili_mv  = 0x20;
 542:GUI/FX/../../Drivers/daisy_ILI9341.hpp ****         switch(ori)
 543:GUI/FX/../../Drivers/daisy_ILI9341.hpp ****         {
 544:GUI/FX/../../Drivers/daisy_ILI9341.hpp ****             case Orientation::RRight:
 545:GUI/FX/../../Drivers/daisy_ILI9341.hpp ****             {
 546:GUI/FX/../../Drivers/daisy_ILI9341.hpp ****                 width    = 320;
 547:GUI/FX/../../Drivers/daisy_ILI9341.hpp ****                 height   = 240;
 548:GUI/FX/../../Drivers/daisy_ILI9341.hpp ****                 rotation = ili_mx | ili_my | ili_mv | ili_bgr;
 549:GUI/FX/../../Drivers/daisy_ILI9341.hpp ****                 return;
 550:GUI/FX/../../Drivers/daisy_ILI9341.hpp ****             }
 551:GUI/FX/../../Drivers/daisy_ILI9341.hpp ****             case Orientation::RLeft:
 552:GUI/FX/../../Drivers/daisy_ILI9341.hpp ****             {
 553:GUI/FX/../../Drivers/daisy_ILI9341.hpp ****                 width    = 320;
 554:GUI/FX/../../Drivers/daisy_ILI9341.hpp ****                 height   = 240;
 555:GUI/FX/../../Drivers/daisy_ILI9341.hpp ****                 rotation = ili_mv | ili_bgr;
 556:GUI/FX/../../Drivers/daisy_ILI9341.hpp ****                 return;
 557:GUI/FX/../../Drivers/daisy_ILI9341.hpp ****             }
 558:GUI/FX/../../Drivers/daisy_ILI9341.hpp ****             case Orientation::UpsideDown:
 559:GUI/FX/../../Drivers/daisy_ILI9341.hpp ****             {
 560:GUI/FX/../../Drivers/daisy_ILI9341.hpp ****                 width    = 240;
 561:GUI/FX/../../Drivers/daisy_ILI9341.hpp ****                 height   = 320;
 562:GUI/FX/../../Drivers/daisy_ILI9341.hpp ****                 rotation = ili_my | ili_bgr;
 563:GUI/FX/../../Drivers/daisy_ILI9341.hpp ****                 return;
 564:GUI/FX/../../Drivers/daisy_ILI9341.hpp ****             }
 565:GUI/FX/../../Drivers/daisy_ILI9341.hpp ****             default:
 566:GUI/FX/../../Drivers/daisy_ILI9341.hpp ****             {
 567:GUI/FX/../../Drivers/daisy_ILI9341.hpp ****                 width    = 240;
 568:GUI/FX/../../Drivers/daisy_ILI9341.hpp ****                 height   = 320;
 569:GUI/FX/../../Drivers/daisy_ILI9341.hpp ****                 rotation = ili_mx | ili_bgr;
 570:GUI/FX/../../Drivers/daisy_ILI9341.hpp ****             };
 571:GUI/FX/../../Drivers/daisy_ILI9341.hpp ****         }
 572:GUI/FX/../../Drivers/daisy_ILI9341.hpp ****     }
 573:GUI/FX/../../Drivers/daisy_ILI9341.hpp **** 
 574:GUI/FX/../../Drivers/daisy_ILI9341.hpp ****     Rectangle GetDrawableFrame() const
 575:GUI/FX/../../Drivers/daisy_ILI9341.hpp ****     {
 576:GUI/FX/../../Drivers/daisy_ILI9341.hpp ****         return Rectangle(int16_t(width), int16_t(height))
 577:GUI/FX/../../Drivers/daisy_ILI9341.hpp ****             .WithTrimmedTop(header)
 578:GUI/FX/../../Drivers/daisy_ILI9341.hpp ****             .WithTrimmedBottom(footer);
 579:GUI/FX/../../Drivers/daisy_ILI9341.hpp ****     }
 580:GUI/FX/../../Drivers/daisy_ILI9341.hpp **** 
 581:GUI/FX/../../Drivers/daisy_ILI9341.hpp ****     Rectangle GetBounds() const
 582:GUI/FX/../../Drivers/daisy_ILI9341.hpp ****     {
 583:GUI/FX/../../Drivers/daisy_ILI9341.hpp ****         return Rectangle(int16_t(width), int16_t(height));
 584:GUI/FX/../../Drivers/daisy_ILI9341.hpp ****     }
 585:GUI/FX/../../Drivers/daisy_ILI9341.hpp **** 
 586:GUI/FX/../../Drivers/daisy_ILI9341.hpp ****     void Fill(uint8_t color)
 587:GUI/FX/../../Drivers/daisy_ILI9341.hpp ****     {
 588:GUI/FX/../../Drivers/daisy_ILI9341.hpp ****         for(size_t i = 0; i < transport_.buffer_size / 2; i++)
 589:GUI/FX/../../Drivers/daisy_ILI9341.hpp ****         {
 590:GUI/FX/../../Drivers/daisy_ILI9341.hpp ****             transport_.PaintPixel(i * 2, color);
 591:GUI/FX/../../Drivers/daisy_ILI9341.hpp ****         }
ARM GAS  /var/folders/wz/z09yph4n0qj4t7mjxhl6ttn80000gn/T//cc3KzP2n.s 			page 17


 592:GUI/FX/../../Drivers/daisy_ILI9341.hpp ****     };
 593:GUI/FX/../../Drivers/daisy_ILI9341.hpp **** 
 594:GUI/FX/../../Drivers/daisy_ILI9341.hpp ****     void DrawLine(uint_fast16_t x1,
 595:GUI/FX/../../Drivers/daisy_ILI9341.hpp ****                   uint_fast16_t y1,
 596:GUI/FX/../../Drivers/daisy_ILI9341.hpp ****                   uint_fast16_t x2,
 597:GUI/FX/../../Drivers/daisy_ILI9341.hpp ****                   uint_fast16_t y2,
 598:GUI/FX/../../Drivers/daisy_ILI9341.hpp ****                   uint8_t       color,
 599:GUI/FX/../../Drivers/daisy_ILI9341.hpp ****                   uint8_t       alpha = 255)
 600:GUI/FX/../../Drivers/daisy_ILI9341.hpp ****     {
 601:GUI/FX/../../Drivers/daisy_ILI9341.hpp ****         if(x1 == x2)
 602:GUI/FX/../../Drivers/daisy_ILI9341.hpp ****         {
 603:GUI/FX/../../Drivers/daisy_ILI9341.hpp ****             return DrawVLine(x1, y1, y2 - y1 + 1, color, alpha);
 604:GUI/FX/../../Drivers/daisy_ILI9341.hpp ****         }
 605:GUI/FX/../../Drivers/daisy_ILI9341.hpp ****         else if(y1 == y2)
 606:GUI/FX/../../Drivers/daisy_ILI9341.hpp ****         {
 607:GUI/FX/../../Drivers/daisy_ILI9341.hpp ****             return DrawHLine(x1, y1, x2 - x1 + 1, color, alpha);
 608:GUI/FX/../../Drivers/daisy_ILI9341.hpp ****         }
 609:GUI/FX/../../Drivers/daisy_ILI9341.hpp **** 
 610:GUI/FX/../../Drivers/daisy_ILI9341.hpp ****         auto deltaX = abs((int_fast16_t)x2 - (int_fast16_t)x1);
 611:GUI/FX/../../Drivers/daisy_ILI9341.hpp ****         auto deltaY = abs((int_fast16_t)y2 - (int_fast16_t)y1);
 612:GUI/FX/../../Drivers/daisy_ILI9341.hpp ****         auto signX  = ((x1 < x2) ? 1 : -1);
 613:GUI/FX/../../Drivers/daisy_ILI9341.hpp ****         auto signY  = ((y1 < y2) ? 1 : -1);
 614:GUI/FX/../../Drivers/daisy_ILI9341.hpp ****         auto error  = deltaX - deltaY;
 615:GUI/FX/../../Drivers/daisy_ILI9341.hpp **** 
 616:GUI/FX/../../Drivers/daisy_ILI9341.hpp ****         DrawPixel(x2, y2, color, alpha);
 617:GUI/FX/../../Drivers/daisy_ILI9341.hpp **** 
 618:GUI/FX/../../Drivers/daisy_ILI9341.hpp ****         while((x1 != x2) || (y1 != y2))
 619:GUI/FX/../../Drivers/daisy_ILI9341.hpp ****         {
 620:GUI/FX/../../Drivers/daisy_ILI9341.hpp ****             DrawPixel(x1, y1, color, alpha);
 621:GUI/FX/../../Drivers/daisy_ILI9341.hpp ****             auto error2 = error * 2;
 622:GUI/FX/../../Drivers/daisy_ILI9341.hpp ****             if(error2 > -deltaY)
 623:GUI/FX/../../Drivers/daisy_ILI9341.hpp ****             {
 624:GUI/FX/../../Drivers/daisy_ILI9341.hpp ****                 error -= deltaY;
 625:GUI/FX/../../Drivers/daisy_ILI9341.hpp ****                 x1 += signX;
 626:GUI/FX/../../Drivers/daisy_ILI9341.hpp ****             }
 627:GUI/FX/../../Drivers/daisy_ILI9341.hpp **** 
 628:GUI/FX/../../Drivers/daisy_ILI9341.hpp ****             if(error2 < deltaX)
 629:GUI/FX/../../Drivers/daisy_ILI9341.hpp ****             {
 630:GUI/FX/../../Drivers/daisy_ILI9341.hpp ****                 error += deltaX;
 631:GUI/FX/../../Drivers/daisy_ILI9341.hpp ****                 y1 += signY;
 632:GUI/FX/../../Drivers/daisy_ILI9341.hpp ****             }
 633:GUI/FX/../../Drivers/daisy_ILI9341.hpp ****         }
 634:GUI/FX/../../Drivers/daisy_ILI9341.hpp ****     }
 635:GUI/FX/../../Drivers/daisy_ILI9341.hpp **** 
 636:GUI/FX/../../Drivers/daisy_ILI9341.hpp ****     void FillArea(uint_fast16_t x,
 637:GUI/FX/../../Drivers/daisy_ILI9341.hpp ****                   uint_fast16_t y,
 638:GUI/FX/../../Drivers/daisy_ILI9341.hpp ****                   uint_fast16_t w,
 639:GUI/FX/../../Drivers/daisy_ILI9341.hpp ****                   uint_fast16_t h,
 640:GUI/FX/../../Drivers/daisy_ILI9341.hpp ****                   uint8_t       color,
 641:GUI/FX/../../Drivers/daisy_ILI9341.hpp ****                   uint8_t       alpha = 255)
 642:GUI/FX/../../Drivers/daisy_ILI9341.hpp ****     {
 643:GUI/FX/../../Drivers/daisy_ILI9341.hpp ****         // Loop through every Y sector
 644:GUI/FX/../../Drivers/daisy_ILI9341.hpp ****         for(size_t i = 0; i < h; i++)
 645:GUI/FX/../../Drivers/daisy_ILI9341.hpp ****         {
 646:GUI/FX/../../Drivers/daisy_ILI9341.hpp ****             for(size_t j = 0; j < w; j++)
 647:GUI/FX/../../Drivers/daisy_ILI9341.hpp ****             {
 648:GUI/FX/../../Drivers/daisy_ILI9341.hpp ****                 DrawPixel(x + j, y + i, color, alpha);
ARM GAS  /var/folders/wz/z09yph4n0qj4t7mjxhl6ttn80000gn/T//cc3KzP2n.s 			page 18


 649:GUI/FX/../../Drivers/daisy_ILI9341.hpp ****             }
 650:GUI/FX/../../Drivers/daisy_ILI9341.hpp ****         }
 651:GUI/FX/../../Drivers/daisy_ILI9341.hpp ****     };
 652:GUI/FX/../../Drivers/daisy_ILI9341.hpp **** 
 653:GUI/FX/../../Drivers/daisy_ILI9341.hpp ****     void DrawRect(uint16_t x,
 654:GUI/FX/../../Drivers/daisy_ILI9341.hpp ****                   uint16_t y,
 655:GUI/FX/../../Drivers/daisy_ILI9341.hpp ****                   uint16_t w,
 656:GUI/FX/../../Drivers/daisy_ILI9341.hpp ****                   uint16_t h,
 657:GUI/FX/../../Drivers/daisy_ILI9341.hpp ****                   uint8_t  color,
 658:GUI/FX/../../Drivers/daisy_ILI9341.hpp ****                   uint8_t  alpha = 255)
 659:GUI/FX/../../Drivers/daisy_ILI9341.hpp ****     {
 660:GUI/FX/../../Drivers/daisy_ILI9341.hpp ****         auto x2 = x + w;
 661:GUI/FX/../../Drivers/daisy_ILI9341.hpp ****         auto y2 = y + h;
 662:GUI/FX/../../Drivers/daisy_ILI9341.hpp ****         DrawLine(x, y, x, y2, color, alpha);
 663:GUI/FX/../../Drivers/daisy_ILI9341.hpp ****         DrawLine(x, y, x2, y, color, alpha);
 664:GUI/FX/../../Drivers/daisy_ILI9341.hpp ****         DrawLine(x, y2, x2, y2, color, alpha);
 665:GUI/FX/../../Drivers/daisy_ILI9341.hpp ****         DrawLine(x2, y, x2, y2, color, alpha);
 666:GUI/FX/../../Drivers/daisy_ILI9341.hpp ****     }
 667:GUI/FX/../../Drivers/daisy_ILI9341.hpp **** 
 668:GUI/FX/../../Drivers/daisy_ILI9341.hpp ****     void DrawRect(const Rectangle& rect, uint8_t color, uint8_t alpha = 255)
 669:GUI/FX/../../Drivers/daisy_ILI9341.hpp ****     {
 670:GUI/FX/../../Drivers/daisy_ILI9341.hpp ****         DrawRect(rect.GetX(),
 671:GUI/FX/../../Drivers/daisy_ILI9341.hpp ****                  rect.GetY(),
 672:GUI/FX/../../Drivers/daisy_ILI9341.hpp ****                  rect.GetWidth(),
 673:GUI/FX/../../Drivers/daisy_ILI9341.hpp ****                  rect.GetHeight(),
 674:GUI/FX/../../Drivers/daisy_ILI9341.hpp ****                  color,
 675:GUI/FX/../../Drivers/daisy_ILI9341.hpp ****                  alpha);
 676:GUI/FX/../../Drivers/daisy_ILI9341.hpp ****     }
 677:GUI/FX/../../Drivers/daisy_ILI9341.hpp **** 
 678:GUI/FX/../../Drivers/daisy_ILI9341.hpp ****     void FillRect(const Rectangle& rect, uint8_t color, uint8_t alpha = 255)
 679:GUI/FX/../../Drivers/daisy_ILI9341.hpp ****     {
 680:GUI/FX/../../Drivers/daisy_ILI9341.hpp ****         FillArea(rect.GetX(),
 681:GUI/FX/../../Drivers/daisy_ILI9341.hpp ****                  rect.GetY(),
 682:GUI/FX/../../Drivers/daisy_ILI9341.hpp ****                  rect.GetWidth(),
 683:GUI/FX/../../Drivers/daisy_ILI9341.hpp ****                  rect.GetHeight(),
 684:GUI/FX/../../Drivers/daisy_ILI9341.hpp ****                  color,
 685:GUI/FX/../../Drivers/daisy_ILI9341.hpp ****                  alpha);
 686:GUI/FX/../../Drivers/daisy_ILI9341.hpp ****     };
 687:GUI/FX/../../Drivers/daisy_ILI9341.hpp **** 
 688:GUI/FX/../../Drivers/daisy_ILI9341.hpp ****     void DrawTriangle(int16_t x0,
 689:GUI/FX/../../Drivers/daisy_ILI9341.hpp ****                       int16_t y0,
 690:GUI/FX/../../Drivers/daisy_ILI9341.hpp ****                       int16_t x1,
 691:GUI/FX/../../Drivers/daisy_ILI9341.hpp ****                       int16_t y1,
 692:GUI/FX/../../Drivers/daisy_ILI9341.hpp ****                       int16_t x2,
 693:GUI/FX/../../Drivers/daisy_ILI9341.hpp ****                       int16_t y2,
 694:GUI/FX/../../Drivers/daisy_ILI9341.hpp ****                       uint8_t color,
 695:GUI/FX/../../Drivers/daisy_ILI9341.hpp ****                       uint8_t alpha = 255)
 696:GUI/FX/../../Drivers/daisy_ILI9341.hpp ****     {
 697:GUI/FX/../../Drivers/daisy_ILI9341.hpp ****         DrawLine(x0, y0, x1, y1, color, alpha);
 698:GUI/FX/../../Drivers/daisy_ILI9341.hpp ****         DrawLine(x1, y1, x2, y2, color, alpha);
 699:GUI/FX/../../Drivers/daisy_ILI9341.hpp ****         DrawLine(x2, y2, x0, y0, color, alpha);
 700:GUI/FX/../../Drivers/daisy_ILI9341.hpp ****     }
 701:GUI/FX/../../Drivers/daisy_ILI9341.hpp **** 
 702:GUI/FX/../../Drivers/daisy_ILI9341.hpp ****     void FillTriangle(int16_t x0,
 703:GUI/FX/../../Drivers/daisy_ILI9341.hpp ****                       int16_t y0,
 704:GUI/FX/../../Drivers/daisy_ILI9341.hpp ****                       int16_t x1,
 705:GUI/FX/../../Drivers/daisy_ILI9341.hpp ****                       int16_t y1,
ARM GAS  /var/folders/wz/z09yph4n0qj4t7mjxhl6ttn80000gn/T//cc3KzP2n.s 			page 19


 706:GUI/FX/../../Drivers/daisy_ILI9341.hpp ****                       int16_t x2,
 707:GUI/FX/../../Drivers/daisy_ILI9341.hpp ****                       int16_t y2,
 708:GUI/FX/../../Drivers/daisy_ILI9341.hpp ****                       uint8_t color,
 709:GUI/FX/../../Drivers/daisy_ILI9341.hpp ****                       uint8_t alpha = 255)
 710:GUI/FX/../../Drivers/daisy_ILI9341.hpp ****     {
 711:GUI/FX/../../Drivers/daisy_ILI9341.hpp ****         int16_t a, b, y, last;
 712:GUI/FX/../../Drivers/daisy_ILI9341.hpp **** 
 713:GUI/FX/../../Drivers/daisy_ILI9341.hpp ****         // Sort coordinates by Y order (y2 >= y1 >= y0)
 714:GUI/FX/../../Drivers/daisy_ILI9341.hpp ****         if(y0 > y1)
 715:GUI/FX/../../Drivers/daisy_ILI9341.hpp ****         {
 716:GUI/FX/../../Drivers/daisy_ILI9341.hpp ****             std::swap(y0, y1);
 717:GUI/FX/../../Drivers/daisy_ILI9341.hpp ****             std::swap(x0, x1);
 718:GUI/FX/../../Drivers/daisy_ILI9341.hpp ****         }
 719:GUI/FX/../../Drivers/daisy_ILI9341.hpp ****         if(y1 > y2)
 720:GUI/FX/../../Drivers/daisy_ILI9341.hpp ****         {
 721:GUI/FX/../../Drivers/daisy_ILI9341.hpp ****             std::swap(y2, y1);
 722:GUI/FX/../../Drivers/daisy_ILI9341.hpp ****             std::swap(x2, x1);
 723:GUI/FX/../../Drivers/daisy_ILI9341.hpp ****         }
 724:GUI/FX/../../Drivers/daisy_ILI9341.hpp ****         if(y0 > y1)
 725:GUI/FX/../../Drivers/daisy_ILI9341.hpp ****         {
 726:GUI/FX/../../Drivers/daisy_ILI9341.hpp ****             std::swap(y0, y1);
 727:GUI/FX/../../Drivers/daisy_ILI9341.hpp ****             std::swap(x0, x1);
 728:GUI/FX/../../Drivers/daisy_ILI9341.hpp ****         }
 729:GUI/FX/../../Drivers/daisy_ILI9341.hpp **** 
 730:GUI/FX/../../Drivers/daisy_ILI9341.hpp ****         if(y0 == y2)
 731:GUI/FX/../../Drivers/daisy_ILI9341.hpp ****         { // Handle awkward all-on-same-line case as its own thing
 732:GUI/FX/../../Drivers/daisy_ILI9341.hpp ****             a = b = x0;
 733:GUI/FX/../../Drivers/daisy_ILI9341.hpp ****             if(x1 < a)
 734:GUI/FX/../../Drivers/daisy_ILI9341.hpp ****                 a = x1;
 735:GUI/FX/../../Drivers/daisy_ILI9341.hpp ****             else if(x1 > b)
 736:GUI/FX/../../Drivers/daisy_ILI9341.hpp ****                 b = x1;
 737:GUI/FX/../../Drivers/daisy_ILI9341.hpp ****             if(x2 < a)
 738:GUI/FX/../../Drivers/daisy_ILI9341.hpp ****                 a = x2;
 739:GUI/FX/../../Drivers/daisy_ILI9341.hpp ****             else if(x2 > b)
 740:GUI/FX/../../Drivers/daisy_ILI9341.hpp ****                 b = x2;
 741:GUI/FX/../../Drivers/daisy_ILI9341.hpp ****             DrawHLine(a, y0, b - a + 1, color, alpha);
 742:GUI/FX/../../Drivers/daisy_ILI9341.hpp ****             return;
 743:GUI/FX/../../Drivers/daisy_ILI9341.hpp ****         }
 744:GUI/FX/../../Drivers/daisy_ILI9341.hpp **** 
 745:GUI/FX/../../Drivers/daisy_ILI9341.hpp ****         int16_t dx01 = x1 - x0, dy01 = y1 - y0, dx02 = x2 - x0, dy02 = y2 - y0,
 746:GUI/FX/../../Drivers/daisy_ILI9341.hpp ****                 dx12 = x2 - x1, dy12 = y2 - y1;
 747:GUI/FX/../../Drivers/daisy_ILI9341.hpp ****         int32_t sa = 0, sb = 0;
 748:GUI/FX/../../Drivers/daisy_ILI9341.hpp **** 
 749:GUI/FX/../../Drivers/daisy_ILI9341.hpp ****         // For upper part of triangle, find scanline crossings for segments
 750:GUI/FX/../../Drivers/daisy_ILI9341.hpp ****         // 0-1 and 0-2.  If y1=y2 (flat-bottomed triangle), the scanline y1
 751:GUI/FX/../../Drivers/daisy_ILI9341.hpp ****         // is included here (and second loop will be skipped, avoiding a /0
 752:GUI/FX/../../Drivers/daisy_ILI9341.hpp ****         // error there), otherwise scanline y1 is skipped here and handled
 753:GUI/FX/../../Drivers/daisy_ILI9341.hpp ****         // in the second loop...which also avoids a /0 error here if y0=y1
 754:GUI/FX/../../Drivers/daisy_ILI9341.hpp ****         // (flat-topped triangle).
 755:GUI/FX/../../Drivers/daisy_ILI9341.hpp ****         if(y1 == y2)
 756:GUI/FX/../../Drivers/daisy_ILI9341.hpp ****         {
 757:GUI/FX/../../Drivers/daisy_ILI9341.hpp ****             last = y1; // Include y1 scanline
 758:GUI/FX/../../Drivers/daisy_ILI9341.hpp ****         }
 759:GUI/FX/../../Drivers/daisy_ILI9341.hpp ****         else
 760:GUI/FX/../../Drivers/daisy_ILI9341.hpp ****         {
 761:GUI/FX/../../Drivers/daisy_ILI9341.hpp ****             last = y1 - 1; // Skip it
 762:GUI/FX/../../Drivers/daisy_ILI9341.hpp ****         }
ARM GAS  /var/folders/wz/z09yph4n0qj4t7mjxhl6ttn80000gn/T//cc3KzP2n.s 			page 20


 763:GUI/FX/../../Drivers/daisy_ILI9341.hpp **** 
 764:GUI/FX/../../Drivers/daisy_ILI9341.hpp ****         for(y = y0; y <= last; y++)
 765:GUI/FX/../../Drivers/daisy_ILI9341.hpp ****         {
 766:GUI/FX/../../Drivers/daisy_ILI9341.hpp ****             a = x0 + sa / dy01;
 767:GUI/FX/../../Drivers/daisy_ILI9341.hpp ****             b = x0 + sb / dy02;
 768:GUI/FX/../../Drivers/daisy_ILI9341.hpp ****             sa += dx01;
 769:GUI/FX/../../Drivers/daisy_ILI9341.hpp ****             sb += dx02;
 770:GUI/FX/../../Drivers/daisy_ILI9341.hpp ****             /* longhand:
 771:GUI/FX/../../Drivers/daisy_ILI9341.hpp ****             a = x0 + (x1 - x0) * (y - y0) / (y1 - y0);
 772:GUI/FX/../../Drivers/daisy_ILI9341.hpp ****             b = x0 + (x2 - x0) * (y - y0) / (y2 - y0);
 773:GUI/FX/../../Drivers/daisy_ILI9341.hpp ****             */
 774:GUI/FX/../../Drivers/daisy_ILI9341.hpp ****             if(a > b)
 775:GUI/FX/../../Drivers/daisy_ILI9341.hpp ****             {
 776:GUI/FX/../../Drivers/daisy_ILI9341.hpp ****                 std::swap(a, b);
 777:GUI/FX/../../Drivers/daisy_ILI9341.hpp ****             }
 778:GUI/FX/../../Drivers/daisy_ILI9341.hpp ****             DrawHLine(a, y, b - a + 1, color, alpha);
 779:GUI/FX/../../Drivers/daisy_ILI9341.hpp ****         }
 780:GUI/FX/../../Drivers/daisy_ILI9341.hpp **** 
 781:GUI/FX/../../Drivers/daisy_ILI9341.hpp ****         // For lower part of triangle, find scanline crossings for segments
 782:GUI/FX/../../Drivers/daisy_ILI9341.hpp ****         // 0-2 and 1-2.  This loop is skipped if y1=y2.
 783:GUI/FX/../../Drivers/daisy_ILI9341.hpp ****         sa = (int32_t)dx12 * (y - y1);
 784:GUI/FX/../../Drivers/daisy_ILI9341.hpp ****         sb = (int32_t)dx02 * (y - y0);
 785:GUI/FX/../../Drivers/daisy_ILI9341.hpp ****         for(; y <= y2; y++)
 786:GUI/FX/../../Drivers/daisy_ILI9341.hpp ****         {
 787:GUI/FX/../../Drivers/daisy_ILI9341.hpp ****             a = x1 + sa / dy12;
 788:GUI/FX/../../Drivers/daisy_ILI9341.hpp ****             b = x0 + sb / dy02;
 789:GUI/FX/../../Drivers/daisy_ILI9341.hpp ****             sa += dx12;
 790:GUI/FX/../../Drivers/daisy_ILI9341.hpp ****             sb += dx02;
 791:GUI/FX/../../Drivers/daisy_ILI9341.hpp ****             /* longhand:
 792:GUI/FX/../../Drivers/daisy_ILI9341.hpp ****                 a = x1 + (x2 - x1) * (y - y1) / (y2 - y1);
 793:GUI/FX/../../Drivers/daisy_ILI9341.hpp ****                 b = x0 + (x2 - x0) * (y - y0) / (y2 - y0);
 794:GUI/FX/../../Drivers/daisy_ILI9341.hpp ****             */
 795:GUI/FX/../../Drivers/daisy_ILI9341.hpp ****             if(a > b)
 796:GUI/FX/../../Drivers/daisy_ILI9341.hpp ****             {
 797:GUI/FX/../../Drivers/daisy_ILI9341.hpp ****                 std::swap(a, b);
 798:GUI/FX/../../Drivers/daisy_ILI9341.hpp ****             }
 799:GUI/FX/../../Drivers/daisy_ILI9341.hpp ****             DrawHLine(a, y, b - a + 1, color, alpha);
 800:GUI/FX/../../Drivers/daisy_ILI9341.hpp ****         }
 801:GUI/FX/../../Drivers/daisy_ILI9341.hpp ****     }
 802:GUI/FX/../../Drivers/daisy_ILI9341.hpp **** 
 803:GUI/FX/../../Drivers/daisy_ILI9341.hpp **** 
 804:GUI/FX/../../Drivers/daisy_ILI9341.hpp ****     Rectangle WriteStringAligned(const char*    str,
 805:GUI/FX/../../Drivers/daisy_ILI9341.hpp ****                                  const FontDef& font,
 806:GUI/FX/../../Drivers/daisy_ILI9341.hpp ****                                  Rectangle      boundingBox,
 807:GUI/FX/../../Drivers/daisy_ILI9341.hpp ****                                  Alignment      alignment,
 808:GUI/FX/../../Drivers/daisy_ILI9341.hpp ****                                  uint8_t        color)
 809:GUI/FX/../../Drivers/daisy_ILI9341.hpp ****     {
 810:GUI/FX/../../Drivers/daisy_ILI9341.hpp ****         const auto alignedRect
 811:GUI/FX/../../Drivers/daisy_ILI9341.hpp ****             = GetTextRect(str, font).AlignedWithin(boundingBox, alignment);
 812:GUI/FX/../../Drivers/daisy_ILI9341.hpp ****         WriteString(str, alignedRect.GetX(), alignedRect.GetY(), font, color);
 813:GUI/FX/../../Drivers/daisy_ILI9341.hpp ****         return alignedRect;
 814:GUI/FX/../../Drivers/daisy_ILI9341.hpp ****     }
 815:GUI/FX/../../Drivers/daisy_ILI9341.hpp **** 
 816:GUI/FX/../../Drivers/daisy_ILI9341.hpp ****     Rectangle GetTextRect(const char* text, const FontDef& font) const
 817:GUI/FX/../../Drivers/daisy_ILI9341.hpp ****     {
 818:GUI/FX/../../Drivers/daisy_ILI9341.hpp ****         return {int16_t(strlen(text) * font.FontWidth), font.FontHeight};
 819:GUI/FX/../../Drivers/daisy_ILI9341.hpp ****     }
ARM GAS  /var/folders/wz/z09yph4n0qj4t7mjxhl6ttn80000gn/T//cc3KzP2n.s 			page 21


 820:GUI/FX/../../Drivers/daisy_ILI9341.hpp **** 
 821:GUI/FX/../../Drivers/daisy_ILI9341.hpp ****     char WriteChar(char ch, FontDef font, uint8_t color)
 822:GUI/FX/../../Drivers/daisy_ILI9341.hpp ****     {
 823:GUI/FX/../../Drivers/daisy_ILI9341.hpp ****         // Check if character is valid
 824:GUI/FX/../../Drivers/daisy_ILI9341.hpp ****         if(ch < 32 || ch > 126)
 825:GUI/FX/../../Drivers/daisy_ILI9341.hpp ****             return 0;
 826:GUI/FX/../../Drivers/daisy_ILI9341.hpp **** 
 827:GUI/FX/../../Drivers/daisy_ILI9341.hpp ****         // Check remaining space on current line
 828:GUI/FX/../../Drivers/daisy_ILI9341.hpp ****         if(width < (currentX_ + font.FontWidth)
 829:GUI/FX/../../Drivers/daisy_ILI9341.hpp ****            || height < (currentY_ + font.FontHeight))
 830:GUI/FX/../../Drivers/daisy_ILI9341.hpp ****         {
 831:GUI/FX/../../Drivers/daisy_ILI9341.hpp ****             return 0;
 832:GUI/FX/../../Drivers/daisy_ILI9341.hpp ****         }
 833:GUI/FX/../../Drivers/daisy_ILI9341.hpp **** 
 834:GUI/FX/../../Drivers/daisy_ILI9341.hpp ****         // Use the font to write
 835:GUI/FX/../../Drivers/daisy_ILI9341.hpp ****         for(auto i = 0; i < font.FontHeight; i++)
 836:GUI/FX/../../Drivers/daisy_ILI9341.hpp ****         {
 837:GUI/FX/../../Drivers/daisy_ILI9341.hpp ****             auto b = font.data[(ch - 32) * font.FontHeight + i];
 838:GUI/FX/../../Drivers/daisy_ILI9341.hpp ****             for(auto j = 0; j < font.FontWidth; j++)
 839:GUI/FX/../../Drivers/daisy_ILI9341.hpp ****             {
 840:GUI/FX/../../Drivers/daisy_ILI9341.hpp ****                 if((b << j) & 0x8000)
 841:GUI/FX/../../Drivers/daisy_ILI9341.hpp ****                 {
 842:GUI/FX/../../Drivers/daisy_ILI9341.hpp ****                     DrawPixel(currentX_ + j, (currentY_ + i), color);
 843:GUI/FX/../../Drivers/daisy_ILI9341.hpp ****                 }
 844:GUI/FX/../../Drivers/daisy_ILI9341.hpp ****             }
 845:GUI/FX/../../Drivers/daisy_ILI9341.hpp ****         }
 846:GUI/FX/../../Drivers/daisy_ILI9341.hpp **** 
 847:GUI/FX/../../Drivers/daisy_ILI9341.hpp ****         // The current space is now taken
 848:GUI/FX/../../Drivers/daisy_ILI9341.hpp ****         SetCursor(currentX_ + font.FontWidth, currentY_);
 849:GUI/FX/../../Drivers/daisy_ILI9341.hpp **** 
 850:GUI/FX/../../Drivers/daisy_ILI9341.hpp ****         return ch;
 851:GUI/FX/../../Drivers/daisy_ILI9341.hpp ****     }
 852:GUI/FX/../../Drivers/daisy_ILI9341.hpp **** 
 853:GUI/FX/../../Drivers/daisy_ILI9341.hpp ****     void WriteString(const char* str, uint16_t x, uint16_t y, FontDef font)
 854:GUI/FX/../../Drivers/daisy_ILI9341.hpp ****     {
 855:GUI/FX/../../Drivers/daisy_ILI9341.hpp ****         WriteString(str, x, y, font, COLOR_WHITE);
 856:GUI/FX/../../Drivers/daisy_ILI9341.hpp ****     }
 857:GUI/FX/../../Drivers/daisy_ILI9341.hpp **** 
 858:GUI/FX/../../Drivers/daisy_ILI9341.hpp ****     void WriteString(const char* str,
 859:GUI/FX/../../Drivers/daisy_ILI9341.hpp ****                      uint16_t    x,
 860:GUI/FX/../../Drivers/daisy_ILI9341.hpp ****                      uint16_t    y,
 861:GUI/FX/../../Drivers/daisy_ILI9341.hpp ****                      FontDef     font,
 862:GUI/FX/../../Drivers/daisy_ILI9341.hpp ****                      uint8_t     color)
 863:GUI/FX/../../Drivers/daisy_ILI9341.hpp ****     {
 864:GUI/FX/../../Drivers/daisy_ILI9341.hpp ****         SetCursor(x, y);
 865:GUI/FX/../../Drivers/daisy_ILI9341.hpp ****         while(*str) // Write until null-byte
 866:GUI/FX/../../Drivers/daisy_ILI9341.hpp ****         {
 867:GUI/FX/../../Drivers/daisy_ILI9341.hpp ****             if(WriteChar(*str, font, color) != *str)
 868:GUI/FX/../../Drivers/daisy_ILI9341.hpp ****             {
 869:GUI/FX/../../Drivers/daisy_ILI9341.hpp ****                 return; // Char could not be written
 870:GUI/FX/../../Drivers/daisy_ILI9341.hpp ****             }
 871:GUI/FX/../../Drivers/daisy_ILI9341.hpp ****             str++; // Next char
 872:GUI/FX/../../Drivers/daisy_ILI9341.hpp ****         }
 873:GUI/FX/../../Drivers/daisy_ILI9341.hpp ****     }
 874:GUI/FX/../../Drivers/daisy_ILI9341.hpp **** 
 875:GUI/FX/../../Drivers/daisy_ILI9341.hpp ****     uint16_t GetStringWidth(const char* str, FontDef font) const
 876:GUI/FX/../../Drivers/daisy_ILI9341.hpp ****     {
ARM GAS  /var/folders/wz/z09yph4n0qj4t7mjxhl6ttn80000gn/T//cc3KzP2n.s 			page 22


 877:GUI/FX/../../Drivers/daisy_ILI9341.hpp ****         uint16_t font_width = 0;
 878:GUI/FX/../../Drivers/daisy_ILI9341.hpp ****         // Loop until null-byte
 879:GUI/FX/../../Drivers/daisy_ILI9341.hpp ****         while(*str)
 880:GUI/FX/../../Drivers/daisy_ILI9341.hpp ****         {
 881:GUI/FX/../../Drivers/daisy_ILI9341.hpp ****             font_width += font.FontWidth;
 882:GUI/FX/../../Drivers/daisy_ILI9341.hpp ****             str++;
 883:GUI/FX/../../Drivers/daisy_ILI9341.hpp ****         }
 884:GUI/FX/../../Drivers/daisy_ILI9341.hpp **** 
 885:GUI/FX/../../Drivers/daisy_ILI9341.hpp ****         return font_width;
 886:GUI/FX/../../Drivers/daisy_ILI9341.hpp ****     }
 887:GUI/FX/../../Drivers/daisy_ILI9341.hpp **** 
 888:GUI/FX/../../Drivers/daisy_ILI9341.hpp ****     void DrawCircle(int16_t x0, int16_t y0, int16_t r, uint8_t color)
 889:GUI/FX/../../Drivers/daisy_ILI9341.hpp ****     {
 890:GUI/FX/../../Drivers/daisy_ILI9341.hpp ****         int16_t f     = 1 - r;
 891:GUI/FX/../../Drivers/daisy_ILI9341.hpp ****         int16_t ddF_x = 1;
 892:GUI/FX/../../Drivers/daisy_ILI9341.hpp ****         int16_t ddF_y = -2 * r;
 893:GUI/FX/../../Drivers/daisy_ILI9341.hpp ****         int16_t x     = 0;
 894:GUI/FX/../../Drivers/daisy_ILI9341.hpp ****         int16_t y     = r;
 895:GUI/FX/../../Drivers/daisy_ILI9341.hpp **** 
 896:GUI/FX/../../Drivers/daisy_ILI9341.hpp ****         DrawPixel(x0, y0 + r, color);
 897:GUI/FX/../../Drivers/daisy_ILI9341.hpp ****         DrawPixel(x0, y0 - r, color);
 898:GUI/FX/../../Drivers/daisy_ILI9341.hpp ****         DrawPixel(x0 + r, y0, color);
 899:GUI/FX/../../Drivers/daisy_ILI9341.hpp ****         DrawPixel(x0 - r, y0, color);
 900:GUI/FX/../../Drivers/daisy_ILI9341.hpp **** 
 901:GUI/FX/../../Drivers/daisy_ILI9341.hpp ****         while(x < y)
 902:GUI/FX/../../Drivers/daisy_ILI9341.hpp ****         {
 903:GUI/FX/../../Drivers/daisy_ILI9341.hpp ****             if(f >= 0)
 904:GUI/FX/../../Drivers/daisy_ILI9341.hpp ****             {
 905:GUI/FX/../../Drivers/daisy_ILI9341.hpp ****                 y--;
 906:GUI/FX/../../Drivers/daisy_ILI9341.hpp ****                 ddF_y += 2;
 907:GUI/FX/../../Drivers/daisy_ILI9341.hpp ****                 f += ddF_y;
 908:GUI/FX/../../Drivers/daisy_ILI9341.hpp ****             }
 909:GUI/FX/../../Drivers/daisy_ILI9341.hpp ****             x++;
 910:GUI/FX/../../Drivers/daisy_ILI9341.hpp ****             ddF_x += 2;
 911:GUI/FX/../../Drivers/daisy_ILI9341.hpp ****             f += ddF_x;
 912:GUI/FX/../../Drivers/daisy_ILI9341.hpp **** 
 913:GUI/FX/../../Drivers/daisy_ILI9341.hpp ****             DrawPixel(x0 + x, y0 + y, color);
 914:GUI/FX/../../Drivers/daisy_ILI9341.hpp ****             DrawPixel(x0 - x, y0 + y, color);
 915:GUI/FX/../../Drivers/daisy_ILI9341.hpp ****             DrawPixel(x0 + x, y0 - y, color);
 916:GUI/FX/../../Drivers/daisy_ILI9341.hpp ****             DrawPixel(x0 - x, y0 - y, color);
 917:GUI/FX/../../Drivers/daisy_ILI9341.hpp ****             DrawPixel(x0 + y, y0 + x, color);
 918:GUI/FX/../../Drivers/daisy_ILI9341.hpp ****             DrawPixel(x0 - y, y0 + x, color);
 919:GUI/FX/../../Drivers/daisy_ILI9341.hpp ****             DrawPixel(x0 + y, y0 - x, color);
 920:GUI/FX/../../Drivers/daisy_ILI9341.hpp ****             DrawPixel(x0 - y, y0 - x, color);
 921:GUI/FX/../../Drivers/daisy_ILI9341.hpp ****         }
 922:GUI/FX/../../Drivers/daisy_ILI9341.hpp ****     }
 923:GUI/FX/../../Drivers/daisy_ILI9341.hpp **** 
 924:GUI/FX/../../Drivers/daisy_ILI9341.hpp ****     void FillCircle(int16_t x0, int16_t y0, int16_t r, uint8_t color)
 925:GUI/FX/../../Drivers/daisy_ILI9341.hpp ****     {
 926:GUI/FX/../../Drivers/daisy_ILI9341.hpp ****         DrawLine(x0, y0, x0, y0 + 2 * r + 1, color);
 927:GUI/FX/../../Drivers/daisy_ILI9341.hpp ****         FillCircleHelper(x0, y0, r, 3, 0, color);
 928:GUI/FX/../../Drivers/daisy_ILI9341.hpp ****     }
 929:GUI/FX/../../Drivers/daisy_ILI9341.hpp **** 
 930:GUI/FX/../../Drivers/daisy_ILI9341.hpp ****     void FillCircleHelper(int16_t x0,
 931:GUI/FX/../../Drivers/daisy_ILI9341.hpp ****                           int16_t y0,
 932:GUI/FX/../../Drivers/daisy_ILI9341.hpp ****                           int16_t r,
 933:GUI/FX/../../Drivers/daisy_ILI9341.hpp ****                           uint8_t cornername,
ARM GAS  /var/folders/wz/z09yph4n0qj4t7mjxhl6ttn80000gn/T//cc3KzP2n.s 			page 23


 934:GUI/FX/../../Drivers/daisy_ILI9341.hpp ****                           int16_t delta,
 935:GUI/FX/../../Drivers/daisy_ILI9341.hpp ****                           uint8_t color)
 936:GUI/FX/../../Drivers/daisy_ILI9341.hpp ****     {
 937:GUI/FX/../../Drivers/daisy_ILI9341.hpp ****         int16_t f     = 1 - r;
 938:GUI/FX/../../Drivers/daisy_ILI9341.hpp ****         int16_t ddF_x = 1;
 939:GUI/FX/../../Drivers/daisy_ILI9341.hpp ****         int16_t ddF_y = -2 * r;
 940:GUI/FX/../../Drivers/daisy_ILI9341.hpp ****         int16_t x     = 0;
 941:GUI/FX/../../Drivers/daisy_ILI9341.hpp ****         int16_t y     = r;
 942:GUI/FX/../../Drivers/daisy_ILI9341.hpp **** 
 943:GUI/FX/../../Drivers/daisy_ILI9341.hpp ****         delta++;
 944:GUI/FX/../../Drivers/daisy_ILI9341.hpp **** 
 945:GUI/FX/../../Drivers/daisy_ILI9341.hpp ****         while(x < y)
 946:GUI/FX/../../Drivers/daisy_ILI9341.hpp ****         {
 947:GUI/FX/../../Drivers/daisy_ILI9341.hpp ****             if(f >= 0)
 948:GUI/FX/../../Drivers/daisy_ILI9341.hpp ****             {
 949:GUI/FX/../../Drivers/daisy_ILI9341.hpp ****                 y--;
 950:GUI/FX/../../Drivers/daisy_ILI9341.hpp ****                 ddF_y += 2;
 951:GUI/FX/../../Drivers/daisy_ILI9341.hpp ****                 f += ddF_y;
 952:GUI/FX/../../Drivers/daisy_ILI9341.hpp ****             }
 953:GUI/FX/../../Drivers/daisy_ILI9341.hpp ****             x++;
 954:GUI/FX/../../Drivers/daisy_ILI9341.hpp ****             ddF_x += 2;
 955:GUI/FX/../../Drivers/daisy_ILI9341.hpp ****             f += ddF_x;
 956:GUI/FX/../../Drivers/daisy_ILI9341.hpp **** 
 957:GUI/FX/../../Drivers/daisy_ILI9341.hpp ****             if(cornername & 0x1)
 958:GUI/FX/../../Drivers/daisy_ILI9341.hpp ****             {
 959:GUI/FX/../../Drivers/daisy_ILI9341.hpp ****                 DrawLine(
 960:GUI/FX/../../Drivers/daisy_ILI9341.hpp ****                     x0 + x, y0 - y, x0 + x, y0 - y + 2 * y + delta - 1, color);
 961:GUI/FX/../../Drivers/daisy_ILI9341.hpp ****                 DrawLine(
 962:GUI/FX/../../Drivers/daisy_ILI9341.hpp ****                     x0 + y, y0 - x, x0 + y, y0 - x + 2 * x + delta - 1, color);
 963:GUI/FX/../../Drivers/daisy_ILI9341.hpp ****             }
 964:GUI/FX/../../Drivers/daisy_ILI9341.hpp ****             if(cornername & 0x2)
 965:GUI/FX/../../Drivers/daisy_ILI9341.hpp ****             {
 966:GUI/FX/../../Drivers/daisy_ILI9341.hpp ****                 DrawLine(
 967:GUI/FX/../../Drivers/daisy_ILI9341.hpp ****                     x0 - x, y0 - y, x0 - x, y0 - y + 2 * y + delta - 1, color);
 968:GUI/FX/../../Drivers/daisy_ILI9341.hpp ****                 DrawLine(
 969:GUI/FX/../../Drivers/daisy_ILI9341.hpp ****                     x0 - y, y0 - x, x0 - y, y0 - x + 2 * x + delta - 1, color);
 970:GUI/FX/../../Drivers/daisy_ILI9341.hpp ****             }
 971:GUI/FX/../../Drivers/daisy_ILI9341.hpp ****         }
 972:GUI/FX/../../Drivers/daisy_ILI9341.hpp ****     }
 973:GUI/FX/../../Drivers/daisy_ILI9341.hpp **** 
 974:GUI/FX/../../Drivers/daisy_ILI9341.hpp ****     /**
 975:GUI/FX/../../Drivers/daisy_ILI9341.hpp ****      * @brief Moves the 'Cursor' position used for WriteChar, and WriteStr to the specified coordin
 976:GUI/FX/../../Drivers/daisy_ILI9341.hpp ****      * 
 977:GUI/FX/../../Drivers/daisy_ILI9341.hpp ****      * 
 978:GUI/FX/../../Drivers/daisy_ILI9341.hpp ****      * @param x x pos
 979:GUI/FX/../../Drivers/daisy_ILI9341.hpp ****      * @param y y pos
 980:GUI/FX/../../Drivers/daisy_ILI9341.hpp ****      */
 981:GUI/FX/../../Drivers/daisy_ILI9341.hpp ****     void SetCursor(uint16_t x, uint16_t y)
 982:GUI/FX/../../Drivers/daisy_ILI9341.hpp ****     {
 983:GUI/FX/../../Drivers/daisy_ILI9341.hpp ****         currentX_ = (x >= width) ? width - 1 : x;
 984:GUI/FX/../../Drivers/daisy_ILI9341.hpp ****         currentY_ = (y >= height) ? height - 1 : y;
 985:GUI/FX/../../Drivers/daisy_ILI9341.hpp ****     }
 986:GUI/FX/../../Drivers/daisy_ILI9341.hpp **** 
 987:GUI/FX/../../Drivers/daisy_ILI9341.hpp ****     void Update()
 988:GUI/FX/../../Drivers/daisy_ILI9341.hpp ****     {
 989:GUI/FX/../../Drivers/daisy_ILI9341.hpp ****         Start();
 990:GUI/FX/../../Drivers/daisy_ILI9341.hpp ****         transport_.SendDataDMA();
ARM GAS  /var/folders/wz/z09yph4n0qj4t7mjxhl6ttn80000gn/T//cc3KzP2n.s 			page 24


 991:GUI/FX/../../Drivers/daisy_ILI9341.hpp ****     }
 992:GUI/FX/../../Drivers/daisy_ILI9341.hpp **** 
 993:GUI/FX/../../Drivers/daisy_ILI9341.hpp ****     bool IsRender()
 994:GUI/FX/../../Drivers/daisy_ILI9341.hpp ****     {
 995:GUI/FX/../../Drivers/daisy_ILI9341.hpp ****         if(transport_.dma_busy == false)
 996:GUI/FX/../../Drivers/daisy_ILI9341.hpp ****         {
 997:GUI/FX/../../Drivers/daisy_ILI9341.hpp ****             diff = System::GetNow() - screen_update_last_;
 998:GUI/FX/../../Drivers/daisy_ILI9341.hpp ****             if(diff > screen_update_period_)
 999:GUI/FX/../../Drivers/daisy_ILI9341.hpp ****             {
1000:GUI/FX/../../Drivers/daisy_ILI9341.hpp ****                 UpdateFrameRate();
1001:GUI/FX/../../Drivers/daisy_ILI9341.hpp ****                 screen_update_last_ = System::GetNow();
1002:GUI/FX/../../Drivers/daisy_ILI9341.hpp ****                 return true;
1003:GUI/FX/../../Drivers/daisy_ILI9341.hpp ****             }
1004:GUI/FX/../../Drivers/daisy_ILI9341.hpp ****         }
1005:GUI/FX/../../Drivers/daisy_ILI9341.hpp **** 
1006:GUI/FX/../../Drivers/daisy_ILI9341.hpp ****         return false;
1007:GUI/FX/../../Drivers/daisy_ILI9341.hpp ****     }
1008:GUI/FX/../../Drivers/daisy_ILI9341.hpp **** 
1009:GUI/FX/../../Drivers/daisy_ILI9341.hpp ****     void UpdateFrameRate()
1010:GUI/FX/../../Drivers/daisy_ILI9341.hpp ****     {
1011:GUI/FX/../../Drivers/daisy_ILI9341.hpp ****         ++frames;
1012:GUI/FX/../../Drivers/daisy_ILI9341.hpp ****         if(System::GetNow() - fps_update_last_ > 1000)
1013:GUI/FX/../../Drivers/daisy_ILI9341.hpp ****         {
1014:GUI/FX/../../Drivers/daisy_ILI9341.hpp ****             fps              = frames;
1015:GUI/FX/../../Drivers/daisy_ILI9341.hpp ****             frames           = 0;
1016:GUI/FX/../../Drivers/daisy_ILI9341.hpp ****             fps_update_last_ = System::GetNow();
1017:GUI/FX/../../Drivers/daisy_ILI9341.hpp ****         }
1018:GUI/FX/../../Drivers/daisy_ILI9341.hpp ****     }
1019:GUI/FX/../../Drivers/daisy_ILI9341.hpp **** 
1020:GUI/FX/../../Drivers/daisy_ILI9341.hpp ****     uint16_t Fps() const { return fps; }
1021:GUI/FX/../../Drivers/daisy_ILI9341.hpp **** 
1022:GUI/FX/../../Drivers/daisy_ILI9341.hpp ****     void TrimString(char*    str,
1023:GUI/FX/../../Drivers/daisy_ILI9341.hpp ****                     char*    str_trimmed,
1024:GUI/FX/../../Drivers/daisy_ILI9341.hpp ****                     uint16_t str_len,
1025:GUI/FX/../../Drivers/daisy_ILI9341.hpp ****                     uint16_t str_width,
1026:GUI/FX/../../Drivers/daisy_ILI9341.hpp ****                     FontDef  font) const
1027:GUI/FX/../../Drivers/daisy_ILI9341.hpp ****     {
1028:GUI/FX/../../Drivers/daisy_ILI9341.hpp ****         if(str_len <= str_width)
1029:GUI/FX/../../Drivers/daisy_ILI9341.hpp ****         {
1030:GUI/FX/../../Drivers/daisy_ILI9341.hpp ****             return;
1031:GUI/FX/../../Drivers/daisy_ILI9341.hpp ****         }
1032:GUI/FX/../../Drivers/daisy_ILI9341.hpp **** 
1033:GUI/FX/../../Drivers/daisy_ILI9341.hpp ****         uint16_t max_chars = str_width / font.FontWidth;
1034:GUI/FX/../../Drivers/daisy_ILI9341.hpp ****         strncpy(str_trimmed, str, max_chars);
1035:GUI/FX/../../Drivers/daisy_ILI9341.hpp ****         str_trimmed[max_chars] = '\0';
1036:GUI/FX/../../Drivers/daisy_ILI9341.hpp ****     }
1037:GUI/FX/../../Drivers/daisy_ILI9341.hpp **** 
1038:GUI/FX/../../Drivers/daisy_ILI9341.hpp ****   public:
1039:GUI/FX/../../Drivers/daisy_ILI9341.hpp ****     void Start() { transport_.SetAddressWindow(0, 0, width - 1, height - 1); }
1040:GUI/FX/../../Drivers/daisy_ILI9341.hpp **** 
1041:GUI/FX/../../Drivers/daisy_ILI9341.hpp ****     void DrawPixel(uint_fast16_t x,
  77              		.loc 2 1041 10 is_stmt 1 view -0
  78              		.cfi_startproc
  79              		@ args = 4, pretend = 0, frame = 0
  80              		@ frame_needed = 0, uses_anonymous_args = 0
1042:GUI/FX/../../Drivers/daisy_ILI9341.hpp ****                    uint_fast16_t y,
1043:GUI/FX/../../Drivers/daisy_ILI9341.hpp ****                    uint8_t       color,
ARM GAS  /var/folders/wz/z09yph4n0qj4t7mjxhl6ttn80000gn/T//cc3KzP2n.s 			page 25


1044:GUI/FX/../../Drivers/daisy_ILI9341.hpp ****                    uint8_t       alpha = 255)
1045:GUI/FX/../../Drivers/daisy_ILI9341.hpp ****     {
1046:GUI/FX/../../Drivers/daisy_ILI9341.hpp ****         if(x >= width || y >= height)
  81              		.loc 2 1046 9 view .LVU12
1041:GUI/FX/../../Drivers/daisy_ILI9341.hpp ****                    uint_fast16_t y,
  82              		.loc 2 1041 10 is_stmt 0 view .LVU13
  83 0000 F0B5     		push	{r4, r5, r6, r7, lr}
  84              		.cfi_def_cfa_offset 20
  85              		.cfi_offset 4, -20
  86              		.cfi_offset 5, -16
  87              		.cfi_offset 6, -12
  88              		.cfi_offset 7, -8
  89              		.cfi_offset 14, -4
  90              		.loc 2 1046 17 view .LVU14
  91 0002 B0F85440 		ldrh	r4, [r0, #84]
1041:GUI/FX/../../Drivers/daisy_ILI9341.hpp ****                    uint_fast16_t y,
  92              		.loc 2 1041 10 view .LVU15
  93 0006 9DF81460 		ldrb	r6, [sp, #20]	@ zero_extendqisi2
  94              		.loc 2 1046 9 view .LVU16
  95 000a 8C42     		cmp	r4, r1
  96 000c 3CD9     		bls	.L6
  97              		.loc 2 1046 31 discriminator 1 view .LVU17
  98 000e B0F85650 		ldrh	r5, [r0, #86]
  99              		.loc 2 1046 23 discriminator 1 view .LVU18
 100 0012 9542     		cmp	r5, r2
 101 0014 38D9     		bls	.L6
1047:GUI/FX/../../Drivers/daisy_ILI9341.hpp ****             return;
1048:GUI/FX/../../Drivers/daisy_ILI9341.hpp **** 
1049:GUI/FX/../../Drivers/daisy_ILI9341.hpp ****         auto id = 2 * (x + y * width);
 102              		.loc 2 1049 9 is_stmt 1 view .LVU19
 103              		.loc 2 1049 26 is_stmt 0 view .LVU20
 104 0016 02FB0411 		mla	r1, r2, r4, r1
 105              	.LVL3:
 106              	.LBB162:
 107              	.LBB163:
 108              	.LBB164:
 219:GUI/FX/../../Drivers/daisy_ILI9341.hpp ****         {
 109              		.loc 2 219 9 view .LVU21
 110 001a FF2E     		cmp	r6, #255
 111              	.LBE164:
 217:GUI/FX/../../Drivers/daisy_ILI9341.hpp **** 
 112              		.loc 2 217 14 view .LVU22
 113 001c 00EB4302 		add	r2, r0, r3, lsl #1
 114              	.LVL4:
 217:GUI/FX/../../Drivers/daisy_ILI9341.hpp **** 
 115              		.loc 2 217 14 view .LVU23
 116 0020 1A4C     		ldr	r4, .L12
 117              	.LBE163:
 118              	.LBE162:
 119              		.loc 2 1049 14 view .LVU24
 120 0022 4FEA4105 		lsl	r5, r1, #1
 121              	.LVL5:
1050:GUI/FX/../../Drivers/daisy_ILI9341.hpp **** 
1051:GUI/FX/../../Drivers/daisy_ILI9341.hpp ****         // NOTE: Probably we should check the color id before accessing the array
1052:GUI/FX/../../Drivers/daisy_ILI9341.hpp ****         transport_.PaintPixel(id, color, alpha);
 122              		.loc 2 1052 9 is_stmt 1 view .LVU25
 123              	.LBB174:
ARM GAS  /var/folders/wz/z09yph4n0qj4t7mjxhl6ttn80000gn/T//cc3KzP2n.s 			page 26


 124              	.LBI162:
 213:GUI/FX/../../Drivers/daisy_ILI9341.hpp ****     {
 125              		.loc 2 213 10 view .LVU26
 126              	.LBB173:
 217:GUI/FX/../../Drivers/daisy_ILI9341.hpp **** 
 127              		.loc 2 217 9 view .LVU27
 217:GUI/FX/../../Drivers/daisy_ILI9341.hpp **** 
 128              		.loc 2 217 14 is_stmt 0 view .LVU28
 129 0026 978B     		ldrh	r7, [r2, #28]
 130              	.LVL6:
 219:GUI/FX/../../Drivers/daisy_ILI9341.hpp ****         {
 131              		.loc 2 219 9 is_stmt 1 view .LVU29
 132              	.LBB172:
 133 0028 26D0     		beq	.L8
 134              	.LBB165:
 223:GUI/FX/../../Drivers/daisy_ILI9341.hpp ****             color         = Blend565(color, bg_color, alpha);
 135              		.loc 2 223 13 view .LVU30
 223:GUI/FX/../../Drivers/daisy_ILI9341.hpp ****             color         = Blend565(color, bg_color, alpha);
 136              		.loc 2 223 52 is_stmt 0 view .LVU31
 137 002a 14F81120 		ldrb	r2, [r4, r1, lsl #1]	@ zero_extendqisi2
 138              	.LBB166:
 139              	.LBB167:
 267:GUI/FX/../../Drivers/daisy_ILI9341.hpp ****         // "beta" for background multiplication; (6bit+1);
 140              		.loc 2 267 24 view .LVU32
 141 002e 0236     		adds	r6, r6, #2
 142              	.LVL7:
 273:GUI/FX/../../Drivers/daisy_ILI9341.hpp ****                              + beta * (uint32_t)(bg & MASK_RB))
 143              		.loc 2 273 38 view .LVU33
 144 0030 27F4FC6E 		bic	lr, r7, #2016
 276:GUI/FX/../../Drivers/daisy_ILI9341.hpp ****                               & MASK_MUL_G))
 145              		.loc 2 276 44 view .LVU34
 146 0034 07F4FC67 		and	r7, r7, #2016
 147              	.LVL8:
 267:GUI/FX/../../Drivers/daisy_ILI9341.hpp ****         // "beta" for background multiplication; (6bit+1);
 148              		.loc 2 267 29 view .LVU35
 149 0038 B610     		asrs	r6, r6, #2
 150              	.LVL9:
 267:GUI/FX/../../Drivers/daisy_ILI9341.hpp ****         // "beta" for background multiplication; (6bit+1);
 151              		.loc 2 267 29 view .LVU36
 152              	.LBE167:
 153              	.LBE166:
 223:GUI/FX/../../Drivers/daisy_ILI9341.hpp ****             color         = Blend565(color, bg_color, alpha);
 154              		.loc 2 223 18 view .LVU37
 155 003a 00EB4200 		add	r0, r0, r2, lsl #1
 156              	.LVL10:
 157              	.LBB170:
 158              	.LBB168:
 270:GUI/FX/../../Drivers/daisy_ILI9341.hpp ****         // so (0..64)*alpha + (0..64)*beta always in 0..64
 159              		.loc 2 270 17 view .LVU38
 160 003e C6F1400C 		rsb	ip, r6, #64
 161              	.LBE168:
 162              	.LBE170:
 223:GUI/FX/../../Drivers/daisy_ILI9341.hpp ****             color         = Blend565(color, bg_color, alpha);
 163              		.loc 2 223 18 view .LVU39
 164 0042 828B     		ldrh	r2, [r0, #28]
 165              	.LVL11:
 224:GUI/FX/../../Drivers/daisy_ILI9341.hpp ****         }
ARM GAS  /var/folders/wz/z09yph4n0qj4t7mjxhl6ttn80000gn/T//cc3KzP2n.s 			page 27


 166              		.loc 2 224 13 is_stmt 1 view .LVU40
 167              	.LBB171:
 168              	.LBI166:
 262:GUI/FX/../../Drivers/daisy_ILI9341.hpp ****     {
 169              		.loc 2 262 14 view .LVU41
 170              	.LBB169:
 267:GUI/FX/../../Drivers/daisy_ILI9341.hpp ****         // "beta" for background multiplication; (6bit+1);
 171              		.loc 2 267 9 view .LVU42
 270:GUI/FX/../../Drivers/daisy_ILI9341.hpp ****         // so (0..64)*alpha + (0..64)*beta always in 0..64
 172              		.loc 2 270 9 view .LVU43
 270:GUI/FX/../../Drivers/daisy_ILI9341.hpp ****         // so (0..64)*alpha + (0..64)*beta always in 0..64
 173              		.loc 2 270 17 is_stmt 0 view .LVU44
 174 0044 5FFA8CFC 		uxtb	ip, ip
 175              	.LVL12:
 273:GUI/FX/../../Drivers/daisy_ILI9341.hpp ****                              + beta * (uint32_t)(bg & MASK_RB))
 176              		.loc 2 273 9 is_stmt 1 view .LVU45
 274:GUI/FX/../../Drivers/daisy_ILI9341.hpp ****                             & MASK_MUL_RB)
 177              		.loc 2 274 39 is_stmt 0 view .LVU46
 178 0048 22F4FC60 		bic	r0, r2, #2016
 276:GUI/FX/../../Drivers/daisy_ILI9341.hpp ****                               & MASK_MUL_G))
 179              		.loc 2 276 67 view .LVU47
 180 004c 02F4FC62 		and	r2, r2, #2016
 181              	.LVL13:
 274:GUI/FX/../../Drivers/daisy_ILI9341.hpp ****                             & MASK_MUL_RB)
 182              		.loc 2 274 37 view .LVU48
 183 0050 0CFB00F0 		mul	r0, ip, r0
 276:GUI/FX/../../Drivers/daisy_ILI9341.hpp ****                               & MASK_MUL_G))
 184              		.loc 2 276 61 view .LVU49
 185 0054 0CFB02F2 		mul	r2, ip, r2
 274:GUI/FX/../../Drivers/daisy_ILI9341.hpp ****                             & MASK_MUL_RB)
 186              		.loc 2 274 30 view .LVU50
 187 0058 06FB0E00 		mla	r0, r6, lr, r0
 276:GUI/FX/../../Drivers/daisy_ILI9341.hpp ****                               & MASK_MUL_G))
 188              		.loc 2 276 54 view .LVU51
 189 005c 06FB0722 		mla	r2, r6, r7, r2
 275:GUI/FX/../../Drivers/daisy_ILI9341.hpp ****                            | ((alpha * (fg & MASK_G) + beta * (bg & MASK_G))
 190              		.loc 2 275 29 view .LVU52
 191 0060 20F07F40 		bic	r0, r0, #-16777216
 277:GUI/FX/../../Drivers/daisy_ILI9341.hpp ****                           >> 6);
 192              		.loc 2 277 31 view .LVU53
 193 0064 02F4FC32 		and	r2, r2, #129024
 275:GUI/FX/../../Drivers/daisy_ILI9341.hpp ****                            | ((alpha * (fg & MASK_G) + beta * (bg & MASK_G))
 194              		.loc 2 275 29 view .LVU54
 195 0068 20F44100 		bic	r0, r0, #12648448
 196 006c 20F47840 		bic	r0, r0, #63488
 197 0070 20F03F00 		bic	r0, r0, #63
 276:GUI/FX/../../Drivers/daisy_ILI9341.hpp ****                               & MASK_MUL_G))
 198              		.loc 2 276 28 view .LVU55
 199 0074 0243     		orrs	r2, r2, r0
 278:GUI/FX/../../Drivers/daisy_ILI9341.hpp ****     }
 200              		.loc 2 278 31 view .LVU56
 201 0076 9709     		lsrs	r7, r2, #6
 202              	.LVL14:
 203              	.L8:
 278:GUI/FX/../../Drivers/daisy_ILI9341.hpp ****     }
 204              		.loc 2 278 31 view .LVU57
 205              	.LBE169:
ARM GAS  /var/folders/wz/z09yph4n0qj4t7mjxhl6ttn80000gn/T//cc3KzP2n.s 			page 28


 206              	.LBE171:
 207              	.LBE165:
 208              	.LBE172:
 227:GUI/FX/../../Drivers/daisy_ILI9341.hpp **** 
 209              		.loc 2 227 9 is_stmt 1 view .LVU58
 229:GUI/FX/../../Drivers/daisy_ILI9341.hpp ****         frame_buffer[id + 1] = color & 0xFF;
 210              		.loc 2 229 38 is_stmt 0 view .LVU59
 211 0078 3A0A     		lsrs	r2, r7, #8
 227:GUI/FX/../../Drivers/daisy_ILI9341.hpp **** 
 212              		.loc 2 227 23 view .LVU60
 213 007a 04F81130 		strb	r3, [r4, r1, lsl #1]
 229:GUI/FX/../../Drivers/daisy_ILI9341.hpp ****         frame_buffer[id + 1] = color & 0xFF;
 214              		.loc 2 229 9 is_stmt 1 view .LVU61
 229:GUI/FX/../../Drivers/daisy_ILI9341.hpp ****         frame_buffer[id + 1] = color & 0xFF;
 215              		.loc 2 229 30 is_stmt 0 view .LVU62
 216 007e 044B     		ldr	r3, .L12+4
 217              	.LVL15:
 229:GUI/FX/../../Drivers/daisy_ILI9341.hpp ****         frame_buffer[id + 1] = color & 0xFF;
 218              		.loc 2 229 30 view .LVU63
 219 0080 03F81120 		strb	r2, [r3, r1, lsl #1]
 230:GUI/FX/../../Drivers/daisy_ILI9341.hpp ****     }
 220              		.loc 2 230 9 is_stmt 1 view .LVU64
 230:GUI/FX/../../Drivers/daisy_ILI9341.hpp ****     }
 221              		.loc 2 230 30 is_stmt 0 view .LVU65
 222 0084 2B44     		add	r3, r3, r5
 223 0086 5F70     		strb	r7, [r3, #1]
 224              	.LVL16:
 225              	.L6:
 230:GUI/FX/../../Drivers/daisy_ILI9341.hpp ****     }
 226              		.loc 2 230 30 view .LVU66
 227              	.LBE173:
 228              	.LBE174:
1053:GUI/FX/../../Drivers/daisy_ILI9341.hpp **** 
1054:GUI/FX/../../Drivers/daisy_ILI9341.hpp ****         // Lets divide the whole screen in 10 sectors, 32 pixel high each
1055:GUI/FX/../../Drivers/daisy_ILI9341.hpp ****         //uint8_t screen_sector     = y / 32;
1056:GUI/FX/../../Drivers/daisy_ILI9341.hpp ****         // dirty_buff[screen_sector] = 1;
1057:GUI/FX/../../Drivers/daisy_ILI9341.hpp ****     }
 229              		.loc 2 1057 5 view .LVU67
 230 0088 F0BD     		pop	{r4, r5, r6, r7, pc}
 231              	.LVL17:
 232              	.L13:
 233              		.loc 2 1057 5 view .LVU68
 234 008a 00BF     		.align	2
 235              	.L12:
 236 008c 00000000 		.word	_ZN19ILI9341SpiTransport9color_memE
 237 0090 00000000 		.word	_ZN19ILI9341SpiTransport12frame_bufferE
 238              		.cfi_endproc
 239              	.LFE5097:
 241              		.section	.text._ZN8UiDriver8FillRectERKN5daisy9RectangleEhh,"axG",%progbits,_ZN8UiDriver8FillRectE
 242              		.align	1
 243              		.weak	_ZN8UiDriver8FillRectERKN5daisy9RectangleEhh
 244              		.syntax unified
 245              		.thumb
 246              		.thumb_func
 248              	_ZN8UiDriver8FillRectERKN5daisy9RectangleEhh:
 249              	.LVL18:
 250              	.LFB5077:
ARM GAS  /var/folders/wz/z09yph4n0qj4t7mjxhl6ttn80000gn/T//cc3KzP2n.s 			page 29


 678:GUI/FX/../../Drivers/daisy_ILI9341.hpp ****     {
 251              		.loc 2 678 10 is_stmt 1 view -0
 252              		.cfi_startproc
 253              		@ args = 0, pretend = 0, frame = 8
 254              		@ frame_needed = 0, uses_anonymous_args = 0
 680:GUI/FX/../../Drivers/daisy_ILI9341.hpp ****                  rect.GetY(),
 255              		.loc 2 680 9 view .LVU70
 256              	.LBB187:
 257              	.LBI187:
 258              		.file 3 "../../../libDaisy//src/hid/disp/graphics_common.h"
   1:../../../libDaisy//src/hid/disp/graphics_common.h **** #pragma once
   2:../../../libDaisy//src/hid/disp/graphics_common.h **** 
   3:../../../libDaisy//src/hid/disp/graphics_common.h **** #include <cstdint>
   4:../../../libDaisy//src/hid/disp/graphics_common.h **** 
   5:../../../libDaisy//src/hid/disp/graphics_common.h **** namespace daisy
   6:../../../libDaisy//src/hid/disp/graphics_common.h **** {
   7:../../../libDaisy//src/hid/disp/graphics_common.h **** /** Justifications */
   8:../../../libDaisy//src/hid/disp/graphics_common.h **** enum class Alignment
   9:../../../libDaisy//src/hid/disp/graphics_common.h **** {
  10:../../../libDaisy//src/hid/disp/graphics_common.h ****     centered,
  11:../../../libDaisy//src/hid/disp/graphics_common.h ****     topLeft,
  12:../../../libDaisy//src/hid/disp/graphics_common.h ****     topCentered,
  13:../../../libDaisy//src/hid/disp/graphics_common.h ****     topRight,
  14:../../../libDaisy//src/hid/disp/graphics_common.h ****     bottomLeft,
  15:../../../libDaisy//src/hid/disp/graphics_common.h ****     bottomCentered,
  16:../../../libDaisy//src/hid/disp/graphics_common.h ****     bottomRight,
  17:../../../libDaisy//src/hid/disp/graphics_common.h ****     centeredLeft,
  18:../../../libDaisy//src/hid/disp/graphics_common.h ****     centeredRight
  19:../../../libDaisy//src/hid/disp/graphics_common.h **** };
  20:../../../libDaisy//src/hid/disp/graphics_common.h **** 
  21:../../../libDaisy//src/hid/disp/graphics_common.h **** class Rectangle
  22:../../../libDaisy//src/hid/disp/graphics_common.h **** {
  23:../../../libDaisy//src/hid/disp/graphics_common.h ****   public:
  24:../../../libDaisy//src/hid/disp/graphics_common.h ****     Rectangle() : x_(0), y_(0), width_(0), height_(0) {}
  25:../../../libDaisy//src/hid/disp/graphics_common.h **** 
  26:../../../libDaisy//src/hid/disp/graphics_common.h ****     Rectangle(int16_t width, int16_t height)
  27:../../../libDaisy//src/hid/disp/graphics_common.h ****     : x_(0), y_(0), width_(max(0, width)), height_(max(0, height))
  28:../../../libDaisy//src/hid/disp/graphics_common.h ****     {
  29:../../../libDaisy//src/hid/disp/graphics_common.h ****     }
  30:../../../libDaisy//src/hid/disp/graphics_common.h **** 
  31:../../../libDaisy//src/hid/disp/graphics_common.h ****     Rectangle(int16_t x, int16_t y, int16_t width, int16_t height)
  32:../../../libDaisy//src/hid/disp/graphics_common.h ****     : x_(x), y_(y), width_(max(0, width)), height_(max(0, height))
  33:../../../libDaisy//src/hid/disp/graphics_common.h ****     {
  34:../../../libDaisy//src/hid/disp/graphics_common.h ****     }
  35:../../../libDaisy//src/hid/disp/graphics_common.h **** 
  36:../../../libDaisy//src/hid/disp/graphics_common.h ****     Rectangle(const Rectangle& other) { *this = other; }
  37:../../../libDaisy//src/hid/disp/graphics_common.h **** 
  38:../../../libDaisy//src/hid/disp/graphics_common.h ****     Rectangle& operator=(const Rectangle& other)
  39:../../../libDaisy//src/hid/disp/graphics_common.h ****     {
  40:../../../libDaisy//src/hid/disp/graphics_common.h ****         x_      = other.x_;
  41:../../../libDaisy//src/hid/disp/graphics_common.h ****         y_      = other.y_;
  42:../../../libDaisy//src/hid/disp/graphics_common.h ****         width_  = other.width_;
  43:../../../libDaisy//src/hid/disp/graphics_common.h ****         height_ = other.height_;
  44:../../../libDaisy//src/hid/disp/graphics_common.h ****         return *this;
  45:../../../libDaisy//src/hid/disp/graphics_common.h ****     }
  46:../../../libDaisy//src/hid/disp/graphics_common.h **** 
  47:../../../libDaisy//src/hid/disp/graphics_common.h ****     bool operator==(const Rectangle& other) const
ARM GAS  /var/folders/wz/z09yph4n0qj4t7mjxhl6ttn80000gn/T//cc3KzP2n.s 			page 30


  48:../../../libDaisy//src/hid/disp/graphics_common.h ****     {
  49:../../../libDaisy//src/hid/disp/graphics_common.h ****         return (x_ == other.x_) && (y_ == other.y_) && (width_ == other.width_)
  50:../../../libDaisy//src/hid/disp/graphics_common.h ****                && (height_ == other.height_);
  51:../../../libDaisy//src/hid/disp/graphics_common.h ****     }
  52:../../../libDaisy//src/hid/disp/graphics_common.h ****     bool operator!=(const Rectangle& other) const { return !(*this == other); }
  53:../../../libDaisy//src/hid/disp/graphics_common.h **** 
  54:../../../libDaisy//src/hid/disp/graphics_common.h ****     bool IsEmpty() const { return (width_ <= 0) || (height_ <= 0); }
  55:../../../libDaisy//src/hid/disp/graphics_common.h **** 
  56:../../../libDaisy//src/hid/disp/graphics_common.h ****     int16_t GetX() const { return x_; }
 259              		.loc 3 56 13 view .LVU71
 260              	.LBB188:
 261              		.loc 3 56 28 view .LVU72
 262              		.loc 3 56 28 is_stmt 0 view .LVU73
 263              	.LBE188:
 264              	.LBE187:
 678:GUI/FX/../../Drivers/daisy_ILI9341.hpp ****     {
 265              		.loc 2 678 10 view .LVU74
 266 0000 2DE9F04F 		push	{r4, r5, r6, r7, r8, r9, r10, fp, lr}
 267              		.cfi_def_cfa_offset 36
 268              		.cfi_offset 4, -36
 269              		.cfi_offset 5, -32
 270              		.cfi_offset 6, -28
 271              		.cfi_offset 7, -24
 272              		.cfi_offset 8, -20
 273              		.cfi_offset 9, -16
 274              		.cfi_offset 10, -12
 275              		.cfi_offset 11, -8
 276              		.cfi_offset 14, -4
 277 0004 1646     		mov	r6, r2
 278 0006 85B0     		sub	sp, sp, #20
 279              		.cfi_def_cfa_offset 56
 678:GUI/FX/../../Drivers/daisy_ILI9341.hpp ****     {
 280              		.loc 2 678 10 view .LVU75
 281 0008 1F46     		mov	r7, r3
 680:GUI/FX/../../Drivers/daisy_ILI9341.hpp ****                  rect.GetY(),
 282              		.loc 2 680 17 view .LVU76
 283 000a B1F90080 		ldrsh	r8, [r1]
 284              	.LVL19:
 285              	.LBB189:
 286              	.LBI189:
  57:../../../libDaisy//src/hid/disp/graphics_common.h ****     int16_t GetY() const { return y_; }
 287              		.loc 3 57 13 is_stmt 1 view .LVU77
 288              	.LBB190:
 289              		.loc 3 57 28 view .LVU78
 290              		.loc 3 57 28 is_stmt 0 view .LVU79
 291              	.LBE190:
 292              	.LBE189:
 680:GUI/FX/../../Drivers/daisy_ILI9341.hpp ****                  rect.GetY(),
 293              		.loc 2 680 17 view .LVU80
 294 000e B1F90290 		ldrsh	r9, [r1, #2]
 295              	.LVL20:
 296              	.LBB191:
 297              	.LBI191:
  58:../../../libDaisy//src/hid/disp/graphics_common.h ****     int16_t GetWidth() const { return width_; }
 298              		.loc 3 58 13 is_stmt 1 view .LVU81
 299              	.LBB192:
 300              		.loc 3 58 32 view .LVU82
ARM GAS  /var/folders/wz/z09yph4n0qj4t7mjxhl6ttn80000gn/T//cc3KzP2n.s 			page 31


 301              		.loc 3 58 32 is_stmt 0 view .LVU83
 302              	.LBE192:
 303              	.LBE191:
 304              	.LBB193:
 305              	.LBB194:
 644:GUI/FX/../../Drivers/daisy_ILI9341.hpp ****         {
 306              		.loc 2 644 20 view .LVU84
 307 0012 0024     		movs	r4, #0
 308              	.LBE194:
 309              	.LBE193:
 680:GUI/FX/../../Drivers/daisy_ILI9341.hpp ****                  rect.GetY(),
 310              		.loc 2 680 17 view .LVU85
 311 0014 B1F904A0 		ldrsh	r10, [r1, #4]
 312              	.LVL21:
 313              	.LBB197:
 314              	.LBI197:
  59:../../../libDaisy//src/hid/disp/graphics_common.h ****     int16_t GetHeight() const { return height_; }
 315              		.loc 3 59 13 is_stmt 1 view .LVU86
 316              	.LBB198:
 317              		.loc 3 59 33 view .LVU87
 318              		.loc 3 59 33 is_stmt 0 view .LVU88
 319              	.LBE198:
 320              	.LBE197:
 680:GUI/FX/../../Drivers/daisy_ILI9341.hpp ****                  rect.GetY(),
 321              		.loc 2 680 17 view .LVU89
 322 0018 B1F906B0 		ldrsh	fp, [r1, #6]
 323              	.LVL22:
 324              	.LBB199:
 325              	.LBI193:
 636:GUI/FX/../../Drivers/daisy_ILI9341.hpp ****                   uint_fast16_t y,
 326              		.loc 2 636 10 is_stmt 1 view .LVU90
 327              	.LBE199:
 644:GUI/FX/../../Drivers/daisy_ILI9341.hpp ****         {
 328              		.loc 2 644 9 view .LVU91
 329              	.L18:
 330              	.LBB200:
 331              	.LBB196:
 644:GUI/FX/../../Drivers/daisy_ILI9341.hpp ****         {
 332              		.loc 2 644 29 view .LVU92
 333 001c A345     		cmp	fp, r4
 334 001e 10D9     		bls	.L14
 335              	.LBB195:
 646:GUI/FX/../../Drivers/daisy_ILI9341.hpp ****             {
 336              		.loc 2 646 24 is_stmt 0 view .LVU93
 337 0020 0025     		movs	r5, #0
 338              	.L17:
 339              	.LVL23:
 646:GUI/FX/../../Drivers/daisy_ILI9341.hpp ****             {
 340              		.loc 2 646 33 is_stmt 1 view .LVU94
 341 0022 AA45     		cmp	r10, r5
 342 0024 0BD9     		bls	.L16
 648:GUI/FX/../../Drivers/daisy_ILI9341.hpp ****             }
 343              		.loc 2 648 17 view .LVU95
 648:GUI/FX/../../Drivers/daisy_ILI9341.hpp ****             }
 344              		.loc 2 648 26 is_stmt 0 view .LVU96
 345 0026 08EB0501 		add	r1, r8, r5
 346 002a 3346     		mov	r3, r6
ARM GAS  /var/folders/wz/z09yph4n0qj4t7mjxhl6ttn80000gn/T//cc3KzP2n.s 			page 32


 347 002c 09EB0402 		add	r2, r9, r4
 348 0030 0097     		str	r7, [sp]
 349 0032 0390     		str	r0, [sp, #12]
 646:GUI/FX/../../Drivers/daisy_ILI9341.hpp ****             {
 350              		.loc 2 646 13 view .LVU97
 351 0034 0135     		adds	r5, r5, #1
 352              	.LVL24:
 648:GUI/FX/../../Drivers/daisy_ILI9341.hpp ****             }
 353              		.loc 2 648 26 view .LVU98
 354 0036 FFF7FEFF 		bl	_ZN8UiDriver9DrawPixelEjjhh
 355              	.LVL25:
 646:GUI/FX/../../Drivers/daisy_ILI9341.hpp ****             {
 356              		.loc 2 646 13 is_stmt 1 view .LVU99
 646:GUI/FX/../../Drivers/daisy_ILI9341.hpp ****             {
 357              		.loc 2 646 13 is_stmt 0 view .LVU100
 358 003a 0398     		ldr	r0, [sp, #12]
 359 003c F1E7     		b	.L17
 360              	.L16:
 646:GUI/FX/../../Drivers/daisy_ILI9341.hpp ****             {
 361              		.loc 2 646 13 view .LVU101
 362              	.LBE195:
 644:GUI/FX/../../Drivers/daisy_ILI9341.hpp ****         {
 363              		.loc 2 644 9 is_stmt 1 view .LVU102
 364 003e 0134     		adds	r4, r4, #1
 365              	.LVL26:
 644:GUI/FX/../../Drivers/daisy_ILI9341.hpp ****         {
 366              		.loc 2 644 9 is_stmt 0 view .LVU103
 367 0040 ECE7     		b	.L18
 368              	.LVL27:
 369              	.L14:
 644:GUI/FX/../../Drivers/daisy_ILI9341.hpp ****         {
 370              		.loc 2 644 9 view .LVU104
 371              	.LBE196:
 372              	.LBE200:
 686:GUI/FX/../../Drivers/daisy_ILI9341.hpp **** 
 373              		.loc 2 686 5 view .LVU105
 374 0042 05B0     		add	sp, sp, #20
 375              		.cfi_def_cfa_offset 36
 376              		@ sp needed
 377 0044 BDE8F08F 		pop	{r4, r5, r6, r7, r8, r9, r10, fp, pc}
 686:GUI/FX/../../Drivers/daisy_ILI9341.hpp **** 
 378              		.loc 2 686 5 view .LVU106
 379              		.cfi_endproc
 380              	.LFE5077:
 382              		.section	.text._ZN8UiDriver8DrawLineEjjjjhh,"axG",%progbits,_ZN8UiDriver8DrawLineEjjjjhh,comdat
 383              		.align	1
 384              		.weak	_ZN8UiDriver8DrawLineEjjjjhh
 385              		.syntax unified
 386              		.thumb
 387              		.thumb_func
 389              	_ZN8UiDriver8DrawLineEjjjjhh:
 390              	.LVL28:
 391              	.LFB5073:
 594:GUI/FX/../../Drivers/daisy_ILI9341.hpp ****                   uint_fast16_t y1,
 392              		.loc 2 594 10 is_stmt 1 view -0
 393              		.cfi_startproc
 394              		@ args = 12, pretend = 0, frame = 16
ARM GAS  /var/folders/wz/z09yph4n0qj4t7mjxhl6ttn80000gn/T//cc3KzP2n.s 			page 33


 395              		@ frame_needed = 0, uses_anonymous_args = 0
 594:GUI/FX/../../Drivers/daisy_ILI9341.hpp ****                   uint_fast16_t y1,
 396              		.loc 2 594 10 is_stmt 0 view .LVU108
 397 0000 2DE9F04F 		push	{r4, r5, r6, r7, r8, r9, r10, fp, lr}
 398              		.cfi_def_cfa_offset 36
 399              		.cfi_offset 4, -36
 400              		.cfi_offset 5, -32
 401              		.cfi_offset 6, -28
 402              		.cfi_offset 7, -24
 403              		.cfi_offset 8, -20
 404              		.cfi_offset 9, -16
 405              		.cfi_offset 10, -12
 406              		.cfi_offset 11, -8
 407              		.cfi_offset 14, -4
 408 0004 1E46     		mov	r6, r3
 409 0006 87B0     		sub	sp, sp, #28
 410              		.cfi_def_cfa_offset 64
 601:GUI/FX/../../Drivers/daisy_ILI9341.hpp ****         {
 411              		.loc 2 601 9 is_stmt 1 view .LVU109
 594:GUI/FX/../../Drivers/daisy_ILI9341.hpp ****                   uint_fast16_t y1,
 412              		.loc 2 594 10 is_stmt 0 view .LVU110
 413 0008 8146     		mov	r9, r0
 414 000a 0D46     		mov	r5, r1
 601:GUI/FX/../../Drivers/daisy_ILI9341.hpp ****         {
 415              		.loc 2 601 9 view .LVU111
 416 000c B142     		cmp	r1, r6
 594:GUI/FX/../../Drivers/daisy_ILI9341.hpp ****                   uint_fast16_t y1,
 417              		.loc 2 594 10 view .LVU112
 418 000e 1446     		mov	r4, r2
 419 0010 DDF840B0 		ldr	fp, [sp, #64]
 420 0014 9DF84430 		ldrb	r3, [sp, #68]	@ zero_extendqisi2
 421              	.LVL29:
 594:GUI/FX/../../Drivers/daisy_ILI9341.hpp ****                   uint_fast16_t y1,
 422              		.loc 2 594 10 view .LVU113
 423 0018 9DF848A0 		ldrb	r10, [sp, #72]	@ zero_extendqisi2
 601:GUI/FX/../../Drivers/daisy_ILI9341.hpp ****         {
 424              		.loc 2 601 9 view .LVU114
 425 001c 15D1     		bne	.L20
 603:GUI/FX/../../Drivers/daisy_ILI9341.hpp ****         }
 426              		.loc 2 603 13 is_stmt 1 view .LVU115
 603:GUI/FX/../../Drivers/daisy_ILI9341.hpp ****         }
 427              		.loc 2 603 29 is_stmt 0 view .LVU116
 428 001e 17B2     		sxth	r7, r2
 603:GUI/FX/../../Drivers/daisy_ILI9341.hpp ****         }
 429              		.loc 2 603 46 view .LVU117
 430 0020 0BF10102 		add	r2, fp, #1
 431              	.LVL30:
 603:GUI/FX/../../Drivers/daisy_ILI9341.hpp ****         }
 432              		.loc 2 603 29 view .LVU118
 433 0024 0DB2     		sxth	r5, r1
 603:GUI/FX/../../Drivers/daisy_ILI9341.hpp ****         }
 434              		.loc 2 603 46 view .LVU119
 435 0026 141B     		subs	r4, r2, r4
 436              	.LVL31:
 437              	.LBB211:
 438              	.LBB212:
1058:GUI/FX/../../Drivers/daisy_ILI9341.hpp **** 
ARM GAS  /var/folders/wz/z09yph4n0qj4t7mjxhl6ttn80000gn/T//cc3KzP2n.s 			page 34


1059:GUI/FX/../../Drivers/daisy_ILI9341.hpp ****     void DrawVLine(int16_t x,
1060:GUI/FX/../../Drivers/daisy_ILI9341.hpp ****                    int16_t y,
1061:GUI/FX/../../Drivers/daisy_ILI9341.hpp ****                    int16_t h,
1062:GUI/FX/../../Drivers/daisy_ILI9341.hpp ****                    uint8_t color,
1063:GUI/FX/../../Drivers/daisy_ILI9341.hpp ****                    uint8_t alpha = 255)
1064:GUI/FX/../../Drivers/daisy_ILI9341.hpp ****     {
1065:GUI/FX/../../Drivers/daisy_ILI9341.hpp ****         for(int16_t i = y; i < y + h; i++)
 439              		.loc 2 1065 21 view .LVU120
 440 0028 3E46     		mov	r6, r7
 441              	.LVL32:
 442              		.loc 2 1065 21 view .LVU121
 443              	.LBE212:
 444              	.LBE211:
 603:GUI/FX/../../Drivers/daisy_ILI9341.hpp ****         }
 445              		.loc 2 603 29 view .LVU122
 446 002a 24B2     		sxth	r4, r4
 447              	.LVL33:
 448              	.LBB214:
 449              	.LBI211:
1059:GUI/FX/../../Drivers/daisy_ILI9341.hpp ****                    int16_t y,
 450              		.loc 2 1059 10 is_stmt 1 view .LVU123
 451              	.LBE214:
 452              		.loc 2 1065 9 view .LVU124
 453              	.L22:
 454              	.LBB215:
 455              	.LBB213:
 456              		.loc 2 1065 30 view .LVU125
 457              		.loc 2 1065 34 is_stmt 0 view .LVU126
 458 002c 3A19     		adds	r2, r7, r4
 459              		.loc 2 1065 30 view .LVU127
 460 002e 9642     		cmp	r6, r2
 461 0030 64DA     		bge	.L19
1066:GUI/FX/../../Drivers/daisy_ILI9341.hpp ****         {
1067:GUI/FX/../../Drivers/daisy_ILI9341.hpp ****             DrawPixel(x, i, color, alpha);
 462              		.loc 2 1067 13 is_stmt 1 view .LVU128
 463              		.loc 2 1067 22 is_stmt 0 view .LVU129
 464 0032 3246     		mov	r2, r6
 465 0034 0136     		adds	r6, r6, #1
 466              	.LVL34:
 467              		.loc 2 1067 22 view .LVU130
 468 0036 2946     		mov	r1, r5
 469 0038 4846     		mov	r0, r9
 470 003a CDF800A0 		str	r10, [sp]
 471 003e 36B2     		sxth	r6, r6
 472 0040 0293     		str	r3, [sp, #8]
 473 0042 FFF7FEFF 		bl	_ZN8UiDriver9DrawPixelEjjhh
 474              	.LVL35:
1065:GUI/FX/../../Drivers/daisy_ILI9341.hpp ****         {
 475              		.loc 2 1065 9 is_stmt 1 view .LVU131
1065:GUI/FX/../../Drivers/daisy_ILI9341.hpp ****         {
 476              		.loc 2 1065 9 is_stmt 0 view .LVU132
 477 0046 029B     		ldr	r3, [sp, #8]
 478 0048 F0E7     		b	.L22
 479              	.LVL36:
 480              	.L20:
1065:GUI/FX/../../Drivers/daisy_ILI9341.hpp ****         {
 481              		.loc 2 1065 9 view .LVU133
ARM GAS  /var/folders/wz/z09yph4n0qj4t7mjxhl6ttn80000gn/T//cc3KzP2n.s 			page 35


 482              	.LBE213:
 483              	.LBE215:
 605:GUI/FX/../../Drivers/daisy_ILI9341.hpp ****         {
 484              		.loc 2 605 14 is_stmt 1 view .LVU134
 485 004a 5A45     		cmp	r2, fp
 486 004c 16D1     		bne	.L23
 487              	.LVL37:
 488              	.LBB216:
 489              	.LBI216:
 594:GUI/FX/../../Drivers/daisy_ILI9341.hpp ****                   uint_fast16_t y1,
 490              		.loc 2 594 10 view .LVU135
 491              	.LBB217:
 607:GUI/FX/../../Drivers/daisy_ILI9341.hpp ****         }
 492              		.loc 2 607 13 view .LVU136
 607:GUI/FX/../../Drivers/daisy_ILI9341.hpp ****         }
 493              		.loc 2 607 46 is_stmt 0 view .LVU137
 494 004e 0136     		adds	r6, r6, #1
 495              	.LVL38:
 607:GUI/FX/../../Drivers/daisy_ILI9341.hpp ****         }
 496              		.loc 2 607 29 view .LVU138
 497 0050 0FFA81F8 		sxth	r8, r1
 498 0054 14B2     		sxth	r4, r2
 607:GUI/FX/../../Drivers/daisy_ILI9341.hpp ****         }
 499              		.loc 2 607 46 view .LVU139
 500 0056 751A     		subs	r5, r6, r1
 501              	.LBB218:
 502              	.LBB219:
1068:GUI/FX/../../Drivers/daisy_ILI9341.hpp ****         }
1069:GUI/FX/../../Drivers/daisy_ILI9341.hpp ****     }
1070:GUI/FX/../../Drivers/daisy_ILI9341.hpp **** 
1071:GUI/FX/../../Drivers/daisy_ILI9341.hpp ****     void DrawHLine(int16_t x,
1072:GUI/FX/../../Drivers/daisy_ILI9341.hpp ****                    int16_t y,
1073:GUI/FX/../../Drivers/daisy_ILI9341.hpp ****                    int16_t w,
1074:GUI/FX/../../Drivers/daisy_ILI9341.hpp ****                    uint8_t color,
1075:GUI/FX/../../Drivers/daisy_ILI9341.hpp ****                    uint8_t alpha = 255)
1076:GUI/FX/../../Drivers/daisy_ILI9341.hpp ****     {
1077:GUI/FX/../../Drivers/daisy_ILI9341.hpp ****         for(int16_t i = x; i < x + w; i++)
 503              		.loc 2 1077 21 view .LVU140
 504 0058 4746     		mov	r7, r8
 505              	.LBE219:
 506              	.LBE218:
 607:GUI/FX/../../Drivers/daisy_ILI9341.hpp ****         }
 507              		.loc 2 607 29 view .LVU141
 508 005a 2DB2     		sxth	r5, r5
 509              	.LVL39:
 510              	.LBB221:
 511              	.LBI218:
1071:GUI/FX/../../Drivers/daisy_ILI9341.hpp ****                    int16_t y,
 512              		.loc 2 1071 10 is_stmt 1 view .LVU142
 513              	.LBE221:
 514              	.LBE217:
 515              	.LBE216:
 516              		.loc 2 1077 9 view .LVU143
 517              	.L24:
 518              	.LBB224:
 519              	.LBB223:
 520              	.LBB222:
ARM GAS  /var/folders/wz/z09yph4n0qj4t7mjxhl6ttn80000gn/T//cc3KzP2n.s 			page 36


 521              	.LBB220:
 522              		.loc 2 1077 30 view .LVU144
 523              		.loc 2 1077 34 is_stmt 0 view .LVU145
 524 005c 08EB0502 		add	r2, r8, r5
 525              		.loc 2 1077 30 view .LVU146
 526 0060 9742     		cmp	r7, r2
 527 0062 4BDA     		bge	.L19
1078:GUI/FX/../../Drivers/daisy_ILI9341.hpp ****         {
1079:GUI/FX/../../Drivers/daisy_ILI9341.hpp ****             DrawPixel(i, y, color, alpha);
 528              		.loc 2 1079 13 is_stmt 1 view .LVU147
 529              		.loc 2 1079 22 is_stmt 0 view .LVU148
 530 0064 3946     		mov	r1, r7
 531 0066 0137     		adds	r7, r7, #1
 532              	.LVL40:
 533              		.loc 2 1079 22 view .LVU149
 534 0068 2246     		mov	r2, r4
 535 006a 4846     		mov	r0, r9
 536 006c CDF800A0 		str	r10, [sp]
 537 0070 3FB2     		sxth	r7, r7
 538 0072 0293     		str	r3, [sp, #8]
 539 0074 FFF7FEFF 		bl	_ZN8UiDriver9DrawPixelEjjhh
 540              	.LVL41:
1077:GUI/FX/../../Drivers/daisy_ILI9341.hpp ****         {
 541              		.loc 2 1077 9 is_stmt 1 view .LVU150
1077:GUI/FX/../../Drivers/daisy_ILI9341.hpp ****         {
 542              		.loc 2 1077 9 is_stmt 0 view .LVU151
 543 0078 029B     		ldr	r3, [sp, #8]
 544 007a EFE7     		b	.L24
 545              	.LVL42:
 546              	.L23:
1077:GUI/FX/../../Drivers/daisy_ILI9341.hpp ****         {
 547              		.loc 2 1077 9 view .LVU152
 548              	.LBE220:
 549              	.LBE222:
 550              	.LBE223:
 551              	.LBE224:
 610:GUI/FX/../../Drivers/daisy_ILI9341.hpp ****         auto deltaY = abs((int_fast16_t)y2 - (int_fast16_t)y1);
 552              		.loc 2 610 9 is_stmt 1 view .LVU153
 610:GUI/FX/../../Drivers/daisy_ILI9341.hpp ****         auto deltaY = abs((int_fast16_t)y2 - (int_fast16_t)y1);
 553              		.loc 2 610 44 is_stmt 0 view .LVU154
 554 007c 721A     		subs	r2, r6, r1
 555              	.LVL43:
 611:GUI/FX/../../Drivers/daisy_ILI9341.hpp ****         auto signX  = ((x1 < x2) ? 1 : -1);
 556              		.loc 2 611 44 view .LVU155
 557 007e ABEB0408 		sub	r8, fp, r4
 616:GUI/FX/../../Drivers/daisy_ILI9341.hpp **** 
 558              		.loc 2 616 18 view .LVU156
 559 0082 CDF800A0 		str	r10, [sp]
 611:GUI/FX/../../Drivers/daisy_ILI9341.hpp ****         auto signX  = ((x1 < x2) ? 1 : -1);
 560              		.loc 2 611 14 view .LVU157
 561 0086 B8F1000F 		cmp	r8, #0
 610:GUI/FX/../../Drivers/daisy_ILI9341.hpp ****         auto deltaY = abs((int_fast16_t)y2 - (int_fast16_t)y1);
 562              		.loc 2 610 14 view .LVU158
 563 008a 82EAE271 		eor	r1, r2, r2, asr #31
 564              	.LVL44:
 616:GUI/FX/../../Drivers/daisy_ILI9341.hpp **** 
 565              		.loc 2 616 18 view .LVU159
ARM GAS  /var/folders/wz/z09yph4n0qj4t7mjxhl6ttn80000gn/T//cc3KzP2n.s 			page 37


 566 008e 0593     		str	r3, [sp, #20]
 610:GUI/FX/../../Drivers/daisy_ILI9341.hpp ****         auto deltaY = abs((int_fast16_t)y2 - (int_fast16_t)y1);
 567              		.loc 2 610 14 view .LVU160
 568 0090 A1EBE271 		sub	r1, r1, r2, asr #31
 611:GUI/FX/../../Drivers/daisy_ILI9341.hpp ****         auto signX  = ((x1 < x2) ? 1 : -1);
 569              		.loc 2 611 14 view .LVU161
 570 0094 B8BF     		it	lt
 571 0096 C8F10008 		rsblt	r8, r8, #0
 612:GUI/FX/../../Drivers/daisy_ILI9341.hpp ****         auto signY  = ((y1 < y2) ? 1 : -1);
 572              		.loc 2 612 34 view .LVU162
 573 009a B542     		cmp	r5, r6
 574 009c 34BF     		ite	cc
 575 009e 0122     		movcc	r2, #1
 576 00a0 4FF0FF32 		movcs	r2, #-1
 610:GUI/FX/../../Drivers/daisy_ILI9341.hpp ****         auto deltaY = abs((int_fast16_t)y2 - (int_fast16_t)y1);
 577              		.loc 2 610 14 view .LVU163
 578 00a4 0291     		str	r1, [sp, #8]
 579              	.LVL45:
 611:GUI/FX/../../Drivers/daisy_ILI9341.hpp ****         auto signX  = ((x1 < x2) ? 1 : -1);
 580              		.loc 2 611 9 is_stmt 1 view .LVU164
 612:GUI/FX/../../Drivers/daisy_ILI9341.hpp ****         auto signY  = ((y1 < y2) ? 1 : -1);
 581              		.loc 2 612 9 view .LVU165
 614:GUI/FX/../../Drivers/daisy_ILI9341.hpp **** 
 582              		.loc 2 614 14 is_stmt 0 view .LVU166
 583 00a6 A1EB0807 		sub	r7, r1, r8
 612:GUI/FX/../../Drivers/daisy_ILI9341.hpp ****         auto signY  = ((y1 < y2) ? 1 : -1);
 584              		.loc 2 612 34 view .LVU167
 585 00aa 0392     		str	r2, [sp, #12]
 586              	.LVL46:
 613:GUI/FX/../../Drivers/daisy_ILI9341.hpp ****         auto error  = deltaX - deltaY;
 587              		.loc 2 613 9 is_stmt 1 view .LVU168
 613:GUI/FX/../../Drivers/daisy_ILI9341.hpp ****         auto error  = deltaX - deltaY;
 588              		.loc 2 613 34 is_stmt 0 view .LVU169
 589 00ac 5C45     		cmp	r4, fp
 590 00ae 34BF     		ite	cc
 591 00b0 0122     		movcc	r2, #1
 592 00b2 4FF0FF32 		movcs	r2, #-1
 593              	.LVL47:
 616:GUI/FX/../../Drivers/daisy_ILI9341.hpp **** 
 594              		.loc 2 616 18 view .LVU170
 595 00b6 3146     		mov	r1, r6
 596              	.LVL48:
 613:GUI/FX/../../Drivers/daisy_ILI9341.hpp ****         auto error  = deltaX - deltaY;
 597              		.loc 2 613 34 view .LVU171
 598 00b8 0492     		str	r2, [sp, #16]
 599              	.LVL49:
 614:GUI/FX/../../Drivers/daisy_ILI9341.hpp **** 
 600              		.loc 2 614 9 is_stmt 1 view .LVU172
 616:GUI/FX/../../Drivers/daisy_ILI9341.hpp **** 
 601              		.loc 2 616 9 view .LVU173
 616:GUI/FX/../../Drivers/daisy_ILI9341.hpp **** 
 602              		.loc 2 616 18 is_stmt 0 view .LVU174
 603 00ba 5A46     		mov	r2, fp
 604              	.LVL50:
 616:GUI/FX/../../Drivers/daisy_ILI9341.hpp **** 
 605              		.loc 2 616 18 view .LVU175
 606 00bc FFF7FEFF 		bl	_ZN8UiDriver9DrawPixelEjjhh
ARM GAS  /var/folders/wz/z09yph4n0qj4t7mjxhl6ttn80000gn/T//cc3KzP2n.s 			page 38


 607              	.LVL51:
 618:GUI/FX/../../Drivers/daisy_ILI9341.hpp ****         {
 608              		.loc 2 618 9 is_stmt 1 view .LVU176
 618:GUI/FX/../../Drivers/daisy_ILI9341.hpp ****         {
 609              		.loc 2 618 26 view .LVU177
 610 00c0 059B     		ldr	r3, [sp, #20]
 611              	.L32:
 612              	.LVL52:
 613              	.LBB225:
 620:GUI/FX/../../Drivers/daisy_ILI9341.hpp ****             auto error2 = error * 2;
 614              		.loc 2 620 13 view .LVU178
 620:GUI/FX/../../Drivers/daisy_ILI9341.hpp ****             auto error2 = error * 2;
 615              		.loc 2 620 22 is_stmt 0 view .LVU179
 616 00c2 2946     		mov	r1, r5
 617 00c4 2246     		mov	r2, r4
 618 00c6 4846     		mov	r0, r9
 619 00c8 CDF800A0 		str	r10, [sp]
 620 00cc 0593     		str	r3, [sp, #20]
 621 00ce FFF7FEFF 		bl	_ZN8UiDriver9DrawPixelEjjhh
 622              	.LVL53:
 621:GUI/FX/../../Drivers/daisy_ILI9341.hpp ****             if(error2 > -deltaY)
 623              		.loc 2 621 13 is_stmt 1 view .LVU180
 622:GUI/FX/../../Drivers/daisy_ILI9341.hpp ****             {
 624              		.loc 2 622 25 is_stmt 0 view .LVU181
 625 00d2 C8F10001 		rsb	r1, r8, #0
 621:GUI/FX/../../Drivers/daisy_ILI9341.hpp ****             if(error2 > -deltaY)
 626              		.loc 2 621 18 view .LVU182
 627 00d6 7A00     		lsls	r2, r7, #1
 628              	.LVL54:
 622:GUI/FX/../../Drivers/daisy_ILI9341.hpp ****             {
 629              		.loc 2 622 13 is_stmt 1 view .LVU183
 630 00d8 059B     		ldr	r3, [sp, #20]
 624:GUI/FX/../../Drivers/daisy_ILI9341.hpp ****                 x1 += signX;
 631              		.loc 2 624 17 view .LVU184
 622:GUI/FX/../../Drivers/daisy_ILI9341.hpp ****             {
 632              		.loc 2 622 13 is_stmt 0 view .LVU185
 633 00da B1EB470F 		cmp	r1, r7, lsl #1
 625:GUI/FX/../../Drivers/daisy_ILI9341.hpp ****             }
 634              		.loc 2 625 20 view .LVU186
 635 00de BEBF     		ittt	lt
 636 00e0 0399     		ldrlt	r1, [sp, #12]
 624:GUI/FX/../../Drivers/daisy_ILI9341.hpp ****                 x1 += signX;
 637              		.loc 2 624 23 view .LVU187
 638 00e2 A7EB0807 		sublt	r7, r7, r8
 639              	.LVL55:
 625:GUI/FX/../../Drivers/daisy_ILI9341.hpp ****             }
 640              		.loc 2 625 17 is_stmt 1 view .LVU188
 625:GUI/FX/../../Drivers/daisy_ILI9341.hpp ****             }
 641              		.loc 2 625 20 is_stmt 0 view .LVU189
 642 00e6 6D18     		addlt	r5, r5, r1
 643              	.LVL56:
 628:GUI/FX/../../Drivers/daisy_ILI9341.hpp ****             {
 644              		.loc 2 628 13 is_stmt 1 view .LVU190
 645 00e8 0299     		ldr	r1, [sp, #8]
 646 00ea 9142     		cmp	r1, r2
 647 00ec 02DD     		ble	.L29
 630:GUI/FX/../../Drivers/daisy_ILI9341.hpp ****                 y1 += signY;
ARM GAS  /var/folders/wz/z09yph4n0qj4t7mjxhl6ttn80000gn/T//cc3KzP2n.s 			page 39


 648              		.loc 2 630 17 view .LVU191
 631:GUI/FX/../../Drivers/daisy_ILI9341.hpp ****             }
 649              		.loc 2 631 20 is_stmt 0 view .LVU192
 650 00ee 049A     		ldr	r2, [sp, #16]
 651              	.LVL57:
 630:GUI/FX/../../Drivers/daisy_ILI9341.hpp ****                 y1 += signY;
 652              		.loc 2 630 23 view .LVU193
 653 00f0 0F44     		add	r7, r7, r1
 654              	.LVL58:
 631:GUI/FX/../../Drivers/daisy_ILI9341.hpp ****             }
 655              		.loc 2 631 17 is_stmt 1 view .LVU194
 631:GUI/FX/../../Drivers/daisy_ILI9341.hpp ****             }
 656              		.loc 2 631 20 is_stmt 0 view .LVU195
 657 00f2 1444     		add	r4, r4, r2
 658              	.LVL59:
 659              	.L29:
 631:GUI/FX/../../Drivers/daisy_ILI9341.hpp ****             }
 660              		.loc 2 631 20 view .LVU196
 661              	.LBE225:
 618:GUI/FX/../../Drivers/daisy_ILI9341.hpp ****         {
 662              		.loc 2 618 9 is_stmt 1 view .LVU197
 618:GUI/FX/../../Drivers/daisy_ILI9341.hpp ****         {
 663              		.loc 2 618 26 view .LVU198
 664 00f4 B542     		cmp	r5, r6
 665 00f6 E4D1     		bne	.L32
 618:GUI/FX/../../Drivers/daisy_ILI9341.hpp ****         {
 666              		.loc 2 618 26 is_stmt 0 discriminator 1 view .LVU199
 667 00f8 A345     		cmp	fp, r4
 668 00fa E2D1     		bne	.L32
 669              	.LVL60:
 670              	.L19:
 634:GUI/FX/../../Drivers/daisy_ILI9341.hpp **** 
 671              		.loc 2 634 5 view .LVU200
 672 00fc 07B0     		add	sp, sp, #28
 673              		.cfi_def_cfa_offset 36
 674              		@ sp needed
 675 00fe BDE8F08F 		pop	{r4, r5, r6, r7, r8, r9, r10, fp, pc}
 634:GUI/FX/../../Drivers/daisy_ILI9341.hpp **** 
 676              		.loc 2 634 5 view .LVU201
 677              		.cfi_endproc
 678              	.LFE5073:
 680              		.section	.text._ZN8UiDriver8DrawRectERKN5daisy9RectangleEhh,"axG",%progbits,_ZN8UiDriver8DrawRectE
 681              		.align	1
 682              		.weak	_ZN8UiDriver8DrawRectERKN5daisy9RectangleEhh
 683              		.syntax unified
 684              		.thumb
 685              		.thumb_func
 687              	_ZN8UiDriver8DrawRectERKN5daisy9RectangleEhh:
 688              	.LVL61:
 689              	.LFB5076:
 668:GUI/FX/../../Drivers/daisy_ILI9341.hpp ****     {
 690              		.loc 2 668 10 is_stmt 1 view -0
 691              		.cfi_startproc
 692              		@ args = 0, pretend = 0, frame = 8
 693              		@ frame_needed = 0, uses_anonymous_args = 0
 670:GUI/FX/../../Drivers/daisy_ILI9341.hpp ****                  rect.GetY(),
 694              		.loc 2 670 9 view .LVU203
ARM GAS  /var/folders/wz/z09yph4n0qj4t7mjxhl6ttn80000gn/T//cc3KzP2n.s 			page 40


 695              	.LBB236:
 696              	.LBI236:
  56:../../../libDaisy//src/hid/disp/graphics_common.h ****     int16_t GetY() const { return y_; }
 697              		.loc 3 56 13 view .LVU204
 698              	.LBB237:
  56:../../../libDaisy//src/hid/disp/graphics_common.h ****     int16_t GetY() const { return y_; }
 699              		.loc 3 56 28 view .LVU205
  56:../../../libDaisy//src/hid/disp/graphics_common.h ****     int16_t GetY() const { return y_; }
 700              		.loc 3 56 28 is_stmt 0 view .LVU206
 701              	.LBE237:
 702              	.LBE236:
 668:GUI/FX/../../Drivers/daisy_ILI9341.hpp ****     {
 703              		.loc 2 668 10 view .LVU207
 704 0000 2DE9F043 		push	{r4, r5, r6, r7, r8, r9, lr}
 705              		.cfi_def_cfa_offset 28
 706              		.cfi_offset 4, -28
 707              		.cfi_offset 5, -24
 708              		.cfi_offset 6, -20
 709              		.cfi_offset 7, -16
 710              		.cfi_offset 8, -12
 711              		.cfi_offset 9, -8
 712              		.cfi_offset 14, -4
 713 0004 0C46     		mov	r4, r1
 670:GUI/FX/../../Drivers/daisy_ILI9341.hpp ****                  rect.GetY(),
 714              		.loc 2 670 17 view .LVU208
 715 0006 0988     		ldrh	r1, [r1]
 716              	.LVL62:
 717              	.LBB238:
 718              	.LBI238:
  57:../../../libDaisy//src/hid/disp/graphics_common.h ****     int16_t GetWidth() const { return width_; }
 719              		.loc 3 57 13 is_stmt 1 view .LVU209
 720              	.LBB239:
  57:../../../libDaisy//src/hid/disp/graphics_common.h ****     int16_t GetWidth() const { return width_; }
 721              		.loc 3 57 28 view .LVU210
  57:../../../libDaisy//src/hid/disp/graphics_common.h ****     int16_t GetWidth() const { return width_; }
 722              		.loc 3 57 28 is_stmt 0 view .LVU211
 723              	.LBE239:
 724              	.LBE238:
 668:GUI/FX/../../Drivers/daisy_ILI9341.hpp ****     {
 725              		.loc 2 668 10 view .LVU212
 726 0008 87B0     		sub	sp, sp, #28
 727              		.cfi_def_cfa_offset 56
 668:GUI/FX/../../Drivers/daisy_ILI9341.hpp ****     {
 728              		.loc 2 668 10 view .LVU213
 729 000a 0746     		mov	r7, r0
 670:GUI/FX/../../Drivers/daisy_ILI9341.hpp ****                  rect.GetY(),
 730              		.loc 2 670 17 view .LVU214
 731 000c B4F80280 		ldrh	r8, [r4, #2]
 732              	.LVL63:
 733              	.LBB240:
 734              	.LBI240:
  58:../../../libDaisy//src/hid/disp/graphics_common.h ****     int16_t GetHeight() const { return height_; }
 735              		.loc 3 58 13 is_stmt 1 view .LVU215
 736              	.LBB241:
  58:../../../libDaisy//src/hid/disp/graphics_common.h ****     int16_t GetHeight() const { return height_; }
 737              		.loc 3 58 32 view .LVU216
  58:../../../libDaisy//src/hid/disp/graphics_common.h ****     int16_t GetHeight() const { return height_; }
ARM GAS  /var/folders/wz/z09yph4n0qj4t7mjxhl6ttn80000gn/T//cc3KzP2n.s 			page 41


 738              		.loc 3 58 32 is_stmt 0 view .LVU217
 739              	.LBE241:
 740              	.LBE240:
 741              	.LBB242:
 742              	.LBI242:
 743              		.loc 3 59 13 is_stmt 1 view .LVU218
 744              	.LBB243:
 745              		.loc 3 59 33 view .LVU219
 746              		.loc 3 59 33 is_stmt 0 view .LVU220
 747              	.LBE243:
 748              	.LBE242:
 749              	.LBB244:
 750              	.LBI244:
 653:GUI/FX/../../Drivers/daisy_ILI9341.hpp ****                   uint16_t y,
 751              		.loc 2 653 10 is_stmt 1 view .LVU221
 752              	.LBB245:
 660:GUI/FX/../../Drivers/daisy_ILI9341.hpp ****         auto y2 = y + h;
 753              		.loc 2 660 9 view .LVU222
 754              	.LBE245:
 755              	.LBE244:
 668:GUI/FX/../../Drivers/daisy_ILI9341.hpp ****     {
 756              		.loc 2 668 10 is_stmt 0 view .LVU223
 757 0010 1546     		mov	r5, r2
 758              	.LBB248:
 759              	.LBB246:
 660:GUI/FX/../../Drivers/daisy_ILI9341.hpp ****         auto y2 = y + h;
 760              		.loc 2 660 23 view .LVU224
 761 0012 B4F80490 		ldrh	r9, [r4, #4]
 762              	.LBE246:
 763              	.LBE248:
 668:GUI/FX/../../Drivers/daisy_ILI9341.hpp ****     {
 764              		.loc 2 668 10 view .LVU225
 765 0016 1E46     		mov	r6, r3
 766              	.LBB249:
 767              	.LBB247:
 661:GUI/FX/../../Drivers/daisy_ILI9341.hpp ****         DrawLine(x, y, x, y2, color, alpha);
 768              		.loc 2 661 23 view .LVU226
 769 0018 E488     		ldrh	r4, [r4, #6]
 770              	.LVL64:
 660:GUI/FX/../../Drivers/daisy_ILI9341.hpp ****         auto y2 = y + h;
 771              		.loc 2 660 14 view .LVU227
 772 001a 8944     		add	r9, r9, r1
 773              	.LVL65:
 661:GUI/FX/../../Drivers/daisy_ILI9341.hpp ****         DrawLine(x, y, x, y2, color, alpha);
 774              		.loc 2 661 9 is_stmt 1 view .LVU228
 662:GUI/FX/../../Drivers/daisy_ILI9341.hpp ****         DrawLine(x, y, x2, y, color, alpha);
 775              		.loc 2 662 9 view .LVU229
 662:GUI/FX/../../Drivers/daisy_ILI9341.hpp ****         DrawLine(x, y, x2, y, color, alpha);
 776              		.loc 2 662 17 is_stmt 0 view .LVU230
 777 001c 0591     		str	r1, [sp, #20]
 661:GUI/FX/../../Drivers/daisy_ILI9341.hpp ****         DrawLine(x, y, x, y2, color, alpha);
 778              		.loc 2 661 14 view .LVU231
 779 001e 4444     		add	r4, r4, r8
 780              	.LVL66:
 662:GUI/FX/../../Drivers/daisy_ILI9341.hpp ****         DrawLine(x, y, x2, y, color, alpha);
 781              		.loc 2 662 17 view .LVU232
 782 0020 CDE90123 		strd	r2, r3, [sp, #4]
ARM GAS  /var/folders/wz/z09yph4n0qj4t7mjxhl6ttn80000gn/T//cc3KzP2n.s 			page 42


 783              	.LVL67:
 662:GUI/FX/../../Drivers/daisy_ILI9341.hpp ****         DrawLine(x, y, x2, y, color, alpha);
 784              		.loc 2 662 17 view .LVU233
 785 0024 0094     		str	r4, [sp]
 786 0026 0B46     		mov	r3, r1
 787              	.LVL68:
 662:GUI/FX/../../Drivers/daisy_ILI9341.hpp ****         DrawLine(x, y, x2, y, color, alpha);
 788              		.loc 2 662 17 view .LVU234
 789 0028 4246     		mov	r2, r8
 790              	.LVL69:
 662:GUI/FX/../../Drivers/daisy_ILI9341.hpp ****         DrawLine(x, y, x2, y, color, alpha);
 791              		.loc 2 662 17 view .LVU235
 792 002a FFF7FEFF 		bl	_ZN8UiDriver8DrawLineEjjjjhh
 793              	.LVL70:
 663:GUI/FX/../../Drivers/daisy_ILI9341.hpp ****         DrawLine(x, y2, x2, y2, color, alpha);
 794              		.loc 2 663 9 is_stmt 1 view .LVU236
 663:GUI/FX/../../Drivers/daisy_ILI9341.hpp ****         DrawLine(x, y2, x2, y2, color, alpha);
 795              		.loc 2 663 17 is_stmt 0 view .LVU237
 796 002e 4B46     		mov	r3, r9
 797 0030 4246     		mov	r2, r8
 798 0032 0599     		ldr	r1, [sp, #20]
 799 0034 3846     		mov	r0, r7
 800 0036 CDF80080 		str	r8, [sp]
 801 003a CDE90156 		strd	r5, r6, [sp, #4]
 802 003e FFF7FEFF 		bl	_ZN8UiDriver8DrawLineEjjjjhh
 803              	.LVL71:
 664:GUI/FX/../../Drivers/daisy_ILI9341.hpp ****         DrawLine(x2, y, x2, y2, color, alpha);
 804              		.loc 2 664 9 is_stmt 1 view .LVU238
 664:GUI/FX/../../Drivers/daisy_ILI9341.hpp ****         DrawLine(x2, y, x2, y2, color, alpha);
 805              		.loc 2 664 17 is_stmt 0 view .LVU239
 806 0042 4B46     		mov	r3, r9
 807 0044 2246     		mov	r2, r4
 808 0046 0599     		ldr	r1, [sp, #20]
 809 0048 3846     		mov	r0, r7
 810 004a 0094     		str	r4, [sp]
 811 004c CDE90156 		strd	r5, r6, [sp, #4]
 812 0050 FFF7FEFF 		bl	_ZN8UiDriver8DrawLineEjjjjhh
 813              	.LVL72:
 665:GUI/FX/../../Drivers/daisy_ILI9341.hpp ****     }
 814              		.loc 2 665 9 is_stmt 1 view .LVU240
 665:GUI/FX/../../Drivers/daisy_ILI9341.hpp ****     }
 815              		.loc 2 665 17 is_stmt 0 view .LVU241
 816 0054 4B46     		mov	r3, r9
 817 0056 4246     		mov	r2, r8
 818 0058 4946     		mov	r1, r9
 819 005a 3846     		mov	r0, r7
 820 005c 0094     		str	r4, [sp]
 821 005e CDE90156 		strd	r5, r6, [sp, #4]
 822 0062 FFF7FEFF 		bl	_ZN8UiDriver8DrawLineEjjjjhh
 823              	.LVL73:
 665:GUI/FX/../../Drivers/daisy_ILI9341.hpp ****     }
 824              		.loc 2 665 17 view .LVU242
 825              	.LBE247:
 826              	.LBE249:
 676:GUI/FX/../../Drivers/daisy_ILI9341.hpp **** 
 827              		.loc 2 676 5 view .LVU243
 828 0066 07B0     		add	sp, sp, #28
ARM GAS  /var/folders/wz/z09yph4n0qj4t7mjxhl6ttn80000gn/T//cc3KzP2n.s 			page 43


 829              		.cfi_def_cfa_offset 28
 830              		@ sp needed
 831 0068 BDE8F083 		pop	{r4, r5, r6, r7, r8, r9, pc}
 676:GUI/FX/../../Drivers/daisy_ILI9341.hpp **** 
 832              		.loc 2 676 5 view .LVU244
 833              		.cfi_endproc
 834              	.LFE5076:
 836              		.section	.text._ZN8UiDriver11WriteStringEPKctt7FontDefh.isra.0,"ax",%progbits
 837              		.align	1
 838              		.syntax unified
 839              		.thumb
 840              		.thumb_func
 842              	_ZN8UiDriver11WriteStringEPKctt7FontDefh.isra.0:
 843              	.LVL74:
 844              	.LFB5928:
 858:GUI/FX/../../Drivers/daisy_ILI9341.hpp ****                      uint16_t    x,
 845              		.loc 2 858 10 is_stmt 1 view -0
 846              		.cfi_startproc
 847              		@ args = 16, pretend = 0, frame = 8
 848              		@ frame_needed = 0, uses_anonymous_args = 0
 864:GUI/FX/../../Drivers/daisy_ILI9341.hpp ****         while(*str) // Write until null-byte
 849              		.loc 2 864 9 view .LVU246
 858:GUI/FX/../../Drivers/daisy_ILI9341.hpp ****                      uint16_t    x,
 850              		.loc 2 858 10 is_stmt 0 view .LVU247
 851 0000 2DE9F04F 		push	{r4, r5, r6, r7, r8, r9, r10, fp, lr}
 852              		.cfi_def_cfa_offset 36
 853              		.cfi_offset 4, -36
 854              		.cfi_offset 5, -32
 855              		.cfi_offset 6, -28
 856              		.cfi_offset 7, -24
 857              		.cfi_offset 8, -20
 858              		.cfi_offset 9, -16
 859              		.cfi_offset 10, -12
 860              		.cfi_offset 11, -8
 861              		.cfi_offset 14, -4
 862              	.LBB252:
 863              	.LBB253:
 983:GUI/FX/../../Drivers/daisy_ILI9341.hpp ****         currentY_ = (y >= height) ? height - 1 : y;
 864              		.loc 2 983 27 view .LVU248
 865 0004 B0F85440 		ldrh	r4, [r0, #84]
 866              	.LBE253:
 867              	.LBE252:
 858:GUI/FX/../../Drivers/daisy_ILI9341.hpp ****                      uint16_t    x,
 868              		.loc 2 858 10 view .LVU249
 869 0008 1D46     		mov	r5, r3
 870              	.LVL75:
 871              	.LBB258:
 872              	.LBI252:
 981:GUI/FX/../../Drivers/daisy_ILI9341.hpp ****     {
 873              		.loc 2 981 10 is_stmt 1 view .LVU250
 874              	.LBB254:
 983:GUI/FX/../../Drivers/daisy_ILI9341.hpp ****         currentY_ = (y >= height) ? height - 1 : y;
 875              		.loc 2 983 9 view .LVU251
 876              	.LBE254:
 877              	.LBE258:
 858:GUI/FX/../../Drivers/daisy_ILI9341.hpp ****                      uint16_t    x,
 878              		.loc 2 858 10 is_stmt 0 view .LVU252
ARM GAS  /var/folders/wz/z09yph4n0qj4t7mjxhl6ttn80000gn/T//cc3KzP2n.s 			page 44


 879 000a 85B0     		sub	sp, sp, #20
 880              		.cfi_def_cfa_offset 56
 858:GUI/FX/../../Drivers/daisy_ILI9341.hpp ****                      uint16_t    x,
 881              		.loc 2 858 10 view .LVU253
 882 000c 0746     		mov	r7, r0
 883              	.LBB259:
 884              	.LBB255:
 983:GUI/FX/../../Drivers/daisy_ILI9341.hpp ****         currentY_ = (y >= height) ? height - 1 : y;
 885              		.loc 2 983 19 view .LVU254
 886 000e A242     		cmp	r2, r4
 887              	.LBE255:
 888              	.LBE259:
 858:GUI/FX/../../Drivers/daisy_ILI9341.hpp ****                      uint16_t    x,
 889              		.loc 2 858 10 view .LVU255
 890 0010 9DF83890 		ldrb	r9, [sp, #56]	@ zero_extendqisi2
 891              	.LBB260:
 892              	.LBB256:
 983:GUI/FX/../../Drivers/daisy_ILI9341.hpp ****         currentY_ = (y >= height) ? height - 1 : y;
 893              		.loc 2 983 19 view .LVU256
 894 0014 28BF     		it	cs
 895 0016 04F1FF32 		addcs	r2, r4, #-1
 896              	.LVL76:
 983:GUI/FX/../../Drivers/daisy_ILI9341.hpp ****         currentY_ = (y >= height) ? height - 1 : y;
 897              		.loc 2 983 19 view .LVU257
 898              	.LBE256:
 899              	.LBE260:
 858:GUI/FX/../../Drivers/daisy_ILI9341.hpp ****                      uint16_t    x,
 900              		.loc 2 858 10 view .LVU258
 901 001a 9DF83CA0 		ldrb	r10, [sp, #60]	@ zero_extendqisi2
 902 001e 9DF84430 		ldrb	r3, [sp, #68]	@ zero_extendqisi2
 903              	.LVL77:
 858:GUI/FX/../../Drivers/daisy_ILI9341.hpp ****                      uint16_t    x,
 904              		.loc 2 858 10 view .LVU259
 905 0022 01F1FF34 		add	r4, r1, #-1
 906              	.LBB261:
 907              	.LBB257:
 983:GUI/FX/../../Drivers/daisy_ILI9341.hpp ****         currentY_ = (y >= height) ? height - 1 : y;
 908              		.loc 2 983 19 view .LVU260
 909 0026 28BF     		it	cs
 910 0028 92B2     		uxthcs	r2, r2
 911 002a A0F86220 		strh	r2, [r0, #98]	@ movhi
 984:GUI/FX/../../Drivers/daisy_ILI9341.hpp ****     }
 912              		.loc 2 984 9 is_stmt 1 view .LVU261
 984:GUI/FX/../../Drivers/daisy_ILI9341.hpp ****     }
 913              		.loc 2 984 27 is_stmt 0 view .LVU262
 914 002e B0F85620 		ldrh	r2, [r0, #86]
 984:GUI/FX/../../Drivers/daisy_ILI9341.hpp ****     }
 915              		.loc 2 984 19 view .LVU263
 916 0032 9542     		cmp	r5, r2
 917 0034 24BF     		itt	cs
 918 0036 02F1FF32 		addcs	r2, r2, #-1
 919 003a 95B2     		uxthcs	r5, r2
 920              	.LVL78:
 984:GUI/FX/../../Drivers/daisy_ILI9341.hpp ****     }
 921              		.loc 2 984 19 view .LVU264
 922 003c A0F86450 		strh	r5, [r0, #100]	@ movhi
 923              	.LVL79:
ARM GAS  /var/folders/wz/z09yph4n0qj4t7mjxhl6ttn80000gn/T//cc3KzP2n.s 			page 45


 924              	.L45:
 984:GUI/FX/../../Drivers/daisy_ILI9341.hpp ****     }
 925              		.loc 2 984 19 view .LVU265
 926              	.LBE257:
 927              	.LBE261:
 865:GUI/FX/../../Drivers/daisy_ILI9341.hpp ****         {
 928              		.loc 2 865 9 is_stmt 1 view .LVU266
 865:GUI/FX/../../Drivers/daisy_ILI9341.hpp ****         {
 929              		.loc 2 865 15 view .LVU267
 930 0040 14F801BF 		ldrb	fp, [r4, #1]!	@ zero_extendqisi2
 931              	.LVL80:
 865:GUI/FX/../../Drivers/daisy_ILI9341.hpp ****         {
 932              		.loc 2 865 15 is_stmt 0 view .LVU268
 933 0044 ABF12005 		sub	r5, fp, #32
 934 0048 EAB2     		uxtb	r2, r5
 935 004a 5E2A     		cmp	r2, #94
 936 004c 4DD8     		bhi	.L34
 867:GUI/FX/../../Drivers/daisy_ILI9341.hpp ****             {
 937              		.loc 2 867 13 is_stmt 1 view .LVU269
 938              	.LVL81:
 824:GUI/FX/../../Drivers/daisy_ILI9341.hpp ****             return 0;
 939              		.loc 2 824 9 view .LVU270
 828:GUI/FX/../../Drivers/daisy_ILI9341.hpp ****            || height < (currentY_ + font.FontHeight))
 940              		.loc 2 828 9 view .LVU271
 828:GUI/FX/../../Drivers/daisy_ILI9341.hpp ****            || height < (currentY_ + font.FontHeight))
 941              		.loc 2 828 21 is_stmt 0 view .LVU272
 942 004e B7F86220 		ldrh	r2, [r7, #98]
 828:GUI/FX/../../Drivers/daisy_ILI9341.hpp ****            || height < (currentY_ + font.FontHeight))
 943              		.loc 2 828 12 view .LVU273
 944 0052 B7F85410 		ldrh	r1, [r7, #84]
 828:GUI/FX/../../Drivers/daisy_ILI9341.hpp ****            || height < (currentY_ + font.FontHeight))
 945              		.loc 2 828 31 view .LVU274
 946 0056 4A44     		add	r2, r2, r9
 828:GUI/FX/../../Drivers/daisy_ILI9341.hpp ****            || height < (currentY_ + font.FontHeight))
 947              		.loc 2 828 9 view .LVU275
 948 0058 9142     		cmp	r1, r2
 949 005a 46DB     		blt	.L34
 829:GUI/FX/../../Drivers/daisy_ILI9341.hpp ****         {
 950              		.loc 2 829 25 view .LVU276
 951 005c B7F86420 		ldrh	r2, [r7, #100]
 829:GUI/FX/../../Drivers/daisy_ILI9341.hpp ****         {
 952              		.loc 2 829 15 view .LVU277
 953 0060 B7F85610 		ldrh	r1, [r7, #86]
 829:GUI/FX/../../Drivers/daisy_ILI9341.hpp ****         {
 954              		.loc 2 829 35 view .LVU278
 955 0064 5244     		add	r2, r2, r10
 829:GUI/FX/../../Drivers/daisy_ILI9341.hpp ****         {
 956              		.loc 2 829 12 view .LVU279
 957 0066 9142     		cmp	r1, r2
 958 0068 3FDB     		blt	.L34
 837:GUI/FX/../../Drivers/daisy_ILI9341.hpp ****             for(auto j = 0; j < font.FontWidth; j++)
 959              		.loc 2 837 42 view .LVU280
 960 006a 0AFB05F5 		mul	r5, r10, r5
 961 006e 109A     		ldr	r2, [sp, #64]
 835:GUI/FX/../../Drivers/daisy_ILI9341.hpp ****         {
 962              		.loc 2 835 18 view .LVU281
 963 0070 4FF00008 		mov	r8, #0
ARM GAS  /var/folders/wz/z09yph4n0qj4t7mjxhl6ttn80000gn/T//cc3KzP2n.s 			page 46


 964 0074 02EB4505 		add	r5, r2, r5, lsl #1
 965              	.L42:
 966              	.LVL82:
 835:GUI/FX/../../Drivers/daisy_ILI9341.hpp ****         {
 967              		.loc 2 835 27 is_stmt 1 view .LVU282
 968 0078 C245     		cmp	r10, r8
 969 007a 1BDD     		ble	.L38
 837:GUI/FX/../../Drivers/daisy_ILI9341.hpp ****             for(auto j = 0; j < font.FontWidth; j++)
 970              		.loc 2 837 13 view .LVU283
 837:GUI/FX/../../Drivers/daisy_ILI9341.hpp ****             for(auto j = 0; j < font.FontWidth; j++)
 971              		.loc 2 837 18 is_stmt 0 view .LVU284
 972 007c 35F8022B 		ldrh	r2, [r5], #2
 838:GUI/FX/../../Drivers/daisy_ILI9341.hpp ****             {
 973              		.loc 2 838 22 view .LVU285
 974 0080 0026     		movs	r6, #0
 837:GUI/FX/../../Drivers/daisy_ILI9341.hpp ****             for(auto j = 0; j < font.FontWidth; j++)
 975              		.loc 2 837 18 view .LVU286
 976 0082 0292     		str	r2, [sp, #8]
 977              	.LVL83:
 838:GUI/FX/../../Drivers/daisy_ILI9341.hpp ****             {
 978              		.loc 2 838 13 is_stmt 1 view .LVU287
 979              	.L41:
 838:GUI/FX/../../Drivers/daisy_ILI9341.hpp ****             {
 980              		.loc 2 838 31 view .LVU288
 981 0084 B145     		cmp	r9, r6
 982 0086 12DD     		ble	.L39
 840:GUI/FX/../../Drivers/daisy_ILI9341.hpp ****                 {
 983              		.loc 2 840 17 view .LVU289
 840:GUI/FX/../../Drivers/daisy_ILI9341.hpp ****                 {
 984              		.loc 2 840 23 is_stmt 0 view .LVU290
 985 0088 029A     		ldr	r2, [sp, #8]
 986 008a B240     		lsls	r2, r2, r6
 840:GUI/FX/../../Drivers/daisy_ILI9341.hpp ****                 {
 987              		.loc 2 840 17 view .LVU291
 988 008c 1204     		lsls	r2, r2, #16
 989 008e 0CD5     		bpl	.L40
 842:GUI/FX/../../Drivers/daisy_ILI9341.hpp ****                 }
 990              		.loc 2 842 21 is_stmt 1 view .LVU292
 842:GUI/FX/../../Drivers/daisy_ILI9341.hpp ****                 }
 991              		.loc 2 842 47 is_stmt 0 view .LVU293
 992 0090 B7F86420 		ldrh	r2, [r7, #100]
 842:GUI/FX/../../Drivers/daisy_ILI9341.hpp ****                 }
 993              		.loc 2 842 30 view .LVU294
 994 0094 FF20     		movs	r0, #255
 842:GUI/FX/../../Drivers/daisy_ILI9341.hpp ****                 }
 995              		.loc 2 842 31 view .LVU295
 996 0096 B7F86210 		ldrh	r1, [r7, #98]
 842:GUI/FX/../../Drivers/daisy_ILI9341.hpp ****                 }
 997              		.loc 2 842 30 view .LVU296
 998 009a 0090     		str	r0, [sp]
 999 009c 4244     		add	r2, r2, r8
 1000 009e 3144     		add	r1, r1, r6
 1001 00a0 3846     		mov	r0, r7
 1002 00a2 0393     		str	r3, [sp, #12]
 1003 00a4 FFF7FEFF 		bl	_ZN8UiDriver9DrawPixelEjjhh
 1004              	.LVL84:
 1005 00a8 039B     		ldr	r3, [sp, #12]
ARM GAS  /var/folders/wz/z09yph4n0qj4t7mjxhl6ttn80000gn/T//cc3KzP2n.s 			page 47


 1006              	.L40:
 838:GUI/FX/../../Drivers/daisy_ILI9341.hpp ****             {
 1007              		.loc 2 838 13 is_stmt 1 view .LVU297
 1008 00aa 0136     		adds	r6, r6, #1
 1009              	.LVL85:
 838:GUI/FX/../../Drivers/daisy_ILI9341.hpp ****             {
 1010              		.loc 2 838 13 is_stmt 0 view .LVU298
 1011 00ac EAE7     		b	.L41
 1012              	.L39:
 835:GUI/FX/../../Drivers/daisy_ILI9341.hpp ****         {
 1013              		.loc 2 835 9 is_stmt 1 view .LVU299
 1014 00ae 08F10108 		add	r8, r8, #1
 1015              	.LVL86:
 835:GUI/FX/../../Drivers/daisy_ILI9341.hpp ****         {
 1016              		.loc 2 835 9 is_stmt 0 view .LVU300
 1017 00b2 E1E7     		b	.L42
 1018              	.LVL87:
 1019              	.L38:
 848:GUI/FX/../../Drivers/daisy_ILI9341.hpp **** 
 1020              		.loc 2 848 9 is_stmt 1 view .LVU301
 848:GUI/FX/../../Drivers/daisy_ILI9341.hpp **** 
 1021              		.loc 2 848 18 is_stmt 0 view .LVU302
 1022 00b4 B7F86220 		ldrh	r2, [r7, #98]
 983:GUI/FX/../../Drivers/daisy_ILI9341.hpp ****         currentY_ = (y >= height) ? height - 1 : y;
 1023              		.loc 2 983 27 view .LVU303
 1024 00b8 B7F85410 		ldrh	r1, [r7, #84]
 848:GUI/FX/../../Drivers/daisy_ILI9341.hpp **** 
 1025              		.loc 2 848 18 view .LVU304
 1026 00bc 4A44     		add	r2, r2, r9
 1027 00be B7F86450 		ldrh	r5, [r7, #100]
 1028              	.LVL88:
 848:GUI/FX/../../Drivers/daisy_ILI9341.hpp **** 
 1029              		.loc 2 848 18 view .LVU305
 1030 00c2 92B2     		uxth	r2, r2
 1031              	.LVL89:
 983:GUI/FX/../../Drivers/daisy_ILI9341.hpp ****         currentY_ = (y >= height) ? height - 1 : y;
 1032              		.loc 2 983 9 is_stmt 1 view .LVU306
 983:GUI/FX/../../Drivers/daisy_ILI9341.hpp ****         currentY_ = (y >= height) ? height - 1 : y;
 1033              		.loc 2 983 19 is_stmt 0 view .LVU307
 1034 00c4 8A42     		cmp	r2, r1
 1035 00c6 24BF     		itt	cs
 1036 00c8 01F1FF31 		addcs	r1, r1, #-1
 1037 00cc 8AB2     		uxthcs	r2, r1
 1038              	.LVL90:
 983:GUI/FX/../../Drivers/daisy_ILI9341.hpp ****         currentY_ = (y >= height) ? height - 1 : y;
 1039              		.loc 2 983 19 view .LVU308
 1040 00ce A7F86220 		strh	r2, [r7, #98]	@ movhi
 1041              	.LVL91:
 984:GUI/FX/../../Drivers/daisy_ILI9341.hpp ****     }
 1042              		.loc 2 984 9 is_stmt 1 view .LVU309
 984:GUI/FX/../../Drivers/daisy_ILI9341.hpp ****     }
 1043              		.loc 2 984 27 is_stmt 0 view .LVU310
 1044 00d2 B7F85620 		ldrh	r2, [r7, #86]
 984:GUI/FX/../../Drivers/daisy_ILI9341.hpp ****     }
 1045              		.loc 2 984 19 view .LVU311
 1046 00d6 9542     		cmp	r5, r2
 1047 00d8 24BF     		itt	cs
ARM GAS  /var/folders/wz/z09yph4n0qj4t7mjxhl6ttn80000gn/T//cc3KzP2n.s 			page 48


 1048 00da 02F1FF32 		addcs	r2, r2, #-1
 1049 00de 95B2     		uxthcs	r5, r2
 1050              	.LVL92:
 984:GUI/FX/../../Drivers/daisy_ILI9341.hpp ****     }
 1051              		.loc 2 984 19 view .LVU312
 1052 00e0 A7F86450 		strh	r5, [r7, #100]	@ movhi
 1053              	.LVL93:
 867:GUI/FX/../../Drivers/daisy_ILI9341.hpp ****             {
 1054              		.loc 2 867 13 view .LVU313
 1055 00e4 2278     		ldrb	r2, [r4]	@ zero_extendqisi2
 1056 00e6 5A45     		cmp	r2, fp
 1057 00e8 AAD0     		beq	.L45
 1058              	.L34:
 873:GUI/FX/../../Drivers/daisy_ILI9341.hpp **** 
 1059              		.loc 2 873 5 view .LVU314
 1060 00ea 05B0     		add	sp, sp, #20
 1061              		.cfi_def_cfa_offset 36
 1062              		@ sp needed
 1063 00ec BDE8F08F 		pop	{r4, r5, r6, r7, r8, r9, r10, fp, pc}
 873:GUI/FX/../../Drivers/daisy_ILI9341.hpp **** 
 1064              		.loc 2 873 5 view .LVU315
 1065              		.cfi_endproc
 1066              	.LFE5928:
 1068              		.section	.rodata._ZN9DelayView7repaintEv.str1.1,"aMS",%progbits,1
 1069              	.LC0:
 1070 0000 4F6E00   		.ascii	"On\000"
 1071              	.LC1:
 1072 0003 4F666600 		.ascii	"Off\000"
 1073              	.LC2:
 1074 0007 54726163 		.ascii	"Track %d-%s\000"
 1074      6B202564 
 1074      2D257300 
 1075              	.LC3:
 1076 0013 44656C61 		.ascii	"Delay\000"
 1076      7900
 1077              		.section	.text._ZN9DelayView7repaintEv,"ax",%progbits
 1078              		.align	1
 1079              		.global	_ZN9DelayView7repaintEv
 1080              		.syntax unified
 1081              		.thumb
 1082              		.thumb_func
 1084              	_ZN9DelayView7repaintEv:
 1085              	.LVL94:
 1086              	.LFB5110:
 1087              		.file 4 "GUI/FX/DelayView.cpp"
   1:GUI/FX/DelayView.cpp **** #include "DelayView.h"
   2:GUI/FX/DelayView.cpp **** 
   3:GUI/FX/DelayView.cpp **** void DelayView::init(int ID, EncoderDriver* driver, UiDriver* uid, KeypadDriver* kpd)
   4:GUI/FX/DelayView.cpp **** {
   5:GUI/FX/DelayView.cpp ****     trackID = ID;
   6:GUI/FX/DelayView.cpp **** 
   7:GUI/FX/DelayView.cpp ****     lcd = uid;
   8:GUI/FX/DelayView.cpp ****     keypad = kpd;
   9:GUI/FX/DelayView.cpp **** 
  10:GUI/FX/DelayView.cpp ****     bypass.init(driver, uid, driver->getBypassCallback(bypassIndexes[ID-1]));
  11:GUI/FX/DelayView.cpp ****     amount.init(trackID + ParameterIDs::Delay::amount, driver, lcd);
  12:GUI/FX/DelayView.cpp ****     size.init(trackID + ParameterIDs::Delay::size, driver, lcd);
ARM GAS  /var/folders/wz/z09yph4n0qj4t7mjxhl6ttn80000gn/T//cc3KzP2n.s 			page 49


  13:GUI/FX/DelayView.cpp ****     feedback.init(trackID + ParameterIDs::Delay::feedback, driver, lcd);
  14:GUI/FX/DelayView.cpp **** 
  15:GUI/FX/DelayView.cpp ****     isOpen = false;
  16:GUI/FX/DelayView.cpp ****     isPainted = false;
  17:GUI/FX/DelayView.cpp **** }
  18:GUI/FX/DelayView.cpp **** 
  19:GUI/FX/DelayView.cpp **** void DelayView::tick()
  20:GUI/FX/DelayView.cpp **** {
  21:GUI/FX/DelayView.cpp **** 
  22:GUI/FX/DelayView.cpp ****     amount.tick();
  23:GUI/FX/DelayView.cpp ****     size.tick();
  24:GUI/FX/DelayView.cpp ****     feedback.tick();
  25:GUI/FX/DelayView.cpp **** 
  26:GUI/FX/DelayView.cpp ****     if(isOpen)
  27:GUI/FX/DelayView.cpp ****         repaint();
  28:GUI/FX/DelayView.cpp **** }
  29:GUI/FX/DelayView.cpp **** 
  30:GUI/FX/DelayView.cpp **** void DelayView::repaint()
  31:GUI/FX/DelayView.cpp **** {
 1088              		.loc 4 31 1 is_stmt 1 view -0
 1089              		.cfi_startproc
 1090              		@ args = 0, pretend = 0, frame = 72
 1091              		@ frame_needed = 0, uses_anonymous_args = 0
  32:GUI/FX/DelayView.cpp ****     if(!isPainted)
 1092              		.loc 4 32 5 view .LVU317
  31:GUI/FX/DelayView.cpp ****     if(!isPainted)
 1093              		.loc 4 31 1 is_stmt 0 view .LVU318
 1094 0000 2DE9F04F 		push	{r4, r5, r6, r7, r8, r9, r10, fp, lr}
 1095              		.cfi_def_cfa_offset 36
 1096              		.cfi_offset 4, -36
 1097              		.cfi_offset 5, -32
 1098              		.cfi_offset 6, -28
 1099              		.cfi_offset 7, -24
 1100              		.cfi_offset 8, -20
 1101              		.cfi_offset 9, -16
 1102              		.cfi_offset 10, -12
 1103              		.cfi_offset 11, -8
 1104              		.cfi_offset 14, -4
 1105              	.LBB329:
 1106              		.loc 4 32 5 view .LVU319
 1107 0004 90F87950 		ldrb	r5, [r0, #121]	@ zero_extendqisi2
 1108              	.LBE329:
  31:GUI/FX/DelayView.cpp ****     if(!isPainted)
 1109              		.loc 4 31 1 view .LVU320
 1110 0008 97B0     		sub	sp, sp, #92
 1111              		.cfi_def_cfa_offset 128
  31:GUI/FX/DelayView.cpp ****     if(!isPainted)
 1112              		.loc 4 31 1 view .LVU321
 1113 000a 0446     		mov	r4, r0
 1114              	.LBB330:
 1115              		.loc 4 32 5 view .LVU322
 1116 000c 002D     		cmp	r5, #0
 1117 000e 40F0C580 		bne	.L50
 1118              	.LVL95:
 1119              		.loc 4 32 5 view .LVU323
 1120              	.LBE330:
 1121              	.LBB331:
ARM GAS  /var/folders/wz/z09yph4n0qj4t7mjxhl6ttn80000gn/T//cc3KzP2n.s 			page 50


 1122              	.LBI331:
  30:GUI/FX/DelayView.cpp **** {
 1123              		.loc 4 30 6 is_stmt 1 view .LVU324
 1124              	.LBB332:
 1125              	.LBB333:
  33:GUI/FX/DelayView.cpp ****     {
  34:GUI/FX/DelayView.cpp ****         // Screen border
  35:GUI/FX/DelayView.cpp ****         lcd->DrawRect(Rectangle(StyleSheet::Effects::frameThickness, StyleSheet::Effects::frameThic
 1126              		.loc 4 35 9 view .LVU325
 1127              	.LBB334:
 1128              	.LBI334:
  31:../../../libDaisy//src/hid/disp/graphics_common.h ****     : x_(x), y_(y), width_(max(0, width)), height_(max(0, height))
 1129              		.loc 3 31 5 view .LVU326
 1130              	.LBB335:
 1131              	.LBB336:
  32:../../../libDaisy//src/hid/disp/graphics_common.h ****     {
 1132              		.loc 3 32 66 is_stmt 0 view .LVU327
 1133 0012 0223     		movs	r3, #2
 1134              	.LBE336:
 1135              	.LBE335:
 1136              	.LBE334:
 1137              		.loc 4 35 22 view .LVU328
 1138 0014 0422     		movs	r2, #4
 1139 0016 09A9     		add	r1, sp, #36
 1140              	.LVL96:
 1141              		.loc 4 35 22 view .LVU329
 1142 0018 4068     		ldr	r0, [r0, #4]
 1143              	.LVL97:
 1144              	.LBB349:
 1145              	.LBB344:
 1146              	.LBB339:
  32:../../../libDaisy//src/hid/disp/graphics_common.h ****     {
 1147              		.loc 3 32 66 view .LVU330
 1148 001a ADF82430 		strh	r3, [sp, #36]	@ movhi
 1149              	.LBE339:
 1150              	.LBE344:
 1151              	.LBE349:
 1152              	.LBB350:
 1153              	.LBB351:
 1154              	.LBB352:
 1155 001e 0A27     		movs	r7, #10
 1156              	.LBE352:
 1157              	.LBE351:
 1158              	.LBE350:
 1159              	.LBB365:
 1160              	.LBB345:
 1161              	.LBB340:
 1162 0020 ADF82630 		strh	r3, [sp, #38]	@ movhi
 1163              	.LVL98:
 1164              	.LBB337:
 1165              	.LBI337:
  60:../../../libDaisy//src/hid/disp/graphics_common.h ****     int16_t GetRight() const { return x_ + width_; }
  61:../../../libDaisy//src/hid/disp/graphics_common.h ****     int16_t GetBottom() const { return y_ + height_; }
  62:../../../libDaisy//src/hid/disp/graphics_common.h ****     int16_t GetCenterX() const { return x_ + width_ / 2; }
  63:../../../libDaisy//src/hid/disp/graphics_common.h ****     int16_t GetCenterY() const { return y_ + height_ / 2; }
  64:../../../libDaisy//src/hid/disp/graphics_common.h **** 
  65:../../../libDaisy//src/hid/disp/graphics_common.h ****     Rectangle WithX(int16_t x) const { return {x, y_, width_, height_}; }
ARM GAS  /var/folders/wz/z09yph4n0qj4t7mjxhl6ttn80000gn/T//cc3KzP2n.s 			page 51


  66:../../../libDaisy//src/hid/disp/graphics_common.h ****     Rectangle WithY(int16_t y) const { return {x_, y, width_, height_}; }
  67:../../../libDaisy//src/hid/disp/graphics_common.h ****     Rectangle WithWidth(int16_t width) const
  68:../../../libDaisy//src/hid/disp/graphics_common.h ****     {
  69:../../../libDaisy//src/hid/disp/graphics_common.h ****         return {x_, y_, width, height_};
  70:../../../libDaisy//src/hid/disp/graphics_common.h ****     }
  71:../../../libDaisy//src/hid/disp/graphics_common.h ****     Rectangle WithHeight(int16_t height) const
  72:../../../libDaisy//src/hid/disp/graphics_common.h ****     {
  73:../../../libDaisy//src/hid/disp/graphics_common.h ****         return {x_, y_, width_, height};
  74:../../../libDaisy//src/hid/disp/graphics_common.h ****     }
  75:../../../libDaisy//src/hid/disp/graphics_common.h ****     Rectangle WithSize(int16_t width, int16_t height) const
  76:../../../libDaisy//src/hid/disp/graphics_common.h ****     {
  77:../../../libDaisy//src/hid/disp/graphics_common.h ****         return {x_, y_, width, height};
  78:../../../libDaisy//src/hid/disp/graphics_common.h ****     }
  79:../../../libDaisy//src/hid/disp/graphics_common.h ****     Rectangle WithWidthKeepingCenter(int16_t width) const
  80:../../../libDaisy//src/hid/disp/graphics_common.h ****     {
  81:../../../libDaisy//src/hid/disp/graphics_common.h ****         return Rectangle(x_, y_, width, height_)
  82:../../../libDaisy//src/hid/disp/graphics_common.h ****             .WithCenter(GetCenterX(), GetCenterY());
  83:../../../libDaisy//src/hid/disp/graphics_common.h ****     }
  84:../../../libDaisy//src/hid/disp/graphics_common.h ****     Rectangle WithHeightKeepingCenter(int16_t height) const
  85:../../../libDaisy//src/hid/disp/graphics_common.h ****     {
  86:../../../libDaisy//src/hid/disp/graphics_common.h ****         return Rectangle(x_, y_, width_, height)
  87:../../../libDaisy//src/hid/disp/graphics_common.h ****             .WithCenter(GetCenterX(), GetCenterY());
  88:../../../libDaisy//src/hid/disp/graphics_common.h ****     }
  89:../../../libDaisy//src/hid/disp/graphics_common.h ****     Rectangle WithSizeKeepingCenter(int16_t width, int16_t height) const
  90:../../../libDaisy//src/hid/disp/graphics_common.h ****     {
  91:../../../libDaisy//src/hid/disp/graphics_common.h ****         return Rectangle(x_, y_, width, height)
  92:../../../libDaisy//src/hid/disp/graphics_common.h ****             .WithCenter(GetCenterX(), GetCenterY());
  93:../../../libDaisy//src/hid/disp/graphics_common.h ****     }
  94:../../../libDaisy//src/hid/disp/graphics_common.h **** 
  95:../../../libDaisy//src/hid/disp/graphics_common.h ****     Rectangle Reduced(int16_t sizeToReduce) const
  96:../../../libDaisy//src/hid/disp/graphics_common.h ****     {
  97:../../../libDaisy//src/hid/disp/graphics_common.h ****         return {int16_t(x_ + sizeToReduce),
  98:../../../libDaisy//src/hid/disp/graphics_common.h ****                 int16_t(y_ + sizeToReduce),
  99:../../../libDaisy//src/hid/disp/graphics_common.h ****                 int16_t(width_ - 2 * sizeToReduce),
 100:../../../libDaisy//src/hid/disp/graphics_common.h ****                 int16_t(height_ - 2 * sizeToReduce)};
 101:../../../libDaisy//src/hid/disp/graphics_common.h ****     }
 102:../../../libDaisy//src/hid/disp/graphics_common.h ****     Rectangle Reduced(int16_t xToReduce, int16_t yToReduce) const
 103:../../../libDaisy//src/hid/disp/graphics_common.h ****     {
 104:../../../libDaisy//src/hid/disp/graphics_common.h ****         return {int16_t(x_ + xToReduce),
 105:../../../libDaisy//src/hid/disp/graphics_common.h ****                 int16_t(y_ + yToReduce),
 106:../../../libDaisy//src/hid/disp/graphics_common.h ****                 int16_t(width_ - 2 * xToReduce),
 107:../../../libDaisy//src/hid/disp/graphics_common.h ****                 int16_t(height_ - 2 * yToReduce)};
 108:../../../libDaisy//src/hid/disp/graphics_common.h ****     }
 109:../../../libDaisy//src/hid/disp/graphics_common.h **** 
 110:../../../libDaisy//src/hid/disp/graphics_common.h ****     Rectangle Translated(int16_t x, int16_t y) const
 111:../../../libDaisy//src/hid/disp/graphics_common.h ****     {
 112:../../../libDaisy//src/hid/disp/graphics_common.h ****         return {int16_t(x_ + x), int16_t(y_ + y), width_, height_};
 113:../../../libDaisy//src/hid/disp/graphics_common.h ****     }
 114:../../../libDaisy//src/hid/disp/graphics_common.h **** 
 115:../../../libDaisy//src/hid/disp/graphics_common.h ****     Rectangle WithLeft(int16_t left) const
 116:../../../libDaisy//src/hid/disp/graphics_common.h ****     {
 117:../../../libDaisy//src/hid/disp/graphics_common.h ****         const auto newWidth = int16_t((x_ - left) + width_);
 118:../../../libDaisy//src/hid/disp/graphics_common.h ****         return {left, y_, newWidth, height_};
 119:../../../libDaisy//src/hid/disp/graphics_common.h ****     }
 120:../../../libDaisy//src/hid/disp/graphics_common.h **** 
 121:../../../libDaisy//src/hid/disp/graphics_common.h ****     Rectangle WithRight(int16_t right) const
 122:../../../libDaisy//src/hid/disp/graphics_common.h ****     {
ARM GAS  /var/folders/wz/z09yph4n0qj4t7mjxhl6ttn80000gn/T//cc3KzP2n.s 			page 52


 123:../../../libDaisy//src/hid/disp/graphics_common.h ****         const auto newWidth = int16_t(right - x_);
 124:../../../libDaisy//src/hid/disp/graphics_common.h ****         return {x_, y_, newWidth, height_};
 125:../../../libDaisy//src/hid/disp/graphics_common.h ****     }
 126:../../../libDaisy//src/hid/disp/graphics_common.h **** 
 127:../../../libDaisy//src/hid/disp/graphics_common.h ****     Rectangle WithTop(int16_t top) const
 128:../../../libDaisy//src/hid/disp/graphics_common.h ****     {
 129:../../../libDaisy//src/hid/disp/graphics_common.h ****         const auto newHeight = int16_t((y_ - top) + height_);
 130:../../../libDaisy//src/hid/disp/graphics_common.h ****         return {x_, top, width_, newHeight};
 131:../../../libDaisy//src/hid/disp/graphics_common.h ****     }
 132:../../../libDaisy//src/hid/disp/graphics_common.h **** 
 133:../../../libDaisy//src/hid/disp/graphics_common.h ****     Rectangle WithBottom(int16_t bottom) const
 134:../../../libDaisy//src/hid/disp/graphics_common.h ****     {
 135:../../../libDaisy//src/hid/disp/graphics_common.h ****         const auto newHeight = int16_t(bottom - y_);
 136:../../../libDaisy//src/hid/disp/graphics_common.h ****         return {x_, y_, width_, newHeight};
 137:../../../libDaisy//src/hid/disp/graphics_common.h ****     }
 138:../../../libDaisy//src/hid/disp/graphics_common.h **** 
 139:../../../libDaisy//src/hid/disp/graphics_common.h ****     Rectangle WithTrimmedLeft(int16_t pxToTrim) const
 140:../../../libDaisy//src/hid/disp/graphics_common.h ****     {
 141:../../../libDaisy//src/hid/disp/graphics_common.h ****         return {
 142:../../../libDaisy//src/hid/disp/graphics_common.h ****             int16_t(x_ + pxToTrim), y_, int16_t(width_ - pxToTrim), height_};
 143:../../../libDaisy//src/hid/disp/graphics_common.h ****     }
 144:../../../libDaisy//src/hid/disp/graphics_common.h **** 
 145:../../../libDaisy//src/hid/disp/graphics_common.h ****     Rectangle WithTrimmedRight(int16_t pxToTrim) const
 146:../../../libDaisy//src/hid/disp/graphics_common.h ****     {
 147:../../../libDaisy//src/hid/disp/graphics_common.h ****         return {x_, y_, int16_t(width_ - pxToTrim), height_};
 148:../../../libDaisy//src/hid/disp/graphics_common.h ****     }
 149:../../../libDaisy//src/hid/disp/graphics_common.h **** 
 150:../../../libDaisy//src/hid/disp/graphics_common.h ****     Rectangle WithTrimmedTop(int16_t pxToTrim) const
 151:../../../libDaisy//src/hid/disp/graphics_common.h ****     {
 152:../../../libDaisy//src/hid/disp/graphics_common.h ****         return {
 153:../../../libDaisy//src/hid/disp/graphics_common.h ****             x_, int16_t(y_ + pxToTrim), width_, int16_t(height_ - pxToTrim)};
 154:../../../libDaisy//src/hid/disp/graphics_common.h ****     }
 155:../../../libDaisy//src/hid/disp/graphics_common.h **** 
 156:../../../libDaisy//src/hid/disp/graphics_common.h ****     Rectangle WithTrimmedBottom(int16_t pxToTrim) const
 157:../../../libDaisy//src/hid/disp/graphics_common.h ****     {
 158:../../../libDaisy//src/hid/disp/graphics_common.h ****         return {x_, y_, width_, int16_t(height_ - pxToTrim)};
 159:../../../libDaisy//src/hid/disp/graphics_common.h ****     }
 160:../../../libDaisy//src/hid/disp/graphics_common.h **** 
 161:../../../libDaisy//src/hid/disp/graphics_common.h ****     Rectangle WithCenterX(int16_t centerX) const
 162:../../../libDaisy//src/hid/disp/graphics_common.h ****     {
 163:../../../libDaisy//src/hid/disp/graphics_common.h ****         return {int16_t(x_ + centerX - GetCenterX()), y_, width_, height_};
 164:../../../libDaisy//src/hid/disp/graphics_common.h ****     }
 165:../../../libDaisy//src/hid/disp/graphics_common.h **** 
 166:../../../libDaisy//src/hid/disp/graphics_common.h ****     Rectangle WithCenterY(int16_t centerY) const
 167:../../../libDaisy//src/hid/disp/graphics_common.h ****     {
 168:../../../libDaisy//src/hid/disp/graphics_common.h ****         return {x_, int16_t(y_ + centerY - GetCenterY()), width_, height_};
 169:../../../libDaisy//src/hid/disp/graphics_common.h ****     }
 170:../../../libDaisy//src/hid/disp/graphics_common.h **** 
 171:../../../libDaisy//src/hid/disp/graphics_common.h ****     Rectangle WithCenter(int16_t centerX, int16_t centerY) const
 172:../../../libDaisy//src/hid/disp/graphics_common.h ****     {
 173:../../../libDaisy//src/hid/disp/graphics_common.h ****         return {int16_t(x_ + centerX - GetCenterX()),
 174:../../../libDaisy//src/hid/disp/graphics_common.h ****                 int16_t(y_ + centerY - GetCenterY()),
 175:../../../libDaisy//src/hid/disp/graphics_common.h ****                 width_,
 176:../../../libDaisy//src/hid/disp/graphics_common.h ****                 height_};
 177:../../../libDaisy//src/hid/disp/graphics_common.h ****     }
 178:../../../libDaisy//src/hid/disp/graphics_common.h **** 
 179:../../../libDaisy//src/hid/disp/graphics_common.h ****     Rectangle RemoveFromLeft(int16_t pxToRemove)
ARM GAS  /var/folders/wz/z09yph4n0qj4t7mjxhl6ttn80000gn/T//cc3KzP2n.s 			page 53


 180:../../../libDaisy//src/hid/disp/graphics_common.h ****     {
 181:../../../libDaisy//src/hid/disp/graphics_common.h ****         const auto result = this->WithWidth(min(pxToRemove, width_));
 182:../../../libDaisy//src/hid/disp/graphics_common.h ****         x_ += min(pxToRemove, width_);
 183:../../../libDaisy//src/hid/disp/graphics_common.h ****         width_ = max(int16_t(width_ - pxToRemove), 0);
 184:../../../libDaisy//src/hid/disp/graphics_common.h ****         return result;
 185:../../../libDaisy//src/hid/disp/graphics_common.h ****     }
 186:../../../libDaisy//src/hid/disp/graphics_common.h **** 
 187:../../../libDaisy//src/hid/disp/graphics_common.h ****     Rectangle RemoveFromRight(int16_t pxToRemove)
 188:../../../libDaisy//src/hid/disp/graphics_common.h ****     {
 189:../../../libDaisy//src/hid/disp/graphics_common.h ****         const auto canRemove = min(pxToRemove, width_);
 190:../../../libDaisy//src/hid/disp/graphics_common.h ****         width_ -= canRemove;
 191:../../../libDaisy//src/hid/disp/graphics_common.h ****         return {int16_t(x_ + width_), y_, canRemove, height_};
 192:../../../libDaisy//src/hid/disp/graphics_common.h ****     }
 193:../../../libDaisy//src/hid/disp/graphics_common.h **** 
 194:../../../libDaisy//src/hid/disp/graphics_common.h ****     Rectangle RemoveFromTop(int16_t pxToRemove)
 195:../../../libDaisy//src/hid/disp/graphics_common.h ****     {
 196:../../../libDaisy//src/hid/disp/graphics_common.h ****         const auto result = this->WithHeight(min(pxToRemove, height_));
 197:../../../libDaisy//src/hid/disp/graphics_common.h ****         y_ += min(pxToRemove, height_);
 198:../../../libDaisy//src/hid/disp/graphics_common.h ****         height_ = max(height_ - pxToRemove, 0);
 199:../../../libDaisy//src/hid/disp/graphics_common.h ****         return result;
 200:../../../libDaisy//src/hid/disp/graphics_common.h ****     }
 201:../../../libDaisy//src/hid/disp/graphics_common.h **** 
 202:../../../libDaisy//src/hid/disp/graphics_common.h ****     Rectangle RemoveFromBottom(int16_t pxToRemove)
 203:../../../libDaisy//src/hid/disp/graphics_common.h ****     {
 204:../../../libDaisy//src/hid/disp/graphics_common.h ****         const auto canRemove = min(pxToRemove, height_);
 205:../../../libDaisy//src/hid/disp/graphics_common.h ****         height_ -= canRemove;
 206:../../../libDaisy//src/hid/disp/graphics_common.h ****         return {x_, int16_t(y_ + height_), width_, canRemove};
 207:../../../libDaisy//src/hid/disp/graphics_common.h ****     }
 208:../../../libDaisy//src/hid/disp/graphics_common.h **** 
 209:../../../libDaisy//src/hid/disp/graphics_common.h ****     Rectangle AlignedWithin(const Rectangle& other, Alignment alignment) const
 210:../../../libDaisy//src/hid/disp/graphics_common.h ****     {
 211:../../../libDaisy//src/hid/disp/graphics_common.h ****         switch(alignment)
 212:../../../libDaisy//src/hid/disp/graphics_common.h ****         {
 213:../../../libDaisy//src/hid/disp/graphics_common.h ****             case Alignment::topLeft:
 214:../../../libDaisy//src/hid/disp/graphics_common.h ****                 return {other.x_, other.y_, width_, height_};
 215:../../../libDaisy//src/hid/disp/graphics_common.h ****             case Alignment::topRight:
 216:../../../libDaisy//src/hid/disp/graphics_common.h ****                 return {int16_t(other.GetRight() - width_),
 217:../../../libDaisy//src/hid/disp/graphics_common.h ****                         other.y_,
 218:../../../libDaisy//src/hid/disp/graphics_common.h ****                         width_,
 219:../../../libDaisy//src/hid/disp/graphics_common.h ****                         height_};
 220:../../../libDaisy//src/hid/disp/graphics_common.h ****             case Alignment::topCentered:
 221:../../../libDaisy//src/hid/disp/graphics_common.h ****                 return {int16_t(x_ + (other.GetCenterX() - GetCenterX())),
 222:../../../libDaisy//src/hid/disp/graphics_common.h ****                         other.y_,
 223:../../../libDaisy//src/hid/disp/graphics_common.h ****                         width_,
 224:../../../libDaisy//src/hid/disp/graphics_common.h ****                         height_};
 225:../../../libDaisy//src/hid/disp/graphics_common.h ****             case Alignment::bottomLeft:
 226:../../../libDaisy//src/hid/disp/graphics_common.h ****                 return {other.x_,
 227:../../../libDaisy//src/hid/disp/graphics_common.h ****                         int16_t(other.GetBottom() - height_),
 228:../../../libDaisy//src/hid/disp/graphics_common.h ****                         width_,
 229:../../../libDaisy//src/hid/disp/graphics_common.h ****                         height_};
 230:../../../libDaisy//src/hid/disp/graphics_common.h ****             case Alignment::bottomRight:
 231:../../../libDaisy//src/hid/disp/graphics_common.h ****                 return {int16_t(other.GetRight() - width_),
 232:../../../libDaisy//src/hid/disp/graphics_common.h ****                         int16_t(other.GetBottom() - height_),
 233:../../../libDaisy//src/hid/disp/graphics_common.h ****                         width_,
 234:../../../libDaisy//src/hid/disp/graphics_common.h ****                         height_};
 235:../../../libDaisy//src/hid/disp/graphics_common.h ****             case Alignment::bottomCentered:
 236:../../../libDaisy//src/hid/disp/graphics_common.h ****                 return {int16_t(x_ + (other.GetCenterX() - GetCenterX())),
ARM GAS  /var/folders/wz/z09yph4n0qj4t7mjxhl6ttn80000gn/T//cc3KzP2n.s 			page 54


 237:../../../libDaisy//src/hid/disp/graphics_common.h ****                         int16_t(other.GetBottom() - height_),
 238:../../../libDaisy//src/hid/disp/graphics_common.h ****                         width_,
 239:../../../libDaisy//src/hid/disp/graphics_common.h ****                         height_};
 240:../../../libDaisy//src/hid/disp/graphics_common.h ****             case Alignment::centeredLeft:
 241:../../../libDaisy//src/hid/disp/graphics_common.h ****                 return {other.x_,
 242:../../../libDaisy//src/hid/disp/graphics_common.h ****                         int16_t(y_ + (other.GetCenterY() - GetCenterY())),
 243:../../../libDaisy//src/hid/disp/graphics_common.h ****                         width_,
 244:../../../libDaisy//src/hid/disp/graphics_common.h ****                         height_};
 245:../../../libDaisy//src/hid/disp/graphics_common.h ****             case Alignment::centeredRight:
 246:../../../libDaisy//src/hid/disp/graphics_common.h ****                 return {int16_t(other.GetRight() - width_),
 247:../../../libDaisy//src/hid/disp/graphics_common.h ****                         int16_t(y_ + (other.GetCenterY() - GetCenterY())),
 248:../../../libDaisy//src/hid/disp/graphics_common.h ****                         width_,
 249:../../../libDaisy//src/hid/disp/graphics_common.h ****                         height_};
 250:../../../libDaisy//src/hid/disp/graphics_common.h ****             case Alignment::centered:
 251:../../../libDaisy//src/hid/disp/graphics_common.h ****                 return {int16_t(x_ + (other.GetCenterX() - GetCenterX())),
 252:../../../libDaisy//src/hid/disp/graphics_common.h ****                         int16_t(y_ + (other.GetCenterY() - GetCenterY())),
 253:../../../libDaisy//src/hid/disp/graphics_common.h ****                         width_,
 254:../../../libDaisy//src/hid/disp/graphics_common.h ****                         height_};
 255:../../../libDaisy//src/hid/disp/graphics_common.h ****             default: return {};
 256:../../../libDaisy//src/hid/disp/graphics_common.h ****         }
 257:../../../libDaisy//src/hid/disp/graphics_common.h ****     }
 258:../../../libDaisy//src/hid/disp/graphics_common.h **** 
 259:../../../libDaisy//src/hid/disp/graphics_common.h ****   private:
 260:../../../libDaisy//src/hid/disp/graphics_common.h ****     int16_t x_, y_, width_, height_;
 261:../../../libDaisy//src/hid/disp/graphics_common.h ****     int16_t max(int16_t a, int16_t b) { return (a > b) ? a : b; }
 1166              		.loc 3 261 13 is_stmt 1 view .LVU331
 1167              	.LBE337:
 1168              	.LBE340:
 1169              	.LBE345:
 1170              	.LBE365:
 1171              	.LBE333:
 1172              	.LBE332:
 1173              	.LBE331:
 1174              		.loc 3 261 41 view .LVU332
 1175              	.LBB492:
 1176              	.LBB477:
 1177              	.LBB462:
 1178              	.LBB366:
 1179              	.LBB346:
 1180              	.LBB341:
  32:../../../libDaisy//src/hid/disp/graphics_common.h ****     {
 1181              		.loc 3 32 66 is_stmt 0 view .LVU333
 1182 0024 4FF49E73 		mov	r3, #316
 1183              	.LBE341:
 1184              	.LBE346:
 1185              	.LBE366:
  36:GUI/FX/DelayView.cpp **** 
  37:GUI/FX/DelayView.cpp ****         // Header and effect name
  38:GUI/FX/DelayView.cpp ****         char headerText[50];
  39:GUI/FX/DelayView.cpp ****         snprintf(headerText, sizeof(headerText), "Track %d-%s", trackID, "Delay");
  40:GUI/FX/DelayView.cpp ****         lcd->DrawRect(Rectangle(10, 10, StyleSheet::Effects::screenWidth - 20, StyleSheet::Effects:
  41:GUI/FX/DelayView.cpp ****         lcd->WriteString(headerText, 15, 15, Font_16x26, StyleSheet::Effects::textColor);
 1186              		.loc 4 41 25 view .LVU334
 1187 0028 0426     		movs	r6, #4
 1188 002a 04F1680A 		add	r10, r4, #104
 1189              	.LBB367:
 1190              	.LBB347:
ARM GAS  /var/folders/wz/z09yph4n0qj4t7mjxhl6ttn80000gn/T//cc3KzP2n.s 			page 55


 1191              	.LBB342:
  32:../../../libDaisy//src/hid/disp/graphics_common.h ****     {
 1192              		.loc 3 32 66 view .LVU335
 1193 002e ADF82830 		strh	r3, [sp, #40]	@ movhi
 1194              	.LVL99:
 1195              	.LBB338:
 1196              	.LBI338:
 1197              		.loc 3 261 13 is_stmt 1 view .LVU336
 1198              	.LBE338:
 1199              	.LBE342:
 1200              	.LBE347:
 1201              	.LBE367:
 1202              	.LBE462:
 1203              	.LBE477:
 1204              	.LBE492:
 1205              		.loc 3 261 41 view .LVU337
 1206              	.LBB493:
 1207              	.LBB478:
 1208              	.LBB463:
 1209              	.LBB368:
 1210              	.LBB348:
 1211              	.LBB343:
  32:../../../libDaisy//src/hid/disp/graphics_common.h ****     {
 1212              		.loc 3 32 66 is_stmt 0 view .LVU338
 1213 0032 EC23     		movs	r3, #236
 1214 0034 ADF82A30 		strh	r3, [sp, #42]	@ movhi
 1215              	.LVL100:
  32:../../../libDaisy//src/hid/disp/graphics_common.h ****     {
 1216              		.loc 3 32 66 view .LVU339
 1217              	.LBE343:
 1218              	.LBE348:
 1219              	.LBE368:
  35:GUI/FX/DelayView.cpp **** 
 1220              		.loc 4 35 22 view .LVU340
 1221 0038 FF23     		movs	r3, #255
 1222 003a FFF7FEFF 		bl	_ZN8UiDriver8DrawRectERKN5daisy9RectangleEhh
 1223              	.LVL101:
  38:GUI/FX/DelayView.cpp ****         snprintf(headerText, sizeof(headerText), "Track %d-%s", trackID, "Delay");
 1224              		.loc 4 38 9 is_stmt 1 view .LVU341
  39:GUI/FX/DelayView.cpp ****         lcd->DrawRect(Rectangle(10, 10, StyleSheet::Effects::screenWidth - 20, StyleSheet::Effects:
 1225              		.loc 4 39 9 view .LVU342
  39:GUI/FX/DelayView.cpp ****         lcd->DrawRect(Rectangle(10, 10, StyleSheet::Effects::screenWidth - 20, StyleSheet::Effects:
 1226              		.loc 4 39 17 is_stmt 0 view .LVU343
 1227 003e 594B     		ldr	r3, .L62
 1228 0040 594A     		ldr	r2, .L62+4
 1229 0042 3221     		movs	r1, #50
 1230 0044 0093     		str	r3, [sp]
 1231 0046 09A8     		add	r0, sp, #36
 1232 0048 2368     		ldr	r3, [r4]
 1233 004a FFF7FEFF 		bl	snprintf
 1234              	.LVL102:
  40:GUI/FX/DelayView.cpp ****         lcd->WriteString(headerText, 15, 15, Font_16x26, StyleSheet::Effects::textColor);
 1235              		.loc 4 40 9 is_stmt 1 view .LVU344
 1236              	.LBB369:
 1237              	.LBI350:
  31:../../../libDaisy//src/hid/disp/graphics_common.h ****     : x_(x), y_(y), width_(max(0, width)), height_(max(0, height))
 1238              		.loc 3 31 5 view .LVU345
ARM GAS  /var/folders/wz/z09yph4n0qj4t7mjxhl6ttn80000gn/T//cc3KzP2n.s 			page 56


 1239              	.LBB360:
 1240              	.LBB355:
  32:../../../libDaisy//src/hid/disp/graphics_common.h ****     {
 1241              		.loc 3 32 66 is_stmt 0 view .LVU346
 1242 004e 4FF49673 		mov	r3, #300
 1243              	.LBE355:
 1244              	.LBE360:
 1245              	.LBE369:
  40:GUI/FX/DelayView.cpp ****         lcd->WriteString(headerText, 15, 15, Font_16x26, StyleSheet::Effects::textColor);
 1246              		.loc 4 40 22 view .LVU347
 1247 0052 0422     		movs	r2, #4
 1248 0054 07A9     		add	r1, sp, #28
 1249              	.LVL103:
 1250              	.LBB370:
 1251              	.LBB361:
 1252              	.LBB356:
  32:../../../libDaisy//src/hid/disp/graphics_common.h ****     {
 1253              		.loc 3 32 66 view .LVU348
 1254 0056 ADF82030 		strh	r3, [sp, #32]	@ movhi
 1255 005a 3223     		movs	r3, #50
 1256              	.LBE356:
 1257              	.LBE361:
 1258              	.LBE370:
  40:GUI/FX/DelayView.cpp ****         lcd->WriteString(headerText, 15, 15, Font_16x26, StyleSheet::Effects::textColor);
 1259              		.loc 4 40 22 view .LVU349
 1260 005c 6068     		ldr	r0, [r4, #4]
 1261              	.LBB371:
 1262              	.LBB362:
 1263              	.LBB357:
  32:../../../libDaisy//src/hid/disp/graphics_common.h ****     {
 1264              		.loc 3 32 66 view .LVU350
 1265 005e ADF82230 		strh	r3, [sp, #34]	@ movhi
 1266              	.LBE357:
 1267              	.LBE362:
 1268              	.LBE371:
  40:GUI/FX/DelayView.cpp ****         lcd->WriteString(headerText, 15, 15, Font_16x26, StyleSheet::Effects::textColor);
 1269              		.loc 4 40 22 view .LVU351
 1270 0062 FF23     		movs	r3, #255
 1271              	.LBB372:
 1272              	.LBB363:
 1273              	.LBB358:
  32:../../../libDaisy//src/hid/disp/graphics_common.h ****     {
 1274              		.loc 3 32 66 view .LVU352
 1275 0064 ADF81C70 		strh	r7, [sp, #28]	@ movhi
 1276 0068 ADF81E70 		strh	r7, [sp, #30]	@ movhi
 1277              	.LVL104:
 1278              	.LBB353:
 1279              	.LBI353:
 1280              		.loc 3 261 13 is_stmt 1 view .LVU353
 1281              	.LBE353:
 1282              	.LBE358:
 1283              	.LBE363:
 1284              	.LBE372:
 1285              	.LBE463:
 1286              	.LBE478:
 1287              	.LBE493:
 1288              		.loc 3 261 41 view .LVU354
ARM GAS  /var/folders/wz/z09yph4n0qj4t7mjxhl6ttn80000gn/T//cc3KzP2n.s 			page 57


 1289              	.LBB494:
 1290              	.LBB479:
 1291              	.LBB464:
 1292              	.LBB373:
 1293              	.LBB364:
 1294              	.LBB359:
 1295              	.LBB354:
 1296              	.LBI354:
 1297              		.loc 3 261 13 view .LVU355
 1298              	.LBE354:
 1299              	.LBE359:
 1300              	.LBE364:
 1301              	.LBE373:
 1302              	.LBE464:
 1303              	.LBE479:
 1304              	.LBE494:
 1305              		.loc 3 261 41 view .LVU356
 1306              	.LBB495:
 1307              	.LBB480:
 1308              	.LBB465:
  40:GUI/FX/DelayView.cpp ****         lcd->WriteString(headerText, 15, 15, Font_16x26, StyleSheet::Effects::textColor);
 1309              		.loc 4 40 22 is_stmt 0 view .LVU357
 1310 006c FFF7FEFF 		bl	_ZN8UiDriver8DrawRectERKN5daisy9RectangleEhh
 1311              	.LVL105:
 1312              		.loc 4 41 9 is_stmt 1 view .LVU358
 1313              		.loc 4 41 25 is_stmt 0 view .LVU359
 1314 0070 4E4B     		ldr	r3, .L62+8
 1315 0072 09A9     		add	r1, sp, #36
 1316 0074 0396     		str	r6, [sp, #12]
 1317 0076 5A68     		ldr	r2, [r3, #4]
 1318 0078 6068     		ldr	r0, [r4, #4]
 1319 007a 0292     		str	r2, [sp, #8]
 1320 007c 5A78     		ldrb	r2, [r3, #1]	@ zero_extendqisi2
 1321 007e 0192     		str	r2, [sp, #4]
 1322 0080 1B78     		ldrb	r3, [r3]	@ zero_extendqisi2
 1323 0082 0093     		str	r3, [sp]
 1324 0084 0F23     		movs	r3, #15
 1325 0086 1A46     		mov	r2, r3
 1326 0088 FFF7FEFF 		bl	_ZN8UiDriver11WriteStringEPKctt7FontDefh.isra.0
 1327              	.LVL106:
  42:GUI/FX/DelayView.cpp **** 
  43:GUI/FX/DelayView.cpp ****         uint16_t bypassButtonY = StyleSheet::Effects::headerHeight + 15; ///
 1328              		.loc 4 43 9 is_stmt 1 view .LVU360
  44:GUI/FX/DelayView.cpp ****         Rectangle bypassButtonRect(10, bypassButtonY, StyleSheet::Effects::bypassButtonWidth, Style
 1329              		.loc 4 44 9 view .LVU361
 1330              	.LBB374:
 1331              	.LBI374:
  31:../../../libDaisy//src/hid/disp/graphics_common.h ****     : x_(x), y_(y), width_(max(0, width)), height_(max(0, height))
 1332              		.loc 3 31 5 view .LVU362
 1333              	.LBB375:
 1334              	.LBI375:
 1335              		.loc 3 261 13 view .LVU363
 1336              	.LBE375:
 1337              	.LBE374:
 1338              	.LBE465:
 1339              	.LBE480:
 1340              	.LBE495:
ARM GAS  /var/folders/wz/z09yph4n0qj4t7mjxhl6ttn80000gn/T//cc3KzP2n.s 			page 58


 1341              		.loc 3 261 41 view .LVU364
 1342              	.LBB496:
 1343              	.LBB481:
 1344              	.LBB466:
 1345              	.LBB377:
 1346              	.LBB376:
 1347              	.LBI376:
 1348              		.loc 3 261 13 view .LVU365
 1349              	.LBE376:
 1350              	.LBE377:
 1351              	.LBE466:
 1352              	.LBE481:
 1353              	.LBE496:
 1354              		.loc 3 261 41 view .LVU366
 1355              	.LBB497:
 1356              	.LBB482:
 1357              	.LBB467:
  45:GUI/FX/DelayView.cpp ****         uint16_t startY = bypassButtonRect.GetY() + StyleSheet::Effects::bypassButtonHeight + 30; 
 1358              		.loc 4 45 9 view .LVU367
 1359              		.loc 4 45 9 is_stmt 0 view .LVU368
 1360              	.LBE467:
 1361              	.LBE482:
 1362              	.LBE497:
  57:../../../libDaisy//src/hid/disp/graphics_common.h ****     int16_t GetWidth() const { return width_; }
 1363              		.loc 3 57 28 is_stmt 1 view .LVU369
 1364              	.LBB498:
 1365              	.LBB483:
 1366              	.LBB468:
  46:GUI/FX/DelayView.cpp **** 
  47:GUI/FX/DelayView.cpp ****         bypass.repaint();
 1367              		.loc 4 47 9 view .LVU370
 1368              	.LBB378:
 1369              	.LBI378:
 1370              		.file 5 "GUI/FX/BypassButton.h"
   1:GUI/FX/BypassButton.h **** #ifndef BYPASSBUTTON_H
   2:GUI/FX/BypassButton.h **** #define BYPASSBUTTON_H
   3:GUI/FX/BypassButton.h **** 
   4:GUI/FX/BypassButton.h **** #include "../../Drivers/EncoderDriver.h"
   5:GUI/FX/BypassButton.h **** #include "StyleSheet.h"
   6:GUI/FX/BypassButton.h **** 
   7:GUI/FX/BypassButton.h **** /********************************************************//**
   8:GUI/FX/BypassButton.h ****  *  Class name: BypassButton
   9:GUI/FX/BypassButton.h ****  *  Function: Button used for bypassing an effect
  10:GUI/FX/BypassButton.h ****  ***********************************************************/
  11:GUI/FX/BypassButton.h **** 
  12:GUI/FX/BypassButton.h **** class BypassButton 
  13:GUI/FX/BypassButton.h **** {
  14:GUI/FX/BypassButton.h **** public:
  15:GUI/FX/BypassButton.h **** 
  16:GUI/FX/BypassButton.h ****     /***********************************************************************//**
  17:GUI/FX/BypassButton.h ****     * @brief Initialises the instance
  18:GUI/FX/BypassButton.h ****     * @param ed A pointer to the encoder driver
  19:GUI/FX/BypassButton.h ****     * @param uid A pointer to the LCD driver
  20:GUI/FX/BypassButton.h ****     * @param bypassCallback The function to be called when the bypass is set
  21:GUI/FX/BypassButton.h ****     ***************************************************************************/
  22:GUI/FX/BypassButton.h ****     void init(EncoderDriver* ed, UiDriver* uid, std::function<void()> bypassCallback)
  23:GUI/FX/BypassButton.h ****     {
ARM GAS  /var/folders/wz/z09yph4n0qj4t7mjxhl6ttn80000gn/T//cc3KzP2n.s 			page 59


  24:GUI/FX/BypassButton.h ****         encoder = ed;
  25:GUI/FX/BypassButton.h ****         lcd = uid;
  26:GUI/FX/BypassButton.h **** 
  27:GUI/FX/BypassButton.h ****         callback = bypassCallback;
  28:GUI/FX/BypassButton.h ****         isSelected = false;
  29:GUI/FX/BypassButton.h ****         isBypassed = true;
  30:GUI/FX/BypassButton.h ****     }
  31:GUI/FX/BypassButton.h **** 
  32:GUI/FX/BypassButton.h ****     /***********************************************************************//**
  33:GUI/FX/BypassButton.h ****     * @brief Checks if the bypass state needs to be changed
  34:GUI/FX/BypassButton.h ****     ***************************************************************************/
  35:GUI/FX/BypassButton.h ****     void tick()
  36:GUI/FX/BypassButton.h ****     {
  37:GUI/FX/BypassButton.h ****         if(isSelected && encoder->getButtonState())
  38:GUI/FX/BypassButton.h ****         {
  39:GUI/FX/BypassButton.h ****             callback();
  40:GUI/FX/BypassButton.h ****             isBypassed = !isBypassed;
  41:GUI/FX/BypassButton.h ****         }
  42:GUI/FX/BypassButton.h ****     }
  43:GUI/FX/BypassButton.h **** 
  44:GUI/FX/BypassButton.h ****     /***********************************************************************//**
  45:GUI/FX/BypassButton.h ****     * @brief Handles the repainting of the button
  46:GUI/FX/BypassButton.h ****     ***************************************************************************/
  47:GUI/FX/BypassButton.h ****     void repaint()
 1371              		.loc 5 47 10 view .LVU371
 1372              	.LBB379:
  48:GUI/FX/BypassButton.h ****     {
  49:GUI/FX/BypassButton.h ****         // Draw on/off button for Bypass
  50:GUI/FX/BypassButton.h ****         uint16_t bypassButtonY = StyleSheet::Effects::headerHeight + 15; ///
 1373              		.loc 5 50 9 view .LVU372
  51:GUI/FX/BypassButton.h ****         uint16_t buttonColor = isBypassed? COLOR_GREEN : COLOR_RED;
 1374              		.loc 5 51 9 view .LVU373
 1375              		.loc 5 51 42 is_stmt 0 view .LVU374
 1376 008c 94F82530 		ldrb	r3, [r4, #37]	@ zero_extendqisi2
  52:GUI/FX/BypassButton.h ****         Rectangle bypassButtonRect(10, bypassButtonY, StyleSheet::Effects::bypassButtonWidth, Style
  53:GUI/FX/BypassButton.h ****         lcd->FillRect(bypassButtonRect, buttonColor);
 1377              		.loc 5 53 22 view .LVU375
 1378 0090 07A9     		add	r1, sp, #28
 1379 0092 2069     		ldr	r0, [r4, #16]
  51:GUI/FX/BypassButton.h ****         uint16_t buttonColor = isBypassed? COLOR_GREEN : COLOR_RED;
 1380              		.loc 5 51 42 view .LVU376
 1381 0094 002B     		cmp	r3, #0
 1382              	.LVL107:
  52:GUI/FX/BypassButton.h ****         Rectangle bypassButtonRect(10, bypassButtonY, StyleSheet::Effects::bypassButtonWidth, Style
 1383              		.loc 5 52 9 is_stmt 1 view .LVU377
 1384              	.LBB380:
 1385              	.LBI380:
  31:../../../libDaisy//src/hid/disp/graphics_common.h ****     : x_(x), y_(y), width_(max(0, width)), height_(max(0, height))
 1386              		.loc 3 31 5 view .LVU378
 1387              	.LBB381:
 1388              	.LBB382:
  32:../../../libDaisy//src/hid/disp/graphics_common.h ****     {
 1389              		.loc 3 32 66 is_stmt 0 view .LVU379
 1390 0096 4FF04103 		mov	r3, #65
 1391 009a ADF81C70 		strh	r7, [sp, #28]	@ movhi
 1392 009e ADF81E30 		strh	r3, [sp, #30]	@ movhi
 1393              	.LVL108:
ARM GAS  /var/folders/wz/z09yph4n0qj4t7mjxhl6ttn80000gn/T//cc3KzP2n.s 			page 60


 1394              	.LBB383:
 1395              	.LBI383:
 1396              		.loc 3 261 13 is_stmt 1 view .LVU380
 1397              	.LBE383:
 1398              	.LBE382:
 1399              	.LBE381:
 1400              	.LBE380:
 1401              	.LBE379:
 1402              	.LBE378:
 1403              	.LBE468:
 1404              	.LBE483:
 1405              	.LBE498:
 1406              		.loc 3 261 41 view .LVU381
 1407              	.LBB499:
 1408              	.LBB484:
 1409              	.LBB469:
 1410              	.LBB396:
 1411              	.LBB394:
 1412              	.LBB391:
 1413              	.LBB388:
 1414              	.LBB385:
  32:../../../libDaisy//src/hid/disp/graphics_common.h ****     {
 1415              		.loc 3 32 66 is_stmt 0 view .LVU382
 1416 00a2 4FF03C03 		mov	r3, #60
 1417              	.LBE385:
 1418              	.LBE388:
 1419              	.LBE391:
 1420              		.loc 5 53 22 view .LVU383
 1421 00a6 14BF     		ite	ne
 1422 00a8 3A46     		movne	r2, r7
 1423 00aa 0822     		moveq	r2, #8
 1424              	.LBB392:
 1425              	.LBB389:
 1426              	.LBB386:
  32:../../../libDaisy//src/hid/disp/graphics_common.h ****     {
 1427              		.loc 3 32 66 view .LVU384
 1428 00ac ADF82030 		strh	r3, [sp, #32]	@ movhi
 1429              	.LVL109:
 1430              	.LBB384:
 1431              	.LBI384:
 1432              		.loc 3 261 13 is_stmt 1 view .LVU385
 1433              	.LBE384:
 1434              	.LBE386:
 1435              	.LBE389:
 1436              	.LBE392:
 1437              	.LBE394:
 1438              	.LBE396:
 1439              	.LBE469:
 1440              	.LBE484:
 1441              	.LBE499:
 1442              		.loc 3 261 41 view .LVU386
 1443              	.LBB500:
 1444              	.LBB485:
 1445              	.LBB470:
 1446              	.LBB397:
 1447              	.LBB395:
 1448              	.LBB393:
ARM GAS  /var/folders/wz/z09yph4n0qj4t7mjxhl6ttn80000gn/T//cc3KzP2n.s 			page 61


 1449              	.LBB390:
 1450              	.LBB387:
  32:../../../libDaisy//src/hid/disp/graphics_common.h ****     {
 1451              		.loc 3 32 66 is_stmt 0 view .LVU387
 1452 00b0 1E23     		movs	r3, #30
 1453 00b2 ADF82230 		strh	r3, [sp, #34]	@ movhi
 1454              	.LVL110:
  32:../../../libDaisy//src/hid/disp/graphics_common.h ****     {
 1455              		.loc 3 32 66 view .LVU388
 1456              	.LBE387:
 1457              	.LBE390:
 1458              	.LBE393:
 1459              		.loc 5 53 9 is_stmt 1 view .LVU389
 1460              		.loc 5 53 22 is_stmt 0 view .LVU390
 1461 00b6 FF23     		movs	r3, #255
 1462 00b8 FFF7FEFF 		bl	_ZN8UiDriver8FillRectERKN5daisy9RectangleEhh
 1463              	.LVL111:
  54:GUI/FX/BypassButton.h ****         lcd->DrawRect(bypassButtonRect, StyleSheet::Effects::borderColor);
 1464              		.loc 5 54 9 is_stmt 1 view .LVU391
 1465              		.loc 5 54 22 is_stmt 0 view .LVU392
 1466 00bc 3246     		mov	r2, r6
 1467 00be FF23     		movs	r3, #255
 1468 00c0 07A9     		add	r1, sp, #28
 1469 00c2 2069     		ldr	r0, [r4, #16]
 1470 00c4 FFF7FEFF 		bl	_ZN8UiDriver8DrawRectERKN5daisy9RectangleEhh
 1471              	.LVL112:
  55:GUI/FX/BypassButton.h ****         lcd->WriteString(isBypassed ? "On" : "Off", 20, StyleSheet::Effects::headerHeight + 20, Fon
 1472              		.loc 5 55 9 is_stmt 1 view .LVU393
 1473              		.loc 5 55 25 is_stmt 0 view .LVU394
 1474 00c8 394B     		ldr	r3, .L62+12
 1475 00ca 0396     		str	r6, [sp, #12]
  56:GUI/FX/BypassButton.h ****     }
 1476              		.loc 5 56 5 view .LVU395
 1477 00cc 7D26     		movs	r6, #125
  55:GUI/FX/BypassButton.h ****         lcd->WriteString(isBypassed ? "On" : "Off", 20, StyleSheet::Effects::headerHeight + 20, Fon
 1478              		.loc 5 55 25 view .LVU396
 1479 00ce 5A68     		ldr	r2, [r3, #4]
 1480 00d0 94F82570 		ldrb	r7, [r4, #37]	@ zero_extendqisi2
 1481 00d4 0292     		str	r2, [sp, #8]
 1482 00d6 5A78     		ldrb	r2, [r3, #1]	@ zero_extendqisi2
 1483 00d8 3648     		ldr	r0, .L62+16
 1484 00da 0192     		str	r2, [sp, #4]
 1485 00dc 1422     		movs	r2, #20
 1486 00de 1B78     		ldrb	r3, [r3]	@ zero_extendqisi2
 1487 00e0 3549     		ldr	r1, .L62+20
 1488 00e2 0093     		str	r3, [sp]
 1489 00e4 4623     		movs	r3, #70
 1490 00e6 002F     		cmp	r7, #0
 1491 00e8 08BF     		it	eq
 1492 00ea 0146     		moveq	r1, r0
 1493 00ec 2069     		ldr	r0, [r4, #16]
 1494 00ee FFF7FEFF 		bl	_ZN8UiDriver11WriteStringEPKctt7FontDefh.isra.0
 1495              	.LVL113:
 1496              	.L57:
  55:GUI/FX/BypassButton.h ****         lcd->WriteString(isBypassed ? "On" : "Off", 20, StyleSheet::Effects::headerHeight + 20, Fon
 1497              		.loc 5 55 25 view .LVU397
 1498              	.LBE395:
ARM GAS  /var/folders/wz/z09yph4n0qj4t7mjxhl6ttn80000gn/T//cc3KzP2n.s 			page 62


 1499              	.LBE397:
 1500              	.LBB398:
  48:GUI/FX/DelayView.cpp **** 
  49:GUI/FX/DelayView.cpp ****         // Draw parameters for the selected effect
  50:GUI/FX/DelayView.cpp ****         for (int i = 0; parameterNames[i] != nullptr; ++i) 
 1501              		.loc 4 50 43 is_stmt 1 view .LVU398
 1502              		.loc 4 50 41 is_stmt 0 view .LVU399
 1503 00f2 5AF8041B 		ldr	r1, [r10], #4
 1504              		.loc 4 50 43 view .LVU400
 1505 00f6 0029     		cmp	r1, #0
 1506 00f8 4DD0     		beq	.L54
 1507              	.LBB399:
  51:GUI/FX/DelayView.cpp ****         {
  52:GUI/FX/DelayView.cpp ****             uint16_t paramY = startY + (i * StyleSheet::Effects::paramSpacing);
 1508              		.loc 4 52 13 is_stmt 1 view .LVU401
 1509              	.LVL114:
  53:GUI/FX/DelayView.cpp ****             lcd->WriteString(parameterNames[i], 10, paramY + 5, Font_7x10, StyleSheet::Effects::tex
 1510              		.loc 4 53 13 view .LVU402
 1511              		.loc 4 53 29 is_stmt 0 view .LVU403
 1512 00fa 0422     		movs	r2, #4
 1513 00fc 731D     		adds	r3, r6, #5
 1514              	.LBB400:
 1515              	.LBB401:
 1516              	.LBB402:
  32:../../../libDaisy//src/hid/disp/graphics_common.h ****     {
 1517              		.loc 3 32 66 view .LVU404
 1518 00fe 1427     		movs	r7, #20
 1519              	.LBE402:
 1520              	.LBE401:
 1521              	.LBE400:
  54:GUI/FX/DelayView.cpp **** 
  55:GUI/FX/DelayView.cpp ****             // Draw slider for the parameter value
  56:GUI/FX/DelayView.cpp ****             Rectangle sliderRect(StyleSheet::Effects::sliderOffsetX, paramY, StyleSheet::Effects::s
 1522              		.loc 4 56 145 view .LVU405
 1523 0100 0FFA86F8 		sxth	r8, r6
  53:GUI/FX/DelayView.cpp **** 
 1524              		.loc 4 53 29 view .LVU406
 1525 0104 0392     		str	r2, [sp, #12]
 1526              	.LBB415:
 1527              	.LBB410:
 1528              	.LBB405:
  32:../../../libDaisy//src/hid/disp/graphics_common.h ****     {
 1529              		.loc 3 32 66 view .LVU407
 1530 0106 4FF08209 		mov	r9, #130
 1531              	.LBE405:
 1532              	.LBE410:
 1533              	.LBE415:
  53:GUI/FX/DelayView.cpp **** 
 1534              		.loc 4 53 29 view .LVU408
 1535 010a 2C4A     		ldr	r2, .L62+24
 1536 010c 9BB2     		uxth	r3, r3
 1537              	.LBB416:
 1538              	.LBB411:
 1539              	.LBB406:
  32:../../../libDaisy//src/hid/disp/graphics_common.h ****     {
 1540              		.loc 3 32 66 view .LVU409
 1541 010e 4FF0B40B 		mov	fp, #180
ARM GAS  /var/folders/wz/z09yph4n0qj4t7mjxhl6ttn80000gn/T//cc3KzP2n.s 			page 63


 1542 0112 2336     		adds	r6, r6, #35
 1543              	.LVL115:
  32:../../../libDaisy//src/hid/disp/graphics_common.h ****     {
 1544              		.loc 3 32 66 view .LVU410
 1545              	.LBE406:
 1546              	.LBE411:
 1547              	.LBE416:
  53:GUI/FX/DelayView.cpp **** 
 1548              		.loc 4 53 29 view .LVU411
 1549 0114 5068     		ldr	r0, [r2, #4]
 1550 0116 B6B2     		uxth	r6, r6
 1551 0118 0290     		str	r0, [sp, #8]
 1552 011a 5078     		ldrb	r0, [r2, #1]	@ zero_extendqisi2
 1553 011c 0190     		str	r0, [sp, #4]
 1554 011e 1278     		ldrb	r2, [r2]	@ zero_extendqisi2
 1555 0120 6068     		ldr	r0, [r4, #4]
 1556 0122 0092     		str	r2, [sp]
 1557 0124 0A22     		movs	r2, #10
 1558 0126 FFF7FEFF 		bl	_ZN8UiDriver11WriteStringEPKctt7FontDefh.isra.0
 1559              	.LVL116:
 1560              		.loc 4 56 13 is_stmt 1 view .LVU412
 1561              	.LBB417:
 1562              	.LBI400:
  31:../../../libDaisy//src/hid/disp/graphics_common.h ****     : x_(x), y_(y), width_(max(0, width)), height_(max(0, height))
 1563              		.loc 3 31 5 view .LVU413
 1564              	.LBE417:
  57:GUI/FX/DelayView.cpp ****             //Rectangle sliderRect(screenWidth - sliderWidth - 10, paramY, sliderWidth, sliderHeigh
  58:GUI/FX/DelayView.cpp ****             lcd->FillRect(sliderRect, StyleSheet::Effects::sliderBackColor);
 1565              		.loc 4 58 26 is_stmt 0 view .LVU414
 1566 012a FF23     		movs	r3, #255
 1567 012c 0022     		movs	r2, #0
 1568 012e 0DEB0701 		add	r1, sp, r7
 1569 0132 6068     		ldr	r0, [r4, #4]
 1570              	.LBB418:
 1571              	.LBB412:
 1572              	.LBB407:
  32:../../../libDaisy//src/hid/disp/graphics_common.h ****     {
 1573              		.loc 3 32 66 view .LVU415
 1574 0134 ADF81490 		strh	r9, [sp, #20]	@ movhi
 1575 0138 ADF81680 		strh	r8, [sp, #22]	@ movhi
 1576              	.LVL117:
 1577              	.LBB403:
 1578              	.LBI403:
 1579              		.loc 3 261 13 is_stmt 1 view .LVU416
 1580              	.LBE403:
 1581              	.LBE407:
 1582              	.LBE412:
 1583              	.LBE418:
 1584              	.LBE399:
 1585              	.LBE398:
 1586              	.LBE470:
 1587              	.LBE485:
 1588              	.LBE500:
 1589              		.loc 3 261 41 view .LVU417
 1590              	.LBB501:
 1591              	.LBB486:
 1592              	.LBB471:
ARM GAS  /var/folders/wz/z09yph4n0qj4t7mjxhl6ttn80000gn/T//cc3KzP2n.s 			page 64


 1593              	.LBB456:
 1594              	.LBB450:
 1595              	.LBB419:
 1596              	.LBB413:
 1597              	.LBB408:
  32:../../../libDaisy//src/hid/disp/graphics_common.h ****     {
 1598              		.loc 3 32 66 is_stmt 0 view .LVU418
 1599 013c ADF818B0 		strh	fp, [sp, #24]	@ movhi
 1600              	.LVL118:
 1601              	.LBB404:
 1602              	.LBI404:
 1603              		.loc 3 261 13 is_stmt 1 view .LVU419
 1604              	.LBE404:
 1605              	.LBE408:
 1606              	.LBE413:
 1607              	.LBE419:
 1608              	.LBE450:
 1609              	.LBE456:
 1610              	.LBE471:
 1611              	.LBE486:
 1612              	.LBE501:
 1613              		.loc 3 261 41 view .LVU420
 1614              	.LBB502:
 1615              	.LBB487:
 1616              	.LBB472:
 1617              	.LBB457:
 1618              	.LBB451:
 1619              	.LBB420:
 1620              	.LBB414:
 1621              	.LBB409:
  32:../../../libDaisy//src/hid/disp/graphics_common.h ****     {
 1622              		.loc 3 32 66 is_stmt 0 view .LVU421
 1623 0140 ADF81A70 		strh	r7, [sp, #26]	@ movhi
 1624              	.LVL119:
  32:../../../libDaisy//src/hid/disp/graphics_common.h ****     {
 1625              		.loc 3 32 66 view .LVU422
 1626              	.LBE409:
 1627              	.LBE414:
 1628              	.LBE420:
 1629              		.loc 4 58 13 is_stmt 1 view .LVU423
 1630              		.loc 4 58 26 is_stmt 0 view .LVU424
 1631 0144 FFF7FEFF 		bl	_ZN8UiDriver8FillRectERKN5daisy9RectangleEhh
 1632              	.LVL120:
  59:GUI/FX/DelayView.cpp ****             // Slider foreground representing the actual parameter value (this part is just for ill
  60:GUI/FX/DelayView.cpp ****             lcd->FillRect(Rectangle(StyleSheet::Effects::sliderOffsetX, paramY, StyleSheet::Effects
 1633              		.loc 4 60 13 is_stmt 1 view .LVU425
 1634              	.LBB421:
 1635              	.LBI421:
  31:../../../libDaisy//src/hid/disp/graphics_common.h ****     : x_(x), y_(y), width_(max(0, width)), height_(max(0, height))
 1636              		.loc 3 31 5 view .LVU426
 1637              	.LBB422:
 1638              	.LBB423:
  32:../../../libDaisy//src/hid/disp/graphics_common.h ****     {
 1639              		.loc 3 32 66 is_stmt 0 view .LVU427
 1640 0148 5A23     		movs	r3, #90
 1641              	.LBE423:
 1642              	.LBE422:
ARM GAS  /var/folders/wz/z09yph4n0qj4t7mjxhl6ttn80000gn/T//cc3KzP2n.s 			page 65


 1643              	.LBE421:
 1644              		.loc 4 60 26 view .LVU428
 1645 014a 626F     		ldr	r2, [r4, #116]
 1646 014c 07A9     		add	r1, sp, #28
 1647              	.LVL121:
 1648              		.loc 4 60 26 view .LVU429
 1649 014e 6068     		ldr	r0, [r4, #4]
 1650 0150 9542     		cmp	r5, r2
 1651 0152 0CBF     		ite	eq
 1652 0154 0A22     		moveq	r2, #10
 1653 0156 0222     		movne	r2, #2
 1654              	.LBB434:
 1655              	.LBB430:
 1656              	.LBB426:
  32:../../../libDaisy//src/hid/disp/graphics_common.h ****     {
 1657              		.loc 3 32 66 view .LVU430
 1658 0158 ADF82030 		strh	r3, [sp, #32]	@ movhi
 1659              	.LBE426:
 1660              	.LBE430:
 1661              	.LBE434:
 1662              		.loc 4 60 26 view .LVU431
 1663 015c FF23     		movs	r3, #255
 1664              	.LBB435:
 1665              	.LBB431:
 1666              	.LBB427:
  32:../../../libDaisy//src/hid/disp/graphics_common.h ****     {
 1667              		.loc 3 32 66 view .LVU432
 1668 015e ADF81C90 		strh	r9, [sp, #28]	@ movhi
 1669 0162 ADF81E80 		strh	r8, [sp, #30]	@ movhi
 1670              	.LVL122:
 1671              	.LBB424:
 1672              	.LBI424:
 1673              		.loc 3 261 13 is_stmt 1 view .LVU433
 1674              	.LBE424:
 1675              	.LBE427:
 1676              	.LBE431:
 1677              	.LBE435:
 1678              	.LBE451:
 1679              	.LBE457:
 1680              	.LBE472:
 1681              	.LBE487:
 1682              	.LBE502:
 1683              		.loc 3 261 41 view .LVU434
 1684              	.LBB503:
 1685              	.LBB488:
 1686              	.LBB473:
 1687              	.LBB458:
 1688              	.LBB452:
 1689              	.LBB436:
 1690              	.LBB432:
 1691              	.LBB428:
 1692              	.LBB425:
 1693              	.LBI425:
 1694              		.loc 3 261 13 view .LVU435
 1695              	.LBE425:
 1696              	.LBE428:
 1697              	.LBE432:
ARM GAS  /var/folders/wz/z09yph4n0qj4t7mjxhl6ttn80000gn/T//cc3KzP2n.s 			page 66


 1698              	.LBE436:
 1699              	.LBE452:
 1700              	.LBE458:
 1701              	.LBE473:
 1702              	.LBE488:
 1703              	.LBE503:
 1704              		.loc 3 261 41 view .LVU436
 1705              	.LBB504:
 1706              	.LBB489:
 1707              	.LBB474:
 1708              	.LBB459:
 1709              	.LBB453:
 1710              	.LBB437:
 1711              	.LBB433:
 1712              	.LBB429:
  32:../../../libDaisy//src/hid/disp/graphics_common.h ****     {
 1713              		.loc 3 32 66 is_stmt 0 view .LVU437
 1714 0166 ADF82270 		strh	r7, [sp, #34]	@ movhi
 1715              	.LVL123:
  32:../../../libDaisy//src/hid/disp/graphics_common.h ****     {
 1716              		.loc 3 32 66 view .LVU438
 1717              	.LBE429:
 1718              	.LBE433:
 1719              	.LBE437:
 1720              		.loc 4 60 26 view .LVU439
 1721 016a FFF7FEFF 		bl	_ZN8UiDriver8FillRectERKN5daisy9RectangleEhh
 1722              	.LVL124:
  61:GUI/FX/DelayView.cpp ****             // Slider border
  62:GUI/FX/DelayView.cpp ****             lcd->DrawRect(Rectangle(StyleSheet::Effects::sliderOffsetX, paramY, StyleSheet::Effects
 1723              		.loc 4 62 13 is_stmt 1 view .LVU440
 1724              	.LBB438:
 1725              	.LBI438:
  31:../../../libDaisy//src/hid/disp/graphics_common.h ****     : x_(x), y_(y), width_(max(0, width)), height_(max(0, height))
 1726              		.loc 3 31 5 view .LVU441
 1727              	.LBE438:
 1728              		.loc 4 62 26 is_stmt 0 view .LVU442
 1729 016e 626F     		ldr	r2, [r4, #116]
 1730 0170 FF23     		movs	r3, #255
 1731 0172 07A9     		add	r1, sp, #28
 1732              	.LVL125:
 1733              		.loc 4 62 26 view .LVU443
 1734 0174 6068     		ldr	r0, [r4, #4]
 1735 0176 9542     		cmp	r5, r2
 1736 0178 0CBF     		ite	eq
 1737 017a 0A22     		moveq	r2, #10
 1738 017c 0222     		movne	r2, #2
 1739              	.LBB447:
 1740              	.LBB439:
 1741              	.LBB440:
  32:../../../libDaisy//src/hid/disp/graphics_common.h ****     {
 1742              		.loc 3 32 66 view .LVU444
 1743 017e ADF81C90 		strh	r9, [sp, #28]	@ movhi
 1744 0182 ADF81E80 		strh	r8, [sp, #30]	@ movhi
 1745              	.LVL126:
 1746              	.LBB441:
 1747              	.LBI441:
 1748              		.loc 3 261 13 is_stmt 1 view .LVU445
ARM GAS  /var/folders/wz/z09yph4n0qj4t7mjxhl6ttn80000gn/T//cc3KzP2n.s 			page 67


 1749              	.LBE441:
 1750              	.LBE440:
 1751              	.LBE439:
 1752              	.LBE447:
 1753              	.LBE453:
 1754              	.LBE459:
 1755              	.LBE474:
 1756              	.LBE489:
 1757              	.LBE504:
 1758              		.loc 3 261 41 view .LVU446
 1759              	.LBB505:
 1760              	.LBB490:
 1761              	.LBB475:
 1762              	.LBB460:
  50:GUI/FX/DelayView.cpp ****         {
 1763              		.loc 4 50 9 is_stmt 0 view .LVU447
 1764 0186 0135     		adds	r5, r5, #1
 1765              	.LVL127:
 1766              	.LBB454:
 1767              	.LBB448:
 1768              	.LBB445:
 1769              	.LBB443:
  32:../../../libDaisy//src/hid/disp/graphics_common.h ****     {
 1770              		.loc 3 32 66 view .LVU448
 1771 0188 ADF820B0 		strh	fp, [sp, #32]	@ movhi
 1772              	.LVL128:
 1773              	.LBB442:
 1774              	.LBI442:
 1775              		.loc 3 261 13 is_stmt 1 view .LVU449
 1776              	.LBE442:
 1777              	.LBE443:
 1778              	.LBE445:
 1779              	.LBE448:
 1780              	.LBE454:
 1781              	.LBE460:
 1782              	.LBE475:
 1783              	.LBE490:
 1784              	.LBE505:
 1785              		.loc 3 261 41 view .LVU450
 1786              	.LBB506:
 1787              	.LBB491:
 1788              	.LBB476:
 1789              	.LBB461:
 1790              	.LBB455:
 1791              	.LBB449:
 1792              	.LBB446:
 1793              	.LBB444:
  32:../../../libDaisy//src/hid/disp/graphics_common.h ****     {
 1794              		.loc 3 32 66 is_stmt 0 view .LVU451
 1795 018c ADF82270 		strh	r7, [sp, #34]	@ movhi
 1796              	.LVL129:
  32:../../../libDaisy//src/hid/disp/graphics_common.h ****     {
 1797              		.loc 3 32 66 view .LVU452
 1798              	.LBE444:
 1799              	.LBE446:
 1800              	.LBE449:
 1801              		.loc 4 62 26 view .LVU453
ARM GAS  /var/folders/wz/z09yph4n0qj4t7mjxhl6ttn80000gn/T//cc3KzP2n.s 			page 68


 1802 0190 FFF7FEFF 		bl	_ZN8UiDriver8DrawRectERKN5daisy9RectangleEhh
 1803              	.LVL130:
 1804              	.LBE455:
  50:GUI/FX/DelayView.cpp ****         {
 1805              		.loc 4 50 9 is_stmt 1 view .LVU454
  50:GUI/FX/DelayView.cpp ****         {
 1806              		.loc 4 50 9 is_stmt 0 view .LVU455
 1807 0194 ADE7     		b	.L57
 1808              	.LVL131:
 1809              	.L54:
  50:GUI/FX/DelayView.cpp ****         {
 1810              		.loc 4 50 9 view .LVU456
 1811              	.LBE461:
  63:GUI/FX/DelayView.cpp ****         }
  64:GUI/FX/DelayView.cpp **** 
  65:GUI/FX/DelayView.cpp ****         isPainted = true;
 1812              		.loc 4 65 9 is_stmt 1 view .LVU457
 1813              		.loc 4 65 19 is_stmt 0 view .LVU458
 1814 0196 0123     		movs	r3, #1
 1815 0198 84F87930 		strb	r3, [r4, #121]
 1816              	.LVL132:
 1817              	.L50:
 1818              		.loc 4 65 19 view .LVU459
 1819              	.LBE476:
 1820              	.LBE491:
 1821              	.LBE506:
  66:GUI/FX/DelayView.cpp ****     }
  67:GUI/FX/DelayView.cpp **** }
 1822              		.loc 4 67 1 view .LVU460
 1823 019c 17B0     		add	sp, sp, #92
 1824              		.cfi_def_cfa_offset 36
 1825              		@ sp needed
 1826 019e BDE8F08F 		pop	{r4, r5, r6, r7, r8, r9, r10, fp, pc}
 1827              	.LVL133:
 1828              	.L63:
 1829              		.loc 4 67 1 view .LVU461
 1830 01a2 00BF     		.align	2
 1831              	.L62:
 1832 01a4 13000000 		.word	.LC3
 1833 01a8 07000000 		.word	.LC2
 1834 01ac 00000000 		.word	Font_16x26
 1835 01b0 00000000 		.word	Font_11x18
 1836 01b4 03000000 		.word	.LC1
 1837 01b8 00000000 		.word	.LC0
 1838 01bc 00000000 		.word	Font_7x10
 1839              		.cfi_endproc
 1840              	.LFE5110:
 1842              		.section	.text._ZN9DelayView4tickEv,"ax",%progbits
 1843              		.align	1
 1844              		.global	_ZN9DelayView4tickEv
 1845              		.syntax unified
 1846              		.thumb
 1847              		.thumb_func
 1849              	_ZN9DelayView4tickEv:
 1850              	.LVL134:
 1851              	.LFB5109:
  20:GUI/FX/DelayView.cpp **** 
ARM GAS  /var/folders/wz/z09yph4n0qj4t7mjxhl6ttn80000gn/T//cc3KzP2n.s 			page 69


 1852              		.loc 4 20 1 is_stmt 1 view -0
 1853              		.cfi_startproc
 1854              		@ args = 0, pretend = 0, frame = 0
 1855              		@ frame_needed = 0, uses_anonymous_args = 0
  22:GUI/FX/DelayView.cpp ****     size.tick();
 1856              		.loc 4 22 5 view .LVU463
  20:GUI/FX/DelayView.cpp **** 
 1857              		.loc 4 20 1 is_stmt 0 view .LVU464
 1858 0000 10B5     		push	{r4, lr}
 1859              		.cfi_def_cfa_offset 8
 1860              		.cfi_offset 4, -8
 1861              		.cfi_offset 14, -4
  20:GUI/FX/DelayView.cpp **** 
 1862              		.loc 4 20 1 view .LVU465
 1863 0002 0446     		mov	r4, r0
  22:GUI/FX/DelayView.cpp ****     size.tick();
 1864              		.loc 4 22 16 view .LVU466
 1865 0004 2830     		adds	r0, r0, #40
 1866              	.LVL135:
  22:GUI/FX/DelayView.cpp ****     size.tick();
 1867              		.loc 4 22 16 view .LVU467
 1868 0006 FFF7FEFF 		bl	_ZN13SteppedSlider4tickEv
 1869              	.LVL136:
  23:GUI/FX/DelayView.cpp ****     feedback.tick();
 1870              		.loc 4 23 5 is_stmt 1 view .LVU468
  23:GUI/FX/DelayView.cpp ****     feedback.tick();
 1871              		.loc 4 23 14 is_stmt 0 view .LVU469
 1872 000a 04F13C00 		add	r0, r4, #60
 1873 000e FFF7FEFF 		bl	_ZN13SteppedSlider4tickEv
 1874              	.LVL137:
  24:GUI/FX/DelayView.cpp **** 
 1875              		.loc 4 24 5 is_stmt 1 view .LVU470
  24:GUI/FX/DelayView.cpp **** 
 1876              		.loc 4 24 18 is_stmt 0 view .LVU471
 1877 0012 04F15000 		add	r0, r4, #80
 1878 0016 FFF7FEFF 		bl	_ZN13SteppedSlider4tickEv
 1879              	.LVL138:
  26:GUI/FX/DelayView.cpp ****         repaint();
 1880              		.loc 4 26 5 is_stmt 1 view .LVU472
 1881 001a 94F87830 		ldrb	r3, [r4, #120]	@ zero_extendqisi2
 1882 001e 23B1     		cbz	r3, .L64
  27:GUI/FX/DelayView.cpp **** }
 1883              		.loc 4 27 9 view .LVU473
  27:GUI/FX/DelayView.cpp **** }
 1884              		.loc 4 27 16 is_stmt 0 view .LVU474
 1885 0020 2046     		mov	r0, r4
  28:GUI/FX/DelayView.cpp **** 
 1886              		.loc 4 28 1 view .LVU475
 1887 0022 BDE81040 		pop	{r4, lr}
 1888              		.cfi_remember_state
 1889              		.cfi_restore 14
 1890              		.cfi_restore 4
 1891              		.cfi_def_cfa_offset 0
 1892              	.LVL139:
  27:GUI/FX/DelayView.cpp **** }
 1893              		.loc 4 27 16 view .LVU476
 1894 0026 FFF7FEBF 		b	_ZN9DelayView7repaintEv
ARM GAS  /var/folders/wz/z09yph4n0qj4t7mjxhl6ttn80000gn/T//cc3KzP2n.s 			page 70


 1895              	.LVL140:
 1896              	.L64:
 1897              		.cfi_restore_state
  28:GUI/FX/DelayView.cpp **** 
 1898              		.loc 4 28 1 view .LVU477
 1899 002a 10BD     		pop	{r4, pc}
  28:GUI/FX/DelayView.cpp **** 
 1900              		.loc 4 28 1 view .LVU478
 1901              		.cfi_endproc
 1902              	.LFE5109:
 1904              		.section	.text._ZN9DelayView5clearEv,"ax",%progbits
 1905              		.align	1
 1906              		.global	_ZN9DelayView5clearEv
 1907              		.syntax unified
 1908              		.thumb
 1909              		.thumb_func
 1911              	_ZN9DelayView5clearEv:
 1912              	.LVL141:
 1913              	.LFB5111:
  68:GUI/FX/DelayView.cpp **** 
  69:GUI/FX/DelayView.cpp **** void DelayView::clear()
  70:GUI/FX/DelayView.cpp **** {
 1914              		.loc 4 70 1 is_stmt 1 view -0
 1915              		.cfi_startproc
 1916              		@ args = 0, pretend = 0, frame = 0
 1917              		@ frame_needed = 0, uses_anonymous_args = 0
 1918              		@ link register save eliminated.
  71:GUI/FX/DelayView.cpp **** 
  72:GUI/FX/DelayView.cpp **** }...
 1919              		.loc 4 72 1 is_stmt 0 view .LVU480
 1920 0000 7047     		bx	lr
 1921              		.cfi_endproc
 1922              	.LFE5111:
 1924              		.section	.text._ZNSt8functionIFvvEEC2ERKS1_,"axG",%progbits,_ZNSt8functionIFvvEEC5ERKS1_,comdat
 1925              		.align	1
 1926              		.weak	_ZNSt8functionIFvvEEC2ERKS1_
 1927              		.syntax unified
 1928              		.thumb
 1929              		.thumb_func
 1931              	_ZNSt8functionIFvvEEC2ERKS1_:
 1932              	.LVL142:
 1933              	.LFB5453:
 247:/Library/DaisyToolchain/0.2.0/arm/arm-none-eabi/include/c++/10.3.1/bits/std_function.h **** 
 248:/Library/DaisyToolchain/0.2.0/arm/arm-none-eabi/include/c++/10.3.1/bits/std_function.h ****     bool _M_empty() const { return !_M_manager; }
 249:/Library/DaisyToolchain/0.2.0/arm/arm-none-eabi/include/c++/10.3.1/bits/std_function.h **** 
 250:/Library/DaisyToolchain/0.2.0/arm/arm-none-eabi/include/c++/10.3.1/bits/std_function.h ****     typedef bool (*_Manager_type)(_Any_data&, const _Any_data&,
 251:/Library/DaisyToolchain/0.2.0/arm/arm-none-eabi/include/c++/10.3.1/bits/std_function.h **** 				  _Manager_operation);
 252:/Library/DaisyToolchain/0.2.0/arm/arm-none-eabi/include/c++/10.3.1/bits/std_function.h **** 
 253:/Library/DaisyToolchain/0.2.0/arm/arm-none-eabi/include/c++/10.3.1/bits/std_function.h ****     _Any_data     _M_functor;
 254:/Library/DaisyToolchain/0.2.0/arm/arm-none-eabi/include/c++/10.3.1/bits/std_function.h ****     _Manager_type _M_manager;
 255:/Library/DaisyToolchain/0.2.0/arm/arm-none-eabi/include/c++/10.3.1/bits/std_function.h ****   };
 256:/Library/DaisyToolchain/0.2.0/arm/arm-none-eabi/include/c++/10.3.1/bits/std_function.h **** 
 257:/Library/DaisyToolchain/0.2.0/arm/arm-none-eabi/include/c++/10.3.1/bits/std_function.h ****   template<typename _Signature, typename _Functor>
 258:/Library/DaisyToolchain/0.2.0/arm/arm-none-eabi/include/c++/10.3.1/bits/std_function.h ****     class _Function_handler;
 259:/Library/DaisyToolchain/0.2.0/arm/arm-none-eabi/include/c++/10.3.1/bits/std_function.h **** 
 260:/Library/DaisyToolchain/0.2.0/arm/arm-none-eabi/include/c++/10.3.1/bits/std_function.h ****   template<typename _Res, typename _Functor, typename... _ArgTypes>
 261:/Library/DaisyToolchain/0.2.0/arm/arm-none-eabi/include/c++/10.3.1/bits/std_function.h ****     class _Function_handler<_Res(_ArgTypes...), _Functor>
ARM GAS  /var/folders/wz/z09yph4n0qj4t7mjxhl6ttn80000gn/T//cc3KzP2n.s 			page 71


 262:/Library/DaisyToolchain/0.2.0/arm/arm-none-eabi/include/c++/10.3.1/bits/std_function.h ****     : public _Function_base::_Base_manager<_Functor>
 263:/Library/DaisyToolchain/0.2.0/arm/arm-none-eabi/include/c++/10.3.1/bits/std_function.h ****     {
 264:/Library/DaisyToolchain/0.2.0/arm/arm-none-eabi/include/c++/10.3.1/bits/std_function.h ****       typedef _Function_base::_Base_manager<_Functor> _Base;
 265:/Library/DaisyToolchain/0.2.0/arm/arm-none-eabi/include/c++/10.3.1/bits/std_function.h **** 
 266:/Library/DaisyToolchain/0.2.0/arm/arm-none-eabi/include/c++/10.3.1/bits/std_function.h ****     public:
 267:/Library/DaisyToolchain/0.2.0/arm/arm-none-eabi/include/c++/10.3.1/bits/std_function.h ****       static bool
 268:/Library/DaisyToolchain/0.2.0/arm/arm-none-eabi/include/c++/10.3.1/bits/std_function.h ****       _M_manager(_Any_data& __dest, const _Any_data& __source,
 269:/Library/DaisyToolchain/0.2.0/arm/arm-none-eabi/include/c++/10.3.1/bits/std_function.h **** 		 _Manager_operation __op)
 270:/Library/DaisyToolchain/0.2.0/arm/arm-none-eabi/include/c++/10.3.1/bits/std_function.h ****       {
 271:/Library/DaisyToolchain/0.2.0/arm/arm-none-eabi/include/c++/10.3.1/bits/std_function.h **** 	switch (__op)
 272:/Library/DaisyToolchain/0.2.0/arm/arm-none-eabi/include/c++/10.3.1/bits/std_function.h **** 	  {
 273:/Library/DaisyToolchain/0.2.0/arm/arm-none-eabi/include/c++/10.3.1/bits/std_function.h **** #if __cpp_rtti
 274:/Library/DaisyToolchain/0.2.0/arm/arm-none-eabi/include/c++/10.3.1/bits/std_function.h **** 	  case __get_type_info:
 275:/Library/DaisyToolchain/0.2.0/arm/arm-none-eabi/include/c++/10.3.1/bits/std_function.h **** 	    __dest._M_access<const type_info*>() = &typeid(_Functor);
 276:/Library/DaisyToolchain/0.2.0/arm/arm-none-eabi/include/c++/10.3.1/bits/std_function.h **** 	    break;
 277:/Library/DaisyToolchain/0.2.0/arm/arm-none-eabi/include/c++/10.3.1/bits/std_function.h **** #endif
 278:/Library/DaisyToolchain/0.2.0/arm/arm-none-eabi/include/c++/10.3.1/bits/std_function.h **** 	  case __get_functor_ptr:
 279:/Library/DaisyToolchain/0.2.0/arm/arm-none-eabi/include/c++/10.3.1/bits/std_function.h **** 	    __dest._M_access<_Functor*>() = _Base::_M_get_pointer(__source);
 280:/Library/DaisyToolchain/0.2.0/arm/arm-none-eabi/include/c++/10.3.1/bits/std_function.h **** 	    break;
 281:/Library/DaisyToolchain/0.2.0/arm/arm-none-eabi/include/c++/10.3.1/bits/std_function.h **** 
 282:/Library/DaisyToolchain/0.2.0/arm/arm-none-eabi/include/c++/10.3.1/bits/std_function.h **** 	  default:
 283:/Library/DaisyToolchain/0.2.0/arm/arm-none-eabi/include/c++/10.3.1/bits/std_function.h **** 	    _Base::_M_manager(__dest, __source, __op);
 284:/Library/DaisyToolchain/0.2.0/arm/arm-none-eabi/include/c++/10.3.1/bits/std_function.h **** 	  }
 285:/Library/DaisyToolchain/0.2.0/arm/arm-none-eabi/include/c++/10.3.1/bits/std_function.h **** 	return false;
 286:/Library/DaisyToolchain/0.2.0/arm/arm-none-eabi/include/c++/10.3.1/bits/std_function.h ****       }
 287:/Library/DaisyToolchain/0.2.0/arm/arm-none-eabi/include/c++/10.3.1/bits/std_function.h **** 
 288:/Library/DaisyToolchain/0.2.0/arm/arm-none-eabi/include/c++/10.3.1/bits/std_function.h ****       static _Res
 289:/Library/DaisyToolchain/0.2.0/arm/arm-none-eabi/include/c++/10.3.1/bits/std_function.h ****       _M_invoke(const _Any_data& __functor, _ArgTypes&&... __args)
 290:/Library/DaisyToolchain/0.2.0/arm/arm-none-eabi/include/c++/10.3.1/bits/std_function.h ****       {
 291:/Library/DaisyToolchain/0.2.0/arm/arm-none-eabi/include/c++/10.3.1/bits/std_function.h **** 	return std::__invoke_r<_Res>(*_Base::_M_get_pointer(__functor),
 292:/Library/DaisyToolchain/0.2.0/arm/arm-none-eabi/include/c++/10.3.1/bits/std_function.h **** 				     std::forward<_ArgTypes>(__args)...);
 293:/Library/DaisyToolchain/0.2.0/arm/arm-none-eabi/include/c++/10.3.1/bits/std_function.h ****       }
 294:/Library/DaisyToolchain/0.2.0/arm/arm-none-eabi/include/c++/10.3.1/bits/std_function.h ****     };
 295:/Library/DaisyToolchain/0.2.0/arm/arm-none-eabi/include/c++/10.3.1/bits/std_function.h **** 
 296:/Library/DaisyToolchain/0.2.0/arm/arm-none-eabi/include/c++/10.3.1/bits/std_function.h ****   /**
 297:/Library/DaisyToolchain/0.2.0/arm/arm-none-eabi/include/c++/10.3.1/bits/std_function.h ****    *  @brief Primary class template for std::function.
 298:/Library/DaisyToolchain/0.2.0/arm/arm-none-eabi/include/c++/10.3.1/bits/std_function.h ****    *  @ingroup functors
 299:/Library/DaisyToolchain/0.2.0/arm/arm-none-eabi/include/c++/10.3.1/bits/std_function.h ****    *
 300:/Library/DaisyToolchain/0.2.0/arm/arm-none-eabi/include/c++/10.3.1/bits/std_function.h ****    *  Polymorphic function wrapper.
 301:/Library/DaisyToolchain/0.2.0/arm/arm-none-eabi/include/c++/10.3.1/bits/std_function.h ****    */
 302:/Library/DaisyToolchain/0.2.0/arm/arm-none-eabi/include/c++/10.3.1/bits/std_function.h ****   template<typename _Res, typename... _ArgTypes>
 303:/Library/DaisyToolchain/0.2.0/arm/arm-none-eabi/include/c++/10.3.1/bits/std_function.h ****     class function<_Res(_ArgTypes...)>
 304:/Library/DaisyToolchain/0.2.0/arm/arm-none-eabi/include/c++/10.3.1/bits/std_function.h ****     : public _Maybe_unary_or_binary_function<_Res, _ArgTypes...>,
 305:/Library/DaisyToolchain/0.2.0/arm/arm-none-eabi/include/c++/10.3.1/bits/std_function.h ****       private _Function_base
 306:/Library/DaisyToolchain/0.2.0/arm/arm-none-eabi/include/c++/10.3.1/bits/std_function.h ****     {
 307:/Library/DaisyToolchain/0.2.0/arm/arm-none-eabi/include/c++/10.3.1/bits/std_function.h ****       template<typename _Func,
 308:/Library/DaisyToolchain/0.2.0/arm/arm-none-eabi/include/c++/10.3.1/bits/std_function.h **** 	       typename _Res2 = __invoke_result<_Func&, _ArgTypes...>>
 309:/Library/DaisyToolchain/0.2.0/arm/arm-none-eabi/include/c++/10.3.1/bits/std_function.h **** 	struct _Callable
 310:/Library/DaisyToolchain/0.2.0/arm/arm-none-eabi/include/c++/10.3.1/bits/std_function.h **** 	: __is_invocable_impl<_Res2, _Res>::type
 311:/Library/DaisyToolchain/0.2.0/arm/arm-none-eabi/include/c++/10.3.1/bits/std_function.h **** 	{ };
 312:/Library/DaisyToolchain/0.2.0/arm/arm-none-eabi/include/c++/10.3.1/bits/std_function.h **** 
 313:/Library/DaisyToolchain/0.2.0/arm/arm-none-eabi/include/c++/10.3.1/bits/std_function.h ****       // Used so the return type convertibility checks aren't done when
 314:/Library/DaisyToolchain/0.2.0/arm/arm-none-eabi/include/c++/10.3.1/bits/std_function.h ****       // performing overload resolution for copy construction/assignment.
 315:/Library/DaisyToolchain/0.2.0/arm/arm-none-eabi/include/c++/10.3.1/bits/std_function.h ****       template<typename _Tp>
 316:/Library/DaisyToolchain/0.2.0/arm/arm-none-eabi/include/c++/10.3.1/bits/std_function.h **** 	struct _Callable<function, _Tp> : false_type { };
 317:/Library/DaisyToolchain/0.2.0/arm/arm-none-eabi/include/c++/10.3.1/bits/std_function.h **** 
 318:/Library/DaisyToolchain/0.2.0/arm/arm-none-eabi/include/c++/10.3.1/bits/std_function.h ****       template<typename _Cond, typename _Tp>
ARM GAS  /var/folders/wz/z09yph4n0qj4t7mjxhl6ttn80000gn/T//cc3KzP2n.s 			page 72


 319:/Library/DaisyToolchain/0.2.0/arm/arm-none-eabi/include/c++/10.3.1/bits/std_function.h **** 	using _Requires = typename enable_if<_Cond::value, _Tp>::type;
 320:/Library/DaisyToolchain/0.2.0/arm/arm-none-eabi/include/c++/10.3.1/bits/std_function.h **** 
 321:/Library/DaisyToolchain/0.2.0/arm/arm-none-eabi/include/c++/10.3.1/bits/std_function.h ****     public:
 322:/Library/DaisyToolchain/0.2.0/arm/arm-none-eabi/include/c++/10.3.1/bits/std_function.h ****       typedef _Res result_type;
 323:/Library/DaisyToolchain/0.2.0/arm/arm-none-eabi/include/c++/10.3.1/bits/std_function.h **** 
 324:/Library/DaisyToolchain/0.2.0/arm/arm-none-eabi/include/c++/10.3.1/bits/std_function.h ****       // [3.7.2.1] construct/copy/destroy
 325:/Library/DaisyToolchain/0.2.0/arm/arm-none-eabi/include/c++/10.3.1/bits/std_function.h **** 
 326:/Library/DaisyToolchain/0.2.0/arm/arm-none-eabi/include/c++/10.3.1/bits/std_function.h ****       /**
 327:/Library/DaisyToolchain/0.2.0/arm/arm-none-eabi/include/c++/10.3.1/bits/std_function.h ****        *  @brief Default construct creates an empty function call wrapper.
 328:/Library/DaisyToolchain/0.2.0/arm/arm-none-eabi/include/c++/10.3.1/bits/std_function.h ****        *  @post @c !(bool)*this
 329:/Library/DaisyToolchain/0.2.0/arm/arm-none-eabi/include/c++/10.3.1/bits/std_function.h ****        */
 330:/Library/DaisyToolchain/0.2.0/arm/arm-none-eabi/include/c++/10.3.1/bits/std_function.h ****       function() noexcept
 331:/Library/DaisyToolchain/0.2.0/arm/arm-none-eabi/include/c++/10.3.1/bits/std_function.h ****       : _Function_base() { }
 332:/Library/DaisyToolchain/0.2.0/arm/arm-none-eabi/include/c++/10.3.1/bits/std_function.h **** 
 333:/Library/DaisyToolchain/0.2.0/arm/arm-none-eabi/include/c++/10.3.1/bits/std_function.h ****       /**
 334:/Library/DaisyToolchain/0.2.0/arm/arm-none-eabi/include/c++/10.3.1/bits/std_function.h ****        *  @brief Creates an empty function call wrapper.
 335:/Library/DaisyToolchain/0.2.0/arm/arm-none-eabi/include/c++/10.3.1/bits/std_function.h ****        *  @post @c !(bool)*this
 336:/Library/DaisyToolchain/0.2.0/arm/arm-none-eabi/include/c++/10.3.1/bits/std_function.h ****        */
 337:/Library/DaisyToolchain/0.2.0/arm/arm-none-eabi/include/c++/10.3.1/bits/std_function.h ****       function(nullptr_t) noexcept
 338:/Library/DaisyToolchain/0.2.0/arm/arm-none-eabi/include/c++/10.3.1/bits/std_function.h ****       : _Function_base() { }
 339:/Library/DaisyToolchain/0.2.0/arm/arm-none-eabi/include/c++/10.3.1/bits/std_function.h **** 
 340:/Library/DaisyToolchain/0.2.0/arm/arm-none-eabi/include/c++/10.3.1/bits/std_function.h ****       /**
 341:/Library/DaisyToolchain/0.2.0/arm/arm-none-eabi/include/c++/10.3.1/bits/std_function.h ****        *  @brief %Function copy constructor.
 342:/Library/DaisyToolchain/0.2.0/arm/arm-none-eabi/include/c++/10.3.1/bits/std_function.h ****        *  @param __x A %function object with identical call signature.
 343:/Library/DaisyToolchain/0.2.0/arm/arm-none-eabi/include/c++/10.3.1/bits/std_function.h ****        *  @post @c bool(*this) == bool(__x)
 344:/Library/DaisyToolchain/0.2.0/arm/arm-none-eabi/include/c++/10.3.1/bits/std_function.h ****        *
 345:/Library/DaisyToolchain/0.2.0/arm/arm-none-eabi/include/c++/10.3.1/bits/std_function.h ****        *  The newly-created %function contains a copy of the target of @a
 346:/Library/DaisyToolchain/0.2.0/arm/arm-none-eabi/include/c++/10.3.1/bits/std_function.h ****        *  __x (if it has one).
 347:/Library/DaisyToolchain/0.2.0/arm/arm-none-eabi/include/c++/10.3.1/bits/std_function.h ****        */
 348:/Library/DaisyToolchain/0.2.0/arm/arm-none-eabi/include/c++/10.3.1/bits/std_function.h ****       function(const function& __x);
 349:/Library/DaisyToolchain/0.2.0/arm/arm-none-eabi/include/c++/10.3.1/bits/std_function.h **** 
 350:/Library/DaisyToolchain/0.2.0/arm/arm-none-eabi/include/c++/10.3.1/bits/std_function.h ****       /**
 351:/Library/DaisyToolchain/0.2.0/arm/arm-none-eabi/include/c++/10.3.1/bits/std_function.h ****        *  @brief %Function move constructor.
 352:/Library/DaisyToolchain/0.2.0/arm/arm-none-eabi/include/c++/10.3.1/bits/std_function.h ****        *  @param __x A %function object rvalue with identical call signature.
 353:/Library/DaisyToolchain/0.2.0/arm/arm-none-eabi/include/c++/10.3.1/bits/std_function.h ****        *
 354:/Library/DaisyToolchain/0.2.0/arm/arm-none-eabi/include/c++/10.3.1/bits/std_function.h ****        *  The newly-created %function contains the target of @a __x
 355:/Library/DaisyToolchain/0.2.0/arm/arm-none-eabi/include/c++/10.3.1/bits/std_function.h ****        *  (if it has one).
 356:/Library/DaisyToolchain/0.2.0/arm/arm-none-eabi/include/c++/10.3.1/bits/std_function.h ****        */
 357:/Library/DaisyToolchain/0.2.0/arm/arm-none-eabi/include/c++/10.3.1/bits/std_function.h ****       function(function&& __x) noexcept : _Function_base()
 358:/Library/DaisyToolchain/0.2.0/arm/arm-none-eabi/include/c++/10.3.1/bits/std_function.h ****       {
 359:/Library/DaisyToolchain/0.2.0/arm/arm-none-eabi/include/c++/10.3.1/bits/std_function.h **** 	__x.swap(*this);
 360:/Library/DaisyToolchain/0.2.0/arm/arm-none-eabi/include/c++/10.3.1/bits/std_function.h ****       }
 361:/Library/DaisyToolchain/0.2.0/arm/arm-none-eabi/include/c++/10.3.1/bits/std_function.h **** 
 362:/Library/DaisyToolchain/0.2.0/arm/arm-none-eabi/include/c++/10.3.1/bits/std_function.h ****       /**
 363:/Library/DaisyToolchain/0.2.0/arm/arm-none-eabi/include/c++/10.3.1/bits/std_function.h ****        *  @brief Builds a %function that targets a copy of the incoming
 364:/Library/DaisyToolchain/0.2.0/arm/arm-none-eabi/include/c++/10.3.1/bits/std_function.h ****        *  function object.
 365:/Library/DaisyToolchain/0.2.0/arm/arm-none-eabi/include/c++/10.3.1/bits/std_function.h ****        *  @param __f A %function object that is callable with parameters of
 366:/Library/DaisyToolchain/0.2.0/arm/arm-none-eabi/include/c++/10.3.1/bits/std_function.h ****        *  type @c T1, @c T2, ..., @c TN and returns a value convertible
 367:/Library/DaisyToolchain/0.2.0/arm/arm-none-eabi/include/c++/10.3.1/bits/std_function.h ****        *  to @c Res.
 368:/Library/DaisyToolchain/0.2.0/arm/arm-none-eabi/include/c++/10.3.1/bits/std_function.h ****        *
 369:/Library/DaisyToolchain/0.2.0/arm/arm-none-eabi/include/c++/10.3.1/bits/std_function.h ****        *  The newly-created %function object will target a copy of
 370:/Library/DaisyToolchain/0.2.0/arm/arm-none-eabi/include/c++/10.3.1/bits/std_function.h ****        *  @a __f. If @a __f is @c reference_wrapper<F>, then this function
 371:/Library/DaisyToolchain/0.2.0/arm/arm-none-eabi/include/c++/10.3.1/bits/std_function.h ****        *  object will contain a reference to the function object @c
 372:/Library/DaisyToolchain/0.2.0/arm/arm-none-eabi/include/c++/10.3.1/bits/std_function.h ****        *  __f.get(). If @a __f is a NULL function pointer or NULL
 373:/Library/DaisyToolchain/0.2.0/arm/arm-none-eabi/include/c++/10.3.1/bits/std_function.h ****        *  pointer-to-member, the newly-created object will be empty.
 374:/Library/DaisyToolchain/0.2.0/arm/arm-none-eabi/include/c++/10.3.1/bits/std_function.h ****        *
 375:/Library/DaisyToolchain/0.2.0/arm/arm-none-eabi/include/c++/10.3.1/bits/std_function.h ****        *  If @a __f is a non-NULL function pointer or an object of type @c
ARM GAS  /var/folders/wz/z09yph4n0qj4t7mjxhl6ttn80000gn/T//cc3KzP2n.s 			page 73


 376:/Library/DaisyToolchain/0.2.0/arm/arm-none-eabi/include/c++/10.3.1/bits/std_function.h ****        *  reference_wrapper<F>, this function will not throw.
 377:/Library/DaisyToolchain/0.2.0/arm/arm-none-eabi/include/c++/10.3.1/bits/std_function.h ****        */
 378:/Library/DaisyToolchain/0.2.0/arm/arm-none-eabi/include/c++/10.3.1/bits/std_function.h ****       template<typename _Functor,
 379:/Library/DaisyToolchain/0.2.0/arm/arm-none-eabi/include/c++/10.3.1/bits/std_function.h **** 	       typename = _Requires<__not_<is_same<_Functor, function>>, void>,
 380:/Library/DaisyToolchain/0.2.0/arm/arm-none-eabi/include/c++/10.3.1/bits/std_function.h **** 	       typename = _Requires<_Callable<_Functor>, void>>
 381:/Library/DaisyToolchain/0.2.0/arm/arm-none-eabi/include/c++/10.3.1/bits/std_function.h **** 	function(_Functor);
 382:/Library/DaisyToolchain/0.2.0/arm/arm-none-eabi/include/c++/10.3.1/bits/std_function.h **** 
 383:/Library/DaisyToolchain/0.2.0/arm/arm-none-eabi/include/c++/10.3.1/bits/std_function.h ****       /**
 384:/Library/DaisyToolchain/0.2.0/arm/arm-none-eabi/include/c++/10.3.1/bits/std_function.h ****        *  @brief %Function assignment operator.
 385:/Library/DaisyToolchain/0.2.0/arm/arm-none-eabi/include/c++/10.3.1/bits/std_function.h ****        *  @param __x A %function with identical call signature.
 386:/Library/DaisyToolchain/0.2.0/arm/arm-none-eabi/include/c++/10.3.1/bits/std_function.h ****        *  @post @c (bool)*this == (bool)x
 387:/Library/DaisyToolchain/0.2.0/arm/arm-none-eabi/include/c++/10.3.1/bits/std_function.h ****        *  @returns @c *this
 388:/Library/DaisyToolchain/0.2.0/arm/arm-none-eabi/include/c++/10.3.1/bits/std_function.h ****        *
 389:/Library/DaisyToolchain/0.2.0/arm/arm-none-eabi/include/c++/10.3.1/bits/std_function.h ****        *  The target of @a __x is copied to @c *this. If @a __x has no
 390:/Library/DaisyToolchain/0.2.0/arm/arm-none-eabi/include/c++/10.3.1/bits/std_function.h ****        *  target, then @c *this will be empty.
 391:/Library/DaisyToolchain/0.2.0/arm/arm-none-eabi/include/c++/10.3.1/bits/std_function.h ****        *
 392:/Library/DaisyToolchain/0.2.0/arm/arm-none-eabi/include/c++/10.3.1/bits/std_function.h ****        *  If @a __x targets a function pointer or a reference to a function
 393:/Library/DaisyToolchain/0.2.0/arm/arm-none-eabi/include/c++/10.3.1/bits/std_function.h ****        *  object, then this operation will not throw an %exception.
 394:/Library/DaisyToolchain/0.2.0/arm/arm-none-eabi/include/c++/10.3.1/bits/std_function.h ****        */
 395:/Library/DaisyToolchain/0.2.0/arm/arm-none-eabi/include/c++/10.3.1/bits/std_function.h ****       function&
 396:/Library/DaisyToolchain/0.2.0/arm/arm-none-eabi/include/c++/10.3.1/bits/std_function.h ****       operator=(const function& __x)
 397:/Library/DaisyToolchain/0.2.0/arm/arm-none-eabi/include/c++/10.3.1/bits/std_function.h ****       {
 398:/Library/DaisyToolchain/0.2.0/arm/arm-none-eabi/include/c++/10.3.1/bits/std_function.h **** 	function(__x).swap(*this);
 399:/Library/DaisyToolchain/0.2.0/arm/arm-none-eabi/include/c++/10.3.1/bits/std_function.h **** 	return *this;
 400:/Library/DaisyToolchain/0.2.0/arm/arm-none-eabi/include/c++/10.3.1/bits/std_function.h ****       }
 401:/Library/DaisyToolchain/0.2.0/arm/arm-none-eabi/include/c++/10.3.1/bits/std_function.h **** 
 402:/Library/DaisyToolchain/0.2.0/arm/arm-none-eabi/include/c++/10.3.1/bits/std_function.h ****       /**
 403:/Library/DaisyToolchain/0.2.0/arm/arm-none-eabi/include/c++/10.3.1/bits/std_function.h ****        *  @brief %Function move-assignment operator.
 404:/Library/DaisyToolchain/0.2.0/arm/arm-none-eabi/include/c++/10.3.1/bits/std_function.h ****        *  @param __x A %function rvalue with identical call signature.
 405:/Library/DaisyToolchain/0.2.0/arm/arm-none-eabi/include/c++/10.3.1/bits/std_function.h ****        *  @returns @c *this
 406:/Library/DaisyToolchain/0.2.0/arm/arm-none-eabi/include/c++/10.3.1/bits/std_function.h ****        *
 407:/Library/DaisyToolchain/0.2.0/arm/arm-none-eabi/include/c++/10.3.1/bits/std_function.h ****        *  The target of @a __x is moved to @c *this. If @a __x has no
 408:/Library/DaisyToolchain/0.2.0/arm/arm-none-eabi/include/c++/10.3.1/bits/std_function.h ****        *  target, then @c *this will be empty.
 409:/Library/DaisyToolchain/0.2.0/arm/arm-none-eabi/include/c++/10.3.1/bits/std_function.h ****        *
 410:/Library/DaisyToolchain/0.2.0/arm/arm-none-eabi/include/c++/10.3.1/bits/std_function.h ****        *  If @a __x targets a function pointer or a reference to a function
 411:/Library/DaisyToolchain/0.2.0/arm/arm-none-eabi/include/c++/10.3.1/bits/std_function.h ****        *  object, then this operation will not throw an %exception.
 412:/Library/DaisyToolchain/0.2.0/arm/arm-none-eabi/include/c++/10.3.1/bits/std_function.h ****        */
 413:/Library/DaisyToolchain/0.2.0/arm/arm-none-eabi/include/c++/10.3.1/bits/std_function.h ****       function&
 414:/Library/DaisyToolchain/0.2.0/arm/arm-none-eabi/include/c++/10.3.1/bits/std_function.h ****       operator=(function&& __x) noexcept
 415:/Library/DaisyToolchain/0.2.0/arm/arm-none-eabi/include/c++/10.3.1/bits/std_function.h ****       {
 416:/Library/DaisyToolchain/0.2.0/arm/arm-none-eabi/include/c++/10.3.1/bits/std_function.h **** 	function(std::move(__x)).swap(*this);
 417:/Library/DaisyToolchain/0.2.0/arm/arm-none-eabi/include/c++/10.3.1/bits/std_function.h **** 	return *this;
 418:/Library/DaisyToolchain/0.2.0/arm/arm-none-eabi/include/c++/10.3.1/bits/std_function.h ****       }
 419:/Library/DaisyToolchain/0.2.0/arm/arm-none-eabi/include/c++/10.3.1/bits/std_function.h **** 
 420:/Library/DaisyToolchain/0.2.0/arm/arm-none-eabi/include/c++/10.3.1/bits/std_function.h ****       /**
 421:/Library/DaisyToolchain/0.2.0/arm/arm-none-eabi/include/c++/10.3.1/bits/std_function.h ****        *  @brief %Function assignment to zero.
 422:/Library/DaisyToolchain/0.2.0/arm/arm-none-eabi/include/c++/10.3.1/bits/std_function.h ****        *  @post @c !(bool)*this
 423:/Library/DaisyToolchain/0.2.0/arm/arm-none-eabi/include/c++/10.3.1/bits/std_function.h ****        *  @returns @c *this
 424:/Library/DaisyToolchain/0.2.0/arm/arm-none-eabi/include/c++/10.3.1/bits/std_function.h ****        *
 425:/Library/DaisyToolchain/0.2.0/arm/arm-none-eabi/include/c++/10.3.1/bits/std_function.h ****        *  The target of @c *this is deallocated, leaving it empty.
 426:/Library/DaisyToolchain/0.2.0/arm/arm-none-eabi/include/c++/10.3.1/bits/std_function.h ****        */
 427:/Library/DaisyToolchain/0.2.0/arm/arm-none-eabi/include/c++/10.3.1/bits/std_function.h ****       function&
 428:/Library/DaisyToolchain/0.2.0/arm/arm-none-eabi/include/c++/10.3.1/bits/std_function.h ****       operator=(nullptr_t) noexcept
 429:/Library/DaisyToolchain/0.2.0/arm/arm-none-eabi/include/c++/10.3.1/bits/std_function.h ****       {
 430:/Library/DaisyToolchain/0.2.0/arm/arm-none-eabi/include/c++/10.3.1/bits/std_function.h **** 	if (_M_manager)
 431:/Library/DaisyToolchain/0.2.0/arm/arm-none-eabi/include/c++/10.3.1/bits/std_function.h **** 	  {
 432:/Library/DaisyToolchain/0.2.0/arm/arm-none-eabi/include/c++/10.3.1/bits/std_function.h **** 	    _M_manager(_M_functor, _M_functor, __destroy_functor);
ARM GAS  /var/folders/wz/z09yph4n0qj4t7mjxhl6ttn80000gn/T//cc3KzP2n.s 			page 74


 433:/Library/DaisyToolchain/0.2.0/arm/arm-none-eabi/include/c++/10.3.1/bits/std_function.h **** 	    _M_manager = nullptr;
 434:/Library/DaisyToolchain/0.2.0/arm/arm-none-eabi/include/c++/10.3.1/bits/std_function.h **** 	    _M_invoker = nullptr;
 435:/Library/DaisyToolchain/0.2.0/arm/arm-none-eabi/include/c++/10.3.1/bits/std_function.h **** 	  }
 436:/Library/DaisyToolchain/0.2.0/arm/arm-none-eabi/include/c++/10.3.1/bits/std_function.h **** 	return *this;
 437:/Library/DaisyToolchain/0.2.0/arm/arm-none-eabi/include/c++/10.3.1/bits/std_function.h ****       }
 438:/Library/DaisyToolchain/0.2.0/arm/arm-none-eabi/include/c++/10.3.1/bits/std_function.h **** 
 439:/Library/DaisyToolchain/0.2.0/arm/arm-none-eabi/include/c++/10.3.1/bits/std_function.h ****       /**
 440:/Library/DaisyToolchain/0.2.0/arm/arm-none-eabi/include/c++/10.3.1/bits/std_function.h ****        *  @brief %Function assignment to a new target.
 441:/Library/DaisyToolchain/0.2.0/arm/arm-none-eabi/include/c++/10.3.1/bits/std_function.h ****        *  @param __f A %function object that is callable with parameters of
 442:/Library/DaisyToolchain/0.2.0/arm/arm-none-eabi/include/c++/10.3.1/bits/std_function.h ****        *  type @c T1, @c T2, ..., @c TN and returns a value convertible
 443:/Library/DaisyToolchain/0.2.0/arm/arm-none-eabi/include/c++/10.3.1/bits/std_function.h ****        *  to @c Res.
 444:/Library/DaisyToolchain/0.2.0/arm/arm-none-eabi/include/c++/10.3.1/bits/std_function.h ****        *  @return @c *this
 445:/Library/DaisyToolchain/0.2.0/arm/arm-none-eabi/include/c++/10.3.1/bits/std_function.h ****        *
 446:/Library/DaisyToolchain/0.2.0/arm/arm-none-eabi/include/c++/10.3.1/bits/std_function.h ****        *  This  %function object wrapper will target a copy of @a
 447:/Library/DaisyToolchain/0.2.0/arm/arm-none-eabi/include/c++/10.3.1/bits/std_function.h ****        *  __f. If @a __f is @c reference_wrapper<F>, then this function
 448:/Library/DaisyToolchain/0.2.0/arm/arm-none-eabi/include/c++/10.3.1/bits/std_function.h ****        *  object will contain a reference to the function object @c
 449:/Library/DaisyToolchain/0.2.0/arm/arm-none-eabi/include/c++/10.3.1/bits/std_function.h ****        *  __f.get(). If @a __f is a NULL function pointer or NULL
 450:/Library/DaisyToolchain/0.2.0/arm/arm-none-eabi/include/c++/10.3.1/bits/std_function.h ****        *  pointer-to-member, @c this object will be empty.
 451:/Library/DaisyToolchain/0.2.0/arm/arm-none-eabi/include/c++/10.3.1/bits/std_function.h ****        *
 452:/Library/DaisyToolchain/0.2.0/arm/arm-none-eabi/include/c++/10.3.1/bits/std_function.h ****        *  If @a __f is a non-NULL function pointer or an object of type @c
 453:/Library/DaisyToolchain/0.2.0/arm/arm-none-eabi/include/c++/10.3.1/bits/std_function.h ****        *  reference_wrapper<F>, this function will not throw.
 454:/Library/DaisyToolchain/0.2.0/arm/arm-none-eabi/include/c++/10.3.1/bits/std_function.h ****        */
 455:/Library/DaisyToolchain/0.2.0/arm/arm-none-eabi/include/c++/10.3.1/bits/std_function.h ****       template<typename _Functor>
 456:/Library/DaisyToolchain/0.2.0/arm/arm-none-eabi/include/c++/10.3.1/bits/std_function.h **** 	_Requires<_Callable<typename decay<_Functor>::type>, function&>
 457:/Library/DaisyToolchain/0.2.0/arm/arm-none-eabi/include/c++/10.3.1/bits/std_function.h **** 	operator=(_Functor&& __f)
 458:/Library/DaisyToolchain/0.2.0/arm/arm-none-eabi/include/c++/10.3.1/bits/std_function.h **** 	{
 459:/Library/DaisyToolchain/0.2.0/arm/arm-none-eabi/include/c++/10.3.1/bits/std_function.h **** 	  function(std::forward<_Functor>(__f)).swap(*this);
 460:/Library/DaisyToolchain/0.2.0/arm/arm-none-eabi/include/c++/10.3.1/bits/std_function.h **** 	  return *this;
 461:/Library/DaisyToolchain/0.2.0/arm/arm-none-eabi/include/c++/10.3.1/bits/std_function.h **** 	}
 462:/Library/DaisyToolchain/0.2.0/arm/arm-none-eabi/include/c++/10.3.1/bits/std_function.h **** 
 463:/Library/DaisyToolchain/0.2.0/arm/arm-none-eabi/include/c++/10.3.1/bits/std_function.h ****       /// @overload
 464:/Library/DaisyToolchain/0.2.0/arm/arm-none-eabi/include/c++/10.3.1/bits/std_function.h ****       template<typename _Functor>
 465:/Library/DaisyToolchain/0.2.0/arm/arm-none-eabi/include/c++/10.3.1/bits/std_function.h **** 	function&
 466:/Library/DaisyToolchain/0.2.0/arm/arm-none-eabi/include/c++/10.3.1/bits/std_function.h **** 	operator=(reference_wrapper<_Functor> __f) noexcept
 467:/Library/DaisyToolchain/0.2.0/arm/arm-none-eabi/include/c++/10.3.1/bits/std_function.h **** 	{
 468:/Library/DaisyToolchain/0.2.0/arm/arm-none-eabi/include/c++/10.3.1/bits/std_function.h **** 	  function(__f).swap(*this);
 469:/Library/DaisyToolchain/0.2.0/arm/arm-none-eabi/include/c++/10.3.1/bits/std_function.h **** 	  return *this;
 470:/Library/DaisyToolchain/0.2.0/arm/arm-none-eabi/include/c++/10.3.1/bits/std_function.h **** 	}
 471:/Library/DaisyToolchain/0.2.0/arm/arm-none-eabi/include/c++/10.3.1/bits/std_function.h **** 
 472:/Library/DaisyToolchain/0.2.0/arm/arm-none-eabi/include/c++/10.3.1/bits/std_function.h ****       // [3.7.2.2] function modifiers
 473:/Library/DaisyToolchain/0.2.0/arm/arm-none-eabi/include/c++/10.3.1/bits/std_function.h **** 
 474:/Library/DaisyToolchain/0.2.0/arm/arm-none-eabi/include/c++/10.3.1/bits/std_function.h ****       /**
 475:/Library/DaisyToolchain/0.2.0/arm/arm-none-eabi/include/c++/10.3.1/bits/std_function.h ****        *  @brief Swap the targets of two %function objects.
 476:/Library/DaisyToolchain/0.2.0/arm/arm-none-eabi/include/c++/10.3.1/bits/std_function.h ****        *  @param __x A %function with identical call signature.
 477:/Library/DaisyToolchain/0.2.0/arm/arm-none-eabi/include/c++/10.3.1/bits/std_function.h ****        *
 478:/Library/DaisyToolchain/0.2.0/arm/arm-none-eabi/include/c++/10.3.1/bits/std_function.h ****        *  Swap the targets of @c this function object and @a __f. This
 479:/Library/DaisyToolchain/0.2.0/arm/arm-none-eabi/include/c++/10.3.1/bits/std_function.h ****        *  function will not throw an %exception.
 480:/Library/DaisyToolchain/0.2.0/arm/arm-none-eabi/include/c++/10.3.1/bits/std_function.h ****        */
 481:/Library/DaisyToolchain/0.2.0/arm/arm-none-eabi/include/c++/10.3.1/bits/std_function.h ****       void swap(function& __x) noexcept
 482:/Library/DaisyToolchain/0.2.0/arm/arm-none-eabi/include/c++/10.3.1/bits/std_function.h ****       {
 483:/Library/DaisyToolchain/0.2.0/arm/arm-none-eabi/include/c++/10.3.1/bits/std_function.h **** 	std::swap(_M_functor, __x._M_functor);
 484:/Library/DaisyToolchain/0.2.0/arm/arm-none-eabi/include/c++/10.3.1/bits/std_function.h **** 	std::swap(_M_manager, __x._M_manager);
 485:/Library/DaisyToolchain/0.2.0/arm/arm-none-eabi/include/c++/10.3.1/bits/std_function.h **** 	std::swap(_M_invoker, __x._M_invoker);
 486:/Library/DaisyToolchain/0.2.0/arm/arm-none-eabi/include/c++/10.3.1/bits/std_function.h ****       }
 487:/Library/DaisyToolchain/0.2.0/arm/arm-none-eabi/include/c++/10.3.1/bits/std_function.h **** 
 488:/Library/DaisyToolchain/0.2.0/arm/arm-none-eabi/include/c++/10.3.1/bits/std_function.h ****       // [3.7.2.3] function capacity
 489:/Library/DaisyToolchain/0.2.0/arm/arm-none-eabi/include/c++/10.3.1/bits/std_function.h **** 
ARM GAS  /var/folders/wz/z09yph4n0qj4t7mjxhl6ttn80000gn/T//cc3KzP2n.s 			page 75


 490:/Library/DaisyToolchain/0.2.0/arm/arm-none-eabi/include/c++/10.3.1/bits/std_function.h ****       /**
 491:/Library/DaisyToolchain/0.2.0/arm/arm-none-eabi/include/c++/10.3.1/bits/std_function.h ****        *  @brief Determine if the %function wrapper has a target.
 492:/Library/DaisyToolchain/0.2.0/arm/arm-none-eabi/include/c++/10.3.1/bits/std_function.h ****        *
 493:/Library/DaisyToolchain/0.2.0/arm/arm-none-eabi/include/c++/10.3.1/bits/std_function.h ****        *  @return @c true when this %function object contains a target,
 494:/Library/DaisyToolchain/0.2.0/arm/arm-none-eabi/include/c++/10.3.1/bits/std_function.h ****        *  or @c false when it is empty.
 495:/Library/DaisyToolchain/0.2.0/arm/arm-none-eabi/include/c++/10.3.1/bits/std_function.h ****        *
 496:/Library/DaisyToolchain/0.2.0/arm/arm-none-eabi/include/c++/10.3.1/bits/std_function.h ****        *  This function will not throw an %exception.
 497:/Library/DaisyToolchain/0.2.0/arm/arm-none-eabi/include/c++/10.3.1/bits/std_function.h ****        */
 498:/Library/DaisyToolchain/0.2.0/arm/arm-none-eabi/include/c++/10.3.1/bits/std_function.h ****       explicit operator bool() const noexcept
 499:/Library/DaisyToolchain/0.2.0/arm/arm-none-eabi/include/c++/10.3.1/bits/std_function.h ****       { return !_M_empty(); }
 500:/Library/DaisyToolchain/0.2.0/arm/arm-none-eabi/include/c++/10.3.1/bits/std_function.h **** 
 501:/Library/DaisyToolchain/0.2.0/arm/arm-none-eabi/include/c++/10.3.1/bits/std_function.h ****       // [3.7.2.4] function invocation
 502:/Library/DaisyToolchain/0.2.0/arm/arm-none-eabi/include/c++/10.3.1/bits/std_function.h **** 
 503:/Library/DaisyToolchain/0.2.0/arm/arm-none-eabi/include/c++/10.3.1/bits/std_function.h ****       /**
 504:/Library/DaisyToolchain/0.2.0/arm/arm-none-eabi/include/c++/10.3.1/bits/std_function.h ****        *  @brief Invokes the function targeted by @c *this.
 505:/Library/DaisyToolchain/0.2.0/arm/arm-none-eabi/include/c++/10.3.1/bits/std_function.h ****        *  @returns the result of the target.
 506:/Library/DaisyToolchain/0.2.0/arm/arm-none-eabi/include/c++/10.3.1/bits/std_function.h ****        *  @throws bad_function_call when @c !(bool)*this
 507:/Library/DaisyToolchain/0.2.0/arm/arm-none-eabi/include/c++/10.3.1/bits/std_function.h ****        *
 508:/Library/DaisyToolchain/0.2.0/arm/arm-none-eabi/include/c++/10.3.1/bits/std_function.h ****        *  The function call operator invokes the target function object
 509:/Library/DaisyToolchain/0.2.0/arm/arm-none-eabi/include/c++/10.3.1/bits/std_function.h ****        *  stored by @c this.
 510:/Library/DaisyToolchain/0.2.0/arm/arm-none-eabi/include/c++/10.3.1/bits/std_function.h ****        */
 511:/Library/DaisyToolchain/0.2.0/arm/arm-none-eabi/include/c++/10.3.1/bits/std_function.h ****       _Res operator()(_ArgTypes... __args) const;
 512:/Library/DaisyToolchain/0.2.0/arm/arm-none-eabi/include/c++/10.3.1/bits/std_function.h **** 
 513:/Library/DaisyToolchain/0.2.0/arm/arm-none-eabi/include/c++/10.3.1/bits/std_function.h **** #if __cpp_rtti
 514:/Library/DaisyToolchain/0.2.0/arm/arm-none-eabi/include/c++/10.3.1/bits/std_function.h ****       // [3.7.2.5] function target access
 515:/Library/DaisyToolchain/0.2.0/arm/arm-none-eabi/include/c++/10.3.1/bits/std_function.h ****       /**
 516:/Library/DaisyToolchain/0.2.0/arm/arm-none-eabi/include/c++/10.3.1/bits/std_function.h ****        *  @brief Determine the type of the target of this function object
 517:/Library/DaisyToolchain/0.2.0/arm/arm-none-eabi/include/c++/10.3.1/bits/std_function.h ****        *  wrapper.
 518:/Library/DaisyToolchain/0.2.0/arm/arm-none-eabi/include/c++/10.3.1/bits/std_function.h ****        *
 519:/Library/DaisyToolchain/0.2.0/arm/arm-none-eabi/include/c++/10.3.1/bits/std_function.h ****        *  @returns the type identifier of the target function object, or
 520:/Library/DaisyToolchain/0.2.0/arm/arm-none-eabi/include/c++/10.3.1/bits/std_function.h ****        *  @c typeid(void) if @c !(bool)*this.
 521:/Library/DaisyToolchain/0.2.0/arm/arm-none-eabi/include/c++/10.3.1/bits/std_function.h ****        *
 522:/Library/DaisyToolchain/0.2.0/arm/arm-none-eabi/include/c++/10.3.1/bits/std_function.h ****        *  This function will not throw an %exception.
 523:/Library/DaisyToolchain/0.2.0/arm/arm-none-eabi/include/c++/10.3.1/bits/std_function.h ****        */
 524:/Library/DaisyToolchain/0.2.0/arm/arm-none-eabi/include/c++/10.3.1/bits/std_function.h ****       const type_info& target_type() const noexcept;
 525:/Library/DaisyToolchain/0.2.0/arm/arm-none-eabi/include/c++/10.3.1/bits/std_function.h **** 
 526:/Library/DaisyToolchain/0.2.0/arm/arm-none-eabi/include/c++/10.3.1/bits/std_function.h ****       /**
 527:/Library/DaisyToolchain/0.2.0/arm/arm-none-eabi/include/c++/10.3.1/bits/std_function.h ****        *  @brief Access the stored target function object.
 528:/Library/DaisyToolchain/0.2.0/arm/arm-none-eabi/include/c++/10.3.1/bits/std_function.h ****        *
 529:/Library/DaisyToolchain/0.2.0/arm/arm-none-eabi/include/c++/10.3.1/bits/std_function.h ****        *  @return Returns a pointer to the stored target function object,
 530:/Library/DaisyToolchain/0.2.0/arm/arm-none-eabi/include/c++/10.3.1/bits/std_function.h ****        *  if @c typeid(_Functor).equals(target_type()); otherwise, a NULL
 531:/Library/DaisyToolchain/0.2.0/arm/arm-none-eabi/include/c++/10.3.1/bits/std_function.h ****        *  pointer.
 532:/Library/DaisyToolchain/0.2.0/arm/arm-none-eabi/include/c++/10.3.1/bits/std_function.h ****        *
 533:/Library/DaisyToolchain/0.2.0/arm/arm-none-eabi/include/c++/10.3.1/bits/std_function.h ****        * This function does not throw exceptions.
 534:/Library/DaisyToolchain/0.2.0/arm/arm-none-eabi/include/c++/10.3.1/bits/std_function.h ****        *
 535:/Library/DaisyToolchain/0.2.0/arm/arm-none-eabi/include/c++/10.3.1/bits/std_function.h ****        * @{
 536:/Library/DaisyToolchain/0.2.0/arm/arm-none-eabi/include/c++/10.3.1/bits/std_function.h ****        */
 537:/Library/DaisyToolchain/0.2.0/arm/arm-none-eabi/include/c++/10.3.1/bits/std_function.h ****       template<typename _Functor>       _Functor* target() noexcept;
 538:/Library/DaisyToolchain/0.2.0/arm/arm-none-eabi/include/c++/10.3.1/bits/std_function.h **** 
 539:/Library/DaisyToolchain/0.2.0/arm/arm-none-eabi/include/c++/10.3.1/bits/std_function.h ****       template<typename _Functor> const _Functor* target() const noexcept;
 540:/Library/DaisyToolchain/0.2.0/arm/arm-none-eabi/include/c++/10.3.1/bits/std_function.h ****       /// @}
 541:/Library/DaisyToolchain/0.2.0/arm/arm-none-eabi/include/c++/10.3.1/bits/std_function.h **** #endif
 542:/Library/DaisyToolchain/0.2.0/arm/arm-none-eabi/include/c++/10.3.1/bits/std_function.h **** 
 543:/Library/DaisyToolchain/0.2.0/arm/arm-none-eabi/include/c++/10.3.1/bits/std_function.h ****     private:
 544:/Library/DaisyToolchain/0.2.0/arm/arm-none-eabi/include/c++/10.3.1/bits/std_function.h ****       using _Invoker_type = _Res (*)(const _Any_data&, _ArgTypes&&...);
 545:/Library/DaisyToolchain/0.2.0/arm/arm-none-eabi/include/c++/10.3.1/bits/std_function.h ****       _Invoker_type _M_invoker;
 546:/Library/DaisyToolchain/0.2.0/arm/arm-none-eabi/include/c++/10.3.1/bits/std_function.h ****   };
ARM GAS  /var/folders/wz/z09yph4n0qj4t7mjxhl6ttn80000gn/T//cc3KzP2n.s 			page 76


 547:/Library/DaisyToolchain/0.2.0/arm/arm-none-eabi/include/c++/10.3.1/bits/std_function.h **** 
 548:/Library/DaisyToolchain/0.2.0/arm/arm-none-eabi/include/c++/10.3.1/bits/std_function.h **** #if __cpp_deduction_guides >= 201606
 549:/Library/DaisyToolchain/0.2.0/arm/arm-none-eabi/include/c++/10.3.1/bits/std_function.h ****   template<typename>
 550:/Library/DaisyToolchain/0.2.0/arm/arm-none-eabi/include/c++/10.3.1/bits/std_function.h ****     struct __function_guide_helper
 551:/Library/DaisyToolchain/0.2.0/arm/arm-none-eabi/include/c++/10.3.1/bits/std_function.h ****     { };
 552:/Library/DaisyToolchain/0.2.0/arm/arm-none-eabi/include/c++/10.3.1/bits/std_function.h **** 
 553:/Library/DaisyToolchain/0.2.0/arm/arm-none-eabi/include/c++/10.3.1/bits/std_function.h ****   template<typename _Res, typename _Tp, bool _Nx, typename... _Args>
 554:/Library/DaisyToolchain/0.2.0/arm/arm-none-eabi/include/c++/10.3.1/bits/std_function.h ****     struct __function_guide_helper<
 555:/Library/DaisyToolchain/0.2.0/arm/arm-none-eabi/include/c++/10.3.1/bits/std_function.h ****       _Res (_Tp::*) (_Args...) noexcept(_Nx)
 556:/Library/DaisyToolchain/0.2.0/arm/arm-none-eabi/include/c++/10.3.1/bits/std_function.h ****     >
 557:/Library/DaisyToolchain/0.2.0/arm/arm-none-eabi/include/c++/10.3.1/bits/std_function.h ****     { using type = _Res(_Args...); };
 558:/Library/DaisyToolchain/0.2.0/arm/arm-none-eabi/include/c++/10.3.1/bits/std_function.h **** 
 559:/Library/DaisyToolchain/0.2.0/arm/arm-none-eabi/include/c++/10.3.1/bits/std_function.h ****   template<typename _Res, typename _Tp, bool _Nx, typename... _Args>
 560:/Library/DaisyToolchain/0.2.0/arm/arm-none-eabi/include/c++/10.3.1/bits/std_function.h ****     struct __function_guide_helper<
 561:/Library/DaisyToolchain/0.2.0/arm/arm-none-eabi/include/c++/10.3.1/bits/std_function.h ****       _Res (_Tp::*) (_Args...) & noexcept(_Nx)
 562:/Library/DaisyToolchain/0.2.0/arm/arm-none-eabi/include/c++/10.3.1/bits/std_function.h ****     >
 563:/Library/DaisyToolchain/0.2.0/arm/arm-none-eabi/include/c++/10.3.1/bits/std_function.h ****     { using type = _Res(_Args...); };
 564:/Library/DaisyToolchain/0.2.0/arm/arm-none-eabi/include/c++/10.3.1/bits/std_function.h **** 
 565:/Library/DaisyToolchain/0.2.0/arm/arm-none-eabi/include/c++/10.3.1/bits/std_function.h ****   template<typename _Res, typename _Tp, bool _Nx, typename... _Args>
 566:/Library/DaisyToolchain/0.2.0/arm/arm-none-eabi/include/c++/10.3.1/bits/std_function.h ****     struct __function_guide_helper<
 567:/Library/DaisyToolchain/0.2.0/arm/arm-none-eabi/include/c++/10.3.1/bits/std_function.h ****       _Res (_Tp::*) (_Args...) const noexcept(_Nx)
 568:/Library/DaisyToolchain/0.2.0/arm/arm-none-eabi/include/c++/10.3.1/bits/std_function.h ****     >
 569:/Library/DaisyToolchain/0.2.0/arm/arm-none-eabi/include/c++/10.3.1/bits/std_function.h ****     { using type = _Res(_Args...); };
 570:/Library/DaisyToolchain/0.2.0/arm/arm-none-eabi/include/c++/10.3.1/bits/std_function.h **** 
 571:/Library/DaisyToolchain/0.2.0/arm/arm-none-eabi/include/c++/10.3.1/bits/std_function.h ****   template<typename _Res, typename _Tp, bool _Nx, typename... _Args>
 572:/Library/DaisyToolchain/0.2.0/arm/arm-none-eabi/include/c++/10.3.1/bits/std_function.h ****     struct __function_guide_helper<
 573:/Library/DaisyToolchain/0.2.0/arm/arm-none-eabi/include/c++/10.3.1/bits/std_function.h ****       _Res (_Tp::*) (_Args...) const & noexcept(_Nx)
 574:/Library/DaisyToolchain/0.2.0/arm/arm-none-eabi/include/c++/10.3.1/bits/std_function.h ****     >
 575:/Library/DaisyToolchain/0.2.0/arm/arm-none-eabi/include/c++/10.3.1/bits/std_function.h ****     { using type = _Res(_Args...); };
 576:/Library/DaisyToolchain/0.2.0/arm/arm-none-eabi/include/c++/10.3.1/bits/std_function.h **** 
 577:/Library/DaisyToolchain/0.2.0/arm/arm-none-eabi/include/c++/10.3.1/bits/std_function.h ****   template<typename _Res, typename... _ArgTypes>
 578:/Library/DaisyToolchain/0.2.0/arm/arm-none-eabi/include/c++/10.3.1/bits/std_function.h ****     function(_Res(*)(_ArgTypes...)) -> function<_Res(_ArgTypes...)>;
 579:/Library/DaisyToolchain/0.2.0/arm/arm-none-eabi/include/c++/10.3.1/bits/std_function.h **** 
 580:/Library/DaisyToolchain/0.2.0/arm/arm-none-eabi/include/c++/10.3.1/bits/std_function.h ****   template<typename _Functor, typename _Signature = typename
 581:/Library/DaisyToolchain/0.2.0/arm/arm-none-eabi/include/c++/10.3.1/bits/std_function.h **** 	   __function_guide_helper<decltype(&_Functor::operator())>::type>
 582:/Library/DaisyToolchain/0.2.0/arm/arm-none-eabi/include/c++/10.3.1/bits/std_function.h ****     function(_Functor) -> function<_Signature>;
 583:/Library/DaisyToolchain/0.2.0/arm/arm-none-eabi/include/c++/10.3.1/bits/std_function.h **** #endif
 584:/Library/DaisyToolchain/0.2.0/arm/arm-none-eabi/include/c++/10.3.1/bits/std_function.h **** 
 585:/Library/DaisyToolchain/0.2.0/arm/arm-none-eabi/include/c++/10.3.1/bits/std_function.h ****   // Out-of-line member definitions.
 586:/Library/DaisyToolchain/0.2.0/arm/arm-none-eabi/include/c++/10.3.1/bits/std_function.h ****   template<typename _Res, typename... _ArgTypes>
 587:/Library/DaisyToolchain/0.2.0/arm/arm-none-eabi/include/c++/10.3.1/bits/std_function.h ****     function<_Res(_ArgTypes...)>::
 1934              		.loc 1 587 5 is_stmt 1 view -0
 1935              		.cfi_startproc
 1936              		@ args = 0, pretend = 0, frame = 0
 1937              		@ frame_needed = 0, uses_anonymous_args = 0
 1938              	.LBB507:
 1939              	.LBB508:
 1940              	.LBI508:
 240:/Library/DaisyToolchain/0.2.0/arm/arm-none-eabi/include/c++/10.3.1/bits/std_function.h **** 
 1941              		.loc 1 240 5 view .LVU482
 1942              	.LBE508:
 1943              	.LBE507:
 1944              		.loc 1 587 5 is_stmt 0 view .LVU483
 1945 0000 38B5     		push	{r3, r4, r5, lr}
 1946              		.cfi_def_cfa_offset 16
 1947              		.cfi_offset 3, -16
 1948              		.cfi_offset 4, -12
ARM GAS  /var/folders/wz/z09yph4n0qj4t7mjxhl6ttn80000gn/T//cc3KzP2n.s 			page 77


 1949              		.cfi_offset 5, -8
 1950              		.cfi_offset 14, -4
 1951              	.LBB516:
 1952              	.LBB511:
 1953              	.LBB509:
 240:/Library/DaisyToolchain/0.2.0/arm/arm-none-eabi/include/c++/10.3.1/bits/std_function.h **** 
 1954              		.loc 1 240 42 view .LVU484
 1955 0002 0023     		movs	r3, #0
 1956              	.LBE509:
 1957              	.LBE511:
 1958              	.LBE516:
 1959              		.loc 1 587 5 view .LVU485
 1960 0004 0446     		mov	r4, r0
 1961 0006 0D46     		mov	r5, r1
 1962              	.LBB517:
 1963              	.LBB512:
 1964              	.LBB510:
 240:/Library/DaisyToolchain/0.2.0/arm/arm-none-eabi/include/c++/10.3.1/bits/std_function.h **** 
 1965              		.loc 1 240 42 view .LVU486
 1966 0008 8360     		str	r3, [r0, #8]
 1967              	.LVL143:
 240:/Library/DaisyToolchain/0.2.0/arm/arm-none-eabi/include/c++/10.3.1/bits/std_function.h **** 
 1968              		.loc 1 240 42 view .LVU487
 1969              	.LBE510:
 1970              	.LBE512:
 1971              	.LBB513:
 1972              	.LBI513:
 498:/Library/DaisyToolchain/0.2.0/arm/arm-none-eabi/include/c++/10.3.1/bits/std_function.h ****       { return !_M_empty(); }
 1973              		.loc 1 498 16 is_stmt 1 view .LVU488
 1974              	.LBB514:
 1975              	.LBI514:
 248:/Library/DaisyToolchain/0.2.0/arm/arm-none-eabi/include/c++/10.3.1/bits/std_function.h **** 
 1976              		.loc 1 248 10 view .LVU489
 1977              	.LBB515:
 248:/Library/DaisyToolchain/0.2.0/arm/arm-none-eabi/include/c++/10.3.1/bits/std_function.h **** 
 1978              		.loc 1 248 29 view .LVU490
 248:/Library/DaisyToolchain/0.2.0/arm/arm-none-eabi/include/c++/10.3.1/bits/std_function.h **** 
 1979              		.loc 1 248 37 is_stmt 0 view .LVU491
 1980 000a 8B68     		ldr	r3, [r1, #8]
 1981              	.LVL144:
 248:/Library/DaisyToolchain/0.2.0/arm/arm-none-eabi/include/c++/10.3.1/bits/std_function.h **** 
 1982              		.loc 1 248 37 view .LVU492
 1983              	.LBE515:
 1984              	.LBE514:
 1985              	.LBE513:
 588:/Library/DaisyToolchain/0.2.0/arm/arm-none-eabi/include/c++/10.3.1/bits/std_function.h ****     function(const function& __x)
 589:/Library/DaisyToolchain/0.2.0/arm/arm-none-eabi/include/c++/10.3.1/bits/std_function.h ****     : _Function_base()
 590:/Library/DaisyToolchain/0.2.0/arm/arm-none-eabi/include/c++/10.3.1/bits/std_function.h ****     {
 591:/Library/DaisyToolchain/0.2.0/arm/arm-none-eabi/include/c++/10.3.1/bits/std_function.h ****       if (static_cast<bool>(__x))
 1986              		.loc 1 591 7 view .LVU493
 1987 000c 2BB1     		cbz	r3, .L68
 592:/Library/DaisyToolchain/0.2.0/arm/arm-none-eabi/include/c++/10.3.1/bits/std_function.h **** 	{
 593:/Library/DaisyToolchain/0.2.0/arm/arm-none-eabi/include/c++/10.3.1/bits/std_function.h **** 	  __x._M_manager(_M_functor, __x._M_functor, __clone_functor);
 1988              		.loc 1 593 8 view .LVU494
 1989 000e 0222     		movs	r2, #2
 1990 0010 9847     		blx	r3
 1991              	.LVL145:
ARM GAS  /var/folders/wz/z09yph4n0qj4t7mjxhl6ttn80000gn/T//cc3KzP2n.s 			page 78


 594:/Library/DaisyToolchain/0.2.0/arm/arm-none-eabi/include/c++/10.3.1/bits/std_function.h **** 	  _M_invoker = __x._M_invoker;
 1992              		.loc 1 594 15 view .LVU495
 1993 0012 EB68     		ldr	r3, [r5, #12]
 1994 0014 E360     		str	r3, [r4, #12]
 595:/Library/DaisyToolchain/0.2.0/arm/arm-none-eabi/include/c++/10.3.1/bits/std_function.h **** 	  _M_manager = __x._M_manager;
 1995              		.loc 1 595 15 view .LVU496
 1996 0016 AB68     		ldr	r3, [r5, #8]
 1997 0018 A360     		str	r3, [r4, #8]
 1998              	.L68:
 1999              	.LBE517:
 596:/Library/DaisyToolchain/0.2.0/arm/arm-none-eabi/include/c++/10.3.1/bits/std_function.h **** 	}
 597:/Library/DaisyToolchain/0.2.0/arm/arm-none-eabi/include/c++/10.3.1/bits/std_function.h ****     }
 2000              		.loc 1 597 5 view .LVU497
 2001 001a 2046     		mov	r0, r4
 2002 001c 38BD     		pop	{r3, r4, r5, pc}
 2003              		.loc 1 597 5 view .LVU498
 2004              		.cfi_endproc
 2005              	.LFE5453:
 2007              		.weak	_ZNSt8functionIFvvEEC1ERKS1_
 2008              		.thumb_set _ZNSt8functionIFvvEEC1ERKS1_,_ZNSt8functionIFvvEEC2ERKS1_
 2009              		.section	.rodata._ZN9DelayView4initEiP13EncoderDriverP8UiDriverP12KeypadDriver.str1.1,"aMS",%progb
 2010              	.LC4:
 2011 0000 76656374 		.ascii	"vector::_M_range_check: __n (which is %zu) >= this-"
 2011      6F723A3A 
 2011      5F4D5F72 
 2011      616E6765 
 2011      5F636865 
 2012 0033 3E73697A 		.ascii	">size() (which is %zu)\000"
 2012      65282920 
 2012      28776869 
 2012      63682069 
 2012      7320257A 
 2013              		.section	.text._ZN9DelayView4initEiP13EncoderDriverP8UiDriverP12KeypadDriver,"ax",%progbits
 2014              		.align	1
 2015              		.global	_ZN9DelayView4initEiP13EncoderDriverP8UiDriverP12KeypadDriver
 2016              		.syntax unified
 2017              		.thumb
 2018              		.thumb_func
 2020              	_ZN9DelayView4initEiP13EncoderDriverP8UiDriverP12KeypadDriver:
 2021              	.LVL146:
 2022              	.LFB5108:
   4:GUI/FX/DelayView.cpp **** {
 2023              		.loc 4 4 1 is_stmt 1 view -0
 2024              		.cfi_startproc
 2025              		@ args = 4, pretend = 0, frame = 40
 2026              		@ frame_needed = 0, uses_anonymous_args = 0
   5:GUI/FX/DelayView.cpp ****     trackID = ID;
 2027              		.loc 4 5 5 view .LVU500
   4:GUI/FX/DelayView.cpp **** {
 2028              		.loc 4 4 1 is_stmt 0 view .LVU501
 2029 0000 70B5     		push	{r4, r5, r6, lr}
 2030              		.cfi_def_cfa_offset 16
 2031              		.cfi_offset 4, -16
 2032              		.cfi_offset 5, -12
 2033              		.cfi_offset 6, -8
 2034              		.cfi_offset 14, -4
 2035 0002 8AB0     		sub	sp, sp, #40
ARM GAS  /var/folders/wz/z09yph4n0qj4t7mjxhl6ttn80000gn/T//cc3KzP2n.s 			page 79


 2036              		.cfi_def_cfa_offset 56
   4:GUI/FX/DelayView.cpp **** {
 2037              		.loc 4 4 1 view .LVU502
 2038 0004 1E46     		mov	r6, r3
 2039 0006 0446     		mov	r4, r0
 2040 0008 1546     		mov	r5, r2
   7:GUI/FX/DelayView.cpp ****     lcd = uid;
 2041              		.loc 4 7 9 view .LVU503
 2042 000a C0E90013 		strd	r1, r3, [r0]
   8:GUI/FX/DelayView.cpp ****     keypad = kpd;
 2043              		.loc 4 8 5 is_stmt 1 view .LVU504
   8:GUI/FX/DelayView.cpp ****     keypad = kpd;
 2044              		.loc 4 8 12 is_stmt 0 view .LVU505
 2045 000e 0E9B     		ldr	r3, [sp, #56]
 2046              	.LVL147:
  10:GUI/FX/DelayView.cpp ****     bypass.init(driver, uid, driver->getBypassCallback(bypassIndexes[ID-1]));
 2047              		.loc 4 10 74 view .LVU506
 2048 0010 00EB8101 		add	r1, r0, r1, lsl #2
 2049              	.LVL148:
   8:GUI/FX/DelayView.cpp ****     keypad = kpd;
 2050              		.loc 4 8 12 view .LVU507
 2051 0014 8360     		str	r3, [r0, #8]
  10:GUI/FX/DelayView.cpp ****     bypass.init(driver, uid, driver->getBypassCallback(bypassIndexes[ID-1]));
 2052              		.loc 4 10 5 is_stmt 1 view .LVU508
  10:GUI/FX/DelayView.cpp ****     bypass.init(driver, uid, driver->getBypassCallback(bypassIndexes[ID-1]));
 2053              		.loc 4 10 55 is_stmt 0 view .LVU509
 2054 0016 896F     		ldr	r1, [r1, #120]
 2055              	.LVL149:
 2056              	.LBB544:
 2057              	.LBI544:
 2058              		.file 6 "GUI/FX/../../Drivers/EncoderDriver.h"
   1:GUI/FX/../../Drivers/EncoderDriver.h **** #ifndef ENCODERDRIVER_H
   2:GUI/FX/../../Drivers/EncoderDriver.h **** #define ENCODERDRIVER_H
   3:GUI/FX/../../Drivers/EncoderDriver.h **** 
   4:GUI/FX/../../Drivers/EncoderDriver.h **** #include "../Parameters/SteppedParameter.h"
   5:GUI/FX/../../Drivers/EncoderDriver.h **** 
   6:GUI/FX/../../Drivers/EncoderDriver.h **** /*****************************************************************************//**
   7:GUI/FX/../../Drivers/EncoderDriver.h ****  *  Class name: EncoderDriver
   8:GUI/FX/../../Drivers/EncoderDriver.h ****  *  Function: Driver for the encoder input, controls the value of FX parameters
   9:GUI/FX/../../Drivers/EncoderDriver.h ****  * 
  10:GUI/FX/../../Drivers/EncoderDriver.h ****  *  Based off of Encoder class from libDaisy (Stephen Hensley, 2019)
  11:GUI/FX/../../Drivers/EncoderDriver.h ****  *  https://github.com/electro-smith/libDaisy/blob/master/src/hid/encoder.h
  12:GUI/FX/../../Drivers/EncoderDriver.h ****  ********************************************************************************/
  13:GUI/FX/../../Drivers/EncoderDriver.h **** 
  14:GUI/FX/../../Drivers/EncoderDriver.h **** class EncoderDriver
  15:GUI/FX/../../Drivers/EncoderDriver.h **** {
  16:GUI/FX/../../Drivers/EncoderDriver.h **** public:
  17:GUI/FX/../../Drivers/EncoderDriver.h **** 
  18:GUI/FX/../../Drivers/EncoderDriver.h ****     /***********************************************************************//**
  19:GUI/FX/../../Drivers/EncoderDriver.h ****     * @brief Initialises the driver
  20:GUI/FX/../../Drivers/EncoderDriver.h ****     * @param button The pin used for the centre push button
  21:GUI/FX/../../Drivers/EncoderDriver.h ****     * @param a The pin used for channel A of the encoder
  22:GUI/FX/../../Drivers/EncoderDriver.h ****     * @param b The pin used for channel B of the encoder
  23:GUI/FX/../../Drivers/EncoderDriver.h ****     * @param navCb The function used for navigation
  24:GUI/FX/../../Drivers/EncoderDriver.h ****     ***************************************************************************/
  25:GUI/FX/../../Drivers/EncoderDriver.h ****     void init(dsy_gpio_pin button, dsy_gpio_pin a, dsy_gpio_pin b, std::function<void()> navCb)
  26:GUI/FX/../../Drivers/EncoderDriver.h ****     {
ARM GAS  /var/folders/wz/z09yph4n0qj4t7mjxhl6ttn80000gn/T//cc3KzP2n.s 			page 80


  27:GUI/FX/../../Drivers/EncoderDriver.h ****         parameters.reserve(70);
  28:GUI/FX/../../Drivers/EncoderDriver.h **** 
  29:GUI/FX/../../Drivers/EncoderDriver.h ****         prevUpdate = 0;
  30:GUI/FX/../../Drivers/EncoderDriver.h ****         isUpdated = false;
  31:GUI/FX/../../Drivers/EncoderDriver.h **** 
  32:GUI/FX/../../Drivers/EncoderDriver.h ****         isNavigation = true;
  33:GUI/FX/../../Drivers/EncoderDriver.h ****         navCallback = navCb;
  34:GUI/FX/../../Drivers/EncoderDriver.h **** 
  35:GUI/FX/../../Drivers/EncoderDriver.h ****         currentParam = 0;
  36:GUI/FX/../../Drivers/EncoderDriver.h ****         valueA = 0xFF;
  37:GUI/FX/../../Drivers/EncoderDriver.h ****         valueB = 0xFF;
  38:GUI/FX/../../Drivers/EncoderDriver.h **** 
  39:GUI/FX/../../Drivers/EncoderDriver.h ****         btn.Init(button);
  40:GUI/FX/../../Drivers/EncoderDriver.h ****         
  41:GUI/FX/../../Drivers/EncoderDriver.h ****         channelA.pin = a;
  42:GUI/FX/../../Drivers/EncoderDriver.h ****         channelB.pin = b;
  43:GUI/FX/../../Drivers/EncoderDriver.h ****         channelA.mode = DSY_GPIO_MODE_INPUT;
  44:GUI/FX/../../Drivers/EncoderDriver.h ****         channelB.mode = DSY_GPIO_MODE_INPUT;
  45:GUI/FX/../../Drivers/EncoderDriver.h ****         channelA.pull = DSY_GPIO_PULLUP;
  46:GUI/FX/../../Drivers/EncoderDriver.h ****         channelB.pull = DSY_GPIO_PULLUP;
  47:GUI/FX/../../Drivers/EncoderDriver.h ****         dsy_gpio_init(&channelA);
  48:GUI/FX/../../Drivers/EncoderDriver.h ****         dsy_gpio_init(&channelB);
  49:GUI/FX/../../Drivers/EncoderDriver.h **** 
  50:GUI/FX/../../Drivers/EncoderDriver.h ****         // FOR TESTING
  51:GUI/FX/../../Drivers/EncoderDriver.h ****         currentParam = 3;
  52:GUI/FX/../../Drivers/EncoderDriver.h ****     }
  53:GUI/FX/../../Drivers/EncoderDriver.h **** 
  54:GUI/FX/../../Drivers/EncoderDriver.h ****     /***********************************************************************//**
  55:GUI/FX/../../Drivers/EncoderDriver.h ****     * @brief Polls the inputs to see if a change has occured
  56:GUI/FX/../../Drivers/EncoderDriver.h ****     ***************************************************************************/
  57:GUI/FX/../../Drivers/EncoderDriver.h ****     void tick()
  58:GUI/FX/../../Drivers/EncoderDriver.h ****     {
  59:GUI/FX/../../Drivers/EncoderDriver.h ****         u_int32_t now = System::GetNow();
  60:GUI/FX/../../Drivers/EncoderDriver.h ****         if(now - prevUpdate >= 1) // adjust to change update rate, 1 = 1000Hz, 2 = 2000Hz etc.
  61:GUI/FX/../../Drivers/EncoderDriver.h ****         {
  62:GUI/FX/../../Drivers/EncoderDriver.h ****             prevUpdate = now;
  63:GUI/FX/../../Drivers/EncoderDriver.h **** 
  64:GUI/FX/../../Drivers/EncoderDriver.h ****             // Shift Button states to debounce
  65:GUI/FX/../../Drivers/EncoderDriver.h ****             valueA = (valueA << 1) | dsy_gpio_read(&channelA);
  66:GUI/FX/../../Drivers/EncoderDriver.h ****             valueB = (valueB << 1) | dsy_gpio_read(&channelB);
  67:GUI/FX/../../Drivers/EncoderDriver.h **** 
  68:GUI/FX/../../Drivers/EncoderDriver.h ****             if(!isNavigation)
  69:GUI/FX/../../Drivers/EncoderDriver.h ****             {
  70:GUI/FX/../../Drivers/EncoderDriver.h ****                 if((valueA & 0x03) == 0x02 && (valueB & 0x03) == 0x00)
  71:GUI/FX/../../Drivers/EncoderDriver.h ****                     parameters[currentParam]->decrement();
  72:GUI/FX/../../Drivers/EncoderDriver.h ****                 else if((valueB & 0x03) == 0x02 && (valueA & 0x03) == 0x00)
  73:GUI/FX/../../Drivers/EncoderDriver.h ****                     parameters[currentParam]->increment();
  74:GUI/FX/../../Drivers/EncoderDriver.h ****             }
  75:GUI/FX/../../Drivers/EncoderDriver.h ****         }
  76:GUI/FX/../../Drivers/EncoderDriver.h **** 
  77:GUI/FX/../../Drivers/EncoderDriver.h ****         btn.Debounce();
  78:GUI/FX/../../Drivers/EncoderDriver.h ****         if(btn.Pressed())
  79:GUI/FX/../../Drivers/EncoderDriver.h ****             buttonCallback();
  80:GUI/FX/../../Drivers/EncoderDriver.h ****     }
  81:GUI/FX/../../Drivers/EncoderDriver.h **** 
  82:GUI/FX/../../Drivers/EncoderDriver.h ****     /***********************************************************************//**
  83:GUI/FX/../../Drivers/EncoderDriver.h ****     * @brief The callback function executed when the centre button 
ARM GAS  /var/folders/wz/z09yph4n0qj4t7mjxhl6ttn80000gn/T//cc3KzP2n.s 			page 81


  84:GUI/FX/../../Drivers/EncoderDriver.h ****     ***************************************************************************/
  85:GUI/FX/../../Drivers/EncoderDriver.h ****     void buttonCallback()
  86:GUI/FX/../../Drivers/EncoderDriver.h ****     {
  87:GUI/FX/../../Drivers/EncoderDriver.h ****         if(isNavigation)
  88:GUI/FX/../../Drivers/EncoderDriver.h ****             navCallback();
  89:GUI/FX/../../Drivers/EncoderDriver.h ****     }
  90:GUI/FX/../../Drivers/EncoderDriver.h **** 
  91:GUI/FX/../../Drivers/EncoderDriver.h ****     /***********************************************************************//**
  92:GUI/FX/../../Drivers/EncoderDriver.h ****     * @brief Gets the state of the encoder's centre button
  93:GUI/FX/../../Drivers/EncoderDriver.h ****     * @return If the button is pressed or not
  94:GUI/FX/../../Drivers/EncoderDriver.h ****     ***************************************************************************/
  95:GUI/FX/../../Drivers/EncoderDriver.h ****     bool getButtonState() { return btn.Pressed(); }
  96:GUI/FX/../../Drivers/EncoderDriver.h **** 
  97:GUI/FX/../../Drivers/EncoderDriver.h ****     /********************************************************************************//**
  98:GUI/FX/../../Drivers/EncoderDriver.h ****     * @brief Gets the bypass callback for a given index from the bypassCallbacks vector
  99:GUI/FX/../../Drivers/EncoderDriver.h ****     ************************************************************************************/
 100:GUI/FX/../../Drivers/EncoderDriver.h ****     std::function<void()> getBypassCallback(size_t index) { return bypassCallbacks.at(index); }
 2059              		.loc 6 100 27 is_stmt 1 view .LVU510
 2060              	.LBB545:
 2061              		.loc 6 100 61 view .LVU511
 2062              	.LBB546:
 2063              	.LBI546:
 2064              		.file 7 "/Library/DaisyToolchain/0.2.0/arm/arm-none-eabi/include/c++/10.3.1/bits/stl_vector.h"
   1:/Library/DaisyToolchain/0.2.0/arm/arm-none-eabi/include/c++/10.3.1/bits/stl_vector.h **** // Vector implementation -*- C++ -*-
   2:/Library/DaisyToolchain/0.2.0/arm/arm-none-eabi/include/c++/10.3.1/bits/stl_vector.h **** 
   3:/Library/DaisyToolchain/0.2.0/arm/arm-none-eabi/include/c++/10.3.1/bits/stl_vector.h **** // Copyright (C) 2001-2020 Free Software Foundation, Inc.
   4:/Library/DaisyToolchain/0.2.0/arm/arm-none-eabi/include/c++/10.3.1/bits/stl_vector.h **** //
   5:/Library/DaisyToolchain/0.2.0/arm/arm-none-eabi/include/c++/10.3.1/bits/stl_vector.h **** // This file is part of the GNU ISO C++ Library.  This library is free
   6:/Library/DaisyToolchain/0.2.0/arm/arm-none-eabi/include/c++/10.3.1/bits/stl_vector.h **** // software; you can redistribute it and/or modify it under the
   7:/Library/DaisyToolchain/0.2.0/arm/arm-none-eabi/include/c++/10.3.1/bits/stl_vector.h **** // terms of the GNU General Public License as published by the
   8:/Library/DaisyToolchain/0.2.0/arm/arm-none-eabi/include/c++/10.3.1/bits/stl_vector.h **** // Free Software Foundation; either version 3, or (at your option)
   9:/Library/DaisyToolchain/0.2.0/arm/arm-none-eabi/include/c++/10.3.1/bits/stl_vector.h **** // any later version.
  10:/Library/DaisyToolchain/0.2.0/arm/arm-none-eabi/include/c++/10.3.1/bits/stl_vector.h **** 
  11:/Library/DaisyToolchain/0.2.0/arm/arm-none-eabi/include/c++/10.3.1/bits/stl_vector.h **** // This library is distributed in the hope that it will be useful,
  12:/Library/DaisyToolchain/0.2.0/arm/arm-none-eabi/include/c++/10.3.1/bits/stl_vector.h **** // but WITHOUT ANY WARRANTY; without even the implied warranty of
  13:/Library/DaisyToolchain/0.2.0/arm/arm-none-eabi/include/c++/10.3.1/bits/stl_vector.h **** // MERCHANTABILITY or FITNESS FOR A PARTICULAR PURPOSE.  See the
  14:/Library/DaisyToolchain/0.2.0/arm/arm-none-eabi/include/c++/10.3.1/bits/stl_vector.h **** // GNU General Public License for more details.
  15:/Library/DaisyToolchain/0.2.0/arm/arm-none-eabi/include/c++/10.3.1/bits/stl_vector.h **** 
  16:/Library/DaisyToolchain/0.2.0/arm/arm-none-eabi/include/c++/10.3.1/bits/stl_vector.h **** // Under Section 7 of GPL version 3, you are granted additional
  17:/Library/DaisyToolchain/0.2.0/arm/arm-none-eabi/include/c++/10.3.1/bits/stl_vector.h **** // permissions described in the GCC Runtime Library Exception, version
  18:/Library/DaisyToolchain/0.2.0/arm/arm-none-eabi/include/c++/10.3.1/bits/stl_vector.h **** // 3.1, as published by the Free Software Foundation.
  19:/Library/DaisyToolchain/0.2.0/arm/arm-none-eabi/include/c++/10.3.1/bits/stl_vector.h **** 
  20:/Library/DaisyToolchain/0.2.0/arm/arm-none-eabi/include/c++/10.3.1/bits/stl_vector.h **** // You should have received a copy of the GNU General Public License and
  21:/Library/DaisyToolchain/0.2.0/arm/arm-none-eabi/include/c++/10.3.1/bits/stl_vector.h **** // a copy of the GCC Runtime Library Exception along with this program;
  22:/Library/DaisyToolchain/0.2.0/arm/arm-none-eabi/include/c++/10.3.1/bits/stl_vector.h **** // see the files COPYING3 and COPYING.RUNTIME respectively.  If not, see
  23:/Library/DaisyToolchain/0.2.0/arm/arm-none-eabi/include/c++/10.3.1/bits/stl_vector.h **** // <http://www.gnu.org/licenses/>.
  24:/Library/DaisyToolchain/0.2.0/arm/arm-none-eabi/include/c++/10.3.1/bits/stl_vector.h **** 
  25:/Library/DaisyToolchain/0.2.0/arm/arm-none-eabi/include/c++/10.3.1/bits/stl_vector.h **** /*
  26:/Library/DaisyToolchain/0.2.0/arm/arm-none-eabi/include/c++/10.3.1/bits/stl_vector.h ****  *
  27:/Library/DaisyToolchain/0.2.0/arm/arm-none-eabi/include/c++/10.3.1/bits/stl_vector.h ****  * Copyright (c) 1994
  28:/Library/DaisyToolchain/0.2.0/arm/arm-none-eabi/include/c++/10.3.1/bits/stl_vector.h ****  * Hewlett-Packard Company
  29:/Library/DaisyToolchain/0.2.0/arm/arm-none-eabi/include/c++/10.3.1/bits/stl_vector.h ****  *
  30:/Library/DaisyToolchain/0.2.0/arm/arm-none-eabi/include/c++/10.3.1/bits/stl_vector.h ****  * Permission to use, copy, modify, distribute and sell this software
  31:/Library/DaisyToolchain/0.2.0/arm/arm-none-eabi/include/c++/10.3.1/bits/stl_vector.h ****  * and its documentation for any purpose is hereby granted without fee,
  32:/Library/DaisyToolchain/0.2.0/arm/arm-none-eabi/include/c++/10.3.1/bits/stl_vector.h ****  * provided that the above copyright notice appear in all copies and
  33:/Library/DaisyToolchain/0.2.0/arm/arm-none-eabi/include/c++/10.3.1/bits/stl_vector.h ****  * that both that copyright notice and this permission notice appear
  34:/Library/DaisyToolchain/0.2.0/arm/arm-none-eabi/include/c++/10.3.1/bits/stl_vector.h ****  * in supporting documentation.  Hewlett-Packard Company makes no
ARM GAS  /var/folders/wz/z09yph4n0qj4t7mjxhl6ttn80000gn/T//cc3KzP2n.s 			page 82


  35:/Library/DaisyToolchain/0.2.0/arm/arm-none-eabi/include/c++/10.3.1/bits/stl_vector.h ****  * representations about the suitability of this software for any
  36:/Library/DaisyToolchain/0.2.0/arm/arm-none-eabi/include/c++/10.3.1/bits/stl_vector.h ****  * purpose.  It is provided "as is" without express or implied warranty.
  37:/Library/DaisyToolchain/0.2.0/arm/arm-none-eabi/include/c++/10.3.1/bits/stl_vector.h ****  *
  38:/Library/DaisyToolchain/0.2.0/arm/arm-none-eabi/include/c++/10.3.1/bits/stl_vector.h ****  *
  39:/Library/DaisyToolchain/0.2.0/arm/arm-none-eabi/include/c++/10.3.1/bits/stl_vector.h ****  * Copyright (c) 1996
  40:/Library/DaisyToolchain/0.2.0/arm/arm-none-eabi/include/c++/10.3.1/bits/stl_vector.h ****  * Silicon Graphics Computer Systems, Inc.
  41:/Library/DaisyToolchain/0.2.0/arm/arm-none-eabi/include/c++/10.3.1/bits/stl_vector.h ****  *
  42:/Library/DaisyToolchain/0.2.0/arm/arm-none-eabi/include/c++/10.3.1/bits/stl_vector.h ****  * Permission to use, copy, modify, distribute and sell this software
  43:/Library/DaisyToolchain/0.2.0/arm/arm-none-eabi/include/c++/10.3.1/bits/stl_vector.h ****  * and its documentation for any purpose is hereby granted without fee,
  44:/Library/DaisyToolchain/0.2.0/arm/arm-none-eabi/include/c++/10.3.1/bits/stl_vector.h ****  * provided that the above copyright notice appear in all copies and
  45:/Library/DaisyToolchain/0.2.0/arm/arm-none-eabi/include/c++/10.3.1/bits/stl_vector.h ****  * that both that copyright notice and this permission notice appear
  46:/Library/DaisyToolchain/0.2.0/arm/arm-none-eabi/include/c++/10.3.1/bits/stl_vector.h ****  * in supporting documentation.  Silicon Graphics makes no
  47:/Library/DaisyToolchain/0.2.0/arm/arm-none-eabi/include/c++/10.3.1/bits/stl_vector.h ****  * representations about the suitability of this  software for any
  48:/Library/DaisyToolchain/0.2.0/arm/arm-none-eabi/include/c++/10.3.1/bits/stl_vector.h ****  * purpose.  It is provided "as is" without express or implied warranty.
  49:/Library/DaisyToolchain/0.2.0/arm/arm-none-eabi/include/c++/10.3.1/bits/stl_vector.h ****  */
  50:/Library/DaisyToolchain/0.2.0/arm/arm-none-eabi/include/c++/10.3.1/bits/stl_vector.h **** 
  51:/Library/DaisyToolchain/0.2.0/arm/arm-none-eabi/include/c++/10.3.1/bits/stl_vector.h **** /** @file bits/stl_vector.h
  52:/Library/DaisyToolchain/0.2.0/arm/arm-none-eabi/include/c++/10.3.1/bits/stl_vector.h ****  *  This is an internal header file, included by other library headers.
  53:/Library/DaisyToolchain/0.2.0/arm/arm-none-eabi/include/c++/10.3.1/bits/stl_vector.h ****  *  Do not attempt to use it directly. @headername{vector}
  54:/Library/DaisyToolchain/0.2.0/arm/arm-none-eabi/include/c++/10.3.1/bits/stl_vector.h ****  */
  55:/Library/DaisyToolchain/0.2.0/arm/arm-none-eabi/include/c++/10.3.1/bits/stl_vector.h **** 
  56:/Library/DaisyToolchain/0.2.0/arm/arm-none-eabi/include/c++/10.3.1/bits/stl_vector.h **** #ifndef _STL_VECTOR_H
  57:/Library/DaisyToolchain/0.2.0/arm/arm-none-eabi/include/c++/10.3.1/bits/stl_vector.h **** #define _STL_VECTOR_H 1
  58:/Library/DaisyToolchain/0.2.0/arm/arm-none-eabi/include/c++/10.3.1/bits/stl_vector.h **** 
  59:/Library/DaisyToolchain/0.2.0/arm/arm-none-eabi/include/c++/10.3.1/bits/stl_vector.h **** #include <bits/stl_iterator_base_funcs.h>
  60:/Library/DaisyToolchain/0.2.0/arm/arm-none-eabi/include/c++/10.3.1/bits/stl_vector.h **** #include <bits/functexcept.h>
  61:/Library/DaisyToolchain/0.2.0/arm/arm-none-eabi/include/c++/10.3.1/bits/stl_vector.h **** #include <bits/concept_check.h>
  62:/Library/DaisyToolchain/0.2.0/arm/arm-none-eabi/include/c++/10.3.1/bits/stl_vector.h **** #if __cplusplus >= 201103L
  63:/Library/DaisyToolchain/0.2.0/arm/arm-none-eabi/include/c++/10.3.1/bits/stl_vector.h **** #include <initializer_list>
  64:/Library/DaisyToolchain/0.2.0/arm/arm-none-eabi/include/c++/10.3.1/bits/stl_vector.h **** #endif
  65:/Library/DaisyToolchain/0.2.0/arm/arm-none-eabi/include/c++/10.3.1/bits/stl_vector.h **** #if __cplusplus > 201703L
  66:/Library/DaisyToolchain/0.2.0/arm/arm-none-eabi/include/c++/10.3.1/bits/stl_vector.h **** # include <compare>
  67:/Library/DaisyToolchain/0.2.0/arm/arm-none-eabi/include/c++/10.3.1/bits/stl_vector.h **** #endif
  68:/Library/DaisyToolchain/0.2.0/arm/arm-none-eabi/include/c++/10.3.1/bits/stl_vector.h **** 
  69:/Library/DaisyToolchain/0.2.0/arm/arm-none-eabi/include/c++/10.3.1/bits/stl_vector.h **** #include <debug/assertions.h>
  70:/Library/DaisyToolchain/0.2.0/arm/arm-none-eabi/include/c++/10.3.1/bits/stl_vector.h **** 
  71:/Library/DaisyToolchain/0.2.0/arm/arm-none-eabi/include/c++/10.3.1/bits/stl_vector.h **** #if _GLIBCXX_SANITIZE_STD_ALLOCATOR && _GLIBCXX_SANITIZE_VECTOR
  72:/Library/DaisyToolchain/0.2.0/arm/arm-none-eabi/include/c++/10.3.1/bits/stl_vector.h **** extern "C" void
  73:/Library/DaisyToolchain/0.2.0/arm/arm-none-eabi/include/c++/10.3.1/bits/stl_vector.h **** __sanitizer_annotate_contiguous_container(const void*, const void*,
  74:/Library/DaisyToolchain/0.2.0/arm/arm-none-eabi/include/c++/10.3.1/bits/stl_vector.h **** 					  const void*, const void*);
  75:/Library/DaisyToolchain/0.2.0/arm/arm-none-eabi/include/c++/10.3.1/bits/stl_vector.h **** #endif
  76:/Library/DaisyToolchain/0.2.0/arm/arm-none-eabi/include/c++/10.3.1/bits/stl_vector.h **** 
  77:/Library/DaisyToolchain/0.2.0/arm/arm-none-eabi/include/c++/10.3.1/bits/stl_vector.h **** namespace std _GLIBCXX_VISIBILITY(default)
  78:/Library/DaisyToolchain/0.2.0/arm/arm-none-eabi/include/c++/10.3.1/bits/stl_vector.h **** {
  79:/Library/DaisyToolchain/0.2.0/arm/arm-none-eabi/include/c++/10.3.1/bits/stl_vector.h **** _GLIBCXX_BEGIN_NAMESPACE_VERSION
  80:/Library/DaisyToolchain/0.2.0/arm/arm-none-eabi/include/c++/10.3.1/bits/stl_vector.h **** _GLIBCXX_BEGIN_NAMESPACE_CONTAINER
  81:/Library/DaisyToolchain/0.2.0/arm/arm-none-eabi/include/c++/10.3.1/bits/stl_vector.h **** 
  82:/Library/DaisyToolchain/0.2.0/arm/arm-none-eabi/include/c++/10.3.1/bits/stl_vector.h ****   /// See bits/stl_deque.h's _Deque_base for an explanation.
  83:/Library/DaisyToolchain/0.2.0/arm/arm-none-eabi/include/c++/10.3.1/bits/stl_vector.h ****   template<typename _Tp, typename _Alloc>
  84:/Library/DaisyToolchain/0.2.0/arm/arm-none-eabi/include/c++/10.3.1/bits/stl_vector.h ****     struct _Vector_base
  85:/Library/DaisyToolchain/0.2.0/arm/arm-none-eabi/include/c++/10.3.1/bits/stl_vector.h ****     {
  86:/Library/DaisyToolchain/0.2.0/arm/arm-none-eabi/include/c++/10.3.1/bits/stl_vector.h ****       typedef typename __gnu_cxx::__alloc_traits<_Alloc>::template
  87:/Library/DaisyToolchain/0.2.0/arm/arm-none-eabi/include/c++/10.3.1/bits/stl_vector.h **** 	rebind<_Tp>::other _Tp_alloc_type;
  88:/Library/DaisyToolchain/0.2.0/arm/arm-none-eabi/include/c++/10.3.1/bits/stl_vector.h ****       typedef typename __gnu_cxx::__alloc_traits<_Tp_alloc_type>::pointer
  89:/Library/DaisyToolchain/0.2.0/arm/arm-none-eabi/include/c++/10.3.1/bits/stl_vector.h ****        	pointer;
  90:/Library/DaisyToolchain/0.2.0/arm/arm-none-eabi/include/c++/10.3.1/bits/stl_vector.h **** 
  91:/Library/DaisyToolchain/0.2.0/arm/arm-none-eabi/include/c++/10.3.1/bits/stl_vector.h ****       struct _Vector_impl_data
ARM GAS  /var/folders/wz/z09yph4n0qj4t7mjxhl6ttn80000gn/T//cc3KzP2n.s 			page 83


  92:/Library/DaisyToolchain/0.2.0/arm/arm-none-eabi/include/c++/10.3.1/bits/stl_vector.h ****       {
  93:/Library/DaisyToolchain/0.2.0/arm/arm-none-eabi/include/c++/10.3.1/bits/stl_vector.h **** 	pointer _M_start;
  94:/Library/DaisyToolchain/0.2.0/arm/arm-none-eabi/include/c++/10.3.1/bits/stl_vector.h **** 	pointer _M_finish;
  95:/Library/DaisyToolchain/0.2.0/arm/arm-none-eabi/include/c++/10.3.1/bits/stl_vector.h **** 	pointer _M_end_of_storage;
  96:/Library/DaisyToolchain/0.2.0/arm/arm-none-eabi/include/c++/10.3.1/bits/stl_vector.h **** 
  97:/Library/DaisyToolchain/0.2.0/arm/arm-none-eabi/include/c++/10.3.1/bits/stl_vector.h **** 	_Vector_impl_data() _GLIBCXX_NOEXCEPT
  98:/Library/DaisyToolchain/0.2.0/arm/arm-none-eabi/include/c++/10.3.1/bits/stl_vector.h **** 	: _M_start(), _M_finish(), _M_end_of_storage()
  99:/Library/DaisyToolchain/0.2.0/arm/arm-none-eabi/include/c++/10.3.1/bits/stl_vector.h **** 	{ }
 100:/Library/DaisyToolchain/0.2.0/arm/arm-none-eabi/include/c++/10.3.1/bits/stl_vector.h **** 
 101:/Library/DaisyToolchain/0.2.0/arm/arm-none-eabi/include/c++/10.3.1/bits/stl_vector.h **** #if __cplusplus >= 201103L
 102:/Library/DaisyToolchain/0.2.0/arm/arm-none-eabi/include/c++/10.3.1/bits/stl_vector.h **** 	_Vector_impl_data(_Vector_impl_data&& __x) noexcept
 103:/Library/DaisyToolchain/0.2.0/arm/arm-none-eabi/include/c++/10.3.1/bits/stl_vector.h **** 	: _M_start(__x._M_start), _M_finish(__x._M_finish),
 104:/Library/DaisyToolchain/0.2.0/arm/arm-none-eabi/include/c++/10.3.1/bits/stl_vector.h **** 	  _M_end_of_storage(__x._M_end_of_storage)
 105:/Library/DaisyToolchain/0.2.0/arm/arm-none-eabi/include/c++/10.3.1/bits/stl_vector.h **** 	{ __x._M_start = __x._M_finish = __x._M_end_of_storage = pointer(); }
 106:/Library/DaisyToolchain/0.2.0/arm/arm-none-eabi/include/c++/10.3.1/bits/stl_vector.h **** #endif
 107:/Library/DaisyToolchain/0.2.0/arm/arm-none-eabi/include/c++/10.3.1/bits/stl_vector.h **** 
 108:/Library/DaisyToolchain/0.2.0/arm/arm-none-eabi/include/c++/10.3.1/bits/stl_vector.h **** 	void
 109:/Library/DaisyToolchain/0.2.0/arm/arm-none-eabi/include/c++/10.3.1/bits/stl_vector.h **** 	_M_copy_data(_Vector_impl_data const& __x) _GLIBCXX_NOEXCEPT
 110:/Library/DaisyToolchain/0.2.0/arm/arm-none-eabi/include/c++/10.3.1/bits/stl_vector.h **** 	{
 111:/Library/DaisyToolchain/0.2.0/arm/arm-none-eabi/include/c++/10.3.1/bits/stl_vector.h **** 	  _M_start = __x._M_start;
 112:/Library/DaisyToolchain/0.2.0/arm/arm-none-eabi/include/c++/10.3.1/bits/stl_vector.h **** 	  _M_finish = __x._M_finish;
 113:/Library/DaisyToolchain/0.2.0/arm/arm-none-eabi/include/c++/10.3.1/bits/stl_vector.h **** 	  _M_end_of_storage = __x._M_end_of_storage;
 114:/Library/DaisyToolchain/0.2.0/arm/arm-none-eabi/include/c++/10.3.1/bits/stl_vector.h **** 	}
 115:/Library/DaisyToolchain/0.2.0/arm/arm-none-eabi/include/c++/10.3.1/bits/stl_vector.h **** 
 116:/Library/DaisyToolchain/0.2.0/arm/arm-none-eabi/include/c++/10.3.1/bits/stl_vector.h **** 	void
 117:/Library/DaisyToolchain/0.2.0/arm/arm-none-eabi/include/c++/10.3.1/bits/stl_vector.h **** 	_M_swap_data(_Vector_impl_data& __x) _GLIBCXX_NOEXCEPT
 118:/Library/DaisyToolchain/0.2.0/arm/arm-none-eabi/include/c++/10.3.1/bits/stl_vector.h **** 	{
 119:/Library/DaisyToolchain/0.2.0/arm/arm-none-eabi/include/c++/10.3.1/bits/stl_vector.h **** 	  // Do not use std::swap(_M_start, __x._M_start), etc as it loses
 120:/Library/DaisyToolchain/0.2.0/arm/arm-none-eabi/include/c++/10.3.1/bits/stl_vector.h **** 	  // information used by TBAA.
 121:/Library/DaisyToolchain/0.2.0/arm/arm-none-eabi/include/c++/10.3.1/bits/stl_vector.h **** 	  _Vector_impl_data __tmp;
 122:/Library/DaisyToolchain/0.2.0/arm/arm-none-eabi/include/c++/10.3.1/bits/stl_vector.h **** 	  __tmp._M_copy_data(*this);
 123:/Library/DaisyToolchain/0.2.0/arm/arm-none-eabi/include/c++/10.3.1/bits/stl_vector.h **** 	  _M_copy_data(__x);
 124:/Library/DaisyToolchain/0.2.0/arm/arm-none-eabi/include/c++/10.3.1/bits/stl_vector.h **** 	  __x._M_copy_data(__tmp);
 125:/Library/DaisyToolchain/0.2.0/arm/arm-none-eabi/include/c++/10.3.1/bits/stl_vector.h **** 	}
 126:/Library/DaisyToolchain/0.2.0/arm/arm-none-eabi/include/c++/10.3.1/bits/stl_vector.h ****       };
 127:/Library/DaisyToolchain/0.2.0/arm/arm-none-eabi/include/c++/10.3.1/bits/stl_vector.h **** 
 128:/Library/DaisyToolchain/0.2.0/arm/arm-none-eabi/include/c++/10.3.1/bits/stl_vector.h ****       struct _Vector_impl
 129:/Library/DaisyToolchain/0.2.0/arm/arm-none-eabi/include/c++/10.3.1/bits/stl_vector.h **** 	: public _Tp_alloc_type, public _Vector_impl_data
 130:/Library/DaisyToolchain/0.2.0/arm/arm-none-eabi/include/c++/10.3.1/bits/stl_vector.h ****       {
 131:/Library/DaisyToolchain/0.2.0/arm/arm-none-eabi/include/c++/10.3.1/bits/stl_vector.h **** 	_Vector_impl() _GLIBCXX_NOEXCEPT_IF(
 132:/Library/DaisyToolchain/0.2.0/arm/arm-none-eabi/include/c++/10.3.1/bits/stl_vector.h **** 	    is_nothrow_default_constructible<_Tp_alloc_type>::value)
 133:/Library/DaisyToolchain/0.2.0/arm/arm-none-eabi/include/c++/10.3.1/bits/stl_vector.h **** 	: _Tp_alloc_type()
 134:/Library/DaisyToolchain/0.2.0/arm/arm-none-eabi/include/c++/10.3.1/bits/stl_vector.h **** 	{ }
 135:/Library/DaisyToolchain/0.2.0/arm/arm-none-eabi/include/c++/10.3.1/bits/stl_vector.h **** 
 136:/Library/DaisyToolchain/0.2.0/arm/arm-none-eabi/include/c++/10.3.1/bits/stl_vector.h **** 	_Vector_impl(_Tp_alloc_type const& __a) _GLIBCXX_NOEXCEPT
 137:/Library/DaisyToolchain/0.2.0/arm/arm-none-eabi/include/c++/10.3.1/bits/stl_vector.h **** 	: _Tp_alloc_type(__a)
 138:/Library/DaisyToolchain/0.2.0/arm/arm-none-eabi/include/c++/10.3.1/bits/stl_vector.h **** 	{ }
 139:/Library/DaisyToolchain/0.2.0/arm/arm-none-eabi/include/c++/10.3.1/bits/stl_vector.h **** 
 140:/Library/DaisyToolchain/0.2.0/arm/arm-none-eabi/include/c++/10.3.1/bits/stl_vector.h **** #if __cplusplus >= 201103L
 141:/Library/DaisyToolchain/0.2.0/arm/arm-none-eabi/include/c++/10.3.1/bits/stl_vector.h **** 	// Not defaulted, to enforce noexcept(true) even when
 142:/Library/DaisyToolchain/0.2.0/arm/arm-none-eabi/include/c++/10.3.1/bits/stl_vector.h **** 	// !is_nothrow_move_constructible<_Tp_alloc_type>.
 143:/Library/DaisyToolchain/0.2.0/arm/arm-none-eabi/include/c++/10.3.1/bits/stl_vector.h **** 	_Vector_impl(_Vector_impl&& __x) noexcept
 144:/Library/DaisyToolchain/0.2.0/arm/arm-none-eabi/include/c++/10.3.1/bits/stl_vector.h **** 	: _Tp_alloc_type(std::move(__x)), _Vector_impl_data(std::move(__x))
 145:/Library/DaisyToolchain/0.2.0/arm/arm-none-eabi/include/c++/10.3.1/bits/stl_vector.h **** 	{ }
 146:/Library/DaisyToolchain/0.2.0/arm/arm-none-eabi/include/c++/10.3.1/bits/stl_vector.h **** 
 147:/Library/DaisyToolchain/0.2.0/arm/arm-none-eabi/include/c++/10.3.1/bits/stl_vector.h **** 	_Vector_impl(_Tp_alloc_type&& __a) noexcept
 148:/Library/DaisyToolchain/0.2.0/arm/arm-none-eabi/include/c++/10.3.1/bits/stl_vector.h **** 	: _Tp_alloc_type(std::move(__a))
ARM GAS  /var/folders/wz/z09yph4n0qj4t7mjxhl6ttn80000gn/T//cc3KzP2n.s 			page 84


 149:/Library/DaisyToolchain/0.2.0/arm/arm-none-eabi/include/c++/10.3.1/bits/stl_vector.h **** 	{ }
 150:/Library/DaisyToolchain/0.2.0/arm/arm-none-eabi/include/c++/10.3.1/bits/stl_vector.h **** 
 151:/Library/DaisyToolchain/0.2.0/arm/arm-none-eabi/include/c++/10.3.1/bits/stl_vector.h **** 	_Vector_impl(_Tp_alloc_type&& __a, _Vector_impl&& __rv) noexcept
 152:/Library/DaisyToolchain/0.2.0/arm/arm-none-eabi/include/c++/10.3.1/bits/stl_vector.h **** 	: _Tp_alloc_type(std::move(__a)), _Vector_impl_data(std::move(__rv))
 153:/Library/DaisyToolchain/0.2.0/arm/arm-none-eabi/include/c++/10.3.1/bits/stl_vector.h **** 	{ }
 154:/Library/DaisyToolchain/0.2.0/arm/arm-none-eabi/include/c++/10.3.1/bits/stl_vector.h **** #endif
 155:/Library/DaisyToolchain/0.2.0/arm/arm-none-eabi/include/c++/10.3.1/bits/stl_vector.h **** 
 156:/Library/DaisyToolchain/0.2.0/arm/arm-none-eabi/include/c++/10.3.1/bits/stl_vector.h **** #if _GLIBCXX_SANITIZE_STD_ALLOCATOR && _GLIBCXX_SANITIZE_VECTOR
 157:/Library/DaisyToolchain/0.2.0/arm/arm-none-eabi/include/c++/10.3.1/bits/stl_vector.h **** 	template<typename = _Tp_alloc_type>
 158:/Library/DaisyToolchain/0.2.0/arm/arm-none-eabi/include/c++/10.3.1/bits/stl_vector.h **** 	  struct _Asan
 159:/Library/DaisyToolchain/0.2.0/arm/arm-none-eabi/include/c++/10.3.1/bits/stl_vector.h **** 	  {
 160:/Library/DaisyToolchain/0.2.0/arm/arm-none-eabi/include/c++/10.3.1/bits/stl_vector.h **** 	    typedef typename __gnu_cxx::__alloc_traits<_Tp_alloc_type>
 161:/Library/DaisyToolchain/0.2.0/arm/arm-none-eabi/include/c++/10.3.1/bits/stl_vector.h **** 	      ::size_type size_type;
 162:/Library/DaisyToolchain/0.2.0/arm/arm-none-eabi/include/c++/10.3.1/bits/stl_vector.h **** 
 163:/Library/DaisyToolchain/0.2.0/arm/arm-none-eabi/include/c++/10.3.1/bits/stl_vector.h **** 	    static void _S_shrink(_Vector_impl&, size_type) { }
 164:/Library/DaisyToolchain/0.2.0/arm/arm-none-eabi/include/c++/10.3.1/bits/stl_vector.h **** 	    static void _S_on_dealloc(_Vector_impl&) { }
 165:/Library/DaisyToolchain/0.2.0/arm/arm-none-eabi/include/c++/10.3.1/bits/stl_vector.h **** 
 166:/Library/DaisyToolchain/0.2.0/arm/arm-none-eabi/include/c++/10.3.1/bits/stl_vector.h **** 	    typedef _Vector_impl& _Reinit;
 167:/Library/DaisyToolchain/0.2.0/arm/arm-none-eabi/include/c++/10.3.1/bits/stl_vector.h **** 
 168:/Library/DaisyToolchain/0.2.0/arm/arm-none-eabi/include/c++/10.3.1/bits/stl_vector.h **** 	    struct _Grow
 169:/Library/DaisyToolchain/0.2.0/arm/arm-none-eabi/include/c++/10.3.1/bits/stl_vector.h **** 	    {
 170:/Library/DaisyToolchain/0.2.0/arm/arm-none-eabi/include/c++/10.3.1/bits/stl_vector.h **** 	      _Grow(_Vector_impl&, size_type) { }
 171:/Library/DaisyToolchain/0.2.0/arm/arm-none-eabi/include/c++/10.3.1/bits/stl_vector.h **** 	      void _M_grew(size_type) { }
 172:/Library/DaisyToolchain/0.2.0/arm/arm-none-eabi/include/c++/10.3.1/bits/stl_vector.h **** 	    };
 173:/Library/DaisyToolchain/0.2.0/arm/arm-none-eabi/include/c++/10.3.1/bits/stl_vector.h **** 	  };
 174:/Library/DaisyToolchain/0.2.0/arm/arm-none-eabi/include/c++/10.3.1/bits/stl_vector.h **** 
 175:/Library/DaisyToolchain/0.2.0/arm/arm-none-eabi/include/c++/10.3.1/bits/stl_vector.h **** 	// Enable ASan annotations for memory obtained from std::allocator.
 176:/Library/DaisyToolchain/0.2.0/arm/arm-none-eabi/include/c++/10.3.1/bits/stl_vector.h **** 	template<typename _Up>
 177:/Library/DaisyToolchain/0.2.0/arm/arm-none-eabi/include/c++/10.3.1/bits/stl_vector.h **** 	  struct _Asan<allocator<_Up> >
 178:/Library/DaisyToolchain/0.2.0/arm/arm-none-eabi/include/c++/10.3.1/bits/stl_vector.h **** 	  {
 179:/Library/DaisyToolchain/0.2.0/arm/arm-none-eabi/include/c++/10.3.1/bits/stl_vector.h **** 	    typedef typename __gnu_cxx::__alloc_traits<_Tp_alloc_type>
 180:/Library/DaisyToolchain/0.2.0/arm/arm-none-eabi/include/c++/10.3.1/bits/stl_vector.h **** 	      ::size_type size_type;
 181:/Library/DaisyToolchain/0.2.0/arm/arm-none-eabi/include/c++/10.3.1/bits/stl_vector.h **** 
 182:/Library/DaisyToolchain/0.2.0/arm/arm-none-eabi/include/c++/10.3.1/bits/stl_vector.h **** 	    // Adjust ASan annotation for [_M_start, _M_end_of_storage) to
 183:/Library/DaisyToolchain/0.2.0/arm/arm-none-eabi/include/c++/10.3.1/bits/stl_vector.h **** 	    // mark end of valid region as __curr instead of __prev.
 184:/Library/DaisyToolchain/0.2.0/arm/arm-none-eabi/include/c++/10.3.1/bits/stl_vector.h **** 	    static void
 185:/Library/DaisyToolchain/0.2.0/arm/arm-none-eabi/include/c++/10.3.1/bits/stl_vector.h **** 	    _S_adjust(_Vector_impl& __impl, pointer __prev, pointer __curr)
 186:/Library/DaisyToolchain/0.2.0/arm/arm-none-eabi/include/c++/10.3.1/bits/stl_vector.h **** 	    {
 187:/Library/DaisyToolchain/0.2.0/arm/arm-none-eabi/include/c++/10.3.1/bits/stl_vector.h **** 	      __sanitizer_annotate_contiguous_container(__impl._M_start,
 188:/Library/DaisyToolchain/0.2.0/arm/arm-none-eabi/include/c++/10.3.1/bits/stl_vector.h **** 		  __impl._M_end_of_storage, __prev, __curr);
 189:/Library/DaisyToolchain/0.2.0/arm/arm-none-eabi/include/c++/10.3.1/bits/stl_vector.h **** 	    }
 190:/Library/DaisyToolchain/0.2.0/arm/arm-none-eabi/include/c++/10.3.1/bits/stl_vector.h **** 
 191:/Library/DaisyToolchain/0.2.0/arm/arm-none-eabi/include/c++/10.3.1/bits/stl_vector.h **** 	    static void
 192:/Library/DaisyToolchain/0.2.0/arm/arm-none-eabi/include/c++/10.3.1/bits/stl_vector.h **** 	    _S_grow(_Vector_impl& __impl, size_type __n)
 193:/Library/DaisyToolchain/0.2.0/arm/arm-none-eabi/include/c++/10.3.1/bits/stl_vector.h **** 	    { _S_adjust(__impl, __impl._M_finish, __impl._M_finish + __n); }
 194:/Library/DaisyToolchain/0.2.0/arm/arm-none-eabi/include/c++/10.3.1/bits/stl_vector.h **** 
 195:/Library/DaisyToolchain/0.2.0/arm/arm-none-eabi/include/c++/10.3.1/bits/stl_vector.h **** 	    static void
 196:/Library/DaisyToolchain/0.2.0/arm/arm-none-eabi/include/c++/10.3.1/bits/stl_vector.h **** 	    _S_shrink(_Vector_impl& __impl, size_type __n)
 197:/Library/DaisyToolchain/0.2.0/arm/arm-none-eabi/include/c++/10.3.1/bits/stl_vector.h **** 	    { _S_adjust(__impl, __impl._M_finish + __n, __impl._M_finish); }
 198:/Library/DaisyToolchain/0.2.0/arm/arm-none-eabi/include/c++/10.3.1/bits/stl_vector.h **** 
 199:/Library/DaisyToolchain/0.2.0/arm/arm-none-eabi/include/c++/10.3.1/bits/stl_vector.h **** 	    static void
 200:/Library/DaisyToolchain/0.2.0/arm/arm-none-eabi/include/c++/10.3.1/bits/stl_vector.h **** 	    _S_on_dealloc(_Vector_impl& __impl)
 201:/Library/DaisyToolchain/0.2.0/arm/arm-none-eabi/include/c++/10.3.1/bits/stl_vector.h **** 	    {
 202:/Library/DaisyToolchain/0.2.0/arm/arm-none-eabi/include/c++/10.3.1/bits/stl_vector.h **** 	      if (__impl._M_start)
 203:/Library/DaisyToolchain/0.2.0/arm/arm-none-eabi/include/c++/10.3.1/bits/stl_vector.h **** 		_S_adjust(__impl, __impl._M_finish, __impl._M_end_of_storage);
 204:/Library/DaisyToolchain/0.2.0/arm/arm-none-eabi/include/c++/10.3.1/bits/stl_vector.h **** 	    }
 205:/Library/DaisyToolchain/0.2.0/arm/arm-none-eabi/include/c++/10.3.1/bits/stl_vector.h **** 
ARM GAS  /var/folders/wz/z09yph4n0qj4t7mjxhl6ttn80000gn/T//cc3KzP2n.s 			page 85


 206:/Library/DaisyToolchain/0.2.0/arm/arm-none-eabi/include/c++/10.3.1/bits/stl_vector.h **** 	    // Used on reallocation to tell ASan unused capacity is invalid.
 207:/Library/DaisyToolchain/0.2.0/arm/arm-none-eabi/include/c++/10.3.1/bits/stl_vector.h **** 	    struct _Reinit
 208:/Library/DaisyToolchain/0.2.0/arm/arm-none-eabi/include/c++/10.3.1/bits/stl_vector.h **** 	    {
 209:/Library/DaisyToolchain/0.2.0/arm/arm-none-eabi/include/c++/10.3.1/bits/stl_vector.h **** 	      explicit _Reinit(_Vector_impl& __impl) : _M_impl(__impl)
 210:/Library/DaisyToolchain/0.2.0/arm/arm-none-eabi/include/c++/10.3.1/bits/stl_vector.h **** 	      {
 211:/Library/DaisyToolchain/0.2.0/arm/arm-none-eabi/include/c++/10.3.1/bits/stl_vector.h **** 		// Mark unused capacity as valid again before deallocating it.
 212:/Library/DaisyToolchain/0.2.0/arm/arm-none-eabi/include/c++/10.3.1/bits/stl_vector.h **** 		_S_on_dealloc(_M_impl);
 213:/Library/DaisyToolchain/0.2.0/arm/arm-none-eabi/include/c++/10.3.1/bits/stl_vector.h **** 	      }
 214:/Library/DaisyToolchain/0.2.0/arm/arm-none-eabi/include/c++/10.3.1/bits/stl_vector.h **** 
 215:/Library/DaisyToolchain/0.2.0/arm/arm-none-eabi/include/c++/10.3.1/bits/stl_vector.h **** 	      ~_Reinit()
 216:/Library/DaisyToolchain/0.2.0/arm/arm-none-eabi/include/c++/10.3.1/bits/stl_vector.h **** 	      {
 217:/Library/DaisyToolchain/0.2.0/arm/arm-none-eabi/include/c++/10.3.1/bits/stl_vector.h **** 		// Mark unused capacity as invalid after reallocation.
 218:/Library/DaisyToolchain/0.2.0/arm/arm-none-eabi/include/c++/10.3.1/bits/stl_vector.h **** 		if (_M_impl._M_start)
 219:/Library/DaisyToolchain/0.2.0/arm/arm-none-eabi/include/c++/10.3.1/bits/stl_vector.h **** 		  _S_adjust(_M_impl, _M_impl._M_end_of_storage,
 220:/Library/DaisyToolchain/0.2.0/arm/arm-none-eabi/include/c++/10.3.1/bits/stl_vector.h **** 			    _M_impl._M_finish);
 221:/Library/DaisyToolchain/0.2.0/arm/arm-none-eabi/include/c++/10.3.1/bits/stl_vector.h **** 	      }
 222:/Library/DaisyToolchain/0.2.0/arm/arm-none-eabi/include/c++/10.3.1/bits/stl_vector.h **** 
 223:/Library/DaisyToolchain/0.2.0/arm/arm-none-eabi/include/c++/10.3.1/bits/stl_vector.h **** 	      _Vector_impl& _M_impl;
 224:/Library/DaisyToolchain/0.2.0/arm/arm-none-eabi/include/c++/10.3.1/bits/stl_vector.h **** 
 225:/Library/DaisyToolchain/0.2.0/arm/arm-none-eabi/include/c++/10.3.1/bits/stl_vector.h **** #if __cplusplus >= 201103L
 226:/Library/DaisyToolchain/0.2.0/arm/arm-none-eabi/include/c++/10.3.1/bits/stl_vector.h **** 	      _Reinit(const _Reinit&) = delete;
 227:/Library/DaisyToolchain/0.2.0/arm/arm-none-eabi/include/c++/10.3.1/bits/stl_vector.h **** 	      _Reinit& operator=(const _Reinit&) = delete;
 228:/Library/DaisyToolchain/0.2.0/arm/arm-none-eabi/include/c++/10.3.1/bits/stl_vector.h **** #endif
 229:/Library/DaisyToolchain/0.2.0/arm/arm-none-eabi/include/c++/10.3.1/bits/stl_vector.h **** 	    };
 230:/Library/DaisyToolchain/0.2.0/arm/arm-none-eabi/include/c++/10.3.1/bits/stl_vector.h **** 
 231:/Library/DaisyToolchain/0.2.0/arm/arm-none-eabi/include/c++/10.3.1/bits/stl_vector.h **** 	    // Tell ASan when unused capacity is initialized to be valid.
 232:/Library/DaisyToolchain/0.2.0/arm/arm-none-eabi/include/c++/10.3.1/bits/stl_vector.h **** 	    struct _Grow
 233:/Library/DaisyToolchain/0.2.0/arm/arm-none-eabi/include/c++/10.3.1/bits/stl_vector.h **** 	    {
 234:/Library/DaisyToolchain/0.2.0/arm/arm-none-eabi/include/c++/10.3.1/bits/stl_vector.h **** 	      _Grow(_Vector_impl& __impl, size_type __n)
 235:/Library/DaisyToolchain/0.2.0/arm/arm-none-eabi/include/c++/10.3.1/bits/stl_vector.h **** 	      : _M_impl(__impl), _M_n(__n)
 236:/Library/DaisyToolchain/0.2.0/arm/arm-none-eabi/include/c++/10.3.1/bits/stl_vector.h **** 	      { _S_grow(_M_impl, __n); }
 237:/Library/DaisyToolchain/0.2.0/arm/arm-none-eabi/include/c++/10.3.1/bits/stl_vector.h **** 
 238:/Library/DaisyToolchain/0.2.0/arm/arm-none-eabi/include/c++/10.3.1/bits/stl_vector.h **** 	      ~_Grow() { if (_M_n) _S_shrink(_M_impl, _M_n); }
 239:/Library/DaisyToolchain/0.2.0/arm/arm-none-eabi/include/c++/10.3.1/bits/stl_vector.h **** 
 240:/Library/DaisyToolchain/0.2.0/arm/arm-none-eabi/include/c++/10.3.1/bits/stl_vector.h **** 	      void _M_grew(size_type __n) { _M_n -= __n; }
 241:/Library/DaisyToolchain/0.2.0/arm/arm-none-eabi/include/c++/10.3.1/bits/stl_vector.h **** 
 242:/Library/DaisyToolchain/0.2.0/arm/arm-none-eabi/include/c++/10.3.1/bits/stl_vector.h **** #if __cplusplus >= 201103L
 243:/Library/DaisyToolchain/0.2.0/arm/arm-none-eabi/include/c++/10.3.1/bits/stl_vector.h **** 	      _Grow(const _Grow&) = delete;
 244:/Library/DaisyToolchain/0.2.0/arm/arm-none-eabi/include/c++/10.3.1/bits/stl_vector.h **** 	      _Grow& operator=(const _Grow&) = delete;
 245:/Library/DaisyToolchain/0.2.0/arm/arm-none-eabi/include/c++/10.3.1/bits/stl_vector.h **** #endif
 246:/Library/DaisyToolchain/0.2.0/arm/arm-none-eabi/include/c++/10.3.1/bits/stl_vector.h **** 	    private:
 247:/Library/DaisyToolchain/0.2.0/arm/arm-none-eabi/include/c++/10.3.1/bits/stl_vector.h **** 	      _Vector_impl& _M_impl;
 248:/Library/DaisyToolchain/0.2.0/arm/arm-none-eabi/include/c++/10.3.1/bits/stl_vector.h **** 	      size_type _M_n;
 249:/Library/DaisyToolchain/0.2.0/arm/arm-none-eabi/include/c++/10.3.1/bits/stl_vector.h **** 	    };
 250:/Library/DaisyToolchain/0.2.0/arm/arm-none-eabi/include/c++/10.3.1/bits/stl_vector.h **** 	  };
 251:/Library/DaisyToolchain/0.2.0/arm/arm-none-eabi/include/c++/10.3.1/bits/stl_vector.h **** 
 252:/Library/DaisyToolchain/0.2.0/arm/arm-none-eabi/include/c++/10.3.1/bits/stl_vector.h **** #define _GLIBCXX_ASAN_ANNOTATE_REINIT \
 253:/Library/DaisyToolchain/0.2.0/arm/arm-none-eabi/include/c++/10.3.1/bits/stl_vector.h ****   typename _Base::_Vector_impl::template _Asan<>::_Reinit const \
 254:/Library/DaisyToolchain/0.2.0/arm/arm-none-eabi/include/c++/10.3.1/bits/stl_vector.h **** 	__attribute__((__unused__)) __reinit_guard(this->_M_impl)
 255:/Library/DaisyToolchain/0.2.0/arm/arm-none-eabi/include/c++/10.3.1/bits/stl_vector.h **** #define _GLIBCXX_ASAN_ANNOTATE_GROW(n) \
 256:/Library/DaisyToolchain/0.2.0/arm/arm-none-eabi/include/c++/10.3.1/bits/stl_vector.h ****   typename _Base::_Vector_impl::template _Asan<>::_Grow \
 257:/Library/DaisyToolchain/0.2.0/arm/arm-none-eabi/include/c++/10.3.1/bits/stl_vector.h **** 	__attribute__((__unused__)) __grow_guard(this->_M_impl, (n))
 258:/Library/DaisyToolchain/0.2.0/arm/arm-none-eabi/include/c++/10.3.1/bits/stl_vector.h **** #define _GLIBCXX_ASAN_ANNOTATE_GREW(n) __grow_guard._M_grew(n)
 259:/Library/DaisyToolchain/0.2.0/arm/arm-none-eabi/include/c++/10.3.1/bits/stl_vector.h **** #define _GLIBCXX_ASAN_ANNOTATE_SHRINK(n) \
 260:/Library/DaisyToolchain/0.2.0/arm/arm-none-eabi/include/c++/10.3.1/bits/stl_vector.h ****   _Base::_Vector_impl::template _Asan<>::_S_shrink(this->_M_impl, n)
 261:/Library/DaisyToolchain/0.2.0/arm/arm-none-eabi/include/c++/10.3.1/bits/stl_vector.h **** #define _GLIBCXX_ASAN_ANNOTATE_BEFORE_DEALLOC \
 262:/Library/DaisyToolchain/0.2.0/arm/arm-none-eabi/include/c++/10.3.1/bits/stl_vector.h ****   _Base::_Vector_impl::template _Asan<>::_S_on_dealloc(this->_M_impl)
ARM GAS  /var/folders/wz/z09yph4n0qj4t7mjxhl6ttn80000gn/T//cc3KzP2n.s 			page 86


 263:/Library/DaisyToolchain/0.2.0/arm/arm-none-eabi/include/c++/10.3.1/bits/stl_vector.h **** #else // ! (_GLIBCXX_SANITIZE_STD_ALLOCATOR && _GLIBCXX_SANITIZE_VECTOR)
 264:/Library/DaisyToolchain/0.2.0/arm/arm-none-eabi/include/c++/10.3.1/bits/stl_vector.h **** #define _GLIBCXX_ASAN_ANNOTATE_REINIT
 265:/Library/DaisyToolchain/0.2.0/arm/arm-none-eabi/include/c++/10.3.1/bits/stl_vector.h **** #define _GLIBCXX_ASAN_ANNOTATE_GROW(n)
 266:/Library/DaisyToolchain/0.2.0/arm/arm-none-eabi/include/c++/10.3.1/bits/stl_vector.h **** #define _GLIBCXX_ASAN_ANNOTATE_GREW(n)
 267:/Library/DaisyToolchain/0.2.0/arm/arm-none-eabi/include/c++/10.3.1/bits/stl_vector.h **** #define _GLIBCXX_ASAN_ANNOTATE_SHRINK(n)
 268:/Library/DaisyToolchain/0.2.0/arm/arm-none-eabi/include/c++/10.3.1/bits/stl_vector.h **** #define _GLIBCXX_ASAN_ANNOTATE_BEFORE_DEALLOC
 269:/Library/DaisyToolchain/0.2.0/arm/arm-none-eabi/include/c++/10.3.1/bits/stl_vector.h **** #endif // _GLIBCXX_SANITIZE_STD_ALLOCATOR && _GLIBCXX_SANITIZE_VECTOR
 270:/Library/DaisyToolchain/0.2.0/arm/arm-none-eabi/include/c++/10.3.1/bits/stl_vector.h ****       };
 271:/Library/DaisyToolchain/0.2.0/arm/arm-none-eabi/include/c++/10.3.1/bits/stl_vector.h **** 
 272:/Library/DaisyToolchain/0.2.0/arm/arm-none-eabi/include/c++/10.3.1/bits/stl_vector.h ****     public:
 273:/Library/DaisyToolchain/0.2.0/arm/arm-none-eabi/include/c++/10.3.1/bits/stl_vector.h ****       typedef _Alloc allocator_type;
 274:/Library/DaisyToolchain/0.2.0/arm/arm-none-eabi/include/c++/10.3.1/bits/stl_vector.h **** 
 275:/Library/DaisyToolchain/0.2.0/arm/arm-none-eabi/include/c++/10.3.1/bits/stl_vector.h ****       _Tp_alloc_type&
 276:/Library/DaisyToolchain/0.2.0/arm/arm-none-eabi/include/c++/10.3.1/bits/stl_vector.h ****       _M_get_Tp_allocator() _GLIBCXX_NOEXCEPT
 277:/Library/DaisyToolchain/0.2.0/arm/arm-none-eabi/include/c++/10.3.1/bits/stl_vector.h ****       { return this->_M_impl; }
 278:/Library/DaisyToolchain/0.2.0/arm/arm-none-eabi/include/c++/10.3.1/bits/stl_vector.h **** 
 279:/Library/DaisyToolchain/0.2.0/arm/arm-none-eabi/include/c++/10.3.1/bits/stl_vector.h ****       const _Tp_alloc_type&
 280:/Library/DaisyToolchain/0.2.0/arm/arm-none-eabi/include/c++/10.3.1/bits/stl_vector.h ****       _M_get_Tp_allocator() const _GLIBCXX_NOEXCEPT
 281:/Library/DaisyToolchain/0.2.0/arm/arm-none-eabi/include/c++/10.3.1/bits/stl_vector.h ****       { return this->_M_impl; }
 282:/Library/DaisyToolchain/0.2.0/arm/arm-none-eabi/include/c++/10.3.1/bits/stl_vector.h **** 
 283:/Library/DaisyToolchain/0.2.0/arm/arm-none-eabi/include/c++/10.3.1/bits/stl_vector.h ****       allocator_type
 284:/Library/DaisyToolchain/0.2.0/arm/arm-none-eabi/include/c++/10.3.1/bits/stl_vector.h ****       get_allocator() const _GLIBCXX_NOEXCEPT
 285:/Library/DaisyToolchain/0.2.0/arm/arm-none-eabi/include/c++/10.3.1/bits/stl_vector.h ****       { return allocator_type(_M_get_Tp_allocator()); }
 286:/Library/DaisyToolchain/0.2.0/arm/arm-none-eabi/include/c++/10.3.1/bits/stl_vector.h **** 
 287:/Library/DaisyToolchain/0.2.0/arm/arm-none-eabi/include/c++/10.3.1/bits/stl_vector.h **** #if __cplusplus >= 201103L
 288:/Library/DaisyToolchain/0.2.0/arm/arm-none-eabi/include/c++/10.3.1/bits/stl_vector.h ****       _Vector_base() = default;
 289:/Library/DaisyToolchain/0.2.0/arm/arm-none-eabi/include/c++/10.3.1/bits/stl_vector.h **** #else
 290:/Library/DaisyToolchain/0.2.0/arm/arm-none-eabi/include/c++/10.3.1/bits/stl_vector.h ****       _Vector_base() { }
 291:/Library/DaisyToolchain/0.2.0/arm/arm-none-eabi/include/c++/10.3.1/bits/stl_vector.h **** #endif
 292:/Library/DaisyToolchain/0.2.0/arm/arm-none-eabi/include/c++/10.3.1/bits/stl_vector.h **** 
 293:/Library/DaisyToolchain/0.2.0/arm/arm-none-eabi/include/c++/10.3.1/bits/stl_vector.h ****       _Vector_base(const allocator_type& __a) _GLIBCXX_NOEXCEPT
 294:/Library/DaisyToolchain/0.2.0/arm/arm-none-eabi/include/c++/10.3.1/bits/stl_vector.h ****       : _M_impl(__a) { }
 295:/Library/DaisyToolchain/0.2.0/arm/arm-none-eabi/include/c++/10.3.1/bits/stl_vector.h **** 
 296:/Library/DaisyToolchain/0.2.0/arm/arm-none-eabi/include/c++/10.3.1/bits/stl_vector.h ****       // Kept for ABI compatibility.
 297:/Library/DaisyToolchain/0.2.0/arm/arm-none-eabi/include/c++/10.3.1/bits/stl_vector.h **** #if !_GLIBCXX_INLINE_VERSION
 298:/Library/DaisyToolchain/0.2.0/arm/arm-none-eabi/include/c++/10.3.1/bits/stl_vector.h ****       _Vector_base(size_t __n)
 299:/Library/DaisyToolchain/0.2.0/arm/arm-none-eabi/include/c++/10.3.1/bits/stl_vector.h ****       : _M_impl()
 300:/Library/DaisyToolchain/0.2.0/arm/arm-none-eabi/include/c++/10.3.1/bits/stl_vector.h ****       { _M_create_storage(__n); }
 301:/Library/DaisyToolchain/0.2.0/arm/arm-none-eabi/include/c++/10.3.1/bits/stl_vector.h **** #endif
 302:/Library/DaisyToolchain/0.2.0/arm/arm-none-eabi/include/c++/10.3.1/bits/stl_vector.h **** 
 303:/Library/DaisyToolchain/0.2.0/arm/arm-none-eabi/include/c++/10.3.1/bits/stl_vector.h ****       _Vector_base(size_t __n, const allocator_type& __a)
 304:/Library/DaisyToolchain/0.2.0/arm/arm-none-eabi/include/c++/10.3.1/bits/stl_vector.h ****       : _M_impl(__a)
 305:/Library/DaisyToolchain/0.2.0/arm/arm-none-eabi/include/c++/10.3.1/bits/stl_vector.h ****       { _M_create_storage(__n); }
 306:/Library/DaisyToolchain/0.2.0/arm/arm-none-eabi/include/c++/10.3.1/bits/stl_vector.h **** 
 307:/Library/DaisyToolchain/0.2.0/arm/arm-none-eabi/include/c++/10.3.1/bits/stl_vector.h **** #if __cplusplus >= 201103L
 308:/Library/DaisyToolchain/0.2.0/arm/arm-none-eabi/include/c++/10.3.1/bits/stl_vector.h ****       _Vector_base(_Vector_base&&) = default;
 309:/Library/DaisyToolchain/0.2.0/arm/arm-none-eabi/include/c++/10.3.1/bits/stl_vector.h **** 
 310:/Library/DaisyToolchain/0.2.0/arm/arm-none-eabi/include/c++/10.3.1/bits/stl_vector.h ****       // Kept for ABI compatibility.
 311:/Library/DaisyToolchain/0.2.0/arm/arm-none-eabi/include/c++/10.3.1/bits/stl_vector.h **** # if !_GLIBCXX_INLINE_VERSION
 312:/Library/DaisyToolchain/0.2.0/arm/arm-none-eabi/include/c++/10.3.1/bits/stl_vector.h ****       _Vector_base(_Tp_alloc_type&& __a) noexcept
 313:/Library/DaisyToolchain/0.2.0/arm/arm-none-eabi/include/c++/10.3.1/bits/stl_vector.h ****       : _M_impl(std::move(__a)) { }
 314:/Library/DaisyToolchain/0.2.0/arm/arm-none-eabi/include/c++/10.3.1/bits/stl_vector.h **** 
 315:/Library/DaisyToolchain/0.2.0/arm/arm-none-eabi/include/c++/10.3.1/bits/stl_vector.h ****       _Vector_base(_Vector_base&& __x, const allocator_type& __a)
 316:/Library/DaisyToolchain/0.2.0/arm/arm-none-eabi/include/c++/10.3.1/bits/stl_vector.h ****       : _M_impl(__a)
 317:/Library/DaisyToolchain/0.2.0/arm/arm-none-eabi/include/c++/10.3.1/bits/stl_vector.h ****       {
 318:/Library/DaisyToolchain/0.2.0/arm/arm-none-eabi/include/c++/10.3.1/bits/stl_vector.h **** 	if (__x.get_allocator() == __a)
 319:/Library/DaisyToolchain/0.2.0/arm/arm-none-eabi/include/c++/10.3.1/bits/stl_vector.h **** 	  this->_M_impl._M_swap_data(__x._M_impl);
ARM GAS  /var/folders/wz/z09yph4n0qj4t7mjxhl6ttn80000gn/T//cc3KzP2n.s 			page 87


 320:/Library/DaisyToolchain/0.2.0/arm/arm-none-eabi/include/c++/10.3.1/bits/stl_vector.h **** 	else
 321:/Library/DaisyToolchain/0.2.0/arm/arm-none-eabi/include/c++/10.3.1/bits/stl_vector.h **** 	  {
 322:/Library/DaisyToolchain/0.2.0/arm/arm-none-eabi/include/c++/10.3.1/bits/stl_vector.h **** 	    size_t __n = __x._M_impl._M_finish - __x._M_impl._M_start;
 323:/Library/DaisyToolchain/0.2.0/arm/arm-none-eabi/include/c++/10.3.1/bits/stl_vector.h **** 	    _M_create_storage(__n);
 324:/Library/DaisyToolchain/0.2.0/arm/arm-none-eabi/include/c++/10.3.1/bits/stl_vector.h **** 	  }
 325:/Library/DaisyToolchain/0.2.0/arm/arm-none-eabi/include/c++/10.3.1/bits/stl_vector.h ****       }
 326:/Library/DaisyToolchain/0.2.0/arm/arm-none-eabi/include/c++/10.3.1/bits/stl_vector.h **** # endif
 327:/Library/DaisyToolchain/0.2.0/arm/arm-none-eabi/include/c++/10.3.1/bits/stl_vector.h **** 
 328:/Library/DaisyToolchain/0.2.0/arm/arm-none-eabi/include/c++/10.3.1/bits/stl_vector.h ****       _Vector_base(const allocator_type& __a, _Vector_base&& __x)
 329:/Library/DaisyToolchain/0.2.0/arm/arm-none-eabi/include/c++/10.3.1/bits/stl_vector.h ****       : _M_impl(_Tp_alloc_type(__a), std::move(__x._M_impl))
 330:/Library/DaisyToolchain/0.2.0/arm/arm-none-eabi/include/c++/10.3.1/bits/stl_vector.h ****       { }
 331:/Library/DaisyToolchain/0.2.0/arm/arm-none-eabi/include/c++/10.3.1/bits/stl_vector.h **** #endif
 332:/Library/DaisyToolchain/0.2.0/arm/arm-none-eabi/include/c++/10.3.1/bits/stl_vector.h **** 
 333:/Library/DaisyToolchain/0.2.0/arm/arm-none-eabi/include/c++/10.3.1/bits/stl_vector.h ****       ~_Vector_base() _GLIBCXX_NOEXCEPT
 334:/Library/DaisyToolchain/0.2.0/arm/arm-none-eabi/include/c++/10.3.1/bits/stl_vector.h ****       {
 335:/Library/DaisyToolchain/0.2.0/arm/arm-none-eabi/include/c++/10.3.1/bits/stl_vector.h **** 	_M_deallocate(_M_impl._M_start,
 336:/Library/DaisyToolchain/0.2.0/arm/arm-none-eabi/include/c++/10.3.1/bits/stl_vector.h **** 		      _M_impl._M_end_of_storage - _M_impl._M_start);
 337:/Library/DaisyToolchain/0.2.0/arm/arm-none-eabi/include/c++/10.3.1/bits/stl_vector.h ****       }
 338:/Library/DaisyToolchain/0.2.0/arm/arm-none-eabi/include/c++/10.3.1/bits/stl_vector.h **** 
 339:/Library/DaisyToolchain/0.2.0/arm/arm-none-eabi/include/c++/10.3.1/bits/stl_vector.h ****     public:
 340:/Library/DaisyToolchain/0.2.0/arm/arm-none-eabi/include/c++/10.3.1/bits/stl_vector.h ****       _Vector_impl _M_impl;
 341:/Library/DaisyToolchain/0.2.0/arm/arm-none-eabi/include/c++/10.3.1/bits/stl_vector.h **** 
 342:/Library/DaisyToolchain/0.2.0/arm/arm-none-eabi/include/c++/10.3.1/bits/stl_vector.h ****       pointer
 343:/Library/DaisyToolchain/0.2.0/arm/arm-none-eabi/include/c++/10.3.1/bits/stl_vector.h ****       _M_allocate(size_t __n)
 344:/Library/DaisyToolchain/0.2.0/arm/arm-none-eabi/include/c++/10.3.1/bits/stl_vector.h ****       {
 345:/Library/DaisyToolchain/0.2.0/arm/arm-none-eabi/include/c++/10.3.1/bits/stl_vector.h **** 	typedef __gnu_cxx::__alloc_traits<_Tp_alloc_type> _Tr;
 346:/Library/DaisyToolchain/0.2.0/arm/arm-none-eabi/include/c++/10.3.1/bits/stl_vector.h **** 	return __n != 0 ? _Tr::allocate(_M_impl, __n) : pointer();
 347:/Library/DaisyToolchain/0.2.0/arm/arm-none-eabi/include/c++/10.3.1/bits/stl_vector.h ****       }
 348:/Library/DaisyToolchain/0.2.0/arm/arm-none-eabi/include/c++/10.3.1/bits/stl_vector.h **** 
 349:/Library/DaisyToolchain/0.2.0/arm/arm-none-eabi/include/c++/10.3.1/bits/stl_vector.h ****       void
 350:/Library/DaisyToolchain/0.2.0/arm/arm-none-eabi/include/c++/10.3.1/bits/stl_vector.h ****       _M_deallocate(pointer __p, size_t __n)
 351:/Library/DaisyToolchain/0.2.0/arm/arm-none-eabi/include/c++/10.3.1/bits/stl_vector.h ****       {
 352:/Library/DaisyToolchain/0.2.0/arm/arm-none-eabi/include/c++/10.3.1/bits/stl_vector.h **** 	typedef __gnu_cxx::__alloc_traits<_Tp_alloc_type> _Tr;
 353:/Library/DaisyToolchain/0.2.0/arm/arm-none-eabi/include/c++/10.3.1/bits/stl_vector.h **** 	if (__p)
 354:/Library/DaisyToolchain/0.2.0/arm/arm-none-eabi/include/c++/10.3.1/bits/stl_vector.h **** 	  _Tr::deallocate(_M_impl, __p, __n);
 355:/Library/DaisyToolchain/0.2.0/arm/arm-none-eabi/include/c++/10.3.1/bits/stl_vector.h ****       }
 356:/Library/DaisyToolchain/0.2.0/arm/arm-none-eabi/include/c++/10.3.1/bits/stl_vector.h **** 
 357:/Library/DaisyToolchain/0.2.0/arm/arm-none-eabi/include/c++/10.3.1/bits/stl_vector.h ****     protected:
 358:/Library/DaisyToolchain/0.2.0/arm/arm-none-eabi/include/c++/10.3.1/bits/stl_vector.h ****       void
 359:/Library/DaisyToolchain/0.2.0/arm/arm-none-eabi/include/c++/10.3.1/bits/stl_vector.h ****       _M_create_storage(size_t __n)
 360:/Library/DaisyToolchain/0.2.0/arm/arm-none-eabi/include/c++/10.3.1/bits/stl_vector.h ****       {
 361:/Library/DaisyToolchain/0.2.0/arm/arm-none-eabi/include/c++/10.3.1/bits/stl_vector.h **** 	this->_M_impl._M_start = this->_M_allocate(__n);
 362:/Library/DaisyToolchain/0.2.0/arm/arm-none-eabi/include/c++/10.3.1/bits/stl_vector.h **** 	this->_M_impl._M_finish = this->_M_impl._M_start;
 363:/Library/DaisyToolchain/0.2.0/arm/arm-none-eabi/include/c++/10.3.1/bits/stl_vector.h **** 	this->_M_impl._M_end_of_storage = this->_M_impl._M_start + __n;
 364:/Library/DaisyToolchain/0.2.0/arm/arm-none-eabi/include/c++/10.3.1/bits/stl_vector.h ****       }
 365:/Library/DaisyToolchain/0.2.0/arm/arm-none-eabi/include/c++/10.3.1/bits/stl_vector.h ****     };
 366:/Library/DaisyToolchain/0.2.0/arm/arm-none-eabi/include/c++/10.3.1/bits/stl_vector.h **** 
 367:/Library/DaisyToolchain/0.2.0/arm/arm-none-eabi/include/c++/10.3.1/bits/stl_vector.h ****   /**
 368:/Library/DaisyToolchain/0.2.0/arm/arm-none-eabi/include/c++/10.3.1/bits/stl_vector.h ****    *  @brief A standard container which offers fixed time access to
 369:/Library/DaisyToolchain/0.2.0/arm/arm-none-eabi/include/c++/10.3.1/bits/stl_vector.h ****    *  individual elements in any order.
 370:/Library/DaisyToolchain/0.2.0/arm/arm-none-eabi/include/c++/10.3.1/bits/stl_vector.h ****    *
 371:/Library/DaisyToolchain/0.2.0/arm/arm-none-eabi/include/c++/10.3.1/bits/stl_vector.h ****    *  @ingroup sequences
 372:/Library/DaisyToolchain/0.2.0/arm/arm-none-eabi/include/c++/10.3.1/bits/stl_vector.h ****    *
 373:/Library/DaisyToolchain/0.2.0/arm/arm-none-eabi/include/c++/10.3.1/bits/stl_vector.h ****    *  @tparam _Tp  Type of element.
 374:/Library/DaisyToolchain/0.2.0/arm/arm-none-eabi/include/c++/10.3.1/bits/stl_vector.h ****    *  @tparam _Alloc  Allocator type, defaults to allocator<_Tp>.
 375:/Library/DaisyToolchain/0.2.0/arm/arm-none-eabi/include/c++/10.3.1/bits/stl_vector.h ****    *
 376:/Library/DaisyToolchain/0.2.0/arm/arm-none-eabi/include/c++/10.3.1/bits/stl_vector.h ****    *  Meets the requirements of a <a href="tables.html#65">container</a>, a
ARM GAS  /var/folders/wz/z09yph4n0qj4t7mjxhl6ttn80000gn/T//cc3KzP2n.s 			page 88


 377:/Library/DaisyToolchain/0.2.0/arm/arm-none-eabi/include/c++/10.3.1/bits/stl_vector.h ****    *  <a href="tables.html#66">reversible container</a>, and a
 378:/Library/DaisyToolchain/0.2.0/arm/arm-none-eabi/include/c++/10.3.1/bits/stl_vector.h ****    *  <a href="tables.html#67">sequence</a>, including the
 379:/Library/DaisyToolchain/0.2.0/arm/arm-none-eabi/include/c++/10.3.1/bits/stl_vector.h ****    *  <a href="tables.html#68">optional sequence requirements</a> with the
 380:/Library/DaisyToolchain/0.2.0/arm/arm-none-eabi/include/c++/10.3.1/bits/stl_vector.h ****    *  %exception of @c push_front and @c pop_front.
 381:/Library/DaisyToolchain/0.2.0/arm/arm-none-eabi/include/c++/10.3.1/bits/stl_vector.h ****    *
 382:/Library/DaisyToolchain/0.2.0/arm/arm-none-eabi/include/c++/10.3.1/bits/stl_vector.h ****    *  In some terminology a %vector can be described as a dynamic
 383:/Library/DaisyToolchain/0.2.0/arm/arm-none-eabi/include/c++/10.3.1/bits/stl_vector.h ****    *  C-style array, it offers fast and efficient access to individual
 384:/Library/DaisyToolchain/0.2.0/arm/arm-none-eabi/include/c++/10.3.1/bits/stl_vector.h ****    *  elements in any order and saves the user from worrying about
 385:/Library/DaisyToolchain/0.2.0/arm/arm-none-eabi/include/c++/10.3.1/bits/stl_vector.h ****    *  memory and size allocation.  Subscripting ( @c [] ) access is
 386:/Library/DaisyToolchain/0.2.0/arm/arm-none-eabi/include/c++/10.3.1/bits/stl_vector.h ****    *  also provided as with C-style arrays.
 387:/Library/DaisyToolchain/0.2.0/arm/arm-none-eabi/include/c++/10.3.1/bits/stl_vector.h ****   */
 388:/Library/DaisyToolchain/0.2.0/arm/arm-none-eabi/include/c++/10.3.1/bits/stl_vector.h ****   template<typename _Tp, typename _Alloc = std::allocator<_Tp> >
 389:/Library/DaisyToolchain/0.2.0/arm/arm-none-eabi/include/c++/10.3.1/bits/stl_vector.h ****     class vector : protected _Vector_base<_Tp, _Alloc>
 390:/Library/DaisyToolchain/0.2.0/arm/arm-none-eabi/include/c++/10.3.1/bits/stl_vector.h ****     {
 391:/Library/DaisyToolchain/0.2.0/arm/arm-none-eabi/include/c++/10.3.1/bits/stl_vector.h **** #ifdef _GLIBCXX_CONCEPT_CHECKS
 392:/Library/DaisyToolchain/0.2.0/arm/arm-none-eabi/include/c++/10.3.1/bits/stl_vector.h ****       // Concept requirements.
 393:/Library/DaisyToolchain/0.2.0/arm/arm-none-eabi/include/c++/10.3.1/bits/stl_vector.h ****       typedef typename _Alloc::value_type		_Alloc_value_type;
 394:/Library/DaisyToolchain/0.2.0/arm/arm-none-eabi/include/c++/10.3.1/bits/stl_vector.h **** # if __cplusplus < 201103L
 395:/Library/DaisyToolchain/0.2.0/arm/arm-none-eabi/include/c++/10.3.1/bits/stl_vector.h ****       __glibcxx_class_requires(_Tp, _SGIAssignableConcept)
 396:/Library/DaisyToolchain/0.2.0/arm/arm-none-eabi/include/c++/10.3.1/bits/stl_vector.h **** # endif
 397:/Library/DaisyToolchain/0.2.0/arm/arm-none-eabi/include/c++/10.3.1/bits/stl_vector.h ****       __glibcxx_class_requires2(_Tp, _Alloc_value_type, _SameTypeConcept)
 398:/Library/DaisyToolchain/0.2.0/arm/arm-none-eabi/include/c++/10.3.1/bits/stl_vector.h **** #endif
 399:/Library/DaisyToolchain/0.2.0/arm/arm-none-eabi/include/c++/10.3.1/bits/stl_vector.h **** 
 400:/Library/DaisyToolchain/0.2.0/arm/arm-none-eabi/include/c++/10.3.1/bits/stl_vector.h **** #if __cplusplus >= 201103L
 401:/Library/DaisyToolchain/0.2.0/arm/arm-none-eabi/include/c++/10.3.1/bits/stl_vector.h ****       static_assert(is_same<typename remove_cv<_Tp>::type, _Tp>::value,
 402:/Library/DaisyToolchain/0.2.0/arm/arm-none-eabi/include/c++/10.3.1/bits/stl_vector.h **** 	  "std::vector must have a non-const, non-volatile value_type");
 403:/Library/DaisyToolchain/0.2.0/arm/arm-none-eabi/include/c++/10.3.1/bits/stl_vector.h **** # if __cplusplus > 201703L || defined __STRICT_ANSI__
 404:/Library/DaisyToolchain/0.2.0/arm/arm-none-eabi/include/c++/10.3.1/bits/stl_vector.h ****       static_assert(is_same<typename _Alloc::value_type, _Tp>::value,
 405:/Library/DaisyToolchain/0.2.0/arm/arm-none-eabi/include/c++/10.3.1/bits/stl_vector.h **** 	  "std::vector must have the same value_type as its allocator");
 406:/Library/DaisyToolchain/0.2.0/arm/arm-none-eabi/include/c++/10.3.1/bits/stl_vector.h **** # endif
 407:/Library/DaisyToolchain/0.2.0/arm/arm-none-eabi/include/c++/10.3.1/bits/stl_vector.h **** #endif
 408:/Library/DaisyToolchain/0.2.0/arm/arm-none-eabi/include/c++/10.3.1/bits/stl_vector.h **** 
 409:/Library/DaisyToolchain/0.2.0/arm/arm-none-eabi/include/c++/10.3.1/bits/stl_vector.h ****       typedef _Vector_base<_Tp, _Alloc>			_Base;
 410:/Library/DaisyToolchain/0.2.0/arm/arm-none-eabi/include/c++/10.3.1/bits/stl_vector.h ****       typedef typename _Base::_Tp_alloc_type		_Tp_alloc_type;
 411:/Library/DaisyToolchain/0.2.0/arm/arm-none-eabi/include/c++/10.3.1/bits/stl_vector.h ****       typedef __gnu_cxx::__alloc_traits<_Tp_alloc_type>	_Alloc_traits;
 412:/Library/DaisyToolchain/0.2.0/arm/arm-none-eabi/include/c++/10.3.1/bits/stl_vector.h **** 
 413:/Library/DaisyToolchain/0.2.0/arm/arm-none-eabi/include/c++/10.3.1/bits/stl_vector.h ****     public:
 414:/Library/DaisyToolchain/0.2.0/arm/arm-none-eabi/include/c++/10.3.1/bits/stl_vector.h ****       typedef _Tp					value_type;
 415:/Library/DaisyToolchain/0.2.0/arm/arm-none-eabi/include/c++/10.3.1/bits/stl_vector.h ****       typedef typename _Base::pointer			pointer;
 416:/Library/DaisyToolchain/0.2.0/arm/arm-none-eabi/include/c++/10.3.1/bits/stl_vector.h ****       typedef typename _Alloc_traits::const_pointer	const_pointer;
 417:/Library/DaisyToolchain/0.2.0/arm/arm-none-eabi/include/c++/10.3.1/bits/stl_vector.h ****       typedef typename _Alloc_traits::reference		reference;
 418:/Library/DaisyToolchain/0.2.0/arm/arm-none-eabi/include/c++/10.3.1/bits/stl_vector.h ****       typedef typename _Alloc_traits::const_reference	const_reference;
 419:/Library/DaisyToolchain/0.2.0/arm/arm-none-eabi/include/c++/10.3.1/bits/stl_vector.h ****       typedef __gnu_cxx::__normal_iterator<pointer, vector> iterator;
 420:/Library/DaisyToolchain/0.2.0/arm/arm-none-eabi/include/c++/10.3.1/bits/stl_vector.h ****       typedef __gnu_cxx::__normal_iterator<const_pointer, vector>
 421:/Library/DaisyToolchain/0.2.0/arm/arm-none-eabi/include/c++/10.3.1/bits/stl_vector.h ****       const_iterator;
 422:/Library/DaisyToolchain/0.2.0/arm/arm-none-eabi/include/c++/10.3.1/bits/stl_vector.h ****       typedef std::reverse_iterator<const_iterator>	const_reverse_iterator;
 423:/Library/DaisyToolchain/0.2.0/arm/arm-none-eabi/include/c++/10.3.1/bits/stl_vector.h ****       typedef std::reverse_iterator<iterator>		reverse_iterator;
 424:/Library/DaisyToolchain/0.2.0/arm/arm-none-eabi/include/c++/10.3.1/bits/stl_vector.h ****       typedef size_t					size_type;
 425:/Library/DaisyToolchain/0.2.0/arm/arm-none-eabi/include/c++/10.3.1/bits/stl_vector.h ****       typedef ptrdiff_t					difference_type;
 426:/Library/DaisyToolchain/0.2.0/arm/arm-none-eabi/include/c++/10.3.1/bits/stl_vector.h ****       typedef _Alloc					allocator_type;
 427:/Library/DaisyToolchain/0.2.0/arm/arm-none-eabi/include/c++/10.3.1/bits/stl_vector.h **** 
 428:/Library/DaisyToolchain/0.2.0/arm/arm-none-eabi/include/c++/10.3.1/bits/stl_vector.h ****     private:
 429:/Library/DaisyToolchain/0.2.0/arm/arm-none-eabi/include/c++/10.3.1/bits/stl_vector.h **** #if __cplusplus >= 201103L
 430:/Library/DaisyToolchain/0.2.0/arm/arm-none-eabi/include/c++/10.3.1/bits/stl_vector.h ****       static constexpr bool
 431:/Library/DaisyToolchain/0.2.0/arm/arm-none-eabi/include/c++/10.3.1/bits/stl_vector.h ****       _S_nothrow_relocate(true_type)
 432:/Library/DaisyToolchain/0.2.0/arm/arm-none-eabi/include/c++/10.3.1/bits/stl_vector.h ****       {
 433:/Library/DaisyToolchain/0.2.0/arm/arm-none-eabi/include/c++/10.3.1/bits/stl_vector.h **** 	return noexcept(std::__relocate_a(std::declval<pointer>(),
ARM GAS  /var/folders/wz/z09yph4n0qj4t7mjxhl6ttn80000gn/T//cc3KzP2n.s 			page 89


 434:/Library/DaisyToolchain/0.2.0/arm/arm-none-eabi/include/c++/10.3.1/bits/stl_vector.h **** 					  std::declval<pointer>(),
 435:/Library/DaisyToolchain/0.2.0/arm/arm-none-eabi/include/c++/10.3.1/bits/stl_vector.h **** 					  std::declval<pointer>(),
 436:/Library/DaisyToolchain/0.2.0/arm/arm-none-eabi/include/c++/10.3.1/bits/stl_vector.h **** 					  std::declval<_Tp_alloc_type&>()));
 437:/Library/DaisyToolchain/0.2.0/arm/arm-none-eabi/include/c++/10.3.1/bits/stl_vector.h ****       }
 438:/Library/DaisyToolchain/0.2.0/arm/arm-none-eabi/include/c++/10.3.1/bits/stl_vector.h **** 
 439:/Library/DaisyToolchain/0.2.0/arm/arm-none-eabi/include/c++/10.3.1/bits/stl_vector.h ****       static constexpr bool
 440:/Library/DaisyToolchain/0.2.0/arm/arm-none-eabi/include/c++/10.3.1/bits/stl_vector.h ****       _S_nothrow_relocate(false_type)
 441:/Library/DaisyToolchain/0.2.0/arm/arm-none-eabi/include/c++/10.3.1/bits/stl_vector.h ****       { return false; }
 442:/Library/DaisyToolchain/0.2.0/arm/arm-none-eabi/include/c++/10.3.1/bits/stl_vector.h **** 
 443:/Library/DaisyToolchain/0.2.0/arm/arm-none-eabi/include/c++/10.3.1/bits/stl_vector.h ****       static constexpr bool
 444:/Library/DaisyToolchain/0.2.0/arm/arm-none-eabi/include/c++/10.3.1/bits/stl_vector.h ****       _S_use_relocate()
 445:/Library/DaisyToolchain/0.2.0/arm/arm-none-eabi/include/c++/10.3.1/bits/stl_vector.h ****       {
 446:/Library/DaisyToolchain/0.2.0/arm/arm-none-eabi/include/c++/10.3.1/bits/stl_vector.h **** 	// Instantiating std::__relocate_a might cause an error outside the
 447:/Library/DaisyToolchain/0.2.0/arm/arm-none-eabi/include/c++/10.3.1/bits/stl_vector.h **** 	// immediate context (in __relocate_object_a's noexcept-specifier),
 448:/Library/DaisyToolchain/0.2.0/arm/arm-none-eabi/include/c++/10.3.1/bits/stl_vector.h **** 	// so only do it if we know the type can be move-inserted into *this.
 449:/Library/DaisyToolchain/0.2.0/arm/arm-none-eabi/include/c++/10.3.1/bits/stl_vector.h **** 	return _S_nothrow_relocate(__is_move_insertable<_Tp_alloc_type>{});
 450:/Library/DaisyToolchain/0.2.0/arm/arm-none-eabi/include/c++/10.3.1/bits/stl_vector.h ****       }
 451:/Library/DaisyToolchain/0.2.0/arm/arm-none-eabi/include/c++/10.3.1/bits/stl_vector.h **** 
 452:/Library/DaisyToolchain/0.2.0/arm/arm-none-eabi/include/c++/10.3.1/bits/stl_vector.h ****       static pointer
 453:/Library/DaisyToolchain/0.2.0/arm/arm-none-eabi/include/c++/10.3.1/bits/stl_vector.h ****       _S_do_relocate(pointer __first, pointer __last, pointer __result,
 454:/Library/DaisyToolchain/0.2.0/arm/arm-none-eabi/include/c++/10.3.1/bits/stl_vector.h **** 		     _Tp_alloc_type& __alloc, true_type) noexcept
 455:/Library/DaisyToolchain/0.2.0/arm/arm-none-eabi/include/c++/10.3.1/bits/stl_vector.h ****       {
 456:/Library/DaisyToolchain/0.2.0/arm/arm-none-eabi/include/c++/10.3.1/bits/stl_vector.h **** 	return std::__relocate_a(__first, __last, __result, __alloc);
 457:/Library/DaisyToolchain/0.2.0/arm/arm-none-eabi/include/c++/10.3.1/bits/stl_vector.h ****       }
 458:/Library/DaisyToolchain/0.2.0/arm/arm-none-eabi/include/c++/10.3.1/bits/stl_vector.h **** 
 459:/Library/DaisyToolchain/0.2.0/arm/arm-none-eabi/include/c++/10.3.1/bits/stl_vector.h ****       static pointer
 460:/Library/DaisyToolchain/0.2.0/arm/arm-none-eabi/include/c++/10.3.1/bits/stl_vector.h ****       _S_do_relocate(pointer, pointer, pointer __result,
 461:/Library/DaisyToolchain/0.2.0/arm/arm-none-eabi/include/c++/10.3.1/bits/stl_vector.h **** 		     _Tp_alloc_type&, false_type) noexcept
 462:/Library/DaisyToolchain/0.2.0/arm/arm-none-eabi/include/c++/10.3.1/bits/stl_vector.h ****       { return __result; }
 463:/Library/DaisyToolchain/0.2.0/arm/arm-none-eabi/include/c++/10.3.1/bits/stl_vector.h **** 
 464:/Library/DaisyToolchain/0.2.0/arm/arm-none-eabi/include/c++/10.3.1/bits/stl_vector.h ****       static pointer
 465:/Library/DaisyToolchain/0.2.0/arm/arm-none-eabi/include/c++/10.3.1/bits/stl_vector.h ****       _S_relocate(pointer __first, pointer __last, pointer __result,
 466:/Library/DaisyToolchain/0.2.0/arm/arm-none-eabi/include/c++/10.3.1/bits/stl_vector.h **** 		  _Tp_alloc_type& __alloc) noexcept
 467:/Library/DaisyToolchain/0.2.0/arm/arm-none-eabi/include/c++/10.3.1/bits/stl_vector.h ****       {
 468:/Library/DaisyToolchain/0.2.0/arm/arm-none-eabi/include/c++/10.3.1/bits/stl_vector.h **** 	using __do_it = __bool_constant<_S_use_relocate()>;
 469:/Library/DaisyToolchain/0.2.0/arm/arm-none-eabi/include/c++/10.3.1/bits/stl_vector.h **** 	return _S_do_relocate(__first, __last, __result, __alloc, __do_it{});
 470:/Library/DaisyToolchain/0.2.0/arm/arm-none-eabi/include/c++/10.3.1/bits/stl_vector.h ****       }
 471:/Library/DaisyToolchain/0.2.0/arm/arm-none-eabi/include/c++/10.3.1/bits/stl_vector.h **** #endif // C++11
 472:/Library/DaisyToolchain/0.2.0/arm/arm-none-eabi/include/c++/10.3.1/bits/stl_vector.h **** 
 473:/Library/DaisyToolchain/0.2.0/arm/arm-none-eabi/include/c++/10.3.1/bits/stl_vector.h ****     protected:
 474:/Library/DaisyToolchain/0.2.0/arm/arm-none-eabi/include/c++/10.3.1/bits/stl_vector.h ****       using _Base::_M_allocate;
 475:/Library/DaisyToolchain/0.2.0/arm/arm-none-eabi/include/c++/10.3.1/bits/stl_vector.h ****       using _Base::_M_deallocate;
 476:/Library/DaisyToolchain/0.2.0/arm/arm-none-eabi/include/c++/10.3.1/bits/stl_vector.h ****       using _Base::_M_impl;
 477:/Library/DaisyToolchain/0.2.0/arm/arm-none-eabi/include/c++/10.3.1/bits/stl_vector.h ****       using _Base::_M_get_Tp_allocator;
 478:/Library/DaisyToolchain/0.2.0/arm/arm-none-eabi/include/c++/10.3.1/bits/stl_vector.h **** 
 479:/Library/DaisyToolchain/0.2.0/arm/arm-none-eabi/include/c++/10.3.1/bits/stl_vector.h ****     public:
 480:/Library/DaisyToolchain/0.2.0/arm/arm-none-eabi/include/c++/10.3.1/bits/stl_vector.h ****       // [23.2.4.1] construct/copy/destroy
 481:/Library/DaisyToolchain/0.2.0/arm/arm-none-eabi/include/c++/10.3.1/bits/stl_vector.h ****       // (assign() and get_allocator() are also listed in this section)
 482:/Library/DaisyToolchain/0.2.0/arm/arm-none-eabi/include/c++/10.3.1/bits/stl_vector.h **** 
 483:/Library/DaisyToolchain/0.2.0/arm/arm-none-eabi/include/c++/10.3.1/bits/stl_vector.h ****       /**
 484:/Library/DaisyToolchain/0.2.0/arm/arm-none-eabi/include/c++/10.3.1/bits/stl_vector.h ****        *  @brief  Creates a %vector with no elements.
 485:/Library/DaisyToolchain/0.2.0/arm/arm-none-eabi/include/c++/10.3.1/bits/stl_vector.h ****        */
 486:/Library/DaisyToolchain/0.2.0/arm/arm-none-eabi/include/c++/10.3.1/bits/stl_vector.h **** #if __cplusplus >= 201103L
 487:/Library/DaisyToolchain/0.2.0/arm/arm-none-eabi/include/c++/10.3.1/bits/stl_vector.h ****       vector() = default;
 488:/Library/DaisyToolchain/0.2.0/arm/arm-none-eabi/include/c++/10.3.1/bits/stl_vector.h **** #else
 489:/Library/DaisyToolchain/0.2.0/arm/arm-none-eabi/include/c++/10.3.1/bits/stl_vector.h ****       vector() { }
 490:/Library/DaisyToolchain/0.2.0/arm/arm-none-eabi/include/c++/10.3.1/bits/stl_vector.h **** #endif
ARM GAS  /var/folders/wz/z09yph4n0qj4t7mjxhl6ttn80000gn/T//cc3KzP2n.s 			page 90


 491:/Library/DaisyToolchain/0.2.0/arm/arm-none-eabi/include/c++/10.3.1/bits/stl_vector.h **** 
 492:/Library/DaisyToolchain/0.2.0/arm/arm-none-eabi/include/c++/10.3.1/bits/stl_vector.h ****       /**
 493:/Library/DaisyToolchain/0.2.0/arm/arm-none-eabi/include/c++/10.3.1/bits/stl_vector.h ****        *  @brief  Creates a %vector with no elements.
 494:/Library/DaisyToolchain/0.2.0/arm/arm-none-eabi/include/c++/10.3.1/bits/stl_vector.h ****        *  @param  __a  An allocator object.
 495:/Library/DaisyToolchain/0.2.0/arm/arm-none-eabi/include/c++/10.3.1/bits/stl_vector.h ****        */
 496:/Library/DaisyToolchain/0.2.0/arm/arm-none-eabi/include/c++/10.3.1/bits/stl_vector.h ****       explicit
 497:/Library/DaisyToolchain/0.2.0/arm/arm-none-eabi/include/c++/10.3.1/bits/stl_vector.h ****       vector(const allocator_type& __a) _GLIBCXX_NOEXCEPT
 498:/Library/DaisyToolchain/0.2.0/arm/arm-none-eabi/include/c++/10.3.1/bits/stl_vector.h ****       : _Base(__a) { }
 499:/Library/DaisyToolchain/0.2.0/arm/arm-none-eabi/include/c++/10.3.1/bits/stl_vector.h **** 
 500:/Library/DaisyToolchain/0.2.0/arm/arm-none-eabi/include/c++/10.3.1/bits/stl_vector.h **** #if __cplusplus >= 201103L
 501:/Library/DaisyToolchain/0.2.0/arm/arm-none-eabi/include/c++/10.3.1/bits/stl_vector.h ****       /**
 502:/Library/DaisyToolchain/0.2.0/arm/arm-none-eabi/include/c++/10.3.1/bits/stl_vector.h ****        *  @brief  Creates a %vector with default constructed elements.
 503:/Library/DaisyToolchain/0.2.0/arm/arm-none-eabi/include/c++/10.3.1/bits/stl_vector.h ****        *  @param  __n  The number of elements to initially create.
 504:/Library/DaisyToolchain/0.2.0/arm/arm-none-eabi/include/c++/10.3.1/bits/stl_vector.h ****        *  @param  __a  An allocator.
 505:/Library/DaisyToolchain/0.2.0/arm/arm-none-eabi/include/c++/10.3.1/bits/stl_vector.h ****        *
 506:/Library/DaisyToolchain/0.2.0/arm/arm-none-eabi/include/c++/10.3.1/bits/stl_vector.h ****        *  This constructor fills the %vector with @a __n default
 507:/Library/DaisyToolchain/0.2.0/arm/arm-none-eabi/include/c++/10.3.1/bits/stl_vector.h ****        *  constructed elements.
 508:/Library/DaisyToolchain/0.2.0/arm/arm-none-eabi/include/c++/10.3.1/bits/stl_vector.h ****        */
 509:/Library/DaisyToolchain/0.2.0/arm/arm-none-eabi/include/c++/10.3.1/bits/stl_vector.h ****       explicit
 510:/Library/DaisyToolchain/0.2.0/arm/arm-none-eabi/include/c++/10.3.1/bits/stl_vector.h ****       vector(size_type __n, const allocator_type& __a = allocator_type())
 511:/Library/DaisyToolchain/0.2.0/arm/arm-none-eabi/include/c++/10.3.1/bits/stl_vector.h ****       : _Base(_S_check_init_len(__n, __a), __a)
 512:/Library/DaisyToolchain/0.2.0/arm/arm-none-eabi/include/c++/10.3.1/bits/stl_vector.h ****       { _M_default_initialize(__n); }
 513:/Library/DaisyToolchain/0.2.0/arm/arm-none-eabi/include/c++/10.3.1/bits/stl_vector.h **** 
 514:/Library/DaisyToolchain/0.2.0/arm/arm-none-eabi/include/c++/10.3.1/bits/stl_vector.h ****       /**
 515:/Library/DaisyToolchain/0.2.0/arm/arm-none-eabi/include/c++/10.3.1/bits/stl_vector.h ****        *  @brief  Creates a %vector with copies of an exemplar element.
 516:/Library/DaisyToolchain/0.2.0/arm/arm-none-eabi/include/c++/10.3.1/bits/stl_vector.h ****        *  @param  __n  The number of elements to initially create.
 517:/Library/DaisyToolchain/0.2.0/arm/arm-none-eabi/include/c++/10.3.1/bits/stl_vector.h ****        *  @param  __value  An element to copy.
 518:/Library/DaisyToolchain/0.2.0/arm/arm-none-eabi/include/c++/10.3.1/bits/stl_vector.h ****        *  @param  __a  An allocator.
 519:/Library/DaisyToolchain/0.2.0/arm/arm-none-eabi/include/c++/10.3.1/bits/stl_vector.h ****        *
 520:/Library/DaisyToolchain/0.2.0/arm/arm-none-eabi/include/c++/10.3.1/bits/stl_vector.h ****        *  This constructor fills the %vector with @a __n copies of @a __value.
 521:/Library/DaisyToolchain/0.2.0/arm/arm-none-eabi/include/c++/10.3.1/bits/stl_vector.h ****        */
 522:/Library/DaisyToolchain/0.2.0/arm/arm-none-eabi/include/c++/10.3.1/bits/stl_vector.h ****       vector(size_type __n, const value_type& __value,
 523:/Library/DaisyToolchain/0.2.0/arm/arm-none-eabi/include/c++/10.3.1/bits/stl_vector.h **** 	     const allocator_type& __a = allocator_type())
 524:/Library/DaisyToolchain/0.2.0/arm/arm-none-eabi/include/c++/10.3.1/bits/stl_vector.h ****       : _Base(_S_check_init_len(__n, __a), __a)
 525:/Library/DaisyToolchain/0.2.0/arm/arm-none-eabi/include/c++/10.3.1/bits/stl_vector.h ****       { _M_fill_initialize(__n, __value); }
 526:/Library/DaisyToolchain/0.2.0/arm/arm-none-eabi/include/c++/10.3.1/bits/stl_vector.h **** #else
 527:/Library/DaisyToolchain/0.2.0/arm/arm-none-eabi/include/c++/10.3.1/bits/stl_vector.h ****       /**
 528:/Library/DaisyToolchain/0.2.0/arm/arm-none-eabi/include/c++/10.3.1/bits/stl_vector.h ****        *  @brief  Creates a %vector with copies of an exemplar element.
 529:/Library/DaisyToolchain/0.2.0/arm/arm-none-eabi/include/c++/10.3.1/bits/stl_vector.h ****        *  @param  __n  The number of elements to initially create.
 530:/Library/DaisyToolchain/0.2.0/arm/arm-none-eabi/include/c++/10.3.1/bits/stl_vector.h ****        *  @param  __value  An element to copy.
 531:/Library/DaisyToolchain/0.2.0/arm/arm-none-eabi/include/c++/10.3.1/bits/stl_vector.h ****        *  @param  __a  An allocator.
 532:/Library/DaisyToolchain/0.2.0/arm/arm-none-eabi/include/c++/10.3.1/bits/stl_vector.h ****        *
 533:/Library/DaisyToolchain/0.2.0/arm/arm-none-eabi/include/c++/10.3.1/bits/stl_vector.h ****        *  This constructor fills the %vector with @a __n copies of @a __value.
 534:/Library/DaisyToolchain/0.2.0/arm/arm-none-eabi/include/c++/10.3.1/bits/stl_vector.h ****        */
 535:/Library/DaisyToolchain/0.2.0/arm/arm-none-eabi/include/c++/10.3.1/bits/stl_vector.h ****       explicit
 536:/Library/DaisyToolchain/0.2.0/arm/arm-none-eabi/include/c++/10.3.1/bits/stl_vector.h ****       vector(size_type __n, const value_type& __value = value_type(),
 537:/Library/DaisyToolchain/0.2.0/arm/arm-none-eabi/include/c++/10.3.1/bits/stl_vector.h **** 	     const allocator_type& __a = allocator_type())
 538:/Library/DaisyToolchain/0.2.0/arm/arm-none-eabi/include/c++/10.3.1/bits/stl_vector.h ****       : _Base(_S_check_init_len(__n, __a), __a)
 539:/Library/DaisyToolchain/0.2.0/arm/arm-none-eabi/include/c++/10.3.1/bits/stl_vector.h ****       { _M_fill_initialize(__n, __value); }
 540:/Library/DaisyToolchain/0.2.0/arm/arm-none-eabi/include/c++/10.3.1/bits/stl_vector.h **** #endif
 541:/Library/DaisyToolchain/0.2.0/arm/arm-none-eabi/include/c++/10.3.1/bits/stl_vector.h **** 
 542:/Library/DaisyToolchain/0.2.0/arm/arm-none-eabi/include/c++/10.3.1/bits/stl_vector.h ****       /**
 543:/Library/DaisyToolchain/0.2.0/arm/arm-none-eabi/include/c++/10.3.1/bits/stl_vector.h ****        *  @brief  %Vector copy constructor.
 544:/Library/DaisyToolchain/0.2.0/arm/arm-none-eabi/include/c++/10.3.1/bits/stl_vector.h ****        *  @param  __x  A %vector of identical element and allocator types.
 545:/Library/DaisyToolchain/0.2.0/arm/arm-none-eabi/include/c++/10.3.1/bits/stl_vector.h ****        *
 546:/Library/DaisyToolchain/0.2.0/arm/arm-none-eabi/include/c++/10.3.1/bits/stl_vector.h ****        *  All the elements of @a __x are copied, but any unused capacity in
 547:/Library/DaisyToolchain/0.2.0/arm/arm-none-eabi/include/c++/10.3.1/bits/stl_vector.h ****        *  @a __x  will not be copied
ARM GAS  /var/folders/wz/z09yph4n0qj4t7mjxhl6ttn80000gn/T//cc3KzP2n.s 			page 91


 548:/Library/DaisyToolchain/0.2.0/arm/arm-none-eabi/include/c++/10.3.1/bits/stl_vector.h ****        *  (i.e. capacity() == size() in the new %vector).
 549:/Library/DaisyToolchain/0.2.0/arm/arm-none-eabi/include/c++/10.3.1/bits/stl_vector.h ****        *
 550:/Library/DaisyToolchain/0.2.0/arm/arm-none-eabi/include/c++/10.3.1/bits/stl_vector.h ****        *  The newly-created %vector uses a copy of the allocator object used
 551:/Library/DaisyToolchain/0.2.0/arm/arm-none-eabi/include/c++/10.3.1/bits/stl_vector.h ****        *  by @a __x (unless the allocator traits dictate a different object).
 552:/Library/DaisyToolchain/0.2.0/arm/arm-none-eabi/include/c++/10.3.1/bits/stl_vector.h ****        */
 553:/Library/DaisyToolchain/0.2.0/arm/arm-none-eabi/include/c++/10.3.1/bits/stl_vector.h ****       vector(const vector& __x)
 554:/Library/DaisyToolchain/0.2.0/arm/arm-none-eabi/include/c++/10.3.1/bits/stl_vector.h ****       : _Base(__x.size(),
 555:/Library/DaisyToolchain/0.2.0/arm/arm-none-eabi/include/c++/10.3.1/bits/stl_vector.h **** 	_Alloc_traits::_S_select_on_copy(__x._M_get_Tp_allocator()))
 556:/Library/DaisyToolchain/0.2.0/arm/arm-none-eabi/include/c++/10.3.1/bits/stl_vector.h ****       {
 557:/Library/DaisyToolchain/0.2.0/arm/arm-none-eabi/include/c++/10.3.1/bits/stl_vector.h **** 	this->_M_impl._M_finish =
 558:/Library/DaisyToolchain/0.2.0/arm/arm-none-eabi/include/c++/10.3.1/bits/stl_vector.h **** 	  std::__uninitialized_copy_a(__x.begin(), __x.end(),
 559:/Library/DaisyToolchain/0.2.0/arm/arm-none-eabi/include/c++/10.3.1/bits/stl_vector.h **** 				      this->_M_impl._M_start,
 560:/Library/DaisyToolchain/0.2.0/arm/arm-none-eabi/include/c++/10.3.1/bits/stl_vector.h **** 				      _M_get_Tp_allocator());
 561:/Library/DaisyToolchain/0.2.0/arm/arm-none-eabi/include/c++/10.3.1/bits/stl_vector.h ****       }
 562:/Library/DaisyToolchain/0.2.0/arm/arm-none-eabi/include/c++/10.3.1/bits/stl_vector.h **** 
 563:/Library/DaisyToolchain/0.2.0/arm/arm-none-eabi/include/c++/10.3.1/bits/stl_vector.h **** #if __cplusplus >= 201103L
 564:/Library/DaisyToolchain/0.2.0/arm/arm-none-eabi/include/c++/10.3.1/bits/stl_vector.h ****       /**
 565:/Library/DaisyToolchain/0.2.0/arm/arm-none-eabi/include/c++/10.3.1/bits/stl_vector.h ****        *  @brief  %Vector move constructor.
 566:/Library/DaisyToolchain/0.2.0/arm/arm-none-eabi/include/c++/10.3.1/bits/stl_vector.h ****        *
 567:/Library/DaisyToolchain/0.2.0/arm/arm-none-eabi/include/c++/10.3.1/bits/stl_vector.h ****        *  The newly-created %vector contains the exact contents of the
 568:/Library/DaisyToolchain/0.2.0/arm/arm-none-eabi/include/c++/10.3.1/bits/stl_vector.h ****        *  moved instance.
 569:/Library/DaisyToolchain/0.2.0/arm/arm-none-eabi/include/c++/10.3.1/bits/stl_vector.h ****        *  The contents of the moved instance are a valid, but unspecified
 570:/Library/DaisyToolchain/0.2.0/arm/arm-none-eabi/include/c++/10.3.1/bits/stl_vector.h ****        *  %vector.
 571:/Library/DaisyToolchain/0.2.0/arm/arm-none-eabi/include/c++/10.3.1/bits/stl_vector.h ****        */
 572:/Library/DaisyToolchain/0.2.0/arm/arm-none-eabi/include/c++/10.3.1/bits/stl_vector.h ****       vector(vector&&) noexcept = default;
 573:/Library/DaisyToolchain/0.2.0/arm/arm-none-eabi/include/c++/10.3.1/bits/stl_vector.h **** 
 574:/Library/DaisyToolchain/0.2.0/arm/arm-none-eabi/include/c++/10.3.1/bits/stl_vector.h ****       /// Copy constructor with alternative allocator
 575:/Library/DaisyToolchain/0.2.0/arm/arm-none-eabi/include/c++/10.3.1/bits/stl_vector.h ****       vector(const vector& __x, const allocator_type& __a)
 576:/Library/DaisyToolchain/0.2.0/arm/arm-none-eabi/include/c++/10.3.1/bits/stl_vector.h ****       : _Base(__x.size(), __a)
 577:/Library/DaisyToolchain/0.2.0/arm/arm-none-eabi/include/c++/10.3.1/bits/stl_vector.h ****       {
 578:/Library/DaisyToolchain/0.2.0/arm/arm-none-eabi/include/c++/10.3.1/bits/stl_vector.h **** 	this->_M_impl._M_finish =
 579:/Library/DaisyToolchain/0.2.0/arm/arm-none-eabi/include/c++/10.3.1/bits/stl_vector.h **** 	  std::__uninitialized_copy_a(__x.begin(), __x.end(),
 580:/Library/DaisyToolchain/0.2.0/arm/arm-none-eabi/include/c++/10.3.1/bits/stl_vector.h **** 				      this->_M_impl._M_start,
 581:/Library/DaisyToolchain/0.2.0/arm/arm-none-eabi/include/c++/10.3.1/bits/stl_vector.h **** 				      _M_get_Tp_allocator());
 582:/Library/DaisyToolchain/0.2.0/arm/arm-none-eabi/include/c++/10.3.1/bits/stl_vector.h ****       }
 583:/Library/DaisyToolchain/0.2.0/arm/arm-none-eabi/include/c++/10.3.1/bits/stl_vector.h **** 
 584:/Library/DaisyToolchain/0.2.0/arm/arm-none-eabi/include/c++/10.3.1/bits/stl_vector.h ****     private:
 585:/Library/DaisyToolchain/0.2.0/arm/arm-none-eabi/include/c++/10.3.1/bits/stl_vector.h ****       vector(vector&& __rv, const allocator_type& __m, true_type) noexcept
 586:/Library/DaisyToolchain/0.2.0/arm/arm-none-eabi/include/c++/10.3.1/bits/stl_vector.h ****       : _Base(__m, std::move(__rv))
 587:/Library/DaisyToolchain/0.2.0/arm/arm-none-eabi/include/c++/10.3.1/bits/stl_vector.h ****       { }
 588:/Library/DaisyToolchain/0.2.0/arm/arm-none-eabi/include/c++/10.3.1/bits/stl_vector.h **** 
 589:/Library/DaisyToolchain/0.2.0/arm/arm-none-eabi/include/c++/10.3.1/bits/stl_vector.h ****       vector(vector&& __rv, const allocator_type& __m, false_type)
 590:/Library/DaisyToolchain/0.2.0/arm/arm-none-eabi/include/c++/10.3.1/bits/stl_vector.h ****       : _Base(__m)
 591:/Library/DaisyToolchain/0.2.0/arm/arm-none-eabi/include/c++/10.3.1/bits/stl_vector.h ****       {
 592:/Library/DaisyToolchain/0.2.0/arm/arm-none-eabi/include/c++/10.3.1/bits/stl_vector.h **** 	if (__rv.get_allocator() == __m)
 593:/Library/DaisyToolchain/0.2.0/arm/arm-none-eabi/include/c++/10.3.1/bits/stl_vector.h **** 	  this->_M_impl._M_swap_data(__rv._M_impl);
 594:/Library/DaisyToolchain/0.2.0/arm/arm-none-eabi/include/c++/10.3.1/bits/stl_vector.h **** 	else if (!__rv.empty())
 595:/Library/DaisyToolchain/0.2.0/arm/arm-none-eabi/include/c++/10.3.1/bits/stl_vector.h **** 	  {
 596:/Library/DaisyToolchain/0.2.0/arm/arm-none-eabi/include/c++/10.3.1/bits/stl_vector.h **** 	    this->_M_create_storage(__rv.size());
 597:/Library/DaisyToolchain/0.2.0/arm/arm-none-eabi/include/c++/10.3.1/bits/stl_vector.h **** 	    this->_M_impl._M_finish =
 598:/Library/DaisyToolchain/0.2.0/arm/arm-none-eabi/include/c++/10.3.1/bits/stl_vector.h **** 	      std::__uninitialized_move_a(__rv.begin(), __rv.end(),
 599:/Library/DaisyToolchain/0.2.0/arm/arm-none-eabi/include/c++/10.3.1/bits/stl_vector.h **** 					  this->_M_impl._M_start,
 600:/Library/DaisyToolchain/0.2.0/arm/arm-none-eabi/include/c++/10.3.1/bits/stl_vector.h **** 					  _M_get_Tp_allocator());
 601:/Library/DaisyToolchain/0.2.0/arm/arm-none-eabi/include/c++/10.3.1/bits/stl_vector.h **** 	    __rv.clear();
 602:/Library/DaisyToolchain/0.2.0/arm/arm-none-eabi/include/c++/10.3.1/bits/stl_vector.h **** 	  }
 603:/Library/DaisyToolchain/0.2.0/arm/arm-none-eabi/include/c++/10.3.1/bits/stl_vector.h ****       }
 604:/Library/DaisyToolchain/0.2.0/arm/arm-none-eabi/include/c++/10.3.1/bits/stl_vector.h **** 
ARM GAS  /var/folders/wz/z09yph4n0qj4t7mjxhl6ttn80000gn/T//cc3KzP2n.s 			page 92


 605:/Library/DaisyToolchain/0.2.0/arm/arm-none-eabi/include/c++/10.3.1/bits/stl_vector.h ****     public:
 606:/Library/DaisyToolchain/0.2.0/arm/arm-none-eabi/include/c++/10.3.1/bits/stl_vector.h ****       /// Move constructor with alternative allocator
 607:/Library/DaisyToolchain/0.2.0/arm/arm-none-eabi/include/c++/10.3.1/bits/stl_vector.h ****       vector(vector&& __rv, const allocator_type& __m)
 608:/Library/DaisyToolchain/0.2.0/arm/arm-none-eabi/include/c++/10.3.1/bits/stl_vector.h ****       noexcept( noexcept(
 609:/Library/DaisyToolchain/0.2.0/arm/arm-none-eabi/include/c++/10.3.1/bits/stl_vector.h **** 	vector(std::declval<vector&&>(), std::declval<const allocator_type&>(),
 610:/Library/DaisyToolchain/0.2.0/arm/arm-none-eabi/include/c++/10.3.1/bits/stl_vector.h **** 	       std::declval<typename _Alloc_traits::is_always_equal>())) )
 611:/Library/DaisyToolchain/0.2.0/arm/arm-none-eabi/include/c++/10.3.1/bits/stl_vector.h ****       : vector(std::move(__rv), __m, typename _Alloc_traits::is_always_equal{})
 612:/Library/DaisyToolchain/0.2.0/arm/arm-none-eabi/include/c++/10.3.1/bits/stl_vector.h ****       { }
 613:/Library/DaisyToolchain/0.2.0/arm/arm-none-eabi/include/c++/10.3.1/bits/stl_vector.h **** 
 614:/Library/DaisyToolchain/0.2.0/arm/arm-none-eabi/include/c++/10.3.1/bits/stl_vector.h ****       /**
 615:/Library/DaisyToolchain/0.2.0/arm/arm-none-eabi/include/c++/10.3.1/bits/stl_vector.h ****        *  @brief  Builds a %vector from an initializer list.
 616:/Library/DaisyToolchain/0.2.0/arm/arm-none-eabi/include/c++/10.3.1/bits/stl_vector.h ****        *  @param  __l  An initializer_list.
 617:/Library/DaisyToolchain/0.2.0/arm/arm-none-eabi/include/c++/10.3.1/bits/stl_vector.h ****        *  @param  __a  An allocator.
 618:/Library/DaisyToolchain/0.2.0/arm/arm-none-eabi/include/c++/10.3.1/bits/stl_vector.h ****        *
 619:/Library/DaisyToolchain/0.2.0/arm/arm-none-eabi/include/c++/10.3.1/bits/stl_vector.h ****        *  Create a %vector consisting of copies of the elements in the
 620:/Library/DaisyToolchain/0.2.0/arm/arm-none-eabi/include/c++/10.3.1/bits/stl_vector.h ****        *  initializer_list @a __l.
 621:/Library/DaisyToolchain/0.2.0/arm/arm-none-eabi/include/c++/10.3.1/bits/stl_vector.h ****        *
 622:/Library/DaisyToolchain/0.2.0/arm/arm-none-eabi/include/c++/10.3.1/bits/stl_vector.h ****        *  This will call the element type's copy constructor N times
 623:/Library/DaisyToolchain/0.2.0/arm/arm-none-eabi/include/c++/10.3.1/bits/stl_vector.h ****        *  (where N is @a __l.size()) and do no memory reallocation.
 624:/Library/DaisyToolchain/0.2.0/arm/arm-none-eabi/include/c++/10.3.1/bits/stl_vector.h ****        */
 625:/Library/DaisyToolchain/0.2.0/arm/arm-none-eabi/include/c++/10.3.1/bits/stl_vector.h ****       vector(initializer_list<value_type> __l,
 626:/Library/DaisyToolchain/0.2.0/arm/arm-none-eabi/include/c++/10.3.1/bits/stl_vector.h **** 	     const allocator_type& __a = allocator_type())
 627:/Library/DaisyToolchain/0.2.0/arm/arm-none-eabi/include/c++/10.3.1/bits/stl_vector.h ****       : _Base(__a)
 628:/Library/DaisyToolchain/0.2.0/arm/arm-none-eabi/include/c++/10.3.1/bits/stl_vector.h ****       {
 629:/Library/DaisyToolchain/0.2.0/arm/arm-none-eabi/include/c++/10.3.1/bits/stl_vector.h **** 	_M_range_initialize(__l.begin(), __l.end(),
 630:/Library/DaisyToolchain/0.2.0/arm/arm-none-eabi/include/c++/10.3.1/bits/stl_vector.h **** 			    random_access_iterator_tag());
 631:/Library/DaisyToolchain/0.2.0/arm/arm-none-eabi/include/c++/10.3.1/bits/stl_vector.h ****       }
 632:/Library/DaisyToolchain/0.2.0/arm/arm-none-eabi/include/c++/10.3.1/bits/stl_vector.h **** #endif
 633:/Library/DaisyToolchain/0.2.0/arm/arm-none-eabi/include/c++/10.3.1/bits/stl_vector.h **** 
 634:/Library/DaisyToolchain/0.2.0/arm/arm-none-eabi/include/c++/10.3.1/bits/stl_vector.h ****       /**
 635:/Library/DaisyToolchain/0.2.0/arm/arm-none-eabi/include/c++/10.3.1/bits/stl_vector.h ****        *  @brief  Builds a %vector from a range.
 636:/Library/DaisyToolchain/0.2.0/arm/arm-none-eabi/include/c++/10.3.1/bits/stl_vector.h ****        *  @param  __first  An input iterator.
 637:/Library/DaisyToolchain/0.2.0/arm/arm-none-eabi/include/c++/10.3.1/bits/stl_vector.h ****        *  @param  __last  An input iterator.
 638:/Library/DaisyToolchain/0.2.0/arm/arm-none-eabi/include/c++/10.3.1/bits/stl_vector.h ****        *  @param  __a  An allocator.
 639:/Library/DaisyToolchain/0.2.0/arm/arm-none-eabi/include/c++/10.3.1/bits/stl_vector.h ****        *
 640:/Library/DaisyToolchain/0.2.0/arm/arm-none-eabi/include/c++/10.3.1/bits/stl_vector.h ****        *  Create a %vector consisting of copies of the elements from
 641:/Library/DaisyToolchain/0.2.0/arm/arm-none-eabi/include/c++/10.3.1/bits/stl_vector.h ****        *  [first,last).
 642:/Library/DaisyToolchain/0.2.0/arm/arm-none-eabi/include/c++/10.3.1/bits/stl_vector.h ****        *
 643:/Library/DaisyToolchain/0.2.0/arm/arm-none-eabi/include/c++/10.3.1/bits/stl_vector.h ****        *  If the iterators are forward, bidirectional, or
 644:/Library/DaisyToolchain/0.2.0/arm/arm-none-eabi/include/c++/10.3.1/bits/stl_vector.h ****        *  random-access, then this will call the elements' copy
 645:/Library/DaisyToolchain/0.2.0/arm/arm-none-eabi/include/c++/10.3.1/bits/stl_vector.h ****        *  constructor N times (where N is distance(first,last)) and do
 646:/Library/DaisyToolchain/0.2.0/arm/arm-none-eabi/include/c++/10.3.1/bits/stl_vector.h ****        *  no memory reallocation.  But if only input iterators are
 647:/Library/DaisyToolchain/0.2.0/arm/arm-none-eabi/include/c++/10.3.1/bits/stl_vector.h ****        *  used, then this will do at most 2N calls to the copy
 648:/Library/DaisyToolchain/0.2.0/arm/arm-none-eabi/include/c++/10.3.1/bits/stl_vector.h ****        *  constructor, and logN memory reallocations.
 649:/Library/DaisyToolchain/0.2.0/arm/arm-none-eabi/include/c++/10.3.1/bits/stl_vector.h ****        */
 650:/Library/DaisyToolchain/0.2.0/arm/arm-none-eabi/include/c++/10.3.1/bits/stl_vector.h **** #if __cplusplus >= 201103L
 651:/Library/DaisyToolchain/0.2.0/arm/arm-none-eabi/include/c++/10.3.1/bits/stl_vector.h ****       template<typename _InputIterator,
 652:/Library/DaisyToolchain/0.2.0/arm/arm-none-eabi/include/c++/10.3.1/bits/stl_vector.h **** 	       typename = std::_RequireInputIter<_InputIterator>>
 653:/Library/DaisyToolchain/0.2.0/arm/arm-none-eabi/include/c++/10.3.1/bits/stl_vector.h **** 	vector(_InputIterator __first, _InputIterator __last,
 654:/Library/DaisyToolchain/0.2.0/arm/arm-none-eabi/include/c++/10.3.1/bits/stl_vector.h **** 	       const allocator_type& __a = allocator_type())
 655:/Library/DaisyToolchain/0.2.0/arm/arm-none-eabi/include/c++/10.3.1/bits/stl_vector.h **** 	: _Base(__a)
 656:/Library/DaisyToolchain/0.2.0/arm/arm-none-eabi/include/c++/10.3.1/bits/stl_vector.h **** 	{
 657:/Library/DaisyToolchain/0.2.0/arm/arm-none-eabi/include/c++/10.3.1/bits/stl_vector.h **** 	  _M_range_initialize(__first, __last,
 658:/Library/DaisyToolchain/0.2.0/arm/arm-none-eabi/include/c++/10.3.1/bits/stl_vector.h **** 			      std::__iterator_category(__first));
 659:/Library/DaisyToolchain/0.2.0/arm/arm-none-eabi/include/c++/10.3.1/bits/stl_vector.h **** 	}
 660:/Library/DaisyToolchain/0.2.0/arm/arm-none-eabi/include/c++/10.3.1/bits/stl_vector.h **** #else
 661:/Library/DaisyToolchain/0.2.0/arm/arm-none-eabi/include/c++/10.3.1/bits/stl_vector.h ****       template<typename _InputIterator>
ARM GAS  /var/folders/wz/z09yph4n0qj4t7mjxhl6ttn80000gn/T//cc3KzP2n.s 			page 93


 662:/Library/DaisyToolchain/0.2.0/arm/arm-none-eabi/include/c++/10.3.1/bits/stl_vector.h **** 	vector(_InputIterator __first, _InputIterator __last,
 663:/Library/DaisyToolchain/0.2.0/arm/arm-none-eabi/include/c++/10.3.1/bits/stl_vector.h **** 	       const allocator_type& __a = allocator_type())
 664:/Library/DaisyToolchain/0.2.0/arm/arm-none-eabi/include/c++/10.3.1/bits/stl_vector.h **** 	: _Base(__a)
 665:/Library/DaisyToolchain/0.2.0/arm/arm-none-eabi/include/c++/10.3.1/bits/stl_vector.h **** 	{
 666:/Library/DaisyToolchain/0.2.0/arm/arm-none-eabi/include/c++/10.3.1/bits/stl_vector.h **** 	  // Check whether it's an integral type.  If so, it's not an iterator.
 667:/Library/DaisyToolchain/0.2.0/arm/arm-none-eabi/include/c++/10.3.1/bits/stl_vector.h **** 	  typedef typename std::__is_integer<_InputIterator>::__type _Integral;
 668:/Library/DaisyToolchain/0.2.0/arm/arm-none-eabi/include/c++/10.3.1/bits/stl_vector.h **** 	  _M_initialize_dispatch(__first, __last, _Integral());
 669:/Library/DaisyToolchain/0.2.0/arm/arm-none-eabi/include/c++/10.3.1/bits/stl_vector.h **** 	}
 670:/Library/DaisyToolchain/0.2.0/arm/arm-none-eabi/include/c++/10.3.1/bits/stl_vector.h **** #endif
 671:/Library/DaisyToolchain/0.2.0/arm/arm-none-eabi/include/c++/10.3.1/bits/stl_vector.h **** 
 672:/Library/DaisyToolchain/0.2.0/arm/arm-none-eabi/include/c++/10.3.1/bits/stl_vector.h ****       /**
 673:/Library/DaisyToolchain/0.2.0/arm/arm-none-eabi/include/c++/10.3.1/bits/stl_vector.h ****        *  The dtor only erases the elements, and note that if the
 674:/Library/DaisyToolchain/0.2.0/arm/arm-none-eabi/include/c++/10.3.1/bits/stl_vector.h ****        *  elements themselves are pointers, the pointed-to memory is
 675:/Library/DaisyToolchain/0.2.0/arm/arm-none-eabi/include/c++/10.3.1/bits/stl_vector.h ****        *  not touched in any way.  Managing the pointer is the user's
 676:/Library/DaisyToolchain/0.2.0/arm/arm-none-eabi/include/c++/10.3.1/bits/stl_vector.h ****        *  responsibility.
 677:/Library/DaisyToolchain/0.2.0/arm/arm-none-eabi/include/c++/10.3.1/bits/stl_vector.h ****        */
 678:/Library/DaisyToolchain/0.2.0/arm/arm-none-eabi/include/c++/10.3.1/bits/stl_vector.h ****       ~vector() _GLIBCXX_NOEXCEPT
 679:/Library/DaisyToolchain/0.2.0/arm/arm-none-eabi/include/c++/10.3.1/bits/stl_vector.h ****       {
 680:/Library/DaisyToolchain/0.2.0/arm/arm-none-eabi/include/c++/10.3.1/bits/stl_vector.h **** 	std::_Destroy(this->_M_impl._M_start, this->_M_impl._M_finish,
 681:/Library/DaisyToolchain/0.2.0/arm/arm-none-eabi/include/c++/10.3.1/bits/stl_vector.h **** 		      _M_get_Tp_allocator());
 682:/Library/DaisyToolchain/0.2.0/arm/arm-none-eabi/include/c++/10.3.1/bits/stl_vector.h **** 	_GLIBCXX_ASAN_ANNOTATE_BEFORE_DEALLOC;
 683:/Library/DaisyToolchain/0.2.0/arm/arm-none-eabi/include/c++/10.3.1/bits/stl_vector.h ****       }
 684:/Library/DaisyToolchain/0.2.0/arm/arm-none-eabi/include/c++/10.3.1/bits/stl_vector.h **** 
 685:/Library/DaisyToolchain/0.2.0/arm/arm-none-eabi/include/c++/10.3.1/bits/stl_vector.h ****       /**
 686:/Library/DaisyToolchain/0.2.0/arm/arm-none-eabi/include/c++/10.3.1/bits/stl_vector.h ****        *  @brief  %Vector assignment operator.
 687:/Library/DaisyToolchain/0.2.0/arm/arm-none-eabi/include/c++/10.3.1/bits/stl_vector.h ****        *  @param  __x  A %vector of identical element and allocator types.
 688:/Library/DaisyToolchain/0.2.0/arm/arm-none-eabi/include/c++/10.3.1/bits/stl_vector.h ****        *
 689:/Library/DaisyToolchain/0.2.0/arm/arm-none-eabi/include/c++/10.3.1/bits/stl_vector.h ****        *  All the elements of @a __x are copied, but any unused capacity in
 690:/Library/DaisyToolchain/0.2.0/arm/arm-none-eabi/include/c++/10.3.1/bits/stl_vector.h ****        *  @a __x will not be copied.
 691:/Library/DaisyToolchain/0.2.0/arm/arm-none-eabi/include/c++/10.3.1/bits/stl_vector.h ****        *
 692:/Library/DaisyToolchain/0.2.0/arm/arm-none-eabi/include/c++/10.3.1/bits/stl_vector.h ****        *  Whether the allocator is copied depends on the allocator traits.
 693:/Library/DaisyToolchain/0.2.0/arm/arm-none-eabi/include/c++/10.3.1/bits/stl_vector.h ****        */
 694:/Library/DaisyToolchain/0.2.0/arm/arm-none-eabi/include/c++/10.3.1/bits/stl_vector.h ****       vector&
 695:/Library/DaisyToolchain/0.2.0/arm/arm-none-eabi/include/c++/10.3.1/bits/stl_vector.h ****       operator=(const vector& __x);
 696:/Library/DaisyToolchain/0.2.0/arm/arm-none-eabi/include/c++/10.3.1/bits/stl_vector.h **** 
 697:/Library/DaisyToolchain/0.2.0/arm/arm-none-eabi/include/c++/10.3.1/bits/stl_vector.h **** #if __cplusplus >= 201103L
 698:/Library/DaisyToolchain/0.2.0/arm/arm-none-eabi/include/c++/10.3.1/bits/stl_vector.h ****       /**
 699:/Library/DaisyToolchain/0.2.0/arm/arm-none-eabi/include/c++/10.3.1/bits/stl_vector.h ****        *  @brief  %Vector move assignment operator.
 700:/Library/DaisyToolchain/0.2.0/arm/arm-none-eabi/include/c++/10.3.1/bits/stl_vector.h ****        *  @param  __x  A %vector of identical element and allocator types.
 701:/Library/DaisyToolchain/0.2.0/arm/arm-none-eabi/include/c++/10.3.1/bits/stl_vector.h ****        *
 702:/Library/DaisyToolchain/0.2.0/arm/arm-none-eabi/include/c++/10.3.1/bits/stl_vector.h ****        *  The contents of @a __x are moved into this %vector (without copying,
 703:/Library/DaisyToolchain/0.2.0/arm/arm-none-eabi/include/c++/10.3.1/bits/stl_vector.h ****        *  if the allocators permit it).
 704:/Library/DaisyToolchain/0.2.0/arm/arm-none-eabi/include/c++/10.3.1/bits/stl_vector.h ****        *  Afterwards @a __x is a valid, but unspecified %vector.
 705:/Library/DaisyToolchain/0.2.0/arm/arm-none-eabi/include/c++/10.3.1/bits/stl_vector.h ****        *
 706:/Library/DaisyToolchain/0.2.0/arm/arm-none-eabi/include/c++/10.3.1/bits/stl_vector.h ****        *  Whether the allocator is moved depends on the allocator traits.
 707:/Library/DaisyToolchain/0.2.0/arm/arm-none-eabi/include/c++/10.3.1/bits/stl_vector.h ****        */
 708:/Library/DaisyToolchain/0.2.0/arm/arm-none-eabi/include/c++/10.3.1/bits/stl_vector.h ****       vector&
 709:/Library/DaisyToolchain/0.2.0/arm/arm-none-eabi/include/c++/10.3.1/bits/stl_vector.h ****       operator=(vector&& __x) noexcept(_Alloc_traits::_S_nothrow_move())
 710:/Library/DaisyToolchain/0.2.0/arm/arm-none-eabi/include/c++/10.3.1/bits/stl_vector.h ****       {
 711:/Library/DaisyToolchain/0.2.0/arm/arm-none-eabi/include/c++/10.3.1/bits/stl_vector.h **** 	constexpr bool __move_storage =
 712:/Library/DaisyToolchain/0.2.0/arm/arm-none-eabi/include/c++/10.3.1/bits/stl_vector.h **** 	  _Alloc_traits::_S_propagate_on_move_assign()
 713:/Library/DaisyToolchain/0.2.0/arm/arm-none-eabi/include/c++/10.3.1/bits/stl_vector.h **** 	  || _Alloc_traits::_S_always_equal();
 714:/Library/DaisyToolchain/0.2.0/arm/arm-none-eabi/include/c++/10.3.1/bits/stl_vector.h **** 	_M_move_assign(std::move(__x), __bool_constant<__move_storage>());
 715:/Library/DaisyToolchain/0.2.0/arm/arm-none-eabi/include/c++/10.3.1/bits/stl_vector.h **** 	return *this;
 716:/Library/DaisyToolchain/0.2.0/arm/arm-none-eabi/include/c++/10.3.1/bits/stl_vector.h ****       }
 717:/Library/DaisyToolchain/0.2.0/arm/arm-none-eabi/include/c++/10.3.1/bits/stl_vector.h **** 
 718:/Library/DaisyToolchain/0.2.0/arm/arm-none-eabi/include/c++/10.3.1/bits/stl_vector.h ****       /**
ARM GAS  /var/folders/wz/z09yph4n0qj4t7mjxhl6ttn80000gn/T//cc3KzP2n.s 			page 94


 719:/Library/DaisyToolchain/0.2.0/arm/arm-none-eabi/include/c++/10.3.1/bits/stl_vector.h ****        *  @brief  %Vector list assignment operator.
 720:/Library/DaisyToolchain/0.2.0/arm/arm-none-eabi/include/c++/10.3.1/bits/stl_vector.h ****        *  @param  __l  An initializer_list.
 721:/Library/DaisyToolchain/0.2.0/arm/arm-none-eabi/include/c++/10.3.1/bits/stl_vector.h ****        *
 722:/Library/DaisyToolchain/0.2.0/arm/arm-none-eabi/include/c++/10.3.1/bits/stl_vector.h ****        *  This function fills a %vector with copies of the elements in the
 723:/Library/DaisyToolchain/0.2.0/arm/arm-none-eabi/include/c++/10.3.1/bits/stl_vector.h ****        *  initializer list @a __l.
 724:/Library/DaisyToolchain/0.2.0/arm/arm-none-eabi/include/c++/10.3.1/bits/stl_vector.h ****        *
 725:/Library/DaisyToolchain/0.2.0/arm/arm-none-eabi/include/c++/10.3.1/bits/stl_vector.h ****        *  Note that the assignment completely changes the %vector and
 726:/Library/DaisyToolchain/0.2.0/arm/arm-none-eabi/include/c++/10.3.1/bits/stl_vector.h ****        *  that the resulting %vector's size is the same as the number
 727:/Library/DaisyToolchain/0.2.0/arm/arm-none-eabi/include/c++/10.3.1/bits/stl_vector.h ****        *  of elements assigned.
 728:/Library/DaisyToolchain/0.2.0/arm/arm-none-eabi/include/c++/10.3.1/bits/stl_vector.h ****        */
 729:/Library/DaisyToolchain/0.2.0/arm/arm-none-eabi/include/c++/10.3.1/bits/stl_vector.h ****       vector&
 730:/Library/DaisyToolchain/0.2.0/arm/arm-none-eabi/include/c++/10.3.1/bits/stl_vector.h ****       operator=(initializer_list<value_type> __l)
 731:/Library/DaisyToolchain/0.2.0/arm/arm-none-eabi/include/c++/10.3.1/bits/stl_vector.h ****       {
 732:/Library/DaisyToolchain/0.2.0/arm/arm-none-eabi/include/c++/10.3.1/bits/stl_vector.h **** 	this->_M_assign_aux(__l.begin(), __l.end(),
 733:/Library/DaisyToolchain/0.2.0/arm/arm-none-eabi/include/c++/10.3.1/bits/stl_vector.h **** 			    random_access_iterator_tag());
 734:/Library/DaisyToolchain/0.2.0/arm/arm-none-eabi/include/c++/10.3.1/bits/stl_vector.h **** 	return *this;
 735:/Library/DaisyToolchain/0.2.0/arm/arm-none-eabi/include/c++/10.3.1/bits/stl_vector.h ****       }
 736:/Library/DaisyToolchain/0.2.0/arm/arm-none-eabi/include/c++/10.3.1/bits/stl_vector.h **** #endif
 737:/Library/DaisyToolchain/0.2.0/arm/arm-none-eabi/include/c++/10.3.1/bits/stl_vector.h **** 
 738:/Library/DaisyToolchain/0.2.0/arm/arm-none-eabi/include/c++/10.3.1/bits/stl_vector.h ****       /**
 739:/Library/DaisyToolchain/0.2.0/arm/arm-none-eabi/include/c++/10.3.1/bits/stl_vector.h ****        *  @brief  Assigns a given value to a %vector.
 740:/Library/DaisyToolchain/0.2.0/arm/arm-none-eabi/include/c++/10.3.1/bits/stl_vector.h ****        *  @param  __n  Number of elements to be assigned.
 741:/Library/DaisyToolchain/0.2.0/arm/arm-none-eabi/include/c++/10.3.1/bits/stl_vector.h ****        *  @param  __val  Value to be assigned.
 742:/Library/DaisyToolchain/0.2.0/arm/arm-none-eabi/include/c++/10.3.1/bits/stl_vector.h ****        *
 743:/Library/DaisyToolchain/0.2.0/arm/arm-none-eabi/include/c++/10.3.1/bits/stl_vector.h ****        *  This function fills a %vector with @a __n copies of the given
 744:/Library/DaisyToolchain/0.2.0/arm/arm-none-eabi/include/c++/10.3.1/bits/stl_vector.h ****        *  value.  Note that the assignment completely changes the
 745:/Library/DaisyToolchain/0.2.0/arm/arm-none-eabi/include/c++/10.3.1/bits/stl_vector.h ****        *  %vector and that the resulting %vector's size is the same as
 746:/Library/DaisyToolchain/0.2.0/arm/arm-none-eabi/include/c++/10.3.1/bits/stl_vector.h ****        *  the number of elements assigned.
 747:/Library/DaisyToolchain/0.2.0/arm/arm-none-eabi/include/c++/10.3.1/bits/stl_vector.h ****        */
 748:/Library/DaisyToolchain/0.2.0/arm/arm-none-eabi/include/c++/10.3.1/bits/stl_vector.h ****       void
 749:/Library/DaisyToolchain/0.2.0/arm/arm-none-eabi/include/c++/10.3.1/bits/stl_vector.h ****       assign(size_type __n, const value_type& __val)
 750:/Library/DaisyToolchain/0.2.0/arm/arm-none-eabi/include/c++/10.3.1/bits/stl_vector.h ****       { _M_fill_assign(__n, __val); }
 751:/Library/DaisyToolchain/0.2.0/arm/arm-none-eabi/include/c++/10.3.1/bits/stl_vector.h **** 
 752:/Library/DaisyToolchain/0.2.0/arm/arm-none-eabi/include/c++/10.3.1/bits/stl_vector.h ****       /**
 753:/Library/DaisyToolchain/0.2.0/arm/arm-none-eabi/include/c++/10.3.1/bits/stl_vector.h ****        *  @brief  Assigns a range to a %vector.
 754:/Library/DaisyToolchain/0.2.0/arm/arm-none-eabi/include/c++/10.3.1/bits/stl_vector.h ****        *  @param  __first  An input iterator.
 755:/Library/DaisyToolchain/0.2.0/arm/arm-none-eabi/include/c++/10.3.1/bits/stl_vector.h ****        *  @param  __last   An input iterator.
 756:/Library/DaisyToolchain/0.2.0/arm/arm-none-eabi/include/c++/10.3.1/bits/stl_vector.h ****        *
 757:/Library/DaisyToolchain/0.2.0/arm/arm-none-eabi/include/c++/10.3.1/bits/stl_vector.h ****        *  This function fills a %vector with copies of the elements in the
 758:/Library/DaisyToolchain/0.2.0/arm/arm-none-eabi/include/c++/10.3.1/bits/stl_vector.h ****        *  range [__first,__last).
 759:/Library/DaisyToolchain/0.2.0/arm/arm-none-eabi/include/c++/10.3.1/bits/stl_vector.h ****        *
 760:/Library/DaisyToolchain/0.2.0/arm/arm-none-eabi/include/c++/10.3.1/bits/stl_vector.h ****        *  Note that the assignment completely changes the %vector and
 761:/Library/DaisyToolchain/0.2.0/arm/arm-none-eabi/include/c++/10.3.1/bits/stl_vector.h ****        *  that the resulting %vector's size is the same as the number
 762:/Library/DaisyToolchain/0.2.0/arm/arm-none-eabi/include/c++/10.3.1/bits/stl_vector.h ****        *  of elements assigned.
 763:/Library/DaisyToolchain/0.2.0/arm/arm-none-eabi/include/c++/10.3.1/bits/stl_vector.h ****        */
 764:/Library/DaisyToolchain/0.2.0/arm/arm-none-eabi/include/c++/10.3.1/bits/stl_vector.h **** #if __cplusplus >= 201103L
 765:/Library/DaisyToolchain/0.2.0/arm/arm-none-eabi/include/c++/10.3.1/bits/stl_vector.h ****       template<typename _InputIterator,
 766:/Library/DaisyToolchain/0.2.0/arm/arm-none-eabi/include/c++/10.3.1/bits/stl_vector.h **** 	       typename = std::_RequireInputIter<_InputIterator>>
 767:/Library/DaisyToolchain/0.2.0/arm/arm-none-eabi/include/c++/10.3.1/bits/stl_vector.h **** 	void
 768:/Library/DaisyToolchain/0.2.0/arm/arm-none-eabi/include/c++/10.3.1/bits/stl_vector.h **** 	assign(_InputIterator __first, _InputIterator __last)
 769:/Library/DaisyToolchain/0.2.0/arm/arm-none-eabi/include/c++/10.3.1/bits/stl_vector.h **** 	{ _M_assign_dispatch(__first, __last, __false_type()); }
 770:/Library/DaisyToolchain/0.2.0/arm/arm-none-eabi/include/c++/10.3.1/bits/stl_vector.h **** #else
 771:/Library/DaisyToolchain/0.2.0/arm/arm-none-eabi/include/c++/10.3.1/bits/stl_vector.h ****       template<typename _InputIterator>
 772:/Library/DaisyToolchain/0.2.0/arm/arm-none-eabi/include/c++/10.3.1/bits/stl_vector.h **** 	void
 773:/Library/DaisyToolchain/0.2.0/arm/arm-none-eabi/include/c++/10.3.1/bits/stl_vector.h **** 	assign(_InputIterator __first, _InputIterator __last)
 774:/Library/DaisyToolchain/0.2.0/arm/arm-none-eabi/include/c++/10.3.1/bits/stl_vector.h **** 	{
 775:/Library/DaisyToolchain/0.2.0/arm/arm-none-eabi/include/c++/10.3.1/bits/stl_vector.h **** 	  // Check whether it's an integral type.  If so, it's not an iterator.
ARM GAS  /var/folders/wz/z09yph4n0qj4t7mjxhl6ttn80000gn/T//cc3KzP2n.s 			page 95


 776:/Library/DaisyToolchain/0.2.0/arm/arm-none-eabi/include/c++/10.3.1/bits/stl_vector.h **** 	  typedef typename std::__is_integer<_InputIterator>::__type _Integral;
 777:/Library/DaisyToolchain/0.2.0/arm/arm-none-eabi/include/c++/10.3.1/bits/stl_vector.h **** 	  _M_assign_dispatch(__first, __last, _Integral());
 778:/Library/DaisyToolchain/0.2.0/arm/arm-none-eabi/include/c++/10.3.1/bits/stl_vector.h **** 	}
 779:/Library/DaisyToolchain/0.2.0/arm/arm-none-eabi/include/c++/10.3.1/bits/stl_vector.h **** #endif
 780:/Library/DaisyToolchain/0.2.0/arm/arm-none-eabi/include/c++/10.3.1/bits/stl_vector.h **** 
 781:/Library/DaisyToolchain/0.2.0/arm/arm-none-eabi/include/c++/10.3.1/bits/stl_vector.h **** #if __cplusplus >= 201103L
 782:/Library/DaisyToolchain/0.2.0/arm/arm-none-eabi/include/c++/10.3.1/bits/stl_vector.h ****       /**
 783:/Library/DaisyToolchain/0.2.0/arm/arm-none-eabi/include/c++/10.3.1/bits/stl_vector.h ****        *  @brief  Assigns an initializer list to a %vector.
 784:/Library/DaisyToolchain/0.2.0/arm/arm-none-eabi/include/c++/10.3.1/bits/stl_vector.h ****        *  @param  __l  An initializer_list.
 785:/Library/DaisyToolchain/0.2.0/arm/arm-none-eabi/include/c++/10.3.1/bits/stl_vector.h ****        *
 786:/Library/DaisyToolchain/0.2.0/arm/arm-none-eabi/include/c++/10.3.1/bits/stl_vector.h ****        *  This function fills a %vector with copies of the elements in the
 787:/Library/DaisyToolchain/0.2.0/arm/arm-none-eabi/include/c++/10.3.1/bits/stl_vector.h ****        *  initializer list @a __l.
 788:/Library/DaisyToolchain/0.2.0/arm/arm-none-eabi/include/c++/10.3.1/bits/stl_vector.h ****        *
 789:/Library/DaisyToolchain/0.2.0/arm/arm-none-eabi/include/c++/10.3.1/bits/stl_vector.h ****        *  Note that the assignment completely changes the %vector and
 790:/Library/DaisyToolchain/0.2.0/arm/arm-none-eabi/include/c++/10.3.1/bits/stl_vector.h ****        *  that the resulting %vector's size is the same as the number
 791:/Library/DaisyToolchain/0.2.0/arm/arm-none-eabi/include/c++/10.3.1/bits/stl_vector.h ****        *  of elements assigned.
 792:/Library/DaisyToolchain/0.2.0/arm/arm-none-eabi/include/c++/10.3.1/bits/stl_vector.h ****        */
 793:/Library/DaisyToolchain/0.2.0/arm/arm-none-eabi/include/c++/10.3.1/bits/stl_vector.h ****       void
 794:/Library/DaisyToolchain/0.2.0/arm/arm-none-eabi/include/c++/10.3.1/bits/stl_vector.h ****       assign(initializer_list<value_type> __l)
 795:/Library/DaisyToolchain/0.2.0/arm/arm-none-eabi/include/c++/10.3.1/bits/stl_vector.h ****       {
 796:/Library/DaisyToolchain/0.2.0/arm/arm-none-eabi/include/c++/10.3.1/bits/stl_vector.h **** 	this->_M_assign_aux(__l.begin(), __l.end(),
 797:/Library/DaisyToolchain/0.2.0/arm/arm-none-eabi/include/c++/10.3.1/bits/stl_vector.h **** 			    random_access_iterator_tag());
 798:/Library/DaisyToolchain/0.2.0/arm/arm-none-eabi/include/c++/10.3.1/bits/stl_vector.h ****       }
 799:/Library/DaisyToolchain/0.2.0/arm/arm-none-eabi/include/c++/10.3.1/bits/stl_vector.h **** #endif
 800:/Library/DaisyToolchain/0.2.0/arm/arm-none-eabi/include/c++/10.3.1/bits/stl_vector.h **** 
 801:/Library/DaisyToolchain/0.2.0/arm/arm-none-eabi/include/c++/10.3.1/bits/stl_vector.h ****       /// Get a copy of the memory allocation object.
 802:/Library/DaisyToolchain/0.2.0/arm/arm-none-eabi/include/c++/10.3.1/bits/stl_vector.h ****       using _Base::get_allocator;
 803:/Library/DaisyToolchain/0.2.0/arm/arm-none-eabi/include/c++/10.3.1/bits/stl_vector.h **** 
 804:/Library/DaisyToolchain/0.2.0/arm/arm-none-eabi/include/c++/10.3.1/bits/stl_vector.h ****       // iterators
 805:/Library/DaisyToolchain/0.2.0/arm/arm-none-eabi/include/c++/10.3.1/bits/stl_vector.h ****       /**
 806:/Library/DaisyToolchain/0.2.0/arm/arm-none-eabi/include/c++/10.3.1/bits/stl_vector.h ****        *  Returns a read/write iterator that points to the first
 807:/Library/DaisyToolchain/0.2.0/arm/arm-none-eabi/include/c++/10.3.1/bits/stl_vector.h ****        *  element in the %vector.  Iteration is done in ordinary
 808:/Library/DaisyToolchain/0.2.0/arm/arm-none-eabi/include/c++/10.3.1/bits/stl_vector.h ****        *  element order.
 809:/Library/DaisyToolchain/0.2.0/arm/arm-none-eabi/include/c++/10.3.1/bits/stl_vector.h ****        */
 810:/Library/DaisyToolchain/0.2.0/arm/arm-none-eabi/include/c++/10.3.1/bits/stl_vector.h ****       iterator
 811:/Library/DaisyToolchain/0.2.0/arm/arm-none-eabi/include/c++/10.3.1/bits/stl_vector.h ****       begin() _GLIBCXX_NOEXCEPT
 812:/Library/DaisyToolchain/0.2.0/arm/arm-none-eabi/include/c++/10.3.1/bits/stl_vector.h ****       { return iterator(this->_M_impl._M_start); }
 813:/Library/DaisyToolchain/0.2.0/arm/arm-none-eabi/include/c++/10.3.1/bits/stl_vector.h **** 
 814:/Library/DaisyToolchain/0.2.0/arm/arm-none-eabi/include/c++/10.3.1/bits/stl_vector.h ****       /**
 815:/Library/DaisyToolchain/0.2.0/arm/arm-none-eabi/include/c++/10.3.1/bits/stl_vector.h ****        *  Returns a read-only (constant) iterator that points to the
 816:/Library/DaisyToolchain/0.2.0/arm/arm-none-eabi/include/c++/10.3.1/bits/stl_vector.h ****        *  first element in the %vector.  Iteration is done in ordinary
 817:/Library/DaisyToolchain/0.2.0/arm/arm-none-eabi/include/c++/10.3.1/bits/stl_vector.h ****        *  element order.
 818:/Library/DaisyToolchain/0.2.0/arm/arm-none-eabi/include/c++/10.3.1/bits/stl_vector.h ****        */
 819:/Library/DaisyToolchain/0.2.0/arm/arm-none-eabi/include/c++/10.3.1/bits/stl_vector.h ****       const_iterator
 820:/Library/DaisyToolchain/0.2.0/arm/arm-none-eabi/include/c++/10.3.1/bits/stl_vector.h ****       begin() const _GLIBCXX_NOEXCEPT
 821:/Library/DaisyToolchain/0.2.0/arm/arm-none-eabi/include/c++/10.3.1/bits/stl_vector.h ****       { return const_iterator(this->_M_impl._M_start); }
 822:/Library/DaisyToolchain/0.2.0/arm/arm-none-eabi/include/c++/10.3.1/bits/stl_vector.h **** 
 823:/Library/DaisyToolchain/0.2.0/arm/arm-none-eabi/include/c++/10.3.1/bits/stl_vector.h ****       /**
 824:/Library/DaisyToolchain/0.2.0/arm/arm-none-eabi/include/c++/10.3.1/bits/stl_vector.h ****        *  Returns a read/write iterator that points one past the last
 825:/Library/DaisyToolchain/0.2.0/arm/arm-none-eabi/include/c++/10.3.1/bits/stl_vector.h ****        *  element in the %vector.  Iteration is done in ordinary
 826:/Library/DaisyToolchain/0.2.0/arm/arm-none-eabi/include/c++/10.3.1/bits/stl_vector.h ****        *  element order.
 827:/Library/DaisyToolchain/0.2.0/arm/arm-none-eabi/include/c++/10.3.1/bits/stl_vector.h ****        */
 828:/Library/DaisyToolchain/0.2.0/arm/arm-none-eabi/include/c++/10.3.1/bits/stl_vector.h ****       iterator
 829:/Library/DaisyToolchain/0.2.0/arm/arm-none-eabi/include/c++/10.3.1/bits/stl_vector.h ****       end() _GLIBCXX_NOEXCEPT
 830:/Library/DaisyToolchain/0.2.0/arm/arm-none-eabi/include/c++/10.3.1/bits/stl_vector.h ****       { return iterator(this->_M_impl._M_finish); }
 831:/Library/DaisyToolchain/0.2.0/arm/arm-none-eabi/include/c++/10.3.1/bits/stl_vector.h **** 
 832:/Library/DaisyToolchain/0.2.0/arm/arm-none-eabi/include/c++/10.3.1/bits/stl_vector.h ****       /**
ARM GAS  /var/folders/wz/z09yph4n0qj4t7mjxhl6ttn80000gn/T//cc3KzP2n.s 			page 96


 833:/Library/DaisyToolchain/0.2.0/arm/arm-none-eabi/include/c++/10.3.1/bits/stl_vector.h ****        *  Returns a read-only (constant) iterator that points one past
 834:/Library/DaisyToolchain/0.2.0/arm/arm-none-eabi/include/c++/10.3.1/bits/stl_vector.h ****        *  the last element in the %vector.  Iteration is done in
 835:/Library/DaisyToolchain/0.2.0/arm/arm-none-eabi/include/c++/10.3.1/bits/stl_vector.h ****        *  ordinary element order.
 836:/Library/DaisyToolchain/0.2.0/arm/arm-none-eabi/include/c++/10.3.1/bits/stl_vector.h ****        */
 837:/Library/DaisyToolchain/0.2.0/arm/arm-none-eabi/include/c++/10.3.1/bits/stl_vector.h ****       const_iterator
 838:/Library/DaisyToolchain/0.2.0/arm/arm-none-eabi/include/c++/10.3.1/bits/stl_vector.h ****       end() const _GLIBCXX_NOEXCEPT
 839:/Library/DaisyToolchain/0.2.0/arm/arm-none-eabi/include/c++/10.3.1/bits/stl_vector.h ****       { return const_iterator(this->_M_impl._M_finish); }
 840:/Library/DaisyToolchain/0.2.0/arm/arm-none-eabi/include/c++/10.3.1/bits/stl_vector.h **** 
 841:/Library/DaisyToolchain/0.2.0/arm/arm-none-eabi/include/c++/10.3.1/bits/stl_vector.h ****       /**
 842:/Library/DaisyToolchain/0.2.0/arm/arm-none-eabi/include/c++/10.3.1/bits/stl_vector.h ****        *  Returns a read/write reverse iterator that points to the
 843:/Library/DaisyToolchain/0.2.0/arm/arm-none-eabi/include/c++/10.3.1/bits/stl_vector.h ****        *  last element in the %vector.  Iteration is done in reverse
 844:/Library/DaisyToolchain/0.2.0/arm/arm-none-eabi/include/c++/10.3.1/bits/stl_vector.h ****        *  element order.
 845:/Library/DaisyToolchain/0.2.0/arm/arm-none-eabi/include/c++/10.3.1/bits/stl_vector.h ****        */
 846:/Library/DaisyToolchain/0.2.0/arm/arm-none-eabi/include/c++/10.3.1/bits/stl_vector.h ****       reverse_iterator
 847:/Library/DaisyToolchain/0.2.0/arm/arm-none-eabi/include/c++/10.3.1/bits/stl_vector.h ****       rbegin() _GLIBCXX_NOEXCEPT
 848:/Library/DaisyToolchain/0.2.0/arm/arm-none-eabi/include/c++/10.3.1/bits/stl_vector.h ****       { return reverse_iterator(end()); }
 849:/Library/DaisyToolchain/0.2.0/arm/arm-none-eabi/include/c++/10.3.1/bits/stl_vector.h **** 
 850:/Library/DaisyToolchain/0.2.0/arm/arm-none-eabi/include/c++/10.3.1/bits/stl_vector.h ****       /**
 851:/Library/DaisyToolchain/0.2.0/arm/arm-none-eabi/include/c++/10.3.1/bits/stl_vector.h ****        *  Returns a read-only (constant) reverse iterator that points
 852:/Library/DaisyToolchain/0.2.0/arm/arm-none-eabi/include/c++/10.3.1/bits/stl_vector.h ****        *  to the last element in the %vector.  Iteration is done in
 853:/Library/DaisyToolchain/0.2.0/arm/arm-none-eabi/include/c++/10.3.1/bits/stl_vector.h ****        *  reverse element order.
 854:/Library/DaisyToolchain/0.2.0/arm/arm-none-eabi/include/c++/10.3.1/bits/stl_vector.h ****        */
 855:/Library/DaisyToolchain/0.2.0/arm/arm-none-eabi/include/c++/10.3.1/bits/stl_vector.h ****       const_reverse_iterator
 856:/Library/DaisyToolchain/0.2.0/arm/arm-none-eabi/include/c++/10.3.1/bits/stl_vector.h ****       rbegin() const _GLIBCXX_NOEXCEPT
 857:/Library/DaisyToolchain/0.2.0/arm/arm-none-eabi/include/c++/10.3.1/bits/stl_vector.h ****       { return const_reverse_iterator(end()); }
 858:/Library/DaisyToolchain/0.2.0/arm/arm-none-eabi/include/c++/10.3.1/bits/stl_vector.h **** 
 859:/Library/DaisyToolchain/0.2.0/arm/arm-none-eabi/include/c++/10.3.1/bits/stl_vector.h ****       /**
 860:/Library/DaisyToolchain/0.2.0/arm/arm-none-eabi/include/c++/10.3.1/bits/stl_vector.h ****        *  Returns a read/write reverse iterator that points to one
 861:/Library/DaisyToolchain/0.2.0/arm/arm-none-eabi/include/c++/10.3.1/bits/stl_vector.h ****        *  before the first element in the %vector.  Iteration is done
 862:/Library/DaisyToolchain/0.2.0/arm/arm-none-eabi/include/c++/10.3.1/bits/stl_vector.h ****        *  in reverse element order.
 863:/Library/DaisyToolchain/0.2.0/arm/arm-none-eabi/include/c++/10.3.1/bits/stl_vector.h ****        */
 864:/Library/DaisyToolchain/0.2.0/arm/arm-none-eabi/include/c++/10.3.1/bits/stl_vector.h ****       reverse_iterator
 865:/Library/DaisyToolchain/0.2.0/arm/arm-none-eabi/include/c++/10.3.1/bits/stl_vector.h ****       rend() _GLIBCXX_NOEXCEPT
 866:/Library/DaisyToolchain/0.2.0/arm/arm-none-eabi/include/c++/10.3.1/bits/stl_vector.h ****       { return reverse_iterator(begin()); }
 867:/Library/DaisyToolchain/0.2.0/arm/arm-none-eabi/include/c++/10.3.1/bits/stl_vector.h **** 
 868:/Library/DaisyToolchain/0.2.0/arm/arm-none-eabi/include/c++/10.3.1/bits/stl_vector.h ****       /**
 869:/Library/DaisyToolchain/0.2.0/arm/arm-none-eabi/include/c++/10.3.1/bits/stl_vector.h ****        *  Returns a read-only (constant) reverse iterator that points
 870:/Library/DaisyToolchain/0.2.0/arm/arm-none-eabi/include/c++/10.3.1/bits/stl_vector.h ****        *  to one before the first element in the %vector.  Iteration
 871:/Library/DaisyToolchain/0.2.0/arm/arm-none-eabi/include/c++/10.3.1/bits/stl_vector.h ****        *  is done in reverse element order.
 872:/Library/DaisyToolchain/0.2.0/arm/arm-none-eabi/include/c++/10.3.1/bits/stl_vector.h ****        */
 873:/Library/DaisyToolchain/0.2.0/arm/arm-none-eabi/include/c++/10.3.1/bits/stl_vector.h ****       const_reverse_iterator
 874:/Library/DaisyToolchain/0.2.0/arm/arm-none-eabi/include/c++/10.3.1/bits/stl_vector.h ****       rend() const _GLIBCXX_NOEXCEPT
 875:/Library/DaisyToolchain/0.2.0/arm/arm-none-eabi/include/c++/10.3.1/bits/stl_vector.h ****       { return const_reverse_iterator(begin()); }
 876:/Library/DaisyToolchain/0.2.0/arm/arm-none-eabi/include/c++/10.3.1/bits/stl_vector.h **** 
 877:/Library/DaisyToolchain/0.2.0/arm/arm-none-eabi/include/c++/10.3.1/bits/stl_vector.h **** #if __cplusplus >= 201103L
 878:/Library/DaisyToolchain/0.2.0/arm/arm-none-eabi/include/c++/10.3.1/bits/stl_vector.h ****       /**
 879:/Library/DaisyToolchain/0.2.0/arm/arm-none-eabi/include/c++/10.3.1/bits/stl_vector.h ****        *  Returns a read-only (constant) iterator that points to the
 880:/Library/DaisyToolchain/0.2.0/arm/arm-none-eabi/include/c++/10.3.1/bits/stl_vector.h ****        *  first element in the %vector.  Iteration is done in ordinary
 881:/Library/DaisyToolchain/0.2.0/arm/arm-none-eabi/include/c++/10.3.1/bits/stl_vector.h ****        *  element order.
 882:/Library/DaisyToolchain/0.2.0/arm/arm-none-eabi/include/c++/10.3.1/bits/stl_vector.h ****        */
 883:/Library/DaisyToolchain/0.2.0/arm/arm-none-eabi/include/c++/10.3.1/bits/stl_vector.h ****       const_iterator
 884:/Library/DaisyToolchain/0.2.0/arm/arm-none-eabi/include/c++/10.3.1/bits/stl_vector.h ****       cbegin() const noexcept
 885:/Library/DaisyToolchain/0.2.0/arm/arm-none-eabi/include/c++/10.3.1/bits/stl_vector.h ****       { return const_iterator(this->_M_impl._M_start); }
 886:/Library/DaisyToolchain/0.2.0/arm/arm-none-eabi/include/c++/10.3.1/bits/stl_vector.h **** 
 887:/Library/DaisyToolchain/0.2.0/arm/arm-none-eabi/include/c++/10.3.1/bits/stl_vector.h ****       /**
 888:/Library/DaisyToolchain/0.2.0/arm/arm-none-eabi/include/c++/10.3.1/bits/stl_vector.h ****        *  Returns a read-only (constant) iterator that points one past
 889:/Library/DaisyToolchain/0.2.0/arm/arm-none-eabi/include/c++/10.3.1/bits/stl_vector.h ****        *  the last element in the %vector.  Iteration is done in
ARM GAS  /var/folders/wz/z09yph4n0qj4t7mjxhl6ttn80000gn/T//cc3KzP2n.s 			page 97


 890:/Library/DaisyToolchain/0.2.0/arm/arm-none-eabi/include/c++/10.3.1/bits/stl_vector.h ****        *  ordinary element order.
 891:/Library/DaisyToolchain/0.2.0/arm/arm-none-eabi/include/c++/10.3.1/bits/stl_vector.h ****        */
 892:/Library/DaisyToolchain/0.2.0/arm/arm-none-eabi/include/c++/10.3.1/bits/stl_vector.h ****       const_iterator
 893:/Library/DaisyToolchain/0.2.0/arm/arm-none-eabi/include/c++/10.3.1/bits/stl_vector.h ****       cend() const noexcept
 894:/Library/DaisyToolchain/0.2.0/arm/arm-none-eabi/include/c++/10.3.1/bits/stl_vector.h ****       { return const_iterator(this->_M_impl._M_finish); }
 895:/Library/DaisyToolchain/0.2.0/arm/arm-none-eabi/include/c++/10.3.1/bits/stl_vector.h **** 
 896:/Library/DaisyToolchain/0.2.0/arm/arm-none-eabi/include/c++/10.3.1/bits/stl_vector.h ****       /**
 897:/Library/DaisyToolchain/0.2.0/arm/arm-none-eabi/include/c++/10.3.1/bits/stl_vector.h ****        *  Returns a read-only (constant) reverse iterator that points
 898:/Library/DaisyToolchain/0.2.0/arm/arm-none-eabi/include/c++/10.3.1/bits/stl_vector.h ****        *  to the last element in the %vector.  Iteration is done in
 899:/Library/DaisyToolchain/0.2.0/arm/arm-none-eabi/include/c++/10.3.1/bits/stl_vector.h ****        *  reverse element order.
 900:/Library/DaisyToolchain/0.2.0/arm/arm-none-eabi/include/c++/10.3.1/bits/stl_vector.h ****        */
 901:/Library/DaisyToolchain/0.2.0/arm/arm-none-eabi/include/c++/10.3.1/bits/stl_vector.h ****       const_reverse_iterator
 902:/Library/DaisyToolchain/0.2.0/arm/arm-none-eabi/include/c++/10.3.1/bits/stl_vector.h ****       crbegin() const noexcept
 903:/Library/DaisyToolchain/0.2.0/arm/arm-none-eabi/include/c++/10.3.1/bits/stl_vector.h ****       { return const_reverse_iterator(end()); }
 904:/Library/DaisyToolchain/0.2.0/arm/arm-none-eabi/include/c++/10.3.1/bits/stl_vector.h **** 
 905:/Library/DaisyToolchain/0.2.0/arm/arm-none-eabi/include/c++/10.3.1/bits/stl_vector.h ****       /**
 906:/Library/DaisyToolchain/0.2.0/arm/arm-none-eabi/include/c++/10.3.1/bits/stl_vector.h ****        *  Returns a read-only (constant) reverse iterator that points
 907:/Library/DaisyToolchain/0.2.0/arm/arm-none-eabi/include/c++/10.3.1/bits/stl_vector.h ****        *  to one before the first element in the %vector.  Iteration
 908:/Library/DaisyToolchain/0.2.0/arm/arm-none-eabi/include/c++/10.3.1/bits/stl_vector.h ****        *  is done in reverse element order.
 909:/Library/DaisyToolchain/0.2.0/arm/arm-none-eabi/include/c++/10.3.1/bits/stl_vector.h ****        */
 910:/Library/DaisyToolchain/0.2.0/arm/arm-none-eabi/include/c++/10.3.1/bits/stl_vector.h ****       const_reverse_iterator
 911:/Library/DaisyToolchain/0.2.0/arm/arm-none-eabi/include/c++/10.3.1/bits/stl_vector.h ****       crend() const noexcept
 912:/Library/DaisyToolchain/0.2.0/arm/arm-none-eabi/include/c++/10.3.1/bits/stl_vector.h ****       { return const_reverse_iterator(begin()); }
 913:/Library/DaisyToolchain/0.2.0/arm/arm-none-eabi/include/c++/10.3.1/bits/stl_vector.h **** #endif
 914:/Library/DaisyToolchain/0.2.0/arm/arm-none-eabi/include/c++/10.3.1/bits/stl_vector.h **** 
 915:/Library/DaisyToolchain/0.2.0/arm/arm-none-eabi/include/c++/10.3.1/bits/stl_vector.h ****       // [23.2.4.2] capacity
 916:/Library/DaisyToolchain/0.2.0/arm/arm-none-eabi/include/c++/10.3.1/bits/stl_vector.h ****       /**  Returns the number of elements in the %vector.  */
 917:/Library/DaisyToolchain/0.2.0/arm/arm-none-eabi/include/c++/10.3.1/bits/stl_vector.h ****       size_type
 918:/Library/DaisyToolchain/0.2.0/arm/arm-none-eabi/include/c++/10.3.1/bits/stl_vector.h ****       size() const _GLIBCXX_NOEXCEPT
 919:/Library/DaisyToolchain/0.2.0/arm/arm-none-eabi/include/c++/10.3.1/bits/stl_vector.h ****       { return size_type(this->_M_impl._M_finish - this->_M_impl._M_start); }
 920:/Library/DaisyToolchain/0.2.0/arm/arm-none-eabi/include/c++/10.3.1/bits/stl_vector.h **** 
 921:/Library/DaisyToolchain/0.2.0/arm/arm-none-eabi/include/c++/10.3.1/bits/stl_vector.h ****       /**  Returns the size() of the largest possible %vector.  */
 922:/Library/DaisyToolchain/0.2.0/arm/arm-none-eabi/include/c++/10.3.1/bits/stl_vector.h ****       size_type
 923:/Library/DaisyToolchain/0.2.0/arm/arm-none-eabi/include/c++/10.3.1/bits/stl_vector.h ****       max_size() const _GLIBCXX_NOEXCEPT
 924:/Library/DaisyToolchain/0.2.0/arm/arm-none-eabi/include/c++/10.3.1/bits/stl_vector.h ****       { return _S_max_size(_M_get_Tp_allocator()); }
 925:/Library/DaisyToolchain/0.2.0/arm/arm-none-eabi/include/c++/10.3.1/bits/stl_vector.h **** 
 926:/Library/DaisyToolchain/0.2.0/arm/arm-none-eabi/include/c++/10.3.1/bits/stl_vector.h **** #if __cplusplus >= 201103L
 927:/Library/DaisyToolchain/0.2.0/arm/arm-none-eabi/include/c++/10.3.1/bits/stl_vector.h ****       /**
 928:/Library/DaisyToolchain/0.2.0/arm/arm-none-eabi/include/c++/10.3.1/bits/stl_vector.h ****        *  @brief  Resizes the %vector to the specified number of elements.
 929:/Library/DaisyToolchain/0.2.0/arm/arm-none-eabi/include/c++/10.3.1/bits/stl_vector.h ****        *  @param  __new_size  Number of elements the %vector should contain.
 930:/Library/DaisyToolchain/0.2.0/arm/arm-none-eabi/include/c++/10.3.1/bits/stl_vector.h ****        *
 931:/Library/DaisyToolchain/0.2.0/arm/arm-none-eabi/include/c++/10.3.1/bits/stl_vector.h ****        *  This function will %resize the %vector to the specified
 932:/Library/DaisyToolchain/0.2.0/arm/arm-none-eabi/include/c++/10.3.1/bits/stl_vector.h ****        *  number of elements.  If the number is smaller than the
 933:/Library/DaisyToolchain/0.2.0/arm/arm-none-eabi/include/c++/10.3.1/bits/stl_vector.h ****        *  %vector's current size the %vector is truncated, otherwise
 934:/Library/DaisyToolchain/0.2.0/arm/arm-none-eabi/include/c++/10.3.1/bits/stl_vector.h ****        *  default constructed elements are appended.
 935:/Library/DaisyToolchain/0.2.0/arm/arm-none-eabi/include/c++/10.3.1/bits/stl_vector.h ****        */
 936:/Library/DaisyToolchain/0.2.0/arm/arm-none-eabi/include/c++/10.3.1/bits/stl_vector.h ****       void
 937:/Library/DaisyToolchain/0.2.0/arm/arm-none-eabi/include/c++/10.3.1/bits/stl_vector.h ****       resize(size_type __new_size)
 938:/Library/DaisyToolchain/0.2.0/arm/arm-none-eabi/include/c++/10.3.1/bits/stl_vector.h ****       {
 939:/Library/DaisyToolchain/0.2.0/arm/arm-none-eabi/include/c++/10.3.1/bits/stl_vector.h **** 	if (__new_size > size())
 940:/Library/DaisyToolchain/0.2.0/arm/arm-none-eabi/include/c++/10.3.1/bits/stl_vector.h **** 	  _M_default_append(__new_size - size());
 941:/Library/DaisyToolchain/0.2.0/arm/arm-none-eabi/include/c++/10.3.1/bits/stl_vector.h **** 	else if (__new_size < size())
 942:/Library/DaisyToolchain/0.2.0/arm/arm-none-eabi/include/c++/10.3.1/bits/stl_vector.h **** 	  _M_erase_at_end(this->_M_impl._M_start + __new_size);
 943:/Library/DaisyToolchain/0.2.0/arm/arm-none-eabi/include/c++/10.3.1/bits/stl_vector.h ****       }
 944:/Library/DaisyToolchain/0.2.0/arm/arm-none-eabi/include/c++/10.3.1/bits/stl_vector.h **** 
 945:/Library/DaisyToolchain/0.2.0/arm/arm-none-eabi/include/c++/10.3.1/bits/stl_vector.h ****       /**
 946:/Library/DaisyToolchain/0.2.0/arm/arm-none-eabi/include/c++/10.3.1/bits/stl_vector.h ****        *  @brief  Resizes the %vector to the specified number of elements.
ARM GAS  /var/folders/wz/z09yph4n0qj4t7mjxhl6ttn80000gn/T//cc3KzP2n.s 			page 98


 947:/Library/DaisyToolchain/0.2.0/arm/arm-none-eabi/include/c++/10.3.1/bits/stl_vector.h ****        *  @param  __new_size  Number of elements the %vector should contain.
 948:/Library/DaisyToolchain/0.2.0/arm/arm-none-eabi/include/c++/10.3.1/bits/stl_vector.h ****        *  @param  __x  Data with which new elements should be populated.
 949:/Library/DaisyToolchain/0.2.0/arm/arm-none-eabi/include/c++/10.3.1/bits/stl_vector.h ****        *
 950:/Library/DaisyToolchain/0.2.0/arm/arm-none-eabi/include/c++/10.3.1/bits/stl_vector.h ****        *  This function will %resize the %vector to the specified
 951:/Library/DaisyToolchain/0.2.0/arm/arm-none-eabi/include/c++/10.3.1/bits/stl_vector.h ****        *  number of elements.  If the number is smaller than the
 952:/Library/DaisyToolchain/0.2.0/arm/arm-none-eabi/include/c++/10.3.1/bits/stl_vector.h ****        *  %vector's current size the %vector is truncated, otherwise
 953:/Library/DaisyToolchain/0.2.0/arm/arm-none-eabi/include/c++/10.3.1/bits/stl_vector.h ****        *  the %vector is extended and new elements are populated with
 954:/Library/DaisyToolchain/0.2.0/arm/arm-none-eabi/include/c++/10.3.1/bits/stl_vector.h ****        *  given data.
 955:/Library/DaisyToolchain/0.2.0/arm/arm-none-eabi/include/c++/10.3.1/bits/stl_vector.h ****        */
 956:/Library/DaisyToolchain/0.2.0/arm/arm-none-eabi/include/c++/10.3.1/bits/stl_vector.h ****       void
 957:/Library/DaisyToolchain/0.2.0/arm/arm-none-eabi/include/c++/10.3.1/bits/stl_vector.h ****       resize(size_type __new_size, const value_type& __x)
 958:/Library/DaisyToolchain/0.2.0/arm/arm-none-eabi/include/c++/10.3.1/bits/stl_vector.h ****       {
 959:/Library/DaisyToolchain/0.2.0/arm/arm-none-eabi/include/c++/10.3.1/bits/stl_vector.h **** 	if (__new_size > size())
 960:/Library/DaisyToolchain/0.2.0/arm/arm-none-eabi/include/c++/10.3.1/bits/stl_vector.h **** 	  _M_fill_insert(end(), __new_size - size(), __x);
 961:/Library/DaisyToolchain/0.2.0/arm/arm-none-eabi/include/c++/10.3.1/bits/stl_vector.h **** 	else if (__new_size < size())
 962:/Library/DaisyToolchain/0.2.0/arm/arm-none-eabi/include/c++/10.3.1/bits/stl_vector.h **** 	  _M_erase_at_end(this->_M_impl._M_start + __new_size);
 963:/Library/DaisyToolchain/0.2.0/arm/arm-none-eabi/include/c++/10.3.1/bits/stl_vector.h ****       }
 964:/Library/DaisyToolchain/0.2.0/arm/arm-none-eabi/include/c++/10.3.1/bits/stl_vector.h **** #else
 965:/Library/DaisyToolchain/0.2.0/arm/arm-none-eabi/include/c++/10.3.1/bits/stl_vector.h ****       /**
 966:/Library/DaisyToolchain/0.2.0/arm/arm-none-eabi/include/c++/10.3.1/bits/stl_vector.h ****        *  @brief  Resizes the %vector to the specified number of elements.
 967:/Library/DaisyToolchain/0.2.0/arm/arm-none-eabi/include/c++/10.3.1/bits/stl_vector.h ****        *  @param  __new_size  Number of elements the %vector should contain.
 968:/Library/DaisyToolchain/0.2.0/arm/arm-none-eabi/include/c++/10.3.1/bits/stl_vector.h ****        *  @param  __x  Data with which new elements should be populated.
 969:/Library/DaisyToolchain/0.2.0/arm/arm-none-eabi/include/c++/10.3.1/bits/stl_vector.h ****        *
 970:/Library/DaisyToolchain/0.2.0/arm/arm-none-eabi/include/c++/10.3.1/bits/stl_vector.h ****        *  This function will %resize the %vector to the specified
 971:/Library/DaisyToolchain/0.2.0/arm/arm-none-eabi/include/c++/10.3.1/bits/stl_vector.h ****        *  number of elements.  If the number is smaller than the
 972:/Library/DaisyToolchain/0.2.0/arm/arm-none-eabi/include/c++/10.3.1/bits/stl_vector.h ****        *  %vector's current size the %vector is truncated, otherwise
 973:/Library/DaisyToolchain/0.2.0/arm/arm-none-eabi/include/c++/10.3.1/bits/stl_vector.h ****        *  the %vector is extended and new elements are populated with
 974:/Library/DaisyToolchain/0.2.0/arm/arm-none-eabi/include/c++/10.3.1/bits/stl_vector.h ****        *  given data.
 975:/Library/DaisyToolchain/0.2.0/arm/arm-none-eabi/include/c++/10.3.1/bits/stl_vector.h ****        */
 976:/Library/DaisyToolchain/0.2.0/arm/arm-none-eabi/include/c++/10.3.1/bits/stl_vector.h ****       void
 977:/Library/DaisyToolchain/0.2.0/arm/arm-none-eabi/include/c++/10.3.1/bits/stl_vector.h ****       resize(size_type __new_size, value_type __x = value_type())
 978:/Library/DaisyToolchain/0.2.0/arm/arm-none-eabi/include/c++/10.3.1/bits/stl_vector.h ****       {
 979:/Library/DaisyToolchain/0.2.0/arm/arm-none-eabi/include/c++/10.3.1/bits/stl_vector.h **** 	if (__new_size > size())
 980:/Library/DaisyToolchain/0.2.0/arm/arm-none-eabi/include/c++/10.3.1/bits/stl_vector.h **** 	  _M_fill_insert(end(), __new_size - size(), __x);
 981:/Library/DaisyToolchain/0.2.0/arm/arm-none-eabi/include/c++/10.3.1/bits/stl_vector.h **** 	else if (__new_size < size())
 982:/Library/DaisyToolchain/0.2.0/arm/arm-none-eabi/include/c++/10.3.1/bits/stl_vector.h **** 	  _M_erase_at_end(this->_M_impl._M_start + __new_size);
 983:/Library/DaisyToolchain/0.2.0/arm/arm-none-eabi/include/c++/10.3.1/bits/stl_vector.h ****       }
 984:/Library/DaisyToolchain/0.2.0/arm/arm-none-eabi/include/c++/10.3.1/bits/stl_vector.h **** #endif
 985:/Library/DaisyToolchain/0.2.0/arm/arm-none-eabi/include/c++/10.3.1/bits/stl_vector.h **** 
 986:/Library/DaisyToolchain/0.2.0/arm/arm-none-eabi/include/c++/10.3.1/bits/stl_vector.h **** #if __cplusplus >= 201103L
 987:/Library/DaisyToolchain/0.2.0/arm/arm-none-eabi/include/c++/10.3.1/bits/stl_vector.h ****       /**  A non-binding request to reduce capacity() to size().  */
 988:/Library/DaisyToolchain/0.2.0/arm/arm-none-eabi/include/c++/10.3.1/bits/stl_vector.h ****       void
 989:/Library/DaisyToolchain/0.2.0/arm/arm-none-eabi/include/c++/10.3.1/bits/stl_vector.h ****       shrink_to_fit()
 990:/Library/DaisyToolchain/0.2.0/arm/arm-none-eabi/include/c++/10.3.1/bits/stl_vector.h ****       { _M_shrink_to_fit(); }
 991:/Library/DaisyToolchain/0.2.0/arm/arm-none-eabi/include/c++/10.3.1/bits/stl_vector.h **** #endif
 992:/Library/DaisyToolchain/0.2.0/arm/arm-none-eabi/include/c++/10.3.1/bits/stl_vector.h **** 
 993:/Library/DaisyToolchain/0.2.0/arm/arm-none-eabi/include/c++/10.3.1/bits/stl_vector.h ****       /**
 994:/Library/DaisyToolchain/0.2.0/arm/arm-none-eabi/include/c++/10.3.1/bits/stl_vector.h ****        *  Returns the total number of elements that the %vector can
 995:/Library/DaisyToolchain/0.2.0/arm/arm-none-eabi/include/c++/10.3.1/bits/stl_vector.h ****        *  hold before needing to allocate more memory.
 996:/Library/DaisyToolchain/0.2.0/arm/arm-none-eabi/include/c++/10.3.1/bits/stl_vector.h ****        */
 997:/Library/DaisyToolchain/0.2.0/arm/arm-none-eabi/include/c++/10.3.1/bits/stl_vector.h ****       size_type
 998:/Library/DaisyToolchain/0.2.0/arm/arm-none-eabi/include/c++/10.3.1/bits/stl_vector.h ****       capacity() const _GLIBCXX_NOEXCEPT
 999:/Library/DaisyToolchain/0.2.0/arm/arm-none-eabi/include/c++/10.3.1/bits/stl_vector.h ****       { return size_type(this->_M_impl._M_end_of_storage
1000:/Library/DaisyToolchain/0.2.0/arm/arm-none-eabi/include/c++/10.3.1/bits/stl_vector.h **** 			 - this->_M_impl._M_start); }
1001:/Library/DaisyToolchain/0.2.0/arm/arm-none-eabi/include/c++/10.3.1/bits/stl_vector.h **** 
1002:/Library/DaisyToolchain/0.2.0/arm/arm-none-eabi/include/c++/10.3.1/bits/stl_vector.h ****       /**
1003:/Library/DaisyToolchain/0.2.0/arm/arm-none-eabi/include/c++/10.3.1/bits/stl_vector.h ****        *  Returns true if the %vector is empty.  (Thus begin() would
ARM GAS  /var/folders/wz/z09yph4n0qj4t7mjxhl6ttn80000gn/T//cc3KzP2n.s 			page 99


1004:/Library/DaisyToolchain/0.2.0/arm/arm-none-eabi/include/c++/10.3.1/bits/stl_vector.h ****        *  equal end().)
1005:/Library/DaisyToolchain/0.2.0/arm/arm-none-eabi/include/c++/10.3.1/bits/stl_vector.h ****        */
1006:/Library/DaisyToolchain/0.2.0/arm/arm-none-eabi/include/c++/10.3.1/bits/stl_vector.h ****       _GLIBCXX_NODISCARD bool
1007:/Library/DaisyToolchain/0.2.0/arm/arm-none-eabi/include/c++/10.3.1/bits/stl_vector.h ****       empty() const _GLIBCXX_NOEXCEPT
1008:/Library/DaisyToolchain/0.2.0/arm/arm-none-eabi/include/c++/10.3.1/bits/stl_vector.h ****       { return begin() == end(); }
1009:/Library/DaisyToolchain/0.2.0/arm/arm-none-eabi/include/c++/10.3.1/bits/stl_vector.h **** 
1010:/Library/DaisyToolchain/0.2.0/arm/arm-none-eabi/include/c++/10.3.1/bits/stl_vector.h ****       /**
1011:/Library/DaisyToolchain/0.2.0/arm/arm-none-eabi/include/c++/10.3.1/bits/stl_vector.h ****        *  @brief  Attempt to preallocate enough memory for specified number of
1012:/Library/DaisyToolchain/0.2.0/arm/arm-none-eabi/include/c++/10.3.1/bits/stl_vector.h ****        *          elements.
1013:/Library/DaisyToolchain/0.2.0/arm/arm-none-eabi/include/c++/10.3.1/bits/stl_vector.h ****        *  @param  __n  Number of elements required.
1014:/Library/DaisyToolchain/0.2.0/arm/arm-none-eabi/include/c++/10.3.1/bits/stl_vector.h ****        *  @throw  std::length_error  If @a n exceeds @c max_size().
1015:/Library/DaisyToolchain/0.2.0/arm/arm-none-eabi/include/c++/10.3.1/bits/stl_vector.h ****        *
1016:/Library/DaisyToolchain/0.2.0/arm/arm-none-eabi/include/c++/10.3.1/bits/stl_vector.h ****        *  This function attempts to reserve enough memory for the
1017:/Library/DaisyToolchain/0.2.0/arm/arm-none-eabi/include/c++/10.3.1/bits/stl_vector.h ****        *  %vector to hold the specified number of elements.  If the
1018:/Library/DaisyToolchain/0.2.0/arm/arm-none-eabi/include/c++/10.3.1/bits/stl_vector.h ****        *  number requested is more than max_size(), length_error is
1019:/Library/DaisyToolchain/0.2.0/arm/arm-none-eabi/include/c++/10.3.1/bits/stl_vector.h ****        *  thrown.
1020:/Library/DaisyToolchain/0.2.0/arm/arm-none-eabi/include/c++/10.3.1/bits/stl_vector.h ****        *
1021:/Library/DaisyToolchain/0.2.0/arm/arm-none-eabi/include/c++/10.3.1/bits/stl_vector.h ****        *  The advantage of this function is that if optimal code is a
1022:/Library/DaisyToolchain/0.2.0/arm/arm-none-eabi/include/c++/10.3.1/bits/stl_vector.h ****        *  necessity and the user can determine the number of elements
1023:/Library/DaisyToolchain/0.2.0/arm/arm-none-eabi/include/c++/10.3.1/bits/stl_vector.h ****        *  that will be required, the user can reserve the memory in
1024:/Library/DaisyToolchain/0.2.0/arm/arm-none-eabi/include/c++/10.3.1/bits/stl_vector.h ****        *  %advance, and thus prevent a possible reallocation of memory
1025:/Library/DaisyToolchain/0.2.0/arm/arm-none-eabi/include/c++/10.3.1/bits/stl_vector.h ****        *  and copying of %vector data.
1026:/Library/DaisyToolchain/0.2.0/arm/arm-none-eabi/include/c++/10.3.1/bits/stl_vector.h ****        */
1027:/Library/DaisyToolchain/0.2.0/arm/arm-none-eabi/include/c++/10.3.1/bits/stl_vector.h ****       void
1028:/Library/DaisyToolchain/0.2.0/arm/arm-none-eabi/include/c++/10.3.1/bits/stl_vector.h ****       reserve(size_type __n);
1029:/Library/DaisyToolchain/0.2.0/arm/arm-none-eabi/include/c++/10.3.1/bits/stl_vector.h **** 
1030:/Library/DaisyToolchain/0.2.0/arm/arm-none-eabi/include/c++/10.3.1/bits/stl_vector.h ****       // element access
1031:/Library/DaisyToolchain/0.2.0/arm/arm-none-eabi/include/c++/10.3.1/bits/stl_vector.h ****       /**
1032:/Library/DaisyToolchain/0.2.0/arm/arm-none-eabi/include/c++/10.3.1/bits/stl_vector.h ****        *  @brief  Subscript access to the data contained in the %vector.
1033:/Library/DaisyToolchain/0.2.0/arm/arm-none-eabi/include/c++/10.3.1/bits/stl_vector.h ****        *  @param __n The index of the element for which data should be
1034:/Library/DaisyToolchain/0.2.0/arm/arm-none-eabi/include/c++/10.3.1/bits/stl_vector.h ****        *  accessed.
1035:/Library/DaisyToolchain/0.2.0/arm/arm-none-eabi/include/c++/10.3.1/bits/stl_vector.h ****        *  @return  Read/write reference to data.
1036:/Library/DaisyToolchain/0.2.0/arm/arm-none-eabi/include/c++/10.3.1/bits/stl_vector.h ****        *
1037:/Library/DaisyToolchain/0.2.0/arm/arm-none-eabi/include/c++/10.3.1/bits/stl_vector.h ****        *  This operator allows for easy, array-style, data access.
1038:/Library/DaisyToolchain/0.2.0/arm/arm-none-eabi/include/c++/10.3.1/bits/stl_vector.h ****        *  Note that data access with this operator is unchecked and
1039:/Library/DaisyToolchain/0.2.0/arm/arm-none-eabi/include/c++/10.3.1/bits/stl_vector.h ****        *  out_of_range lookups are not defined. (For checked lookups
1040:/Library/DaisyToolchain/0.2.0/arm/arm-none-eabi/include/c++/10.3.1/bits/stl_vector.h ****        *  see at().)
1041:/Library/DaisyToolchain/0.2.0/arm/arm-none-eabi/include/c++/10.3.1/bits/stl_vector.h ****        */
1042:/Library/DaisyToolchain/0.2.0/arm/arm-none-eabi/include/c++/10.3.1/bits/stl_vector.h ****       reference
1043:/Library/DaisyToolchain/0.2.0/arm/arm-none-eabi/include/c++/10.3.1/bits/stl_vector.h ****       operator[](size_type __n) _GLIBCXX_NOEXCEPT
1044:/Library/DaisyToolchain/0.2.0/arm/arm-none-eabi/include/c++/10.3.1/bits/stl_vector.h ****       {
1045:/Library/DaisyToolchain/0.2.0/arm/arm-none-eabi/include/c++/10.3.1/bits/stl_vector.h **** 	__glibcxx_requires_subscript(__n);
1046:/Library/DaisyToolchain/0.2.0/arm/arm-none-eabi/include/c++/10.3.1/bits/stl_vector.h **** 	return *(this->_M_impl._M_start + __n);
1047:/Library/DaisyToolchain/0.2.0/arm/arm-none-eabi/include/c++/10.3.1/bits/stl_vector.h ****       }
1048:/Library/DaisyToolchain/0.2.0/arm/arm-none-eabi/include/c++/10.3.1/bits/stl_vector.h **** 
1049:/Library/DaisyToolchain/0.2.0/arm/arm-none-eabi/include/c++/10.3.1/bits/stl_vector.h ****       /**
1050:/Library/DaisyToolchain/0.2.0/arm/arm-none-eabi/include/c++/10.3.1/bits/stl_vector.h ****        *  @brief  Subscript access to the data contained in the %vector.
1051:/Library/DaisyToolchain/0.2.0/arm/arm-none-eabi/include/c++/10.3.1/bits/stl_vector.h ****        *  @param __n The index of the element for which data should be
1052:/Library/DaisyToolchain/0.2.0/arm/arm-none-eabi/include/c++/10.3.1/bits/stl_vector.h ****        *  accessed.
1053:/Library/DaisyToolchain/0.2.0/arm/arm-none-eabi/include/c++/10.3.1/bits/stl_vector.h ****        *  @return  Read-only (constant) reference to data.
1054:/Library/DaisyToolchain/0.2.0/arm/arm-none-eabi/include/c++/10.3.1/bits/stl_vector.h ****        *
1055:/Library/DaisyToolchain/0.2.0/arm/arm-none-eabi/include/c++/10.3.1/bits/stl_vector.h ****        *  This operator allows for easy, array-style, data access.
1056:/Library/DaisyToolchain/0.2.0/arm/arm-none-eabi/include/c++/10.3.1/bits/stl_vector.h ****        *  Note that data access with this operator is unchecked and
1057:/Library/DaisyToolchain/0.2.0/arm/arm-none-eabi/include/c++/10.3.1/bits/stl_vector.h ****        *  out_of_range lookups are not defined. (For checked lookups
1058:/Library/DaisyToolchain/0.2.0/arm/arm-none-eabi/include/c++/10.3.1/bits/stl_vector.h ****        *  see at().)
1059:/Library/DaisyToolchain/0.2.0/arm/arm-none-eabi/include/c++/10.3.1/bits/stl_vector.h ****        */
1060:/Library/DaisyToolchain/0.2.0/arm/arm-none-eabi/include/c++/10.3.1/bits/stl_vector.h ****       const_reference
ARM GAS  /var/folders/wz/z09yph4n0qj4t7mjxhl6ttn80000gn/T//cc3KzP2n.s 			page 100


1061:/Library/DaisyToolchain/0.2.0/arm/arm-none-eabi/include/c++/10.3.1/bits/stl_vector.h ****       operator[](size_type __n) const _GLIBCXX_NOEXCEPT
1062:/Library/DaisyToolchain/0.2.0/arm/arm-none-eabi/include/c++/10.3.1/bits/stl_vector.h ****       {
1063:/Library/DaisyToolchain/0.2.0/arm/arm-none-eabi/include/c++/10.3.1/bits/stl_vector.h **** 	__glibcxx_requires_subscript(__n);
1064:/Library/DaisyToolchain/0.2.0/arm/arm-none-eabi/include/c++/10.3.1/bits/stl_vector.h **** 	return *(this->_M_impl._M_start + __n);
1065:/Library/DaisyToolchain/0.2.0/arm/arm-none-eabi/include/c++/10.3.1/bits/stl_vector.h ****       }
1066:/Library/DaisyToolchain/0.2.0/arm/arm-none-eabi/include/c++/10.3.1/bits/stl_vector.h **** 
1067:/Library/DaisyToolchain/0.2.0/arm/arm-none-eabi/include/c++/10.3.1/bits/stl_vector.h ****     protected:
1068:/Library/DaisyToolchain/0.2.0/arm/arm-none-eabi/include/c++/10.3.1/bits/stl_vector.h ****       /// Safety check used only from at().
1069:/Library/DaisyToolchain/0.2.0/arm/arm-none-eabi/include/c++/10.3.1/bits/stl_vector.h ****       void
1070:/Library/DaisyToolchain/0.2.0/arm/arm-none-eabi/include/c++/10.3.1/bits/stl_vector.h ****       _M_range_check(size_type __n) const
1071:/Library/DaisyToolchain/0.2.0/arm/arm-none-eabi/include/c++/10.3.1/bits/stl_vector.h ****       {
1072:/Library/DaisyToolchain/0.2.0/arm/arm-none-eabi/include/c++/10.3.1/bits/stl_vector.h **** 	if (__n >= this->size())
1073:/Library/DaisyToolchain/0.2.0/arm/arm-none-eabi/include/c++/10.3.1/bits/stl_vector.h **** 	  __throw_out_of_range_fmt(__N("vector::_M_range_check: __n "
1074:/Library/DaisyToolchain/0.2.0/arm/arm-none-eabi/include/c++/10.3.1/bits/stl_vector.h **** 				       "(which is %zu) >= this->size() "
1075:/Library/DaisyToolchain/0.2.0/arm/arm-none-eabi/include/c++/10.3.1/bits/stl_vector.h **** 				       "(which is %zu)"),
1076:/Library/DaisyToolchain/0.2.0/arm/arm-none-eabi/include/c++/10.3.1/bits/stl_vector.h **** 				   __n, this->size());
1077:/Library/DaisyToolchain/0.2.0/arm/arm-none-eabi/include/c++/10.3.1/bits/stl_vector.h ****       }
1078:/Library/DaisyToolchain/0.2.0/arm/arm-none-eabi/include/c++/10.3.1/bits/stl_vector.h **** 
1079:/Library/DaisyToolchain/0.2.0/arm/arm-none-eabi/include/c++/10.3.1/bits/stl_vector.h ****     public:
1080:/Library/DaisyToolchain/0.2.0/arm/arm-none-eabi/include/c++/10.3.1/bits/stl_vector.h ****       /**
1081:/Library/DaisyToolchain/0.2.0/arm/arm-none-eabi/include/c++/10.3.1/bits/stl_vector.h ****        *  @brief  Provides access to the data contained in the %vector.
1082:/Library/DaisyToolchain/0.2.0/arm/arm-none-eabi/include/c++/10.3.1/bits/stl_vector.h ****        *  @param __n The index of the element for which data should be
1083:/Library/DaisyToolchain/0.2.0/arm/arm-none-eabi/include/c++/10.3.1/bits/stl_vector.h ****        *  accessed.
1084:/Library/DaisyToolchain/0.2.0/arm/arm-none-eabi/include/c++/10.3.1/bits/stl_vector.h ****        *  @return  Read/write reference to data.
1085:/Library/DaisyToolchain/0.2.0/arm/arm-none-eabi/include/c++/10.3.1/bits/stl_vector.h ****        *  @throw  std::out_of_range  If @a __n is an invalid index.
1086:/Library/DaisyToolchain/0.2.0/arm/arm-none-eabi/include/c++/10.3.1/bits/stl_vector.h ****        *
1087:/Library/DaisyToolchain/0.2.0/arm/arm-none-eabi/include/c++/10.3.1/bits/stl_vector.h ****        *  This function provides for safer data access.  The parameter
1088:/Library/DaisyToolchain/0.2.0/arm/arm-none-eabi/include/c++/10.3.1/bits/stl_vector.h ****        *  is first checked that it is in the range of the vector.  The
1089:/Library/DaisyToolchain/0.2.0/arm/arm-none-eabi/include/c++/10.3.1/bits/stl_vector.h ****        *  function throws out_of_range if the check fails.
1090:/Library/DaisyToolchain/0.2.0/arm/arm-none-eabi/include/c++/10.3.1/bits/stl_vector.h ****        */
1091:/Library/DaisyToolchain/0.2.0/arm/arm-none-eabi/include/c++/10.3.1/bits/stl_vector.h ****       reference
1092:/Library/DaisyToolchain/0.2.0/arm/arm-none-eabi/include/c++/10.3.1/bits/stl_vector.h ****       at(size_type __n)
 2065              		.loc 7 1092 7 view .LVU512
 2066              	.LBB547:
 2067              	.LBI547:
1070:/Library/DaisyToolchain/0.2.0/arm/arm-none-eabi/include/c++/10.3.1/bits/stl_vector.h ****       {
 2068              		.loc 7 1070 7 view .LVU513
 2069              	.LBB548:
 2070              	.LBB549:
 2071              	.LBI549:
 918:/Library/DaisyToolchain/0.2.0/arm/arm-none-eabi/include/c++/10.3.1/bits/stl_vector.h ****       { return size_type(this->_M_impl._M_finish - this->_M_impl._M_start); }
 2072              		.loc 7 918 7 view .LVU514
 2073              	.LBB550:
 919:/Library/DaisyToolchain/0.2.0/arm/arm-none-eabi/include/c++/10.3.1/bits/stl_vector.h **** 
 2074              		.loc 7 919 50 is_stmt 0 view .LVU515
 2075 0018 D2E90B03 		ldrd	r0, r3, [r2, #44]
 2076              	.LVL150:
 919:/Library/DaisyToolchain/0.2.0/arm/arm-none-eabi/include/c++/10.3.1/bits/stl_vector.h **** 
 2077              		.loc 7 919 50 view .LVU516
 2078 001c 1B1A     		subs	r3, r3, r0
 2079              	.LBE550:
 2080              	.LBE549:
1072:/Library/DaisyToolchain/0.2.0/arm/arm-none-eabi/include/c++/10.3.1/bits/stl_vector.h **** 	  __throw_out_of_range_fmt(__N("vector::_M_range_check: __n "
 2081              		.loc 7 1072 2 view .LVU517
 2082 001e B1EB231F 		cmp	r1, r3, asr #4
 2083              	.LBB552:
 2084              	.LBB551:
ARM GAS  /var/folders/wz/z09yph4n0qj4t7mjxhl6ttn80000gn/T//cc3KzP2n.s 			page 101


 919:/Library/DaisyToolchain/0.2.0/arm/arm-none-eabi/include/c++/10.3.1/bits/stl_vector.h **** 
 2085              		.loc 7 919 50 view .LVU518
 2086 0022 4FEA2312 		asr	r2, r3, #4
 2087              	.LVL151:
 919:/Library/DaisyToolchain/0.2.0/arm/arm-none-eabi/include/c++/10.3.1/bits/stl_vector.h **** 
 2088              		.loc 7 919 50 view .LVU519
 2089              	.LBE551:
 2090              	.LBE552:
1072:/Library/DaisyToolchain/0.2.0/arm/arm-none-eabi/include/c++/10.3.1/bits/stl_vector.h **** 	  __throw_out_of_range_fmt(__N("vector::_M_range_check: __n "
 2091              		.loc 7 1072 2 view .LVU520
 2092 0026 02D3     		bcc	.L73
1073:/Library/DaisyToolchain/0.2.0/arm/arm-none-eabi/include/c++/10.3.1/bits/stl_vector.h **** 				       "(which is %zu) >= this->size() "
 2093              		.loc 7 1073 28 view .LVU521
 2094 0028 2548     		ldr	r0, .L74
 2095 002a FFF7FEFF 		bl	_ZSt24__throw_out_of_range_fmtPKcz
 2096              	.LVL152:
 2097              	.L73:
1073:/Library/DaisyToolchain/0.2.0/arm/arm-none-eabi/include/c++/10.3.1/bits/stl_vector.h **** 				       "(which is %zu) >= this->size() "
 2098              		.loc 7 1073 28 view .LVU522
 2099              	.LBE548:
 2100              	.LBE547:
 2101              	.LBB553:
 2102              	.LBI553:
1043:/Library/DaisyToolchain/0.2.0/arm/arm-none-eabi/include/c++/10.3.1/bits/stl_vector.h ****       {
 2103              		.loc 7 1043 7 is_stmt 1 view .LVU523
1043:/Library/DaisyToolchain/0.2.0/arm/arm-none-eabi/include/c++/10.3.1/bits/stl_vector.h ****       {
 2104              		.loc 7 1043 7 is_stmt 0 view .LVU524
 2105              	.LBE553:
 2106              	.LBE546:
 2107              		.loc 6 100 92 view .LVU525
 2108 002e 00EB0111 		add	r1, r0, r1, lsl #4
 2109              	.LVL153:
 2110              		.loc 6 100 92 view .LVU526
 2111 0032 02A8     		add	r0, sp, #8
 2112 0034 FFF7FEFF 		bl	_ZNSt8functionIFvvEEC1ERKS1_
 2113              	.LVL154:
 2114              		.loc 6 100 92 view .LVU527
 2115              	.LBE545:
 2116              	.LBE544:
 2117              	.LBB554:
 2118              	.LBI554:
  22:GUI/FX/BypassButton.h ****     {
 2119              		.loc 5 22 10 is_stmt 1 view .LVU528
 2120              	.LBB555:
  24:GUI/FX/BypassButton.h ****         lcd = uid;
 2121              		.loc 5 24 9 view .LVU529
 2122              	.LBB556:
 2123              	.LBB557:
 398:/Library/DaisyToolchain/0.2.0/arm/arm-none-eabi/include/c++/10.3.1/bits/std_function.h **** 	return *this;
 2124              		.loc 1 398 2 is_stmt 0 view .LVU530
 2125 0038 02A9     		add	r1, sp, #8
 2126              	.LVL155:
 398:/Library/DaisyToolchain/0.2.0/arm/arm-none-eabi/include/c++/10.3.1/bits/std_function.h **** 	return *this;
 2127              		.loc 1 398 2 view .LVU531
 2128              	.LBE557:
 2129              	.LBE556:
  25:GUI/FX/BypassButton.h **** 
ARM GAS  /var/folders/wz/z09yph4n0qj4t7mjxhl6ttn80000gn/T//cc3KzP2n.s 			page 102


 2130              		.loc 5 25 13 view .LVU532
 2131 003a C4E90356 		strd	r5, r6, [r4, #12]
  27:GUI/FX/BypassButton.h ****         isSelected = false;
 2132              		.loc 5 27 9 is_stmt 1 view .LVU533
 2133              	.LVL156:
 2134              	.LBB577:
 2135              	.LBI556:
 396:/Library/DaisyToolchain/0.2.0/arm/arm-none-eabi/include/c++/10.3.1/bits/std_function.h ****       {
 2136              		.loc 1 396 7 view .LVU534
 2137              	.LBB576:
 398:/Library/DaisyToolchain/0.2.0/arm/arm-none-eabi/include/c++/10.3.1/bits/std_function.h **** 	return *this;
 2138              		.loc 1 398 2 is_stmt 0 view .LVU535
 2139 003e 06AE     		add	r6, sp, #24
 2140              	.LVL157:
 398:/Library/DaisyToolchain/0.2.0/arm/arm-none-eabi/include/c++/10.3.1/bits/std_function.h **** 	return *this;
 2141              		.loc 1 398 2 view .LVU536
 2142 0040 3046     		mov	r0, r6
 2143 0042 FFF7FEFF 		bl	_ZNSt8functionIFvvEEC1ERKS1_
 2144              	.LVL158:
 2145              	.LBB558:
 2146              	.LBI558:
 481:/Library/DaisyToolchain/0.2.0/arm/arm-none-eabi/include/c++/10.3.1/bits/std_function.h ****       {
 2147              		.loc 1 481 12 is_stmt 1 view .LVU537
 2148              	.LBB559:
 2149              	.LBI559:
 2150              		.file 8 "/Library/DaisyToolchain/0.2.0/arm/arm-none-eabi/include/c++/10.3.1/bits/move.h"
   1:/Library/DaisyToolchain/0.2.0/arm/arm-none-eabi/include/c++/10.3.1/bits/move.h **** // Move, forward and identity for C++11 + swap -*- C++ -*-
   2:/Library/DaisyToolchain/0.2.0/arm/arm-none-eabi/include/c++/10.3.1/bits/move.h **** 
   3:/Library/DaisyToolchain/0.2.0/arm/arm-none-eabi/include/c++/10.3.1/bits/move.h **** // Copyright (C) 2007-2020 Free Software Foundation, Inc.
   4:/Library/DaisyToolchain/0.2.0/arm/arm-none-eabi/include/c++/10.3.1/bits/move.h **** //
   5:/Library/DaisyToolchain/0.2.0/arm/arm-none-eabi/include/c++/10.3.1/bits/move.h **** // This file is part of the GNU ISO C++ Library.  This library is free
   6:/Library/DaisyToolchain/0.2.0/arm/arm-none-eabi/include/c++/10.3.1/bits/move.h **** // software; you can redistribute it and/or modify it under the
   7:/Library/DaisyToolchain/0.2.0/arm/arm-none-eabi/include/c++/10.3.1/bits/move.h **** // terms of the GNU General Public License as published by the
   8:/Library/DaisyToolchain/0.2.0/arm/arm-none-eabi/include/c++/10.3.1/bits/move.h **** // Free Software Foundation; either version 3, or (at your option)
   9:/Library/DaisyToolchain/0.2.0/arm/arm-none-eabi/include/c++/10.3.1/bits/move.h **** // any later version.
  10:/Library/DaisyToolchain/0.2.0/arm/arm-none-eabi/include/c++/10.3.1/bits/move.h **** 
  11:/Library/DaisyToolchain/0.2.0/arm/arm-none-eabi/include/c++/10.3.1/bits/move.h **** // This library is distributed in the hope that it will be useful,
  12:/Library/DaisyToolchain/0.2.0/arm/arm-none-eabi/include/c++/10.3.1/bits/move.h **** // but WITHOUT ANY WARRANTY; without even the implied warranty of
  13:/Library/DaisyToolchain/0.2.0/arm/arm-none-eabi/include/c++/10.3.1/bits/move.h **** // MERCHANTABILITY or FITNESS FOR A PARTICULAR PURPOSE.  See the
  14:/Library/DaisyToolchain/0.2.0/arm/arm-none-eabi/include/c++/10.3.1/bits/move.h **** // GNU General Public License for more details.
  15:/Library/DaisyToolchain/0.2.0/arm/arm-none-eabi/include/c++/10.3.1/bits/move.h **** 
  16:/Library/DaisyToolchain/0.2.0/arm/arm-none-eabi/include/c++/10.3.1/bits/move.h **** // Under Section 7 of GPL version 3, you are granted additional
  17:/Library/DaisyToolchain/0.2.0/arm/arm-none-eabi/include/c++/10.3.1/bits/move.h **** // permissions described in the GCC Runtime Library Exception, version
  18:/Library/DaisyToolchain/0.2.0/arm/arm-none-eabi/include/c++/10.3.1/bits/move.h **** // 3.1, as published by the Free Software Foundation.
  19:/Library/DaisyToolchain/0.2.0/arm/arm-none-eabi/include/c++/10.3.1/bits/move.h **** 
  20:/Library/DaisyToolchain/0.2.0/arm/arm-none-eabi/include/c++/10.3.1/bits/move.h **** // You should have received a copy of the GNU General Public License and
  21:/Library/DaisyToolchain/0.2.0/arm/arm-none-eabi/include/c++/10.3.1/bits/move.h **** // a copy of the GCC Runtime Library Exception along with this program;
  22:/Library/DaisyToolchain/0.2.0/arm/arm-none-eabi/include/c++/10.3.1/bits/move.h **** // see the files COPYING3 and COPYING.RUNTIME respectively.  If not, see
  23:/Library/DaisyToolchain/0.2.0/arm/arm-none-eabi/include/c++/10.3.1/bits/move.h **** // <http://www.gnu.org/licenses/>.
  24:/Library/DaisyToolchain/0.2.0/arm/arm-none-eabi/include/c++/10.3.1/bits/move.h **** 
  25:/Library/DaisyToolchain/0.2.0/arm/arm-none-eabi/include/c++/10.3.1/bits/move.h **** /** @file bits/move.h
  26:/Library/DaisyToolchain/0.2.0/arm/arm-none-eabi/include/c++/10.3.1/bits/move.h ****  *  This is an internal header file, included by other library headers.
  27:/Library/DaisyToolchain/0.2.0/arm/arm-none-eabi/include/c++/10.3.1/bits/move.h ****  *  Do not attempt to use it directly. @headername{utility}
  28:/Library/DaisyToolchain/0.2.0/arm/arm-none-eabi/include/c++/10.3.1/bits/move.h ****  */
  29:/Library/DaisyToolchain/0.2.0/arm/arm-none-eabi/include/c++/10.3.1/bits/move.h **** 
  30:/Library/DaisyToolchain/0.2.0/arm/arm-none-eabi/include/c++/10.3.1/bits/move.h **** #ifndef _MOVE_H
  31:/Library/DaisyToolchain/0.2.0/arm/arm-none-eabi/include/c++/10.3.1/bits/move.h **** #define _MOVE_H 1
ARM GAS  /var/folders/wz/z09yph4n0qj4t7mjxhl6ttn80000gn/T//cc3KzP2n.s 			page 103


  32:/Library/DaisyToolchain/0.2.0/arm/arm-none-eabi/include/c++/10.3.1/bits/move.h **** 
  33:/Library/DaisyToolchain/0.2.0/arm/arm-none-eabi/include/c++/10.3.1/bits/move.h **** #include <bits/c++config.h>
  34:/Library/DaisyToolchain/0.2.0/arm/arm-none-eabi/include/c++/10.3.1/bits/move.h **** #if __cplusplus < 201103L
  35:/Library/DaisyToolchain/0.2.0/arm/arm-none-eabi/include/c++/10.3.1/bits/move.h **** # include <bits/concept_check.h>
  36:/Library/DaisyToolchain/0.2.0/arm/arm-none-eabi/include/c++/10.3.1/bits/move.h **** #endif
  37:/Library/DaisyToolchain/0.2.0/arm/arm-none-eabi/include/c++/10.3.1/bits/move.h **** 
  38:/Library/DaisyToolchain/0.2.0/arm/arm-none-eabi/include/c++/10.3.1/bits/move.h **** namespace std _GLIBCXX_VISIBILITY(default)
  39:/Library/DaisyToolchain/0.2.0/arm/arm-none-eabi/include/c++/10.3.1/bits/move.h **** {
  40:/Library/DaisyToolchain/0.2.0/arm/arm-none-eabi/include/c++/10.3.1/bits/move.h **** _GLIBCXX_BEGIN_NAMESPACE_VERSION
  41:/Library/DaisyToolchain/0.2.0/arm/arm-none-eabi/include/c++/10.3.1/bits/move.h **** 
  42:/Library/DaisyToolchain/0.2.0/arm/arm-none-eabi/include/c++/10.3.1/bits/move.h ****   // Used, in C++03 mode too, by allocators, etc.
  43:/Library/DaisyToolchain/0.2.0/arm/arm-none-eabi/include/c++/10.3.1/bits/move.h ****   /**
  44:/Library/DaisyToolchain/0.2.0/arm/arm-none-eabi/include/c++/10.3.1/bits/move.h ****    *  @brief Same as C++11 std::addressof
  45:/Library/DaisyToolchain/0.2.0/arm/arm-none-eabi/include/c++/10.3.1/bits/move.h ****    *  @ingroup utilities
  46:/Library/DaisyToolchain/0.2.0/arm/arm-none-eabi/include/c++/10.3.1/bits/move.h ****    */
  47:/Library/DaisyToolchain/0.2.0/arm/arm-none-eabi/include/c++/10.3.1/bits/move.h ****   template<typename _Tp>
  48:/Library/DaisyToolchain/0.2.0/arm/arm-none-eabi/include/c++/10.3.1/bits/move.h ****     inline _GLIBCXX_CONSTEXPR _Tp*
  49:/Library/DaisyToolchain/0.2.0/arm/arm-none-eabi/include/c++/10.3.1/bits/move.h ****     __addressof(_Tp& __r) _GLIBCXX_NOEXCEPT
  50:/Library/DaisyToolchain/0.2.0/arm/arm-none-eabi/include/c++/10.3.1/bits/move.h ****     { return __builtin_addressof(__r); }
  51:/Library/DaisyToolchain/0.2.0/arm/arm-none-eabi/include/c++/10.3.1/bits/move.h **** 
  52:/Library/DaisyToolchain/0.2.0/arm/arm-none-eabi/include/c++/10.3.1/bits/move.h **** #if __cplusplus >= 201103L
  53:/Library/DaisyToolchain/0.2.0/arm/arm-none-eabi/include/c++/10.3.1/bits/move.h **** 
  54:/Library/DaisyToolchain/0.2.0/arm/arm-none-eabi/include/c++/10.3.1/bits/move.h **** _GLIBCXX_END_NAMESPACE_VERSION
  55:/Library/DaisyToolchain/0.2.0/arm/arm-none-eabi/include/c++/10.3.1/bits/move.h **** } // namespace
  56:/Library/DaisyToolchain/0.2.0/arm/arm-none-eabi/include/c++/10.3.1/bits/move.h **** 
  57:/Library/DaisyToolchain/0.2.0/arm/arm-none-eabi/include/c++/10.3.1/bits/move.h **** #include <type_traits> // Brings in std::declval too.
  58:/Library/DaisyToolchain/0.2.0/arm/arm-none-eabi/include/c++/10.3.1/bits/move.h **** 
  59:/Library/DaisyToolchain/0.2.0/arm/arm-none-eabi/include/c++/10.3.1/bits/move.h **** namespace std _GLIBCXX_VISIBILITY(default)
  60:/Library/DaisyToolchain/0.2.0/arm/arm-none-eabi/include/c++/10.3.1/bits/move.h **** {
  61:/Library/DaisyToolchain/0.2.0/arm/arm-none-eabi/include/c++/10.3.1/bits/move.h **** _GLIBCXX_BEGIN_NAMESPACE_VERSION
  62:/Library/DaisyToolchain/0.2.0/arm/arm-none-eabi/include/c++/10.3.1/bits/move.h **** 
  63:/Library/DaisyToolchain/0.2.0/arm/arm-none-eabi/include/c++/10.3.1/bits/move.h ****   /**
  64:/Library/DaisyToolchain/0.2.0/arm/arm-none-eabi/include/c++/10.3.1/bits/move.h ****    *  @addtogroup utilities
  65:/Library/DaisyToolchain/0.2.0/arm/arm-none-eabi/include/c++/10.3.1/bits/move.h ****    *  @{
  66:/Library/DaisyToolchain/0.2.0/arm/arm-none-eabi/include/c++/10.3.1/bits/move.h ****    */
  67:/Library/DaisyToolchain/0.2.0/arm/arm-none-eabi/include/c++/10.3.1/bits/move.h **** 
  68:/Library/DaisyToolchain/0.2.0/arm/arm-none-eabi/include/c++/10.3.1/bits/move.h ****   /**
  69:/Library/DaisyToolchain/0.2.0/arm/arm-none-eabi/include/c++/10.3.1/bits/move.h ****    *  @brief  Forward an lvalue.
  70:/Library/DaisyToolchain/0.2.0/arm/arm-none-eabi/include/c++/10.3.1/bits/move.h ****    *  @return The parameter cast to the specified type.
  71:/Library/DaisyToolchain/0.2.0/arm/arm-none-eabi/include/c++/10.3.1/bits/move.h ****    *
  72:/Library/DaisyToolchain/0.2.0/arm/arm-none-eabi/include/c++/10.3.1/bits/move.h ****    *  This function is used to implement "perfect forwarding".
  73:/Library/DaisyToolchain/0.2.0/arm/arm-none-eabi/include/c++/10.3.1/bits/move.h ****    */
  74:/Library/DaisyToolchain/0.2.0/arm/arm-none-eabi/include/c++/10.3.1/bits/move.h ****   template<typename _Tp>
  75:/Library/DaisyToolchain/0.2.0/arm/arm-none-eabi/include/c++/10.3.1/bits/move.h ****     constexpr _Tp&&
  76:/Library/DaisyToolchain/0.2.0/arm/arm-none-eabi/include/c++/10.3.1/bits/move.h ****     forward(typename std::remove_reference<_Tp>::type& __t) noexcept
  77:/Library/DaisyToolchain/0.2.0/arm/arm-none-eabi/include/c++/10.3.1/bits/move.h ****     { return static_cast<_Tp&&>(__t); }
  78:/Library/DaisyToolchain/0.2.0/arm/arm-none-eabi/include/c++/10.3.1/bits/move.h **** 
  79:/Library/DaisyToolchain/0.2.0/arm/arm-none-eabi/include/c++/10.3.1/bits/move.h ****   /**
  80:/Library/DaisyToolchain/0.2.0/arm/arm-none-eabi/include/c++/10.3.1/bits/move.h ****    *  @brief  Forward an rvalue.
  81:/Library/DaisyToolchain/0.2.0/arm/arm-none-eabi/include/c++/10.3.1/bits/move.h ****    *  @return The parameter cast to the specified type.
  82:/Library/DaisyToolchain/0.2.0/arm/arm-none-eabi/include/c++/10.3.1/bits/move.h ****    *
  83:/Library/DaisyToolchain/0.2.0/arm/arm-none-eabi/include/c++/10.3.1/bits/move.h ****    *  This function is used to implement "perfect forwarding".
  84:/Library/DaisyToolchain/0.2.0/arm/arm-none-eabi/include/c++/10.3.1/bits/move.h ****    */
  85:/Library/DaisyToolchain/0.2.0/arm/arm-none-eabi/include/c++/10.3.1/bits/move.h ****   template<typename _Tp>
  86:/Library/DaisyToolchain/0.2.0/arm/arm-none-eabi/include/c++/10.3.1/bits/move.h ****     constexpr _Tp&&
  87:/Library/DaisyToolchain/0.2.0/arm/arm-none-eabi/include/c++/10.3.1/bits/move.h ****     forward(typename std::remove_reference<_Tp>::type&& __t) noexcept
  88:/Library/DaisyToolchain/0.2.0/arm/arm-none-eabi/include/c++/10.3.1/bits/move.h ****     {
ARM GAS  /var/folders/wz/z09yph4n0qj4t7mjxhl6ttn80000gn/T//cc3KzP2n.s 			page 104


  89:/Library/DaisyToolchain/0.2.0/arm/arm-none-eabi/include/c++/10.3.1/bits/move.h ****       static_assert(!std::is_lvalue_reference<_Tp>::value, "template argument"
  90:/Library/DaisyToolchain/0.2.0/arm/arm-none-eabi/include/c++/10.3.1/bits/move.h **** 		    " substituting _Tp is an lvalue reference type");
  91:/Library/DaisyToolchain/0.2.0/arm/arm-none-eabi/include/c++/10.3.1/bits/move.h ****       return static_cast<_Tp&&>(__t);
  92:/Library/DaisyToolchain/0.2.0/arm/arm-none-eabi/include/c++/10.3.1/bits/move.h ****     }
  93:/Library/DaisyToolchain/0.2.0/arm/arm-none-eabi/include/c++/10.3.1/bits/move.h **** 
  94:/Library/DaisyToolchain/0.2.0/arm/arm-none-eabi/include/c++/10.3.1/bits/move.h ****   /**
  95:/Library/DaisyToolchain/0.2.0/arm/arm-none-eabi/include/c++/10.3.1/bits/move.h ****    *  @brief  Convert a value to an rvalue.
  96:/Library/DaisyToolchain/0.2.0/arm/arm-none-eabi/include/c++/10.3.1/bits/move.h ****    *  @param  __t  A thing of arbitrary type.
  97:/Library/DaisyToolchain/0.2.0/arm/arm-none-eabi/include/c++/10.3.1/bits/move.h ****    *  @return The parameter cast to an rvalue-reference to allow moving it.
  98:/Library/DaisyToolchain/0.2.0/arm/arm-none-eabi/include/c++/10.3.1/bits/move.h ****   */
  99:/Library/DaisyToolchain/0.2.0/arm/arm-none-eabi/include/c++/10.3.1/bits/move.h ****   template<typename _Tp>
 100:/Library/DaisyToolchain/0.2.0/arm/arm-none-eabi/include/c++/10.3.1/bits/move.h ****     constexpr typename std::remove_reference<_Tp>::type&&
 101:/Library/DaisyToolchain/0.2.0/arm/arm-none-eabi/include/c++/10.3.1/bits/move.h ****     move(_Tp&& __t) noexcept
 102:/Library/DaisyToolchain/0.2.0/arm/arm-none-eabi/include/c++/10.3.1/bits/move.h ****     { return static_cast<typename std::remove_reference<_Tp>::type&&>(__t); }
 103:/Library/DaisyToolchain/0.2.0/arm/arm-none-eabi/include/c++/10.3.1/bits/move.h **** 
 104:/Library/DaisyToolchain/0.2.0/arm/arm-none-eabi/include/c++/10.3.1/bits/move.h **** 
 105:/Library/DaisyToolchain/0.2.0/arm/arm-none-eabi/include/c++/10.3.1/bits/move.h ****   template<typename _Tp>
 106:/Library/DaisyToolchain/0.2.0/arm/arm-none-eabi/include/c++/10.3.1/bits/move.h ****     struct __move_if_noexcept_cond
 107:/Library/DaisyToolchain/0.2.0/arm/arm-none-eabi/include/c++/10.3.1/bits/move.h ****     : public __and_<__not_<is_nothrow_move_constructible<_Tp>>,
 108:/Library/DaisyToolchain/0.2.0/arm/arm-none-eabi/include/c++/10.3.1/bits/move.h ****                     is_copy_constructible<_Tp>>::type { };
 109:/Library/DaisyToolchain/0.2.0/arm/arm-none-eabi/include/c++/10.3.1/bits/move.h **** 
 110:/Library/DaisyToolchain/0.2.0/arm/arm-none-eabi/include/c++/10.3.1/bits/move.h ****   /**
 111:/Library/DaisyToolchain/0.2.0/arm/arm-none-eabi/include/c++/10.3.1/bits/move.h ****    *  @brief  Conditionally convert a value to an rvalue.
 112:/Library/DaisyToolchain/0.2.0/arm/arm-none-eabi/include/c++/10.3.1/bits/move.h ****    *  @param  __x  A thing of arbitrary type.
 113:/Library/DaisyToolchain/0.2.0/arm/arm-none-eabi/include/c++/10.3.1/bits/move.h ****    *  @return The parameter, possibly cast to an rvalue-reference.
 114:/Library/DaisyToolchain/0.2.0/arm/arm-none-eabi/include/c++/10.3.1/bits/move.h ****    *
 115:/Library/DaisyToolchain/0.2.0/arm/arm-none-eabi/include/c++/10.3.1/bits/move.h ****    *  Same as std::move unless the type's move constructor could throw and the
 116:/Library/DaisyToolchain/0.2.0/arm/arm-none-eabi/include/c++/10.3.1/bits/move.h ****    *  type is copyable, in which case an lvalue-reference is returned instead.
 117:/Library/DaisyToolchain/0.2.0/arm/arm-none-eabi/include/c++/10.3.1/bits/move.h ****    */
 118:/Library/DaisyToolchain/0.2.0/arm/arm-none-eabi/include/c++/10.3.1/bits/move.h ****   template<typename _Tp>
 119:/Library/DaisyToolchain/0.2.0/arm/arm-none-eabi/include/c++/10.3.1/bits/move.h ****     constexpr typename
 120:/Library/DaisyToolchain/0.2.0/arm/arm-none-eabi/include/c++/10.3.1/bits/move.h ****     conditional<__move_if_noexcept_cond<_Tp>::value, const _Tp&, _Tp&&>::type
 121:/Library/DaisyToolchain/0.2.0/arm/arm-none-eabi/include/c++/10.3.1/bits/move.h ****     move_if_noexcept(_Tp& __x) noexcept
 122:/Library/DaisyToolchain/0.2.0/arm/arm-none-eabi/include/c++/10.3.1/bits/move.h ****     { return std::move(__x); }
 123:/Library/DaisyToolchain/0.2.0/arm/arm-none-eabi/include/c++/10.3.1/bits/move.h **** 
 124:/Library/DaisyToolchain/0.2.0/arm/arm-none-eabi/include/c++/10.3.1/bits/move.h ****   // declval, from type_traits.
 125:/Library/DaisyToolchain/0.2.0/arm/arm-none-eabi/include/c++/10.3.1/bits/move.h **** 
 126:/Library/DaisyToolchain/0.2.0/arm/arm-none-eabi/include/c++/10.3.1/bits/move.h **** #if __cplusplus > 201402L
 127:/Library/DaisyToolchain/0.2.0/arm/arm-none-eabi/include/c++/10.3.1/bits/move.h ****   // _GLIBCXX_RESOLVE_LIB_DEFECTS
 128:/Library/DaisyToolchain/0.2.0/arm/arm-none-eabi/include/c++/10.3.1/bits/move.h ****   // 2296. std::addressof should be constexpr
 129:/Library/DaisyToolchain/0.2.0/arm/arm-none-eabi/include/c++/10.3.1/bits/move.h **** # define __cpp_lib_addressof_constexpr 201603
 130:/Library/DaisyToolchain/0.2.0/arm/arm-none-eabi/include/c++/10.3.1/bits/move.h **** #endif
 131:/Library/DaisyToolchain/0.2.0/arm/arm-none-eabi/include/c++/10.3.1/bits/move.h ****   /**
 132:/Library/DaisyToolchain/0.2.0/arm/arm-none-eabi/include/c++/10.3.1/bits/move.h ****    *  @brief Returns the actual address of the object or function
 133:/Library/DaisyToolchain/0.2.0/arm/arm-none-eabi/include/c++/10.3.1/bits/move.h ****    *         referenced by r, even in the presence of an overloaded
 134:/Library/DaisyToolchain/0.2.0/arm/arm-none-eabi/include/c++/10.3.1/bits/move.h ****    *         operator&.
 135:/Library/DaisyToolchain/0.2.0/arm/arm-none-eabi/include/c++/10.3.1/bits/move.h ****    *  @param  __r  Reference to an object or function.
 136:/Library/DaisyToolchain/0.2.0/arm/arm-none-eabi/include/c++/10.3.1/bits/move.h ****    *  @return   The actual address.
 137:/Library/DaisyToolchain/0.2.0/arm/arm-none-eabi/include/c++/10.3.1/bits/move.h ****   */
 138:/Library/DaisyToolchain/0.2.0/arm/arm-none-eabi/include/c++/10.3.1/bits/move.h ****   template<typename _Tp>
 139:/Library/DaisyToolchain/0.2.0/arm/arm-none-eabi/include/c++/10.3.1/bits/move.h ****     inline _GLIBCXX17_CONSTEXPR _Tp*
 140:/Library/DaisyToolchain/0.2.0/arm/arm-none-eabi/include/c++/10.3.1/bits/move.h ****     addressof(_Tp& __r) noexcept
 141:/Library/DaisyToolchain/0.2.0/arm/arm-none-eabi/include/c++/10.3.1/bits/move.h ****     { return std::__addressof(__r); }
 142:/Library/DaisyToolchain/0.2.0/arm/arm-none-eabi/include/c++/10.3.1/bits/move.h **** 
 143:/Library/DaisyToolchain/0.2.0/arm/arm-none-eabi/include/c++/10.3.1/bits/move.h ****   // _GLIBCXX_RESOLVE_LIB_DEFECTS
 144:/Library/DaisyToolchain/0.2.0/arm/arm-none-eabi/include/c++/10.3.1/bits/move.h ****   // 2598. addressof works on temporaries
 145:/Library/DaisyToolchain/0.2.0/arm/arm-none-eabi/include/c++/10.3.1/bits/move.h ****   template<typename _Tp>
ARM GAS  /var/folders/wz/z09yph4n0qj4t7mjxhl6ttn80000gn/T//cc3KzP2n.s 			page 105


 146:/Library/DaisyToolchain/0.2.0/arm/arm-none-eabi/include/c++/10.3.1/bits/move.h ****     const _Tp* addressof(const _Tp&&) = delete;
 147:/Library/DaisyToolchain/0.2.0/arm/arm-none-eabi/include/c++/10.3.1/bits/move.h **** 
 148:/Library/DaisyToolchain/0.2.0/arm/arm-none-eabi/include/c++/10.3.1/bits/move.h ****   // C++11 version of std::exchange for internal use.
 149:/Library/DaisyToolchain/0.2.0/arm/arm-none-eabi/include/c++/10.3.1/bits/move.h ****   template <typename _Tp, typename _Up = _Tp>
 150:/Library/DaisyToolchain/0.2.0/arm/arm-none-eabi/include/c++/10.3.1/bits/move.h ****     _GLIBCXX20_CONSTEXPR
 151:/Library/DaisyToolchain/0.2.0/arm/arm-none-eabi/include/c++/10.3.1/bits/move.h ****     inline _Tp
 152:/Library/DaisyToolchain/0.2.0/arm/arm-none-eabi/include/c++/10.3.1/bits/move.h ****     __exchange(_Tp& __obj, _Up&& __new_val)
 153:/Library/DaisyToolchain/0.2.0/arm/arm-none-eabi/include/c++/10.3.1/bits/move.h ****     {
 154:/Library/DaisyToolchain/0.2.0/arm/arm-none-eabi/include/c++/10.3.1/bits/move.h ****       _Tp __old_val = std::move(__obj);
 155:/Library/DaisyToolchain/0.2.0/arm/arm-none-eabi/include/c++/10.3.1/bits/move.h ****       __obj = std::forward<_Up>(__new_val);
 156:/Library/DaisyToolchain/0.2.0/arm/arm-none-eabi/include/c++/10.3.1/bits/move.h ****       return __old_val;
 157:/Library/DaisyToolchain/0.2.0/arm/arm-none-eabi/include/c++/10.3.1/bits/move.h ****     }
 158:/Library/DaisyToolchain/0.2.0/arm/arm-none-eabi/include/c++/10.3.1/bits/move.h **** 
 159:/Library/DaisyToolchain/0.2.0/arm/arm-none-eabi/include/c++/10.3.1/bits/move.h ****   /// @} group utilities
 160:/Library/DaisyToolchain/0.2.0/arm/arm-none-eabi/include/c++/10.3.1/bits/move.h **** 
 161:/Library/DaisyToolchain/0.2.0/arm/arm-none-eabi/include/c++/10.3.1/bits/move.h **** #define _GLIBCXX_MOVE(__val) std::move(__val)
 162:/Library/DaisyToolchain/0.2.0/arm/arm-none-eabi/include/c++/10.3.1/bits/move.h **** #define _GLIBCXX_FORWARD(_Tp, __val) std::forward<_Tp>(__val)
 163:/Library/DaisyToolchain/0.2.0/arm/arm-none-eabi/include/c++/10.3.1/bits/move.h **** #else
 164:/Library/DaisyToolchain/0.2.0/arm/arm-none-eabi/include/c++/10.3.1/bits/move.h **** #define _GLIBCXX_MOVE(__val) (__val)
 165:/Library/DaisyToolchain/0.2.0/arm/arm-none-eabi/include/c++/10.3.1/bits/move.h **** #define _GLIBCXX_FORWARD(_Tp, __val) (__val)
 166:/Library/DaisyToolchain/0.2.0/arm/arm-none-eabi/include/c++/10.3.1/bits/move.h **** #endif
 167:/Library/DaisyToolchain/0.2.0/arm/arm-none-eabi/include/c++/10.3.1/bits/move.h **** 
 168:/Library/DaisyToolchain/0.2.0/arm/arm-none-eabi/include/c++/10.3.1/bits/move.h ****   /**
 169:/Library/DaisyToolchain/0.2.0/arm/arm-none-eabi/include/c++/10.3.1/bits/move.h ****    *  @addtogroup utilities
 170:/Library/DaisyToolchain/0.2.0/arm/arm-none-eabi/include/c++/10.3.1/bits/move.h ****    *  @{
 171:/Library/DaisyToolchain/0.2.0/arm/arm-none-eabi/include/c++/10.3.1/bits/move.h ****    */
 172:/Library/DaisyToolchain/0.2.0/arm/arm-none-eabi/include/c++/10.3.1/bits/move.h **** 
 173:/Library/DaisyToolchain/0.2.0/arm/arm-none-eabi/include/c++/10.3.1/bits/move.h ****   /**
 174:/Library/DaisyToolchain/0.2.0/arm/arm-none-eabi/include/c++/10.3.1/bits/move.h ****    *  @brief Swaps two values.
 175:/Library/DaisyToolchain/0.2.0/arm/arm-none-eabi/include/c++/10.3.1/bits/move.h ****    *  @param  __a  A thing of arbitrary type.
 176:/Library/DaisyToolchain/0.2.0/arm/arm-none-eabi/include/c++/10.3.1/bits/move.h ****    *  @param  __b  Another thing of arbitrary type.
 177:/Library/DaisyToolchain/0.2.0/arm/arm-none-eabi/include/c++/10.3.1/bits/move.h ****    *  @return   Nothing.
 178:/Library/DaisyToolchain/0.2.0/arm/arm-none-eabi/include/c++/10.3.1/bits/move.h ****   */
 179:/Library/DaisyToolchain/0.2.0/arm/arm-none-eabi/include/c++/10.3.1/bits/move.h ****   template<typename _Tp>
 180:/Library/DaisyToolchain/0.2.0/arm/arm-none-eabi/include/c++/10.3.1/bits/move.h ****     _GLIBCXX20_CONSTEXPR
 181:/Library/DaisyToolchain/0.2.0/arm/arm-none-eabi/include/c++/10.3.1/bits/move.h ****     inline
 182:/Library/DaisyToolchain/0.2.0/arm/arm-none-eabi/include/c++/10.3.1/bits/move.h **** #if __cplusplus >= 201103L
 183:/Library/DaisyToolchain/0.2.0/arm/arm-none-eabi/include/c++/10.3.1/bits/move.h ****     typename enable_if<__and_<__not_<__is_tuple_like<_Tp>>,
 184:/Library/DaisyToolchain/0.2.0/arm/arm-none-eabi/include/c++/10.3.1/bits/move.h **** 			      is_move_constructible<_Tp>,
 185:/Library/DaisyToolchain/0.2.0/arm/arm-none-eabi/include/c++/10.3.1/bits/move.h **** 			      is_move_assignable<_Tp>>::value>::type
 186:/Library/DaisyToolchain/0.2.0/arm/arm-none-eabi/include/c++/10.3.1/bits/move.h **** #else
 187:/Library/DaisyToolchain/0.2.0/arm/arm-none-eabi/include/c++/10.3.1/bits/move.h ****     void
 188:/Library/DaisyToolchain/0.2.0/arm/arm-none-eabi/include/c++/10.3.1/bits/move.h **** #endif
 189:/Library/DaisyToolchain/0.2.0/arm/arm-none-eabi/include/c++/10.3.1/bits/move.h ****     swap(_Tp& __a, _Tp& __b)
 2151              		.loc 8 189 5 view .LVU538
 2152              	.LBB560:
 190:/Library/DaisyToolchain/0.2.0/arm/arm-none-eabi/include/c++/10.3.1/bits/move.h ****     _GLIBCXX_NOEXCEPT_IF(__and_<is_nothrow_move_constructible<_Tp>,
 191:/Library/DaisyToolchain/0.2.0/arm/arm-none-eabi/include/c++/10.3.1/bits/move.h **** 				is_nothrow_move_assignable<_Tp>>::value)
 192:/Library/DaisyToolchain/0.2.0/arm/arm-none-eabi/include/c++/10.3.1/bits/move.h ****     {
 193:/Library/DaisyToolchain/0.2.0/arm/arm-none-eabi/include/c++/10.3.1/bits/move.h **** #if __cplusplus < 201103L
 194:/Library/DaisyToolchain/0.2.0/arm/arm-none-eabi/include/c++/10.3.1/bits/move.h ****       // concept requirements
 195:/Library/DaisyToolchain/0.2.0/arm/arm-none-eabi/include/c++/10.3.1/bits/move.h ****       __glibcxx_function_requires(_SGIAssignableConcept<_Tp>)
 196:/Library/DaisyToolchain/0.2.0/arm/arm-none-eabi/include/c++/10.3.1/bits/move.h **** #endif
 197:/Library/DaisyToolchain/0.2.0/arm/arm-none-eabi/include/c++/10.3.1/bits/move.h ****       _Tp __tmp = _GLIBCXX_MOVE(__a);
 2153              		.loc 8 197 11 is_stmt 0 view .LVU539
 2154 0046 6A46     		mov	r2, sp
 198:/Library/DaisyToolchain/0.2.0/arm/arm-none-eabi/include/c++/10.3.1/bits/move.h ****       __a = _GLIBCXX_MOVE(__b);
ARM GAS  /var/folders/wz/z09yph4n0qj4t7mjxhl6ttn80000gn/T//cc3KzP2n.s 			page 106


 2155              		.loc 8 198 7 view .LVU540
 2156 0048 04F11403 		add	r3, r4, #20
 2157              	.LVL159:
 197:/Library/DaisyToolchain/0.2.0/arm/arm-none-eabi/include/c++/10.3.1/bits/move.h ****       __a = _GLIBCXX_MOVE(__b);
 2158              		.loc 8 197 11 view .LVU541
 2159 004c 96E80300 		ldm	r6, {r0, r1}
 2160 0050 82E80300 		stm	r2, {r0, r1}
 2161              		.loc 8 198 7 view .LVU542
 2162 0054 93E80300 		ldm	r3, {r0, r1}
 2163 0058 86E80300 		stm	r6, {r0, r1}
 199:/Library/DaisyToolchain/0.2.0/arm/arm-none-eabi/include/c++/10.3.1/bits/move.h ****       __b = _GLIBCXX_MOVE(__tmp);
 2164              		.loc 8 199 7 view .LVU543
 2165 005c 92E80300 		ldm	r2, {r0, r1}
 2166 0060 83E80300 		stm	r3, {r0, r1}
 2167              	.LVL160:
 2168              		.loc 8 199 7 view .LVU544
 2169              	.LBE560:
 2170              	.LBE559:
 2171              	.LBB561:
 2172              	.LBI561:
 189:/Library/DaisyToolchain/0.2.0/arm/arm-none-eabi/include/c++/10.3.1/bits/move.h ****     _GLIBCXX_NOEXCEPT_IF(__and_<is_nothrow_move_constructible<_Tp>,
 2173              		.loc 8 189 5 is_stmt 1 view .LVU545
 2174              	.LBB562:
 197:/Library/DaisyToolchain/0.2.0/arm/arm-none-eabi/include/c++/10.3.1/bits/move.h ****       __a = _GLIBCXX_MOVE(__b);
 2175              		.loc 8 197 11 is_stmt 0 view .LVU546
 2176 0064 089B     		ldr	r3, [sp, #32]
 2177              	.LVL161:
 197:/Library/DaisyToolchain/0.2.0/arm/arm-none-eabi/include/c++/10.3.1/bits/move.h ****       __a = _GLIBCXX_MOVE(__b);
 2178              		.loc 8 197 11 view .LVU547
 2179              	.LBE562:
 2180              	.LBE561:
 2181              	.LBE558:
 2182              	.LBB571:
 2183              	.LBB572:
 303:/Library/DaisyToolchain/0.2.0/arm/arm-none-eabi/include/c++/10.3.1/bits/std_function.h ****     : public _Maybe_unary_or_binary_function<_Res, _ArgTypes...>,
 2184              		.loc 1 303 11 view .LVU548
 2185 0066 3046     		mov	r0, r6
 2186              	.LBE572:
 2187              	.LBE571:
 2188              	.LBB574:
 2189              	.LBB565:
 2190              	.LBB563:
 198:/Library/DaisyToolchain/0.2.0/arm/arm-none-eabi/include/c++/10.3.1/bits/move.h ****       __b = _GLIBCXX_MOVE(__tmp);
 2191              		.loc 8 198 11 view .LVU549
 2192 0068 E269     		ldr	r2, [r4, #28]
 2193              		.loc 8 199 11 view .LVU550
 2194 006a E361     		str	r3, [r4, #28]
 2195              	.LBE563:
 2196              	.LBE565:
 2197              	.LBB566:
 2198              	.LBB567:
 197:/Library/DaisyToolchain/0.2.0/arm/arm-none-eabi/include/c++/10.3.1/bits/move.h ****       __a = _GLIBCXX_MOVE(__b);
 2199              		.loc 8 197 11 view .LVU551
 2200 006c 099B     		ldr	r3, [sp, #36]
 2201              	.LVL162:
 197:/Library/DaisyToolchain/0.2.0/arm/arm-none-eabi/include/c++/10.3.1/bits/move.h ****       __a = _GLIBCXX_MOVE(__b);
 2202              		.loc 8 197 11 view .LVU552
ARM GAS  /var/folders/wz/z09yph4n0qj4t7mjxhl6ttn80000gn/T//cc3KzP2n.s 			page 107


 2203              	.LBE567:
 2204              	.LBE566:
 2205              	.LBB569:
 2206              	.LBB564:
 198:/Library/DaisyToolchain/0.2.0/arm/arm-none-eabi/include/c++/10.3.1/bits/move.h ****       __b = _GLIBCXX_MOVE(__tmp);
 2207              		.loc 8 198 11 view .LVU553
 2208 006e 0892     		str	r2, [sp, #32]
 2209              	.LVL163:
 198:/Library/DaisyToolchain/0.2.0/arm/arm-none-eabi/include/c++/10.3.1/bits/move.h ****       __b = _GLIBCXX_MOVE(__tmp);
 2210              		.loc 8 198 11 view .LVU554
 2211              	.LBE564:
 2212              	.LBE569:
 2213              	.LBB570:
 2214              	.LBI566:
 189:/Library/DaisyToolchain/0.2.0/arm/arm-none-eabi/include/c++/10.3.1/bits/move.h ****     _GLIBCXX_NOEXCEPT_IF(__and_<is_nothrow_move_constructible<_Tp>,
 2215              		.loc 8 189 5 is_stmt 1 view .LVU555
 2216              	.LBB568:
 198:/Library/DaisyToolchain/0.2.0/arm/arm-none-eabi/include/c++/10.3.1/bits/move.h ****       __b = _GLIBCXX_MOVE(__tmp);
 2217              		.loc 8 198 11 is_stmt 0 view .LVU556
 2218 0070 226A     		ldr	r2, [r4, #32]
 2219              		.loc 8 199 11 view .LVU557
 2220 0072 2362     		str	r3, [r4, #32]
 198:/Library/DaisyToolchain/0.2.0/arm/arm-none-eabi/include/c++/10.3.1/bits/move.h ****       __b = _GLIBCXX_MOVE(__tmp);
 2221              		.loc 8 198 11 view .LVU558
 2222 0074 0992     		str	r2, [sp, #36]
 2223              	.LVL164:
 198:/Library/DaisyToolchain/0.2.0/arm/arm-none-eabi/include/c++/10.3.1/bits/move.h ****       __b = _GLIBCXX_MOVE(__tmp);
 2224              		.loc 8 198 11 view .LVU559
 2225              	.LBE568:
 2226              	.LBE570:
 2227              	.LBE574:
 2228              	.LBB575:
 2229              	.LBI571:
 303:/Library/DaisyToolchain/0.2.0/arm/arm-none-eabi/include/c++/10.3.1/bits/std_function.h ****     : public _Maybe_unary_or_binary_function<_Res, _ArgTypes...>,
 2230              		.loc 1 303 11 is_stmt 1 view .LVU560
 2231              	.LBB573:
 2232 0076 FFF7FEFF 		bl	_ZNSt14_Function_baseD2Ev
 2233              	.LVL165:
 303:/Library/DaisyToolchain/0.2.0/arm/arm-none-eabi/include/c++/10.3.1/bits/std_function.h ****     : public _Maybe_unary_or_binary_function<_Res, _ArgTypes...>,
 2234              		.loc 1 303 11 is_stmt 0 view .LVU561
 2235              	.LBE573:
 2236              	.LBE575:
 2237              	.LBE576:
 2238              	.LBE577:
  28:GUI/FX/BypassButton.h ****         isBypassed = true;
 2239              		.loc 5 28 9 is_stmt 1 view .LVU562
  29:GUI/FX/BypassButton.h ****     }
 2240              		.loc 5 29 9 view .LVU563
  28:GUI/FX/BypassButton.h ****         isBypassed = true;
 2241              		.loc 5 28 20 is_stmt 0 view .LVU564
 2242 007a 4FF48073 		mov	r3, #256
 2243              	.LBE555:
 2244              	.LBE554:
 2245              	.LBB579:
 2246              	.LBB580:
 303:/Library/DaisyToolchain/0.2.0/arm/arm-none-eabi/include/c++/10.3.1/bits/std_function.h ****     : public _Maybe_unary_or_binary_function<_Res, _ArgTypes...>,
 2247              		.loc 1 303 11 view .LVU565
ARM GAS  /var/folders/wz/z09yph4n0qj4t7mjxhl6ttn80000gn/T//cc3KzP2n.s 			page 108


 2248 007e 02A8     		add	r0, sp, #8
 2249              	.LVL166:
 303:/Library/DaisyToolchain/0.2.0/arm/arm-none-eabi/include/c++/10.3.1/bits/std_function.h ****     : public _Maybe_unary_or_binary_function<_Res, _ArgTypes...>,
 2250              		.loc 1 303 11 view .LVU566
 2251              	.LBE580:
 2252              	.LBE579:
 2253              	.LBB582:
 2254              	.LBB578:
  28:GUI/FX/BypassButton.h ****         isBypassed = true;
 2255              		.loc 5 28 20 view .LVU567
 2256 0080 A384     		strh	r3, [r4, #36]	@ movhi
 2257              	.LVL167:
  28:GUI/FX/BypassButton.h ****         isBypassed = true;
 2258              		.loc 5 28 20 view .LVU568
 2259              	.LBE578:
 2260              	.LBE582:
 2261              	.LBB583:
 2262              	.LBI579:
 303:/Library/DaisyToolchain/0.2.0/arm/arm-none-eabi/include/c++/10.3.1/bits/std_function.h ****     : public _Maybe_unary_or_binary_function<_Res, _ArgTypes...>,
 2263              		.loc 1 303 11 is_stmt 1 view .LVU569
 2264              	.LBB581:
 2265 0082 FFF7FEFF 		bl	_ZNSt14_Function_baseD2Ev
 2266              	.LVL168:
 303:/Library/DaisyToolchain/0.2.0/arm/arm-none-eabi/include/c++/10.3.1/bits/std_function.h ****     : public _Maybe_unary_or_binary_function<_Res, _ArgTypes...>,
 2267              		.loc 1 303 11 is_stmt 0 view .LVU570
 2268              	.LBE581:
 2269              	.LBE583:
  11:GUI/FX/DelayView.cpp ****     amount.init(trackID + ParameterIDs::Delay::amount, driver, lcd);
 2270              		.loc 4 11 5 is_stmt 1 view .LVU571
  11:GUI/FX/DelayView.cpp ****     amount.init(trackID + ParameterIDs::Delay::amount, driver, lcd);
 2271              		.loc 4 11 16 is_stmt 0 view .LVU572
 2272 0086 2046     		mov	r0, r4
 2273 0088 6368     		ldr	r3, [r4, #4]
 2274 008a 2A46     		mov	r2, r5
 2275 008c 50F8281B 		ldr	r1, [r0], #40
 2276 0090 2931     		adds	r1, r1, #41
 2277 0092 FFF7FEFF 		bl	_ZN13SteppedSlider4initEiP13EncoderDriverP8UiDriver
 2278              	.LVL169:
  12:GUI/FX/DelayView.cpp ****     size.init(trackID + ParameterIDs::Delay::size, driver, lcd);
 2279              		.loc 4 12 5 is_stmt 1 view .LVU573
  12:GUI/FX/DelayView.cpp ****     size.init(trackID + ParameterIDs::Delay::size, driver, lcd);
 2280              		.loc 4 12 14 is_stmt 0 view .LVU574
 2281 0096 2046     		mov	r0, r4
 2282 0098 6368     		ldr	r3, [r4, #4]
 2283 009a 2A46     		mov	r2, r5
 2284 009c 50F83C1B 		ldr	r1, [r0], #60
 2285 00a0 2A31     		adds	r1, r1, #42
 2286 00a2 FFF7FEFF 		bl	_ZN13SteppedSlider4initEiP13EncoderDriverP8UiDriver
 2287              	.LVL170:
  13:GUI/FX/DelayView.cpp ****     feedback.init(trackID + ParameterIDs::Delay::feedback, driver, lcd);
 2288              		.loc 4 13 5 is_stmt 1 view .LVU575
  13:GUI/FX/DelayView.cpp ****     feedback.init(trackID + ParameterIDs::Delay::feedback, driver, lcd);
 2289              		.loc 4 13 18 is_stmt 0 view .LVU576
 2290 00a6 2046     		mov	r0, r4
 2291 00a8 6368     		ldr	r3, [r4, #4]
 2292 00aa 2A46     		mov	r2, r5
 2293 00ac 50F8501B 		ldr	r1, [r0], #80
ARM GAS  /var/folders/wz/z09yph4n0qj4t7mjxhl6ttn80000gn/T//cc3KzP2n.s 			page 109


 2294 00b0 2B31     		adds	r1, r1, #43
 2295 00b2 FFF7FEFF 		bl	_ZN13SteppedSlider4initEiP13EncoderDriverP8UiDriver
 2296              	.LVL171:
  15:GUI/FX/DelayView.cpp ****     isOpen = false;
 2297              		.loc 4 15 5 is_stmt 1 view .LVU577
  16:GUI/FX/DelayView.cpp ****     isPainted = false;
 2298              		.loc 4 16 5 view .LVU578
  15:GUI/FX/DelayView.cpp ****     isOpen = false;
 2299              		.loc 4 15 12 is_stmt 0 view .LVU579
 2300 00b6 0023     		movs	r3, #0
 2301 00b8 A4F87830 		strh	r3, [r4, #120]	@ movhi
  17:GUI/FX/DelayView.cpp **** }
 2302              		.loc 4 17 1 view .LVU580
 2303 00bc 0AB0     		add	sp, sp, #40
 2304              		.cfi_def_cfa_offset 16
 2305              		@ sp needed
 2306 00be 70BD     		pop	{r4, r5, r6, pc}
 2307              	.LVL172:
 2308              	.L75:
  17:GUI/FX/DelayView.cpp **** }
 2309              		.loc 4 17 1 view .LVU581
 2310              		.align	2
 2311              	.L74:
 2312 00c0 00000000 		.word	.LC4
 2313              		.cfi_endproc
 2314              	.LFE5108:
 2316              		.text
 2317              	.Letext0:
 2318              		.file 9 "/Library/DaisyToolchain/0.2.0/arm/arm-none-eabi/include/machine/_default_types.h"
 2319              		.file 10 "/Library/DaisyToolchain/0.2.0/arm/arm-none-eabi/include/sys/_stdint.h"
 2320              		.file 11 "/Library/DaisyToolchain/0.2.0/arm/arm-none-eabi/include/stdint.h"
 2321              		.file 12 "/Library/DaisyToolchain/0.2.0/arm/lib/gcc/arm-none-eabi/10.3.1/include/stddef.h"
 2322              		.file 13 "/Library/DaisyToolchain/0.2.0/arm/arm-none-eabi/include/c++/10.3.1/cmath"
 2323              		.file 14 "/Library/DaisyToolchain/0.2.0/arm/arm-none-eabi/include/c++/10.3.1/bits/std_abs.h"
 2324              		.file 15 "/Library/DaisyToolchain/0.2.0/arm/arm-none-eabi/include/c++/10.3.1/cstdlib"
 2325              		.file 16 "/Library/DaisyToolchain/0.2.0/arm/arm-none-eabi/include/c++/10.3.1/cstdint"
 2326              		.file 17 "/Library/DaisyToolchain/0.2.0/arm/arm-none-eabi/include/c++/10.3.1/type_traits"
 2327              		.file 18 "/Library/DaisyToolchain/0.2.0/arm/arm-none-eabi/include/c++/10.3.1/arm-none-eabi/thumb/v
 2328              		.file 19 "/Library/DaisyToolchain/0.2.0/arm/arm-none-eabi/include/c++/10.3.1/bits/stl_pair.h"
 2329              		.file 20 "/Library/DaisyToolchain/0.2.0/arm/arm-none-eabi/include/c++/10.3.1/debug/debug.h"
 2330              		.file 21 "/Library/DaisyToolchain/0.2.0/arm/arm-none-eabi/include/c++/10.3.1/bits/algorithmfwd.h"
 2331              		.file 22 "/Library/DaisyToolchain/0.2.0/arm/arm-none-eabi/include/c++/10.3.1/bits/exception_ptr.h"
 2332              		.file 23 "/Library/DaisyToolchain/0.2.0/arm/arm-none-eabi/include/c++/10.3.1/cstdarg"
 2333              		.file 24 "/Library/DaisyToolchain/0.2.0/arm/arm-none-eabi/include/c++/10.3.1/cstdio"
 2334              		.file 25 "/Library/DaisyToolchain/0.2.0/arm/arm-none-eabi/include/c++/10.3.1/cstring"
 2335              		.file 26 "/Library/DaisyToolchain/0.2.0/arm/arm-none-eabi/include/c++/10.3.1/bits/uses_allocator.h
 2336              		.file 27 "/Library/DaisyToolchain/0.2.0/arm/arm-none-eabi/include/c++/10.3.1/tuple"
 2337              		.file 28 "/Library/DaisyToolchain/0.2.0/arm/arm-none-eabi/include/c++/10.3.1/functional"
 2338              		.file 29 "/Library/DaisyToolchain/0.2.0/arm/arm-none-eabi/include/c++/10.3.1/bits/refwrap.h"
 2339              		.file 30 "/Library/DaisyToolchain/0.2.0/arm/arm-none-eabi/include/c++/10.3.1/cwchar"
 2340              		.file 31 "/Library/DaisyToolchain/0.2.0/arm/arm-none-eabi/include/c++/10.3.1/clocale"
 2341              		.file 32 "/Library/DaisyToolchain/0.2.0/arm/arm-none-eabi/include/c++/10.3.1/bits/basic_string.h"
 2342              		.file 33 "/Library/DaisyToolchain/0.2.0/arm/arm-none-eabi/include/c++/10.3.1/bits/stl_iterator.h"
 2343              		.file 34 "/Library/DaisyToolchain/0.2.0/arm/arm-none-eabi/include/c++/10.3.1/bits/stl_function.h"
 2344              		.file 35 "/Library/DaisyToolchain/0.2.0/arm/arm-none-eabi/include/c++/10.3.1/bits/allocator.h"
 2345              		.file 36 "/Library/DaisyToolchain/0.2.0/arm/arm-none-eabi/include/c++/10.3.1/bits/alloc_traits.h"
 2346              		.file 37 "/Library/DaisyToolchain/0.2.0/arm/arm-none-eabi/include/c++/10.3.1/bits/vector.tcc"
ARM GAS  /var/folders/wz/z09yph4n0qj4t7mjxhl6ttn80000gn/T//cc3KzP2n.s 			page 110


 2347              		.file 38 "/Library/DaisyToolchain/0.2.0/arm/arm-none-eabi/include/c++/10.3.1/bits/stl_iterator_bas
 2348              		.file 39 "/Library/DaisyToolchain/0.2.0/arm/arm-none-eabi/include/c++/10.3.1/bits/predefined_ops.h
 2349              		.file 40 "/Library/DaisyToolchain/0.2.0/arm/arm-none-eabi/include/c++/10.3.1/ext/new_allocator.h"
 2350              		.file 41 "/Library/DaisyToolchain/0.2.0/arm/arm-none-eabi/include/c++/10.3.1/ext/alloc_traits.h"
 2351              		.file 42 "/Library/DaisyToolchain/0.2.0/arm/arm-none-eabi/include/sys/_types.h"
 2352              		.file 43 "/Library/DaisyToolchain/0.2.0/arm/arm-none-eabi/include/sys/reent.h"
 2353              		.file 44 "/Library/DaisyToolchain/0.2.0/arm/arm-none-eabi/include/sys/lock.h"
 2354              		.file 45 "/Library/DaisyToolchain/0.2.0/arm/arm-none-eabi/include/math.h"
 2355              		.file 46 "/Library/DaisyToolchain/0.2.0/arm/arm-none-eabi/include/stdlib.h"
 2356              		.file 47 "/Library/DaisyToolchain/0.2.0/arm/arm-none-eabi/include/c++/10.3.1/math.h"
 2357              		.file 48 "/Library/DaisyToolchain/0.2.0/arm/arm-none-eabi/include/c++/10.3.1/stdlib.h"
 2358              		.file 49 "../../../libDaisy//src/daisy_core.h"
 2359              		.file 50 "../../../libDaisy//src/hid/switch.h"
 2360              		.file 51 "../../../libDaisy//src/per/spi.h"
 2361              		.file 52 "../../../libDaisy//src/util/wav_format.h"
 2362              		.file 53 "../../../libDaisy//src/dev/max11300.h"
 2363              		.file 54 "../../../libDaisy//src/daisy_seed.h"
 2364              		.file 55 "../../../libDaisy//src/per/gpio.h"
 2365              		.file 56 "/Library/DaisyToolchain/0.2.0/arm/lib/gcc/arm-none-eabi/10.3.1/include/stdarg.h"
 2366              		.file 57 "/Library/DaisyToolchain/0.2.0/arm/arm-none-eabi/include/stdio.h"
 2367              		.file 58 "../../../libDaisy//src/util/oled_fonts.h"
 2368              		.file 59 "/Library/DaisyToolchain/0.2.0/arm/arm-none-eabi/include/string.h"
 2369              		.file 60 "GUI/FX/../../Drivers/../Parameters/BinaryParameter.h"
 2370              		.file 61 "GUI/FX/../../Drivers/KeypadDriver.h"
 2371              		.file 62 "../../../DaisySP//Source/Control/adenv.h"
 2372              		.file 63 "../../../DaisySP//Source/Utility/dsp.h"
 2373              		.file 64 "/Library/DaisyToolchain/0.2.0/arm/arm-none-eabi/include/wchar.h"
 2374              		.file 65 "/Library/DaisyToolchain/0.2.0/arm/arm-none-eabi/include/locale.h"
 2375              		.file 66 "GUI/FX/../../Drivers/../Parameters/ParameterIDs.h"
 2376              		.file 67 "GUI/FX/../../Drivers/../Parameters/SteppedParameter.h"
 2377              		.file 68 "GUI/FX/StyleSheet.h"
 2378              		.file 69 "../../../libDaisy//src/dev/sr_595.h"
 2379              		.file 70 "GUI/FX/SteppedSlider.h"
 2380              		.file 71 "GUI/FX/DelayView.h"
 2381              		.file 72 "/Library/DaisyToolchain/0.2.0/arm/arm-none-eabi/include/c++/10.3.1/bits/functexcept.h"
 2382              		.file 73 "<built-in>"
ARM GAS  /var/folders/wz/z09yph4n0qj4t7mjxhl6ttn80000gn/T//cc3KzP2n.s 			page 111


DEFINED SYMBOLS
                            *ABS*:0000000000000000 DelayView.cpp
/var/folders/wz/z09yph4n0qj4t7mjxhl6ttn80000gn/T//cc3KzP2n.s:19     .text._ZNSt14_Function_baseD2Ev:0000000000000000 $t
/var/folders/wz/z09yph4n0qj4t7mjxhl6ttn80000gn/T//cc3KzP2n.s:25     .text._ZNSt14_Function_baseD2Ev:0000000000000000 _ZNSt14_Function_baseD2Ev
/var/folders/wz/z09yph4n0qj4t7mjxhl6ttn80000gn/T//cc3KzP2n.s:25     .text._ZNSt14_Function_baseD2Ev:0000000000000000 _ZNSt14_Function_baseD1Ev
/var/folders/wz/z09yph4n0qj4t7mjxhl6ttn80000gn/T//cc3KzP2n.s:67     .text._ZN8UiDriver9DrawPixelEjjhh:0000000000000000 $t
/var/folders/wz/z09yph4n0qj4t7mjxhl6ttn80000gn/T//cc3KzP2n.s:73     .text._ZN8UiDriver9DrawPixelEjjhh:0000000000000000 _ZN8UiDriver9DrawPixelEjjhh
/var/folders/wz/z09yph4n0qj4t7mjxhl6ttn80000gn/T//cc3KzP2n.s:236    .text._ZN8UiDriver9DrawPixelEjjhh:000000000000008c $d
/var/folders/wz/z09yph4n0qj4t7mjxhl6ttn80000gn/T//cc3KzP2n.s:242    .text._ZN8UiDriver8FillRectERKN5daisy9RectangleEhh:0000000000000000 $t
/var/folders/wz/z09yph4n0qj4t7mjxhl6ttn80000gn/T//cc3KzP2n.s:248    .text._ZN8UiDriver8FillRectERKN5daisy9RectangleEhh:0000000000000000 _ZN8UiDriver8FillRectERKN5daisy9RectangleEhh
/var/folders/wz/z09yph4n0qj4t7mjxhl6ttn80000gn/T//cc3KzP2n.s:383    .text._ZN8UiDriver8DrawLineEjjjjhh:0000000000000000 $t
/var/folders/wz/z09yph4n0qj4t7mjxhl6ttn80000gn/T//cc3KzP2n.s:389    .text._ZN8UiDriver8DrawLineEjjjjhh:0000000000000000 _ZN8UiDriver8DrawLineEjjjjhh
/var/folders/wz/z09yph4n0qj4t7mjxhl6ttn80000gn/T//cc3KzP2n.s:681    .text._ZN8UiDriver8DrawRectERKN5daisy9RectangleEhh:0000000000000000 $t
/var/folders/wz/z09yph4n0qj4t7mjxhl6ttn80000gn/T//cc3KzP2n.s:687    .text._ZN8UiDriver8DrawRectERKN5daisy9RectangleEhh:0000000000000000 _ZN8UiDriver8DrawRectERKN5daisy9RectangleEhh
/var/folders/wz/z09yph4n0qj4t7mjxhl6ttn80000gn/T//cc3KzP2n.s:837    .text._ZN8UiDriver11WriteStringEPKctt7FontDefh.isra.0:0000000000000000 $t
/var/folders/wz/z09yph4n0qj4t7mjxhl6ttn80000gn/T//cc3KzP2n.s:842    .text._ZN8UiDriver11WriteStringEPKctt7FontDefh.isra.0:0000000000000000 _ZN8UiDriver11WriteStringEPKctt7FontDefh.isra.0
/var/folders/wz/z09yph4n0qj4t7mjxhl6ttn80000gn/T//cc3KzP2n.s:1078   .text._ZN9DelayView7repaintEv:0000000000000000 $t
/var/folders/wz/z09yph4n0qj4t7mjxhl6ttn80000gn/T//cc3KzP2n.s:1084   .text._ZN9DelayView7repaintEv:0000000000000000 _ZN9DelayView7repaintEv
/var/folders/wz/z09yph4n0qj4t7mjxhl6ttn80000gn/T//cc3KzP2n.s:1832   .text._ZN9DelayView7repaintEv:00000000000001a4 $d
/var/folders/wz/z09yph4n0qj4t7mjxhl6ttn80000gn/T//cc3KzP2n.s:1843   .text._ZN9DelayView4tickEv:0000000000000000 $t
/var/folders/wz/z09yph4n0qj4t7mjxhl6ttn80000gn/T//cc3KzP2n.s:1849   .text._ZN9DelayView4tickEv:0000000000000000 _ZN9DelayView4tickEv
/var/folders/wz/z09yph4n0qj4t7mjxhl6ttn80000gn/T//cc3KzP2n.s:1905   .text._ZN9DelayView5clearEv:0000000000000000 $t
/var/folders/wz/z09yph4n0qj4t7mjxhl6ttn80000gn/T//cc3KzP2n.s:1911   .text._ZN9DelayView5clearEv:0000000000000000 _ZN9DelayView5clearEv
/var/folders/wz/z09yph4n0qj4t7mjxhl6ttn80000gn/T//cc3KzP2n.s:1925   .text._ZNSt8functionIFvvEEC2ERKS1_:0000000000000000 $t
/var/folders/wz/z09yph4n0qj4t7mjxhl6ttn80000gn/T//cc3KzP2n.s:1931   .text._ZNSt8functionIFvvEEC2ERKS1_:0000000000000000 _ZNSt8functionIFvvEEC2ERKS1_
/var/folders/wz/z09yph4n0qj4t7mjxhl6ttn80000gn/T//cc3KzP2n.s:1931   .text._ZNSt8functionIFvvEEC2ERKS1_:0000000000000000 _ZNSt8functionIFvvEEC1ERKS1_
/var/folders/wz/z09yph4n0qj4t7mjxhl6ttn80000gn/T//cc3KzP2n.s:2014   .text._ZN9DelayView4initEiP13EncoderDriverP8UiDriverP12KeypadDriver:0000000000000000 $t
/var/folders/wz/z09yph4n0qj4t7mjxhl6ttn80000gn/T//cc3KzP2n.s:2020   .text._ZN9DelayView4initEiP13EncoderDriverP8UiDriverP12KeypadDriver:0000000000000000 _ZN9DelayView4initEiP13EncoderDriverP8UiDriverP12KeypadDriver
/var/folders/wz/z09yph4n0qj4t7mjxhl6ttn80000gn/T//cc3KzP2n.s:2312   .text._ZN9DelayView4initEiP13EncoderDriverP8UiDriverP12KeypadDriver:00000000000000c0 $d
                           .group:0000000000000000 _ZNSt14_Function_baseD5Ev
                           .group:0000000000000000 _ZNSt8functionIFvvEEC5ERKS1_

UNDEFINED SYMBOLS
_ZN19ILI9341SpiTransport9color_memE
_ZN19ILI9341SpiTransport12frame_bufferE
snprintf
Font_16x26
Font_11x18
Font_7x10
_ZN13SteppedSlider4tickEv
_ZSt24__throw_out_of_range_fmtPKcz
_ZN13SteppedSlider4initEiP13EncoderDriverP8UiDriver
