ARM GAS  /var/folders/wz/z09yph4n0qj4t7mjxhl6ttn80000gn/T//cc4SdtXb.s 			page 1


   1              		.cpu cortex-m7
   2              		.arch armv7e-m
   3              		.fpu fpv5-d16
   4              		.eabi_attribute 28, 1
   5              		.eabi_attribute 20, 1
   6              		.eabi_attribute 21, 1
   7              		.eabi_attribute 23, 3
   8              		.eabi_attribute 24, 1
   9              		.eabi_attribute 25, 1
  10              		.eabi_attribute 26, 1
  11              		.eabi_attribute 30, 6
  12              		.eabi_attribute 34, 1
  13              		.eabi_attribute 18, 4
  14              		.file	"Delay.cpp"
  15              		.text
  16              	.Ltext0:
  17              		.cfi_sections	.debug_frame
  18              		.section	.rodata._ZStL19piecewise_construct,"a"
  19              		.align	2
  22              	_ZStL19piecewise_construct:
  23 0000 00       		.space	1
  24              		.section	.text._ZnwjPv,"axG",%progbits,_ZnwjPv,comdat
  25              		.align	1
  26              		.weak	_ZnwjPv
  27              		.syntax unified
  28              		.thumb
  29              		.thumb_func
  31              	_ZnwjPv:
  32              	.LFB1119:
  33              		.file 1 "/Library/DaisyToolchain/0.2.0/arm/arm-none-eabi/include/c++/10.3.1/new"
   1:/Library/DaisyToolchain/0.2.0/arm/arm-none-eabi/include/c++/10.3.1/new **** // The -*- C++ -*- dynamic memory management header.
   2:/Library/DaisyToolchain/0.2.0/arm/arm-none-eabi/include/c++/10.3.1/new **** 
   3:/Library/DaisyToolchain/0.2.0/arm/arm-none-eabi/include/c++/10.3.1/new **** // Copyright (C) 1994-2020 Free Software Foundation, Inc.
   4:/Library/DaisyToolchain/0.2.0/arm/arm-none-eabi/include/c++/10.3.1/new **** 
   5:/Library/DaisyToolchain/0.2.0/arm/arm-none-eabi/include/c++/10.3.1/new **** // This file is part of GCC.
   6:/Library/DaisyToolchain/0.2.0/arm/arm-none-eabi/include/c++/10.3.1/new **** //
   7:/Library/DaisyToolchain/0.2.0/arm/arm-none-eabi/include/c++/10.3.1/new **** // GCC is free software; you can redistribute it and/or modify
   8:/Library/DaisyToolchain/0.2.0/arm/arm-none-eabi/include/c++/10.3.1/new **** // it under the terms of the GNU General Public License as published by
   9:/Library/DaisyToolchain/0.2.0/arm/arm-none-eabi/include/c++/10.3.1/new **** // the Free Software Foundation; either version 3, or (at your option)
  10:/Library/DaisyToolchain/0.2.0/arm/arm-none-eabi/include/c++/10.3.1/new **** // any later version.
  11:/Library/DaisyToolchain/0.2.0/arm/arm-none-eabi/include/c++/10.3.1/new **** // 
  12:/Library/DaisyToolchain/0.2.0/arm/arm-none-eabi/include/c++/10.3.1/new **** // GCC is distributed in the hope that it will be useful,
  13:/Library/DaisyToolchain/0.2.0/arm/arm-none-eabi/include/c++/10.3.1/new **** // but WITHOUT ANY WARRANTY; without even the implied warranty of
  14:/Library/DaisyToolchain/0.2.0/arm/arm-none-eabi/include/c++/10.3.1/new **** // MERCHANTABILITY or FITNESS FOR A PARTICULAR PURPOSE.  See the
  15:/Library/DaisyToolchain/0.2.0/arm/arm-none-eabi/include/c++/10.3.1/new **** // GNU General Public License for more details.
  16:/Library/DaisyToolchain/0.2.0/arm/arm-none-eabi/include/c++/10.3.1/new **** // 
  17:/Library/DaisyToolchain/0.2.0/arm/arm-none-eabi/include/c++/10.3.1/new **** // Under Section 7 of GPL version 3, you are granted additional
  18:/Library/DaisyToolchain/0.2.0/arm/arm-none-eabi/include/c++/10.3.1/new **** // permissions described in the GCC Runtime Library Exception, version
  19:/Library/DaisyToolchain/0.2.0/arm/arm-none-eabi/include/c++/10.3.1/new **** // 3.1, as published by the Free Software Foundation.
  20:/Library/DaisyToolchain/0.2.0/arm/arm-none-eabi/include/c++/10.3.1/new **** 
  21:/Library/DaisyToolchain/0.2.0/arm/arm-none-eabi/include/c++/10.3.1/new **** // You should have received a copy of the GNU General Public License and
  22:/Library/DaisyToolchain/0.2.0/arm/arm-none-eabi/include/c++/10.3.1/new **** // a copy of the GCC Runtime Library Exception along with this program;
  23:/Library/DaisyToolchain/0.2.0/arm/arm-none-eabi/include/c++/10.3.1/new **** // see the files COPYING3 and COPYING.RUNTIME respectively.  If not, see
  24:/Library/DaisyToolchain/0.2.0/arm/arm-none-eabi/include/c++/10.3.1/new **** // <http://www.gnu.org/licenses/>.
  25:/Library/DaisyToolchain/0.2.0/arm/arm-none-eabi/include/c++/10.3.1/new **** 
  26:/Library/DaisyToolchain/0.2.0/arm/arm-none-eabi/include/c++/10.3.1/new **** /** @file new
  27:/Library/DaisyToolchain/0.2.0/arm/arm-none-eabi/include/c++/10.3.1/new ****  *  This is a Standard C++ Library header.
ARM GAS  /var/folders/wz/z09yph4n0qj4t7mjxhl6ttn80000gn/T//cc4SdtXb.s 			page 2


  28:/Library/DaisyToolchain/0.2.0/arm/arm-none-eabi/include/c++/10.3.1/new ****  *
  29:/Library/DaisyToolchain/0.2.0/arm/arm-none-eabi/include/c++/10.3.1/new ****  *  The header @c new defines several functions to manage dynamic memory and
  30:/Library/DaisyToolchain/0.2.0/arm/arm-none-eabi/include/c++/10.3.1/new ****  *  handling memory allocation errors; see
  31:/Library/DaisyToolchain/0.2.0/arm/arm-none-eabi/include/c++/10.3.1/new ****  *  https://gcc.gnu.org/onlinedocs/libstdc++/manual/dynamic_memory.html
  32:/Library/DaisyToolchain/0.2.0/arm/arm-none-eabi/include/c++/10.3.1/new ****  *  for more.
  33:/Library/DaisyToolchain/0.2.0/arm/arm-none-eabi/include/c++/10.3.1/new ****  */
  34:/Library/DaisyToolchain/0.2.0/arm/arm-none-eabi/include/c++/10.3.1/new **** 
  35:/Library/DaisyToolchain/0.2.0/arm/arm-none-eabi/include/c++/10.3.1/new **** #ifndef _NEW
  36:/Library/DaisyToolchain/0.2.0/arm/arm-none-eabi/include/c++/10.3.1/new **** #define _NEW
  37:/Library/DaisyToolchain/0.2.0/arm/arm-none-eabi/include/c++/10.3.1/new **** 
  38:/Library/DaisyToolchain/0.2.0/arm/arm-none-eabi/include/c++/10.3.1/new **** #pragma GCC system_header
  39:/Library/DaisyToolchain/0.2.0/arm/arm-none-eabi/include/c++/10.3.1/new **** 
  40:/Library/DaisyToolchain/0.2.0/arm/arm-none-eabi/include/c++/10.3.1/new **** #include <bits/c++config.h>
  41:/Library/DaisyToolchain/0.2.0/arm/arm-none-eabi/include/c++/10.3.1/new **** #include <exception>
  42:/Library/DaisyToolchain/0.2.0/arm/arm-none-eabi/include/c++/10.3.1/new **** 
  43:/Library/DaisyToolchain/0.2.0/arm/arm-none-eabi/include/c++/10.3.1/new **** #pragma GCC visibility push(default)
  44:/Library/DaisyToolchain/0.2.0/arm/arm-none-eabi/include/c++/10.3.1/new **** 
  45:/Library/DaisyToolchain/0.2.0/arm/arm-none-eabi/include/c++/10.3.1/new **** extern "C++" {
  46:/Library/DaisyToolchain/0.2.0/arm/arm-none-eabi/include/c++/10.3.1/new **** 
  47:/Library/DaisyToolchain/0.2.0/arm/arm-none-eabi/include/c++/10.3.1/new **** namespace std 
  48:/Library/DaisyToolchain/0.2.0/arm/arm-none-eabi/include/c++/10.3.1/new **** {
  49:/Library/DaisyToolchain/0.2.0/arm/arm-none-eabi/include/c++/10.3.1/new ****   /**
  50:/Library/DaisyToolchain/0.2.0/arm/arm-none-eabi/include/c++/10.3.1/new ****    *  @brief  Exception possibly thrown by @c new.
  51:/Library/DaisyToolchain/0.2.0/arm/arm-none-eabi/include/c++/10.3.1/new ****    *  @ingroup exceptions
  52:/Library/DaisyToolchain/0.2.0/arm/arm-none-eabi/include/c++/10.3.1/new ****    *
  53:/Library/DaisyToolchain/0.2.0/arm/arm-none-eabi/include/c++/10.3.1/new ****    *  @c bad_alloc (or classes derived from it) is used to report allocation
  54:/Library/DaisyToolchain/0.2.0/arm/arm-none-eabi/include/c++/10.3.1/new ****    *  errors from the throwing forms of @c new.  */
  55:/Library/DaisyToolchain/0.2.0/arm/arm-none-eabi/include/c++/10.3.1/new ****   class bad_alloc : public exception 
  56:/Library/DaisyToolchain/0.2.0/arm/arm-none-eabi/include/c++/10.3.1/new ****   {
  57:/Library/DaisyToolchain/0.2.0/arm/arm-none-eabi/include/c++/10.3.1/new ****   public:
  58:/Library/DaisyToolchain/0.2.0/arm/arm-none-eabi/include/c++/10.3.1/new ****     bad_alloc() throw() { }
  59:/Library/DaisyToolchain/0.2.0/arm/arm-none-eabi/include/c++/10.3.1/new **** 
  60:/Library/DaisyToolchain/0.2.0/arm/arm-none-eabi/include/c++/10.3.1/new **** #if __cplusplus >= 201103L
  61:/Library/DaisyToolchain/0.2.0/arm/arm-none-eabi/include/c++/10.3.1/new ****     bad_alloc(const bad_alloc&) = default;
  62:/Library/DaisyToolchain/0.2.0/arm/arm-none-eabi/include/c++/10.3.1/new ****     bad_alloc& operator=(const bad_alloc&) = default;
  63:/Library/DaisyToolchain/0.2.0/arm/arm-none-eabi/include/c++/10.3.1/new **** #endif
  64:/Library/DaisyToolchain/0.2.0/arm/arm-none-eabi/include/c++/10.3.1/new **** 
  65:/Library/DaisyToolchain/0.2.0/arm/arm-none-eabi/include/c++/10.3.1/new ****     // This declaration is not useless:
  66:/Library/DaisyToolchain/0.2.0/arm/arm-none-eabi/include/c++/10.3.1/new ****     // http://gcc.gnu.org/onlinedocs/gcc-3.0.2/gcc_6.html#SEC118
  67:/Library/DaisyToolchain/0.2.0/arm/arm-none-eabi/include/c++/10.3.1/new ****     virtual ~bad_alloc() throw();
  68:/Library/DaisyToolchain/0.2.0/arm/arm-none-eabi/include/c++/10.3.1/new **** 
  69:/Library/DaisyToolchain/0.2.0/arm/arm-none-eabi/include/c++/10.3.1/new ****     // See comment in eh_exception.cc.
  70:/Library/DaisyToolchain/0.2.0/arm/arm-none-eabi/include/c++/10.3.1/new ****     virtual const char* what() const throw();
  71:/Library/DaisyToolchain/0.2.0/arm/arm-none-eabi/include/c++/10.3.1/new ****   };
  72:/Library/DaisyToolchain/0.2.0/arm/arm-none-eabi/include/c++/10.3.1/new **** 
  73:/Library/DaisyToolchain/0.2.0/arm/arm-none-eabi/include/c++/10.3.1/new **** #if __cplusplus >= 201103L
  74:/Library/DaisyToolchain/0.2.0/arm/arm-none-eabi/include/c++/10.3.1/new ****   class bad_array_new_length : public bad_alloc
  75:/Library/DaisyToolchain/0.2.0/arm/arm-none-eabi/include/c++/10.3.1/new ****   {
  76:/Library/DaisyToolchain/0.2.0/arm/arm-none-eabi/include/c++/10.3.1/new ****   public:
  77:/Library/DaisyToolchain/0.2.0/arm/arm-none-eabi/include/c++/10.3.1/new ****     bad_array_new_length() throw() { }
  78:/Library/DaisyToolchain/0.2.0/arm/arm-none-eabi/include/c++/10.3.1/new **** 
  79:/Library/DaisyToolchain/0.2.0/arm/arm-none-eabi/include/c++/10.3.1/new ****     // This declaration is not useless:
  80:/Library/DaisyToolchain/0.2.0/arm/arm-none-eabi/include/c++/10.3.1/new ****     // http://gcc.gnu.org/onlinedocs/gcc-3.0.2/gcc_6.html#SEC118
  81:/Library/DaisyToolchain/0.2.0/arm/arm-none-eabi/include/c++/10.3.1/new ****     virtual ~bad_array_new_length() throw();
  82:/Library/DaisyToolchain/0.2.0/arm/arm-none-eabi/include/c++/10.3.1/new **** 
  83:/Library/DaisyToolchain/0.2.0/arm/arm-none-eabi/include/c++/10.3.1/new ****     // See comment in eh_exception.cc.
  84:/Library/DaisyToolchain/0.2.0/arm/arm-none-eabi/include/c++/10.3.1/new ****     virtual const char* what() const throw();
ARM GAS  /var/folders/wz/z09yph4n0qj4t7mjxhl6ttn80000gn/T//cc4SdtXb.s 			page 3


  85:/Library/DaisyToolchain/0.2.0/arm/arm-none-eabi/include/c++/10.3.1/new ****   };
  86:/Library/DaisyToolchain/0.2.0/arm/arm-none-eabi/include/c++/10.3.1/new **** #endif
  87:/Library/DaisyToolchain/0.2.0/arm/arm-none-eabi/include/c++/10.3.1/new **** 
  88:/Library/DaisyToolchain/0.2.0/arm/arm-none-eabi/include/c++/10.3.1/new **** #if __cpp_aligned_new
  89:/Library/DaisyToolchain/0.2.0/arm/arm-none-eabi/include/c++/10.3.1/new ****   enum class align_val_t: size_t {};
  90:/Library/DaisyToolchain/0.2.0/arm/arm-none-eabi/include/c++/10.3.1/new **** #endif
  91:/Library/DaisyToolchain/0.2.0/arm/arm-none-eabi/include/c++/10.3.1/new **** 
  92:/Library/DaisyToolchain/0.2.0/arm/arm-none-eabi/include/c++/10.3.1/new ****   struct nothrow_t
  93:/Library/DaisyToolchain/0.2.0/arm/arm-none-eabi/include/c++/10.3.1/new ****   {
  94:/Library/DaisyToolchain/0.2.0/arm/arm-none-eabi/include/c++/10.3.1/new **** #if __cplusplus >= 201103L
  95:/Library/DaisyToolchain/0.2.0/arm/arm-none-eabi/include/c++/10.3.1/new ****     explicit nothrow_t() = default;
  96:/Library/DaisyToolchain/0.2.0/arm/arm-none-eabi/include/c++/10.3.1/new **** #endif
  97:/Library/DaisyToolchain/0.2.0/arm/arm-none-eabi/include/c++/10.3.1/new ****   };
  98:/Library/DaisyToolchain/0.2.0/arm/arm-none-eabi/include/c++/10.3.1/new **** 
  99:/Library/DaisyToolchain/0.2.0/arm/arm-none-eabi/include/c++/10.3.1/new ****   extern const nothrow_t nothrow;
 100:/Library/DaisyToolchain/0.2.0/arm/arm-none-eabi/include/c++/10.3.1/new **** 
 101:/Library/DaisyToolchain/0.2.0/arm/arm-none-eabi/include/c++/10.3.1/new ****   /** If you write your own error handler to be called by @c new, it must
 102:/Library/DaisyToolchain/0.2.0/arm/arm-none-eabi/include/c++/10.3.1/new ****    *  be of this type.  */
 103:/Library/DaisyToolchain/0.2.0/arm/arm-none-eabi/include/c++/10.3.1/new ****   typedef void (*new_handler)();
 104:/Library/DaisyToolchain/0.2.0/arm/arm-none-eabi/include/c++/10.3.1/new **** 
 105:/Library/DaisyToolchain/0.2.0/arm/arm-none-eabi/include/c++/10.3.1/new ****   /// Takes a replacement handler as the argument, returns the
 106:/Library/DaisyToolchain/0.2.0/arm/arm-none-eabi/include/c++/10.3.1/new ****   /// previous handler.
 107:/Library/DaisyToolchain/0.2.0/arm/arm-none-eabi/include/c++/10.3.1/new ****   new_handler set_new_handler(new_handler) throw();
 108:/Library/DaisyToolchain/0.2.0/arm/arm-none-eabi/include/c++/10.3.1/new **** 
 109:/Library/DaisyToolchain/0.2.0/arm/arm-none-eabi/include/c++/10.3.1/new **** #if __cplusplus >= 201103L
 110:/Library/DaisyToolchain/0.2.0/arm/arm-none-eabi/include/c++/10.3.1/new ****   /// Return the current new handler.
 111:/Library/DaisyToolchain/0.2.0/arm/arm-none-eabi/include/c++/10.3.1/new ****   new_handler get_new_handler() noexcept;
 112:/Library/DaisyToolchain/0.2.0/arm/arm-none-eabi/include/c++/10.3.1/new **** #endif
 113:/Library/DaisyToolchain/0.2.0/arm/arm-none-eabi/include/c++/10.3.1/new **** } // namespace std
 114:/Library/DaisyToolchain/0.2.0/arm/arm-none-eabi/include/c++/10.3.1/new **** 
 115:/Library/DaisyToolchain/0.2.0/arm/arm-none-eabi/include/c++/10.3.1/new **** //@{
 116:/Library/DaisyToolchain/0.2.0/arm/arm-none-eabi/include/c++/10.3.1/new **** /** These are replaceable signatures:
 117:/Library/DaisyToolchain/0.2.0/arm/arm-none-eabi/include/c++/10.3.1/new ****  *  - normal single new and delete (no arguments, throw @c bad_alloc on error)
 118:/Library/DaisyToolchain/0.2.0/arm/arm-none-eabi/include/c++/10.3.1/new ****  *  - normal array new and delete (same)
 119:/Library/DaisyToolchain/0.2.0/arm/arm-none-eabi/include/c++/10.3.1/new ****  *  - @c nothrow single new and delete (take a @c nothrow argument, return
 120:/Library/DaisyToolchain/0.2.0/arm/arm-none-eabi/include/c++/10.3.1/new ****  *    @c NULL on error)
 121:/Library/DaisyToolchain/0.2.0/arm/arm-none-eabi/include/c++/10.3.1/new ****  *  - @c nothrow array new and delete (same)
 122:/Library/DaisyToolchain/0.2.0/arm/arm-none-eabi/include/c++/10.3.1/new ****  *
 123:/Library/DaisyToolchain/0.2.0/arm/arm-none-eabi/include/c++/10.3.1/new ****  *  Placement new and delete signatures (take a memory address argument,
 124:/Library/DaisyToolchain/0.2.0/arm/arm-none-eabi/include/c++/10.3.1/new ****  *  does nothing) may not be replaced by a user's program.
 125:/Library/DaisyToolchain/0.2.0/arm/arm-none-eabi/include/c++/10.3.1/new **** */
 126:/Library/DaisyToolchain/0.2.0/arm/arm-none-eabi/include/c++/10.3.1/new **** _GLIBCXX_NODISCARD void* operator new(std::size_t) _GLIBCXX_THROW (std::bad_alloc)
 127:/Library/DaisyToolchain/0.2.0/arm/arm-none-eabi/include/c++/10.3.1/new ****   __attribute__((__externally_visible__));
 128:/Library/DaisyToolchain/0.2.0/arm/arm-none-eabi/include/c++/10.3.1/new **** _GLIBCXX_NODISCARD void* operator new[](std::size_t) _GLIBCXX_THROW (std::bad_alloc)
 129:/Library/DaisyToolchain/0.2.0/arm/arm-none-eabi/include/c++/10.3.1/new ****   __attribute__((__externally_visible__));
 130:/Library/DaisyToolchain/0.2.0/arm/arm-none-eabi/include/c++/10.3.1/new **** void operator delete(void*) _GLIBCXX_USE_NOEXCEPT
 131:/Library/DaisyToolchain/0.2.0/arm/arm-none-eabi/include/c++/10.3.1/new ****   __attribute__((__externally_visible__));
 132:/Library/DaisyToolchain/0.2.0/arm/arm-none-eabi/include/c++/10.3.1/new **** void operator delete[](void*) _GLIBCXX_USE_NOEXCEPT
 133:/Library/DaisyToolchain/0.2.0/arm/arm-none-eabi/include/c++/10.3.1/new ****   __attribute__((__externally_visible__));
 134:/Library/DaisyToolchain/0.2.0/arm/arm-none-eabi/include/c++/10.3.1/new **** #if __cpp_sized_deallocation
 135:/Library/DaisyToolchain/0.2.0/arm/arm-none-eabi/include/c++/10.3.1/new **** void operator delete(void*, std::size_t) _GLIBCXX_USE_NOEXCEPT
 136:/Library/DaisyToolchain/0.2.0/arm/arm-none-eabi/include/c++/10.3.1/new ****   __attribute__((__externally_visible__));
 137:/Library/DaisyToolchain/0.2.0/arm/arm-none-eabi/include/c++/10.3.1/new **** void operator delete[](void*, std::size_t) _GLIBCXX_USE_NOEXCEPT
 138:/Library/DaisyToolchain/0.2.0/arm/arm-none-eabi/include/c++/10.3.1/new ****   __attribute__((__externally_visible__));
 139:/Library/DaisyToolchain/0.2.0/arm/arm-none-eabi/include/c++/10.3.1/new **** #endif
 140:/Library/DaisyToolchain/0.2.0/arm/arm-none-eabi/include/c++/10.3.1/new **** _GLIBCXX_NODISCARD void* operator new(std::size_t, const std::nothrow_t&) _GLIBCXX_USE_NOEXCEPT
 141:/Library/DaisyToolchain/0.2.0/arm/arm-none-eabi/include/c++/10.3.1/new ****   __attribute__((__externally_visible__, __malloc__));
ARM GAS  /var/folders/wz/z09yph4n0qj4t7mjxhl6ttn80000gn/T//cc4SdtXb.s 			page 4


 142:/Library/DaisyToolchain/0.2.0/arm/arm-none-eabi/include/c++/10.3.1/new **** _GLIBCXX_NODISCARD void* operator new[](std::size_t, const std::nothrow_t&) _GLIBCXX_USE_NOEXCEPT
 143:/Library/DaisyToolchain/0.2.0/arm/arm-none-eabi/include/c++/10.3.1/new ****   __attribute__((__externally_visible__, __malloc__));
 144:/Library/DaisyToolchain/0.2.0/arm/arm-none-eabi/include/c++/10.3.1/new **** void operator delete(void*, const std::nothrow_t&) _GLIBCXX_USE_NOEXCEPT
 145:/Library/DaisyToolchain/0.2.0/arm/arm-none-eabi/include/c++/10.3.1/new ****   __attribute__((__externally_visible__));
 146:/Library/DaisyToolchain/0.2.0/arm/arm-none-eabi/include/c++/10.3.1/new **** void operator delete[](void*, const std::nothrow_t&) _GLIBCXX_USE_NOEXCEPT
 147:/Library/DaisyToolchain/0.2.0/arm/arm-none-eabi/include/c++/10.3.1/new ****   __attribute__((__externally_visible__));
 148:/Library/DaisyToolchain/0.2.0/arm/arm-none-eabi/include/c++/10.3.1/new **** #if __cpp_aligned_new
 149:/Library/DaisyToolchain/0.2.0/arm/arm-none-eabi/include/c++/10.3.1/new **** _GLIBCXX_NODISCARD void* operator new(std::size_t, std::align_val_t)
 150:/Library/DaisyToolchain/0.2.0/arm/arm-none-eabi/include/c++/10.3.1/new ****   __attribute__((__externally_visible__));
 151:/Library/DaisyToolchain/0.2.0/arm/arm-none-eabi/include/c++/10.3.1/new **** _GLIBCXX_NODISCARD void* operator new(std::size_t, std::align_val_t, const std::nothrow_t&)
 152:/Library/DaisyToolchain/0.2.0/arm/arm-none-eabi/include/c++/10.3.1/new ****   _GLIBCXX_USE_NOEXCEPT __attribute__((__externally_visible__, __malloc__));
 153:/Library/DaisyToolchain/0.2.0/arm/arm-none-eabi/include/c++/10.3.1/new **** void operator delete(void*, std::align_val_t)
 154:/Library/DaisyToolchain/0.2.0/arm/arm-none-eabi/include/c++/10.3.1/new ****   _GLIBCXX_USE_NOEXCEPT __attribute__((__externally_visible__));
 155:/Library/DaisyToolchain/0.2.0/arm/arm-none-eabi/include/c++/10.3.1/new **** void operator delete(void*, std::align_val_t, const std::nothrow_t&)
 156:/Library/DaisyToolchain/0.2.0/arm/arm-none-eabi/include/c++/10.3.1/new ****   _GLIBCXX_USE_NOEXCEPT __attribute__((__externally_visible__));
 157:/Library/DaisyToolchain/0.2.0/arm/arm-none-eabi/include/c++/10.3.1/new **** _GLIBCXX_NODISCARD void* operator new[](std::size_t, std::align_val_t)
 158:/Library/DaisyToolchain/0.2.0/arm/arm-none-eabi/include/c++/10.3.1/new ****   __attribute__((__externally_visible__));
 159:/Library/DaisyToolchain/0.2.0/arm/arm-none-eabi/include/c++/10.3.1/new **** _GLIBCXX_NODISCARD void* operator new[](std::size_t, std::align_val_t, const std::nothrow_t&)
 160:/Library/DaisyToolchain/0.2.0/arm/arm-none-eabi/include/c++/10.3.1/new ****   _GLIBCXX_USE_NOEXCEPT __attribute__((__externally_visible__, __malloc__));
 161:/Library/DaisyToolchain/0.2.0/arm/arm-none-eabi/include/c++/10.3.1/new **** void operator delete[](void*, std::align_val_t)
 162:/Library/DaisyToolchain/0.2.0/arm/arm-none-eabi/include/c++/10.3.1/new ****   _GLIBCXX_USE_NOEXCEPT __attribute__((__externally_visible__));
 163:/Library/DaisyToolchain/0.2.0/arm/arm-none-eabi/include/c++/10.3.1/new **** void operator delete[](void*, std::align_val_t, const std::nothrow_t&)
 164:/Library/DaisyToolchain/0.2.0/arm/arm-none-eabi/include/c++/10.3.1/new ****   _GLIBCXX_USE_NOEXCEPT __attribute__((__externally_visible__));
 165:/Library/DaisyToolchain/0.2.0/arm/arm-none-eabi/include/c++/10.3.1/new **** #if __cpp_sized_deallocation
 166:/Library/DaisyToolchain/0.2.0/arm/arm-none-eabi/include/c++/10.3.1/new **** void operator delete(void*, std::size_t, std::align_val_t)
 167:/Library/DaisyToolchain/0.2.0/arm/arm-none-eabi/include/c++/10.3.1/new ****   _GLIBCXX_USE_NOEXCEPT __attribute__((__externally_visible__));
 168:/Library/DaisyToolchain/0.2.0/arm/arm-none-eabi/include/c++/10.3.1/new **** void operator delete[](void*, std::size_t, std::align_val_t)
 169:/Library/DaisyToolchain/0.2.0/arm/arm-none-eabi/include/c++/10.3.1/new ****   _GLIBCXX_USE_NOEXCEPT __attribute__((__externally_visible__));
 170:/Library/DaisyToolchain/0.2.0/arm/arm-none-eabi/include/c++/10.3.1/new **** #endif // __cpp_sized_deallocation
 171:/Library/DaisyToolchain/0.2.0/arm/arm-none-eabi/include/c++/10.3.1/new **** #endif // __cpp_aligned_new
 172:/Library/DaisyToolchain/0.2.0/arm/arm-none-eabi/include/c++/10.3.1/new **** 
 173:/Library/DaisyToolchain/0.2.0/arm/arm-none-eabi/include/c++/10.3.1/new **** // Default placement versions of operator new.
 174:/Library/DaisyToolchain/0.2.0/arm/arm-none-eabi/include/c++/10.3.1/new **** _GLIBCXX_NODISCARD inline void* operator new(std::size_t, void* __p) _GLIBCXX_USE_NOEXCEPT
 175:/Library/DaisyToolchain/0.2.0/arm/arm-none-eabi/include/c++/10.3.1/new **** { return __p; }
  34              		.loc 1 175 1
  35              		.cfi_startproc
  36              		@ args = 0, pretend = 0, frame = 8
  37              		@ frame_needed = 1, uses_anonymous_args = 0
  38              		@ link register save eliminated.
  39 0000 80B4     		push	{r7}
  40              		.cfi_def_cfa_offset 4
  41              		.cfi_offset 7, -4
  42 0002 83B0     		sub	sp, sp, #12
  43              		.cfi_def_cfa_offset 16
  44 0004 00AF     		add	r7, sp, #0
  45              		.cfi_def_cfa_register 7
  46 0006 7860     		str	r0, [r7, #4]
  47 0008 3960     		str	r1, [r7]
  48              		.loc 1 175 10
  49 000a 3B68     		ldr	r3, [r7]
  50              		.loc 1 175 15
  51 000c 1846     		mov	r0, r3
  52 000e 0C37     		adds	r7, r7, #12
  53              		.cfi_def_cfa_offset 4
  54 0010 BD46     		mov	sp, r7
  55              		.cfi_def_cfa_register 13
  56              		@ sp needed
ARM GAS  /var/folders/wz/z09yph4n0qj4t7mjxhl6ttn80000gn/T//cc4SdtXb.s 			page 5


  57 0012 5DF8047B 		ldr	r7, [sp], #4
  58              		.cfi_restore 7
  59              		.cfi_def_cfa_offset 0
  60 0016 7047     		bx	lr
  61              		.cfi_endproc
  62              	.LFE1119:
  64              		.section	.text._ZNK5daisy6Switch11FallingEdgeEv,"axG",%progbits,_ZNK5daisy6Switch11FallingEdgeEv,c
  65              		.align	1
  66              		.weak	_ZNK5daisy6Switch11FallingEdgeEv
  67              		.syntax unified
  68              		.thumb
  69              		.thumb_func
  71              	_ZNK5daisy6Switch11FallingEdgeEv:
  72              	.LFB1609:
  73              		.file 2 "../../../libDaisy//src/hid/switch.h"
   1:../../../libDaisy//src/hid/switch.h **** #pragma once
   2:../../../libDaisy//src/hid/switch.h **** #ifndef DSY_SWITCH_H
   3:../../../libDaisy//src/hid/switch.h **** #define DSY_SWITCH_H
   4:../../../libDaisy//src/hid/switch.h **** #include "daisy_core.h"
   5:../../../libDaisy//src/hid/switch.h **** #include "per/gpio.h"
   6:../../../libDaisy//src/hid/switch.h **** #include "sys/system.h"
   7:../../../libDaisy//src/hid/switch.h **** 
   8:../../../libDaisy//src/hid/switch.h **** namespace daisy
   9:../../../libDaisy//src/hid/switch.h **** {
  10:../../../libDaisy//src/hid/switch.h **** /** 
  11:../../../libDaisy//src/hid/switch.h ****     Generic Class for handling momentary/latching switches \n 
  12:../../../libDaisy//src/hid/switch.h ****     Inspired/influenced by Mutable Instruments (pichenettes) Switch classes
  13:../../../libDaisy//src/hid/switch.h ****     @author Stephen Hensley
  14:../../../libDaisy//src/hid/switch.h ****     @date December 2019
  15:../../../libDaisy//src/hid/switch.h ****     @ingroup controls
  16:../../../libDaisy//src/hid/switch.h **** */
  17:../../../libDaisy//src/hid/switch.h **** class Switch
  18:../../../libDaisy//src/hid/switch.h **** {
  19:../../../libDaisy//src/hid/switch.h ****   public:
  20:../../../libDaisy//src/hid/switch.h ****     /** Specifies the expected behavior of the switch */
  21:../../../libDaisy//src/hid/switch.h ****     enum Type
  22:../../../libDaisy//src/hid/switch.h ****     {
  23:../../../libDaisy//src/hid/switch.h ****         TYPE_TOGGLE,    /**< & */
  24:../../../libDaisy//src/hid/switch.h ****         TYPE_MOMENTARY, /**< & */
  25:../../../libDaisy//src/hid/switch.h ****     };
  26:../../../libDaisy//src/hid/switch.h ****     /** Specifies whether the pressed is HIGH or LOW. */
  27:../../../libDaisy//src/hid/switch.h ****     enum Polarity
  28:../../../libDaisy//src/hid/switch.h ****     {
  29:../../../libDaisy//src/hid/switch.h ****         POLARITY_NORMAL,   /**< & */
  30:../../../libDaisy//src/hid/switch.h ****         POLARITY_INVERTED, /**< & */
  31:../../../libDaisy//src/hid/switch.h ****     };
  32:../../../libDaisy//src/hid/switch.h **** 
  33:../../../libDaisy//src/hid/switch.h ****     /** Specifies whether to use built-in Pull Up/Down resistors to hold button at a given state wh
  34:../../../libDaisy//src/hid/switch.h ****     enum Pull
  35:../../../libDaisy//src/hid/switch.h ****     {
  36:../../../libDaisy//src/hid/switch.h ****         PULL_UP,   /**< & */
  37:../../../libDaisy//src/hid/switch.h ****         PULL_DOWN, /**< & */
  38:../../../libDaisy//src/hid/switch.h ****         PULL_NONE, /**< & */
  39:../../../libDaisy//src/hid/switch.h ****     };
  40:../../../libDaisy//src/hid/switch.h **** 
  41:../../../libDaisy//src/hid/switch.h ****     Switch() {}
  42:../../../libDaisy//src/hid/switch.h ****     ~Switch() {}
ARM GAS  /var/folders/wz/z09yph4n0qj4t7mjxhl6ttn80000gn/T//cc4SdtXb.s 			page 6


  43:../../../libDaisy//src/hid/switch.h **** 
  44:../../../libDaisy//src/hid/switch.h ****     /** 
  45:../../../libDaisy//src/hid/switch.h ****     Initializes the switch object with a given port/pin combo.
  46:../../../libDaisy//src/hid/switch.h ****     \param pin port/pin object to tell the switch which hardware pin to use.
  47:../../../libDaisy//src/hid/switch.h ****     \param update_rate Does nothing. Backwards compatibility until next breaking update.
  48:../../../libDaisy//src/hid/switch.h ****     \param t switch type -- Default: TYPE_MOMENTARY
  49:../../../libDaisy//src/hid/switch.h ****     \param pol switch polarity -- Default: POLARITY_INVERTED
  50:../../../libDaisy//src/hid/switch.h ****     \param pu switch pull up/down -- Default: PULL_UP
  51:../../../libDaisy//src/hid/switch.h ****     */
  52:../../../libDaisy//src/hid/switch.h ****     void
  53:../../../libDaisy//src/hid/switch.h ****     Init(dsy_gpio_pin pin, float update_rate, Type t, Polarity pol, Pull pu);
  54:../../../libDaisy//src/hid/switch.h **** 
  55:../../../libDaisy//src/hid/switch.h ****     /**
  56:../../../libDaisy//src/hid/switch.h ****        Simplified Init.
  57:../../../libDaisy//src/hid/switch.h ****        \param pin port/pin object to tell the switch which hardware pin to use.
  58:../../../libDaisy//src/hid/switch.h ****        \param update_rate Left for backwards compatibility until next breaking change.
  59:../../../libDaisy//src/hid/switch.h ****     */
  60:../../../libDaisy//src/hid/switch.h ****     void Init(dsy_gpio_pin pin, float update_rate = 0.f);
  61:../../../libDaisy//src/hid/switch.h **** 
  62:../../../libDaisy//src/hid/switch.h ****     /** 
  63:../../../libDaisy//src/hid/switch.h ****     Called at update_rate to debounce and handle timing for the switch.
  64:../../../libDaisy//src/hid/switch.h ****     In order for events not to be missed, its important that the Edge/Pressed checks
  65:../../../libDaisy//src/hid/switch.h ****     be made at the same rate as the debounce function is being called.
  66:../../../libDaisy//src/hid/switch.h ****     */
  67:../../../libDaisy//src/hid/switch.h ****     void Debounce();
  68:../../../libDaisy//src/hid/switch.h **** 
  69:../../../libDaisy//src/hid/switch.h ****     /** \return true if a button was just pressed. */
  70:../../../libDaisy//src/hid/switch.h ****     inline bool RisingEdge() const { return updated_ ? state_ == 0x7f : false; }
  71:../../../libDaisy//src/hid/switch.h **** 
  72:../../../libDaisy//src/hid/switch.h ****     /** \return true if the button was just released */
  73:../../../libDaisy//src/hid/switch.h ****     inline bool FallingEdge() const
  74              		.loc 2 73 17
  75              		.cfi_startproc
  76              		@ args = 0, pretend = 0, frame = 8
  77              		@ frame_needed = 1, uses_anonymous_args = 0
  78              		@ link register save eliminated.
  79 0000 80B4     		push	{r7}
  80              		.cfi_def_cfa_offset 4
  81              		.cfi_offset 7, -4
  82 0002 83B0     		sub	sp, sp, #12
  83              		.cfi_def_cfa_offset 16
  84 0004 00AF     		add	r7, sp, #0
  85              		.cfi_def_cfa_register 7
  86 0006 7860     		str	r0, [r7, #4]
  74:../../../libDaisy//src/hid/switch.h ****     {
  75:../../../libDaisy//src/hid/switch.h ****         return updated_ ? state_ == 0x80 : false;
  87              		.loc 2 75 16
  88 0008 7B68     		ldr	r3, [r7, #4]
  89 000a 1B79     		ldrb	r3, [r3, #4]	@ zero_extendqisi2
  90              		.loc 2 75 25
  91 000c 002B     		cmp	r3, #0
  92 000e 07D0     		beq	.L4
  93              		.loc 2 75 27 discriminator 1
  94 0010 7B68     		ldr	r3, [r7, #4]
  95 0012 9B7A     		ldrb	r3, [r3, #10]	@ zero_extendqisi2
  96              		.loc 2 75 25 discriminator 1
  97 0014 802B     		cmp	r3, #128
ARM GAS  /var/folders/wz/z09yph4n0qj4t7mjxhl6ttn80000gn/T//cc4SdtXb.s 			page 7


  98 0016 0CBF     		ite	eq
  99 0018 0123     		moveq	r3, #1
 100 001a 0023     		movne	r3, #0
 101 001c DBB2     		uxtb	r3, r3
 102 001e 00E0     		b	.L5
 103              	.L4:
 104              		.loc 2 75 25 is_stmt 0 discriminator 2
 105 0020 0023     		movs	r3, #0
 106              	.L5:
  76:../../../libDaisy//src/hid/switch.h ****     }
 107              		.loc 2 76 5 is_stmt 1 discriminator 4
 108 0022 1846     		mov	r0, r3
 109 0024 0C37     		adds	r7, r7, #12
 110              		.cfi_def_cfa_offset 4
 111 0026 BD46     		mov	sp, r7
 112              		.cfi_def_cfa_register 13
 113              		@ sp needed
 114 0028 5DF8047B 		ldr	r7, [sp], #4
 115              		.cfi_restore 7
 116              		.cfi_def_cfa_offset 0
 117 002c 7047     		bx	lr
 118              		.cfi_endproc
 119              	.LFE1609:
 121              		.section	.rodata._ZN5daisyL15kWavFileChunkIdE,"a"
 122              		.align	2
 125              	_ZN5daisyL15kWavFileChunkIdE:
 126 0000 52494646 		.word	1179011410
 127              		.section	.rodata._ZN5daisyL14kWavFileWaveIdE,"a"
 128              		.align	2
 131              	_ZN5daisyL14kWavFileWaveIdE:
 132 0000 57415645 		.word	1163280727
 133              		.section	.rodata._ZN5daisyL19kWavFileSubChunk1IdE,"a"
 134              		.align	2
 137              	_ZN5daisyL19kWavFileSubChunk1IdE:
 138 0000 666D7420 		.word	544501094
 139              		.section	.rodata._ZN5daisyL19kWavFileSubChunk2IdE,"a"
 140              		.align	2
 143              	_ZN5daisyL19kWavFileSubChunk2IdE:
 144 0000 64617461 		.word	1635017060
 145              		.section	.rodata._ZL19kMaxSr595DaisyChain,"a"
 146              		.align	2
 149              	_ZL19kMaxSr595DaisyChain:
 150 0000 10000000 		.word	16
 151              		.section	.rodata._ZN5daisy4seedL2D0E,"a"
 152              		.align	2
 155              	_ZN5daisy4seedL2D0E:
 156 0000 01       		.byte	1
 157 0001 0C       		.byte	12
 158              		.section	.rodata._ZN5daisy4seedL2D1E,"a"
 159              		.align	2
 162              	_ZN5daisy4seedL2D1E:
 163 0000 02       		.byte	2
 164 0001 0B       		.byte	11
 165              		.section	.rodata._ZN5daisy4seedL2D2E,"a"
 166              		.align	2
 169              	_ZN5daisy4seedL2D2E:
 170 0000 02       		.byte	2
ARM GAS  /var/folders/wz/z09yph4n0qj4t7mjxhl6ttn80000gn/T//cc4SdtXb.s 			page 8


 171 0001 0A       		.byte	10
 172              		.section	.rodata._ZN5daisy4seedL2D3E,"a"
 173              		.align	2
 176              	_ZN5daisy4seedL2D3E:
 177 0000 02       		.byte	2
 178 0001 09       		.byte	9
 179              		.section	.rodata._ZN5daisy4seedL2D4E,"a"
 180              		.align	2
 183              	_ZN5daisy4seedL2D4E:
 184 0000 02       		.byte	2
 185 0001 08       		.byte	8
 186              		.section	.rodata._ZN5daisy4seedL2D5E,"a"
 187              		.align	2
 190              	_ZN5daisy4seedL2D5E:
 191 0000 03       		.byte	3
 192 0001 02       		.byte	2
 193              		.section	.rodata._ZN5daisy4seedL2D6E,"a"
 194              		.align	2
 197              	_ZN5daisy4seedL2D6E:
 198 0000 02       		.byte	2
 199 0001 0C       		.byte	12
 200              		.section	.rodata._ZN5daisy4seedL2D7E,"a"
 201              		.align	2
 204              	_ZN5daisy4seedL2D7E:
 205 0000 06       		.byte	6
 206 0001 0A       		.byte	10
 207              		.section	.rodata._ZN5daisy4seedL2D8E,"a"
 208              		.align	2
 211              	_ZN5daisy4seedL2D8E:
 212 0000 06       		.byte	6
 213 0001 0B       		.byte	11
 214              		.section	.rodata._ZN5daisy4seedL2D9E,"a"
 215              		.align	2
 218              	_ZN5daisy4seedL2D9E:
 219 0000 01       		.byte	1
 220 0001 04       		.byte	4
 221              		.section	.rodata._ZN5daisy4seedL3D10E,"a"
 222              		.align	2
 225              	_ZN5daisy4seedL3D10E:
 226 0000 01       		.byte	1
 227 0001 05       		.byte	5
 228              		.section	.rodata._ZN5daisy4seedL3D11E,"a"
 229              		.align	2
 232              	_ZN5daisy4seedL3D11E:
 233 0000 01       		.byte	1
 234 0001 08       		.byte	8
 235              		.section	.rodata._ZN5daisy4seedL3D12E,"a"
 236              		.align	2
 239              	_ZN5daisy4seedL3D12E:
 240 0000 01       		.byte	1
 241 0001 09       		.byte	9
 242              		.section	.rodata._ZN5daisy4seedL3D13E,"a"
 243              		.align	2
 246              	_ZN5daisy4seedL3D13E:
 247 0000 01       		.byte	1
 248 0001 06       		.byte	6
 249              		.section	.rodata._ZN5daisy4seedL3D14E,"a"
ARM GAS  /var/folders/wz/z09yph4n0qj4t7mjxhl6ttn80000gn/T//cc4SdtXb.s 			page 9


 250              		.align	2
 253              	_ZN5daisy4seedL3D14E:
 254 0000 01       		.byte	1
 255 0001 07       		.byte	7
 256              		.section	.rodata._ZN5daisy4seedL3D15E,"a"
 257              		.align	2
 260              	_ZN5daisy4seedL3D15E:
 261 0000 02       		.byte	2
 262 0001 00       		.byte	0
 263              		.section	.rodata._ZN5daisy4seedL3D16E,"a"
 264              		.align	2
 267              	_ZN5daisy4seedL3D16E:
 268 0000 00       		.byte	0
 269 0001 03       		.byte	3
 270              		.section	.rodata._ZN5daisy4seedL3D17E,"a"
 271              		.align	2
 274              	_ZN5daisy4seedL3D17E:
 275 0000 01       		.byte	1
 276 0001 01       		.byte	1
 277              		.section	.rodata._ZN5daisy4seedL3D18E,"a"
 278              		.align	2
 281              	_ZN5daisy4seedL3D18E:
 282 0000 00       		.byte	0
 283 0001 07       		.byte	7
 284              		.section	.rodata._ZN5daisy4seedL3D19E,"a"
 285              		.align	2
 288              	_ZN5daisy4seedL3D19E:
 289 0000 00       		.byte	0
 290 0001 06       		.byte	6
 291              		.section	.rodata._ZN5daisy4seedL3D20E,"a"
 292              		.align	2
 295              	_ZN5daisy4seedL3D20E:
 296 0000 02       		.byte	2
 297 0001 01       		.byte	1
 298              		.section	.rodata._ZN5daisy4seedL3D21E,"a"
 299              		.align	2
 302              	_ZN5daisy4seedL3D21E:
 303 0000 02       		.byte	2
 304 0001 04       		.byte	4
 305              		.section	.rodata._ZN5daisy4seedL3D22E,"a"
 306              		.align	2
 309              	_ZN5daisy4seedL3D22E:
 310 0000 00       		.byte	0
 311 0001 05       		.byte	5
 312              		.section	.rodata._ZN5daisy4seedL3D23E,"a"
 313              		.align	2
 316              	_ZN5daisy4seedL3D23E:
 317 0000 00       		.byte	0
 318 0001 04       		.byte	4
 319              		.section	.rodata._ZN5daisy4seedL3D24E,"a"
 320              		.align	2
 323              	_ZN5daisy4seedL3D24E:
 324 0000 00       		.byte	0
 325 0001 01       		.byte	1
 326              		.section	.rodata._ZN5daisy4seedL3D25E,"a"
 327              		.align	2
 330              	_ZN5daisy4seedL3D25E:
ARM GAS  /var/folders/wz/z09yph4n0qj4t7mjxhl6ttn80000gn/T//cc4SdtXb.s 			page 10


 331 0000 0000     		.space	2
 332              		.section	.rodata._ZN5daisy4seedL3D26E,"a"
 333              		.align	2
 336              	_ZN5daisy4seedL3D26E:
 337 0000 03       		.byte	3
 338 0001 0B       		.byte	11
 339              		.section	.rodata._ZN5daisy4seedL3D27E,"a"
 340              		.align	2
 343              	_ZN5daisy4seedL3D27E:
 344 0000 06       		.byte	6
 345 0001 09       		.byte	9
 346              		.section	.rodata._ZN5daisy4seedL3D28E,"a"
 347              		.align	2
 350              	_ZN5daisy4seedL3D28E:
 351 0000 00       		.byte	0
 352 0001 02       		.byte	2
 353              		.section	.rodata._ZN5daisy4seedL3D29E,"a"
 354              		.align	2
 357              	_ZN5daisy4seedL3D29E:
 358 0000 01       		.byte	1
 359 0001 0E       		.byte	14
 360              		.section	.rodata._ZN5daisy4seedL3D30E,"a"
 361              		.align	2
 364              	_ZN5daisy4seedL3D30E:
 365 0000 01       		.byte	1
 366 0001 0F       		.byte	15
 367              		.section	.rodata._ZN5daisy4seedL2A0E,"a"
 368              		.align	2
 371              	_ZN5daisy4seedL2A0E:
 372 0000 02       		.byte	2
 373 0001 00       		.byte	0
 374              		.section	.rodata._ZN5daisy4seedL2A1E,"a"
 375              		.align	2
 378              	_ZN5daisy4seedL2A1E:
 379 0000 00       		.byte	0
 380 0001 03       		.byte	3
 381              		.section	.rodata._ZN5daisy4seedL2A2E,"a"
 382              		.align	2
 385              	_ZN5daisy4seedL2A2E:
 386 0000 01       		.byte	1
 387 0001 01       		.byte	1
 388              		.section	.rodata._ZN5daisy4seedL2A3E,"a"
 389              		.align	2
 392              	_ZN5daisy4seedL2A3E:
 393 0000 00       		.byte	0
 394 0001 07       		.byte	7
 395              		.section	.rodata._ZN5daisy4seedL2A4E,"a"
 396              		.align	2
 399              	_ZN5daisy4seedL2A4E:
 400 0000 00       		.byte	0
 401 0001 06       		.byte	6
 402              		.section	.rodata._ZN5daisy4seedL2A5E,"a"
 403              		.align	2
 406              	_ZN5daisy4seedL2A5E:
 407 0000 02       		.byte	2
 408 0001 01       		.byte	1
 409              		.section	.rodata._ZN5daisy4seedL2A6E,"a"
ARM GAS  /var/folders/wz/z09yph4n0qj4t7mjxhl6ttn80000gn/T//cc4SdtXb.s 			page 11


 410              		.align	2
 413              	_ZN5daisy4seedL2A6E:
 414 0000 02       		.byte	2
 415 0001 04       		.byte	4
 416              		.section	.rodata._ZN5daisy4seedL2A7E,"a"
 417              		.align	2
 420              	_ZN5daisy4seedL2A7E:
 421 0000 00       		.byte	0
 422 0001 05       		.byte	5
 423              		.section	.rodata._ZN5daisy4seedL2A8E,"a"
 424              		.align	2
 427              	_ZN5daisy4seedL2A8E:
 428 0000 00       		.byte	0
 429 0001 04       		.byte	4
 430              		.section	.rodata._ZN5daisy4seedL2A9E,"a"
 431              		.align	2
 434              	_ZN5daisy4seedL2A9E:
 435 0000 00       		.byte	0
 436 0001 01       		.byte	1
 437              		.section	.rodata._ZN5daisy4seedL3A10E,"a"
 438              		.align	2
 441              	_ZN5daisy4seedL3A10E:
 442 0000 0000     		.space	2
 443              		.section	.rodata._ZN5daisy4seedL3A11E,"a"
 444              		.align	2
 447              	_ZN5daisy4seedL3A11E:
 448 0000 00       		.byte	0
 449 0001 02       		.byte	2
 450              		.section	.rodata._ZN5daisy4seedL3D31E,"a"
 451              		.align	2
 454              	_ZN5daisy4seedL3D31E:
 455 0000 02       		.byte	2
 456 0001 02       		.byte	2
 457              		.section	.rodata._ZN5daisy4seedL3D32E,"a"
 458              		.align	2
 461              	_ZN5daisy4seedL3D32E:
 462 0000 02       		.byte	2
 463 0001 03       		.byte	3
 464              		.section	.rodata._ZN5daisy4seedL3A12E,"a"
 465              		.align	2
 468              	_ZN5daisy4seedL3A12E:
 469 0000 02       		.byte	2
 470 0001 02       		.byte	2
 471              		.section	.rodata._ZN5daisy4seedL3A13E,"a"
 472              		.align	2
 475              	_ZN5daisy4seedL3A13E:
 476 0000 02       		.byte	2
 477 0001 03       		.byte	3
 478              		.section	.text._ZL20__gthread_key_deletei,"ax",%progbits
 479              		.align	1
 480              		.syntax unified
 481              		.thumb
 482              		.thumb_func
 484              	_ZL20__gthread_key_deletei:
 485              	.LFB2826:
 486              		.file 3 "/Library/DaisyToolchain/0.2.0/arm/arm-none-eabi/include/c++/10.3.1/arm-none-eabi/thumb/v7
   1:/Library/DaisyToolchain/0.2.0/arm/arm-none-eabi/include/c++/10.3.1/arm-none-eabi/thumb/v7e-m+dp/hard/bits/gthr-default.h **** /* Threads compatibility routines for libgcc2 and libobjc.  */
ARM GAS  /var/folders/wz/z09yph4n0qj4t7mjxhl6ttn80000gn/T//cc4SdtXb.s 			page 12


   2:/Library/DaisyToolchain/0.2.0/arm/arm-none-eabi/include/c++/10.3.1/arm-none-eabi/thumb/v7e-m+dp/hard/bits/gthr-default.h **** /* Compile this one with gcc.  */
   3:/Library/DaisyToolchain/0.2.0/arm/arm-none-eabi/include/c++/10.3.1/arm-none-eabi/thumb/v7e-m+dp/hard/bits/gthr-default.h **** /* Copyright (C) 1997-2020 Free Software Foundation, Inc.
   4:/Library/DaisyToolchain/0.2.0/arm/arm-none-eabi/include/c++/10.3.1/arm-none-eabi/thumb/v7e-m+dp/hard/bits/gthr-default.h **** 
   5:/Library/DaisyToolchain/0.2.0/arm/arm-none-eabi/include/c++/10.3.1/arm-none-eabi/thumb/v7e-m+dp/hard/bits/gthr-default.h **** This file is part of GCC.
   6:/Library/DaisyToolchain/0.2.0/arm/arm-none-eabi/include/c++/10.3.1/arm-none-eabi/thumb/v7e-m+dp/hard/bits/gthr-default.h **** 
   7:/Library/DaisyToolchain/0.2.0/arm/arm-none-eabi/include/c++/10.3.1/arm-none-eabi/thumb/v7e-m+dp/hard/bits/gthr-default.h **** GCC is free software; you can redistribute it and/or modify it under
   8:/Library/DaisyToolchain/0.2.0/arm/arm-none-eabi/include/c++/10.3.1/arm-none-eabi/thumb/v7e-m+dp/hard/bits/gthr-default.h **** the terms of the GNU General Public License as published by the Free
   9:/Library/DaisyToolchain/0.2.0/arm/arm-none-eabi/include/c++/10.3.1/arm-none-eabi/thumb/v7e-m+dp/hard/bits/gthr-default.h **** Software Foundation; either version 3, or (at your option) any later
  10:/Library/DaisyToolchain/0.2.0/arm/arm-none-eabi/include/c++/10.3.1/arm-none-eabi/thumb/v7e-m+dp/hard/bits/gthr-default.h **** version.
  11:/Library/DaisyToolchain/0.2.0/arm/arm-none-eabi/include/c++/10.3.1/arm-none-eabi/thumb/v7e-m+dp/hard/bits/gthr-default.h **** 
  12:/Library/DaisyToolchain/0.2.0/arm/arm-none-eabi/include/c++/10.3.1/arm-none-eabi/thumb/v7e-m+dp/hard/bits/gthr-default.h **** GCC is distributed in the hope that it will be useful, but WITHOUT ANY
  13:/Library/DaisyToolchain/0.2.0/arm/arm-none-eabi/include/c++/10.3.1/arm-none-eabi/thumb/v7e-m+dp/hard/bits/gthr-default.h **** WARRANTY; without even the implied warranty of MERCHANTABILITY or
  14:/Library/DaisyToolchain/0.2.0/arm/arm-none-eabi/include/c++/10.3.1/arm-none-eabi/thumb/v7e-m+dp/hard/bits/gthr-default.h **** FITNESS FOR A PARTICULAR PURPOSE.  See the GNU General Public License
  15:/Library/DaisyToolchain/0.2.0/arm/arm-none-eabi/include/c++/10.3.1/arm-none-eabi/thumb/v7e-m+dp/hard/bits/gthr-default.h **** for more details.
  16:/Library/DaisyToolchain/0.2.0/arm/arm-none-eabi/include/c++/10.3.1/arm-none-eabi/thumb/v7e-m+dp/hard/bits/gthr-default.h **** 
  17:/Library/DaisyToolchain/0.2.0/arm/arm-none-eabi/include/c++/10.3.1/arm-none-eabi/thumb/v7e-m+dp/hard/bits/gthr-default.h **** Under Section 7 of GPL version 3, you are granted additional
  18:/Library/DaisyToolchain/0.2.0/arm/arm-none-eabi/include/c++/10.3.1/arm-none-eabi/thumb/v7e-m+dp/hard/bits/gthr-default.h **** permissions described in the GCC Runtime Library Exception, version
  19:/Library/DaisyToolchain/0.2.0/arm/arm-none-eabi/include/c++/10.3.1/arm-none-eabi/thumb/v7e-m+dp/hard/bits/gthr-default.h **** 3.1, as published by the Free Software Foundation.
  20:/Library/DaisyToolchain/0.2.0/arm/arm-none-eabi/include/c++/10.3.1/arm-none-eabi/thumb/v7e-m+dp/hard/bits/gthr-default.h **** 
  21:/Library/DaisyToolchain/0.2.0/arm/arm-none-eabi/include/c++/10.3.1/arm-none-eabi/thumb/v7e-m+dp/hard/bits/gthr-default.h **** You should have received a copy of the GNU General Public License and
  22:/Library/DaisyToolchain/0.2.0/arm/arm-none-eabi/include/c++/10.3.1/arm-none-eabi/thumb/v7e-m+dp/hard/bits/gthr-default.h **** a copy of the GCC Runtime Library Exception along with this program;
  23:/Library/DaisyToolchain/0.2.0/arm/arm-none-eabi/include/c++/10.3.1/arm-none-eabi/thumb/v7e-m+dp/hard/bits/gthr-default.h **** see the files COPYING3 and COPYING.RUNTIME respectively.  If not, see
  24:/Library/DaisyToolchain/0.2.0/arm/arm-none-eabi/include/c++/10.3.1/arm-none-eabi/thumb/v7e-m+dp/hard/bits/gthr-default.h **** <http://www.gnu.org/licenses/>.  */
  25:/Library/DaisyToolchain/0.2.0/arm/arm-none-eabi/include/c++/10.3.1/arm-none-eabi/thumb/v7e-m+dp/hard/bits/gthr-default.h **** 
  26:/Library/DaisyToolchain/0.2.0/arm/arm-none-eabi/include/c++/10.3.1/arm-none-eabi/thumb/v7e-m+dp/hard/bits/gthr-default.h **** #ifndef _GLIBCXX_GCC_GTHR_SINGLE_H
  27:/Library/DaisyToolchain/0.2.0/arm/arm-none-eabi/include/c++/10.3.1/arm-none-eabi/thumb/v7e-m+dp/hard/bits/gthr-default.h **** #define _GLIBCXX_GCC_GTHR_SINGLE_H
  28:/Library/DaisyToolchain/0.2.0/arm/arm-none-eabi/include/c++/10.3.1/arm-none-eabi/thumb/v7e-m+dp/hard/bits/gthr-default.h **** 
  29:/Library/DaisyToolchain/0.2.0/arm/arm-none-eabi/include/c++/10.3.1/arm-none-eabi/thumb/v7e-m+dp/hard/bits/gthr-default.h **** /* Just provide compatibility for mutex handling.  */
  30:/Library/DaisyToolchain/0.2.0/arm/arm-none-eabi/include/c++/10.3.1/arm-none-eabi/thumb/v7e-m+dp/hard/bits/gthr-default.h **** 
  31:/Library/DaisyToolchain/0.2.0/arm/arm-none-eabi/include/c++/10.3.1/arm-none-eabi/thumb/v7e-m+dp/hard/bits/gthr-default.h **** typedef int __gthread_key_t;
  32:/Library/DaisyToolchain/0.2.0/arm/arm-none-eabi/include/c++/10.3.1/arm-none-eabi/thumb/v7e-m+dp/hard/bits/gthr-default.h **** typedef int __gthread_once_t;
  33:/Library/DaisyToolchain/0.2.0/arm/arm-none-eabi/include/c++/10.3.1/arm-none-eabi/thumb/v7e-m+dp/hard/bits/gthr-default.h **** typedef int __gthread_mutex_t;
  34:/Library/DaisyToolchain/0.2.0/arm/arm-none-eabi/include/c++/10.3.1/arm-none-eabi/thumb/v7e-m+dp/hard/bits/gthr-default.h **** typedef int __gthread_recursive_mutex_t;
  35:/Library/DaisyToolchain/0.2.0/arm/arm-none-eabi/include/c++/10.3.1/arm-none-eabi/thumb/v7e-m+dp/hard/bits/gthr-default.h **** 
  36:/Library/DaisyToolchain/0.2.0/arm/arm-none-eabi/include/c++/10.3.1/arm-none-eabi/thumb/v7e-m+dp/hard/bits/gthr-default.h **** #define __GTHREAD_ONCE_INIT 0
  37:/Library/DaisyToolchain/0.2.0/arm/arm-none-eabi/include/c++/10.3.1/arm-none-eabi/thumb/v7e-m+dp/hard/bits/gthr-default.h **** #define __GTHREAD_MUTEX_INIT 0
  38:/Library/DaisyToolchain/0.2.0/arm/arm-none-eabi/include/c++/10.3.1/arm-none-eabi/thumb/v7e-m+dp/hard/bits/gthr-default.h **** #define __GTHREAD_MUTEX_INIT_FUNCTION(mx) do {} while (0)
  39:/Library/DaisyToolchain/0.2.0/arm/arm-none-eabi/include/c++/10.3.1/arm-none-eabi/thumb/v7e-m+dp/hard/bits/gthr-default.h **** #define __GTHREAD_RECURSIVE_MUTEX_INIT 0
  40:/Library/DaisyToolchain/0.2.0/arm/arm-none-eabi/include/c++/10.3.1/arm-none-eabi/thumb/v7e-m+dp/hard/bits/gthr-default.h **** 
  41:/Library/DaisyToolchain/0.2.0/arm/arm-none-eabi/include/c++/10.3.1/arm-none-eabi/thumb/v7e-m+dp/hard/bits/gthr-default.h **** #define _GLIBCXX_UNUSED __attribute__((__unused__))
  42:/Library/DaisyToolchain/0.2.0/arm/arm-none-eabi/include/c++/10.3.1/arm-none-eabi/thumb/v7e-m+dp/hard/bits/gthr-default.h **** 
  43:/Library/DaisyToolchain/0.2.0/arm/arm-none-eabi/include/c++/10.3.1/arm-none-eabi/thumb/v7e-m+dp/hard/bits/gthr-default.h **** #ifdef _LIBOBJC
  44:/Library/DaisyToolchain/0.2.0/arm/arm-none-eabi/include/c++/10.3.1/arm-none-eabi/thumb/v7e-m+dp/hard/bits/gthr-default.h **** 
  45:/Library/DaisyToolchain/0.2.0/arm/arm-none-eabi/include/c++/10.3.1/arm-none-eabi/thumb/v7e-m+dp/hard/bits/gthr-default.h **** /* Thread local storage for a single thread */
  46:/Library/DaisyToolchain/0.2.0/arm/arm-none-eabi/include/c++/10.3.1/arm-none-eabi/thumb/v7e-m+dp/hard/bits/gthr-default.h **** static void *thread_local_storage = NULL;
  47:/Library/DaisyToolchain/0.2.0/arm/arm-none-eabi/include/c++/10.3.1/arm-none-eabi/thumb/v7e-m+dp/hard/bits/gthr-default.h **** 
  48:/Library/DaisyToolchain/0.2.0/arm/arm-none-eabi/include/c++/10.3.1/arm-none-eabi/thumb/v7e-m+dp/hard/bits/gthr-default.h **** /* Backend initialization functions */
  49:/Library/DaisyToolchain/0.2.0/arm/arm-none-eabi/include/c++/10.3.1/arm-none-eabi/thumb/v7e-m+dp/hard/bits/gthr-default.h **** 
  50:/Library/DaisyToolchain/0.2.0/arm/arm-none-eabi/include/c++/10.3.1/arm-none-eabi/thumb/v7e-m+dp/hard/bits/gthr-default.h **** /* Initialize the threads subsystem.  */
  51:/Library/DaisyToolchain/0.2.0/arm/arm-none-eabi/include/c++/10.3.1/arm-none-eabi/thumb/v7e-m+dp/hard/bits/gthr-default.h **** static inline int
  52:/Library/DaisyToolchain/0.2.0/arm/arm-none-eabi/include/c++/10.3.1/arm-none-eabi/thumb/v7e-m+dp/hard/bits/gthr-default.h **** __gthread_objc_init_thread_system (void)
  53:/Library/DaisyToolchain/0.2.0/arm/arm-none-eabi/include/c++/10.3.1/arm-none-eabi/thumb/v7e-m+dp/hard/bits/gthr-default.h **** {
  54:/Library/DaisyToolchain/0.2.0/arm/arm-none-eabi/include/c++/10.3.1/arm-none-eabi/thumb/v7e-m+dp/hard/bits/gthr-default.h ****   /* No thread support available */
  55:/Library/DaisyToolchain/0.2.0/arm/arm-none-eabi/include/c++/10.3.1/arm-none-eabi/thumb/v7e-m+dp/hard/bits/gthr-default.h ****   return -1;
  56:/Library/DaisyToolchain/0.2.0/arm/arm-none-eabi/include/c++/10.3.1/arm-none-eabi/thumb/v7e-m+dp/hard/bits/gthr-default.h **** }
  57:/Library/DaisyToolchain/0.2.0/arm/arm-none-eabi/include/c++/10.3.1/arm-none-eabi/thumb/v7e-m+dp/hard/bits/gthr-default.h **** 
  58:/Library/DaisyToolchain/0.2.0/arm/arm-none-eabi/include/c++/10.3.1/arm-none-eabi/thumb/v7e-m+dp/hard/bits/gthr-default.h **** /* Close the threads subsystem.  */
ARM GAS  /var/folders/wz/z09yph4n0qj4t7mjxhl6ttn80000gn/T//cc4SdtXb.s 			page 13


  59:/Library/DaisyToolchain/0.2.0/arm/arm-none-eabi/include/c++/10.3.1/arm-none-eabi/thumb/v7e-m+dp/hard/bits/gthr-default.h **** static inline int
  60:/Library/DaisyToolchain/0.2.0/arm/arm-none-eabi/include/c++/10.3.1/arm-none-eabi/thumb/v7e-m+dp/hard/bits/gthr-default.h **** __gthread_objc_close_thread_system (void)
  61:/Library/DaisyToolchain/0.2.0/arm/arm-none-eabi/include/c++/10.3.1/arm-none-eabi/thumb/v7e-m+dp/hard/bits/gthr-default.h **** {
  62:/Library/DaisyToolchain/0.2.0/arm/arm-none-eabi/include/c++/10.3.1/arm-none-eabi/thumb/v7e-m+dp/hard/bits/gthr-default.h ****   /* No thread support available */
  63:/Library/DaisyToolchain/0.2.0/arm/arm-none-eabi/include/c++/10.3.1/arm-none-eabi/thumb/v7e-m+dp/hard/bits/gthr-default.h ****   return -1;
  64:/Library/DaisyToolchain/0.2.0/arm/arm-none-eabi/include/c++/10.3.1/arm-none-eabi/thumb/v7e-m+dp/hard/bits/gthr-default.h **** }
  65:/Library/DaisyToolchain/0.2.0/arm/arm-none-eabi/include/c++/10.3.1/arm-none-eabi/thumb/v7e-m+dp/hard/bits/gthr-default.h **** 
  66:/Library/DaisyToolchain/0.2.0/arm/arm-none-eabi/include/c++/10.3.1/arm-none-eabi/thumb/v7e-m+dp/hard/bits/gthr-default.h **** /* Backend thread functions */
  67:/Library/DaisyToolchain/0.2.0/arm/arm-none-eabi/include/c++/10.3.1/arm-none-eabi/thumb/v7e-m+dp/hard/bits/gthr-default.h **** 
  68:/Library/DaisyToolchain/0.2.0/arm/arm-none-eabi/include/c++/10.3.1/arm-none-eabi/thumb/v7e-m+dp/hard/bits/gthr-default.h **** /* Create a new thread of execution.  */
  69:/Library/DaisyToolchain/0.2.0/arm/arm-none-eabi/include/c++/10.3.1/arm-none-eabi/thumb/v7e-m+dp/hard/bits/gthr-default.h **** static inline objc_thread_t
  70:/Library/DaisyToolchain/0.2.0/arm/arm-none-eabi/include/c++/10.3.1/arm-none-eabi/thumb/v7e-m+dp/hard/bits/gthr-default.h **** __gthread_objc_thread_detach (void (* func)(void *), void * arg _GLIBCXX_UNUSED)
  71:/Library/DaisyToolchain/0.2.0/arm/arm-none-eabi/include/c++/10.3.1/arm-none-eabi/thumb/v7e-m+dp/hard/bits/gthr-default.h **** {
  72:/Library/DaisyToolchain/0.2.0/arm/arm-none-eabi/include/c++/10.3.1/arm-none-eabi/thumb/v7e-m+dp/hard/bits/gthr-default.h ****   /* No thread support available */
  73:/Library/DaisyToolchain/0.2.0/arm/arm-none-eabi/include/c++/10.3.1/arm-none-eabi/thumb/v7e-m+dp/hard/bits/gthr-default.h ****   return NULL;
  74:/Library/DaisyToolchain/0.2.0/arm/arm-none-eabi/include/c++/10.3.1/arm-none-eabi/thumb/v7e-m+dp/hard/bits/gthr-default.h **** }
  75:/Library/DaisyToolchain/0.2.0/arm/arm-none-eabi/include/c++/10.3.1/arm-none-eabi/thumb/v7e-m+dp/hard/bits/gthr-default.h **** 
  76:/Library/DaisyToolchain/0.2.0/arm/arm-none-eabi/include/c++/10.3.1/arm-none-eabi/thumb/v7e-m+dp/hard/bits/gthr-default.h **** /* Set the current thread's priority.  */
  77:/Library/DaisyToolchain/0.2.0/arm/arm-none-eabi/include/c++/10.3.1/arm-none-eabi/thumb/v7e-m+dp/hard/bits/gthr-default.h **** static inline int
  78:/Library/DaisyToolchain/0.2.0/arm/arm-none-eabi/include/c++/10.3.1/arm-none-eabi/thumb/v7e-m+dp/hard/bits/gthr-default.h **** __gthread_objc_thread_set_priority (int priority _GLIBCXX_UNUSED)
  79:/Library/DaisyToolchain/0.2.0/arm/arm-none-eabi/include/c++/10.3.1/arm-none-eabi/thumb/v7e-m+dp/hard/bits/gthr-default.h **** {
  80:/Library/DaisyToolchain/0.2.0/arm/arm-none-eabi/include/c++/10.3.1/arm-none-eabi/thumb/v7e-m+dp/hard/bits/gthr-default.h ****   /* No thread support available */
  81:/Library/DaisyToolchain/0.2.0/arm/arm-none-eabi/include/c++/10.3.1/arm-none-eabi/thumb/v7e-m+dp/hard/bits/gthr-default.h ****   return -1;
  82:/Library/DaisyToolchain/0.2.0/arm/arm-none-eabi/include/c++/10.3.1/arm-none-eabi/thumb/v7e-m+dp/hard/bits/gthr-default.h **** }
  83:/Library/DaisyToolchain/0.2.0/arm/arm-none-eabi/include/c++/10.3.1/arm-none-eabi/thumb/v7e-m+dp/hard/bits/gthr-default.h **** 
  84:/Library/DaisyToolchain/0.2.0/arm/arm-none-eabi/include/c++/10.3.1/arm-none-eabi/thumb/v7e-m+dp/hard/bits/gthr-default.h **** /* Return the current thread's priority.  */
  85:/Library/DaisyToolchain/0.2.0/arm/arm-none-eabi/include/c++/10.3.1/arm-none-eabi/thumb/v7e-m+dp/hard/bits/gthr-default.h **** static inline int
  86:/Library/DaisyToolchain/0.2.0/arm/arm-none-eabi/include/c++/10.3.1/arm-none-eabi/thumb/v7e-m+dp/hard/bits/gthr-default.h **** __gthread_objc_thread_get_priority (void)
  87:/Library/DaisyToolchain/0.2.0/arm/arm-none-eabi/include/c++/10.3.1/arm-none-eabi/thumb/v7e-m+dp/hard/bits/gthr-default.h **** {
  88:/Library/DaisyToolchain/0.2.0/arm/arm-none-eabi/include/c++/10.3.1/arm-none-eabi/thumb/v7e-m+dp/hard/bits/gthr-default.h ****   return OBJC_THREAD_INTERACTIVE_PRIORITY;
  89:/Library/DaisyToolchain/0.2.0/arm/arm-none-eabi/include/c++/10.3.1/arm-none-eabi/thumb/v7e-m+dp/hard/bits/gthr-default.h **** }
  90:/Library/DaisyToolchain/0.2.0/arm/arm-none-eabi/include/c++/10.3.1/arm-none-eabi/thumb/v7e-m+dp/hard/bits/gthr-default.h **** 
  91:/Library/DaisyToolchain/0.2.0/arm/arm-none-eabi/include/c++/10.3.1/arm-none-eabi/thumb/v7e-m+dp/hard/bits/gthr-default.h **** /* Yield our process time to another thread.  */
  92:/Library/DaisyToolchain/0.2.0/arm/arm-none-eabi/include/c++/10.3.1/arm-none-eabi/thumb/v7e-m+dp/hard/bits/gthr-default.h **** static inline void
  93:/Library/DaisyToolchain/0.2.0/arm/arm-none-eabi/include/c++/10.3.1/arm-none-eabi/thumb/v7e-m+dp/hard/bits/gthr-default.h **** __gthread_objc_thread_yield (void)
  94:/Library/DaisyToolchain/0.2.0/arm/arm-none-eabi/include/c++/10.3.1/arm-none-eabi/thumb/v7e-m+dp/hard/bits/gthr-default.h **** {
  95:/Library/DaisyToolchain/0.2.0/arm/arm-none-eabi/include/c++/10.3.1/arm-none-eabi/thumb/v7e-m+dp/hard/bits/gthr-default.h ****   return;
  96:/Library/DaisyToolchain/0.2.0/arm/arm-none-eabi/include/c++/10.3.1/arm-none-eabi/thumb/v7e-m+dp/hard/bits/gthr-default.h **** }
  97:/Library/DaisyToolchain/0.2.0/arm/arm-none-eabi/include/c++/10.3.1/arm-none-eabi/thumb/v7e-m+dp/hard/bits/gthr-default.h **** 
  98:/Library/DaisyToolchain/0.2.0/arm/arm-none-eabi/include/c++/10.3.1/arm-none-eabi/thumb/v7e-m+dp/hard/bits/gthr-default.h **** /* Terminate the current thread.  */
  99:/Library/DaisyToolchain/0.2.0/arm/arm-none-eabi/include/c++/10.3.1/arm-none-eabi/thumb/v7e-m+dp/hard/bits/gthr-default.h **** static inline int
 100:/Library/DaisyToolchain/0.2.0/arm/arm-none-eabi/include/c++/10.3.1/arm-none-eabi/thumb/v7e-m+dp/hard/bits/gthr-default.h **** __gthread_objc_thread_exit (void)
 101:/Library/DaisyToolchain/0.2.0/arm/arm-none-eabi/include/c++/10.3.1/arm-none-eabi/thumb/v7e-m+dp/hard/bits/gthr-default.h **** {
 102:/Library/DaisyToolchain/0.2.0/arm/arm-none-eabi/include/c++/10.3.1/arm-none-eabi/thumb/v7e-m+dp/hard/bits/gthr-default.h ****   /* No thread support available */
 103:/Library/DaisyToolchain/0.2.0/arm/arm-none-eabi/include/c++/10.3.1/arm-none-eabi/thumb/v7e-m+dp/hard/bits/gthr-default.h ****   /* Should we really exit the program */
 104:/Library/DaisyToolchain/0.2.0/arm/arm-none-eabi/include/c++/10.3.1/arm-none-eabi/thumb/v7e-m+dp/hard/bits/gthr-default.h ****   /* exit (&__objc_thread_exit_status); */
 105:/Library/DaisyToolchain/0.2.0/arm/arm-none-eabi/include/c++/10.3.1/arm-none-eabi/thumb/v7e-m+dp/hard/bits/gthr-default.h ****   return -1;
 106:/Library/DaisyToolchain/0.2.0/arm/arm-none-eabi/include/c++/10.3.1/arm-none-eabi/thumb/v7e-m+dp/hard/bits/gthr-default.h **** }
 107:/Library/DaisyToolchain/0.2.0/arm/arm-none-eabi/include/c++/10.3.1/arm-none-eabi/thumb/v7e-m+dp/hard/bits/gthr-default.h **** 
 108:/Library/DaisyToolchain/0.2.0/arm/arm-none-eabi/include/c++/10.3.1/arm-none-eabi/thumb/v7e-m+dp/hard/bits/gthr-default.h **** /* Returns an integer value which uniquely describes a thread.  */
 109:/Library/DaisyToolchain/0.2.0/arm/arm-none-eabi/include/c++/10.3.1/arm-none-eabi/thumb/v7e-m+dp/hard/bits/gthr-default.h **** static inline objc_thread_t
 110:/Library/DaisyToolchain/0.2.0/arm/arm-none-eabi/include/c++/10.3.1/arm-none-eabi/thumb/v7e-m+dp/hard/bits/gthr-default.h **** __gthread_objc_thread_id (void)
 111:/Library/DaisyToolchain/0.2.0/arm/arm-none-eabi/include/c++/10.3.1/arm-none-eabi/thumb/v7e-m+dp/hard/bits/gthr-default.h **** {
 112:/Library/DaisyToolchain/0.2.0/arm/arm-none-eabi/include/c++/10.3.1/arm-none-eabi/thumb/v7e-m+dp/hard/bits/gthr-default.h ****   /* No thread support, use 1.  */
 113:/Library/DaisyToolchain/0.2.0/arm/arm-none-eabi/include/c++/10.3.1/arm-none-eabi/thumb/v7e-m+dp/hard/bits/gthr-default.h ****   return (objc_thread_t) 1;
 114:/Library/DaisyToolchain/0.2.0/arm/arm-none-eabi/include/c++/10.3.1/arm-none-eabi/thumb/v7e-m+dp/hard/bits/gthr-default.h **** }
 115:/Library/DaisyToolchain/0.2.0/arm/arm-none-eabi/include/c++/10.3.1/arm-none-eabi/thumb/v7e-m+dp/hard/bits/gthr-default.h **** 
ARM GAS  /var/folders/wz/z09yph4n0qj4t7mjxhl6ttn80000gn/T//cc4SdtXb.s 			page 14


 116:/Library/DaisyToolchain/0.2.0/arm/arm-none-eabi/include/c++/10.3.1/arm-none-eabi/thumb/v7e-m+dp/hard/bits/gthr-default.h **** /* Sets the thread's local storage pointer.  */
 117:/Library/DaisyToolchain/0.2.0/arm/arm-none-eabi/include/c++/10.3.1/arm-none-eabi/thumb/v7e-m+dp/hard/bits/gthr-default.h **** static inline int
 118:/Library/DaisyToolchain/0.2.0/arm/arm-none-eabi/include/c++/10.3.1/arm-none-eabi/thumb/v7e-m+dp/hard/bits/gthr-default.h **** __gthread_objc_thread_set_data (void *value)
 119:/Library/DaisyToolchain/0.2.0/arm/arm-none-eabi/include/c++/10.3.1/arm-none-eabi/thumb/v7e-m+dp/hard/bits/gthr-default.h **** {
 120:/Library/DaisyToolchain/0.2.0/arm/arm-none-eabi/include/c++/10.3.1/arm-none-eabi/thumb/v7e-m+dp/hard/bits/gthr-default.h ****   thread_local_storage = value;
 121:/Library/DaisyToolchain/0.2.0/arm/arm-none-eabi/include/c++/10.3.1/arm-none-eabi/thumb/v7e-m+dp/hard/bits/gthr-default.h ****   return 0;
 122:/Library/DaisyToolchain/0.2.0/arm/arm-none-eabi/include/c++/10.3.1/arm-none-eabi/thumb/v7e-m+dp/hard/bits/gthr-default.h **** }
 123:/Library/DaisyToolchain/0.2.0/arm/arm-none-eabi/include/c++/10.3.1/arm-none-eabi/thumb/v7e-m+dp/hard/bits/gthr-default.h **** 
 124:/Library/DaisyToolchain/0.2.0/arm/arm-none-eabi/include/c++/10.3.1/arm-none-eabi/thumb/v7e-m+dp/hard/bits/gthr-default.h **** /* Returns the thread's local storage pointer.  */
 125:/Library/DaisyToolchain/0.2.0/arm/arm-none-eabi/include/c++/10.3.1/arm-none-eabi/thumb/v7e-m+dp/hard/bits/gthr-default.h **** static inline void *
 126:/Library/DaisyToolchain/0.2.0/arm/arm-none-eabi/include/c++/10.3.1/arm-none-eabi/thumb/v7e-m+dp/hard/bits/gthr-default.h **** __gthread_objc_thread_get_data (void)
 127:/Library/DaisyToolchain/0.2.0/arm/arm-none-eabi/include/c++/10.3.1/arm-none-eabi/thumb/v7e-m+dp/hard/bits/gthr-default.h **** {
 128:/Library/DaisyToolchain/0.2.0/arm/arm-none-eabi/include/c++/10.3.1/arm-none-eabi/thumb/v7e-m+dp/hard/bits/gthr-default.h ****   return thread_local_storage;
 129:/Library/DaisyToolchain/0.2.0/arm/arm-none-eabi/include/c++/10.3.1/arm-none-eabi/thumb/v7e-m+dp/hard/bits/gthr-default.h **** }
 130:/Library/DaisyToolchain/0.2.0/arm/arm-none-eabi/include/c++/10.3.1/arm-none-eabi/thumb/v7e-m+dp/hard/bits/gthr-default.h **** 
 131:/Library/DaisyToolchain/0.2.0/arm/arm-none-eabi/include/c++/10.3.1/arm-none-eabi/thumb/v7e-m+dp/hard/bits/gthr-default.h **** /* Backend mutex functions */
 132:/Library/DaisyToolchain/0.2.0/arm/arm-none-eabi/include/c++/10.3.1/arm-none-eabi/thumb/v7e-m+dp/hard/bits/gthr-default.h **** 
 133:/Library/DaisyToolchain/0.2.0/arm/arm-none-eabi/include/c++/10.3.1/arm-none-eabi/thumb/v7e-m+dp/hard/bits/gthr-default.h **** /* Allocate a mutex.  */
 134:/Library/DaisyToolchain/0.2.0/arm/arm-none-eabi/include/c++/10.3.1/arm-none-eabi/thumb/v7e-m+dp/hard/bits/gthr-default.h **** static inline int
 135:/Library/DaisyToolchain/0.2.0/arm/arm-none-eabi/include/c++/10.3.1/arm-none-eabi/thumb/v7e-m+dp/hard/bits/gthr-default.h **** __gthread_objc_mutex_allocate (objc_mutex_t mutex _GLIBCXX_UNUSED)
 136:/Library/DaisyToolchain/0.2.0/arm/arm-none-eabi/include/c++/10.3.1/arm-none-eabi/thumb/v7e-m+dp/hard/bits/gthr-default.h **** {
 137:/Library/DaisyToolchain/0.2.0/arm/arm-none-eabi/include/c++/10.3.1/arm-none-eabi/thumb/v7e-m+dp/hard/bits/gthr-default.h ****   return 0;
 138:/Library/DaisyToolchain/0.2.0/arm/arm-none-eabi/include/c++/10.3.1/arm-none-eabi/thumb/v7e-m+dp/hard/bits/gthr-default.h **** }
 139:/Library/DaisyToolchain/0.2.0/arm/arm-none-eabi/include/c++/10.3.1/arm-none-eabi/thumb/v7e-m+dp/hard/bits/gthr-default.h **** 
 140:/Library/DaisyToolchain/0.2.0/arm/arm-none-eabi/include/c++/10.3.1/arm-none-eabi/thumb/v7e-m+dp/hard/bits/gthr-default.h **** /* Deallocate a mutex.  */
 141:/Library/DaisyToolchain/0.2.0/arm/arm-none-eabi/include/c++/10.3.1/arm-none-eabi/thumb/v7e-m+dp/hard/bits/gthr-default.h **** static inline int
 142:/Library/DaisyToolchain/0.2.0/arm/arm-none-eabi/include/c++/10.3.1/arm-none-eabi/thumb/v7e-m+dp/hard/bits/gthr-default.h **** __gthread_objc_mutex_deallocate (objc_mutex_t mutex _GLIBCXX_UNUSED)
 143:/Library/DaisyToolchain/0.2.0/arm/arm-none-eabi/include/c++/10.3.1/arm-none-eabi/thumb/v7e-m+dp/hard/bits/gthr-default.h **** {
 144:/Library/DaisyToolchain/0.2.0/arm/arm-none-eabi/include/c++/10.3.1/arm-none-eabi/thumb/v7e-m+dp/hard/bits/gthr-default.h ****   return 0;
 145:/Library/DaisyToolchain/0.2.0/arm/arm-none-eabi/include/c++/10.3.1/arm-none-eabi/thumb/v7e-m+dp/hard/bits/gthr-default.h **** }
 146:/Library/DaisyToolchain/0.2.0/arm/arm-none-eabi/include/c++/10.3.1/arm-none-eabi/thumb/v7e-m+dp/hard/bits/gthr-default.h **** 
 147:/Library/DaisyToolchain/0.2.0/arm/arm-none-eabi/include/c++/10.3.1/arm-none-eabi/thumb/v7e-m+dp/hard/bits/gthr-default.h **** /* Grab a lock on a mutex.  */
 148:/Library/DaisyToolchain/0.2.0/arm/arm-none-eabi/include/c++/10.3.1/arm-none-eabi/thumb/v7e-m+dp/hard/bits/gthr-default.h **** static inline int
 149:/Library/DaisyToolchain/0.2.0/arm/arm-none-eabi/include/c++/10.3.1/arm-none-eabi/thumb/v7e-m+dp/hard/bits/gthr-default.h **** __gthread_objc_mutex_lock (objc_mutex_t mutex _GLIBCXX_UNUSED)
 150:/Library/DaisyToolchain/0.2.0/arm/arm-none-eabi/include/c++/10.3.1/arm-none-eabi/thumb/v7e-m+dp/hard/bits/gthr-default.h **** {
 151:/Library/DaisyToolchain/0.2.0/arm/arm-none-eabi/include/c++/10.3.1/arm-none-eabi/thumb/v7e-m+dp/hard/bits/gthr-default.h ****   /* There can only be one thread, so we always get the lock */
 152:/Library/DaisyToolchain/0.2.0/arm/arm-none-eabi/include/c++/10.3.1/arm-none-eabi/thumb/v7e-m+dp/hard/bits/gthr-default.h ****   return 0;
 153:/Library/DaisyToolchain/0.2.0/arm/arm-none-eabi/include/c++/10.3.1/arm-none-eabi/thumb/v7e-m+dp/hard/bits/gthr-default.h **** }
 154:/Library/DaisyToolchain/0.2.0/arm/arm-none-eabi/include/c++/10.3.1/arm-none-eabi/thumb/v7e-m+dp/hard/bits/gthr-default.h **** 
 155:/Library/DaisyToolchain/0.2.0/arm/arm-none-eabi/include/c++/10.3.1/arm-none-eabi/thumb/v7e-m+dp/hard/bits/gthr-default.h **** /* Try to grab a lock on a mutex.  */
 156:/Library/DaisyToolchain/0.2.0/arm/arm-none-eabi/include/c++/10.3.1/arm-none-eabi/thumb/v7e-m+dp/hard/bits/gthr-default.h **** static inline int
 157:/Library/DaisyToolchain/0.2.0/arm/arm-none-eabi/include/c++/10.3.1/arm-none-eabi/thumb/v7e-m+dp/hard/bits/gthr-default.h **** __gthread_objc_mutex_trylock (objc_mutex_t mutex _GLIBCXX_UNUSED)
 158:/Library/DaisyToolchain/0.2.0/arm/arm-none-eabi/include/c++/10.3.1/arm-none-eabi/thumb/v7e-m+dp/hard/bits/gthr-default.h **** {
 159:/Library/DaisyToolchain/0.2.0/arm/arm-none-eabi/include/c++/10.3.1/arm-none-eabi/thumb/v7e-m+dp/hard/bits/gthr-default.h ****   /* There can only be one thread, so we always get the lock */
 160:/Library/DaisyToolchain/0.2.0/arm/arm-none-eabi/include/c++/10.3.1/arm-none-eabi/thumb/v7e-m+dp/hard/bits/gthr-default.h ****   return 0;
 161:/Library/DaisyToolchain/0.2.0/arm/arm-none-eabi/include/c++/10.3.1/arm-none-eabi/thumb/v7e-m+dp/hard/bits/gthr-default.h **** }
 162:/Library/DaisyToolchain/0.2.0/arm/arm-none-eabi/include/c++/10.3.1/arm-none-eabi/thumb/v7e-m+dp/hard/bits/gthr-default.h **** 
 163:/Library/DaisyToolchain/0.2.0/arm/arm-none-eabi/include/c++/10.3.1/arm-none-eabi/thumb/v7e-m+dp/hard/bits/gthr-default.h **** /* Unlock the mutex */
 164:/Library/DaisyToolchain/0.2.0/arm/arm-none-eabi/include/c++/10.3.1/arm-none-eabi/thumb/v7e-m+dp/hard/bits/gthr-default.h **** static inline int
 165:/Library/DaisyToolchain/0.2.0/arm/arm-none-eabi/include/c++/10.3.1/arm-none-eabi/thumb/v7e-m+dp/hard/bits/gthr-default.h **** __gthread_objc_mutex_unlock (objc_mutex_t mutex _GLIBCXX_UNUSED)
 166:/Library/DaisyToolchain/0.2.0/arm/arm-none-eabi/include/c++/10.3.1/arm-none-eabi/thumb/v7e-m+dp/hard/bits/gthr-default.h **** {
 167:/Library/DaisyToolchain/0.2.0/arm/arm-none-eabi/include/c++/10.3.1/arm-none-eabi/thumb/v7e-m+dp/hard/bits/gthr-default.h ****   return 0;
 168:/Library/DaisyToolchain/0.2.0/arm/arm-none-eabi/include/c++/10.3.1/arm-none-eabi/thumb/v7e-m+dp/hard/bits/gthr-default.h **** }
 169:/Library/DaisyToolchain/0.2.0/arm/arm-none-eabi/include/c++/10.3.1/arm-none-eabi/thumb/v7e-m+dp/hard/bits/gthr-default.h **** 
 170:/Library/DaisyToolchain/0.2.0/arm/arm-none-eabi/include/c++/10.3.1/arm-none-eabi/thumb/v7e-m+dp/hard/bits/gthr-default.h **** /* Backend condition mutex functions */
 171:/Library/DaisyToolchain/0.2.0/arm/arm-none-eabi/include/c++/10.3.1/arm-none-eabi/thumb/v7e-m+dp/hard/bits/gthr-default.h **** 
 172:/Library/DaisyToolchain/0.2.0/arm/arm-none-eabi/include/c++/10.3.1/arm-none-eabi/thumb/v7e-m+dp/hard/bits/gthr-default.h **** /* Allocate a condition.  */
ARM GAS  /var/folders/wz/z09yph4n0qj4t7mjxhl6ttn80000gn/T//cc4SdtXb.s 			page 15


 173:/Library/DaisyToolchain/0.2.0/arm/arm-none-eabi/include/c++/10.3.1/arm-none-eabi/thumb/v7e-m+dp/hard/bits/gthr-default.h **** static inline int
 174:/Library/DaisyToolchain/0.2.0/arm/arm-none-eabi/include/c++/10.3.1/arm-none-eabi/thumb/v7e-m+dp/hard/bits/gthr-default.h **** __gthread_objc_condition_allocate (objc_condition_t condition _GLIBCXX_UNUSED)
 175:/Library/DaisyToolchain/0.2.0/arm/arm-none-eabi/include/c++/10.3.1/arm-none-eabi/thumb/v7e-m+dp/hard/bits/gthr-default.h **** {
 176:/Library/DaisyToolchain/0.2.0/arm/arm-none-eabi/include/c++/10.3.1/arm-none-eabi/thumb/v7e-m+dp/hard/bits/gthr-default.h ****   return 0;
 177:/Library/DaisyToolchain/0.2.0/arm/arm-none-eabi/include/c++/10.3.1/arm-none-eabi/thumb/v7e-m+dp/hard/bits/gthr-default.h **** }
 178:/Library/DaisyToolchain/0.2.0/arm/arm-none-eabi/include/c++/10.3.1/arm-none-eabi/thumb/v7e-m+dp/hard/bits/gthr-default.h **** 
 179:/Library/DaisyToolchain/0.2.0/arm/arm-none-eabi/include/c++/10.3.1/arm-none-eabi/thumb/v7e-m+dp/hard/bits/gthr-default.h **** /* Deallocate a condition.  */
 180:/Library/DaisyToolchain/0.2.0/arm/arm-none-eabi/include/c++/10.3.1/arm-none-eabi/thumb/v7e-m+dp/hard/bits/gthr-default.h **** static inline int
 181:/Library/DaisyToolchain/0.2.0/arm/arm-none-eabi/include/c++/10.3.1/arm-none-eabi/thumb/v7e-m+dp/hard/bits/gthr-default.h **** __gthread_objc_condition_deallocate (objc_condition_t condition _GLIBCXX_UNUSED)
 182:/Library/DaisyToolchain/0.2.0/arm/arm-none-eabi/include/c++/10.3.1/arm-none-eabi/thumb/v7e-m+dp/hard/bits/gthr-default.h **** {
 183:/Library/DaisyToolchain/0.2.0/arm/arm-none-eabi/include/c++/10.3.1/arm-none-eabi/thumb/v7e-m+dp/hard/bits/gthr-default.h ****   return 0;
 184:/Library/DaisyToolchain/0.2.0/arm/arm-none-eabi/include/c++/10.3.1/arm-none-eabi/thumb/v7e-m+dp/hard/bits/gthr-default.h **** }
 185:/Library/DaisyToolchain/0.2.0/arm/arm-none-eabi/include/c++/10.3.1/arm-none-eabi/thumb/v7e-m+dp/hard/bits/gthr-default.h **** 
 186:/Library/DaisyToolchain/0.2.0/arm/arm-none-eabi/include/c++/10.3.1/arm-none-eabi/thumb/v7e-m+dp/hard/bits/gthr-default.h **** /* Wait on the condition */
 187:/Library/DaisyToolchain/0.2.0/arm/arm-none-eabi/include/c++/10.3.1/arm-none-eabi/thumb/v7e-m+dp/hard/bits/gthr-default.h **** static inline int
 188:/Library/DaisyToolchain/0.2.0/arm/arm-none-eabi/include/c++/10.3.1/arm-none-eabi/thumb/v7e-m+dp/hard/bits/gthr-default.h **** __gthread_objc_condition_wait (objc_condition_t condition _GLIBCXX_UNUSED,
 189:/Library/DaisyToolchain/0.2.0/arm/arm-none-eabi/include/c++/10.3.1/arm-none-eabi/thumb/v7e-m+dp/hard/bits/gthr-default.h **** 			       objc_mutex_t mutex _GLIBCXX_UNUSED)
 190:/Library/DaisyToolchain/0.2.0/arm/arm-none-eabi/include/c++/10.3.1/arm-none-eabi/thumb/v7e-m+dp/hard/bits/gthr-default.h **** {
 191:/Library/DaisyToolchain/0.2.0/arm/arm-none-eabi/include/c++/10.3.1/arm-none-eabi/thumb/v7e-m+dp/hard/bits/gthr-default.h ****   return 0;
 192:/Library/DaisyToolchain/0.2.0/arm/arm-none-eabi/include/c++/10.3.1/arm-none-eabi/thumb/v7e-m+dp/hard/bits/gthr-default.h **** }
 193:/Library/DaisyToolchain/0.2.0/arm/arm-none-eabi/include/c++/10.3.1/arm-none-eabi/thumb/v7e-m+dp/hard/bits/gthr-default.h **** 
 194:/Library/DaisyToolchain/0.2.0/arm/arm-none-eabi/include/c++/10.3.1/arm-none-eabi/thumb/v7e-m+dp/hard/bits/gthr-default.h **** /* Wake up all threads waiting on this condition.  */
 195:/Library/DaisyToolchain/0.2.0/arm/arm-none-eabi/include/c++/10.3.1/arm-none-eabi/thumb/v7e-m+dp/hard/bits/gthr-default.h **** static inline int
 196:/Library/DaisyToolchain/0.2.0/arm/arm-none-eabi/include/c++/10.3.1/arm-none-eabi/thumb/v7e-m+dp/hard/bits/gthr-default.h **** __gthread_objc_condition_broadcast (objc_condition_t condition _GLIBCXX_UNUSED)
 197:/Library/DaisyToolchain/0.2.0/arm/arm-none-eabi/include/c++/10.3.1/arm-none-eabi/thumb/v7e-m+dp/hard/bits/gthr-default.h **** {
 198:/Library/DaisyToolchain/0.2.0/arm/arm-none-eabi/include/c++/10.3.1/arm-none-eabi/thumb/v7e-m+dp/hard/bits/gthr-default.h ****   return 0;
 199:/Library/DaisyToolchain/0.2.0/arm/arm-none-eabi/include/c++/10.3.1/arm-none-eabi/thumb/v7e-m+dp/hard/bits/gthr-default.h **** }
 200:/Library/DaisyToolchain/0.2.0/arm/arm-none-eabi/include/c++/10.3.1/arm-none-eabi/thumb/v7e-m+dp/hard/bits/gthr-default.h **** 
 201:/Library/DaisyToolchain/0.2.0/arm/arm-none-eabi/include/c++/10.3.1/arm-none-eabi/thumb/v7e-m+dp/hard/bits/gthr-default.h **** /* Wake up one thread waiting on this condition.  */
 202:/Library/DaisyToolchain/0.2.0/arm/arm-none-eabi/include/c++/10.3.1/arm-none-eabi/thumb/v7e-m+dp/hard/bits/gthr-default.h **** static inline int
 203:/Library/DaisyToolchain/0.2.0/arm/arm-none-eabi/include/c++/10.3.1/arm-none-eabi/thumb/v7e-m+dp/hard/bits/gthr-default.h **** __gthread_objc_condition_signal (objc_condition_t condition _GLIBCXX_UNUSED)
 204:/Library/DaisyToolchain/0.2.0/arm/arm-none-eabi/include/c++/10.3.1/arm-none-eabi/thumb/v7e-m+dp/hard/bits/gthr-default.h **** {
 205:/Library/DaisyToolchain/0.2.0/arm/arm-none-eabi/include/c++/10.3.1/arm-none-eabi/thumb/v7e-m+dp/hard/bits/gthr-default.h ****   return 0;
 206:/Library/DaisyToolchain/0.2.0/arm/arm-none-eabi/include/c++/10.3.1/arm-none-eabi/thumb/v7e-m+dp/hard/bits/gthr-default.h **** }
 207:/Library/DaisyToolchain/0.2.0/arm/arm-none-eabi/include/c++/10.3.1/arm-none-eabi/thumb/v7e-m+dp/hard/bits/gthr-default.h **** 
 208:/Library/DaisyToolchain/0.2.0/arm/arm-none-eabi/include/c++/10.3.1/arm-none-eabi/thumb/v7e-m+dp/hard/bits/gthr-default.h **** #else /* _LIBOBJC */
 209:/Library/DaisyToolchain/0.2.0/arm/arm-none-eabi/include/c++/10.3.1/arm-none-eabi/thumb/v7e-m+dp/hard/bits/gthr-default.h **** 
 210:/Library/DaisyToolchain/0.2.0/arm/arm-none-eabi/include/c++/10.3.1/arm-none-eabi/thumb/v7e-m+dp/hard/bits/gthr-default.h **** static inline int
 211:/Library/DaisyToolchain/0.2.0/arm/arm-none-eabi/include/c++/10.3.1/arm-none-eabi/thumb/v7e-m+dp/hard/bits/gthr-default.h **** __gthread_active_p (void)
 212:/Library/DaisyToolchain/0.2.0/arm/arm-none-eabi/include/c++/10.3.1/arm-none-eabi/thumb/v7e-m+dp/hard/bits/gthr-default.h **** {
 213:/Library/DaisyToolchain/0.2.0/arm/arm-none-eabi/include/c++/10.3.1/arm-none-eabi/thumb/v7e-m+dp/hard/bits/gthr-default.h ****   return 0;
 214:/Library/DaisyToolchain/0.2.0/arm/arm-none-eabi/include/c++/10.3.1/arm-none-eabi/thumb/v7e-m+dp/hard/bits/gthr-default.h **** }
 215:/Library/DaisyToolchain/0.2.0/arm/arm-none-eabi/include/c++/10.3.1/arm-none-eabi/thumb/v7e-m+dp/hard/bits/gthr-default.h **** 
 216:/Library/DaisyToolchain/0.2.0/arm/arm-none-eabi/include/c++/10.3.1/arm-none-eabi/thumb/v7e-m+dp/hard/bits/gthr-default.h **** static inline int
 217:/Library/DaisyToolchain/0.2.0/arm/arm-none-eabi/include/c++/10.3.1/arm-none-eabi/thumb/v7e-m+dp/hard/bits/gthr-default.h **** __gthread_once (__gthread_once_t *__once _GLIBCXX_UNUSED, void (*__func) (void) _GLIBCXX_UNUSED)
 218:/Library/DaisyToolchain/0.2.0/arm/arm-none-eabi/include/c++/10.3.1/arm-none-eabi/thumb/v7e-m+dp/hard/bits/gthr-default.h **** {
 219:/Library/DaisyToolchain/0.2.0/arm/arm-none-eabi/include/c++/10.3.1/arm-none-eabi/thumb/v7e-m+dp/hard/bits/gthr-default.h ****   return 0;
 220:/Library/DaisyToolchain/0.2.0/arm/arm-none-eabi/include/c++/10.3.1/arm-none-eabi/thumb/v7e-m+dp/hard/bits/gthr-default.h **** }
 221:/Library/DaisyToolchain/0.2.0/arm/arm-none-eabi/include/c++/10.3.1/arm-none-eabi/thumb/v7e-m+dp/hard/bits/gthr-default.h **** 
 222:/Library/DaisyToolchain/0.2.0/arm/arm-none-eabi/include/c++/10.3.1/arm-none-eabi/thumb/v7e-m+dp/hard/bits/gthr-default.h **** static inline int _GLIBCXX_UNUSED
 223:/Library/DaisyToolchain/0.2.0/arm/arm-none-eabi/include/c++/10.3.1/arm-none-eabi/thumb/v7e-m+dp/hard/bits/gthr-default.h **** __gthread_key_create (__gthread_key_t *__key _GLIBCXX_UNUSED, void (*__func) (void *) _GLIBCXX_UNUS
 224:/Library/DaisyToolchain/0.2.0/arm/arm-none-eabi/include/c++/10.3.1/arm-none-eabi/thumb/v7e-m+dp/hard/bits/gthr-default.h **** {
 225:/Library/DaisyToolchain/0.2.0/arm/arm-none-eabi/include/c++/10.3.1/arm-none-eabi/thumb/v7e-m+dp/hard/bits/gthr-default.h ****   return 0;
 226:/Library/DaisyToolchain/0.2.0/arm/arm-none-eabi/include/c++/10.3.1/arm-none-eabi/thumb/v7e-m+dp/hard/bits/gthr-default.h **** }
 227:/Library/DaisyToolchain/0.2.0/arm/arm-none-eabi/include/c++/10.3.1/arm-none-eabi/thumb/v7e-m+dp/hard/bits/gthr-default.h **** 
 228:/Library/DaisyToolchain/0.2.0/arm/arm-none-eabi/include/c++/10.3.1/arm-none-eabi/thumb/v7e-m+dp/hard/bits/gthr-default.h **** static int _GLIBCXX_UNUSED
 229:/Library/DaisyToolchain/0.2.0/arm/arm-none-eabi/include/c++/10.3.1/arm-none-eabi/thumb/v7e-m+dp/hard/bits/gthr-default.h **** __gthread_key_delete (__gthread_key_t __key _GLIBCXX_UNUSED)
ARM GAS  /var/folders/wz/z09yph4n0qj4t7mjxhl6ttn80000gn/T//cc4SdtXb.s 			page 16


 230:/Library/DaisyToolchain/0.2.0/arm/arm-none-eabi/include/c++/10.3.1/arm-none-eabi/thumb/v7e-m+dp/hard/bits/gthr-default.h **** {
 487              		.loc 3 230 1
 488              		.cfi_startproc
 489              		@ args = 0, pretend = 0, frame = 8
 490              		@ frame_needed = 1, uses_anonymous_args = 0
 491              		@ link register save eliminated.
 492 0000 80B4     		push	{r7}
 493              		.cfi_def_cfa_offset 4
 494              		.cfi_offset 7, -4
 495 0002 83B0     		sub	sp, sp, #12
 496              		.cfi_def_cfa_offset 16
 497 0004 00AF     		add	r7, sp, #0
 498              		.cfi_def_cfa_register 7
 499 0006 7860     		str	r0, [r7, #4]
 231:/Library/DaisyToolchain/0.2.0/arm/arm-none-eabi/include/c++/10.3.1/arm-none-eabi/thumb/v7e-m+dp/hard/bits/gthr-default.h ****   return 0;
 500              		.loc 3 231 10
 501 0008 0023     		movs	r3, #0
 232:/Library/DaisyToolchain/0.2.0/arm/arm-none-eabi/include/c++/10.3.1/arm-none-eabi/thumb/v7e-m+dp/hard/bits/gthr-default.h **** }
 502              		.loc 3 232 1
 503 000a 1846     		mov	r0, r3
 504 000c 0C37     		adds	r7, r7, #12
 505              		.cfi_def_cfa_offset 4
 506 000e BD46     		mov	sp, r7
 507              		.cfi_def_cfa_register 13
 508              		@ sp needed
 509 0010 5DF8047B 		ldr	r7, [sp], #4
 510              		.cfi_restore 7
 511              		.cfi_def_cfa_offset 0
 512 0014 7047     		bx	lr
 513              		.cfi_endproc
 514              	.LFE2826:
 516              		.section	.rodata._ZN7daisyspL9kRandFracE,"a"
 517              		.align	2
 520              	_ZN7daisyspL9kRandFracE:
 521 0000 00000030 		.word	805306368
 522              		.section	.rodata._ZN7daisyspL11kOneTwelfthE,"a"
 523              		.align	2
 526              	_ZN7daisyspL11kOneTwelfthE:
 527 0000 ABAAAA3D 		.word	1034594987
 528              		.section	.rodata._ZStL13allocator_arg,"a"
 529              		.align	2
 532              	_ZStL13allocator_arg:
 533 0000 00       		.space	1
 534              		.section	.rodata._ZStL6ignore,"a"
 535              		.align	2
 538              	_ZStL6ignore:
 539 0000 00       		.space	1
 540              		.section	.text._ZNSt9_Any_data9_M_accessEv,"axG",%progbits,_ZNSt9_Any_data9_M_accessEv,comdat
 541              		.align	1
 542              		.weak	_ZNSt9_Any_data9_M_accessEv
 543              		.syntax unified
 544              		.thumb
 545              		.thumb_func
 547              	_ZNSt9_Any_data9_M_accessEv:
 548              	.LFB5027:
 549              		.file 4 "/Library/DaisyToolchain/0.2.0/arm/arm-none-eabi/include/c++/10.3.1/bits/std_function.h"
   1:/Library/DaisyToolchain/0.2.0/arm/arm-none-eabi/include/c++/10.3.1/bits/std_function.h **** // Implementation of std::function -*- C++ -*-
ARM GAS  /var/folders/wz/z09yph4n0qj4t7mjxhl6ttn80000gn/T//cc4SdtXb.s 			page 17


   2:/Library/DaisyToolchain/0.2.0/arm/arm-none-eabi/include/c++/10.3.1/bits/std_function.h **** 
   3:/Library/DaisyToolchain/0.2.0/arm/arm-none-eabi/include/c++/10.3.1/bits/std_function.h **** // Copyright (C) 2004-2020 Free Software Foundation, Inc.
   4:/Library/DaisyToolchain/0.2.0/arm/arm-none-eabi/include/c++/10.3.1/bits/std_function.h **** //
   5:/Library/DaisyToolchain/0.2.0/arm/arm-none-eabi/include/c++/10.3.1/bits/std_function.h **** // This file is part of the GNU ISO C++ Library.  This library is free
   6:/Library/DaisyToolchain/0.2.0/arm/arm-none-eabi/include/c++/10.3.1/bits/std_function.h **** // software; you can redistribute it and/or modify it under the
   7:/Library/DaisyToolchain/0.2.0/arm/arm-none-eabi/include/c++/10.3.1/bits/std_function.h **** // terms of the GNU General Public License as published by the
   8:/Library/DaisyToolchain/0.2.0/arm/arm-none-eabi/include/c++/10.3.1/bits/std_function.h **** // Free Software Foundation; either version 3, or (at your option)
   9:/Library/DaisyToolchain/0.2.0/arm/arm-none-eabi/include/c++/10.3.1/bits/std_function.h **** // any later version.
  10:/Library/DaisyToolchain/0.2.0/arm/arm-none-eabi/include/c++/10.3.1/bits/std_function.h **** 
  11:/Library/DaisyToolchain/0.2.0/arm/arm-none-eabi/include/c++/10.3.1/bits/std_function.h **** // This library is distributed in the hope that it will be useful,
  12:/Library/DaisyToolchain/0.2.0/arm/arm-none-eabi/include/c++/10.3.1/bits/std_function.h **** // but WITHOUT ANY WARRANTY; without even the implied warranty of
  13:/Library/DaisyToolchain/0.2.0/arm/arm-none-eabi/include/c++/10.3.1/bits/std_function.h **** // MERCHANTABILITY or FITNESS FOR A PARTICULAR PURPOSE.  See the
  14:/Library/DaisyToolchain/0.2.0/arm/arm-none-eabi/include/c++/10.3.1/bits/std_function.h **** // GNU General Public License for more details.
  15:/Library/DaisyToolchain/0.2.0/arm/arm-none-eabi/include/c++/10.3.1/bits/std_function.h **** 
  16:/Library/DaisyToolchain/0.2.0/arm/arm-none-eabi/include/c++/10.3.1/bits/std_function.h **** // Under Section 7 of GPL version 3, you are granted additional
  17:/Library/DaisyToolchain/0.2.0/arm/arm-none-eabi/include/c++/10.3.1/bits/std_function.h **** // permissions described in the GCC Runtime Library Exception, version
  18:/Library/DaisyToolchain/0.2.0/arm/arm-none-eabi/include/c++/10.3.1/bits/std_function.h **** // 3.1, as published by the Free Software Foundation.
  19:/Library/DaisyToolchain/0.2.0/arm/arm-none-eabi/include/c++/10.3.1/bits/std_function.h **** 
  20:/Library/DaisyToolchain/0.2.0/arm/arm-none-eabi/include/c++/10.3.1/bits/std_function.h **** // You should have received a copy of the GNU General Public License and
  21:/Library/DaisyToolchain/0.2.0/arm/arm-none-eabi/include/c++/10.3.1/bits/std_function.h **** // a copy of the GCC Runtime Library Exception along with this program;
  22:/Library/DaisyToolchain/0.2.0/arm/arm-none-eabi/include/c++/10.3.1/bits/std_function.h **** // see the files COPYING3 and COPYING.RUNTIME respectively.  If not, see
  23:/Library/DaisyToolchain/0.2.0/arm/arm-none-eabi/include/c++/10.3.1/bits/std_function.h **** // <http://www.gnu.org/licenses/>.
  24:/Library/DaisyToolchain/0.2.0/arm/arm-none-eabi/include/c++/10.3.1/bits/std_function.h **** 
  25:/Library/DaisyToolchain/0.2.0/arm/arm-none-eabi/include/c++/10.3.1/bits/std_function.h **** /** @file include/bits/std_function.h
  26:/Library/DaisyToolchain/0.2.0/arm/arm-none-eabi/include/c++/10.3.1/bits/std_function.h ****  *  This is an internal header file, included by other library headers.
  27:/Library/DaisyToolchain/0.2.0/arm/arm-none-eabi/include/c++/10.3.1/bits/std_function.h ****  *  Do not attempt to use it directly. @headername{functional}
  28:/Library/DaisyToolchain/0.2.0/arm/arm-none-eabi/include/c++/10.3.1/bits/std_function.h ****  */
  29:/Library/DaisyToolchain/0.2.0/arm/arm-none-eabi/include/c++/10.3.1/bits/std_function.h **** 
  30:/Library/DaisyToolchain/0.2.0/arm/arm-none-eabi/include/c++/10.3.1/bits/std_function.h **** #ifndef _GLIBCXX_STD_FUNCTION_H
  31:/Library/DaisyToolchain/0.2.0/arm/arm-none-eabi/include/c++/10.3.1/bits/std_function.h **** #define _GLIBCXX_STD_FUNCTION_H 1
  32:/Library/DaisyToolchain/0.2.0/arm/arm-none-eabi/include/c++/10.3.1/bits/std_function.h **** 
  33:/Library/DaisyToolchain/0.2.0/arm/arm-none-eabi/include/c++/10.3.1/bits/std_function.h **** #pragma GCC system_header
  34:/Library/DaisyToolchain/0.2.0/arm/arm-none-eabi/include/c++/10.3.1/bits/std_function.h **** 
  35:/Library/DaisyToolchain/0.2.0/arm/arm-none-eabi/include/c++/10.3.1/bits/std_function.h **** #if __cplusplus < 201103L
  36:/Library/DaisyToolchain/0.2.0/arm/arm-none-eabi/include/c++/10.3.1/bits/std_function.h **** # include <bits/c++0x_warning.h>
  37:/Library/DaisyToolchain/0.2.0/arm/arm-none-eabi/include/c++/10.3.1/bits/std_function.h **** #else
  38:/Library/DaisyToolchain/0.2.0/arm/arm-none-eabi/include/c++/10.3.1/bits/std_function.h **** 
  39:/Library/DaisyToolchain/0.2.0/arm/arm-none-eabi/include/c++/10.3.1/bits/std_function.h **** #if __cpp_rtti
  40:/Library/DaisyToolchain/0.2.0/arm/arm-none-eabi/include/c++/10.3.1/bits/std_function.h **** # include <typeinfo>
  41:/Library/DaisyToolchain/0.2.0/arm/arm-none-eabi/include/c++/10.3.1/bits/std_function.h **** #endif
  42:/Library/DaisyToolchain/0.2.0/arm/arm-none-eabi/include/c++/10.3.1/bits/std_function.h **** #include <bits/stl_function.h>
  43:/Library/DaisyToolchain/0.2.0/arm/arm-none-eabi/include/c++/10.3.1/bits/std_function.h **** #include <bits/invoke.h>
  44:/Library/DaisyToolchain/0.2.0/arm/arm-none-eabi/include/c++/10.3.1/bits/std_function.h **** #include <bits/refwrap.h>
  45:/Library/DaisyToolchain/0.2.0/arm/arm-none-eabi/include/c++/10.3.1/bits/std_function.h **** #include <bits/functexcept.h>
  46:/Library/DaisyToolchain/0.2.0/arm/arm-none-eabi/include/c++/10.3.1/bits/std_function.h **** 
  47:/Library/DaisyToolchain/0.2.0/arm/arm-none-eabi/include/c++/10.3.1/bits/std_function.h **** namespace std _GLIBCXX_VISIBILITY(default)
  48:/Library/DaisyToolchain/0.2.0/arm/arm-none-eabi/include/c++/10.3.1/bits/std_function.h **** {
  49:/Library/DaisyToolchain/0.2.0/arm/arm-none-eabi/include/c++/10.3.1/bits/std_function.h **** _GLIBCXX_BEGIN_NAMESPACE_VERSION
  50:/Library/DaisyToolchain/0.2.0/arm/arm-none-eabi/include/c++/10.3.1/bits/std_function.h **** 
  51:/Library/DaisyToolchain/0.2.0/arm/arm-none-eabi/include/c++/10.3.1/bits/std_function.h ****   /**
  52:/Library/DaisyToolchain/0.2.0/arm/arm-none-eabi/include/c++/10.3.1/bits/std_function.h ****    *  @brief Exception class thrown when class template function's
  53:/Library/DaisyToolchain/0.2.0/arm/arm-none-eabi/include/c++/10.3.1/bits/std_function.h ****    *  operator() is called with an empty target.
  54:/Library/DaisyToolchain/0.2.0/arm/arm-none-eabi/include/c++/10.3.1/bits/std_function.h ****    *  @ingroup exceptions
  55:/Library/DaisyToolchain/0.2.0/arm/arm-none-eabi/include/c++/10.3.1/bits/std_function.h ****    */
  56:/Library/DaisyToolchain/0.2.0/arm/arm-none-eabi/include/c++/10.3.1/bits/std_function.h ****   class bad_function_call : public std::exception
  57:/Library/DaisyToolchain/0.2.0/arm/arm-none-eabi/include/c++/10.3.1/bits/std_function.h ****   {
  58:/Library/DaisyToolchain/0.2.0/arm/arm-none-eabi/include/c++/10.3.1/bits/std_function.h ****   public:
ARM GAS  /var/folders/wz/z09yph4n0qj4t7mjxhl6ttn80000gn/T//cc4SdtXb.s 			page 18


  59:/Library/DaisyToolchain/0.2.0/arm/arm-none-eabi/include/c++/10.3.1/bits/std_function.h ****     virtual ~bad_function_call() noexcept;
  60:/Library/DaisyToolchain/0.2.0/arm/arm-none-eabi/include/c++/10.3.1/bits/std_function.h **** 
  61:/Library/DaisyToolchain/0.2.0/arm/arm-none-eabi/include/c++/10.3.1/bits/std_function.h ****     const char* what() const noexcept;
  62:/Library/DaisyToolchain/0.2.0/arm/arm-none-eabi/include/c++/10.3.1/bits/std_function.h ****   };
  63:/Library/DaisyToolchain/0.2.0/arm/arm-none-eabi/include/c++/10.3.1/bits/std_function.h **** 
  64:/Library/DaisyToolchain/0.2.0/arm/arm-none-eabi/include/c++/10.3.1/bits/std_function.h ****   /**
  65:/Library/DaisyToolchain/0.2.0/arm/arm-none-eabi/include/c++/10.3.1/bits/std_function.h ****    *  Trait identifying "location-invariant" types, meaning that the
  66:/Library/DaisyToolchain/0.2.0/arm/arm-none-eabi/include/c++/10.3.1/bits/std_function.h ****    *  address of the object (or any of its members) will not escape.
  67:/Library/DaisyToolchain/0.2.0/arm/arm-none-eabi/include/c++/10.3.1/bits/std_function.h ****    *  Trivially copyable types are location-invariant and users can
  68:/Library/DaisyToolchain/0.2.0/arm/arm-none-eabi/include/c++/10.3.1/bits/std_function.h ****    *  specialize this trait for other types.
  69:/Library/DaisyToolchain/0.2.0/arm/arm-none-eabi/include/c++/10.3.1/bits/std_function.h ****    */
  70:/Library/DaisyToolchain/0.2.0/arm/arm-none-eabi/include/c++/10.3.1/bits/std_function.h ****   template<typename _Tp>
  71:/Library/DaisyToolchain/0.2.0/arm/arm-none-eabi/include/c++/10.3.1/bits/std_function.h ****     struct __is_location_invariant
  72:/Library/DaisyToolchain/0.2.0/arm/arm-none-eabi/include/c++/10.3.1/bits/std_function.h ****     : is_trivially_copyable<_Tp>::type
  73:/Library/DaisyToolchain/0.2.0/arm/arm-none-eabi/include/c++/10.3.1/bits/std_function.h ****     { };
  74:/Library/DaisyToolchain/0.2.0/arm/arm-none-eabi/include/c++/10.3.1/bits/std_function.h **** 
  75:/Library/DaisyToolchain/0.2.0/arm/arm-none-eabi/include/c++/10.3.1/bits/std_function.h ****   class _Undefined_class;
  76:/Library/DaisyToolchain/0.2.0/arm/arm-none-eabi/include/c++/10.3.1/bits/std_function.h **** 
  77:/Library/DaisyToolchain/0.2.0/arm/arm-none-eabi/include/c++/10.3.1/bits/std_function.h ****   union _Nocopy_types
  78:/Library/DaisyToolchain/0.2.0/arm/arm-none-eabi/include/c++/10.3.1/bits/std_function.h ****   {
  79:/Library/DaisyToolchain/0.2.0/arm/arm-none-eabi/include/c++/10.3.1/bits/std_function.h ****     void*       _M_object;
  80:/Library/DaisyToolchain/0.2.0/arm/arm-none-eabi/include/c++/10.3.1/bits/std_function.h ****     const void* _M_const_object;
  81:/Library/DaisyToolchain/0.2.0/arm/arm-none-eabi/include/c++/10.3.1/bits/std_function.h ****     void (*_M_function_pointer)();
  82:/Library/DaisyToolchain/0.2.0/arm/arm-none-eabi/include/c++/10.3.1/bits/std_function.h ****     void (_Undefined_class::*_M_member_pointer)();
  83:/Library/DaisyToolchain/0.2.0/arm/arm-none-eabi/include/c++/10.3.1/bits/std_function.h ****   };
  84:/Library/DaisyToolchain/0.2.0/arm/arm-none-eabi/include/c++/10.3.1/bits/std_function.h **** 
  85:/Library/DaisyToolchain/0.2.0/arm/arm-none-eabi/include/c++/10.3.1/bits/std_function.h ****   union [[gnu::may_alias]] _Any_data
  86:/Library/DaisyToolchain/0.2.0/arm/arm-none-eabi/include/c++/10.3.1/bits/std_function.h ****   {
  87:/Library/DaisyToolchain/0.2.0/arm/arm-none-eabi/include/c++/10.3.1/bits/std_function.h ****     void*       _M_access()       { return &_M_pod_data[0]; }
 550              		.loc 4 87 17
 551              		.cfi_startproc
 552              		@ args = 0, pretend = 0, frame = 8
 553              		@ frame_needed = 1, uses_anonymous_args = 0
 554              		@ link register save eliminated.
 555 0000 80B4     		push	{r7}
 556              		.cfi_def_cfa_offset 4
 557              		.cfi_offset 7, -4
 558 0002 83B0     		sub	sp, sp, #12
 559              		.cfi_def_cfa_offset 16
 560 0004 00AF     		add	r7, sp, #0
 561              		.cfi_def_cfa_register 7
 562 0006 7860     		str	r0, [r7, #4]
 563              		.loc 4 87 58
 564 0008 7B68     		ldr	r3, [r7, #4]
 565              		.loc 4 87 61
 566 000a 1846     		mov	r0, r3
 567 000c 0C37     		adds	r7, r7, #12
 568              		.cfi_def_cfa_offset 4
 569 000e BD46     		mov	sp, r7
 570              		.cfi_def_cfa_register 13
 571              		@ sp needed
 572 0010 5DF8047B 		ldr	r7, [sp], #4
 573              		.cfi_restore 7
 574              		.cfi_def_cfa_offset 0
 575 0014 7047     		bx	lr
 576              		.cfi_endproc
 577              	.LFE5027:
ARM GAS  /var/folders/wz/z09yph4n0qj4t7mjxhl6ttn80000gn/T//cc4SdtXb.s 			page 19


 579              		.section	.text._ZNKSt9_Any_data9_M_accessEv,"axG",%progbits,_ZNKSt9_Any_data9_M_accessEv,comdat
 580              		.align	1
 581              		.weak	_ZNKSt9_Any_data9_M_accessEv
 582              		.syntax unified
 583              		.thumb
 584              		.thumb_func
 586              	_ZNKSt9_Any_data9_M_accessEv:
 587              	.LFB5028:
  88:/Library/DaisyToolchain/0.2.0/arm/arm-none-eabi/include/c++/10.3.1/bits/std_function.h ****     const void* _M_access() const { return &_M_pod_data[0]; }
 588              		.loc 4 88 17
 589              		.cfi_startproc
 590              		@ args = 0, pretend = 0, frame = 8
 591              		@ frame_needed = 1, uses_anonymous_args = 0
 592              		@ link register save eliminated.
 593 0000 80B4     		push	{r7}
 594              		.cfi_def_cfa_offset 4
 595              		.cfi_offset 7, -4
 596 0002 83B0     		sub	sp, sp, #12
 597              		.cfi_def_cfa_offset 16
 598 0004 00AF     		add	r7, sp, #0
 599              		.cfi_def_cfa_register 7
 600 0006 7860     		str	r0, [r7, #4]
 601              		.loc 4 88 58
 602 0008 7B68     		ldr	r3, [r7, #4]
 603              		.loc 4 88 61
 604 000a 1846     		mov	r0, r3
 605 000c 0C37     		adds	r7, r7, #12
 606              		.cfi_def_cfa_offset 4
 607 000e BD46     		mov	sp, r7
 608              		.cfi_def_cfa_register 13
 609              		@ sp needed
 610 0010 5DF8047B 		ldr	r7, [sp], #4
 611              		.cfi_restore 7
 612              		.cfi_def_cfa_offset 0
 613 0014 7047     		bx	lr
 614              		.cfi_endproc
 615              	.LFE5028:
 617              		.section	.text._ZNSt14_Function_baseC2Ev,"axG",%progbits,_ZNSt14_Function_baseC5Ev,comdat
 618              		.align	1
 619              		.weak	_ZNSt14_Function_baseC2Ev
 620              		.syntax unified
 621              		.thumb
 622              		.thumb_func
 624              	_ZNSt14_Function_baseC2Ev:
 625              	.LFB5045:
  89:/Library/DaisyToolchain/0.2.0/arm/arm-none-eabi/include/c++/10.3.1/bits/std_function.h **** 
  90:/Library/DaisyToolchain/0.2.0/arm/arm-none-eabi/include/c++/10.3.1/bits/std_function.h ****     template<typename _Tp>
  91:/Library/DaisyToolchain/0.2.0/arm/arm-none-eabi/include/c++/10.3.1/bits/std_function.h ****       _Tp&
  92:/Library/DaisyToolchain/0.2.0/arm/arm-none-eabi/include/c++/10.3.1/bits/std_function.h ****       _M_access()
  93:/Library/DaisyToolchain/0.2.0/arm/arm-none-eabi/include/c++/10.3.1/bits/std_function.h ****       { return *static_cast<_Tp*>(_M_access()); }
  94:/Library/DaisyToolchain/0.2.0/arm/arm-none-eabi/include/c++/10.3.1/bits/std_function.h **** 
  95:/Library/DaisyToolchain/0.2.0/arm/arm-none-eabi/include/c++/10.3.1/bits/std_function.h ****     template<typename _Tp>
  96:/Library/DaisyToolchain/0.2.0/arm/arm-none-eabi/include/c++/10.3.1/bits/std_function.h ****       const _Tp&
  97:/Library/DaisyToolchain/0.2.0/arm/arm-none-eabi/include/c++/10.3.1/bits/std_function.h ****       _M_access() const
  98:/Library/DaisyToolchain/0.2.0/arm/arm-none-eabi/include/c++/10.3.1/bits/std_function.h ****       { return *static_cast<const _Tp*>(_M_access()); }
  99:/Library/DaisyToolchain/0.2.0/arm/arm-none-eabi/include/c++/10.3.1/bits/std_function.h **** 
 100:/Library/DaisyToolchain/0.2.0/arm/arm-none-eabi/include/c++/10.3.1/bits/std_function.h ****     _Nocopy_types _M_unused;
ARM GAS  /var/folders/wz/z09yph4n0qj4t7mjxhl6ttn80000gn/T//cc4SdtXb.s 			page 20


 101:/Library/DaisyToolchain/0.2.0/arm/arm-none-eabi/include/c++/10.3.1/bits/std_function.h ****     char _M_pod_data[sizeof(_Nocopy_types)];
 102:/Library/DaisyToolchain/0.2.0/arm/arm-none-eabi/include/c++/10.3.1/bits/std_function.h ****   };
 103:/Library/DaisyToolchain/0.2.0/arm/arm-none-eabi/include/c++/10.3.1/bits/std_function.h **** 
 104:/Library/DaisyToolchain/0.2.0/arm/arm-none-eabi/include/c++/10.3.1/bits/std_function.h ****   enum _Manager_operation
 105:/Library/DaisyToolchain/0.2.0/arm/arm-none-eabi/include/c++/10.3.1/bits/std_function.h ****   {
 106:/Library/DaisyToolchain/0.2.0/arm/arm-none-eabi/include/c++/10.3.1/bits/std_function.h ****     __get_type_info,
 107:/Library/DaisyToolchain/0.2.0/arm/arm-none-eabi/include/c++/10.3.1/bits/std_function.h ****     __get_functor_ptr,
 108:/Library/DaisyToolchain/0.2.0/arm/arm-none-eabi/include/c++/10.3.1/bits/std_function.h ****     __clone_functor,
 109:/Library/DaisyToolchain/0.2.0/arm/arm-none-eabi/include/c++/10.3.1/bits/std_function.h ****     __destroy_functor
 110:/Library/DaisyToolchain/0.2.0/arm/arm-none-eabi/include/c++/10.3.1/bits/std_function.h ****   };
 111:/Library/DaisyToolchain/0.2.0/arm/arm-none-eabi/include/c++/10.3.1/bits/std_function.h **** 
 112:/Library/DaisyToolchain/0.2.0/arm/arm-none-eabi/include/c++/10.3.1/bits/std_function.h ****   template<typename _Signature>
 113:/Library/DaisyToolchain/0.2.0/arm/arm-none-eabi/include/c++/10.3.1/bits/std_function.h ****     class function;
 114:/Library/DaisyToolchain/0.2.0/arm/arm-none-eabi/include/c++/10.3.1/bits/std_function.h **** 
 115:/Library/DaisyToolchain/0.2.0/arm/arm-none-eabi/include/c++/10.3.1/bits/std_function.h ****   /// Base class of all polymorphic function object wrappers.
 116:/Library/DaisyToolchain/0.2.0/arm/arm-none-eabi/include/c++/10.3.1/bits/std_function.h ****   class _Function_base
 117:/Library/DaisyToolchain/0.2.0/arm/arm-none-eabi/include/c++/10.3.1/bits/std_function.h ****   {
 118:/Library/DaisyToolchain/0.2.0/arm/arm-none-eabi/include/c++/10.3.1/bits/std_function.h ****   public:
 119:/Library/DaisyToolchain/0.2.0/arm/arm-none-eabi/include/c++/10.3.1/bits/std_function.h ****     static const size_t _M_max_size = sizeof(_Nocopy_types);
 120:/Library/DaisyToolchain/0.2.0/arm/arm-none-eabi/include/c++/10.3.1/bits/std_function.h ****     static const size_t _M_max_align = __alignof__(_Nocopy_types);
 121:/Library/DaisyToolchain/0.2.0/arm/arm-none-eabi/include/c++/10.3.1/bits/std_function.h **** 
 122:/Library/DaisyToolchain/0.2.0/arm/arm-none-eabi/include/c++/10.3.1/bits/std_function.h ****     template<typename _Functor>
 123:/Library/DaisyToolchain/0.2.0/arm/arm-none-eabi/include/c++/10.3.1/bits/std_function.h ****       class _Base_manager
 124:/Library/DaisyToolchain/0.2.0/arm/arm-none-eabi/include/c++/10.3.1/bits/std_function.h ****       {
 125:/Library/DaisyToolchain/0.2.0/arm/arm-none-eabi/include/c++/10.3.1/bits/std_function.h ****       protected:
 126:/Library/DaisyToolchain/0.2.0/arm/arm-none-eabi/include/c++/10.3.1/bits/std_function.h **** 	static const bool __stored_locally =
 127:/Library/DaisyToolchain/0.2.0/arm/arm-none-eabi/include/c++/10.3.1/bits/std_function.h **** 	(__is_location_invariant<_Functor>::value
 128:/Library/DaisyToolchain/0.2.0/arm/arm-none-eabi/include/c++/10.3.1/bits/std_function.h **** 	 && sizeof(_Functor) <= _M_max_size
 129:/Library/DaisyToolchain/0.2.0/arm/arm-none-eabi/include/c++/10.3.1/bits/std_function.h **** 	 && __alignof__(_Functor) <= _M_max_align
 130:/Library/DaisyToolchain/0.2.0/arm/arm-none-eabi/include/c++/10.3.1/bits/std_function.h **** 	 && (_M_max_align % __alignof__(_Functor) == 0));
 131:/Library/DaisyToolchain/0.2.0/arm/arm-none-eabi/include/c++/10.3.1/bits/std_function.h **** 
 132:/Library/DaisyToolchain/0.2.0/arm/arm-none-eabi/include/c++/10.3.1/bits/std_function.h **** 	typedef integral_constant<bool, __stored_locally> _Local_storage;
 133:/Library/DaisyToolchain/0.2.0/arm/arm-none-eabi/include/c++/10.3.1/bits/std_function.h **** 
 134:/Library/DaisyToolchain/0.2.0/arm/arm-none-eabi/include/c++/10.3.1/bits/std_function.h **** 	// Retrieve a pointer to the function object
 135:/Library/DaisyToolchain/0.2.0/arm/arm-none-eabi/include/c++/10.3.1/bits/std_function.h **** 	static _Functor*
 136:/Library/DaisyToolchain/0.2.0/arm/arm-none-eabi/include/c++/10.3.1/bits/std_function.h **** 	_M_get_pointer(const _Any_data& __source)
 137:/Library/DaisyToolchain/0.2.0/arm/arm-none-eabi/include/c++/10.3.1/bits/std_function.h **** 	{
 138:/Library/DaisyToolchain/0.2.0/arm/arm-none-eabi/include/c++/10.3.1/bits/std_function.h **** 	  if _GLIBCXX17_CONSTEXPR (__stored_locally)
 139:/Library/DaisyToolchain/0.2.0/arm/arm-none-eabi/include/c++/10.3.1/bits/std_function.h **** 	    {
 140:/Library/DaisyToolchain/0.2.0/arm/arm-none-eabi/include/c++/10.3.1/bits/std_function.h **** 	      const _Functor& __f = __source._M_access<_Functor>();
 141:/Library/DaisyToolchain/0.2.0/arm/arm-none-eabi/include/c++/10.3.1/bits/std_function.h **** 	      return const_cast<_Functor*>(std::__addressof(__f));
 142:/Library/DaisyToolchain/0.2.0/arm/arm-none-eabi/include/c++/10.3.1/bits/std_function.h **** 	    }
 143:/Library/DaisyToolchain/0.2.0/arm/arm-none-eabi/include/c++/10.3.1/bits/std_function.h **** 	  else // have stored a pointer
 144:/Library/DaisyToolchain/0.2.0/arm/arm-none-eabi/include/c++/10.3.1/bits/std_function.h **** 	    return __source._M_access<_Functor*>();
 145:/Library/DaisyToolchain/0.2.0/arm/arm-none-eabi/include/c++/10.3.1/bits/std_function.h **** 	}
 146:/Library/DaisyToolchain/0.2.0/arm/arm-none-eabi/include/c++/10.3.1/bits/std_function.h **** 
 147:/Library/DaisyToolchain/0.2.0/arm/arm-none-eabi/include/c++/10.3.1/bits/std_function.h **** 	// Clone a location-invariant function object that fits within
 148:/Library/DaisyToolchain/0.2.0/arm/arm-none-eabi/include/c++/10.3.1/bits/std_function.h **** 	// an _Any_data structure.
 149:/Library/DaisyToolchain/0.2.0/arm/arm-none-eabi/include/c++/10.3.1/bits/std_function.h **** 	static void
 150:/Library/DaisyToolchain/0.2.0/arm/arm-none-eabi/include/c++/10.3.1/bits/std_function.h **** 	_M_clone(_Any_data& __dest, const _Any_data& __source, true_type)
 151:/Library/DaisyToolchain/0.2.0/arm/arm-none-eabi/include/c++/10.3.1/bits/std_function.h **** 	{
 152:/Library/DaisyToolchain/0.2.0/arm/arm-none-eabi/include/c++/10.3.1/bits/std_function.h **** 	  ::new (__dest._M_access()) _Functor(__source._M_access<_Functor>());
 153:/Library/DaisyToolchain/0.2.0/arm/arm-none-eabi/include/c++/10.3.1/bits/std_function.h **** 	}
 154:/Library/DaisyToolchain/0.2.0/arm/arm-none-eabi/include/c++/10.3.1/bits/std_function.h **** 
 155:/Library/DaisyToolchain/0.2.0/arm/arm-none-eabi/include/c++/10.3.1/bits/std_function.h **** 	// Clone a function object that is not location-invariant or
 156:/Library/DaisyToolchain/0.2.0/arm/arm-none-eabi/include/c++/10.3.1/bits/std_function.h **** 	// that cannot fit into an _Any_data structure.
 157:/Library/DaisyToolchain/0.2.0/arm/arm-none-eabi/include/c++/10.3.1/bits/std_function.h **** 	static void
ARM GAS  /var/folders/wz/z09yph4n0qj4t7mjxhl6ttn80000gn/T//cc4SdtXb.s 			page 21


 158:/Library/DaisyToolchain/0.2.0/arm/arm-none-eabi/include/c++/10.3.1/bits/std_function.h **** 	_M_clone(_Any_data& __dest, const _Any_data& __source, false_type)
 159:/Library/DaisyToolchain/0.2.0/arm/arm-none-eabi/include/c++/10.3.1/bits/std_function.h **** 	{
 160:/Library/DaisyToolchain/0.2.0/arm/arm-none-eabi/include/c++/10.3.1/bits/std_function.h **** 	  __dest._M_access<_Functor*>() =
 161:/Library/DaisyToolchain/0.2.0/arm/arm-none-eabi/include/c++/10.3.1/bits/std_function.h **** 	    new _Functor(*__source._M_access<const _Functor*>());
 162:/Library/DaisyToolchain/0.2.0/arm/arm-none-eabi/include/c++/10.3.1/bits/std_function.h **** 	}
 163:/Library/DaisyToolchain/0.2.0/arm/arm-none-eabi/include/c++/10.3.1/bits/std_function.h **** 
 164:/Library/DaisyToolchain/0.2.0/arm/arm-none-eabi/include/c++/10.3.1/bits/std_function.h **** 	// Destroying a location-invariant object may still require
 165:/Library/DaisyToolchain/0.2.0/arm/arm-none-eabi/include/c++/10.3.1/bits/std_function.h **** 	// destruction.
 166:/Library/DaisyToolchain/0.2.0/arm/arm-none-eabi/include/c++/10.3.1/bits/std_function.h **** 	static void
 167:/Library/DaisyToolchain/0.2.0/arm/arm-none-eabi/include/c++/10.3.1/bits/std_function.h **** 	_M_destroy(_Any_data& __victim, true_type)
 168:/Library/DaisyToolchain/0.2.0/arm/arm-none-eabi/include/c++/10.3.1/bits/std_function.h **** 	{
 169:/Library/DaisyToolchain/0.2.0/arm/arm-none-eabi/include/c++/10.3.1/bits/std_function.h **** 	  __victim._M_access<_Functor>().~_Functor();
 170:/Library/DaisyToolchain/0.2.0/arm/arm-none-eabi/include/c++/10.3.1/bits/std_function.h **** 	}
 171:/Library/DaisyToolchain/0.2.0/arm/arm-none-eabi/include/c++/10.3.1/bits/std_function.h **** 
 172:/Library/DaisyToolchain/0.2.0/arm/arm-none-eabi/include/c++/10.3.1/bits/std_function.h **** 	// Destroying an object located on the heap.
 173:/Library/DaisyToolchain/0.2.0/arm/arm-none-eabi/include/c++/10.3.1/bits/std_function.h **** 	static void
 174:/Library/DaisyToolchain/0.2.0/arm/arm-none-eabi/include/c++/10.3.1/bits/std_function.h **** 	_M_destroy(_Any_data& __victim, false_type)
 175:/Library/DaisyToolchain/0.2.0/arm/arm-none-eabi/include/c++/10.3.1/bits/std_function.h **** 	{
 176:/Library/DaisyToolchain/0.2.0/arm/arm-none-eabi/include/c++/10.3.1/bits/std_function.h **** 	  delete __victim._M_access<_Functor*>();
 177:/Library/DaisyToolchain/0.2.0/arm/arm-none-eabi/include/c++/10.3.1/bits/std_function.h **** 	}
 178:/Library/DaisyToolchain/0.2.0/arm/arm-none-eabi/include/c++/10.3.1/bits/std_function.h **** 
 179:/Library/DaisyToolchain/0.2.0/arm/arm-none-eabi/include/c++/10.3.1/bits/std_function.h ****       public:
 180:/Library/DaisyToolchain/0.2.0/arm/arm-none-eabi/include/c++/10.3.1/bits/std_function.h **** 	static bool
 181:/Library/DaisyToolchain/0.2.0/arm/arm-none-eabi/include/c++/10.3.1/bits/std_function.h **** 	_M_manager(_Any_data& __dest, const _Any_data& __source,
 182:/Library/DaisyToolchain/0.2.0/arm/arm-none-eabi/include/c++/10.3.1/bits/std_function.h **** 		   _Manager_operation __op)
 183:/Library/DaisyToolchain/0.2.0/arm/arm-none-eabi/include/c++/10.3.1/bits/std_function.h **** 	{
 184:/Library/DaisyToolchain/0.2.0/arm/arm-none-eabi/include/c++/10.3.1/bits/std_function.h **** 	  switch (__op)
 185:/Library/DaisyToolchain/0.2.0/arm/arm-none-eabi/include/c++/10.3.1/bits/std_function.h **** 	    {
 186:/Library/DaisyToolchain/0.2.0/arm/arm-none-eabi/include/c++/10.3.1/bits/std_function.h **** #if __cpp_rtti
 187:/Library/DaisyToolchain/0.2.0/arm/arm-none-eabi/include/c++/10.3.1/bits/std_function.h **** 	    case __get_type_info:
 188:/Library/DaisyToolchain/0.2.0/arm/arm-none-eabi/include/c++/10.3.1/bits/std_function.h **** 	      __dest._M_access<const type_info*>() = &typeid(_Functor);
 189:/Library/DaisyToolchain/0.2.0/arm/arm-none-eabi/include/c++/10.3.1/bits/std_function.h **** 	      break;
 190:/Library/DaisyToolchain/0.2.0/arm/arm-none-eabi/include/c++/10.3.1/bits/std_function.h **** #endif
 191:/Library/DaisyToolchain/0.2.0/arm/arm-none-eabi/include/c++/10.3.1/bits/std_function.h **** 	    case __get_functor_ptr:
 192:/Library/DaisyToolchain/0.2.0/arm/arm-none-eabi/include/c++/10.3.1/bits/std_function.h **** 	      __dest._M_access<_Functor*>() = _M_get_pointer(__source);
 193:/Library/DaisyToolchain/0.2.0/arm/arm-none-eabi/include/c++/10.3.1/bits/std_function.h **** 	      break;
 194:/Library/DaisyToolchain/0.2.0/arm/arm-none-eabi/include/c++/10.3.1/bits/std_function.h **** 
 195:/Library/DaisyToolchain/0.2.0/arm/arm-none-eabi/include/c++/10.3.1/bits/std_function.h **** 	    case __clone_functor:
 196:/Library/DaisyToolchain/0.2.0/arm/arm-none-eabi/include/c++/10.3.1/bits/std_function.h **** 	      _M_clone(__dest, __source, _Local_storage());
 197:/Library/DaisyToolchain/0.2.0/arm/arm-none-eabi/include/c++/10.3.1/bits/std_function.h **** 	      break;
 198:/Library/DaisyToolchain/0.2.0/arm/arm-none-eabi/include/c++/10.3.1/bits/std_function.h **** 
 199:/Library/DaisyToolchain/0.2.0/arm/arm-none-eabi/include/c++/10.3.1/bits/std_function.h **** 	    case __destroy_functor:
 200:/Library/DaisyToolchain/0.2.0/arm/arm-none-eabi/include/c++/10.3.1/bits/std_function.h **** 	      _M_destroy(__dest, _Local_storage());
 201:/Library/DaisyToolchain/0.2.0/arm/arm-none-eabi/include/c++/10.3.1/bits/std_function.h **** 	      break;
 202:/Library/DaisyToolchain/0.2.0/arm/arm-none-eabi/include/c++/10.3.1/bits/std_function.h **** 	    }
 203:/Library/DaisyToolchain/0.2.0/arm/arm-none-eabi/include/c++/10.3.1/bits/std_function.h **** 	  return false;
 204:/Library/DaisyToolchain/0.2.0/arm/arm-none-eabi/include/c++/10.3.1/bits/std_function.h **** 	}
 205:/Library/DaisyToolchain/0.2.0/arm/arm-none-eabi/include/c++/10.3.1/bits/std_function.h **** 
 206:/Library/DaisyToolchain/0.2.0/arm/arm-none-eabi/include/c++/10.3.1/bits/std_function.h **** 	static void
 207:/Library/DaisyToolchain/0.2.0/arm/arm-none-eabi/include/c++/10.3.1/bits/std_function.h **** 	_M_init_functor(_Any_data& __functor, _Functor&& __f)
 208:/Library/DaisyToolchain/0.2.0/arm/arm-none-eabi/include/c++/10.3.1/bits/std_function.h **** 	{ _M_init_functor(__functor, std::move(__f), _Local_storage()); }
 209:/Library/DaisyToolchain/0.2.0/arm/arm-none-eabi/include/c++/10.3.1/bits/std_function.h **** 
 210:/Library/DaisyToolchain/0.2.0/arm/arm-none-eabi/include/c++/10.3.1/bits/std_function.h **** 	template<typename _Signature>
 211:/Library/DaisyToolchain/0.2.0/arm/arm-none-eabi/include/c++/10.3.1/bits/std_function.h **** 	  static bool
 212:/Library/DaisyToolchain/0.2.0/arm/arm-none-eabi/include/c++/10.3.1/bits/std_function.h **** 	  _M_not_empty_function(const function<_Signature>& __f)
 213:/Library/DaisyToolchain/0.2.0/arm/arm-none-eabi/include/c++/10.3.1/bits/std_function.h **** 	  { return static_cast<bool>(__f); }
 214:/Library/DaisyToolchain/0.2.0/arm/arm-none-eabi/include/c++/10.3.1/bits/std_function.h **** 
ARM GAS  /var/folders/wz/z09yph4n0qj4t7mjxhl6ttn80000gn/T//cc4SdtXb.s 			page 22


 215:/Library/DaisyToolchain/0.2.0/arm/arm-none-eabi/include/c++/10.3.1/bits/std_function.h **** 	template<typename _Tp>
 216:/Library/DaisyToolchain/0.2.0/arm/arm-none-eabi/include/c++/10.3.1/bits/std_function.h **** 	  static bool
 217:/Library/DaisyToolchain/0.2.0/arm/arm-none-eabi/include/c++/10.3.1/bits/std_function.h **** 	  _M_not_empty_function(_Tp* __fp)
 218:/Library/DaisyToolchain/0.2.0/arm/arm-none-eabi/include/c++/10.3.1/bits/std_function.h **** 	  { return __fp != nullptr; }
 219:/Library/DaisyToolchain/0.2.0/arm/arm-none-eabi/include/c++/10.3.1/bits/std_function.h **** 
 220:/Library/DaisyToolchain/0.2.0/arm/arm-none-eabi/include/c++/10.3.1/bits/std_function.h **** 	template<typename _Class, typename _Tp>
 221:/Library/DaisyToolchain/0.2.0/arm/arm-none-eabi/include/c++/10.3.1/bits/std_function.h **** 	  static bool
 222:/Library/DaisyToolchain/0.2.0/arm/arm-none-eabi/include/c++/10.3.1/bits/std_function.h **** 	  _M_not_empty_function(_Tp _Class::* __mp)
 223:/Library/DaisyToolchain/0.2.0/arm/arm-none-eabi/include/c++/10.3.1/bits/std_function.h **** 	  { return __mp != nullptr; }
 224:/Library/DaisyToolchain/0.2.0/arm/arm-none-eabi/include/c++/10.3.1/bits/std_function.h **** 
 225:/Library/DaisyToolchain/0.2.0/arm/arm-none-eabi/include/c++/10.3.1/bits/std_function.h **** 	template<typename _Tp>
 226:/Library/DaisyToolchain/0.2.0/arm/arm-none-eabi/include/c++/10.3.1/bits/std_function.h **** 	  static bool
 227:/Library/DaisyToolchain/0.2.0/arm/arm-none-eabi/include/c++/10.3.1/bits/std_function.h **** 	  _M_not_empty_function(const _Tp&)
 228:/Library/DaisyToolchain/0.2.0/arm/arm-none-eabi/include/c++/10.3.1/bits/std_function.h **** 	  { return true; }
 229:/Library/DaisyToolchain/0.2.0/arm/arm-none-eabi/include/c++/10.3.1/bits/std_function.h **** 
 230:/Library/DaisyToolchain/0.2.0/arm/arm-none-eabi/include/c++/10.3.1/bits/std_function.h ****       private:
 231:/Library/DaisyToolchain/0.2.0/arm/arm-none-eabi/include/c++/10.3.1/bits/std_function.h **** 	static void
 232:/Library/DaisyToolchain/0.2.0/arm/arm-none-eabi/include/c++/10.3.1/bits/std_function.h **** 	_M_init_functor(_Any_data& __functor, _Functor&& __f, true_type)
 233:/Library/DaisyToolchain/0.2.0/arm/arm-none-eabi/include/c++/10.3.1/bits/std_function.h **** 	{ ::new (__functor._M_access()) _Functor(std::move(__f)); }
 234:/Library/DaisyToolchain/0.2.0/arm/arm-none-eabi/include/c++/10.3.1/bits/std_function.h **** 
 235:/Library/DaisyToolchain/0.2.0/arm/arm-none-eabi/include/c++/10.3.1/bits/std_function.h **** 	static void
 236:/Library/DaisyToolchain/0.2.0/arm/arm-none-eabi/include/c++/10.3.1/bits/std_function.h **** 	_M_init_functor(_Any_data& __functor, _Functor&& __f, false_type)
 237:/Library/DaisyToolchain/0.2.0/arm/arm-none-eabi/include/c++/10.3.1/bits/std_function.h **** 	{ __functor._M_access<_Functor*>() = new _Functor(std::move(__f)); }
 238:/Library/DaisyToolchain/0.2.0/arm/arm-none-eabi/include/c++/10.3.1/bits/std_function.h ****       };
 239:/Library/DaisyToolchain/0.2.0/arm/arm-none-eabi/include/c++/10.3.1/bits/std_function.h **** 
 240:/Library/DaisyToolchain/0.2.0/arm/arm-none-eabi/include/c++/10.3.1/bits/std_function.h ****     _Function_base() : _M_manager(nullptr) { }
 626              		.loc 4 240 5
 627              		.cfi_startproc
 628              		@ args = 0, pretend = 0, frame = 8
 629              		@ frame_needed = 1, uses_anonymous_args = 0
 630              		@ link register save eliminated.
 631 0000 80B4     		push	{r7}
 632              		.cfi_def_cfa_offset 4
 633              		.cfi_offset 7, -4
 634 0002 83B0     		sub	sp, sp, #12
 635              		.cfi_def_cfa_offset 16
 636 0004 00AF     		add	r7, sp, #0
 637              		.cfi_def_cfa_register 7
 638 0006 7860     		str	r0, [r7, #4]
 639              	.LBB2:
 640              		.loc 4 240 42
 641 0008 7B68     		ldr	r3, [r7, #4]
 642 000a 0022     		movs	r2, #0
 643 000c 9A60     		str	r2, [r3, #8]
 644              	.LBE2:
 645              		.loc 4 240 46
 646 000e 7B68     		ldr	r3, [r7, #4]
 647 0010 1846     		mov	r0, r3
 648 0012 0C37     		adds	r7, r7, #12
 649              		.cfi_def_cfa_offset 4
 650 0014 BD46     		mov	sp, r7
 651              		.cfi_def_cfa_register 13
 652              		@ sp needed
 653 0016 5DF8047B 		ldr	r7, [sp], #4
 654              		.cfi_restore 7
 655              		.cfi_def_cfa_offset 0
 656 001a 7047     		bx	lr
ARM GAS  /var/folders/wz/z09yph4n0qj4t7mjxhl6ttn80000gn/T//cc4SdtXb.s 			page 23


 657              		.cfi_endproc
 658              	.LFE5045:
 660              		.weak	_ZNSt14_Function_baseC1Ev
 661              		.thumb_set _ZNSt14_Function_baseC1Ev,_ZNSt14_Function_baseC2Ev
 662              		.section	.text._ZNSt14_Function_baseD2Ev,"axG",%progbits,_ZNSt14_Function_baseD5Ev,comdat
 663              		.align	1
 664              		.weak	_ZNSt14_Function_baseD2Ev
 665              		.syntax unified
 666              		.thumb
 667              		.thumb_func
 669              	_ZNSt14_Function_baseD2Ev:
 670              	.LFB5048:
 241:/Library/DaisyToolchain/0.2.0/arm/arm-none-eabi/include/c++/10.3.1/bits/std_function.h **** 
 242:/Library/DaisyToolchain/0.2.0/arm/arm-none-eabi/include/c++/10.3.1/bits/std_function.h ****     ~_Function_base()
 671              		.loc 4 242 5
 672              		.cfi_startproc
 673              		@ args = 0, pretend = 0, frame = 8
 674              		@ frame_needed = 1, uses_anonymous_args = 0
 675 0000 80B5     		push	{r7, lr}
 676              		.cfi_def_cfa_offset 8
 677              		.cfi_offset 7, -8
 678              		.cfi_offset 14, -4
 679 0002 82B0     		sub	sp, sp, #8
 680              		.cfi_def_cfa_offset 16
 681 0004 00AF     		add	r7, sp, #0
 682              		.cfi_def_cfa_register 7
 683 0006 7860     		str	r0, [r7, #4]
 684              	.LBB3:
 243:/Library/DaisyToolchain/0.2.0/arm/arm-none-eabi/include/c++/10.3.1/bits/std_function.h ****     {
 244:/Library/DaisyToolchain/0.2.0/arm/arm-none-eabi/include/c++/10.3.1/bits/std_function.h ****       if (_M_manager)
 685              		.loc 4 244 11
 686 0008 7B68     		ldr	r3, [r7, #4]
 687 000a 9B68     		ldr	r3, [r3, #8]
 688              		.loc 4 244 7
 689 000c 002B     		cmp	r3, #0
 690 000e 05D0     		beq	.L16
 245:/Library/DaisyToolchain/0.2.0/arm/arm-none-eabi/include/c++/10.3.1/bits/std_function.h **** 	_M_manager(_M_functor, _M_functor, __destroy_functor);
 691              		.loc 4 245 2
 692 0010 7B68     		ldr	r3, [r7, #4]
 693 0012 9B68     		ldr	r3, [r3, #8]
 694              		.loc 4 245 13
 695 0014 7868     		ldr	r0, [r7, #4]
 696              		.loc 4 245 25
 697 0016 7968     		ldr	r1, [r7, #4]
 698              		.loc 4 245 12
 699 0018 0322     		movs	r2, #3
 700 001a 9847     		blx	r3
 701              	.LVL0:
 702              	.L16:
 703              	.LBE3:
 246:/Library/DaisyToolchain/0.2.0/arm/arm-none-eabi/include/c++/10.3.1/bits/std_function.h ****     }
 704              		.loc 4 246 5
 705 001c 7B68     		ldr	r3, [r7, #4]
 706 001e 1846     		mov	r0, r3
 707 0020 0837     		adds	r7, r7, #8
 708              		.cfi_def_cfa_offset 8
 709 0022 BD46     		mov	sp, r7
ARM GAS  /var/folders/wz/z09yph4n0qj4t7mjxhl6ttn80000gn/T//cc4SdtXb.s 			page 24


 710              		.cfi_def_cfa_register 13
 711              		@ sp needed
 712 0024 80BD     		pop	{r7, pc}
 713              		.cfi_endproc
 714              	.LFE5048:
 716              		.weak	_ZNSt14_Function_baseD1Ev
 717              		.thumb_set _ZNSt14_Function_baseD1Ev,_ZNSt14_Function_baseD2Ev
 718              		.section	.text._ZNKSt14_Function_base8_M_emptyEv,"axG",%progbits,_ZNKSt14_Function_base8_M_emptyEv
 719              		.align	1
 720              		.weak	_ZNKSt14_Function_base8_M_emptyEv
 721              		.syntax unified
 722              		.thumb
 723              		.thumb_func
 725              	_ZNKSt14_Function_base8_M_emptyEv:
 726              	.LFB5050:
 247:/Library/DaisyToolchain/0.2.0/arm/arm-none-eabi/include/c++/10.3.1/bits/std_function.h **** 
 248:/Library/DaisyToolchain/0.2.0/arm/arm-none-eabi/include/c++/10.3.1/bits/std_function.h ****     bool _M_empty() const { return !_M_manager; }
 727              		.loc 4 248 10
 728              		.cfi_startproc
 729              		@ args = 0, pretend = 0, frame = 8
 730              		@ frame_needed = 1, uses_anonymous_args = 0
 731              		@ link register save eliminated.
 732 0000 80B4     		push	{r7}
 733              		.cfi_def_cfa_offset 4
 734              		.cfi_offset 7, -4
 735 0002 83B0     		sub	sp, sp, #12
 736              		.cfi_def_cfa_offset 16
 737 0004 00AF     		add	r7, sp, #0
 738              		.cfi_def_cfa_register 7
 739 0006 7860     		str	r0, [r7, #4]
 740              		.loc 4 248 37
 741 0008 7B68     		ldr	r3, [r7, #4]
 742 000a 9B68     		ldr	r3, [r3, #8]
 743 000c 002B     		cmp	r3, #0
 744 000e 0CBF     		ite	eq
 745 0010 0123     		moveq	r3, #1
 746 0012 0023     		movne	r3, #0
 747 0014 DBB2     		uxtb	r3, r3
 748              		.loc 4 248 49
 749 0016 1846     		mov	r0, r3
 750 0018 0C37     		adds	r7, r7, #12
 751              		.cfi_def_cfa_offset 4
 752 001a BD46     		mov	sp, r7
 753              		.cfi_def_cfa_register 13
 754              		@ sp needed
 755 001c 5DF8047B 		ldr	r7, [sp], #4
 756              		.cfi_restore 7
 757              		.cfi_def_cfa_offset 0
 758 0020 7047     		bx	lr
 759              		.cfi_endproc
 760              	.LFE5050:
 762              		.section	.rodata._ZN9__gnu_cxxL21__default_lock_policyE,"a"
 765              	_ZN9__gnu_cxxL21__default_lock_policyE:
 766 0000 00       		.space	1
 767              		.section	.text._ZN15BinaryParameter4tickEv,"axG",%progbits,_ZN15BinaryParameter4tickEv,comdat
 768              		.align	1
 769              		.weak	_ZN15BinaryParameter4tickEv
ARM GAS  /var/folders/wz/z09yph4n0qj4t7mjxhl6ttn80000gn/T//cc4SdtXb.s 			page 25


 770              		.syntax unified
 771              		.thumb
 772              		.thumb_func
 774              	_ZN15BinaryParameter4tickEv:
 775              	.LFB5640:
 776              		.file 5 "DSP/FX/../../Parameters/BinaryParameter.h"
   1:DSP/FX/../../Parameters/BinaryParameter.h **** #ifndef BINARYPARAMETER_H
   2:DSP/FX/../../Parameters/BinaryParameter.h **** #define BINARYPARAMETER_H
   3:DSP/FX/../../Parameters/BinaryParameter.h **** 
   4:DSP/FX/../../Parameters/BinaryParameter.h **** #include "daisy_seed.h"
   5:DSP/FX/../../Parameters/BinaryParameter.h **** #include <functional>
   6:DSP/FX/../../Parameters/BinaryParameter.h **** 
   7:DSP/FX/../../Parameters/BinaryParameter.h **** /*****************************************************************************//**
   8:DSP/FX/../../Parameters/BinaryParameter.h ****  *  Class name: BinaryParameter
   9:DSP/FX/../../Parameters/BinaryParameter.h ****  *  Function: Parameter object that contains boilerplate code for button inputs
  10:DSP/FX/../../Parameters/BinaryParameter.h ****  ********************************************************************************/
  11:DSP/FX/../../Parameters/BinaryParameter.h **** 
  12:DSP/FX/../../Parameters/BinaryParameter.h **** using namespace daisy;
  13:DSP/FX/../../Parameters/BinaryParameter.h **** 
  14:DSP/FX/../../Parameters/BinaryParameter.h **** class BinaryParameter
  15:DSP/FX/../../Parameters/BinaryParameter.h **** {
  16:DSP/FX/../../Parameters/BinaryParameter.h **** public:
  17:DSP/FX/../../Parameters/BinaryParameter.h **** 
  18:DSP/FX/../../Parameters/BinaryParameter.h ****     inline void init(dsy_gpio_pin pin, float updateRate, std::function<void()> cb)
  19:DSP/FX/../../Parameters/BinaryParameter.h ****     {
  20:DSP/FX/../../Parameters/BinaryParameter.h ****         btn.Init(pin, updateRate);
  21:DSP/FX/../../Parameters/BinaryParameter.h ****         callback = cb;
  22:DSP/FX/../../Parameters/BinaryParameter.h ****     }
  23:DSP/FX/../../Parameters/BinaryParameter.h **** 
  24:DSP/FX/../../Parameters/BinaryParameter.h ****     inline void tick()
 777              		.loc 5 24 17
 778              		.cfi_startproc
 779              		@ args = 0, pretend = 0, frame = 8
 780              		@ frame_needed = 1, uses_anonymous_args = 0
 781 0000 80B5     		push	{r7, lr}
 782              		.cfi_def_cfa_offset 8
 783              		.cfi_offset 7, -8
 784              		.cfi_offset 14, -4
 785 0002 82B0     		sub	sp, sp, #8
 786              		.cfi_def_cfa_offset 16
 787 0004 00AF     		add	r7, sp, #0
 788              		.cfi_def_cfa_register 7
 789 0006 7860     		str	r0, [r7, #4]
  25:DSP/FX/../../Parameters/BinaryParameter.h ****     {
  26:DSP/FX/../../Parameters/BinaryParameter.h ****         btn.Debounce();
 790              		.loc 5 26 21
 791 0008 7B68     		ldr	r3, [r7, #4]
 792 000a 1846     		mov	r0, r3
 793 000c FFF7FEFF 		bl	_ZN5daisy6Switch8DebounceEv
  27:DSP/FX/../../Parameters/BinaryParameter.h ****         if(btn.FallingEdge())
 794              		.loc 5 27 27
 795 0010 7B68     		ldr	r3, [r7, #4]
 796 0012 1846     		mov	r0, r3
 797 0014 FFF7FEFF 		bl	_ZNK5daisy6Switch11FallingEdgeEv
 798 0018 0346     		mov	r3, r0
 799              		.loc 5 27 9
 800 001a 002B     		cmp	r3, #0
ARM GAS  /var/folders/wz/z09yph4n0qj4t7mjxhl6ttn80000gn/T//cc4SdtXb.s 			page 26


 801 001c 04D0     		beq	.L21
  28:DSP/FX/../../Parameters/BinaryParameter.h ****             callback();
 802              		.loc 5 28 21
 803 001e 7B68     		ldr	r3, [r7, #4]
 804 0020 1033     		adds	r3, r3, #16
 805 0022 1846     		mov	r0, r3
 806 0024 FFF7FEFF 		bl	_ZNKSt8functionIFvvEEclEv
 807              	.L21:
  29:DSP/FX/../../Parameters/BinaryParameter.h ****         
  30:DSP/FX/../../Parameters/BinaryParameter.h ****         System::Delay(5);
 808              		.loc 5 30 22
 809 0028 0520     		movs	r0, #5
 810 002a FFF7FEFF 		bl	_ZN5daisy6System5DelayEm
  31:DSP/FX/../../Parameters/BinaryParameter.h ****     }
 811              		.loc 5 31 5
 812 002e 00BF     		nop
 813 0030 0837     		adds	r7, r7, #8
 814              		.cfi_def_cfa_offset 8
 815 0032 BD46     		mov	sp, r7
 816              		.cfi_def_cfa_register 13
 817              		@ sp needed
 818 0034 80BD     		pop	{r7, pc}
 819              		.cfi_endproc
 820              	.LFE5640:
 822              		.section	.text._ZN5Delay8setDelayEj,"axG",%progbits,_ZN5Delay8setDelayEj,comdat
 823              		.align	1
 824              		.weak	_ZN5Delay8setDelayEj
 825              		.syntax unified
 826              		.thumb
 827              		.thumb_func
 829              	_ZN5Delay8setDelayEj:
 830              	.LFB5642:
 831              		.file 6 "DSP/FX/Delay.h"
   1:DSP/FX/Delay.h **** #ifndef DELAY_H
   2:DSP/FX/Delay.h **** #define DELAY_H
   3:DSP/FX/Delay.h **** 
   4:DSP/FX/Delay.h **** #include "../../Parameters/AudioParameter.h"
   5:DSP/FX/Delay.h **** #include "../../Parameters/BinaryParameter.h"
   6:DSP/FX/Delay.h **** 
   7:DSP/FX/Delay.h **** /************************************************************//**
   8:DSP/FX/Delay.h ****  *  Class name: Delay
   9:DSP/FX/Delay.h ****  *  Function: Processes delay effect for block of input sanples
  10:DSP/FX/Delay.h ****  ***************************************************************/
  11:DSP/FX/Delay.h **** using namespace daisysp;
  12:DSP/FX/Delay.h **** 
  13:DSP/FX/Delay.h **** class Delay
  14:DSP/FX/Delay.h **** {
  15:DSP/FX/Delay.h **** public:
  16:DSP/FX/Delay.h **** 
  17:DSP/FX/Delay.h ****     void init(DaisySeed* seed, DelayLine<float, MAXDELAY>* dl[2]);
  18:DSP/FX/Delay.h ****     void tick();
  19:DSP/FX/Delay.h **** 
  20:DSP/FX/Delay.h ****     inline void setBypass() { bypass.value = !bypass.value; }
  21:DSP/FX/Delay.h ****     inline void setDelay(size_t s) { delayLine[L]->SetDelay(s), delayLine[R]->SetDelay(s); }
 832              		.loc 6 21 17
 833              		.cfi_startproc
 834              		@ args = 0, pretend = 0, frame = 8
ARM GAS  /var/folders/wz/z09yph4n0qj4t7mjxhl6ttn80000gn/T//cc4SdtXb.s 			page 27


 835              		@ frame_needed = 1, uses_anonymous_args = 0
 836 0000 80B5     		push	{r7, lr}
 837              		.cfi_def_cfa_offset 8
 838              		.cfi_offset 7, -8
 839              		.cfi_offset 14, -4
 840 0002 82B0     		sub	sp, sp, #8
 841              		.cfi_def_cfa_offset 16
 842 0004 00AF     		add	r7, sp, #0
 843              		.cfi_def_cfa_register 7
 844 0006 7860     		str	r0, [r7, #4]
 845 0008 3960     		str	r1, [r7]
 846              		.loc 6 21 49
 847 000a 7B68     		ldr	r3, [r7, #4]
 848 000c D3F8B030 		ldr	r3, [r3, #176]
 849              		.loc 6 21 60
 850 0010 3968     		ldr	r1, [r7]
 851 0012 1846     		mov	r0, r3
 852 0014 FFF7FEFF 		bl	_ZN7daisysp9DelayLineIfLj240000EE8SetDelayEj
 853              		.loc 6 21 76
 854 0018 7B68     		ldr	r3, [r7, #4]
 855 001a D3F8B430 		ldr	r3, [r3, #180]
 856              		.loc 6 21 87
 857 001e 3968     		ldr	r1, [r7]
 858 0020 1846     		mov	r0, r3
 859 0022 FFF7FEFF 		bl	_ZN7daisysp9DelayLineIfLj240000EE8SetDelayEj
 860              		.loc 6 21 92
 861 0026 00BF     		nop
 862 0028 0837     		adds	r7, r7, #8
 863              		.cfi_def_cfa_offset 8
 864 002a BD46     		mov	sp, r7
 865              		.cfi_def_cfa_register 13
 866              		@ sp needed
 867 002c 80BD     		pop	{r7, pc}
 868              		.cfi_endproc
 869              	.LFE5642:
 871              		.section	.text._ZN5Delay9setBounceEf,"axG",%progbits,_ZN5Delay9setBounceEf,comdat
 872              		.align	1
 873              		.weak	_ZN5Delay9setBounceEf
 874              		.syntax unified
 875              		.thumb
 876              		.thumb_func
 878              	_ZN5Delay9setBounceEf:
 879              	.LFB5643:
  22:DSP/FX/Delay.h ****     inline void setBounce(float b) { bounce.value = b; }
 880              		.loc 6 22 17
 881              		.cfi_startproc
 882              		@ args = 0, pretend = 0, frame = 8
 883              		@ frame_needed = 1, uses_anonymous_args = 0
 884              		@ link register save eliminated.
 885 0000 80B4     		push	{r7}
 886              		.cfi_def_cfa_offset 4
 887              		.cfi_offset 7, -4
 888 0002 83B0     		sub	sp, sp, #12
 889              		.cfi_def_cfa_offset 16
 890 0004 00AF     		add	r7, sp, #0
 891              		.cfi_def_cfa_register 7
 892 0006 7860     		str	r0, [r7, #4]
ARM GAS  /var/folders/wz/z09yph4n0qj4t7mjxhl6ttn80000gn/T//cc4SdtXb.s 			page 28


 893 0008 87ED000A 		vstr.32	s0, [r7]
 894              		.loc 6 22 51
 895 000c 7B68     		ldr	r3, [r7, #4]
 896 000e 3A68     		ldr	r2, [r7]	@ float
 897 0010 DA67     		str	r2, [r3, #124]	@ float
 898              		.loc 6 22 56
 899 0012 00BF     		nop
 900 0014 0C37     		adds	r7, r7, #12
 901              		.cfi_def_cfa_offset 4
 902 0016 BD46     		mov	sp, r7
 903              		.cfi_def_cfa_register 13
 904              		@ sp needed
 905 0018 5DF8047B 		ldr	r7, [sp], #4
 906              		.cfi_restore 7
 907              		.cfi_def_cfa_offset 0
 908 001c 7047     		bx	lr
 909              		.cfi_endproc
 910              	.LFE5643:
 912              		.section	.text._ZN5Delay9setAmountEf,"axG",%progbits,_ZN5Delay9setAmountEf,comdat
 913              		.align	1
 914              		.weak	_ZN5Delay9setAmountEf
 915              		.syntax unified
 916              		.thumb
 917              		.thumb_func
 919              	_ZN5Delay9setAmountEf:
 920              	.LFB5644:
  23:DSP/FX/Delay.h ****     inline void setAmount(float a) { amount.value = a; }
 921              		.loc 6 23 17
 922              		.cfi_startproc
 923              		@ args = 0, pretend = 0, frame = 8
 924              		@ frame_needed = 1, uses_anonymous_args = 0
 925              		@ link register save eliminated.
 926 0000 80B4     		push	{r7}
 927              		.cfi_def_cfa_offset 4
 928              		.cfi_offset 7, -4
 929 0002 83B0     		sub	sp, sp, #12
 930              		.cfi_def_cfa_offset 16
 931 0004 00AF     		add	r7, sp, #0
 932              		.cfi_def_cfa_register 7
 933 0006 7860     		str	r0, [r7, #4]
 934 0008 87ED000A 		vstr.32	s0, [r7]
 935              		.loc 6 23 51
 936 000c 7B68     		ldr	r3, [r7, #4]
 937 000e 3A68     		ldr	r2, [r7]	@ float
 938 0010 C3F8AC20 		str	r2, [r3, #172]	@ float
 939              		.loc 6 23 56
 940 0014 00BF     		nop
 941 0016 0C37     		adds	r7, r7, #12
 942              		.cfi_def_cfa_offset 4
 943 0018 BD46     		mov	sp, r7
 944              		.cfi_def_cfa_register 13
 945              		@ sp needed
 946 001a 5DF8047B 		ldr	r7, [sp], #4
 947              		.cfi_restore 7
 948              		.cfi_def_cfa_offset 0
 949 001e 7047     		bx	lr
 950              		.cfi_endproc
ARM GAS  /var/folders/wz/z09yph4n0qj4t7mjxhl6ttn80000gn/T//cc4SdtXb.s 			page 29


 951              	.LFE5644:
 953              		.section	.text._ZZN5Delay4initEPN5daisy9DaisySeedEPPN7daisysp9DelayLineIfLj240000EEEENKUljE_clEj,"
 954              		.align	1
 955              		.syntax unified
 956              		.thumb
 957              		.thumb_func
 959              	_ZZN5Delay4initEPN5daisy9DaisySeedEPPN7daisysp9DelayLineIfLj240000EEEENKUljE_clEj:
 960              	.LFB5646:
 961              		.file 7 "DSP/FX/Delay.cpp"
   1:DSP/FX/Delay.cpp **** #include "Delay.h"
   2:DSP/FX/Delay.cpp **** 
   3:DSP/FX/Delay.cpp **** using namespace daisysp;
   4:DSP/FX/Delay.cpp **** 
   5:DSP/FX/Delay.cpp **** void Delay::init(DaisySeed* seed, DelayLine<float, MAXDELAY>* dl[2])
   6:DSP/FX/Delay.cpp **** {
   7:DSP/FX/Delay.cpp ****     for(uint_fast8_t i = 0 ; i < 2 ; i++)
   8:DSP/FX/Delay.cpp ****     {
   9:DSP/FX/Delay.cpp ****         delayLine[i] = dl[i];
  10:DSP/FX/Delay.cpp ****         delayLine[i]->Init();
  11:DSP/FX/Delay.cpp ****         delayLine[i]->Reset();
  12:DSP/FX/Delay.cpp ****     }
  13:DSP/FX/Delay.cpp **** 
  14:DSP/FX/Delay.cpp ****     //bypass.param.init(seed, 0, 1, LINEAR, ChannelIDs::TEMP1, [this] (int b) { setBypass(b); }); /
  15:DSP/FX/Delay.cpp ****     size.init(seed, 0, 10000, LINEAR, ChannelIDs::ENCODER, [this] (size_t s) { setDelay(s); }); // 
 962              		.loc 7 15 60
 963              		.cfi_startproc
 964              		@ args = 0, pretend = 0, frame = 8
 965              		@ frame_needed = 1, uses_anonymous_args = 0
 966 0000 80B5     		push	{r7, lr}
 967              		.cfi_def_cfa_offset 8
 968              		.cfi_offset 7, -8
 969              		.cfi_offset 14, -4
 970 0002 82B0     		sub	sp, sp, #8
 971              		.cfi_def_cfa_offset 16
 972 0004 00AF     		add	r7, sp, #0
 973              		.cfi_def_cfa_register 7
 974 0006 7860     		str	r0, [r7, #4]
 975 0008 3960     		str	r1, [r7]
 976              		.loc 7 15 76
 977 000a 7B68     		ldr	r3, [r7, #4]
 978 000c 1B68     		ldr	r3, [r3]
 979              		.loc 7 15 88
 980 000e 3968     		ldr	r1, [r7]
 981 0010 1846     		mov	r0, r3
 982 0012 FFF7FEFF 		bl	_ZN5Delay8setDelayEj
 983              		.loc 7 15 93
 984 0016 00BF     		nop
 985 0018 0837     		adds	r7, r7, #8
 986              		.cfi_def_cfa_offset 8
 987 001a BD46     		mov	sp, r7
 988              		.cfi_def_cfa_register 13
 989              		@ sp needed
 990 001c 80BD     		pop	{r7, pc}
 991              		.cfi_endproc
 992              	.LFE5646:
 994              		.section	.text._ZNSt8functionIFvjEED2Ev,"axG",%progbits,_ZNSt8functionIFvjEED5Ev,comdat
 995              		.align	1
ARM GAS  /var/folders/wz/z09yph4n0qj4t7mjxhl6ttn80000gn/T//cc4SdtXb.s 			page 30


 996              		.weak	_ZNSt8functionIFvjEED2Ev
 997              		.syntax unified
 998              		.thumb
 999              		.thumb_func
 1001              	_ZNSt8functionIFvjEED2Ev:
 1002              	.LFB5648:
 249:/Library/DaisyToolchain/0.2.0/arm/arm-none-eabi/include/c++/10.3.1/bits/std_function.h **** 
 250:/Library/DaisyToolchain/0.2.0/arm/arm-none-eabi/include/c++/10.3.1/bits/std_function.h ****     typedef bool (*_Manager_type)(_Any_data&, const _Any_data&,
 251:/Library/DaisyToolchain/0.2.0/arm/arm-none-eabi/include/c++/10.3.1/bits/std_function.h **** 				  _Manager_operation);
 252:/Library/DaisyToolchain/0.2.0/arm/arm-none-eabi/include/c++/10.3.1/bits/std_function.h **** 
 253:/Library/DaisyToolchain/0.2.0/arm/arm-none-eabi/include/c++/10.3.1/bits/std_function.h ****     _Any_data     _M_functor;
 254:/Library/DaisyToolchain/0.2.0/arm/arm-none-eabi/include/c++/10.3.1/bits/std_function.h ****     _Manager_type _M_manager;
 255:/Library/DaisyToolchain/0.2.0/arm/arm-none-eabi/include/c++/10.3.1/bits/std_function.h ****   };
 256:/Library/DaisyToolchain/0.2.0/arm/arm-none-eabi/include/c++/10.3.1/bits/std_function.h **** 
 257:/Library/DaisyToolchain/0.2.0/arm/arm-none-eabi/include/c++/10.3.1/bits/std_function.h ****   template<typename _Signature, typename _Functor>
 258:/Library/DaisyToolchain/0.2.0/arm/arm-none-eabi/include/c++/10.3.1/bits/std_function.h ****     class _Function_handler;
 259:/Library/DaisyToolchain/0.2.0/arm/arm-none-eabi/include/c++/10.3.1/bits/std_function.h **** 
 260:/Library/DaisyToolchain/0.2.0/arm/arm-none-eabi/include/c++/10.3.1/bits/std_function.h ****   template<typename _Res, typename _Functor, typename... _ArgTypes>
 261:/Library/DaisyToolchain/0.2.0/arm/arm-none-eabi/include/c++/10.3.1/bits/std_function.h ****     class _Function_handler<_Res(_ArgTypes...), _Functor>
 262:/Library/DaisyToolchain/0.2.0/arm/arm-none-eabi/include/c++/10.3.1/bits/std_function.h ****     : public _Function_base::_Base_manager<_Functor>
 263:/Library/DaisyToolchain/0.2.0/arm/arm-none-eabi/include/c++/10.3.1/bits/std_function.h ****     {
 264:/Library/DaisyToolchain/0.2.0/arm/arm-none-eabi/include/c++/10.3.1/bits/std_function.h ****       typedef _Function_base::_Base_manager<_Functor> _Base;
 265:/Library/DaisyToolchain/0.2.0/arm/arm-none-eabi/include/c++/10.3.1/bits/std_function.h **** 
 266:/Library/DaisyToolchain/0.2.0/arm/arm-none-eabi/include/c++/10.3.1/bits/std_function.h ****     public:
 267:/Library/DaisyToolchain/0.2.0/arm/arm-none-eabi/include/c++/10.3.1/bits/std_function.h ****       static bool
 268:/Library/DaisyToolchain/0.2.0/arm/arm-none-eabi/include/c++/10.3.1/bits/std_function.h ****       _M_manager(_Any_data& __dest, const _Any_data& __source,
 269:/Library/DaisyToolchain/0.2.0/arm/arm-none-eabi/include/c++/10.3.1/bits/std_function.h **** 		 _Manager_operation __op)
 270:/Library/DaisyToolchain/0.2.0/arm/arm-none-eabi/include/c++/10.3.1/bits/std_function.h ****       {
 271:/Library/DaisyToolchain/0.2.0/arm/arm-none-eabi/include/c++/10.3.1/bits/std_function.h **** 	switch (__op)
 272:/Library/DaisyToolchain/0.2.0/arm/arm-none-eabi/include/c++/10.3.1/bits/std_function.h **** 	  {
 273:/Library/DaisyToolchain/0.2.0/arm/arm-none-eabi/include/c++/10.3.1/bits/std_function.h **** #if __cpp_rtti
 274:/Library/DaisyToolchain/0.2.0/arm/arm-none-eabi/include/c++/10.3.1/bits/std_function.h **** 	  case __get_type_info:
 275:/Library/DaisyToolchain/0.2.0/arm/arm-none-eabi/include/c++/10.3.1/bits/std_function.h **** 	    __dest._M_access<const type_info*>() = &typeid(_Functor);
 276:/Library/DaisyToolchain/0.2.0/arm/arm-none-eabi/include/c++/10.3.1/bits/std_function.h **** 	    break;
 277:/Library/DaisyToolchain/0.2.0/arm/arm-none-eabi/include/c++/10.3.1/bits/std_function.h **** #endif
 278:/Library/DaisyToolchain/0.2.0/arm/arm-none-eabi/include/c++/10.3.1/bits/std_function.h **** 	  case __get_functor_ptr:
 279:/Library/DaisyToolchain/0.2.0/arm/arm-none-eabi/include/c++/10.3.1/bits/std_function.h **** 	    __dest._M_access<_Functor*>() = _Base::_M_get_pointer(__source);
 280:/Library/DaisyToolchain/0.2.0/arm/arm-none-eabi/include/c++/10.3.1/bits/std_function.h **** 	    break;
 281:/Library/DaisyToolchain/0.2.0/arm/arm-none-eabi/include/c++/10.3.1/bits/std_function.h **** 
 282:/Library/DaisyToolchain/0.2.0/arm/arm-none-eabi/include/c++/10.3.1/bits/std_function.h **** 	  default:
 283:/Library/DaisyToolchain/0.2.0/arm/arm-none-eabi/include/c++/10.3.1/bits/std_function.h **** 	    _Base::_M_manager(__dest, __source, __op);
 284:/Library/DaisyToolchain/0.2.0/arm/arm-none-eabi/include/c++/10.3.1/bits/std_function.h **** 	  }
 285:/Library/DaisyToolchain/0.2.0/arm/arm-none-eabi/include/c++/10.3.1/bits/std_function.h **** 	return false;
 286:/Library/DaisyToolchain/0.2.0/arm/arm-none-eabi/include/c++/10.3.1/bits/std_function.h ****       }
 287:/Library/DaisyToolchain/0.2.0/arm/arm-none-eabi/include/c++/10.3.1/bits/std_function.h **** 
 288:/Library/DaisyToolchain/0.2.0/arm/arm-none-eabi/include/c++/10.3.1/bits/std_function.h ****       static _Res
 289:/Library/DaisyToolchain/0.2.0/arm/arm-none-eabi/include/c++/10.3.1/bits/std_function.h ****       _M_invoke(const _Any_data& __functor, _ArgTypes&&... __args)
 290:/Library/DaisyToolchain/0.2.0/arm/arm-none-eabi/include/c++/10.3.1/bits/std_function.h ****       {
 291:/Library/DaisyToolchain/0.2.0/arm/arm-none-eabi/include/c++/10.3.1/bits/std_function.h **** 	return std::__invoke_r<_Res>(*_Base::_M_get_pointer(__functor),
 292:/Library/DaisyToolchain/0.2.0/arm/arm-none-eabi/include/c++/10.3.1/bits/std_function.h **** 				     std::forward<_ArgTypes>(__args)...);
 293:/Library/DaisyToolchain/0.2.0/arm/arm-none-eabi/include/c++/10.3.1/bits/std_function.h ****       }
 294:/Library/DaisyToolchain/0.2.0/arm/arm-none-eabi/include/c++/10.3.1/bits/std_function.h ****     };
 295:/Library/DaisyToolchain/0.2.0/arm/arm-none-eabi/include/c++/10.3.1/bits/std_function.h **** 
 296:/Library/DaisyToolchain/0.2.0/arm/arm-none-eabi/include/c++/10.3.1/bits/std_function.h ****   /**
 297:/Library/DaisyToolchain/0.2.0/arm/arm-none-eabi/include/c++/10.3.1/bits/std_function.h ****    *  @brief Primary class template for std::function.
 298:/Library/DaisyToolchain/0.2.0/arm/arm-none-eabi/include/c++/10.3.1/bits/std_function.h ****    *  @ingroup functors
 299:/Library/DaisyToolchain/0.2.0/arm/arm-none-eabi/include/c++/10.3.1/bits/std_function.h ****    *
ARM GAS  /var/folders/wz/z09yph4n0qj4t7mjxhl6ttn80000gn/T//cc4SdtXb.s 			page 31


 300:/Library/DaisyToolchain/0.2.0/arm/arm-none-eabi/include/c++/10.3.1/bits/std_function.h ****    *  Polymorphic function wrapper.
 301:/Library/DaisyToolchain/0.2.0/arm/arm-none-eabi/include/c++/10.3.1/bits/std_function.h ****    */
 302:/Library/DaisyToolchain/0.2.0/arm/arm-none-eabi/include/c++/10.3.1/bits/std_function.h ****   template<typename _Res, typename... _ArgTypes>
 303:/Library/DaisyToolchain/0.2.0/arm/arm-none-eabi/include/c++/10.3.1/bits/std_function.h ****     class function<_Res(_ArgTypes...)>
 1003              		.loc 4 303 11
 1004              		.cfi_startproc
 1005              		@ args = 0, pretend = 0, frame = 8
 1006              		@ frame_needed = 1, uses_anonymous_args = 0
 1007 0000 80B5     		push	{r7, lr}
 1008              		.cfi_def_cfa_offset 8
 1009              		.cfi_offset 7, -8
 1010              		.cfi_offset 14, -4
 1011 0002 82B0     		sub	sp, sp, #8
 1012              		.cfi_def_cfa_offset 16
 1013 0004 00AF     		add	r7, sp, #0
 1014              		.cfi_def_cfa_register 7
 1015 0006 7860     		str	r0, [r7, #4]
 1016              	.LBB4:
 1017              		.loc 4 303 11
 1018 0008 7B68     		ldr	r3, [r7, #4]
 1019 000a 1846     		mov	r0, r3
 1020 000c FFF7FEFF 		bl	_ZNSt14_Function_baseD2Ev
 1021              	.LBE4:
 1022 0010 7B68     		ldr	r3, [r7, #4]
 1023 0012 1846     		mov	r0, r3
 1024 0014 0837     		adds	r7, r7, #8
 1025              		.cfi_def_cfa_offset 8
 1026 0016 BD46     		mov	sp, r7
 1027              		.cfi_def_cfa_register 13
 1028              		@ sp needed
 1029 0018 80BD     		pop	{r7, pc}
 1030              		.cfi_endproc
 1031              	.LFE5648:
 1033              		.weak	_ZNSt8functionIFvjEED1Ev
 1034              		.thumb_set _ZNSt8functionIFvjEED1Ev,_ZNSt8functionIFvjEED2Ev
 1035              		.section	.text._ZZN5Delay4initEPN5daisy9DaisySeedEPPN7daisysp9DelayLineIfLj240000EEEENKUlfE0_clEf,
 1036              		.align	1
 1037              		.syntax unified
 1038              		.thumb
 1039              		.thumb_func
 1041              	_ZZN5Delay4initEPN5daisy9DaisySeedEPPN7daisysp9DelayLineIfLj240000EEEENKUlfE0_clEf:
 1042              	.LFB5650:
  16:DSP/FX/Delay.cpp ****     bounce.param.init(seed, 0, 1, LINEAR, ChannelIDs::ENCODER, [this] (float b) { setBounce(b); });
 1043              		.loc 7 16 64
 1044              		.cfi_startproc
 1045              		@ args = 0, pretend = 0, frame = 8
 1046              		@ frame_needed = 1, uses_anonymous_args = 0
 1047 0000 80B5     		push	{r7, lr}
 1048              		.cfi_def_cfa_offset 8
 1049              		.cfi_offset 7, -8
 1050              		.cfi_offset 14, -4
 1051 0002 82B0     		sub	sp, sp, #8
 1052              		.cfi_def_cfa_offset 16
 1053 0004 00AF     		add	r7, sp, #0
 1054              		.cfi_def_cfa_register 7
 1055 0006 7860     		str	r0, [r7, #4]
 1056 0008 87ED000A 		vstr.32	s0, [r7]
ARM GAS  /var/folders/wz/z09yph4n0qj4t7mjxhl6ttn80000gn/T//cc4SdtXb.s 			page 32


 1057              		.loc 7 16 79
 1058 000c 7B68     		ldr	r3, [r7, #4]
 1059 000e 1B68     		ldr	r3, [r3]
 1060              		.loc 7 16 92
 1061 0010 97ED000A 		vldr.32	s0, [r7]
 1062 0014 1846     		mov	r0, r3
 1063 0016 FFF7FEFF 		bl	_ZN5Delay9setBounceEf
 1064              		.loc 7 16 97
 1065 001a 00BF     		nop
 1066 001c 0837     		adds	r7, r7, #8
 1067              		.cfi_def_cfa_offset 8
 1068 001e BD46     		mov	sp, r7
 1069              		.cfi_def_cfa_register 13
 1070              		@ sp needed
 1071 0020 80BD     		pop	{r7, pc}
 1072              		.cfi_endproc
 1073              	.LFE5650:
 1075              		.section	.text._ZNSt8functionIFvfEED2Ev,"axG",%progbits,_ZNSt8functionIFvfEED5Ev,comdat
 1076              		.align	1
 1077              		.weak	_ZNSt8functionIFvfEED2Ev
 1078              		.syntax unified
 1079              		.thumb
 1080              		.thumb_func
 1082              	_ZNSt8functionIFvfEED2Ev:
 1083              	.LFB5652:
 1084              		.loc 4 303 11
 1085              		.cfi_startproc
 1086              		@ args = 0, pretend = 0, frame = 8
 1087              		@ frame_needed = 1, uses_anonymous_args = 0
 1088 0000 80B5     		push	{r7, lr}
 1089              		.cfi_def_cfa_offset 8
 1090              		.cfi_offset 7, -8
 1091              		.cfi_offset 14, -4
 1092 0002 82B0     		sub	sp, sp, #8
 1093              		.cfi_def_cfa_offset 16
 1094 0004 00AF     		add	r7, sp, #0
 1095              		.cfi_def_cfa_register 7
 1096 0006 7860     		str	r0, [r7, #4]
 1097              	.LBB5:
 1098              		.loc 4 303 11
 1099 0008 7B68     		ldr	r3, [r7, #4]
 1100 000a 1846     		mov	r0, r3
 1101 000c FFF7FEFF 		bl	_ZNSt14_Function_baseD2Ev
 1102              	.LBE5:
 1103 0010 7B68     		ldr	r3, [r7, #4]
 1104 0012 1846     		mov	r0, r3
 1105 0014 0837     		adds	r7, r7, #8
 1106              		.cfi_def_cfa_offset 8
 1107 0016 BD46     		mov	sp, r7
 1108              		.cfi_def_cfa_register 13
 1109              		@ sp needed
 1110 0018 80BD     		pop	{r7, pc}
 1111              		.cfi_endproc
 1112              	.LFE5652:
 1114              		.weak	_ZNSt8functionIFvfEED1Ev
 1115              		.thumb_set _ZNSt8functionIFvfEED1Ev,_ZNSt8functionIFvfEED2Ev
 1116              		.section	.text._ZZN5Delay4initEPN5daisy9DaisySeedEPPN7daisysp9DelayLineIfLj240000EEEENKUlfE1_clEf,
ARM GAS  /var/folders/wz/z09yph4n0qj4t7mjxhl6ttn80000gn/T//cc4SdtXb.s 			page 33


 1117              		.align	1
 1118              		.syntax unified
 1119              		.thumb
 1120              		.thumb_func
 1122              	_ZZN5Delay4initEPN5daisy9DaisySeedEPPN7daisysp9DelayLineIfLj240000EEEENKUlfE1_clEf:
 1123              	.LFB5654:
  17:DSP/FX/Delay.cpp ****     amount.param.init(seed, 0, 1, LINEAR, ChannelIDs::ENCODER, [this] (float a) { setAmount(a); });
 1124              		.loc 7 17 64
 1125              		.cfi_startproc
 1126              		@ args = 0, pretend = 0, frame = 8
 1127              		@ frame_needed = 1, uses_anonymous_args = 0
 1128 0000 80B5     		push	{r7, lr}
 1129              		.cfi_def_cfa_offset 8
 1130              		.cfi_offset 7, -8
 1131              		.cfi_offset 14, -4
 1132 0002 82B0     		sub	sp, sp, #8
 1133              		.cfi_def_cfa_offset 16
 1134 0004 00AF     		add	r7, sp, #0
 1135              		.cfi_def_cfa_register 7
 1136 0006 7860     		str	r0, [r7, #4]
 1137 0008 87ED000A 		vstr.32	s0, [r7]
 1138              		.loc 7 17 79
 1139 000c 7B68     		ldr	r3, [r7, #4]
 1140 000e 1B68     		ldr	r3, [r3]
 1141              		.loc 7 17 92
 1142 0010 97ED000A 		vldr.32	s0, [r7]
 1143 0014 1846     		mov	r0, r3
 1144 0016 FFF7FEFF 		bl	_ZN5Delay9setAmountEf
 1145              		.loc 7 17 97
 1146 001a 00BF     		nop
 1147 001c 0837     		adds	r7, r7, #8
 1148              		.cfi_def_cfa_offset 8
 1149 001e BD46     		mov	sp, r7
 1150              		.cfi_def_cfa_register 13
 1151              		@ sp needed
 1152 0020 80BD     		pop	{r7, pc}
 1153              		.cfi_endproc
 1154              	.LFE5654:
 1156              		.section	.text._ZN5Delay4initEPN5daisy9DaisySeedEPPN7daisysp9DelayLineIfLj240000EEE,"ax",%progbits
 1157              		.align	1
 1158              		.global	_ZN5Delay4initEPN5daisy9DaisySeedEPPN7daisysp9DelayLineIfLj240000EEE
 1159              		.syntax unified
 1160              		.thumb
 1161              		.thumb_func
 1163              	_ZN5Delay4initEPN5daisy9DaisySeedEPPN7daisysp9DelayLineIfLj240000EEE:
 1164              	.LFB5645:
   6:DSP/FX/Delay.cpp ****     for(uint_fast8_t i = 0 ; i < 2 ; i++)
 1165              		.loc 7 6 1
 1166              		.cfi_startproc
 1167              		@ args = 0, pretend = 0, frame = 72
 1168              		@ frame_needed = 1, uses_anonymous_args = 0
 1169 0000 90B5     		push	{r4, r7, lr}
 1170              		.cfi_def_cfa_offset 12
 1171              		.cfi_offset 4, -12
 1172              		.cfi_offset 7, -8
 1173              		.cfi_offset 14, -4
 1174 0002 97B0     		sub	sp, sp, #92
ARM GAS  /var/folders/wz/z09yph4n0qj4t7mjxhl6ttn80000gn/T//cc4SdtXb.s 			page 34


 1175              		.cfi_def_cfa_offset 104
 1176 0004 04AF     		add	r7, sp, #16
 1177              		.cfi_def_cfa 7, 88
 1178 0006 F860     		str	r0, [r7, #12]
 1179 0008 B960     		str	r1, [r7, #8]
 1180 000a 7A60     		str	r2, [r7, #4]
 1181              	.LBB6:
   7:DSP/FX/Delay.cpp ****     {
 1182              		.loc 7 7 22
 1183 000c 0023     		movs	r3, #0
 1184 000e 7B64     		str	r3, [r7, #68]
 1185              	.L34:
   7:DSP/FX/Delay.cpp ****     {
 1186              		.loc 7 7 32 discriminator 3
 1187 0010 7B6C     		ldr	r3, [r7, #68]
 1188 0012 012B     		cmp	r3, #1
 1189 0014 1DD8     		bhi	.L33
   9:DSP/FX/Delay.cpp ****         delayLine[i]->Init();
 1190              		.loc 7 9 28 discriminator 2
 1191 0016 7B6C     		ldr	r3, [r7, #68]
 1192 0018 9B00     		lsls	r3, r3, #2
 1193 001a 7A68     		ldr	r2, [r7, #4]
 1194 001c 1344     		add	r3, r3, r2
 1195 001e 1968     		ldr	r1, [r3]
   9:DSP/FX/Delay.cpp ****         delayLine[i]->Init();
 1196              		.loc 7 9 22 discriminator 2
 1197 0020 FB68     		ldr	r3, [r7, #12]
 1198 0022 7A6C     		ldr	r2, [r7, #68]
 1199 0024 2C32     		adds	r2, r2, #44
 1200 0026 43F82210 		str	r1, [r3, r2, lsl #2]
  10:DSP/FX/Delay.cpp ****         delayLine[i]->Reset();
 1201              		.loc 7 10 20 discriminator 2
 1202 002a FB68     		ldr	r3, [r7, #12]
 1203 002c 7A6C     		ldr	r2, [r7, #68]
 1204 002e 2C32     		adds	r2, r2, #44
 1205 0030 53F82230 		ldr	r3, [r3, r2, lsl #2]
  10:DSP/FX/Delay.cpp ****         delayLine[i]->Reset();
 1206              		.loc 7 10 27 discriminator 2
 1207 0034 1846     		mov	r0, r3
 1208 0036 FFF7FEFF 		bl	_ZN7daisysp9DelayLineIfLj240000EE4InitEv
  11:DSP/FX/Delay.cpp ****     }
 1209              		.loc 7 11 20 discriminator 2
 1210 003a FB68     		ldr	r3, [r7, #12]
 1211 003c 7A6C     		ldr	r2, [r7, #68]
 1212 003e 2C32     		adds	r2, r2, #44
 1213 0040 53F82230 		ldr	r3, [r3, r2, lsl #2]
  11:DSP/FX/Delay.cpp ****     }
 1214              		.loc 7 11 28 discriminator 2
 1215 0044 1846     		mov	r0, r3
 1216 0046 FFF7FEFF 		bl	_ZN7daisysp9DelayLineIfLj240000EE5ResetEv
   7:DSP/FX/Delay.cpp ****     {
 1217              		.loc 7 7 5 discriminator 2
 1218 004a 7B6C     		ldr	r3, [r7, #68]
 1219 004c 0133     		adds	r3, r3, #1
 1220 004e 7B64     		str	r3, [r7, #68]
 1221 0050 DEE7     		b	.L34
 1222              	.L33:
ARM GAS  /var/folders/wz/z09yph4n0qj4t7mjxhl6ttn80000gn/T//cc4SdtXb.s 			page 35


 1223              	.LBE6:
  15:DSP/FX/Delay.cpp ****     bounce.param.init(seed, 0, 1, LINEAR, ChannelIDs::ENCODER, [this] (float b) { setBounce(b); });
 1224              		.loc 7 15 14
 1225 0052 FB68     		ldr	r3, [r7, #12]
 1226 0054 03F12404 		add	r4, r3, #36
 1227 0058 FA68     		ldr	r2, [r7, #12]
 1228 005a 07F11403 		add	r3, r7, #20
 1229 005e 1146     		mov	r1, r2
 1230 0060 1846     		mov	r0, r3
 1231 0062 FFF7FEFF 		bl	_ZNSt8functionIFvjEEC1IZN5Delay4initEPN5daisy9DaisySeedEPPN7daisysp9DelayLineIfLj240000EEEEUljE
 1232 0066 07F11403 		add	r3, r7, #20
 1233 006a 0293     		str	r3, [sp, #8]
 1234 006c 0523     		movs	r3, #5
 1235 006e 0193     		str	r3, [sp, #4]
 1236 0070 0023     		movs	r3, #0
 1237 0072 0093     		str	r3, [sp]
 1238 0074 42F21073 		movw	r3, #10000
 1239 0078 0022     		movs	r2, #0
 1240 007a B968     		ldr	r1, [r7, #8]
 1241 007c 2046     		mov	r0, r4
 1242 007e FFF7FEFF 		bl	_ZN14AudioParameterIjE4initEPN5daisy9DaisySeedEjj9CurveTypehSt8functionIFvjEE
 1243 0082 07F11403 		add	r3, r7, #20
 1244 0086 1846     		mov	r0, r3
 1245 0088 FFF7FEFF 		bl	_ZNSt8functionIFvjEED1Ev
  16:DSP/FX/Delay.cpp ****     amount.param.init(seed, 0, 1, LINEAR, ChannelIDs::ENCODER, [this] (float a) { setAmount(a); });
 1246              		.loc 7 16 22
 1247 008c FB68     		ldr	r3, [r7, #12]
 1248 008e 03F15004 		add	r4, r3, #80
 1249 0092 FA68     		ldr	r2, [r7, #12]
 1250 0094 07F12403 		add	r3, r7, #36
 1251 0098 1146     		mov	r1, r2
 1252 009a 1846     		mov	r0, r3
 1253 009c FFF7FEFF 		bl	_ZNSt8functionIFvfEEC1IZN5Delay4initEPN5daisy9DaisySeedEPPN7daisysp9DelayLineIfLj240000EEEEUlfE
 1254 00a0 07F12403 		add	r3, r7, #36
 1255 00a4 0093     		str	r3, [sp]
 1256 00a6 0523     		movs	r3, #5
 1257 00a8 0022     		movs	r2, #0
 1258 00aa F7EE000A 		vmov.f32	s1, #1.0e+0
 1259 00ae 9FED1E0A 		vldr.32	s0, .L35
 1260 00b2 B968     		ldr	r1, [r7, #8]
 1261 00b4 2046     		mov	r0, r4
 1262 00b6 FFF7FEFF 		bl	_ZN14AudioParameterIfE4initEPN5daisy9DaisySeedEff9CurveTypehSt8functionIFvfEE
 1263 00ba 07F12403 		add	r3, r7, #36
 1264 00be 1846     		mov	r0, r3
 1265 00c0 FFF7FEFF 		bl	_ZNSt8functionIFvfEED1Ev
 1266              		.loc 7 17 22
 1267 00c4 FB68     		ldr	r3, [r7, #12]
 1268 00c6 03F18004 		add	r4, r3, #128
 1269 00ca FA68     		ldr	r2, [r7, #12]
 1270 00cc 07F13403 		add	r3, r7, #52
 1271 00d0 1146     		mov	r1, r2
 1272 00d2 1846     		mov	r0, r3
 1273 00d4 FFF7FEFF 		bl	_ZNSt8functionIFvfEEC1IZN5Delay4initEPN5daisy9DaisySeedEPPN7daisysp9DelayLineIfLj240000EEEEUlfE
 1274 00d8 07F13403 		add	r3, r7, #52
 1275 00dc 0093     		str	r3, [sp]
 1276 00de 0523     		movs	r3, #5
 1277 00e0 0022     		movs	r2, #0
ARM GAS  /var/folders/wz/z09yph4n0qj4t7mjxhl6ttn80000gn/T//cc4SdtXb.s 			page 36


 1278 00e2 F7EE000A 		vmov.f32	s1, #1.0e+0
 1279 00e6 9FED100A 		vldr.32	s0, .L35
 1280 00ea B968     		ldr	r1, [r7, #8]
 1281 00ec 2046     		mov	r0, r4
 1282 00ee FFF7FEFF 		bl	_ZN14AudioParameterIfE4initEPN5daisy9DaisySeedEff9CurveTypehSt8functionIFvfEE
 1283 00f2 07F13403 		add	r3, r7, #52
 1284 00f6 1846     		mov	r0, r3
 1285 00f8 FFF7FEFF 		bl	_ZNSt8functionIFvfEED1Ev
  18:DSP/FX/Delay.cpp **** 
  19:DSP/FX/Delay.cpp ****     bypass.value = false; // set to 0 when pots working
 1286              		.loc 7 19 18
 1287 00fc FB68     		ldr	r3, [r7, #12]
 1288 00fe 0022     		movs	r2, #0
 1289 0100 83F82020 		strb	r2, [r3, #32]
  20:DSP/FX/Delay.cpp ****     bounce.value = 0.8;
 1290              		.loc 7 20 18
 1291 0104 FB68     		ldr	r3, [r7, #12]
 1292 0106 094A     		ldr	r2, .L35+4
 1293 0108 DA67     		str	r2, [r3, #124]	@ float
  21:DSP/FX/Delay.cpp ****     amount.value = 0.5;
 1294              		.loc 7 21 18
 1295 010a FB68     		ldr	r3, [r7, #12]
 1296 010c 4FF07C52 		mov	r2, #1056964608
 1297 0110 C3F8AC20 		str	r2, [r3, #172]	@ float
  22:DSP/FX/Delay.cpp ****     setDelay(40000);
 1298              		.loc 7 22 13
 1299 0114 49F64041 		movw	r1, #40000
 1300 0118 F868     		ldr	r0, [r7, #12]
 1301 011a FFF7FEFF 		bl	_ZN5Delay8setDelayEj
  23:DSP/FX/Delay.cpp **** }
 1302              		.loc 7 23 1
 1303 011e 00BF     		nop
 1304 0120 4C37     		adds	r7, r7, #76
 1305              		.cfi_def_cfa_offset 12
 1306 0122 BD46     		mov	sp, r7
 1307              		.cfi_def_cfa_register 13
 1308              		@ sp needed
 1309 0124 90BD     		pop	{r4, r7, pc}
 1310              	.L36:
 1311 0126 00BF     		.align	2
 1312              	.L35:
 1313 0128 00000000 		.word	0
 1314 012c CDCC4C3F 		.word	1061997773
 1315              		.cfi_endproc
 1316              	.LFE5645:
 1318              		.section	.text._ZN5Delay4tickEv,"ax",%progbits
 1319              		.align	1
 1320              		.global	_ZN5Delay4tickEv
 1321              		.syntax unified
 1322              		.thumb
 1323              		.thumb_func
 1325              	_ZN5Delay4tickEv:
 1326              	.LFB5655:
  24:DSP/FX/Delay.cpp **** 
  25:DSP/FX/Delay.cpp **** void Delay::tick()
  26:DSP/FX/Delay.cpp **** {
 1327              		.loc 7 26 1
ARM GAS  /var/folders/wz/z09yph4n0qj4t7mjxhl6ttn80000gn/T//cc4SdtXb.s 			page 37


 1328              		.cfi_startproc
 1329              		@ args = 0, pretend = 0, frame = 8
 1330              		@ frame_needed = 1, uses_anonymous_args = 0
 1331 0000 80B5     		push	{r7, lr}
 1332              		.cfi_def_cfa_offset 8
 1333              		.cfi_offset 7, -8
 1334              		.cfi_offset 14, -4
 1335 0002 82B0     		sub	sp, sp, #8
 1336              		.cfi_def_cfa_offset 16
 1337 0004 00AF     		add	r7, sp, #0
 1338              		.cfi_def_cfa_register 7
 1339 0006 7860     		str	r0, [r7, #4]
  27:DSP/FX/Delay.cpp ****     bypass.param.tick();
 1340              		.loc 7 27 22
 1341 0008 7B68     		ldr	r3, [r7, #4]
 1342 000a 1846     		mov	r0, r3
 1343 000c FFF7FEFF 		bl	_ZN15BinaryParameter4tickEv
  28:DSP/FX/Delay.cpp ****     size.tick();
 1344              		.loc 7 28 14
 1345 0010 7B68     		ldr	r3, [r7, #4]
 1346 0012 2433     		adds	r3, r3, #36
 1347 0014 1846     		mov	r0, r3
 1348 0016 FFF7FEFF 		bl	_ZN14AudioParameterIjE4tickEv
  29:DSP/FX/Delay.cpp ****     bounce.param.tick();
 1349              		.loc 7 29 22
 1350 001a 7B68     		ldr	r3, [r7, #4]
 1351 001c 5033     		adds	r3, r3, #80
 1352 001e 1846     		mov	r0, r3
 1353 0020 FFF7FEFF 		bl	_ZN14AudioParameterIfE4tickEv
  30:DSP/FX/Delay.cpp ****     amount.param.tick();
 1354              		.loc 7 30 22
 1355 0024 7B68     		ldr	r3, [r7, #4]
 1356 0026 8033     		adds	r3, r3, #128
 1357 0028 1846     		mov	r0, r3
 1358 002a FFF7FEFF 		bl	_ZN14AudioParameterIfE4tickEv
  31:DSP/FX/Delay.cpp **** }
 1359              		.loc 7 31 1
 1360 002e 00BF     		nop
 1361 0030 0837     		adds	r7, r7, #8
 1362              		.cfi_def_cfa_offset 8
 1363 0032 BD46     		mov	sp, r7
 1364              		.cfi_def_cfa_register 13
 1365              		@ sp needed
 1366 0034 80BD     		pop	{r7, pc}
 1367              		.cfi_endproc
 1368              	.LFE5655:
 1370              		.section	.text._ZN5Delay7prepareEv,"ax",%progbits
 1371              		.align	1
 1372              		.global	_ZN5Delay7prepareEv
 1373              		.syntax unified
 1374              		.thumb
 1375              		.thumb_func
 1377              	_ZN5Delay7prepareEv:
 1378              	.LFB5656:
  32:DSP/FX/Delay.cpp **** 
  33:DSP/FX/Delay.cpp **** void Delay::prepare()
  34:DSP/FX/Delay.cpp **** {
ARM GAS  /var/folders/wz/z09yph4n0qj4t7mjxhl6ttn80000gn/T//cc4SdtXb.s 			page 38


 1379              		.loc 7 34 1
 1380              		.cfi_startproc
 1381              		@ args = 0, pretend = 0, frame = 8
 1382              		@ frame_needed = 1, uses_anonymous_args = 0
 1383              		@ link register save eliminated.
 1384 0000 80B4     		push	{r7}
 1385              		.cfi_def_cfa_offset 4
 1386              		.cfi_offset 7, -4
 1387 0002 83B0     		sub	sp, sp, #12
 1388              		.cfi_def_cfa_offset 16
 1389 0004 00AF     		add	r7, sp, #0
 1390              		.cfi_def_cfa_register 7
 1391 0006 7860     		str	r0, [r7, #4]
  35:DSP/FX/Delay.cpp ****     
  36:DSP/FX/Delay.cpp **** 
  37:DSP/FX/Delay.cpp **** }
 1392              		.loc 7 37 1
 1393 0008 00BF     		nop
 1394 000a 0C37     		adds	r7, r7, #12
 1395              		.cfi_def_cfa_offset 4
 1396 000c BD46     		mov	sp, r7
 1397              		.cfi_def_cfa_register 13
 1398              		@ sp needed
 1399 000e 5DF8047B 		ldr	r7, [sp], #4
 1400              		.cfi_restore 7
 1401              		.cfi_def_cfa_offset 0
 1402 0012 7047     		bx	lr
 1403              		.cfi_endproc
 1404              	.LFE5656:
 1406              		.section	.text._ZN5Delay12processBlockEPPfjj,"ax",%progbits
 1407              		.align	1
 1408              		.global	_ZN5Delay12processBlockEPPfjj
 1409              		.syntax unified
 1410              		.thumb
 1411              		.thumb_func
 1413              	_ZN5Delay12processBlockEPPfjj:
 1414              	.LFB5657:
  38:DSP/FX/Delay.cpp **** 
  39:DSP/FX/Delay.cpp **** void Delay::processBlock(float* input[2], size_t size, size_t readPos)
  40:DSP/FX/Delay.cpp **** {
 1415              		.loc 7 40 1
 1416              		.cfi_startproc
 1417              		@ args = 0, pretend = 0, frame = 40
 1418              		@ frame_needed = 1, uses_anonymous_args = 0
 1419 0000 80B5     		push	{r7, lr}
 1420              		.cfi_def_cfa_offset 8
 1421              		.cfi_offset 7, -8
 1422              		.cfi_offset 14, -4
 1423 0002 8AB0     		sub	sp, sp, #40
 1424              		.cfi_def_cfa_offset 48
 1425 0004 00AF     		add	r7, sp, #0
 1426              		.cfi_def_cfa_register 7
 1427 0006 F860     		str	r0, [r7, #12]
 1428 0008 B960     		str	r1, [r7, #8]
 1429 000a 7A60     		str	r2, [r7, #4]
 1430 000c 3B60     		str	r3, [r7]
  41:DSP/FX/Delay.cpp ****     if(bypass.value)
ARM GAS  /var/folders/wz/z09yph4n0qj4t7mjxhl6ttn80000gn/T//cc4SdtXb.s 			page 39


 1431              		.loc 7 41 15
 1432 000e FB68     		ldr	r3, [r7, #12]
 1433 0010 93F82030 		ldrb	r3, [r3, #32]	@ zero_extendqisi2
 1434              		.loc 7 41 5
 1435 0014 002B     		cmp	r3, #0
 1436 0016 5CD1     		bne	.L45
 1437              	.LBB7:
  42:DSP/FX/Delay.cpp ****         return;
  43:DSP/FX/Delay.cpp **** 
  44:DSP/FX/Delay.cpp ****     for(size_t i = readPos ; i < readPos + size ; i++)
 1438              		.loc 7 44 16
 1439 0018 3B68     		ldr	r3, [r7]
 1440 001a 7B62     		str	r3, [r7, #36]
 1441              	.L44:
 1442              		.loc 7 44 42 discriminator 1
 1443 001c 3A68     		ldr	r2, [r7]
 1444 001e 7B68     		ldr	r3, [r7, #4]
 1445 0020 1344     		add	r3, r3, r2
 1446              		.loc 7 44 32 discriminator 1
 1447 0022 7A6A     		ldr	r2, [r7, #36]
 1448 0024 9A42     		cmp	r2, r3
 1449 0026 55D2     		bcs	.L39
 1450              	.LBB8:
 1451              	.LBB9:
  45:DSP/FX/Delay.cpp ****     {
  46:DSP/FX/Delay.cpp ****         for(uint_fast8_t j = 0 ; j < 2 ; j++)
 1452              		.loc 7 46 26
 1453 0028 0023     		movs	r3, #0
 1454 002a 3B62     		str	r3, [r7, #32]
 1455              	.L43:
 1456              		.loc 7 46 36 discriminator 3
 1457 002c 3B6A     		ldr	r3, [r7, #32]
 1458 002e 012B     		cmp	r3, #1
 1459 0030 4BD8     		bhi	.L42
 1460              	.LBB10:
  47:DSP/FX/Delay.cpp ****         {
  48:DSP/FX/Delay.cpp ****             float delay_b = delayLine[j]->Read();
 1461              		.loc 7 48 40 discriminator 2
 1462 0032 FB68     		ldr	r3, [r7, #12]
 1463 0034 3A6A     		ldr	r2, [r7, #32]
 1464 0036 2C32     		adds	r2, r2, #44
 1465 0038 53F82230 		ldr	r3, [r3, r2, lsl #2]
 1466              		.loc 7 48 47 discriminator 2
 1467 003c 1846     		mov	r0, r3
 1468 003e FFF7FEFF 		bl	_ZNK7daisysp9DelayLineIfLj240000EE4ReadEv
 1469 0042 87ED070A 		vstr.32	s0, [r7, #28]
  49:DSP/FX/Delay.cpp ****             float delay_o = input[j][i] + (delay_b * amount.value);
 1470              		.loc 7 49 36 discriminator 2
 1471 0046 3B6A     		ldr	r3, [r7, #32]
 1472 0048 9B00     		lsls	r3, r3, #2
 1473 004a BA68     		ldr	r2, [r7, #8]
 1474 004c 1344     		add	r3, r3, r2
 1475 004e 1A68     		ldr	r2, [r3]
 1476              		.loc 7 49 39 discriminator 2
 1477 0050 7B6A     		ldr	r3, [r7, #36]
 1478 0052 9B00     		lsls	r3, r3, #2
 1479 0054 1344     		add	r3, r3, r2
ARM GAS  /var/folders/wz/z09yph4n0qj4t7mjxhl6ttn80000gn/T//cc4SdtXb.s 			page 40


 1480 0056 93ED007A 		vldr.32	s14, [r3]
 1481              		.loc 7 49 61 discriminator 2
 1482 005a FB68     		ldr	r3, [r7, #12]
 1483 005c D3ED2B6A 		vldr.32	s13, [r3, #172]
 1484              		.loc 7 49 52 discriminator 2
 1485 0060 D7ED077A 		vldr.32	s15, [r7, #28]
 1486 0064 66EEA77A 		vmul.f32	s15, s13, s15
 1487              		.loc 7 49 19 discriminator 2
 1488 0068 77EE277A 		vadd.f32	s15, s14, s15
 1489 006c C7ED067A 		vstr.32	s15, [r7, #24]
  50:DSP/FX/Delay.cpp ****             input[j][i] = delay_o;
 1490              		.loc 7 50 20 discriminator 2
 1491 0070 3B6A     		ldr	r3, [r7, #32]
 1492 0072 9B00     		lsls	r3, r3, #2
 1493 0074 BA68     		ldr	r2, [r7, #8]
 1494 0076 1344     		add	r3, r3, r2
 1495 0078 1A68     		ldr	r2, [r3]
 1496              		.loc 7 50 23 discriminator 2
 1497 007a 7B6A     		ldr	r3, [r7, #36]
 1498 007c 9B00     		lsls	r3, r3, #2
 1499 007e 1344     		add	r3, r3, r2
 1500              		.loc 7 50 25 discriminator 2
 1501 0080 BA69     		ldr	r2, [r7, #24]	@ float
 1502 0082 1A60     		str	r2, [r3]	@ float
  51:DSP/FX/Delay.cpp ****             float delay_n = input[j][i] + (delay_o * bounce.value);
 1503              		.loc 7 51 36 discriminator 2
 1504 0084 3B6A     		ldr	r3, [r7, #32]
 1505 0086 9B00     		lsls	r3, r3, #2
 1506 0088 BA68     		ldr	r2, [r7, #8]
 1507 008a 1344     		add	r3, r3, r2
 1508 008c 1A68     		ldr	r2, [r3]
 1509              		.loc 7 51 39 discriminator 2
 1510 008e 7B6A     		ldr	r3, [r7, #36]
 1511 0090 9B00     		lsls	r3, r3, #2
 1512 0092 1344     		add	r3, r3, r2
 1513 0094 93ED007A 		vldr.32	s14, [r3]
 1514              		.loc 7 51 61 discriminator 2
 1515 0098 FB68     		ldr	r3, [r7, #12]
 1516 009a D3ED1F6A 		vldr.32	s13, [r3, #124]
 1517              		.loc 7 51 52 discriminator 2
 1518 009e D7ED067A 		vldr.32	s15, [r7, #24]
 1519 00a2 66EEA77A 		vmul.f32	s15, s13, s15
 1520              		.loc 7 51 19 discriminator 2
 1521 00a6 77EE277A 		vadd.f32	s15, s14, s15
 1522 00aa C7ED057A 		vstr.32	s15, [r7, #20]
  52:DSP/FX/Delay.cpp ****             delayLine[j]->Write(delay_n);
 1523              		.loc 7 52 24 discriminator 2
 1524 00ae FB68     		ldr	r3, [r7, #12]
 1525 00b0 3A6A     		ldr	r2, [r7, #32]
 1526 00b2 2C32     		adds	r2, r2, #44
 1527 00b4 53F82230 		ldr	r3, [r3, r2, lsl #2]
 1528              		.loc 7 52 32 discriminator 2
 1529 00b8 97ED050A 		vldr.32	s0, [r7, #20]
 1530 00bc 1846     		mov	r0, r3
 1531 00be FFF7FEFF 		bl	_ZN7daisysp9DelayLineIfLj240000EE5WriteEf
 1532              	.LBE10:
  46:DSP/FX/Delay.cpp ****         {
ARM GAS  /var/folders/wz/z09yph4n0qj4t7mjxhl6ttn80000gn/T//cc4SdtXb.s 			page 41


 1533              		.loc 7 46 9 discriminator 2
 1534 00c2 3B6A     		ldr	r3, [r7, #32]
 1535 00c4 0133     		adds	r3, r3, #1
 1536 00c6 3B62     		str	r3, [r7, #32]
 1537 00c8 B0E7     		b	.L43
 1538              	.L42:
 1539              	.LBE9:
 1540              	.LBE8:
  44:DSP/FX/Delay.cpp ****     {
 1541              		.loc 7 44 5 discriminator 2
 1542 00ca 7B6A     		ldr	r3, [r7, #36]
 1543 00cc 0133     		adds	r3, r3, #1
 1544 00ce 7B62     		str	r3, [r7, #36]
 1545 00d0 A4E7     		b	.L44
 1546              	.L45:
 1547              	.LBE7:
  42:DSP/FX/Delay.cpp **** 
 1548              		.loc 7 42 9
 1549 00d2 00BF     		nop
 1550              	.L39:
  53:DSP/FX/Delay.cpp ****         }
  54:DSP/FX/Delay.cpp ****     }
  55:DSP/FX/Delay.cpp **** }...
 1551              		.loc 7 55 1
 1552 00d4 2837     		adds	r7, r7, #40
 1553              		.cfi_def_cfa_offset 8
 1554 00d6 BD46     		mov	sp, r7
 1555              		.cfi_def_cfa_register 13
 1556              		@ sp needed
 1557 00d8 80BD     		pop	{r7, pc}
 1558              		.cfi_endproc
 1559              	.LFE5657:
 1561              		.section	.text._ZNKSt8functionIFvvEEclEv,"axG",%progbits,_ZNKSt8functionIFvvEEclEv,comdat
 1562              		.align	1
 1563              		.weak	_ZNKSt8functionIFvvEEclEv
 1564              		.syntax unified
 1565              		.thumb
 1566              		.thumb_func
 1568              	_ZNKSt8functionIFvvEEclEv:
 1569              	.LFB5971:
 304:/Library/DaisyToolchain/0.2.0/arm/arm-none-eabi/include/c++/10.3.1/bits/std_function.h ****     : public _Maybe_unary_or_binary_function<_Res, _ArgTypes...>,
 305:/Library/DaisyToolchain/0.2.0/arm/arm-none-eabi/include/c++/10.3.1/bits/std_function.h ****       private _Function_base
 306:/Library/DaisyToolchain/0.2.0/arm/arm-none-eabi/include/c++/10.3.1/bits/std_function.h ****     {
 307:/Library/DaisyToolchain/0.2.0/arm/arm-none-eabi/include/c++/10.3.1/bits/std_function.h ****       template<typename _Func,
 308:/Library/DaisyToolchain/0.2.0/arm/arm-none-eabi/include/c++/10.3.1/bits/std_function.h **** 	       typename _Res2 = __invoke_result<_Func&, _ArgTypes...>>
 309:/Library/DaisyToolchain/0.2.0/arm/arm-none-eabi/include/c++/10.3.1/bits/std_function.h **** 	struct _Callable
 310:/Library/DaisyToolchain/0.2.0/arm/arm-none-eabi/include/c++/10.3.1/bits/std_function.h **** 	: __is_invocable_impl<_Res2, _Res>::type
 311:/Library/DaisyToolchain/0.2.0/arm/arm-none-eabi/include/c++/10.3.1/bits/std_function.h **** 	{ };
 312:/Library/DaisyToolchain/0.2.0/arm/arm-none-eabi/include/c++/10.3.1/bits/std_function.h **** 
 313:/Library/DaisyToolchain/0.2.0/arm/arm-none-eabi/include/c++/10.3.1/bits/std_function.h ****       // Used so the return type convertibility checks aren't done when
 314:/Library/DaisyToolchain/0.2.0/arm/arm-none-eabi/include/c++/10.3.1/bits/std_function.h ****       // performing overload resolution for copy construction/assignment.
 315:/Library/DaisyToolchain/0.2.0/arm/arm-none-eabi/include/c++/10.3.1/bits/std_function.h ****       template<typename _Tp>
 316:/Library/DaisyToolchain/0.2.0/arm/arm-none-eabi/include/c++/10.3.1/bits/std_function.h **** 	struct _Callable<function, _Tp> : false_type { };
 317:/Library/DaisyToolchain/0.2.0/arm/arm-none-eabi/include/c++/10.3.1/bits/std_function.h **** 
 318:/Library/DaisyToolchain/0.2.0/arm/arm-none-eabi/include/c++/10.3.1/bits/std_function.h ****       template<typename _Cond, typename _Tp>
 319:/Library/DaisyToolchain/0.2.0/arm/arm-none-eabi/include/c++/10.3.1/bits/std_function.h **** 	using _Requires = typename enable_if<_Cond::value, _Tp>::type;
 320:/Library/DaisyToolchain/0.2.0/arm/arm-none-eabi/include/c++/10.3.1/bits/std_function.h **** 
ARM GAS  /var/folders/wz/z09yph4n0qj4t7mjxhl6ttn80000gn/T//cc4SdtXb.s 			page 42


 321:/Library/DaisyToolchain/0.2.0/arm/arm-none-eabi/include/c++/10.3.1/bits/std_function.h ****     public:
 322:/Library/DaisyToolchain/0.2.0/arm/arm-none-eabi/include/c++/10.3.1/bits/std_function.h ****       typedef _Res result_type;
 323:/Library/DaisyToolchain/0.2.0/arm/arm-none-eabi/include/c++/10.3.1/bits/std_function.h **** 
 324:/Library/DaisyToolchain/0.2.0/arm/arm-none-eabi/include/c++/10.3.1/bits/std_function.h ****       // [3.7.2.1] construct/copy/destroy
 325:/Library/DaisyToolchain/0.2.0/arm/arm-none-eabi/include/c++/10.3.1/bits/std_function.h **** 
 326:/Library/DaisyToolchain/0.2.0/arm/arm-none-eabi/include/c++/10.3.1/bits/std_function.h ****       /**
 327:/Library/DaisyToolchain/0.2.0/arm/arm-none-eabi/include/c++/10.3.1/bits/std_function.h ****        *  @brief Default construct creates an empty function call wrapper.
 328:/Library/DaisyToolchain/0.2.0/arm/arm-none-eabi/include/c++/10.3.1/bits/std_function.h ****        *  @post @c !(bool)*this
 329:/Library/DaisyToolchain/0.2.0/arm/arm-none-eabi/include/c++/10.3.1/bits/std_function.h ****        */
 330:/Library/DaisyToolchain/0.2.0/arm/arm-none-eabi/include/c++/10.3.1/bits/std_function.h ****       function() noexcept
 331:/Library/DaisyToolchain/0.2.0/arm/arm-none-eabi/include/c++/10.3.1/bits/std_function.h ****       : _Function_base() { }
 332:/Library/DaisyToolchain/0.2.0/arm/arm-none-eabi/include/c++/10.3.1/bits/std_function.h **** 
 333:/Library/DaisyToolchain/0.2.0/arm/arm-none-eabi/include/c++/10.3.1/bits/std_function.h ****       /**
 334:/Library/DaisyToolchain/0.2.0/arm/arm-none-eabi/include/c++/10.3.1/bits/std_function.h ****        *  @brief Creates an empty function call wrapper.
 335:/Library/DaisyToolchain/0.2.0/arm/arm-none-eabi/include/c++/10.3.1/bits/std_function.h ****        *  @post @c !(bool)*this
 336:/Library/DaisyToolchain/0.2.0/arm/arm-none-eabi/include/c++/10.3.1/bits/std_function.h ****        */
 337:/Library/DaisyToolchain/0.2.0/arm/arm-none-eabi/include/c++/10.3.1/bits/std_function.h ****       function(nullptr_t) noexcept
 338:/Library/DaisyToolchain/0.2.0/arm/arm-none-eabi/include/c++/10.3.1/bits/std_function.h ****       : _Function_base() { }
 339:/Library/DaisyToolchain/0.2.0/arm/arm-none-eabi/include/c++/10.3.1/bits/std_function.h **** 
 340:/Library/DaisyToolchain/0.2.0/arm/arm-none-eabi/include/c++/10.3.1/bits/std_function.h ****       /**
 341:/Library/DaisyToolchain/0.2.0/arm/arm-none-eabi/include/c++/10.3.1/bits/std_function.h ****        *  @brief %Function copy constructor.
 342:/Library/DaisyToolchain/0.2.0/arm/arm-none-eabi/include/c++/10.3.1/bits/std_function.h ****        *  @param __x A %function object with identical call signature.
 343:/Library/DaisyToolchain/0.2.0/arm/arm-none-eabi/include/c++/10.3.1/bits/std_function.h ****        *  @post @c bool(*this) == bool(__x)
 344:/Library/DaisyToolchain/0.2.0/arm/arm-none-eabi/include/c++/10.3.1/bits/std_function.h ****        *
 345:/Library/DaisyToolchain/0.2.0/arm/arm-none-eabi/include/c++/10.3.1/bits/std_function.h ****        *  The newly-created %function contains a copy of the target of @a
 346:/Library/DaisyToolchain/0.2.0/arm/arm-none-eabi/include/c++/10.3.1/bits/std_function.h ****        *  __x (if it has one).
 347:/Library/DaisyToolchain/0.2.0/arm/arm-none-eabi/include/c++/10.3.1/bits/std_function.h ****        */
 348:/Library/DaisyToolchain/0.2.0/arm/arm-none-eabi/include/c++/10.3.1/bits/std_function.h ****       function(const function& __x);
 349:/Library/DaisyToolchain/0.2.0/arm/arm-none-eabi/include/c++/10.3.1/bits/std_function.h **** 
 350:/Library/DaisyToolchain/0.2.0/arm/arm-none-eabi/include/c++/10.3.1/bits/std_function.h ****       /**
 351:/Library/DaisyToolchain/0.2.0/arm/arm-none-eabi/include/c++/10.3.1/bits/std_function.h ****        *  @brief %Function move constructor.
 352:/Library/DaisyToolchain/0.2.0/arm/arm-none-eabi/include/c++/10.3.1/bits/std_function.h ****        *  @param __x A %function object rvalue with identical call signature.
 353:/Library/DaisyToolchain/0.2.0/arm/arm-none-eabi/include/c++/10.3.1/bits/std_function.h ****        *
 354:/Library/DaisyToolchain/0.2.0/arm/arm-none-eabi/include/c++/10.3.1/bits/std_function.h ****        *  The newly-created %function contains the target of @a __x
 355:/Library/DaisyToolchain/0.2.0/arm/arm-none-eabi/include/c++/10.3.1/bits/std_function.h ****        *  (if it has one).
 356:/Library/DaisyToolchain/0.2.0/arm/arm-none-eabi/include/c++/10.3.1/bits/std_function.h ****        */
 357:/Library/DaisyToolchain/0.2.0/arm/arm-none-eabi/include/c++/10.3.1/bits/std_function.h ****       function(function&& __x) noexcept : _Function_base()
 358:/Library/DaisyToolchain/0.2.0/arm/arm-none-eabi/include/c++/10.3.1/bits/std_function.h ****       {
 359:/Library/DaisyToolchain/0.2.0/arm/arm-none-eabi/include/c++/10.3.1/bits/std_function.h **** 	__x.swap(*this);
 360:/Library/DaisyToolchain/0.2.0/arm/arm-none-eabi/include/c++/10.3.1/bits/std_function.h ****       }
 361:/Library/DaisyToolchain/0.2.0/arm/arm-none-eabi/include/c++/10.3.1/bits/std_function.h **** 
 362:/Library/DaisyToolchain/0.2.0/arm/arm-none-eabi/include/c++/10.3.1/bits/std_function.h ****       /**
 363:/Library/DaisyToolchain/0.2.0/arm/arm-none-eabi/include/c++/10.3.1/bits/std_function.h ****        *  @brief Builds a %function that targets a copy of the incoming
 364:/Library/DaisyToolchain/0.2.0/arm/arm-none-eabi/include/c++/10.3.1/bits/std_function.h ****        *  function object.
 365:/Library/DaisyToolchain/0.2.0/arm/arm-none-eabi/include/c++/10.3.1/bits/std_function.h ****        *  @param __f A %function object that is callable with parameters of
 366:/Library/DaisyToolchain/0.2.0/arm/arm-none-eabi/include/c++/10.3.1/bits/std_function.h ****        *  type @c T1, @c T2, ..., @c TN and returns a value convertible
 367:/Library/DaisyToolchain/0.2.0/arm/arm-none-eabi/include/c++/10.3.1/bits/std_function.h ****        *  to @c Res.
 368:/Library/DaisyToolchain/0.2.0/arm/arm-none-eabi/include/c++/10.3.1/bits/std_function.h ****        *
 369:/Library/DaisyToolchain/0.2.0/arm/arm-none-eabi/include/c++/10.3.1/bits/std_function.h ****        *  The newly-created %function object will target a copy of
 370:/Library/DaisyToolchain/0.2.0/arm/arm-none-eabi/include/c++/10.3.1/bits/std_function.h ****        *  @a __f. If @a __f is @c reference_wrapper<F>, then this function
 371:/Library/DaisyToolchain/0.2.0/arm/arm-none-eabi/include/c++/10.3.1/bits/std_function.h ****        *  object will contain a reference to the function object @c
 372:/Library/DaisyToolchain/0.2.0/arm/arm-none-eabi/include/c++/10.3.1/bits/std_function.h ****        *  __f.get(). If @a __f is a NULL function pointer or NULL
 373:/Library/DaisyToolchain/0.2.0/arm/arm-none-eabi/include/c++/10.3.1/bits/std_function.h ****        *  pointer-to-member, the newly-created object will be empty.
 374:/Library/DaisyToolchain/0.2.0/arm/arm-none-eabi/include/c++/10.3.1/bits/std_function.h ****        *
 375:/Library/DaisyToolchain/0.2.0/arm/arm-none-eabi/include/c++/10.3.1/bits/std_function.h ****        *  If @a __f is a non-NULL function pointer or an object of type @c
 376:/Library/DaisyToolchain/0.2.0/arm/arm-none-eabi/include/c++/10.3.1/bits/std_function.h ****        *  reference_wrapper<F>, this function will not throw.
 377:/Library/DaisyToolchain/0.2.0/arm/arm-none-eabi/include/c++/10.3.1/bits/std_function.h ****        */
ARM GAS  /var/folders/wz/z09yph4n0qj4t7mjxhl6ttn80000gn/T//cc4SdtXb.s 			page 43


 378:/Library/DaisyToolchain/0.2.0/arm/arm-none-eabi/include/c++/10.3.1/bits/std_function.h ****       template<typename _Functor,
 379:/Library/DaisyToolchain/0.2.0/arm/arm-none-eabi/include/c++/10.3.1/bits/std_function.h **** 	       typename = _Requires<__not_<is_same<_Functor, function>>, void>,
 380:/Library/DaisyToolchain/0.2.0/arm/arm-none-eabi/include/c++/10.3.1/bits/std_function.h **** 	       typename = _Requires<_Callable<_Functor>, void>>
 381:/Library/DaisyToolchain/0.2.0/arm/arm-none-eabi/include/c++/10.3.1/bits/std_function.h **** 	function(_Functor);
 382:/Library/DaisyToolchain/0.2.0/arm/arm-none-eabi/include/c++/10.3.1/bits/std_function.h **** 
 383:/Library/DaisyToolchain/0.2.0/arm/arm-none-eabi/include/c++/10.3.1/bits/std_function.h ****       /**
 384:/Library/DaisyToolchain/0.2.0/arm/arm-none-eabi/include/c++/10.3.1/bits/std_function.h ****        *  @brief %Function assignment operator.
 385:/Library/DaisyToolchain/0.2.0/arm/arm-none-eabi/include/c++/10.3.1/bits/std_function.h ****        *  @param __x A %function with identical call signature.
 386:/Library/DaisyToolchain/0.2.0/arm/arm-none-eabi/include/c++/10.3.1/bits/std_function.h ****        *  @post @c (bool)*this == (bool)x
 387:/Library/DaisyToolchain/0.2.0/arm/arm-none-eabi/include/c++/10.3.1/bits/std_function.h ****        *  @returns @c *this
 388:/Library/DaisyToolchain/0.2.0/arm/arm-none-eabi/include/c++/10.3.1/bits/std_function.h ****        *
 389:/Library/DaisyToolchain/0.2.0/arm/arm-none-eabi/include/c++/10.3.1/bits/std_function.h ****        *  The target of @a __x is copied to @c *this. If @a __x has no
 390:/Library/DaisyToolchain/0.2.0/arm/arm-none-eabi/include/c++/10.3.1/bits/std_function.h ****        *  target, then @c *this will be empty.
 391:/Library/DaisyToolchain/0.2.0/arm/arm-none-eabi/include/c++/10.3.1/bits/std_function.h ****        *
 392:/Library/DaisyToolchain/0.2.0/arm/arm-none-eabi/include/c++/10.3.1/bits/std_function.h ****        *  If @a __x targets a function pointer or a reference to a function
 393:/Library/DaisyToolchain/0.2.0/arm/arm-none-eabi/include/c++/10.3.1/bits/std_function.h ****        *  object, then this operation will not throw an %exception.
 394:/Library/DaisyToolchain/0.2.0/arm/arm-none-eabi/include/c++/10.3.1/bits/std_function.h ****        */
 395:/Library/DaisyToolchain/0.2.0/arm/arm-none-eabi/include/c++/10.3.1/bits/std_function.h ****       function&
 396:/Library/DaisyToolchain/0.2.0/arm/arm-none-eabi/include/c++/10.3.1/bits/std_function.h ****       operator=(const function& __x)
 397:/Library/DaisyToolchain/0.2.0/arm/arm-none-eabi/include/c++/10.3.1/bits/std_function.h ****       {
 398:/Library/DaisyToolchain/0.2.0/arm/arm-none-eabi/include/c++/10.3.1/bits/std_function.h **** 	function(__x).swap(*this);
 399:/Library/DaisyToolchain/0.2.0/arm/arm-none-eabi/include/c++/10.3.1/bits/std_function.h **** 	return *this;
 400:/Library/DaisyToolchain/0.2.0/arm/arm-none-eabi/include/c++/10.3.1/bits/std_function.h ****       }
 401:/Library/DaisyToolchain/0.2.0/arm/arm-none-eabi/include/c++/10.3.1/bits/std_function.h **** 
 402:/Library/DaisyToolchain/0.2.0/arm/arm-none-eabi/include/c++/10.3.1/bits/std_function.h ****       /**
 403:/Library/DaisyToolchain/0.2.0/arm/arm-none-eabi/include/c++/10.3.1/bits/std_function.h ****        *  @brief %Function move-assignment operator.
 404:/Library/DaisyToolchain/0.2.0/arm/arm-none-eabi/include/c++/10.3.1/bits/std_function.h ****        *  @param __x A %function rvalue with identical call signature.
 405:/Library/DaisyToolchain/0.2.0/arm/arm-none-eabi/include/c++/10.3.1/bits/std_function.h ****        *  @returns @c *this
 406:/Library/DaisyToolchain/0.2.0/arm/arm-none-eabi/include/c++/10.3.1/bits/std_function.h ****        *
 407:/Library/DaisyToolchain/0.2.0/arm/arm-none-eabi/include/c++/10.3.1/bits/std_function.h ****        *  The target of @a __x is moved to @c *this. If @a __x has no
 408:/Library/DaisyToolchain/0.2.0/arm/arm-none-eabi/include/c++/10.3.1/bits/std_function.h ****        *  target, then @c *this will be empty.
 409:/Library/DaisyToolchain/0.2.0/arm/arm-none-eabi/include/c++/10.3.1/bits/std_function.h ****        *
 410:/Library/DaisyToolchain/0.2.0/arm/arm-none-eabi/include/c++/10.3.1/bits/std_function.h ****        *  If @a __x targets a function pointer or a reference to a function
 411:/Library/DaisyToolchain/0.2.0/arm/arm-none-eabi/include/c++/10.3.1/bits/std_function.h ****        *  object, then this operation will not throw an %exception.
 412:/Library/DaisyToolchain/0.2.0/arm/arm-none-eabi/include/c++/10.3.1/bits/std_function.h ****        */
 413:/Library/DaisyToolchain/0.2.0/arm/arm-none-eabi/include/c++/10.3.1/bits/std_function.h ****       function&
 414:/Library/DaisyToolchain/0.2.0/arm/arm-none-eabi/include/c++/10.3.1/bits/std_function.h ****       operator=(function&& __x) noexcept
 415:/Library/DaisyToolchain/0.2.0/arm/arm-none-eabi/include/c++/10.3.1/bits/std_function.h ****       {
 416:/Library/DaisyToolchain/0.2.0/arm/arm-none-eabi/include/c++/10.3.1/bits/std_function.h **** 	function(std::move(__x)).swap(*this);
 417:/Library/DaisyToolchain/0.2.0/arm/arm-none-eabi/include/c++/10.3.1/bits/std_function.h **** 	return *this;
 418:/Library/DaisyToolchain/0.2.0/arm/arm-none-eabi/include/c++/10.3.1/bits/std_function.h ****       }
 419:/Library/DaisyToolchain/0.2.0/arm/arm-none-eabi/include/c++/10.3.1/bits/std_function.h **** 
 420:/Library/DaisyToolchain/0.2.0/arm/arm-none-eabi/include/c++/10.3.1/bits/std_function.h ****       /**
 421:/Library/DaisyToolchain/0.2.0/arm/arm-none-eabi/include/c++/10.3.1/bits/std_function.h ****        *  @brief %Function assignment to zero.
 422:/Library/DaisyToolchain/0.2.0/arm/arm-none-eabi/include/c++/10.3.1/bits/std_function.h ****        *  @post @c !(bool)*this
 423:/Library/DaisyToolchain/0.2.0/arm/arm-none-eabi/include/c++/10.3.1/bits/std_function.h ****        *  @returns @c *this
 424:/Library/DaisyToolchain/0.2.0/arm/arm-none-eabi/include/c++/10.3.1/bits/std_function.h ****        *
 425:/Library/DaisyToolchain/0.2.0/arm/arm-none-eabi/include/c++/10.3.1/bits/std_function.h ****        *  The target of @c *this is deallocated, leaving it empty.
 426:/Library/DaisyToolchain/0.2.0/arm/arm-none-eabi/include/c++/10.3.1/bits/std_function.h ****        */
 427:/Library/DaisyToolchain/0.2.0/arm/arm-none-eabi/include/c++/10.3.1/bits/std_function.h ****       function&
 428:/Library/DaisyToolchain/0.2.0/arm/arm-none-eabi/include/c++/10.3.1/bits/std_function.h ****       operator=(nullptr_t) noexcept
 429:/Library/DaisyToolchain/0.2.0/arm/arm-none-eabi/include/c++/10.3.1/bits/std_function.h ****       {
 430:/Library/DaisyToolchain/0.2.0/arm/arm-none-eabi/include/c++/10.3.1/bits/std_function.h **** 	if (_M_manager)
 431:/Library/DaisyToolchain/0.2.0/arm/arm-none-eabi/include/c++/10.3.1/bits/std_function.h **** 	  {
 432:/Library/DaisyToolchain/0.2.0/arm/arm-none-eabi/include/c++/10.3.1/bits/std_function.h **** 	    _M_manager(_M_functor, _M_functor, __destroy_functor);
 433:/Library/DaisyToolchain/0.2.0/arm/arm-none-eabi/include/c++/10.3.1/bits/std_function.h **** 	    _M_manager = nullptr;
 434:/Library/DaisyToolchain/0.2.0/arm/arm-none-eabi/include/c++/10.3.1/bits/std_function.h **** 	    _M_invoker = nullptr;
ARM GAS  /var/folders/wz/z09yph4n0qj4t7mjxhl6ttn80000gn/T//cc4SdtXb.s 			page 44


 435:/Library/DaisyToolchain/0.2.0/arm/arm-none-eabi/include/c++/10.3.1/bits/std_function.h **** 	  }
 436:/Library/DaisyToolchain/0.2.0/arm/arm-none-eabi/include/c++/10.3.1/bits/std_function.h **** 	return *this;
 437:/Library/DaisyToolchain/0.2.0/arm/arm-none-eabi/include/c++/10.3.1/bits/std_function.h ****       }
 438:/Library/DaisyToolchain/0.2.0/arm/arm-none-eabi/include/c++/10.3.1/bits/std_function.h **** 
 439:/Library/DaisyToolchain/0.2.0/arm/arm-none-eabi/include/c++/10.3.1/bits/std_function.h ****       /**
 440:/Library/DaisyToolchain/0.2.0/arm/arm-none-eabi/include/c++/10.3.1/bits/std_function.h ****        *  @brief %Function assignment to a new target.
 441:/Library/DaisyToolchain/0.2.0/arm/arm-none-eabi/include/c++/10.3.1/bits/std_function.h ****        *  @param __f A %function object that is callable with parameters of
 442:/Library/DaisyToolchain/0.2.0/arm/arm-none-eabi/include/c++/10.3.1/bits/std_function.h ****        *  type @c T1, @c T2, ..., @c TN and returns a value convertible
 443:/Library/DaisyToolchain/0.2.0/arm/arm-none-eabi/include/c++/10.3.1/bits/std_function.h ****        *  to @c Res.
 444:/Library/DaisyToolchain/0.2.0/arm/arm-none-eabi/include/c++/10.3.1/bits/std_function.h ****        *  @return @c *this
 445:/Library/DaisyToolchain/0.2.0/arm/arm-none-eabi/include/c++/10.3.1/bits/std_function.h ****        *
 446:/Library/DaisyToolchain/0.2.0/arm/arm-none-eabi/include/c++/10.3.1/bits/std_function.h ****        *  This  %function object wrapper will target a copy of @a
 447:/Library/DaisyToolchain/0.2.0/arm/arm-none-eabi/include/c++/10.3.1/bits/std_function.h ****        *  __f. If @a __f is @c reference_wrapper<F>, then this function
 448:/Library/DaisyToolchain/0.2.0/arm/arm-none-eabi/include/c++/10.3.1/bits/std_function.h ****        *  object will contain a reference to the function object @c
 449:/Library/DaisyToolchain/0.2.0/arm/arm-none-eabi/include/c++/10.3.1/bits/std_function.h ****        *  __f.get(). If @a __f is a NULL function pointer or NULL
 450:/Library/DaisyToolchain/0.2.0/arm/arm-none-eabi/include/c++/10.3.1/bits/std_function.h ****        *  pointer-to-member, @c this object will be empty.
 451:/Library/DaisyToolchain/0.2.0/arm/arm-none-eabi/include/c++/10.3.1/bits/std_function.h ****        *
 452:/Library/DaisyToolchain/0.2.0/arm/arm-none-eabi/include/c++/10.3.1/bits/std_function.h ****        *  If @a __f is a non-NULL function pointer or an object of type @c
 453:/Library/DaisyToolchain/0.2.0/arm/arm-none-eabi/include/c++/10.3.1/bits/std_function.h ****        *  reference_wrapper<F>, this function will not throw.
 454:/Library/DaisyToolchain/0.2.0/arm/arm-none-eabi/include/c++/10.3.1/bits/std_function.h ****        */
 455:/Library/DaisyToolchain/0.2.0/arm/arm-none-eabi/include/c++/10.3.1/bits/std_function.h ****       template<typename _Functor>
 456:/Library/DaisyToolchain/0.2.0/arm/arm-none-eabi/include/c++/10.3.1/bits/std_function.h **** 	_Requires<_Callable<typename decay<_Functor>::type>, function&>
 457:/Library/DaisyToolchain/0.2.0/arm/arm-none-eabi/include/c++/10.3.1/bits/std_function.h **** 	operator=(_Functor&& __f)
 458:/Library/DaisyToolchain/0.2.0/arm/arm-none-eabi/include/c++/10.3.1/bits/std_function.h **** 	{
 459:/Library/DaisyToolchain/0.2.0/arm/arm-none-eabi/include/c++/10.3.1/bits/std_function.h **** 	  function(std::forward<_Functor>(__f)).swap(*this);
 460:/Library/DaisyToolchain/0.2.0/arm/arm-none-eabi/include/c++/10.3.1/bits/std_function.h **** 	  return *this;
 461:/Library/DaisyToolchain/0.2.0/arm/arm-none-eabi/include/c++/10.3.1/bits/std_function.h **** 	}
 462:/Library/DaisyToolchain/0.2.0/arm/arm-none-eabi/include/c++/10.3.1/bits/std_function.h **** 
 463:/Library/DaisyToolchain/0.2.0/arm/arm-none-eabi/include/c++/10.3.1/bits/std_function.h ****       /// @overload
 464:/Library/DaisyToolchain/0.2.0/arm/arm-none-eabi/include/c++/10.3.1/bits/std_function.h ****       template<typename _Functor>
 465:/Library/DaisyToolchain/0.2.0/arm/arm-none-eabi/include/c++/10.3.1/bits/std_function.h **** 	function&
 466:/Library/DaisyToolchain/0.2.0/arm/arm-none-eabi/include/c++/10.3.1/bits/std_function.h **** 	operator=(reference_wrapper<_Functor> __f) noexcept
 467:/Library/DaisyToolchain/0.2.0/arm/arm-none-eabi/include/c++/10.3.1/bits/std_function.h **** 	{
 468:/Library/DaisyToolchain/0.2.0/arm/arm-none-eabi/include/c++/10.3.1/bits/std_function.h **** 	  function(__f).swap(*this);
 469:/Library/DaisyToolchain/0.2.0/arm/arm-none-eabi/include/c++/10.3.1/bits/std_function.h **** 	  return *this;
 470:/Library/DaisyToolchain/0.2.0/arm/arm-none-eabi/include/c++/10.3.1/bits/std_function.h **** 	}
 471:/Library/DaisyToolchain/0.2.0/arm/arm-none-eabi/include/c++/10.3.1/bits/std_function.h **** 
 472:/Library/DaisyToolchain/0.2.0/arm/arm-none-eabi/include/c++/10.3.1/bits/std_function.h ****       // [3.7.2.2] function modifiers
 473:/Library/DaisyToolchain/0.2.0/arm/arm-none-eabi/include/c++/10.3.1/bits/std_function.h **** 
 474:/Library/DaisyToolchain/0.2.0/arm/arm-none-eabi/include/c++/10.3.1/bits/std_function.h ****       /**
 475:/Library/DaisyToolchain/0.2.0/arm/arm-none-eabi/include/c++/10.3.1/bits/std_function.h ****        *  @brief Swap the targets of two %function objects.
 476:/Library/DaisyToolchain/0.2.0/arm/arm-none-eabi/include/c++/10.3.1/bits/std_function.h ****        *  @param __x A %function with identical call signature.
 477:/Library/DaisyToolchain/0.2.0/arm/arm-none-eabi/include/c++/10.3.1/bits/std_function.h ****        *
 478:/Library/DaisyToolchain/0.2.0/arm/arm-none-eabi/include/c++/10.3.1/bits/std_function.h ****        *  Swap the targets of @c this function object and @a __f. This
 479:/Library/DaisyToolchain/0.2.0/arm/arm-none-eabi/include/c++/10.3.1/bits/std_function.h ****        *  function will not throw an %exception.
 480:/Library/DaisyToolchain/0.2.0/arm/arm-none-eabi/include/c++/10.3.1/bits/std_function.h ****        */
 481:/Library/DaisyToolchain/0.2.0/arm/arm-none-eabi/include/c++/10.3.1/bits/std_function.h ****       void swap(function& __x) noexcept
 482:/Library/DaisyToolchain/0.2.0/arm/arm-none-eabi/include/c++/10.3.1/bits/std_function.h ****       {
 483:/Library/DaisyToolchain/0.2.0/arm/arm-none-eabi/include/c++/10.3.1/bits/std_function.h **** 	std::swap(_M_functor, __x._M_functor);
 484:/Library/DaisyToolchain/0.2.0/arm/arm-none-eabi/include/c++/10.3.1/bits/std_function.h **** 	std::swap(_M_manager, __x._M_manager);
 485:/Library/DaisyToolchain/0.2.0/arm/arm-none-eabi/include/c++/10.3.1/bits/std_function.h **** 	std::swap(_M_invoker, __x._M_invoker);
 486:/Library/DaisyToolchain/0.2.0/arm/arm-none-eabi/include/c++/10.3.1/bits/std_function.h ****       }
 487:/Library/DaisyToolchain/0.2.0/arm/arm-none-eabi/include/c++/10.3.1/bits/std_function.h **** 
 488:/Library/DaisyToolchain/0.2.0/arm/arm-none-eabi/include/c++/10.3.1/bits/std_function.h ****       // [3.7.2.3] function capacity
 489:/Library/DaisyToolchain/0.2.0/arm/arm-none-eabi/include/c++/10.3.1/bits/std_function.h **** 
 490:/Library/DaisyToolchain/0.2.0/arm/arm-none-eabi/include/c++/10.3.1/bits/std_function.h ****       /**
 491:/Library/DaisyToolchain/0.2.0/arm/arm-none-eabi/include/c++/10.3.1/bits/std_function.h ****        *  @brief Determine if the %function wrapper has a target.
ARM GAS  /var/folders/wz/z09yph4n0qj4t7mjxhl6ttn80000gn/T//cc4SdtXb.s 			page 45


 492:/Library/DaisyToolchain/0.2.0/arm/arm-none-eabi/include/c++/10.3.1/bits/std_function.h ****        *
 493:/Library/DaisyToolchain/0.2.0/arm/arm-none-eabi/include/c++/10.3.1/bits/std_function.h ****        *  @return @c true when this %function object contains a target,
 494:/Library/DaisyToolchain/0.2.0/arm/arm-none-eabi/include/c++/10.3.1/bits/std_function.h ****        *  or @c false when it is empty.
 495:/Library/DaisyToolchain/0.2.0/arm/arm-none-eabi/include/c++/10.3.1/bits/std_function.h ****        *
 496:/Library/DaisyToolchain/0.2.0/arm/arm-none-eabi/include/c++/10.3.1/bits/std_function.h ****        *  This function will not throw an %exception.
 497:/Library/DaisyToolchain/0.2.0/arm/arm-none-eabi/include/c++/10.3.1/bits/std_function.h ****        */
 498:/Library/DaisyToolchain/0.2.0/arm/arm-none-eabi/include/c++/10.3.1/bits/std_function.h ****       explicit operator bool() const noexcept
 499:/Library/DaisyToolchain/0.2.0/arm/arm-none-eabi/include/c++/10.3.1/bits/std_function.h ****       { return !_M_empty(); }
 500:/Library/DaisyToolchain/0.2.0/arm/arm-none-eabi/include/c++/10.3.1/bits/std_function.h **** 
 501:/Library/DaisyToolchain/0.2.0/arm/arm-none-eabi/include/c++/10.3.1/bits/std_function.h ****       // [3.7.2.4] function invocation
 502:/Library/DaisyToolchain/0.2.0/arm/arm-none-eabi/include/c++/10.3.1/bits/std_function.h **** 
 503:/Library/DaisyToolchain/0.2.0/arm/arm-none-eabi/include/c++/10.3.1/bits/std_function.h ****       /**
 504:/Library/DaisyToolchain/0.2.0/arm/arm-none-eabi/include/c++/10.3.1/bits/std_function.h ****        *  @brief Invokes the function targeted by @c *this.
 505:/Library/DaisyToolchain/0.2.0/arm/arm-none-eabi/include/c++/10.3.1/bits/std_function.h ****        *  @returns the result of the target.
 506:/Library/DaisyToolchain/0.2.0/arm/arm-none-eabi/include/c++/10.3.1/bits/std_function.h ****        *  @throws bad_function_call when @c !(bool)*this
 507:/Library/DaisyToolchain/0.2.0/arm/arm-none-eabi/include/c++/10.3.1/bits/std_function.h ****        *
 508:/Library/DaisyToolchain/0.2.0/arm/arm-none-eabi/include/c++/10.3.1/bits/std_function.h ****        *  The function call operator invokes the target function object
 509:/Library/DaisyToolchain/0.2.0/arm/arm-none-eabi/include/c++/10.3.1/bits/std_function.h ****        *  stored by @c this.
 510:/Library/DaisyToolchain/0.2.0/arm/arm-none-eabi/include/c++/10.3.1/bits/std_function.h ****        */
 511:/Library/DaisyToolchain/0.2.0/arm/arm-none-eabi/include/c++/10.3.1/bits/std_function.h ****       _Res operator()(_ArgTypes... __args) const;
 512:/Library/DaisyToolchain/0.2.0/arm/arm-none-eabi/include/c++/10.3.1/bits/std_function.h **** 
 513:/Library/DaisyToolchain/0.2.0/arm/arm-none-eabi/include/c++/10.3.1/bits/std_function.h **** #if __cpp_rtti
 514:/Library/DaisyToolchain/0.2.0/arm/arm-none-eabi/include/c++/10.3.1/bits/std_function.h ****       // [3.7.2.5] function target access
 515:/Library/DaisyToolchain/0.2.0/arm/arm-none-eabi/include/c++/10.3.1/bits/std_function.h ****       /**
 516:/Library/DaisyToolchain/0.2.0/arm/arm-none-eabi/include/c++/10.3.1/bits/std_function.h ****        *  @brief Determine the type of the target of this function object
 517:/Library/DaisyToolchain/0.2.0/arm/arm-none-eabi/include/c++/10.3.1/bits/std_function.h ****        *  wrapper.
 518:/Library/DaisyToolchain/0.2.0/arm/arm-none-eabi/include/c++/10.3.1/bits/std_function.h ****        *
 519:/Library/DaisyToolchain/0.2.0/arm/arm-none-eabi/include/c++/10.3.1/bits/std_function.h ****        *  @returns the type identifier of the target function object, or
 520:/Library/DaisyToolchain/0.2.0/arm/arm-none-eabi/include/c++/10.3.1/bits/std_function.h ****        *  @c typeid(void) if @c !(bool)*this.
 521:/Library/DaisyToolchain/0.2.0/arm/arm-none-eabi/include/c++/10.3.1/bits/std_function.h ****        *
 522:/Library/DaisyToolchain/0.2.0/arm/arm-none-eabi/include/c++/10.3.1/bits/std_function.h ****        *  This function will not throw an %exception.
 523:/Library/DaisyToolchain/0.2.0/arm/arm-none-eabi/include/c++/10.3.1/bits/std_function.h ****        */
 524:/Library/DaisyToolchain/0.2.0/arm/arm-none-eabi/include/c++/10.3.1/bits/std_function.h ****       const type_info& target_type() const noexcept;
 525:/Library/DaisyToolchain/0.2.0/arm/arm-none-eabi/include/c++/10.3.1/bits/std_function.h **** 
 526:/Library/DaisyToolchain/0.2.0/arm/arm-none-eabi/include/c++/10.3.1/bits/std_function.h ****       /**
 527:/Library/DaisyToolchain/0.2.0/arm/arm-none-eabi/include/c++/10.3.1/bits/std_function.h ****        *  @brief Access the stored target function object.
 528:/Library/DaisyToolchain/0.2.0/arm/arm-none-eabi/include/c++/10.3.1/bits/std_function.h ****        *
 529:/Library/DaisyToolchain/0.2.0/arm/arm-none-eabi/include/c++/10.3.1/bits/std_function.h ****        *  @return Returns a pointer to the stored target function object,
 530:/Library/DaisyToolchain/0.2.0/arm/arm-none-eabi/include/c++/10.3.1/bits/std_function.h ****        *  if @c typeid(_Functor).equals(target_type()); otherwise, a NULL
 531:/Library/DaisyToolchain/0.2.0/arm/arm-none-eabi/include/c++/10.3.1/bits/std_function.h ****        *  pointer.
 532:/Library/DaisyToolchain/0.2.0/arm/arm-none-eabi/include/c++/10.3.1/bits/std_function.h ****        *
 533:/Library/DaisyToolchain/0.2.0/arm/arm-none-eabi/include/c++/10.3.1/bits/std_function.h ****        * This function does not throw exceptions.
 534:/Library/DaisyToolchain/0.2.0/arm/arm-none-eabi/include/c++/10.3.1/bits/std_function.h ****        *
 535:/Library/DaisyToolchain/0.2.0/arm/arm-none-eabi/include/c++/10.3.1/bits/std_function.h ****        * @{
 536:/Library/DaisyToolchain/0.2.0/arm/arm-none-eabi/include/c++/10.3.1/bits/std_function.h ****        */
 537:/Library/DaisyToolchain/0.2.0/arm/arm-none-eabi/include/c++/10.3.1/bits/std_function.h ****       template<typename _Functor>       _Functor* target() noexcept;
 538:/Library/DaisyToolchain/0.2.0/arm/arm-none-eabi/include/c++/10.3.1/bits/std_function.h **** 
 539:/Library/DaisyToolchain/0.2.0/arm/arm-none-eabi/include/c++/10.3.1/bits/std_function.h ****       template<typename _Functor> const _Functor* target() const noexcept;
 540:/Library/DaisyToolchain/0.2.0/arm/arm-none-eabi/include/c++/10.3.1/bits/std_function.h ****       /// @}
 541:/Library/DaisyToolchain/0.2.0/arm/arm-none-eabi/include/c++/10.3.1/bits/std_function.h **** #endif
 542:/Library/DaisyToolchain/0.2.0/arm/arm-none-eabi/include/c++/10.3.1/bits/std_function.h **** 
 543:/Library/DaisyToolchain/0.2.0/arm/arm-none-eabi/include/c++/10.3.1/bits/std_function.h ****     private:
 544:/Library/DaisyToolchain/0.2.0/arm/arm-none-eabi/include/c++/10.3.1/bits/std_function.h ****       using _Invoker_type = _Res (*)(const _Any_data&, _ArgTypes&&...);
 545:/Library/DaisyToolchain/0.2.0/arm/arm-none-eabi/include/c++/10.3.1/bits/std_function.h ****       _Invoker_type _M_invoker;
 546:/Library/DaisyToolchain/0.2.0/arm/arm-none-eabi/include/c++/10.3.1/bits/std_function.h ****   };
 547:/Library/DaisyToolchain/0.2.0/arm/arm-none-eabi/include/c++/10.3.1/bits/std_function.h **** 
 548:/Library/DaisyToolchain/0.2.0/arm/arm-none-eabi/include/c++/10.3.1/bits/std_function.h **** #if __cpp_deduction_guides >= 201606
ARM GAS  /var/folders/wz/z09yph4n0qj4t7mjxhl6ttn80000gn/T//cc4SdtXb.s 			page 46


 549:/Library/DaisyToolchain/0.2.0/arm/arm-none-eabi/include/c++/10.3.1/bits/std_function.h ****   template<typename>
 550:/Library/DaisyToolchain/0.2.0/arm/arm-none-eabi/include/c++/10.3.1/bits/std_function.h ****     struct __function_guide_helper
 551:/Library/DaisyToolchain/0.2.0/arm/arm-none-eabi/include/c++/10.3.1/bits/std_function.h ****     { };
 552:/Library/DaisyToolchain/0.2.0/arm/arm-none-eabi/include/c++/10.3.1/bits/std_function.h **** 
 553:/Library/DaisyToolchain/0.2.0/arm/arm-none-eabi/include/c++/10.3.1/bits/std_function.h ****   template<typename _Res, typename _Tp, bool _Nx, typename... _Args>
 554:/Library/DaisyToolchain/0.2.0/arm/arm-none-eabi/include/c++/10.3.1/bits/std_function.h ****     struct __function_guide_helper<
 555:/Library/DaisyToolchain/0.2.0/arm/arm-none-eabi/include/c++/10.3.1/bits/std_function.h ****       _Res (_Tp::*) (_Args...) noexcept(_Nx)
 556:/Library/DaisyToolchain/0.2.0/arm/arm-none-eabi/include/c++/10.3.1/bits/std_function.h ****     >
 557:/Library/DaisyToolchain/0.2.0/arm/arm-none-eabi/include/c++/10.3.1/bits/std_function.h ****     { using type = _Res(_Args...); };
 558:/Library/DaisyToolchain/0.2.0/arm/arm-none-eabi/include/c++/10.3.1/bits/std_function.h **** 
 559:/Library/DaisyToolchain/0.2.0/arm/arm-none-eabi/include/c++/10.3.1/bits/std_function.h ****   template<typename _Res, typename _Tp, bool _Nx, typename... _Args>
 560:/Library/DaisyToolchain/0.2.0/arm/arm-none-eabi/include/c++/10.3.1/bits/std_function.h ****     struct __function_guide_helper<
 561:/Library/DaisyToolchain/0.2.0/arm/arm-none-eabi/include/c++/10.3.1/bits/std_function.h ****       _Res (_Tp::*) (_Args...) & noexcept(_Nx)
 562:/Library/DaisyToolchain/0.2.0/arm/arm-none-eabi/include/c++/10.3.1/bits/std_function.h ****     >
 563:/Library/DaisyToolchain/0.2.0/arm/arm-none-eabi/include/c++/10.3.1/bits/std_function.h ****     { using type = _Res(_Args...); };
 564:/Library/DaisyToolchain/0.2.0/arm/arm-none-eabi/include/c++/10.3.1/bits/std_function.h **** 
 565:/Library/DaisyToolchain/0.2.0/arm/arm-none-eabi/include/c++/10.3.1/bits/std_function.h ****   template<typename _Res, typename _Tp, bool _Nx, typename... _Args>
 566:/Library/DaisyToolchain/0.2.0/arm/arm-none-eabi/include/c++/10.3.1/bits/std_function.h ****     struct __function_guide_helper<
 567:/Library/DaisyToolchain/0.2.0/arm/arm-none-eabi/include/c++/10.3.1/bits/std_function.h ****       _Res (_Tp::*) (_Args...) const noexcept(_Nx)
 568:/Library/DaisyToolchain/0.2.0/arm/arm-none-eabi/include/c++/10.3.1/bits/std_function.h ****     >
 569:/Library/DaisyToolchain/0.2.0/arm/arm-none-eabi/include/c++/10.3.1/bits/std_function.h ****     { using type = _Res(_Args...); };
 570:/Library/DaisyToolchain/0.2.0/arm/arm-none-eabi/include/c++/10.3.1/bits/std_function.h **** 
 571:/Library/DaisyToolchain/0.2.0/arm/arm-none-eabi/include/c++/10.3.1/bits/std_function.h ****   template<typename _Res, typename _Tp, bool _Nx, typename... _Args>
 572:/Library/DaisyToolchain/0.2.0/arm/arm-none-eabi/include/c++/10.3.1/bits/std_function.h ****     struct __function_guide_helper<
 573:/Library/DaisyToolchain/0.2.0/arm/arm-none-eabi/include/c++/10.3.1/bits/std_function.h ****       _Res (_Tp::*) (_Args...) const & noexcept(_Nx)
 574:/Library/DaisyToolchain/0.2.0/arm/arm-none-eabi/include/c++/10.3.1/bits/std_function.h ****     >
 575:/Library/DaisyToolchain/0.2.0/arm/arm-none-eabi/include/c++/10.3.1/bits/std_function.h ****     { using type = _Res(_Args...); };
 576:/Library/DaisyToolchain/0.2.0/arm/arm-none-eabi/include/c++/10.3.1/bits/std_function.h **** 
 577:/Library/DaisyToolchain/0.2.0/arm/arm-none-eabi/include/c++/10.3.1/bits/std_function.h ****   template<typename _Res, typename... _ArgTypes>
 578:/Library/DaisyToolchain/0.2.0/arm/arm-none-eabi/include/c++/10.3.1/bits/std_function.h ****     function(_Res(*)(_ArgTypes...)) -> function<_Res(_ArgTypes...)>;
 579:/Library/DaisyToolchain/0.2.0/arm/arm-none-eabi/include/c++/10.3.1/bits/std_function.h **** 
 580:/Library/DaisyToolchain/0.2.0/arm/arm-none-eabi/include/c++/10.3.1/bits/std_function.h ****   template<typename _Functor, typename _Signature = typename
 581:/Library/DaisyToolchain/0.2.0/arm/arm-none-eabi/include/c++/10.3.1/bits/std_function.h **** 	   __function_guide_helper<decltype(&_Functor::operator())>::type>
 582:/Library/DaisyToolchain/0.2.0/arm/arm-none-eabi/include/c++/10.3.1/bits/std_function.h ****     function(_Functor) -> function<_Signature>;
 583:/Library/DaisyToolchain/0.2.0/arm/arm-none-eabi/include/c++/10.3.1/bits/std_function.h **** #endif
 584:/Library/DaisyToolchain/0.2.0/arm/arm-none-eabi/include/c++/10.3.1/bits/std_function.h **** 
 585:/Library/DaisyToolchain/0.2.0/arm/arm-none-eabi/include/c++/10.3.1/bits/std_function.h ****   // Out-of-line member definitions.
 586:/Library/DaisyToolchain/0.2.0/arm/arm-none-eabi/include/c++/10.3.1/bits/std_function.h ****   template<typename _Res, typename... _ArgTypes>
 587:/Library/DaisyToolchain/0.2.0/arm/arm-none-eabi/include/c++/10.3.1/bits/std_function.h ****     function<_Res(_ArgTypes...)>::
 588:/Library/DaisyToolchain/0.2.0/arm/arm-none-eabi/include/c++/10.3.1/bits/std_function.h ****     function(const function& __x)
 589:/Library/DaisyToolchain/0.2.0/arm/arm-none-eabi/include/c++/10.3.1/bits/std_function.h ****     : _Function_base()
 590:/Library/DaisyToolchain/0.2.0/arm/arm-none-eabi/include/c++/10.3.1/bits/std_function.h ****     {
 591:/Library/DaisyToolchain/0.2.0/arm/arm-none-eabi/include/c++/10.3.1/bits/std_function.h ****       if (static_cast<bool>(__x))
 592:/Library/DaisyToolchain/0.2.0/arm/arm-none-eabi/include/c++/10.3.1/bits/std_function.h **** 	{
 593:/Library/DaisyToolchain/0.2.0/arm/arm-none-eabi/include/c++/10.3.1/bits/std_function.h **** 	  __x._M_manager(_M_functor, __x._M_functor, __clone_functor);
 594:/Library/DaisyToolchain/0.2.0/arm/arm-none-eabi/include/c++/10.3.1/bits/std_function.h **** 	  _M_invoker = __x._M_invoker;
 595:/Library/DaisyToolchain/0.2.0/arm/arm-none-eabi/include/c++/10.3.1/bits/std_function.h **** 	  _M_manager = __x._M_manager;
 596:/Library/DaisyToolchain/0.2.0/arm/arm-none-eabi/include/c++/10.3.1/bits/std_function.h **** 	}
 597:/Library/DaisyToolchain/0.2.0/arm/arm-none-eabi/include/c++/10.3.1/bits/std_function.h ****     }
 598:/Library/DaisyToolchain/0.2.0/arm/arm-none-eabi/include/c++/10.3.1/bits/std_function.h **** 
 599:/Library/DaisyToolchain/0.2.0/arm/arm-none-eabi/include/c++/10.3.1/bits/std_function.h ****   template<typename _Res, typename... _ArgTypes>
 600:/Library/DaisyToolchain/0.2.0/arm/arm-none-eabi/include/c++/10.3.1/bits/std_function.h ****     template<typename _Functor, typename, typename>
 601:/Library/DaisyToolchain/0.2.0/arm/arm-none-eabi/include/c++/10.3.1/bits/std_function.h ****       function<_Res(_ArgTypes...)>::
 602:/Library/DaisyToolchain/0.2.0/arm/arm-none-eabi/include/c++/10.3.1/bits/std_function.h ****       function(_Functor __f)
 603:/Library/DaisyToolchain/0.2.0/arm/arm-none-eabi/include/c++/10.3.1/bits/std_function.h ****       : _Function_base()
 604:/Library/DaisyToolchain/0.2.0/arm/arm-none-eabi/include/c++/10.3.1/bits/std_function.h ****       {
 605:/Library/DaisyToolchain/0.2.0/arm/arm-none-eabi/include/c++/10.3.1/bits/std_function.h **** 	typedef _Function_handler<_Res(_ArgTypes...), _Functor> _My_handler;
ARM GAS  /var/folders/wz/z09yph4n0qj4t7mjxhl6ttn80000gn/T//cc4SdtXb.s 			page 47


 606:/Library/DaisyToolchain/0.2.0/arm/arm-none-eabi/include/c++/10.3.1/bits/std_function.h **** 
 607:/Library/DaisyToolchain/0.2.0/arm/arm-none-eabi/include/c++/10.3.1/bits/std_function.h **** 	if (_My_handler::_M_not_empty_function(__f))
 608:/Library/DaisyToolchain/0.2.0/arm/arm-none-eabi/include/c++/10.3.1/bits/std_function.h **** 	  {
 609:/Library/DaisyToolchain/0.2.0/arm/arm-none-eabi/include/c++/10.3.1/bits/std_function.h **** 	    _My_handler::_M_init_functor(_M_functor, std::move(__f));
 610:/Library/DaisyToolchain/0.2.0/arm/arm-none-eabi/include/c++/10.3.1/bits/std_function.h **** 	    _M_invoker = &_My_handler::_M_invoke;
 611:/Library/DaisyToolchain/0.2.0/arm/arm-none-eabi/include/c++/10.3.1/bits/std_function.h **** 	    _M_manager = &_My_handler::_M_manager;
 612:/Library/DaisyToolchain/0.2.0/arm/arm-none-eabi/include/c++/10.3.1/bits/std_function.h **** 	  }
 613:/Library/DaisyToolchain/0.2.0/arm/arm-none-eabi/include/c++/10.3.1/bits/std_function.h ****       }
 614:/Library/DaisyToolchain/0.2.0/arm/arm-none-eabi/include/c++/10.3.1/bits/std_function.h **** 
 615:/Library/DaisyToolchain/0.2.0/arm/arm-none-eabi/include/c++/10.3.1/bits/std_function.h ****   template<typename _Res, typename... _ArgTypes>
 616:/Library/DaisyToolchain/0.2.0/arm/arm-none-eabi/include/c++/10.3.1/bits/std_function.h ****     _Res
 617:/Library/DaisyToolchain/0.2.0/arm/arm-none-eabi/include/c++/10.3.1/bits/std_function.h ****     function<_Res(_ArgTypes...)>::
 1570              		.loc 4 617 5
 1571              		.cfi_startproc
 1572              		@ args = 0, pretend = 0, frame = 8
 1573              		@ frame_needed = 1, uses_anonymous_args = 0
 1574 0000 80B5     		push	{r7, lr}
 1575              		.cfi_def_cfa_offset 8
 1576              		.cfi_offset 7, -8
 1577              		.cfi_offset 14, -4
 1578 0002 82B0     		sub	sp, sp, #8
 1579              		.cfi_def_cfa_offset 16
 1580 0004 00AF     		add	r7, sp, #0
 1581              		.cfi_def_cfa_register 7
 1582 0006 7860     		str	r0, [r7, #4]
 618:/Library/DaisyToolchain/0.2.0/arm/arm-none-eabi/include/c++/10.3.1/bits/std_function.h ****     operator()(_ArgTypes... __args) const
 619:/Library/DaisyToolchain/0.2.0/arm/arm-none-eabi/include/c++/10.3.1/bits/std_function.h ****     {
 620:/Library/DaisyToolchain/0.2.0/arm/arm-none-eabi/include/c++/10.3.1/bits/std_function.h ****       if (_M_empty())
 1583              		.loc 4 620 19
 1584 0008 7B68     		ldr	r3, [r7, #4]
 1585 000a 1846     		mov	r0, r3
 1586 000c FFF7FEFF 		bl	_ZNKSt14_Function_base8_M_emptyEv
 1587 0010 0346     		mov	r3, r0
 1588              		.loc 4 620 7
 1589 0012 002B     		cmp	r3, #0
 1590 0014 01D0     		beq	.L47
 621:/Library/DaisyToolchain/0.2.0/arm/arm-none-eabi/include/c++/10.3.1/bits/std_function.h **** 	__throw_bad_function_call();
 1591              		.loc 4 621 27
 1592 0016 FFF7FEFF 		bl	_ZSt25__throw_bad_function_callv
 1593              	.L47:
 622:/Library/DaisyToolchain/0.2.0/arm/arm-none-eabi/include/c++/10.3.1/bits/std_function.h ****       return _M_invoker(_M_functor, std::forward<_ArgTypes>(__args)...);
 1594              		.loc 4 622 14
 1595 001a 7B68     		ldr	r3, [r7, #4]
 1596 001c DB68     		ldr	r3, [r3, #12]
 1597              		.loc 4 622 25
 1598 001e 7A68     		ldr	r2, [r7, #4]
 1599              		.loc 4 622 14
 1600 0020 1046     		mov	r0, r2
 1601 0022 9847     		blx	r3
 1602              	.LVL1:
 1603              		.loc 4 622 71
 1604 0024 00BF     		nop
 623:/Library/DaisyToolchain/0.2.0/arm/arm-none-eabi/include/c++/10.3.1/bits/std_function.h ****     }
 1605              		.loc 4 623 5
 1606 0026 0837     		adds	r7, r7, #8
 1607              		.cfi_def_cfa_offset 8
 1608 0028 BD46     		mov	sp, r7
ARM GAS  /var/folders/wz/z09yph4n0qj4t7mjxhl6ttn80000gn/T//cc4SdtXb.s 			page 48


 1609              		.cfi_def_cfa_register 13
 1610              		@ sp needed
 1611 002a 80BD     		pop	{r7, pc}
 1612              		.cfi_endproc
 1613              	.LFE5971:
 1615              		.section	.text._ZN7daisysp9DelayLineIfLj240000EE8SetDelayEj,"axG",%progbits,_ZN7daisysp9DelayLineI
 1616              		.align	1
 1617              		.weak	_ZN7daisysp9DelayLineIfLj240000EE8SetDelayEj
 1618              		.syntax unified
 1619              		.thumb
 1620              		.thumb_func
 1622              	_ZN7daisysp9DelayLineIfLj240000EE8SetDelayEj:
 1623              	.LFB5972:
 1624              		.file 8 "../../../DaisySP//Source/Utility/delayline.h"
   1:../../../DaisySP//Source/Utility/delayline.h **** #pragma once
   2:../../../DaisySP//Source/Utility/delayline.h **** #ifndef DSY_DELAY_H
   3:../../../DaisySP//Source/Utility/delayline.h **** #define DSY_DELAY_H
   4:../../../DaisySP//Source/Utility/delayline.h **** #include <stdlib.h>
   5:../../../DaisySP//Source/Utility/delayline.h **** #include <stdint.h>
   6:../../../DaisySP//Source/Utility/delayline.h **** namespace daisysp
   7:../../../DaisySP//Source/Utility/delayline.h **** {
   8:../../../DaisySP//Source/Utility/delayline.h **** /** Simple Delay line.
   9:../../../DaisySP//Source/Utility/delayline.h **** November 2019
  10:../../../DaisySP//Source/Utility/delayline.h **** 
  11:../../../DaisySP//Source/Utility/delayline.h **** Converted to Template December 2019
  12:../../../DaisySP//Source/Utility/delayline.h **** 
  13:../../../DaisySP//Source/Utility/delayline.h **** declaration example: (1 second of floats)
  14:../../../DaisySP//Source/Utility/delayline.h **** 
  15:../../../DaisySP//Source/Utility/delayline.h **** DelayLine<float, SAMPLE_RATE> del;
  16:../../../DaisySP//Source/Utility/delayline.h **** 
  17:../../../DaisySP//Source/Utility/delayline.h **** By: shensley
  18:../../../DaisySP//Source/Utility/delayline.h **** */
  19:../../../DaisySP//Source/Utility/delayline.h **** template <typename T, size_t max_size>
  20:../../../DaisySP//Source/Utility/delayline.h **** class DelayLine
  21:../../../DaisySP//Source/Utility/delayline.h **** {
  22:../../../DaisySP//Source/Utility/delayline.h ****   public:
  23:../../../DaisySP//Source/Utility/delayline.h ****     DelayLine() {}
  24:../../../DaisySP//Source/Utility/delayline.h ****     ~DelayLine() {}
  25:../../../DaisySP//Source/Utility/delayline.h ****     /** initializes the delay line by clearing the values within, and setting delay to 1 sample.
  26:../../../DaisySP//Source/Utility/delayline.h ****     */
  27:../../../DaisySP//Source/Utility/delayline.h ****     void Init() { Reset(); }
  28:../../../DaisySP//Source/Utility/delayline.h ****     /** clears buffer, sets write ptr to 0, and delay to 1 sample.
  29:../../../DaisySP//Source/Utility/delayline.h ****     */
  30:../../../DaisySP//Source/Utility/delayline.h ****     void Reset()
  31:../../../DaisySP//Source/Utility/delayline.h ****     {
  32:../../../DaisySP//Source/Utility/delayline.h ****         for(size_t i = 0; i < max_size; i++)
  33:../../../DaisySP//Source/Utility/delayline.h ****         {
  34:../../../DaisySP//Source/Utility/delayline.h ****             line_[i] = T(0);
  35:../../../DaisySP//Source/Utility/delayline.h ****         }
  36:../../../DaisySP//Source/Utility/delayline.h ****         write_ptr_ = 0;
  37:../../../DaisySP//Source/Utility/delayline.h ****         delay_     = 1;
  38:../../../DaisySP//Source/Utility/delayline.h ****     }
  39:../../../DaisySP//Source/Utility/delayline.h **** 
  40:../../../DaisySP//Source/Utility/delayline.h ****     /** sets the delay time in samples
  41:../../../DaisySP//Source/Utility/delayline.h ****         If a float is passed in, a fractional component will be calculated for interpolating the de
  42:../../../DaisySP//Source/Utility/delayline.h ****     */
  43:../../../DaisySP//Source/Utility/delayline.h ****     inline void SetDelay(size_t delay)
ARM GAS  /var/folders/wz/z09yph4n0qj4t7mjxhl6ttn80000gn/T//cc4SdtXb.s 			page 49


 1625              		.loc 8 43 17
 1626              		.cfi_startproc
 1627              		@ args = 0, pretend = 0, frame = 8
 1628              		@ frame_needed = 1, uses_anonymous_args = 0
 1629              		@ link register save eliminated.
 1630 0000 80B4     		push	{r7}
 1631              		.cfi_def_cfa_offset 4
 1632              		.cfi_offset 7, -4
 1633 0002 83B0     		sub	sp, sp, #12
 1634              		.cfi_def_cfa_offset 16
 1635 0004 00AF     		add	r7, sp, #0
 1636              		.cfi_def_cfa_register 7
 1637 0006 7860     		str	r0, [r7, #4]
 1638 0008 3960     		str	r1, [r7]
  44:../../../DaisySP//Source/Utility/delayline.h ****     {
  45:../../../DaisySP//Source/Utility/delayline.h ****         frac_  = 0.0f;
 1639              		.loc 8 45 16
 1640 000a 7B68     		ldr	r3, [r7, #4]
 1641 000c 4FF00002 		mov	r2, #0
 1642 0010 1A60     		str	r2, [r3]	@ float
  46:../../../DaisySP//Source/Utility/delayline.h ****         delay_ = delay < max_size ? delay : max_size - 1;
 1643              		.loc 8 46 35
 1644 0012 3B68     		ldr	r3, [r7]
 1645 0014 054A     		ldr	r2, .L50
 1646 0016 9A42     		cmp	r2, r3
 1647 0018 28BF     		it	cs
 1648 001a 1A46     		movcs	r2, r3
 1649              		.loc 8 46 16
 1650 001c 7B68     		ldr	r3, [r7, #4]
 1651 001e 9A60     		str	r2, [r3, #8]
  47:../../../DaisySP//Source/Utility/delayline.h ****     }
 1652              		.loc 8 47 5
 1653 0020 00BF     		nop
 1654 0022 0C37     		adds	r7, r7, #12
 1655              		.cfi_def_cfa_offset 4
 1656 0024 BD46     		mov	sp, r7
 1657              		.cfi_def_cfa_register 13
 1658              		@ sp needed
 1659 0026 5DF8047B 		ldr	r7, [sp], #4
 1660              		.cfi_restore 7
 1661              		.cfi_def_cfa_offset 0
 1662 002a 7047     		bx	lr
 1663              	.L51:
 1664              		.align	2
 1665              	.L50:
 1666 002c 7FA90300 		.word	239999
 1667              		.cfi_endproc
 1668              	.LFE5972:
 1670              		.section	.text._ZN7daisysp9DelayLineIfLj240000EE4InitEv,"axG",%progbits,_ZN7daisysp9DelayLineIfLj2
 1671              		.align	1
 1672              		.weak	_ZN7daisysp9DelayLineIfLj240000EE4InitEv
 1673              		.syntax unified
 1674              		.thumb
 1675              		.thumb_func
 1677              	_ZN7daisysp9DelayLineIfLj240000EE4InitEv:
 1678              	.LFB5973:
  27:../../../DaisySP//Source/Utility/delayline.h ****     /** clears buffer, sets write ptr to 0, and delay to 1 sample.
ARM GAS  /var/folders/wz/z09yph4n0qj4t7mjxhl6ttn80000gn/T//cc4SdtXb.s 			page 50


 1679              		.loc 8 27 10
 1680              		.cfi_startproc
 1681              		@ args = 0, pretend = 0, frame = 8
 1682              		@ frame_needed = 1, uses_anonymous_args = 0
 1683 0000 80B5     		push	{r7, lr}
 1684              		.cfi_def_cfa_offset 8
 1685              		.cfi_offset 7, -8
 1686              		.cfi_offset 14, -4
 1687 0002 82B0     		sub	sp, sp, #8
 1688              		.cfi_def_cfa_offset 16
 1689 0004 00AF     		add	r7, sp, #0
 1690              		.cfi_def_cfa_register 7
 1691 0006 7860     		str	r0, [r7, #4]
  27:../../../DaisySP//Source/Utility/delayline.h ****     /** clears buffer, sets write ptr to 0, and delay to 1 sample.
 1692              		.loc 8 27 24
 1693 0008 7868     		ldr	r0, [r7, #4]
 1694 000a FFF7FEFF 		bl	_ZN7daisysp9DelayLineIfLj240000EE5ResetEv
  27:../../../DaisySP//Source/Utility/delayline.h ****     /** clears buffer, sets write ptr to 0, and delay to 1 sample.
 1695              		.loc 8 27 28
 1696 000e 00BF     		nop
 1697 0010 0837     		adds	r7, r7, #8
 1698              		.cfi_def_cfa_offset 8
 1699 0012 BD46     		mov	sp, r7
 1700              		.cfi_def_cfa_register 13
 1701              		@ sp needed
 1702 0014 80BD     		pop	{r7, pc}
 1703              		.cfi_endproc
 1704              	.LFE5973:
 1706              		.section	.text._ZN7daisysp9DelayLineIfLj240000EE5ResetEv,"axG",%progbits,_ZN7daisysp9DelayLineIfLj
 1707              		.align	1
 1708              		.weak	_ZN7daisysp9DelayLineIfLj240000EE5ResetEv
 1709              		.syntax unified
 1710              		.thumb
 1711              		.thumb_func
 1713              	_ZN7daisysp9DelayLineIfLj240000EE5ResetEv:
 1714              	.LFB5974:
  30:../../../DaisySP//Source/Utility/delayline.h ****     {
 1715              		.loc 8 30 10
 1716              		.cfi_startproc
 1717              		@ args = 0, pretend = 0, frame = 16
 1718              		@ frame_needed = 1, uses_anonymous_args = 0
 1719              		@ link register save eliminated.
 1720 0000 80B4     		push	{r7}
 1721              		.cfi_def_cfa_offset 4
 1722              		.cfi_offset 7, -4
 1723 0002 85B0     		sub	sp, sp, #20
 1724              		.cfi_def_cfa_offset 24
 1725 0004 00AF     		add	r7, sp, #0
 1726              		.cfi_def_cfa_register 7
 1727 0006 7860     		str	r0, [r7, #4]
 1728              	.LBB11:
  32:../../../DaisySP//Source/Utility/delayline.h ****         {
 1729              		.loc 8 32 20
 1730 0008 0023     		movs	r3, #0
 1731 000a FB60     		str	r3, [r7, #12]
 1732              	.L55:
  32:../../../DaisySP//Source/Utility/delayline.h ****         {
ARM GAS  /var/folders/wz/z09yph4n0qj4t7mjxhl6ttn80000gn/T//cc4SdtXb.s 			page 51


 1733              		.loc 8 32 29 discriminator 3
 1734 000c FB68     		ldr	r3, [r7, #12]
 1735 000e 0E4A     		ldr	r2, .L56
 1736 0010 9342     		cmp	r3, r2
 1737 0012 0CD8     		bhi	.L54
  34:../../../DaisySP//Source/Utility/delayline.h ****         }
 1738              		.loc 8 34 22 discriminator 2
 1739 0014 7A68     		ldr	r2, [r7, #4]
 1740 0016 FB68     		ldr	r3, [r7, #12]
 1741 0018 0233     		adds	r3, r3, #2
 1742 001a 9B00     		lsls	r3, r3, #2
 1743 001c 1344     		add	r3, r3, r2
 1744 001e 0433     		adds	r3, r3, #4
 1745 0020 4FF00002 		mov	r2, #0
 1746 0024 1A60     		str	r2, [r3]	@ float
  32:../../../DaisySP//Source/Utility/delayline.h ****         {
 1747              		.loc 8 32 9 discriminator 2
 1748 0026 FB68     		ldr	r3, [r7, #12]
 1749 0028 0133     		adds	r3, r3, #1
 1750 002a FB60     		str	r3, [r7, #12]
 1751 002c EEE7     		b	.L55
 1752              	.L54:
 1753              	.LBE11:
  36:../../../DaisySP//Source/Utility/delayline.h ****         delay_     = 1;
 1754              		.loc 8 36 20
 1755 002e 7B68     		ldr	r3, [r7, #4]
 1756 0030 0022     		movs	r2, #0
 1757 0032 5A60     		str	r2, [r3, #4]
  37:../../../DaisySP//Source/Utility/delayline.h ****     }
 1758              		.loc 8 37 20
 1759 0034 7B68     		ldr	r3, [r7, #4]
 1760 0036 0122     		movs	r2, #1
 1761 0038 9A60     		str	r2, [r3, #8]
  38:../../../DaisySP//Source/Utility/delayline.h **** 
 1762              		.loc 8 38 5
 1763 003a 00BF     		nop
 1764 003c 1437     		adds	r7, r7, #20
 1765              		.cfi_def_cfa_offset 4
 1766 003e BD46     		mov	sp, r7
 1767              		.cfi_def_cfa_register 13
 1768              		@ sp needed
 1769 0040 5DF8047B 		ldr	r7, [sp], #4
 1770              		.cfi_restore 7
 1771              		.cfi_def_cfa_offset 0
 1772 0044 7047     		bx	lr
 1773              	.L57:
 1774 0046 00BF     		.align	2
 1775              	.L56:
 1776 0048 7FA90300 		.word	239999
 1777              		.cfi_endproc
 1778              	.LFE5974:
 1780              		.section	.text._ZNSt8functionIFvjEEC2IZN5Delay4initEPN5daisy9DaisySeedEPPN7daisysp9DelayLineIfLj24
 1781              		.align	1
 1782              		.syntax unified
 1783              		.thumb
 1784              		.thumb_func
 1786              	_ZNSt8functionIFvjEEC2IZN5Delay4initEPN5daisy9DaisySeedEPPN7daisysp9DelayLineIfLj240000EEEEUljE_vvE
ARM GAS  /var/folders/wz/z09yph4n0qj4t7mjxhl6ttn80000gn/T//cc4SdtXb.s 			page 52


 1787              	.LFB5977:
 601:/Library/DaisyToolchain/0.2.0/arm/arm-none-eabi/include/c++/10.3.1/bits/std_function.h ****       function(_Functor __f)
 1788              		.loc 4 601 7
 1789              		.cfi_startproc
 1790              		@ args = 0, pretend = 0, frame = 8
 1791              		@ frame_needed = 1, uses_anonymous_args = 0
 1792 0000 90B5     		push	{r4, r7, lr}
 1793              		.cfi_def_cfa_offset 12
 1794              		.cfi_offset 4, -12
 1795              		.cfi_offset 7, -8
 1796              		.cfi_offset 14, -4
 1797 0002 83B0     		sub	sp, sp, #12
 1798              		.cfi_def_cfa_offset 24
 1799 0004 00AF     		add	r7, sp, #0
 1800              		.cfi_def_cfa_register 7
 1801 0006 7860     		str	r0, [r7, #4]
 1802 0008 3960     		str	r1, [r7]
 1803              	.LBB12:
 603:/Library/DaisyToolchain/0.2.0/arm/arm-none-eabi/include/c++/10.3.1/bits/std_function.h ****       {
 1804              		.loc 4 603 24
 1805 000a 7B68     		ldr	r3, [r7, #4]
 1806 000c 1846     		mov	r0, r3
 1807 000e FFF7FEFF 		bl	_ZNSt14_Function_baseC2Ev
 1808              	.LBB13:
 607:/Library/DaisyToolchain/0.2.0/arm/arm-none-eabi/include/c++/10.3.1/bits/std_function.h **** 	  {
 1809              		.loc 4 607 40
 1810 0012 3B46     		mov	r3, r7
 1811 0014 1846     		mov	r0, r3
 1812 0016 FFF7FEFF 		bl	_ZNSt14_Function_base13_Base_managerIZN5Delay4initEPN5daisy9DaisySeedEPPN7daisysp9DelayLineIfLj
 1813 001a 0346     		mov	r3, r0
 607:/Library/DaisyToolchain/0.2.0/arm/arm-none-eabi/include/c++/10.3.1/bits/std_function.h **** 	  {
 1814              		.loc 4 607 2
 1815 001c 002B     		cmp	r3, #0
 1816 001e 0FD0     		beq	.L59
 609:/Library/DaisyToolchain/0.2.0/arm/arm-none-eabi/include/c++/10.3.1/bits/std_function.h **** 	    _M_invoker = &_My_handler::_M_invoke;
 1817              		.loc 4 609 35
 1818 0020 7C68     		ldr	r4, [r7, #4]
 609:/Library/DaisyToolchain/0.2.0/arm/arm-none-eabi/include/c++/10.3.1/bits/std_function.h **** 	    _M_invoker = &_My_handler::_M_invoke;
 1819              		.loc 4 609 56
 1820 0022 3B46     		mov	r3, r7
 1821 0024 1846     		mov	r0, r3
 1822 0026 FFF7FEFF 		bl	_ZSt4moveIRZN5Delay4initEPN5daisy9DaisySeedEPPN7daisysp9DelayLineIfLj240000EEEEUljE_EONSt16remo
 1823 002a 0346     		mov	r3, r0
 609:/Library/DaisyToolchain/0.2.0/arm/arm-none-eabi/include/c++/10.3.1/bits/std_function.h **** 	    _M_invoker = &_My_handler::_M_invoke;
 1824              		.loc 4 609 34
 1825 002c 1946     		mov	r1, r3
 1826 002e 2046     		mov	r0, r4
 1827 0030 FFF7FEFF 		bl	_ZNSt14_Function_base13_Base_managerIZN5Delay4initEPN5daisy9DaisySeedEPPN7daisysp9DelayLineIfLj
 610:/Library/DaisyToolchain/0.2.0/arm/arm-none-eabi/include/c++/10.3.1/bits/std_function.h **** 	    _M_manager = &_My_handler::_M_manager;
 1828              		.loc 4 610 17
 1829 0034 7B68     		ldr	r3, [r7, #4]
 1830 0036 054A     		ldr	r2, .L61
 1831 0038 DA60     		str	r2, [r3, #12]
 611:/Library/DaisyToolchain/0.2.0/arm/arm-none-eabi/include/c++/10.3.1/bits/std_function.h **** 	  }
 1832              		.loc 4 611 17
 1833 003a 7B68     		ldr	r3, [r7, #4]
 1834 003c 044A     		ldr	r2, .L61+4
ARM GAS  /var/folders/wz/z09yph4n0qj4t7mjxhl6ttn80000gn/T//cc4SdtXb.s 			page 53


 1835 003e 9A60     		str	r2, [r3, #8]
 1836              	.L59:
 1837              	.LBE13:
 1838              	.LBE12:
 613:/Library/DaisyToolchain/0.2.0/arm/arm-none-eabi/include/c++/10.3.1/bits/std_function.h **** 
 1839              		.loc 4 613 7
 1840 0040 7B68     		ldr	r3, [r7, #4]
 1841 0042 1846     		mov	r0, r3
 1842 0044 0C37     		adds	r7, r7, #12
 1843              		.cfi_def_cfa_offset 12
 1844 0046 BD46     		mov	sp, r7
 1845              		.cfi_def_cfa_register 13
 1846              		@ sp needed
 1847 0048 90BD     		pop	{r4, r7, pc}
 1848              	.L62:
 1849 004a 00BF     		.align	2
 1850              	.L61:
 1851 004c 00000000 		.word	_ZNSt17_Function_handlerIFvjEZN5Delay4initEPN5daisy9DaisySeedEPPN7daisysp9DelayLineIfLj24000
 1852 0050 00000000 		.word	_ZNSt17_Function_handlerIFvjEZN5Delay4initEPN5daisy9DaisySeedEPPN7daisysp9DelayLineIfLj24000
 1853              		.cfi_endproc
 1854              	.LFE5977:
 1856              		.thumb_set _ZNSt8functionIFvjEEC1IZN5Delay4initEPN5daisy9DaisySeedEPPN7daisysp9DelayLineIfLj240000
 1857              		.section	.text._ZN14AudioParameterIjE4initEPN5daisy9DaisySeedEjj9CurveTypehSt8functionIFvjEE,"axG"
 1858              		.align	1
 1859              		.weak	_ZN14AudioParameterIjE4initEPN5daisy9DaisySeedEjj9CurveTypehSt8functionIFvjEE
 1860              		.syntax unified
 1861              		.thumb
 1862              		.thumb_func
 1864              	_ZN14AudioParameterIjE4initEPN5daisy9DaisySeedEjj9CurveTypehSt8functionIFvjEE:
 1865              	.LFB5982:
 1866              		.file 9 "DSP/FX/../../Parameters/AudioParameter.h"
   1:DSP/FX/../../Parameters/AudioParameter.h **** #ifndef AUDIOPARAMETER_H
   2:DSP/FX/../../Parameters/AudioParameter.h **** #define AUDIOPARAMETER_H
   3:DSP/FX/../../Parameters/AudioParameter.h **** 
   4:DSP/FX/../../Parameters/AudioParameter.h **** #include "daisy_seed.h"
   5:DSP/FX/../../Parameters/AudioParameter.h **** #include "daisysp.h"
   6:DSP/FX/../../Parameters/AudioParameter.h **** #include "../Utils/Helpers.h"
   7:DSP/FX/../../Parameters/AudioParameter.h **** #include "../Utils/Constants.h"
   8:DSP/FX/../../Parameters/AudioParameter.h **** #include <cstdint>
   9:DSP/FX/../../Parameters/AudioParameter.h **** #include <functional>
  10:DSP/FX/../../Parameters/AudioParameter.h **** #include <memory>
  11:DSP/FX/../../Parameters/AudioParameter.h **** #include <type_traits>
  12:DSP/FX/../../Parameters/AudioParameter.h **** 
  13:DSP/FX/../../Parameters/AudioParameter.h **** /*****************************************************************************//**
  14:DSP/FX/../../Parameters/AudioParameter.h ****  *  Class name: AudioParameter
  15:DSP/FX/../../Parameters/AudioParameter.h ****  *  Function: Parameter object for DSP classes that contains pot boilerplate code
  16:DSP/FX/../../Parameters/AudioParameter.h ****  ********************************************************************************/
  17:DSP/FX/../../Parameters/AudioParameter.h **** 
  18:DSP/FX/../../Parameters/AudioParameter.h **** using namespace daisy;
  19:DSP/FX/../../Parameters/AudioParameter.h **** 
  20:DSP/FX/../../Parameters/AudioParameter.h **** template <class type>
  21:DSP/FX/../../Parameters/AudioParameter.h **** class AudioParameter
  22:DSP/FX/../../Parameters/AudioParameter.h **** {
  23:DSP/FX/../../Parameters/AudioParameter.h **** public:
  24:DSP/FX/../../Parameters/AudioParameter.h **** 
  25:DSP/FX/../../Parameters/AudioParameter.h ****     void init(DaisySeed* seed, type mi, type ma, CurveType c, uint8_t ID, std::function<void(type)>
 1867              		.loc 9 25 10
ARM GAS  /var/folders/wz/z09yph4n0qj4t7mjxhl6ttn80000gn/T//cc4SdtXb.s 			page 54


 1868              		.cfi_startproc
 1869              		@ args = 12, pretend = 0, frame = 16
 1870              		@ frame_needed = 1, uses_anonymous_args = 0
 1871 0000 80B5     		push	{r7, lr}
 1872              		.cfi_def_cfa_offset 8
 1873              		.cfi_offset 7, -8
 1874              		.cfi_offset 14, -4
 1875 0002 84B0     		sub	sp, sp, #16
 1876              		.cfi_def_cfa_offset 24
 1877 0004 00AF     		add	r7, sp, #0
 1878              		.cfi_def_cfa_register 7
 1879 0006 F860     		str	r0, [r7, #12]
 1880 0008 B960     		str	r1, [r7, #8]
 1881 000a 7A60     		str	r2, [r7, #4]
 1882 000c 3B60     		str	r3, [r7]
  26:DSP/FX/../../Parameters/AudioParameter.h ****     {
  27:DSP/FX/../../Parameters/AudioParameter.h ****         hw = seed;
 1883              		.loc 9 27 12
 1884 000e FB68     		ldr	r3, [r7, #12]
 1885 0010 BA68     		ldr	r2, [r7, #8]
 1886 0012 1A60     		str	r2, [r3]
  28:DSP/FX/../../Parameters/AudioParameter.h ****         input = 0;
 1887              		.loc 9 28 15
 1888 0014 FB68     		ldr	r3, [r7, #12]
 1889 0016 4FF00002 		mov	r2, #0
 1890 001a 5A60     		str	r2, [r3, #4]	@ float
  29:DSP/FX/../../Parameters/AudioParameter.h **** 
  30:DSP/FX/../../Parameters/AudioParameter.h ****         curVal = 0;
 1891              		.loc 9 30 16
 1892 001c FB68     		ldr	r3, [r7, #12]
 1893 001e 0022     		movs	r2, #0
 1894 0020 DA60     		str	r2, [r3, #12]
  31:DSP/FX/../../Parameters/AudioParameter.h ****         min = mi;
 1895              		.loc 9 31 13
 1896 0022 FB68     		ldr	r3, [r7, #12]
 1897 0024 7A68     		ldr	r2, [r7, #4]
 1898 0026 1A61     		str	r2, [r3, #16]
  32:DSP/FX/../../Parameters/AudioParameter.h ****         max = ma;
 1899              		.loc 9 32 13
 1900 0028 FB68     		ldr	r3, [r7, #12]
 1901 002a 3A68     		ldr	r2, [r7]
 1902 002c 5A61     		str	r2, [r3, #20]
  33:DSP/FX/../../Parameters/AudioParameter.h **** 
  34:DSP/FX/../../Parameters/AudioParameter.h ****         curve = c;
 1903              		.loc 9 34 15
 1904 002e FB68     		ldr	r3, [r7, #12]
 1905 0030 3A7E     		ldrb	r2, [r7, #24]
 1906 0032 5A76     		strb	r2, [r3, #25]
  35:DSP/FX/../../Parameters/AudioParameter.h ****         channelID = ID;
 1907              		.loc 9 35 19
 1908 0034 FB68     		ldr	r3, [r7, #12]
 1909 0036 3A7F     		ldrb	r2, [r7, #28]
 1910 0038 1A76     		strb	r2, [r3, #24]
  36:DSP/FX/../../Parameters/AudioParameter.h ****         callback = cb;
 1911              		.loc 9 36 18
 1912 003a FB68     		ldr	r3, [r7, #12]
 1913 003c 1C33     		adds	r3, r3, #28
ARM GAS  /var/folders/wz/z09yph4n0qj4t7mjxhl6ttn80000gn/T//cc4SdtXb.s 			page 55


 1914 003e 396A     		ldr	r1, [r7, #32]
 1915 0040 1846     		mov	r0, r3
 1916 0042 FFF7FEFF 		bl	_ZNSt8functionIFvjEEaSERKS1_
  37:DSP/FX/../../Parameters/AudioParameter.h **** 
  38:DSP/FX/../../Parameters/AudioParameter.h ****         if(channelID != ChannelIDs::ENCODER)
 1917              		.loc 9 38 12
 1918 0046 FB68     		ldr	r3, [r7, #12]
 1919 0048 1B7E     		ldrb	r3, [r3, #24]	@ zero_extendqisi2
 1920              		.loc 9 38 9
 1921 004a 052B     		cmp	r3, #5
 1922 004c 02D0     		beq	.L65
  39:DSP/FX/../../Parameters/AudioParameter.h ****             isSelected = true;
 1923              		.loc 9 39 24
 1924 004e FB68     		ldr	r3, [r7, #12]
 1925 0050 0122     		movs	r2, #1
 1926 0052 9A76     		strb	r2, [r3, #26]
 1927              	.L65:
  40:DSP/FX/../../Parameters/AudioParameter.h ****     }
 1928              		.loc 9 40 5
 1929 0054 00BF     		nop
 1930 0056 1037     		adds	r7, r7, #16
 1931              		.cfi_def_cfa_offset 8
 1932 0058 BD46     		mov	sp, r7
 1933              		.cfi_def_cfa_register 13
 1934              		@ sp needed
 1935 005a 80BD     		pop	{r7, pc}
 1936              		.cfi_endproc
 1937              	.LFE5982:
 1939              		.section	.text._ZNSt8functionIFvfEEC2IZN5Delay4initEPN5daisy9DaisySeedEPPN7daisysp9DelayLineIfLj24
 1940              		.align	1
 1941              		.syntax unified
 1942              		.thumb
 1943              		.thumb_func
 1945              	_ZNSt8functionIFvfEEC2IZN5Delay4initEPN5daisy9DaisySeedEPPN7daisysp9DelayLineIfLj240000EEEEUlfE0_vv
 1946              	.LFB5985:
 601:/Library/DaisyToolchain/0.2.0/arm/arm-none-eabi/include/c++/10.3.1/bits/std_function.h ****       function(_Functor __f)
 1947              		.loc 4 601 7
 1948              		.cfi_startproc
 1949              		@ args = 0, pretend = 0, frame = 8
 1950              		@ frame_needed = 1, uses_anonymous_args = 0
 1951 0000 90B5     		push	{r4, r7, lr}
 1952              		.cfi_def_cfa_offset 12
 1953              		.cfi_offset 4, -12
 1954              		.cfi_offset 7, -8
 1955              		.cfi_offset 14, -4
 1956 0002 83B0     		sub	sp, sp, #12
 1957              		.cfi_def_cfa_offset 24
 1958 0004 00AF     		add	r7, sp, #0
 1959              		.cfi_def_cfa_register 7
 1960 0006 7860     		str	r0, [r7, #4]
 1961 0008 3960     		str	r1, [r7]
 1962              	.LBB14:
 603:/Library/DaisyToolchain/0.2.0/arm/arm-none-eabi/include/c++/10.3.1/bits/std_function.h ****       {
 1963              		.loc 4 603 24
 1964 000a 7B68     		ldr	r3, [r7, #4]
 1965 000c 1846     		mov	r0, r3
 1966 000e FFF7FEFF 		bl	_ZNSt14_Function_baseC2Ev
ARM GAS  /var/folders/wz/z09yph4n0qj4t7mjxhl6ttn80000gn/T//cc4SdtXb.s 			page 56


 1967              	.LBB15:
 607:/Library/DaisyToolchain/0.2.0/arm/arm-none-eabi/include/c++/10.3.1/bits/std_function.h **** 	  {
 1968              		.loc 4 607 40
 1969 0012 3B46     		mov	r3, r7
 1970 0014 1846     		mov	r0, r3
 1971 0016 FFF7FEFF 		bl	_ZNSt14_Function_base13_Base_managerIZN5Delay4initEPN5daisy9DaisySeedEPPN7daisysp9DelayLineIfLj
 1972 001a 0346     		mov	r3, r0
 607:/Library/DaisyToolchain/0.2.0/arm/arm-none-eabi/include/c++/10.3.1/bits/std_function.h **** 	  {
 1973              		.loc 4 607 2
 1974 001c 002B     		cmp	r3, #0
 1975 001e 0FD0     		beq	.L67
 609:/Library/DaisyToolchain/0.2.0/arm/arm-none-eabi/include/c++/10.3.1/bits/std_function.h **** 	    _M_invoker = &_My_handler::_M_invoke;
 1976              		.loc 4 609 35
 1977 0020 7C68     		ldr	r4, [r7, #4]
 609:/Library/DaisyToolchain/0.2.0/arm/arm-none-eabi/include/c++/10.3.1/bits/std_function.h **** 	    _M_invoker = &_My_handler::_M_invoke;
 1978              		.loc 4 609 56
 1979 0022 3B46     		mov	r3, r7
 1980 0024 1846     		mov	r0, r3
 1981 0026 FFF7FEFF 		bl	_ZSt4moveIRZN5Delay4initEPN5daisy9DaisySeedEPPN7daisysp9DelayLineIfLj240000EEEEUlfE0_EONSt16rem
 1982 002a 0346     		mov	r3, r0
 609:/Library/DaisyToolchain/0.2.0/arm/arm-none-eabi/include/c++/10.3.1/bits/std_function.h **** 	    _M_invoker = &_My_handler::_M_invoke;
 1983              		.loc 4 609 34
 1984 002c 1946     		mov	r1, r3
 1985 002e 2046     		mov	r0, r4
 1986 0030 FFF7FEFF 		bl	_ZNSt14_Function_base13_Base_managerIZN5Delay4initEPN5daisy9DaisySeedEPPN7daisysp9DelayLineIfLj
 610:/Library/DaisyToolchain/0.2.0/arm/arm-none-eabi/include/c++/10.3.1/bits/std_function.h **** 	    _M_manager = &_My_handler::_M_manager;
 1987              		.loc 4 610 17
 1988 0034 7B68     		ldr	r3, [r7, #4]
 1989 0036 054A     		ldr	r2, .L69
 1990 0038 DA60     		str	r2, [r3, #12]
 611:/Library/DaisyToolchain/0.2.0/arm/arm-none-eabi/include/c++/10.3.1/bits/std_function.h **** 	  }
 1991              		.loc 4 611 17
 1992 003a 7B68     		ldr	r3, [r7, #4]
 1993 003c 044A     		ldr	r2, .L69+4
 1994 003e 9A60     		str	r2, [r3, #8]
 1995              	.L67:
 1996              	.LBE15:
 1997              	.LBE14:
 613:/Library/DaisyToolchain/0.2.0/arm/arm-none-eabi/include/c++/10.3.1/bits/std_function.h **** 
 1998              		.loc 4 613 7
 1999 0040 7B68     		ldr	r3, [r7, #4]
 2000 0042 1846     		mov	r0, r3
 2001 0044 0C37     		adds	r7, r7, #12
 2002              		.cfi_def_cfa_offset 12
 2003 0046 BD46     		mov	sp, r7
 2004              		.cfi_def_cfa_register 13
 2005              		@ sp needed
 2006 0048 90BD     		pop	{r4, r7, pc}
 2007              	.L70:
 2008 004a 00BF     		.align	2
 2009              	.L69:
 2010 004c 00000000 		.word	_ZNSt17_Function_handlerIFvfEZN5Delay4initEPN5daisy9DaisySeedEPPN7daisysp9DelayLineIfLj24000
 2011 0050 00000000 		.word	_ZNSt17_Function_handlerIFvfEZN5Delay4initEPN5daisy9DaisySeedEPPN7daisysp9DelayLineIfLj24000
 2012              		.cfi_endproc
 2013              	.LFE5985:
 2015              		.thumb_set _ZNSt8functionIFvfEEC1IZN5Delay4initEPN5daisy9DaisySeedEPPN7daisysp9DelayLineIfLj240000
 2016              		.section	.text._ZN14AudioParameterIfE4initEPN5daisy9DaisySeedEff9CurveTypehSt8functionIFvfEE,"axG"
ARM GAS  /var/folders/wz/z09yph4n0qj4t7mjxhl6ttn80000gn/T//cc4SdtXb.s 			page 57


 2017              		.align	1
 2018              		.weak	_ZN14AudioParameterIfE4initEPN5daisy9DaisySeedEff9CurveTypehSt8functionIFvfEE
 2019              		.syntax unified
 2020              		.thumb
 2021              		.thumb_func
 2023              	_ZN14AudioParameterIfE4initEPN5daisy9DaisySeedEff9CurveTypehSt8functionIFvfEE:
 2024              	.LFB5990:
  25:DSP/FX/../../Parameters/AudioParameter.h ****     {
 2025              		.loc 9 25 10
 2026              		.cfi_startproc
 2027              		@ args = 4, pretend = 0, frame = 24
 2028              		@ frame_needed = 1, uses_anonymous_args = 0
 2029 0000 80B5     		push	{r7, lr}
 2030              		.cfi_def_cfa_offset 8
 2031              		.cfi_offset 7, -8
 2032              		.cfi_offset 14, -4
 2033 0002 86B0     		sub	sp, sp, #24
 2034              		.cfi_def_cfa_offset 32
 2035 0004 00AF     		add	r7, sp, #0
 2036              		.cfi_def_cfa_register 7
 2037 0006 7861     		str	r0, [r7, #20]
 2038 0008 3961     		str	r1, [r7, #16]
 2039 000a 87ED030A 		vstr.32	s0, [r7, #12]
 2040 000e C7ED020A 		vstr.32	s1, [r7, #8]
 2041 0012 1146     		mov	r1, r2
 2042 0014 1A46     		mov	r2, r3
 2043 0016 0B46     		mov	r3, r1
 2044 0018 FB71     		strb	r3, [r7, #7]
 2045 001a 1346     		mov	r3, r2
 2046 001c BB71     		strb	r3, [r7, #6]
  27:DSP/FX/../../Parameters/AudioParameter.h ****         input = 0;
 2047              		.loc 9 27 12
 2048 001e 7B69     		ldr	r3, [r7, #20]
 2049 0020 3A69     		ldr	r2, [r7, #16]
 2050 0022 1A60     		str	r2, [r3]
  28:DSP/FX/../../Parameters/AudioParameter.h **** 
 2051              		.loc 9 28 15
 2052 0024 7B69     		ldr	r3, [r7, #20]
 2053 0026 4FF00002 		mov	r2, #0
 2054 002a 5A60     		str	r2, [r3, #4]	@ float
  30:DSP/FX/../../Parameters/AudioParameter.h ****         min = mi;
 2055              		.loc 9 30 16
 2056 002c 7B69     		ldr	r3, [r7, #20]
 2057 002e 4FF00002 		mov	r2, #0
 2058 0032 DA60     		str	r2, [r3, #12]	@ float
  31:DSP/FX/../../Parameters/AudioParameter.h ****         max = ma;
 2059              		.loc 9 31 13
 2060 0034 7B69     		ldr	r3, [r7, #20]
 2061 0036 FA68     		ldr	r2, [r7, #12]	@ float
 2062 0038 1A61     		str	r2, [r3, #16]	@ float
  32:DSP/FX/../../Parameters/AudioParameter.h **** 
 2063              		.loc 9 32 13
 2064 003a 7B69     		ldr	r3, [r7, #20]
 2065 003c BA68     		ldr	r2, [r7, #8]	@ float
 2066 003e 5A61     		str	r2, [r3, #20]	@ float
  34:DSP/FX/../../Parameters/AudioParameter.h ****         channelID = ID;
 2067              		.loc 9 34 15
ARM GAS  /var/folders/wz/z09yph4n0qj4t7mjxhl6ttn80000gn/T//cc4SdtXb.s 			page 58


 2068 0040 7B69     		ldr	r3, [r7, #20]
 2069 0042 FA79     		ldrb	r2, [r7, #7]
 2070 0044 5A76     		strb	r2, [r3, #25]
  35:DSP/FX/../../Parameters/AudioParameter.h ****         callback = cb;
 2071              		.loc 9 35 19
 2072 0046 7B69     		ldr	r3, [r7, #20]
 2073 0048 BA79     		ldrb	r2, [r7, #6]
 2074 004a 1A76     		strb	r2, [r3, #24]
  36:DSP/FX/../../Parameters/AudioParameter.h **** 
 2075              		.loc 9 36 18
 2076 004c 7B69     		ldr	r3, [r7, #20]
 2077 004e 1C33     		adds	r3, r3, #28
 2078 0050 396A     		ldr	r1, [r7, #32]
 2079 0052 1846     		mov	r0, r3
 2080 0054 FFF7FEFF 		bl	_ZNSt8functionIFvfEEaSERKS1_
  38:DSP/FX/../../Parameters/AudioParameter.h ****             isSelected = true;
 2081              		.loc 9 38 12
 2082 0058 7B69     		ldr	r3, [r7, #20]
 2083 005a 1B7E     		ldrb	r3, [r3, #24]	@ zero_extendqisi2
  38:DSP/FX/../../Parameters/AudioParameter.h ****             isSelected = true;
 2084              		.loc 9 38 9
 2085 005c 052B     		cmp	r3, #5
 2086 005e 02D0     		beq	.L73
  39:DSP/FX/../../Parameters/AudioParameter.h ****     }
 2087              		.loc 9 39 24
 2088 0060 7B69     		ldr	r3, [r7, #20]
 2089 0062 0122     		movs	r2, #1
 2090 0064 9A76     		strb	r2, [r3, #26]
 2091              	.L73:
 2092              		.loc 9 40 5
 2093 0066 00BF     		nop
 2094 0068 1837     		adds	r7, r7, #24
 2095              		.cfi_def_cfa_offset 8
 2096 006a BD46     		mov	sp, r7
 2097              		.cfi_def_cfa_register 13
 2098              		@ sp needed
 2099 006c 80BD     		pop	{r7, pc}
 2100              		.cfi_endproc
 2101              	.LFE5990:
 2103              		.section	.text._ZNSt8functionIFvfEEC2IZN5Delay4initEPN5daisy9DaisySeedEPPN7daisysp9DelayLineIfLj24
 2104              		.align	1
 2105              		.syntax unified
 2106              		.thumb
 2107              		.thumb_func
 2109              	_ZNSt8functionIFvfEEC2IZN5Delay4initEPN5daisy9DaisySeedEPPN7daisysp9DelayLineIfLj240000EEEEUlfE1_vv
 2110              	.LFB5993:
 601:/Library/DaisyToolchain/0.2.0/arm/arm-none-eabi/include/c++/10.3.1/bits/std_function.h ****       function(_Functor __f)
 2111              		.loc 4 601 7
 2112              		.cfi_startproc
 2113              		@ args = 0, pretend = 0, frame = 8
 2114              		@ frame_needed = 1, uses_anonymous_args = 0
 2115 0000 90B5     		push	{r4, r7, lr}
 2116              		.cfi_def_cfa_offset 12
 2117              		.cfi_offset 4, -12
 2118              		.cfi_offset 7, -8
 2119              		.cfi_offset 14, -4
 2120 0002 83B0     		sub	sp, sp, #12
ARM GAS  /var/folders/wz/z09yph4n0qj4t7mjxhl6ttn80000gn/T//cc4SdtXb.s 			page 59


 2121              		.cfi_def_cfa_offset 24
 2122 0004 00AF     		add	r7, sp, #0
 2123              		.cfi_def_cfa_register 7
 2124 0006 7860     		str	r0, [r7, #4]
 2125 0008 3960     		str	r1, [r7]
 2126              	.LBB16:
 603:/Library/DaisyToolchain/0.2.0/arm/arm-none-eabi/include/c++/10.3.1/bits/std_function.h ****       {
 2127              		.loc 4 603 24
 2128 000a 7B68     		ldr	r3, [r7, #4]
 2129 000c 1846     		mov	r0, r3
 2130 000e FFF7FEFF 		bl	_ZNSt14_Function_baseC2Ev
 2131              	.LBB17:
 607:/Library/DaisyToolchain/0.2.0/arm/arm-none-eabi/include/c++/10.3.1/bits/std_function.h **** 	  {
 2132              		.loc 4 607 40
 2133 0012 3B46     		mov	r3, r7
 2134 0014 1846     		mov	r0, r3
 2135 0016 FFF7FEFF 		bl	_ZNSt14_Function_base13_Base_managerIZN5Delay4initEPN5daisy9DaisySeedEPPN7daisysp9DelayLineIfLj
 2136 001a 0346     		mov	r3, r0
 607:/Library/DaisyToolchain/0.2.0/arm/arm-none-eabi/include/c++/10.3.1/bits/std_function.h **** 	  {
 2137              		.loc 4 607 2
 2138 001c 002B     		cmp	r3, #0
 2139 001e 0FD0     		beq	.L75
 609:/Library/DaisyToolchain/0.2.0/arm/arm-none-eabi/include/c++/10.3.1/bits/std_function.h **** 	    _M_invoker = &_My_handler::_M_invoke;
 2140              		.loc 4 609 35
 2141 0020 7C68     		ldr	r4, [r7, #4]
 609:/Library/DaisyToolchain/0.2.0/arm/arm-none-eabi/include/c++/10.3.1/bits/std_function.h **** 	    _M_invoker = &_My_handler::_M_invoke;
 2142              		.loc 4 609 56
 2143 0022 3B46     		mov	r3, r7
 2144 0024 1846     		mov	r0, r3
 2145 0026 FFF7FEFF 		bl	_ZSt4moveIRZN5Delay4initEPN5daisy9DaisySeedEPPN7daisysp9DelayLineIfLj240000EEEEUlfE1_EONSt16rem
 2146 002a 0346     		mov	r3, r0
 609:/Library/DaisyToolchain/0.2.0/arm/arm-none-eabi/include/c++/10.3.1/bits/std_function.h **** 	    _M_invoker = &_My_handler::_M_invoke;
 2147              		.loc 4 609 34
 2148 002c 1946     		mov	r1, r3
 2149 002e 2046     		mov	r0, r4
 2150 0030 FFF7FEFF 		bl	_ZNSt14_Function_base13_Base_managerIZN5Delay4initEPN5daisy9DaisySeedEPPN7daisysp9DelayLineIfLj
 610:/Library/DaisyToolchain/0.2.0/arm/arm-none-eabi/include/c++/10.3.1/bits/std_function.h **** 	    _M_manager = &_My_handler::_M_manager;
 2151              		.loc 4 610 17
 2152 0034 7B68     		ldr	r3, [r7, #4]
 2153 0036 054A     		ldr	r2, .L77
 2154 0038 DA60     		str	r2, [r3, #12]
 611:/Library/DaisyToolchain/0.2.0/arm/arm-none-eabi/include/c++/10.3.1/bits/std_function.h **** 	  }
 2155              		.loc 4 611 17
 2156 003a 7B68     		ldr	r3, [r7, #4]
 2157 003c 044A     		ldr	r2, .L77+4
 2158 003e 9A60     		str	r2, [r3, #8]
 2159              	.L75:
 2160              	.LBE17:
 2161              	.LBE16:
 613:/Library/DaisyToolchain/0.2.0/arm/arm-none-eabi/include/c++/10.3.1/bits/std_function.h **** 
 2162              		.loc 4 613 7
 2163 0040 7B68     		ldr	r3, [r7, #4]
 2164 0042 1846     		mov	r0, r3
 2165 0044 0C37     		adds	r7, r7, #12
 2166              		.cfi_def_cfa_offset 12
 2167 0046 BD46     		mov	sp, r7
 2168              		.cfi_def_cfa_register 13
ARM GAS  /var/folders/wz/z09yph4n0qj4t7mjxhl6ttn80000gn/T//cc4SdtXb.s 			page 60


 2169              		@ sp needed
 2170 0048 90BD     		pop	{r4, r7, pc}
 2171              	.L78:
 2172 004a 00BF     		.align	2
 2173              	.L77:
 2174 004c 00000000 		.word	_ZNSt17_Function_handlerIFvfEZN5Delay4initEPN5daisy9DaisySeedEPPN7daisysp9DelayLineIfLj24000
 2175 0050 00000000 		.word	_ZNSt17_Function_handlerIFvfEZN5Delay4initEPN5daisy9DaisySeedEPPN7daisysp9DelayLineIfLj24000
 2176              		.cfi_endproc
 2177              	.LFE5993:
 2179              		.thumb_set _ZNSt8functionIFvfEEC1IZN5Delay4initEPN5daisy9DaisySeedEPPN7daisysp9DelayLineIfLj240000
 2180              		.section	.text._ZN14AudioParameterIjE4tickEv,"axG",%progbits,_ZN14AudioParameterIjE4tickEv,comdat
 2181              		.align	1
 2182              		.weak	_ZN14AudioParameterIjE4tickEv
 2183              		.syntax unified
 2184              		.thumb
 2185              		.thumb_func
 2187              	_ZN14AudioParameterIjE4tickEv:
 2188              	.LFB5995:
  41:DSP/FX/../../Parameters/AudioParameter.h ****     
  42:DSP/FX/../../Parameters/AudioParameter.h ****     inline void tick() 
 2189              		.loc 9 42 17
 2190              		.cfi_startproc
 2191              		@ args = 0, pretend = 0, frame = 16
 2192              		@ frame_needed = 1, uses_anonymous_args = 0
 2193 0000 80B5     		push	{r7, lr}
 2194              		.cfi_def_cfa_offset 8
 2195              		.cfi_offset 7, -8
 2196              		.cfi_offset 14, -4
 2197 0002 84B0     		sub	sp, sp, #16
 2198              		.cfi_def_cfa_offset 24
 2199 0004 00AF     		add	r7, sp, #0
 2200              		.cfi_def_cfa_register 7
 2201 0006 7860     		str	r0, [r7, #4]
  43:DSP/FX/../../Parameters/AudioParameter.h ****     {
  44:DSP/FX/../../Parameters/AudioParameter.h ****         if(!isSelected)
 2202              		.loc 9 44 13
 2203 0008 7B68     		ldr	r3, [r7, #4]
 2204 000a 9B7E     		ldrb	r3, [r3, #26]	@ zero_extendqisi2
 2205 000c 83F00103 		eor	r3, r3, #1
 2206 0010 DBB2     		uxtb	r3, r3
 2207              		.loc 9 44 9
 2208 0012 002B     		cmp	r3, #0
 2209 0014 39D1     		bne	.L84
  45:DSP/FX/../../Parameters/AudioParameter.h ****             return;
  46:DSP/FX/../../Parameters/AudioParameter.h **** 
  47:DSP/FX/../../Parameters/AudioParameter.h ****         float newInput = hw->adc.GetFloat(channelID);
 2210              		.loc 9 47 26
 2211 0016 7B68     		ldr	r3, [r7, #4]
 2212 0018 1B68     		ldr	r3, [r3]
 2213              		.loc 9 47 42
 2214 001a 03F11802 		add	r2, r3, #24
 2215 001e 7B68     		ldr	r3, [r7, #4]
 2216 0020 1B7E     		ldrb	r3, [r3, #24]	@ zero_extendqisi2
 2217 0022 1946     		mov	r1, r3
 2218 0024 1046     		mov	r0, r2
 2219 0026 FFF7FEFF 		bl	_ZNK5daisy9AdcHandle8GetFloatEh
 2220 002a 87ED030A 		vstr.32	s0, [r7, #12]
ARM GAS  /var/folders/wz/z09yph4n0qj4t7mjxhl6ttn80000gn/T//cc4SdtXb.s 			page 61


  48:DSP/FX/../../Parameters/AudioParameter.h ****         if(newInput > (input + jitter) || newInput < (input - jitter))
 2221              		.loc 9 48 24
 2222 002e 7B68     		ldr	r3, [r7, #4]
 2223 0030 93ED017A 		vldr.32	s14, [r3, #4]
 2224              		.loc 9 48 32
 2225 0034 7B68     		ldr	r3, [r7, #4]
 2226 0036 D3ED027A 		vldr.32	s15, [r3, #8]
 2227              		.loc 9 48 30
 2228 003a 77EE277A 		vadd.f32	s15, s14, s15
 2229              		.loc 9 48 9
 2230 003e 97ED037A 		vldr.32	s14, [r7, #12]
 2231 0042 B4EEE77A 		vcmpe.f32	s14, s15
 2232 0046 F1EE10FA 		vmrs	APSR_nzcv, FPSCR
 2233 004a 0EDC     		bgt	.L82
 2234              		.loc 9 48 55 discriminator 1
 2235 004c 7B68     		ldr	r3, [r7, #4]
