ARM GAS  /var/folders/wz/z09yph4n0qj4t7mjxhl6ttn80000gn/T//ccBtkQIl.s 			page 1


   1              		.cpu cortex-m7
   2              		.arch armv7e-m
   3              		.fpu fpv5-d16
   4              		.eabi_attribute 28, 1
   5              		.eabi_attribute 20, 1
   6              		.eabi_attribute 21, 1
   7              		.eabi_attribute 23, 3
   8              		.eabi_attribute 24, 1
   9              		.eabi_attribute 25, 1
  10              		.eabi_attribute 26, 1
  11              		.eabi_attribute 30, 2
  12              		.eabi_attribute 34, 1
  13              		.eabi_attribute 18, 4
  14              		.file	"LoopyTunes.cpp"
  15              		.text
  16              	.Ltext0:
  17              		.cfi_sections	.debug_frame
  18              		.section	.text._ZN5daisy6SwitchD2Ev,"axG",%progbits,_ZN5daisy6SwitchD5Ev,comdat
  19              		.align	1
  20              		.p2align 2,,3
  21              		.weak	_ZN5daisy6SwitchD2Ev
  22              		.syntax unified
  23              		.thumb
  24              		.thumb_func
  26              	_ZN5daisy6SwitchD2Ev:
  27              	.LVL0:
  28              	.LFB3867:
  29              		.file 1 "../../../libDaisy//src/hid/switch.h"
   1:../../../libDaisy//src/hid/switch.h **** #pragma once
   2:../../../libDaisy//src/hid/switch.h **** #ifndef DSY_SWITCH_H
   3:../../../libDaisy//src/hid/switch.h **** #define DSY_SWITCH_H
   4:../../../libDaisy//src/hid/switch.h **** #include "daisy_core.h"
   5:../../../libDaisy//src/hid/switch.h **** #include "per/gpio.h"
   6:../../../libDaisy//src/hid/switch.h **** #include "sys/system.h"
   7:../../../libDaisy//src/hid/switch.h **** 
   8:../../../libDaisy//src/hid/switch.h **** namespace daisy
   9:../../../libDaisy//src/hid/switch.h **** {
  10:../../../libDaisy//src/hid/switch.h **** /** 
  11:../../../libDaisy//src/hid/switch.h ****     Generic Class for handling momentary/latching switches \n 
  12:../../../libDaisy//src/hid/switch.h ****     Inspired/influenced by Mutable Instruments (pichenettes) Switch classes
  13:../../../libDaisy//src/hid/switch.h ****     @author Stephen Hensley
  14:../../../libDaisy//src/hid/switch.h ****     @date December 2019
  15:../../../libDaisy//src/hid/switch.h ****     @ingroup controls
  16:../../../libDaisy//src/hid/switch.h **** */
  17:../../../libDaisy//src/hid/switch.h **** class Switch
  18:../../../libDaisy//src/hid/switch.h **** {
  19:../../../libDaisy//src/hid/switch.h ****   public:
  20:../../../libDaisy//src/hid/switch.h ****     /** Specifies the expected behavior of the switch */
  21:../../../libDaisy//src/hid/switch.h ****     enum Type
  22:../../../libDaisy//src/hid/switch.h ****     {
  23:../../../libDaisy//src/hid/switch.h ****         TYPE_TOGGLE,    /**< & */
  24:../../../libDaisy//src/hid/switch.h ****         TYPE_MOMENTARY, /**< & */
  25:../../../libDaisy//src/hid/switch.h ****     };
  26:../../../libDaisy//src/hid/switch.h ****     /** Specifies whether the pressed is HIGH or LOW. */
  27:../../../libDaisy//src/hid/switch.h ****     enum Polarity
  28:../../../libDaisy//src/hid/switch.h ****     {
  29:../../../libDaisy//src/hid/switch.h ****         POLARITY_NORMAL,   /**< & */
ARM GAS  /var/folders/wz/z09yph4n0qj4t7mjxhl6ttn80000gn/T//ccBtkQIl.s 			page 2


  30:../../../libDaisy//src/hid/switch.h ****         POLARITY_INVERTED, /**< & */
  31:../../../libDaisy//src/hid/switch.h ****     };
  32:../../../libDaisy//src/hid/switch.h **** 
  33:../../../libDaisy//src/hid/switch.h ****     /** Specifies whether to use built-in Pull Up/Down resistors to hold button at a given state wh
  34:../../../libDaisy//src/hid/switch.h ****     enum Pull
  35:../../../libDaisy//src/hid/switch.h ****     {
  36:../../../libDaisy//src/hid/switch.h ****         PULL_UP,   /**< & */
  37:../../../libDaisy//src/hid/switch.h ****         PULL_DOWN, /**< & */
  38:../../../libDaisy//src/hid/switch.h ****         PULL_NONE, /**< & */
  39:../../../libDaisy//src/hid/switch.h ****     };
  40:../../../libDaisy//src/hid/switch.h **** 
  41:../../../libDaisy//src/hid/switch.h ****     Switch() {}
  42:../../../libDaisy//src/hid/switch.h ****     ~Switch() {}
  30              		.loc 1 42 5 view -0
  31              		.cfi_startproc
  32              		@ args = 0, pretend = 0, frame = 0
  33              		@ frame_needed = 0, uses_anonymous_args = 0
  34              		@ link register save eliminated.
  35              		.loc 1 42 16 is_stmt 0 view .LVU1
  36 0000 7047     		bx	lr
  37              		.cfi_endproc
  38              	.LFE3867:
  40              		.weak	_ZN5daisy6SwitchD1Ev
  41              		.thumb_set _ZN5daisy6SwitchD1Ev,_ZN5daisy6SwitchD2Ev
  42 0002 00BF     		.section	.text._ZN5daisy9DaisySeedD2Ev,"axG",%progbits,_ZN5daisy9DaisySeedD5Ev,comdat
  43              		.align	1
  44              		.p2align 2,,3
  45              		.weak	_ZN5daisy9DaisySeedD2Ev
  46              		.syntax unified
  47              		.thumb
  48              		.thumb_func
  50              	_ZN5daisy9DaisySeedD2Ev:
  51              	.LVL1:
  52              	.LFB4784:
  53              		.file 2 "../../../libDaisy//src/daisy_seed.h"
   1:../../../libDaisy//src/daisy_seed.h **** #pragma once
   2:../../../libDaisy//src/daisy_seed.h **** #ifndef DSY_SEED_H
   3:../../../libDaisy//src/daisy_seed.h **** #define DSY_SEED_H
   4:../../../libDaisy//src/daisy_seed.h **** 
   5:../../../libDaisy//src/daisy_seed.h **** #include "daisy.h"
   6:../../../libDaisy//src/daisy_seed.h **** 
   7:../../../libDaisy//src/daisy_seed.h **** //Uncomment this out if you're still using the rev2 hardware
   8:../../../libDaisy//src/daisy_seed.h **** //#define SEED_REV2
   9:../../../libDaisy//src/daisy_seed.h **** 
  10:../../../libDaisy//src/daisy_seed.h **** namespace daisy
  11:../../../libDaisy//src/daisy_seed.h **** {
  12:../../../libDaisy//src/daisy_seed.h **** /**
  13:../../../libDaisy//src/daisy_seed.h ****    @brief This is the higher-level interface for the Daisy board. \n 
  14:../../../libDaisy//src/daisy_seed.h ****     All basic peripheral configuration/initialization is setup here. \n
  15:../../../libDaisy//src/daisy_seed.h **** 
  16:../../../libDaisy//src/daisy_seed.h ****    @ingroup boards
  17:../../../libDaisy//src/daisy_seed.h **** */
  18:../../../libDaisy//src/daisy_seed.h **** class DaisySeed
  19:../../../libDaisy//src/daisy_seed.h **** {
  20:../../../libDaisy//src/daisy_seed.h ****   public:
  21:../../../libDaisy//src/daisy_seed.h ****     DaisySeed() {}
  22:../../../libDaisy//src/daisy_seed.h ****     ~DaisySeed() {}
ARM GAS  /var/folders/wz/z09yph4n0qj4t7mjxhl6ttn80000gn/T//ccBtkQIl.s 			page 3


  54              		.loc 2 22 5 is_stmt 1 view -0
  55              		.cfi_startproc
  56              		@ args = 0, pretend = 0, frame = 0
  57              		@ frame_needed = 0, uses_anonymous_args = 0
  58              		@ link register save eliminated.
  59              	.LBB144:
  60              	.LBI144:
  61              		.file 3 "../../../libDaisy//src/sys/system.h"
   1:../../../libDaisy//src/sys/system.h **** #ifndef DSY_SYSTEM_H
   2:../../../libDaisy//src/sys/system.h **** #define DSY_SYSTEM_H
   3:../../../libDaisy//src/sys/system.h **** 
   4:../../../libDaisy//src/sys/system.h **** #ifndef UNIT_TEST // for unit tests, a dummy implementation is provided below
   5:../../../libDaisy//src/sys/system.h **** 
   6:../../../libDaisy//src/sys/system.h **** #include <cstdint>
   7:../../../libDaisy//src/sys/system.h **** #include "per/tim.h"
   8:../../../libDaisy//src/sys/system.h **** 
   9:../../../libDaisy//src/sys/system.h **** namespace daisy
  10:../../../libDaisy//src/sys/system.h **** {
  11:../../../libDaisy//src/sys/system.h **** /** A handle for interacting with the Core System. 
  12:../../../libDaisy//src/sys/system.h ****  ** This includes the Clock tree, MPU, global DMA initialization,
  13:../../../libDaisy//src/sys/system.h ****  ** cache handling, and any other necessary global initiailzation
  14:../../../libDaisy//src/sys/system.h ****  **
  15:../../../libDaisy//src/sys/system.h ****  ** @author shensley
  16:../../../libDaisy//src/sys/system.h ****  ** @ingroup system
  17:../../../libDaisy//src/sys/system.h ****  */
  18:../../../libDaisy//src/sys/system.h **** class System
  19:../../../libDaisy//src/sys/system.h **** {
  20:../../../libDaisy//src/sys/system.h ****   public:
  21:../../../libDaisy//src/sys/system.h ****     /** Contains settings for initializing the System */
  22:../../../libDaisy//src/sys/system.h ****     struct Config
  23:../../../libDaisy//src/sys/system.h ****     {
  24:../../../libDaisy//src/sys/system.h ****         /** Specifies the system clock frequency that feeds APB/AHB clocks, etc. */
  25:../../../libDaisy//src/sys/system.h ****         enum class SysClkFreq
  26:../../../libDaisy//src/sys/system.h ****         {
  27:../../../libDaisy//src/sys/system.h ****             FREQ_400MHZ,
  28:../../../libDaisy//src/sys/system.h ****             FREQ_480MHZ,
  29:../../../libDaisy//src/sys/system.h ****         };
  30:../../../libDaisy//src/sys/system.h **** 
  31:../../../libDaisy//src/sys/system.h ****         /** Method to call on the struct to set to defaults
  32:../../../libDaisy//src/sys/system.h ****          ** CPU Freq set to 400MHz
  33:../../../libDaisy//src/sys/system.h ****          ** Cache Enabled 
  34:../../../libDaisy//src/sys/system.h ****          ** */
  35:../../../libDaisy//src/sys/system.h ****         void Defaults()
  36:../../../libDaisy//src/sys/system.h ****         {
  37:../../../libDaisy//src/sys/system.h ****             cpu_freq    = SysClkFreq::FREQ_400MHZ;
  38:../../../libDaisy//src/sys/system.h ****             use_dcache  = true;
  39:../../../libDaisy//src/sys/system.h ****             use_icache  = true;
  40:../../../libDaisy//src/sys/system.h ****             skip_clocks = false;
  41:../../../libDaisy//src/sys/system.h ****         }
  42:../../../libDaisy//src/sys/system.h **** 
  43:../../../libDaisy//src/sys/system.h ****         /** Method to call on the struct to set to boost mode:
  44:../../../libDaisy//src/sys/system.h ****          ** CPU Freq set to 480MHz
  45:../../../libDaisy//src/sys/system.h ****          ** Cache Enabled 
  46:../../../libDaisy//src/sys/system.h ****          ** */
  47:../../../libDaisy//src/sys/system.h ****         void Boost()
  48:../../../libDaisy//src/sys/system.h ****         {
  49:../../../libDaisy//src/sys/system.h ****             cpu_freq    = SysClkFreq::FREQ_480MHZ;
ARM GAS  /var/folders/wz/z09yph4n0qj4t7mjxhl6ttn80000gn/T//ccBtkQIl.s 			page 4


  50:../../../libDaisy//src/sys/system.h ****             use_dcache  = true;
  51:../../../libDaisy//src/sys/system.h ****             use_icache  = true;
  52:../../../libDaisy//src/sys/system.h ****             skip_clocks = false;
  53:../../../libDaisy//src/sys/system.h ****         }
  54:../../../libDaisy//src/sys/system.h **** 
  55:../../../libDaisy//src/sys/system.h ****         SysClkFreq cpu_freq;
  56:../../../libDaisy//src/sys/system.h ****         bool       use_dcache;
  57:../../../libDaisy//src/sys/system.h ****         bool       use_icache;
  58:../../../libDaisy//src/sys/system.h ****         bool       skip_clocks;
  59:../../../libDaisy//src/sys/system.h ****     };
  60:../../../libDaisy//src/sys/system.h **** 
  61:../../../libDaisy//src/sys/system.h ****     /** Describes the different regions of memory available to the Daisy
  62:../../../libDaisy//src/sys/system.h ****      * 
  63:../../../libDaisy//src/sys/system.h ****      */
  64:../../../libDaisy//src/sys/system.h ****     enum MemoryRegion
  65:../../../libDaisy//src/sys/system.h ****     {
  66:../../../libDaisy//src/sys/system.h ****         INTERNAL_FLASH = 0,
  67:../../../libDaisy//src/sys/system.h ****         ITCMRAM,
  68:../../../libDaisy//src/sys/system.h ****         DTCMRAM,
  69:../../../libDaisy//src/sys/system.h ****         SRAM_D1,
  70:../../../libDaisy//src/sys/system.h ****         SRAM_D2,
  71:../../../libDaisy//src/sys/system.h ****         SRAM_D3,
  72:../../../libDaisy//src/sys/system.h ****         SDRAM,
  73:../../../libDaisy//src/sys/system.h ****         QSPI,
  74:../../../libDaisy//src/sys/system.h ****         INVALID_ADDRESS,
  75:../../../libDaisy//src/sys/system.h ****     };
  76:../../../libDaisy//src/sys/system.h **** 
  77:../../../libDaisy//src/sys/system.h ****     System() {}
  78:../../../libDaisy//src/sys/system.h ****     ~System() {}
  62              		.loc 3 78 5 view .LVU3
  63              		.loc 3 78 5 is_stmt 0 view .LVU4
  64              	.LBE144:
  65              	.LBB145:
  66              	.LBI145:
  67              		.file 4 "../../../libDaisy//src/hid/usb.h"
   1:../../../libDaisy//src/hid/usb.h **** #pragma once
   2:../../../libDaisy//src/hid/usb.h **** #ifndef DSY_HID_USB_H
   3:../../../libDaisy//src/hid/usb.h **** #define DSY_HID_USB_H
   4:../../../libDaisy//src/hid/usb.h **** #include <stdint.h>
   5:../../../libDaisy//src/hid/usb.h **** #include <stdlib.h>
   6:../../../libDaisy//src/hid/usb.h **** 
   7:../../../libDaisy//src/hid/usb.h **** namespace daisy
   8:../../../libDaisy//src/hid/usb.h **** /** @addtogroup human_interface
   9:../../../libDaisy//src/hid/usb.h ****     @{
  10:../../../libDaisy//src/hid/usb.h **** */
  11:../../../libDaisy//src/hid/usb.h **** 
  12:../../../libDaisy//src/hid/usb.h **** {
  13:../../../libDaisy//src/hid/usb.h **** /** 
  14:../../../libDaisy//src/hid/usb.h ****     @brief Interface for initializing and using the USB Peripherals on the daisy
  15:../../../libDaisy//src/hid/usb.h ****     @author Stephen Hensley
  16:../../../libDaisy//src/hid/usb.h ****     @date December 2019
  17:../../../libDaisy//src/hid/usb.h **** */
  18:../../../libDaisy//src/hid/usb.h **** class UsbHandle
  19:../../../libDaisy//src/hid/usb.h **** {
  20:../../../libDaisy//src/hid/usb.h ****   public:
  21:../../../libDaisy//src/hid/usb.h ****     /** Return values for USBHandle Functions */
  22:../../../libDaisy//src/hid/usb.h ****     enum class Result
ARM GAS  /var/folders/wz/z09yph4n0qj4t7mjxhl6ttn80000gn/T//ccBtkQIl.s 			page 5


  23:../../../libDaisy//src/hid/usb.h ****     {
  24:../../../libDaisy//src/hid/usb.h ****         OK,
  25:../../../libDaisy//src/hid/usb.h ****         ERR,
  26:../../../libDaisy//src/hid/usb.h ****     };
  27:../../../libDaisy//src/hid/usb.h **** 
  28:../../../libDaisy//src/hid/usb.h ****     /** Specified which of the two USB Peripherals to initialize. */
  29:../../../libDaisy//src/hid/usb.h ****     enum UsbPeriph
  30:../../../libDaisy//src/hid/usb.h ****     {
  31:../../../libDaisy//src/hid/usb.h ****         FS_INTERNAL, /**< Internal pin */
  32:../../../libDaisy//src/hid/usb.h ****         FS_EXTERNAL, /**< FS External D+ pin is Pin 38 (GPIO32). FS External D- pin is Pin 37 (GPIO
  33:../../../libDaisy//src/hid/usb.h ****         FS_BOTH,     /**< Both */
  34:../../../libDaisy//src/hid/usb.h ****     };
  35:../../../libDaisy//src/hid/usb.h **** 
  36:../../../libDaisy//src/hid/usb.h **** 
  37:../../../libDaisy//src/hid/usb.h ****     /** Function called upon reception of a buffer */
  38:../../../libDaisy//src/hid/usb.h ****     typedef void (*ReceiveCallback)(uint8_t* buff, uint32_t* len);
  39:../../../libDaisy//src/hid/usb.h **** 
  40:../../../libDaisy//src/hid/usb.h ****     UsbHandle() {}
  41:../../../libDaisy//src/hid/usb.h **** 
  42:../../../libDaisy//src/hid/usb.h ****     ~UsbHandle() {}
  68              		.loc 4 42 5 is_stmt 1 view .LVU5
  69              		.loc 4 42 5 is_stmt 0 view .LVU6
  70              	.LBE145:
  71              	.LBB146:
  72              	.LBI146:
  73              		.file 5 "../../../libDaisy//src/per/adc.h"
   1:../../../libDaisy//src/per/adc.h **** #pragma once
   2:../../../libDaisy//src/per/adc.h **** #ifndef DSY_ADC_H
   3:../../../libDaisy//src/per/adc.h **** #define DSY_ADC_H /**< Macro */
   4:../../../libDaisy//src/per/adc.h **** #include <stdint.h>
   5:../../../libDaisy//src/per/adc.h **** #include <stdlib.h>
   6:../../../libDaisy//src/per/adc.h **** #include "daisy_core.h"
   7:../../../libDaisy//src/per/adc.h **** #include "per/gpio.h"
   8:../../../libDaisy//src/per/adc.h **** 
   9:../../../libDaisy//src/per/adc.h **** #define DSY_ADC_MAX_CHANNELS 16 /**< Maximum number of ADC channels */
  10:../../../libDaisy//src/per/adc.h **** 
  11:../../../libDaisy//src/per/adc.h **** namespace daisy
  12:../../../libDaisy//src/per/adc.h **** {
  13:../../../libDaisy//src/per/adc.h **** /** @addtogroup per_analog
  14:../../../libDaisy//src/per/adc.h ****     @{
  15:../../../libDaisy//src/per/adc.h **** */
  16:../../../libDaisy//src/per/adc.h **** 
  17:../../../libDaisy//src/per/adc.h **** /* While there may not be many configuration options here,
  18:../../../libDaisy//src/per/adc.h **** using a struct like this allows us to add more configuration
  19:../../../libDaisy//src/per/adc.h **** later without breaking existing functionality.
  20:../../../libDaisy//src/per/adc.h **** */
  21:../../../libDaisy//src/per/adc.h **** 
  22:../../../libDaisy//src/per/adc.h **** /** @brief   Configuration Structure for an ADC Channel 
  23:../../../libDaisy//src/per/adc.h ****  *  @details This can be used to configure a a single input, 
  24:../../../libDaisy//src/per/adc.h ****  *           or a multiplexed input, allowing up to 8 inputs on 
  25:../../../libDaisy//src/per/adc.h ****  *           one channel.
  26:../../../libDaisy//src/per/adc.h ****  *  @note    Sharing data lines to multiple muxes _is_ possible, but
  27:../../../libDaisy//src/per/adc.h ****  *           each channel sharing data lines must be set to the maximum
  28:../../../libDaisy//src/per/adc.h ****  *           number of channels, even if some multiplexers have fewer
  29:../../../libDaisy//src/per/adc.h ****  *           inputs connected.
  30:../../../libDaisy//src/per/adc.h **** */
  31:../../../libDaisy//src/per/adc.h **** struct AdcChannelConfig
ARM GAS  /var/folders/wz/z09yph4n0qj4t7mjxhl6ttn80000gn/T//ccBtkQIl.s 			page 6


  32:../../../libDaisy//src/per/adc.h **** {
  33:../../../libDaisy//src/per/adc.h ****     /** Which pin to use for multiplexing */
  34:../../../libDaisy//src/per/adc.h ****     enum MuxPin
  35:../../../libDaisy//src/per/adc.h ****     {
  36:../../../libDaisy//src/per/adc.h ****         MUX_SEL_0,    /**< & */
  37:../../../libDaisy//src/per/adc.h ****         MUX_SEL_1,    /**< & */
  38:../../../libDaisy//src/per/adc.h ****         MUX_SEL_2,    /**< & */
  39:../../../libDaisy//src/per/adc.h ****         MUX_SEL_LAST, /**< & */
  40:../../../libDaisy//src/per/adc.h ****     };
  41:../../../libDaisy//src/per/adc.h **** 
  42:../../../libDaisy//src/per/adc.h ****     /** Initializes a single ADC pin as an ADC. 
  43:../../../libDaisy//src/per/adc.h ****     \param pin Pin to init.
  44:../../../libDaisy//src/per/adc.h ****      */
  45:../../../libDaisy//src/per/adc.h ****     void InitSingle(dsy_gpio_pin pin);
  46:../../../libDaisy//src/per/adc.h **** 
  47:../../../libDaisy//src/per/adc.h ****     /** 
  48:../../../libDaisy//src/per/adc.h ****     Initializes a single ADC pin as a Multiplexed ADC.
  49:../../../libDaisy//src/per/adc.h ****     Requires a CD405X Multiplexer connected to the pin.
  50:../../../libDaisy//src/per/adc.h ****     You only need to supply the mux pins that are required,
  51:../../../libDaisy//src/per/adc.h ****     e.g. a 4052 mux would only require mux_0 and mux_1.
  52:../../../libDaisy//src/per/adc.h ****     Internal Callbacks handle the pin addressing.
  53:../../../libDaisy//src/per/adc.h ****     \param mux_channels must be 1-8
  54:../../../libDaisy//src/per/adc.h ****     \param mux_0 First mux pin
  55:../../../libDaisy//src/per/adc.h ****     \param mux_1 Second mux pin
  56:../../../libDaisy//src/per/adc.h ****     \param mux_2 Third mux pin
  57:../../../libDaisy//src/per/adc.h ****     \param adc_pin &
  58:../../../libDaisy//src/per/adc.h ****     */
  59:../../../libDaisy//src/per/adc.h ****     void InitMux(dsy_gpio_pin adc_pin,
  60:../../../libDaisy//src/per/adc.h ****                  size_t       mux_channels,
  61:../../../libDaisy//src/per/adc.h ****                  dsy_gpio_pin mux_0,
  62:../../../libDaisy//src/per/adc.h ****                  dsy_gpio_pin mux_1 = {DSY_GPIOX, 0},
  63:../../../libDaisy//src/per/adc.h ****                  dsy_gpio_pin mux_2 = {DSY_GPIOX, 0});
  64:../../../libDaisy//src/per/adc.h **** 
  65:../../../libDaisy//src/per/adc.h ****     dsy_gpio pin_;                   /**< & */
  66:../../../libDaisy//src/per/adc.h ****     dsy_gpio mux_pin_[MUX_SEL_LAST]; /**< & */
  67:../../../libDaisy//src/per/adc.h ****     uint8_t  mux_channels_;          /**< & */
  68:../../../libDaisy//src/per/adc.h **** };
  69:../../../libDaisy//src/per/adc.h **** 
  70:../../../libDaisy//src/per/adc.h **** /**
  71:../../../libDaisy//src/per/adc.h ****    @brief Handler for analog to digital conversion
  72:../../../libDaisy//src/per/adc.h **** */
  73:../../../libDaisy//src/per/adc.h **** class AdcHandle
  74:../../../libDaisy//src/per/adc.h **** {
  75:../../../libDaisy//src/per/adc.h ****   public:
  76:../../../libDaisy//src/per/adc.h ****     /** Supported oversampling amounts */
  77:../../../libDaisy//src/per/adc.h ****     enum OverSampling
  78:../../../libDaisy//src/per/adc.h ****     {
  79:../../../libDaisy//src/per/adc.h ****         OVS_NONE, /**< & */
  80:../../../libDaisy//src/per/adc.h ****         OVS_4,    /**< & */
  81:../../../libDaisy//src/per/adc.h ****         OVS_8,    /**< & */
  82:../../../libDaisy//src/per/adc.h ****         OVS_16,   /**< & */
  83:../../../libDaisy//src/per/adc.h ****         OVS_32,   /**< & */
  84:../../../libDaisy//src/per/adc.h ****         OVS_64,   /**< & */
  85:../../../libDaisy//src/per/adc.h ****         OVS_128,  /**< & */
  86:../../../libDaisy//src/per/adc.h ****         OVS_256,  /**< & */
  87:../../../libDaisy//src/per/adc.h ****         OVS_512,  /**< & */
  88:../../../libDaisy//src/per/adc.h ****         OVS_1024, /**< & */
ARM GAS  /var/folders/wz/z09yph4n0qj4t7mjxhl6ttn80000gn/T//ccBtkQIl.s 			page 7


  89:../../../libDaisy//src/per/adc.h ****         OVS_LAST, /**< & */
  90:../../../libDaisy//src/per/adc.h ****     };
  91:../../../libDaisy//src/per/adc.h **** 
  92:../../../libDaisy//src/per/adc.h ****     AdcHandle() {}
  93:../../../libDaisy//src/per/adc.h ****     ~AdcHandle() {}
  74              		.loc 5 93 5 is_stmt 1 view .LVU7
  75              		.loc 5 93 5 is_stmt 0 view .LVU8
  76              	.LBE146:
  77              	.LBB147:
  78              	.LBI147:
  79              		.file 6 "../../../libDaisy//src/hid/audio.h"
   1:../../../libDaisy//src/hid/audio.h **** #ifndef DSY_AUDIO_H
   2:../../../libDaisy//src/hid/audio.h **** #define DSY_AUDIO_H /**< & */
   3:../../../libDaisy//src/hid/audio.h **** 
   4:../../../libDaisy//src/hid/audio.h **** #include "per/sai.h"
   5:../../../libDaisy//src/hid/audio.h **** 
   6:../../../libDaisy//src/hid/audio.h **** namespace daisy
   7:../../../libDaisy//src/hid/audio.h **** {
   8:../../../libDaisy//src/hid/audio.h **** /** @brief Audio Engine Handle
   9:../../../libDaisy//src/hid/audio.h ****  *  @ingroup audio 
  10:../../../libDaisy//src/hid/audio.h ****  *  @details This class allows for higher level access to an audio engine.
  11:../../../libDaisy//src/hid/audio.h ****  *           If you're using a SOM like the DaisySeed or DaisyPatchSM (or any 
  12:../../../libDaisy//src/hid/audio.h ****  *            board that includes one of those objects) then the intialization
  13:../../../libDaisy//src/hid/audio.h ****  *            is already taken  care of.
  14:../../../libDaisy//src/hid/audio.h ****  *           If you're setting up your own custom hardware, or need to make changes
  15:../../../libDaisy//src/hid/audio.h ****  *           you will have to take the following steps:
  16:../../../libDaisy//src/hid/audio.h ****  *             1. Create and Initialize an SaiHandle or two depending on your requirements
  17:../../../libDaisy//src/hid/audio.h ****  *             2. Initialize the Audio Handle with the desired settings and the Initialized SaiHand
  18:../../../libDaisy//src/hid/audio.h ****  *             3. If the connected codec requires special configuration or initialization, do so
  19:../../../libDaisy//src/hid/audio.h ****  *             4. Write a callback method using either the AudioCallback or the InterleavingAudioCa
  20:../../../libDaisy//src/hid/audio.h ****  *             5. Start the Audio using one of the StartAudio function
  21:../../../libDaisy//src/hid/audio.h ****  */
  22:../../../libDaisy//src/hid/audio.h **** class AudioHandle
  23:../../../libDaisy//src/hid/audio.h **** {
  24:../../../libDaisy//src/hid/audio.h ****   public:
  25:../../../libDaisy//src/hid/audio.h ****     /** Manually configurable details about the Audio Engine */
  26:../../../libDaisy//src/hid/audio.h ****     /** TODO: Figure out how to get samplerate in here. */
  27:../../../libDaisy//src/hid/audio.h ****     struct Config
  28:../../../libDaisy//src/hid/audio.h ****     {
  29:../../../libDaisy//src/hid/audio.h ****         /** number of samples to process per callback */
  30:../../../libDaisy//src/hid/audio.h ****         size_t blocksize;
  31:../../../libDaisy//src/hid/audio.h **** 
  32:../../../libDaisy//src/hid/audio.h ****         /**< Sample rate of audio */
  33:../../../libDaisy//src/hid/audio.h ****         SaiHandle::Config::SampleRate samplerate;
  34:../../../libDaisy//src/hid/audio.h **** 
  35:../../../libDaisy//src/hid/audio.h ****         /** factor for adjustment before and after callback for hardware that may have extra headro
  36:../../../libDaisy//src/hid/audio.h ****         float postgain;
  37:../../../libDaisy//src/hid/audio.h **** 
  38:../../../libDaisy//src/hid/audio.h ****         /** factor for additional one-sided compensation to audio path for hardware that may
  39:../../../libDaisy//src/hid/audio.h ****          *  have unequal input/output ranges
  40:../../../libDaisy//src/hid/audio.h ****          */
  41:../../../libDaisy//src/hid/audio.h ****         float output_compensation;
  42:../../../libDaisy//src/hid/audio.h **** 
  43:../../../libDaisy//src/hid/audio.h ****         /** Sets default values for config struct */
  44:../../../libDaisy//src/hid/audio.h ****         Config()
  45:../../../libDaisy//src/hid/audio.h ****         : blocksize(48),
  46:../../../libDaisy//src/hid/audio.h ****           samplerate(SaiHandle::Config::SampleRate::SAI_48KHZ),
ARM GAS  /var/folders/wz/z09yph4n0qj4t7mjxhl6ttn80000gn/T//ccBtkQIl.s 			page 8


  47:../../../libDaisy//src/hid/audio.h ****           postgain(1.f),
  48:../../../libDaisy//src/hid/audio.h ****           output_compensation(1.f)
  49:../../../libDaisy//src/hid/audio.h ****         {
  50:../../../libDaisy//src/hid/audio.h ****         }
  51:../../../libDaisy//src/hid/audio.h ****     };
  52:../../../libDaisy//src/hid/audio.h **** 
  53:../../../libDaisy//src/hid/audio.h ****     enum class Result
  54:../../../libDaisy//src/hid/audio.h ****     {
  55:../../../libDaisy//src/hid/audio.h ****         OK,
  56:../../../libDaisy//src/hid/audio.h ****         ERR,
  57:../../../libDaisy//src/hid/audio.h ****     };
  58:../../../libDaisy//src/hid/audio.h **** 
  59:../../../libDaisy//src/hid/audio.h ****     /** Non-Interleaving input buffer
  60:../../../libDaisy//src/hid/audio.h ****      * Buffer arranged by float[chn][sample] 
  61:../../../libDaisy//src/hid/audio.h ****      * const so that the user can't modify the input
  62:../../../libDaisy//src/hid/audio.h ****      */
  63:../../../libDaisy//src/hid/audio.h ****     typedef const float* const* InputBuffer;
  64:../../../libDaisy//src/hid/audio.h **** 
  65:../../../libDaisy//src/hid/audio.h ****     /** Non-Interleaving output buffer
  66:../../../libDaisy//src/hid/audio.h ****      * Arranged by float[chn][sample] 
  67:../../../libDaisy//src/hid/audio.h ****      */
  68:../../../libDaisy//src/hid/audio.h ****     typedef float** OutputBuffer;
  69:../../../libDaisy//src/hid/audio.h **** 
  70:../../../libDaisy//src/hid/audio.h ****     /** Type for a Non-Interleaving audio callback 
  71:../../../libDaisy//src/hid/audio.h ****      * Non-Interleaving audio callbacks in daisy will be of this type
  72:../../../libDaisy//src/hid/audio.h ****      */
  73:../../../libDaisy//src/hid/audio.h ****     typedef void (*AudioCallback)(InputBuffer  in,
  74:../../../libDaisy//src/hid/audio.h ****                                   OutputBuffer out,
  75:../../../libDaisy//src/hid/audio.h ****                                   size_t       size);
  76:../../../libDaisy//src/hid/audio.h **** 
  77:../../../libDaisy//src/hid/audio.h ****     /** Interleaving Input buffer
  78:../../../libDaisy//src/hid/audio.h ****      ** audio is prepared as { L0, R0, L1, R1, . . . LN, RN }]
  79:../../../libDaisy//src/hid/audio.h ****      ** this is const, as the user shouldn't modify it
  80:../../../libDaisy//src/hid/audio.h ****     */
  81:../../../libDaisy//src/hid/audio.h ****     typedef const float* InterleavingInputBuffer;
  82:../../../libDaisy//src/hid/audio.h **** 
  83:../../../libDaisy//src/hid/audio.h ****     /** Interleaving Output buffer 
  84:../../../libDaisy//src/hid/audio.h ****      ** audio is prepared as { L0, R0, L1, R1, . . . LN, RN }
  85:../../../libDaisy//src/hid/audio.h ****     */
  86:../../../libDaisy//src/hid/audio.h ****     typedef float* InterleavingOutputBuffer;
  87:../../../libDaisy//src/hid/audio.h **** 
  88:../../../libDaisy//src/hid/audio.h ****     /** Interleaving Audio Callback 
  89:../../../libDaisy//src/hid/audio.h ****      * Interleaving audio callbacks in daisy must be of this type
  90:../../../libDaisy//src/hid/audio.h ****      */
  91:../../../libDaisy//src/hid/audio.h ****     typedef void (*InterleavingAudioCallback)(InterleavingInputBuffer  in,
  92:../../../libDaisy//src/hid/audio.h ****                                               InterleavingOutputBuffer out,
  93:../../../libDaisy//src/hid/audio.h ****                                               size_t                   size);
  94:../../../libDaisy//src/hid/audio.h **** 
  95:../../../libDaisy//src/hid/audio.h ****     AudioHandle() : pimpl_(nullptr) {}
  96:../../../libDaisy//src/hid/audio.h ****     ~AudioHandle() {}
  80              		.loc 6 96 5 is_stmt 1 view .LVU9
  81              		.loc 6 96 5 is_stmt 0 view .LVU10
  82              	.LBE147:
  83              		.loc 2 22 19 view .LVU11
  84 0000 7047     		bx	lr
  85              		.cfi_endproc
  86              	.LFE4784:
ARM GAS  /var/folders/wz/z09yph4n0qj4t7mjxhl6ttn80000gn/T//ccBtkQIl.s 			page 9


  88              		.weak	_ZN5daisy9DaisySeedD1Ev
  89              		.thumb_set _ZN5daisy9DaisySeedD1Ev,_ZN5daisy9DaisySeedD2Ev
  90 0002 00BF     		.section	.text._Z13AudioCallbackPKPKfPPfj,"ax",%progbits
  91              		.align	1
  92              		.p2align 2,,3
  93              		.global	_Z13AudioCallbackPKPKfPPfj
  94              		.syntax unified
  95              		.thumb
  96              		.thumb_func
  98              	_Z13AudioCallbackPKPKfPPfj:
  99              	.LVL2:
 100              	.LFB4808:
 101              		.file 7 "LoopyTunes.cpp"
   1:LoopyTunes.cpp **** #include "daisysp.h"
   2:LoopyTunes.cpp **** #include "DSP/Mixer.h"
   3:LoopyTunes.cpp **** #include "Architecture/ConnectionMatrix.h"
   4:LoopyTunes.cpp **** 
   5:LoopyTunes.cpp **** using namespace daisy;
   6:LoopyTunes.cpp **** using namespace daisysp;
   7:LoopyTunes.cpp **** 
   8:LoopyTunes.cpp **** /*
   9:LoopyTunes.cpp **** TO DO:
  10:LoopyTunes.cpp **** - Refactor play/record to have similar parameter class to analog ins
  11:LoopyTunes.cpp **** - AudioParameter value smoothing
  12:LoopyTunes.cpp **** - Update AudioParameter value only if changed
  13:LoopyTunes.cpp **** - Parameter update queue
  14:LoopyTunes.cpp **** - Value normalisation
  15:LoopyTunes.cpp **** - Tick parameters less often
  16:LoopyTunes.cpp **** - Move buffers to track level
  17:LoopyTunes.cpp **** - Reduce floating point precision
  18:LoopyTunes.cpp **** */
  19:LoopyTunes.cpp **** 
  20:LoopyTunes.cpp **** // Hardware
  21:LoopyTunes.cpp **** DaisySeed hw;
  22:LoopyTunes.cpp **** 
  23:LoopyTunes.cpp **** // GPIO
  24:LoopyTunes.cpp **** Switch record;
  25:LoopyTunes.cpp **** Switch play;
  26:LoopyTunes.cpp **** 
  27:LoopyTunes.cpp **** // ADC inputs
  28:LoopyTunes.cpp **** AdcChannelConfig amp1;
  29:LoopyTunes.cpp **** 
  30:LoopyTunes.cpp **** // Global
  31:LoopyTunes.cpp **** float sampleRate;
  32:LoopyTunes.cpp **** bool isRecord;
  33:LoopyTunes.cpp **** bool isPlay;
  34:LoopyTunes.cpp **** 
  35:LoopyTunes.cpp **** // System - Flash
  36:LoopyTunes.cpp **** ConnectionMatrix connectionMatrix;
  37:LoopyTunes.cpp **** 
  38:LoopyTunes.cpp **** // DSP - SDRAM
  39:LoopyTunes.cpp **** Mixer mixer;
  40:LoopyTunes.cpp **** 
  41:LoopyTunes.cpp **** // UI - QSPI
  42:LoopyTunes.cpp **** 
  43:LoopyTunes.cpp **** // Buffers
  44:LoopyTunes.cpp **** float DSY_SDRAM_BSS track1[2][SAMPLERATE * DURATION];
ARM GAS  /var/folders/wz/z09yph4n0qj4t7mjxhl6ttn80000gn/T//ccBtkQIl.s 			page 10


  45:LoopyTunes.cpp **** float DSY_SDRAM_BSS track2[2][SAMPLERATE * DURATION];
  46:LoopyTunes.cpp **** float DSY_SDRAM_BSS track3[2][SAMPLERATE * DURATION];
  47:LoopyTunes.cpp **** float DSY_SDRAM_BSS track4[2][SAMPLERATE * DURATION];
  48:LoopyTunes.cpp **** 
  49:LoopyTunes.cpp **** // Buffer pointers
  50:LoopyTunes.cpp **** float* track1Ptr[2] = {track1[L], track1[R]};
  51:LoopyTunes.cpp **** float* track2Ptr[2] = {track2[L], track2[R]};
  52:LoopyTunes.cpp **** float* track3Ptr[2] = {track3[L], track3[R]};
  53:LoopyTunes.cpp **** float* track4Ptr[2] = {track4[L], track4[R]};
  54:LoopyTunes.cpp **** 
  55:LoopyTunes.cpp **** 
  56:LoopyTunes.cpp **** void init()
  57:LoopyTunes.cpp **** {
  58:LoopyTunes.cpp **** 	// initialise Daisy Seed
  59:LoopyTunes.cpp **** 	hw.Init();
  60:LoopyTunes.cpp **** 	hw.SetAudioBlockSize(BLOCKLENGTH); // number of samples handled per callback
  61:LoopyTunes.cpp **** 	hw.SetAudioSampleRate(SaiHandle::Config::SampleRate::SAI_48KHZ);
  62:LoopyTunes.cpp **** 	sampleRate = hw.AudioSampleRate();
  63:LoopyTunes.cpp **** 
  64:LoopyTunes.cpp **** 	// initialise GPIO
  65:LoopyTunes.cpp **** 	record.Init(daisy::seed::D0, 30);
  66:LoopyTunes.cpp **** 	play.Init(daisy::seed::D1, 30);
  67:LoopyTunes.cpp **** 
  68:LoopyTunes.cpp **** 	isRecord = false;
  69:LoopyTunes.cpp **** 	isPlay = false;
  70:LoopyTunes.cpp **** 
  71:LoopyTunes.cpp **** 	// initialise DSP
  72:LoopyTunes.cpp **** 	mixer.init(&hw, track1Ptr, track2Ptr, track3Ptr, track4Ptr);
  73:LoopyTunes.cpp **** }
  74:LoopyTunes.cpp **** 
  75:LoopyTunes.cpp **** void initADC()
  76:LoopyTunes.cpp **** {
  77:LoopyTunes.cpp **** 	amp1.InitSingle(daisy::seed::A0);
  78:LoopyTunes.cpp **** 	hw.adc.Init(&amp1, 1);
  79:LoopyTunes.cpp **** 	hw.adc.Start();
  80:LoopyTunes.cpp **** }
  81:LoopyTunes.cpp **** 
  82:LoopyTunes.cpp **** void pollInputs()
  83:LoopyTunes.cpp **** {
  84:LoopyTunes.cpp **** 	isRecord = record.Pressed();
  85:LoopyTunes.cpp **** 	isPlay = play.Pressed();
  86:LoopyTunes.cpp **** 
  87:LoopyTunes.cpp **** 	if(isRecord) 
  88:LoopyTunes.cpp **** 	{  
  89:LoopyTunes.cpp **** 		mixer.setIsRecording();
  90:LoopyTunes.cpp **** 		hw.PrintLine("Record set");
  91:LoopyTunes.cpp **** 	}
  92:LoopyTunes.cpp **** 	record.Debounce();
  93:LoopyTunes.cpp **** 
  94:LoopyTunes.cpp **** 	if(isPlay) 
  95:LoopyTunes.cpp **** 	{ 
  96:LoopyTunes.cpp **** 		mixer.setIsPlaying(); 
  97:LoopyTunes.cpp **** 		hw.PrintLine("Play set");
  98:LoopyTunes.cpp **** 	}
  99:LoopyTunes.cpp **** 	play.Debounce();
 100:LoopyTunes.cpp **** }
 101:LoopyTunes.cpp **** 
ARM GAS  /var/folders/wz/z09yph4n0qj4t7mjxhl6ttn80000gn/T//ccBtkQIl.s 			page 11


 102:LoopyTunes.cpp **** void AudioCallback(AudioHandle::InputBuffer in, AudioHandle::OutputBuffer out, size_t size)
 103:LoopyTunes.cpp **** {
 102              		.loc 7 103 1 is_stmt 1 view -0
 103              		.cfi_startproc
 104              		@ args = 0, pretend = 0, frame = 8
 105              		@ frame_needed = 0, uses_anonymous_args = 0
 104:LoopyTunes.cpp **** 	mixer.processInputBlock(in[L], in[R], size);
 106              		.loc 7 104 2 view .LVU13
 103:LoopyTunes.cpp **** 	mixer.processInputBlock(in[L], in[R], size);
 107              		.loc 7 103 1 is_stmt 0 view .LVU14
 108 0000 10B5     		push	{r4, lr}
 109              		.cfi_def_cfa_offset 8
 110              		.cfi_offset 4, -8
 111              		.cfi_offset 14, -4
 112 0002 8446     		mov	ip, r0
 113 0004 82B0     		sub	sp, sp, #8
 114              		.cfi_def_cfa_offset 16
 103:LoopyTunes.cpp **** 	mixer.processInputBlock(in[L], in[R], size);
 115              		.loc 7 103 1 view .LVU15
 116 0006 0C46     		mov	r4, r1
 117 0008 1346     		mov	r3, r2
 118              		.loc 7 104 25 view .LVU16
 119 000a 0192     		str	r2, [sp, #4]
 120 000c 0648     		ldr	r0, .L6
 121              	.LVL3:
 122              		.loc 7 104 25 view .LVU17
 123 000e DCE90012 		ldrd	r1, r2, [ip]
 124              	.LVL4:
 125              		.loc 7 104 25 view .LVU18
 126 0012 FFF7FEFF 		bl	_ZN5Mixer17processInputBlockEPKfS1_j
 127              	.LVL5:
 105:LoopyTunes.cpp **** 	mixer.processOutputBlock(out[L], out[R], size);
 128              		.loc 7 105 2 is_stmt 1 view .LVU19
 129              		.loc 7 105 26 is_stmt 0 view .LVU20
 130 0016 019B     		ldr	r3, [sp, #4]
 131 0018 0348     		ldr	r0, .L6
 132 001a D4E90012 		ldrd	r1, r2, [r4]
 106:LoopyTunes.cpp **** }
 133              		.loc 7 106 1 view .LVU21
 134 001e 02B0     		add	sp, sp, #8
 135              		.cfi_def_cfa_offset 8
 136              		@ sp needed
 137 0020 BDE81040 		pop	{r4, lr}
 138              		.cfi_restore 14
 139              		.cfi_restore 4
 140              		.cfi_def_cfa_offset 0
 141              	.LVL6:
 105:LoopyTunes.cpp **** 	mixer.processOutputBlock(out[L], out[R], size);
 142              		.loc 7 105 26 view .LVU22
 143 0024 FFF7FEBF 		b	_ZN5Mixer18processOutputBlockEPfS0_j
 144              	.LVL7:
 145              	.L7:
 146              		.align	2
 147              	.L6:
 148 0028 00000000 		.word	.LANCHOR0
 149              		.cfi_endproc
 150              	.LFE4808:
ARM GAS  /var/folders/wz/z09yph4n0qj4t7mjxhl6ttn80000gn/T//ccBtkQIl.s 			page 12


 152              		.section	.text._Z4initv,"ax",%progbits
 153              		.align	1
 154              		.p2align 2,,3
 155              		.global	_Z4initv
 156              		.syntax unified
 157              		.thumb
 158              		.thumb_func
 160              	_Z4initv:
 161              	.LFB4805:
  57:LoopyTunes.cpp **** 	// initialise Daisy Seed
 162              		.loc 7 57 1 is_stmt 1 view -0
 163              		.cfi_startproc
 164              		@ args = 0, pretend = 0, frame = 8
 165              		@ frame_needed = 0, uses_anonymous_args = 0
  59:LoopyTunes.cpp **** 	hw.SetAudioBlockSize(BLOCKLENGTH); // number of samples handled per callback
 166              		.loc 7 59 2 view .LVU24
  57:LoopyTunes.cpp **** 	// initialise Daisy Seed
 167              		.loc 7 57 1 is_stmt 0 view .LVU25
 168 0000 30B5     		push	{r4, r5, lr}
 169              		.cfi_def_cfa_offset 12
 170              		.cfi_offset 4, -12
 171              		.cfi_offset 5, -8
 172              		.cfi_offset 14, -4
  59:LoopyTunes.cpp **** 	hw.SetAudioBlockSize(BLOCKLENGTH); // number of samples handled per callback
 173              		.loc 7 59 9 view .LVU26
 174 0002 1F4C     		ldr	r4, .L10
  57:LoopyTunes.cpp **** 	// initialise Daisy Seed
 175              		.loc 7 57 1 view .LVU27
 176 0004 85B0     		sub	sp, sp, #20
 177              		.cfi_def_cfa_offset 32
  59:LoopyTunes.cpp **** 	hw.SetAudioBlockSize(BLOCKLENGTH); // number of samples handled per callback
 178              		.loc 7 59 9 view .LVU28
 179 0006 0021     		movs	r1, #0
  72:LoopyTunes.cpp **** }
 180              		.loc 7 72 12 view .LVU29
 181 0008 1E4D     		ldr	r5, .L10+4
  59:LoopyTunes.cpp **** 	hw.SetAudioBlockSize(BLOCKLENGTH); // number of samples handled per callback
 182              		.loc 7 59 9 view .LVU30
 183 000a 2046     		mov	r0, r4
 184 000c FFF7FEFF 		bl	_ZN5daisy9DaisySeed4InitEb
 185              	.LVL8:
  60:LoopyTunes.cpp **** 	hw.SetAudioSampleRate(SaiHandle::Config::SampleRate::SAI_48KHZ);
 186              		.loc 7 60 2 is_stmt 1 view .LVU31
  60:LoopyTunes.cpp **** 	hw.SetAudioSampleRate(SaiHandle::Config::SampleRate::SAI_48KHZ);
 187              		.loc 7 60 22 is_stmt 0 view .LVU32
 188 0010 2046     		mov	r0, r4
 189 0012 0421     		movs	r1, #4
 190 0014 FFF7FEFF 		bl	_ZN5daisy9DaisySeed17SetAudioBlockSizeEj
 191              	.LVL9:
  61:LoopyTunes.cpp **** 	sampleRate = hw.AudioSampleRate();
 192              		.loc 7 61 2 is_stmt 1 view .LVU33
  61:LoopyTunes.cpp **** 	sampleRate = hw.AudioSampleRate();
 193              		.loc 7 61 23 is_stmt 0 view .LVU34
 194 0018 0321     		movs	r1, #3
 195 001a 2046     		mov	r0, r4
 196 001c FFF7FEFF 		bl	_ZN5daisy9DaisySeed18SetAudioSampleRateENS_9SaiHandle6Config10SampleRateE
 197              	.LVL10:
ARM GAS  /var/folders/wz/z09yph4n0qj4t7mjxhl6ttn80000gn/T//ccBtkQIl.s 			page 13


  62:LoopyTunes.cpp **** 
 198              		.loc 7 62 2 is_stmt 1 view .LVU35
  62:LoopyTunes.cpp **** 
 199              		.loc 7 62 33 is_stmt 0 view .LVU36
 200 0020 2046     		mov	r0, r4
 201 0022 FFF7FEFF 		bl	_ZN5daisy9DaisySeed15AudioSampleRateEv
 202              	.LVL11:
 203 0026 0C22     		movs	r2, #12
 204 0028 0121     		movs	r1, #1
 205 002a F0EE407A 		vmov.f32	s15, s0
 206 002e 8DF80920 		strb	r2, [sp, #9]
  65:LoopyTunes.cpp **** 	play.Init(daisy::seed::D1, 30);
 207              		.loc 7 65 13 view .LVU37
 208 0032 B3EE0E0A 		vmov.f32	s0, #3.0e+1
  62:LoopyTunes.cpp **** 
 209              		.loc 7 62 13 view .LVU38
 210 0036 144B     		ldr	r3, .L10+8
 211 0038 8DF80810 		strb	r1, [sp, #8]
  65:LoopyTunes.cpp **** 	play.Init(daisy::seed::D1, 30);
 212              		.loc 7 65 13 view .LVU39
 213 003c 0299     		ldr	r1, [sp, #8]
 214 003e 1348     		ldr	r0, .L10+12
  62:LoopyTunes.cpp **** 
 215              		.loc 7 62 13 view .LVU40
 216 0040 C3ED007A 		vstr.32	s15, [r3]
  65:LoopyTunes.cpp **** 	play.Init(daisy::seed::D1, 30);
 217              		.loc 7 65 2 is_stmt 1 view .LVU41
 218              	.LVL12:
 219              	.LBB148:
 220              	.LBI148:
 221              		.file 8 "../../../libDaisy//src/daisy_core.h"
   1:../../../libDaisy//src/daisy_core.h **** #pragma once
   2:../../../libDaisy//src/daisy_core.h **** #ifndef DSY_CORE_HW_H
   3:../../../libDaisy//src/daisy_core.h **** #define DSY_CORE_HW_H /**< & */
   4:../../../libDaisy//src/daisy_core.h **** #include <stdint.h>
   5:../../../libDaisy//src/daisy_core.h **** #include <stdlib.h>
   6:../../../libDaisy//src/daisy_core.h **** 
   7:../../../libDaisy//src/daisy_core.h **** #if defined(_MSC_VER)
   8:../../../libDaisy//src/daisy_core.h **** #define FORCE_INLINE __forceinline /**< & */
   9:../../../libDaisy//src/daisy_core.h **** #elif defined(__clang__)
  10:../../../libDaisy//src/daisy_core.h **** #define FORCE_INLINE inline __attribute__((always_inline)) /**< & */
  11:../../../libDaisy//src/daisy_core.h **** #pragma clang diagnostic ignored "-Wduplicate-decl-specifier"
  12:../../../libDaisy//src/daisy_core.h **** #elif defined(__GNUC__)
  13:../../../libDaisy//src/daisy_core.h **** #define FORCE_INLINE inline __attribute__((always_inline)) /**< & */
  14:../../../libDaisy//src/daisy_core.h **** #else
  15:../../../libDaisy//src/daisy_core.h **** #error unknown compiler
  16:../../../libDaisy//src/daisy_core.h **** #endif
  17:../../../libDaisy//src/daisy_core.h **** 
  18:../../../libDaisy//src/daisy_core.h **** /** @addtogroup utility
  19:../../../libDaisy//src/daisy_core.h ****     @{
  20:../../../libDaisy//src/daisy_core.h **** */
  21:../../../libDaisy//src/daisy_core.h **** 
  22:../../../libDaisy//src/daisy_core.h **** /** Macro for area of memory that is configured as cacheless
  23:../../../libDaisy//src/daisy_core.h **** This should be used primarily for DMA buffers, and the like.
  24:../../../libDaisy//src/daisy_core.h **** */
  25:../../../libDaisy//src/daisy_core.h **** #define DMA_BUFFER_MEM_SECTION __attribute__((section(".sram1_bss")))
  26:../../../libDaisy//src/daisy_core.h **** /** 
ARM GAS  /var/folders/wz/z09yph4n0qj4t7mjxhl6ttn80000gn/T//ccBtkQIl.s 			page 14


  27:../../../libDaisy//src/daisy_core.h **** THE DTCM RAM section is also non-cached. However, is not suitable 
  28:../../../libDaisy//src/daisy_core.h **** for DMA transfers. Performance is on par with internal SRAM w/ 
  29:../../../libDaisy//src/daisy_core.h **** cache enabled.
  30:../../../libDaisy//src/daisy_core.h **** */
  31:../../../libDaisy//src/daisy_core.h **** #define DTCM_MEM_SECTION __attribute__((section(".dtcmram_bss")))
  32:../../../libDaisy//src/daisy_core.h **** 
  33:../../../libDaisy//src/daisy_core.h **** #define FBIPMAX 0.999985f             /**< close to 1.0f-LSB at 16 bit */
  34:../../../libDaisy//src/daisy_core.h **** #define FBIPMIN (-FBIPMAX)            /**< - (1 - LSB) */
  35:../../../libDaisy//src/daisy_core.h **** #define U82F_SCALE 0.0078740f         /**< 1 / 127 */
  36:../../../libDaisy//src/daisy_core.h **** #define F2U8_SCALE 127.0f             /**< 128 - 1 */
  37:../../../libDaisy//src/daisy_core.h **** #define S82F_SCALE 0.0078125f         /**< 1 / (2**7) */
  38:../../../libDaisy//src/daisy_core.h **** #define F2S8_SCALE 127.0f             /**< (2 ** 7) - 1 */
  39:../../../libDaisy//src/daisy_core.h **** #define S162F_SCALE 3.0517578125e-05f /**< 1 / (2** 15) */
  40:../../../libDaisy//src/daisy_core.h **** #define F2S16_SCALE 32767.0f          /**< (2 ** 15) - 1 */
  41:../../../libDaisy//src/daisy_core.h **** #define F2S24_SCALE 8388608.0f        /**< 2 ** 23 */
  42:../../../libDaisy//src/daisy_core.h **** #define S242F_SCALE 1.192092896e-07f  /**< 1 / (2 ** 23) */
  43:../../../libDaisy//src/daisy_core.h **** #define S24SIGN 0x800000              /**< 2 ** 23 */
  44:../../../libDaisy//src/daisy_core.h **** #define S322F_SCALE 4.6566129e-10f    /**< 1 / (2** 31) */
  45:../../../libDaisy//src/daisy_core.h **** #define F2S32_SCALE 2147483647.f      /**< (2 ** 31) - 1 */
  46:../../../libDaisy//src/daisy_core.h **** 
  47:../../../libDaisy//src/daisy_core.h **** 
  48:../../../libDaisy//src/daisy_core.h **** /** shorthand macro for simplifying the reading of the left 
  49:../../../libDaisy//src/daisy_core.h ****  *  channel of a non-interleaved output buffer named out */
  50:../../../libDaisy//src/daisy_core.h **** #define OUT_L out[0]
  51:../../../libDaisy//src/daisy_core.h **** 
  52:../../../libDaisy//src/daisy_core.h **** /** shorthand macro for simplifying the reading of the right 
  53:../../../libDaisy//src/daisy_core.h ****  *  channel of a non-interleaved output buffer named out */
  54:../../../libDaisy//src/daisy_core.h **** #define OUT_R out[1]
  55:../../../libDaisy//src/daisy_core.h **** 
  56:../../../libDaisy//src/daisy_core.h **** /** shorthand macro for simplifying the reading of the left 
  57:../../../libDaisy//src/daisy_core.h ****  *  channel of a non-interleaved input buffer named in */
  58:../../../libDaisy//src/daisy_core.h **** #define IN_L in[0]
  59:../../../libDaisy//src/daisy_core.h **** 
  60:../../../libDaisy//src/daisy_core.h **** /** shorthand macro for simplifying the reading of the right 
  61:../../../libDaisy//src/daisy_core.h ****  *  channel of a non-interleaved input buffer named in */
  62:../../../libDaisy//src/daisy_core.h **** #define IN_R in[1]
  63:../../../libDaisy//src/daisy_core.h **** 
  64:../../../libDaisy//src/daisy_core.h **** /** 
  65:../../../libDaisy//src/daisy_core.h ****     Computes cube.
  66:../../../libDaisy//src/daisy_core.h ****     \param x Number to be cubed
  67:../../../libDaisy//src/daisy_core.h ****     \return x ^ 3
  68:../../../libDaisy//src/daisy_core.h **** */
  69:../../../libDaisy//src/daisy_core.h **** FORCE_INLINE float cube(float x)
  70:../../../libDaisy//src/daisy_core.h **** {
  71:../../../libDaisy//src/daisy_core.h ****     return (x * x) * x;
  72:../../../libDaisy//src/daisy_core.h **** }
  73:../../../libDaisy//src/daisy_core.h **** 
  74:../../../libDaisy//src/daisy_core.h **** /** 
  75:../../../libDaisy//src/daisy_core.h ****     Converts unsigned 8-bit to float
  76:../../../libDaisy//src/daisy_core.h ****     \param x Number to be scaled.
  77:../../../libDaisy//src/daisy_core.h ****     \return Scaled number.
  78:../../../libDaisy//src/daisy_core.h **** */
  79:../../../libDaisy//src/daisy_core.h **** FORCE_INLINE float u82f(uint8_t x)
  80:../../../libDaisy//src/daisy_core.h **** {
  81:../../../libDaisy//src/daisy_core.h ****     return ((float)x - 127.f) * U82F_SCALE;
  82:../../../libDaisy//src/daisy_core.h **** }
  83:../../../libDaisy//src/daisy_core.h **** 
ARM GAS  /var/folders/wz/z09yph4n0qj4t7mjxhl6ttn80000gn/T//ccBtkQIl.s 			page 15


  84:../../../libDaisy//src/daisy_core.h **** /**
  85:../../../libDaisy//src/daisy_core.h ****     Converts float to unsigned 8-bit
  86:../../../libDaisy//src/daisy_core.h **** */
  87:../../../libDaisy//src/daisy_core.h **** FORCE_INLINE uint8_t f2u8(float x)
  88:../../../libDaisy//src/daisy_core.h **** {
  89:../../../libDaisy//src/daisy_core.h ****     x = x <= FBIPMIN ? FBIPMIN : x;
  90:../../../libDaisy//src/daisy_core.h ****     x = x >= FBIPMAX ? FBIPMAX : x;
  91:../../../libDaisy//src/daisy_core.h ****     return (uint8_t)((x * F2U8_SCALE) + F2U8_SCALE);
  92:../../../libDaisy//src/daisy_core.h **** }
  93:../../../libDaisy//src/daisy_core.h **** 
  94:../../../libDaisy//src/daisy_core.h **** 
  95:../../../libDaisy//src/daisy_core.h **** /** 
  96:../../../libDaisy//src/daisy_core.h ****     Converts Signed 8-bit to float
  97:../../../libDaisy//src/daisy_core.h ****     \param x Number to be scaled.
  98:../../../libDaisy//src/daisy_core.h ****     \return Scaled number.
  99:../../../libDaisy//src/daisy_core.h **** */
 100:../../../libDaisy//src/daisy_core.h **** FORCE_INLINE float s82f(int8_t x)
 101:../../../libDaisy//src/daisy_core.h **** {
 102:../../../libDaisy//src/daisy_core.h ****     return (float)x * S82F_SCALE;
 103:../../../libDaisy//src/daisy_core.h **** }
 104:../../../libDaisy//src/daisy_core.h **** 
 105:../../../libDaisy//src/daisy_core.h **** /**
 106:../../../libDaisy//src/daisy_core.h ****     Converts float to Signed 8-bit
 107:../../../libDaisy//src/daisy_core.h **** */
 108:../../../libDaisy//src/daisy_core.h **** FORCE_INLINE int8_t f2s8(float x)
 109:../../../libDaisy//src/daisy_core.h **** {
 110:../../../libDaisy//src/daisy_core.h ****     x = x <= FBIPMIN ? FBIPMIN : x;
 111:../../../libDaisy//src/daisy_core.h ****     x = x >= FBIPMAX ? FBIPMAX : x;
 112:../../../libDaisy//src/daisy_core.h ****     return (int32_t)(x * F2S8_SCALE);
 113:../../../libDaisy//src/daisy_core.h **** }
 114:../../../libDaisy//src/daisy_core.h **** 
 115:../../../libDaisy//src/daisy_core.h **** /** 
 116:../../../libDaisy//src/daisy_core.h ****     Converts Signed 16-bit to float
 117:../../../libDaisy//src/daisy_core.h ****     \param x Number to be scaled.
 118:../../../libDaisy//src/daisy_core.h ****     \return Scaled number.
 119:../../../libDaisy//src/daisy_core.h **** */
 120:../../../libDaisy//src/daisy_core.h **** FORCE_INLINE float s162f(int16_t x)
 121:../../../libDaisy//src/daisy_core.h **** {
 122:../../../libDaisy//src/daisy_core.h ****     return (float)x * S162F_SCALE;
 123:../../../libDaisy//src/daisy_core.h **** }
 124:../../../libDaisy//src/daisy_core.h **** 
 125:../../../libDaisy//src/daisy_core.h **** /**
 126:../../../libDaisy//src/daisy_core.h ****     Converts float to Signed 16-bit
 127:../../../libDaisy//src/daisy_core.h **** */
 128:../../../libDaisy//src/daisy_core.h **** FORCE_INLINE int16_t f2s16(float x)
 129:../../../libDaisy//src/daisy_core.h **** {
 130:../../../libDaisy//src/daisy_core.h ****     x = x <= FBIPMIN ? FBIPMIN : x;
 131:../../../libDaisy//src/daisy_core.h ****     x = x >= FBIPMAX ? FBIPMAX : x;
 132:../../../libDaisy//src/daisy_core.h ****     return (int32_t)(x * F2S16_SCALE);
 133:../../../libDaisy//src/daisy_core.h **** }
 134:../../../libDaisy//src/daisy_core.h **** 
 135:../../../libDaisy//src/daisy_core.h **** /**
 136:../../../libDaisy//src/daisy_core.h ****     Converts Signed 24-bit to float
 137:../../../libDaisy//src/daisy_core.h ****  */
 138:../../../libDaisy//src/daisy_core.h **** FORCE_INLINE float s242f(int32_t x)
 139:../../../libDaisy//src/daisy_core.h **** {
 140:../../../libDaisy//src/daisy_core.h ****     x = (x ^ S24SIGN) - S24SIGN; //sign extend aka ((x<<8)>>8)
ARM GAS  /var/folders/wz/z09yph4n0qj4t7mjxhl6ttn80000gn/T//ccBtkQIl.s 			page 16


 141:../../../libDaisy//src/daisy_core.h ****     return (float)x * S242F_SCALE;
 142:../../../libDaisy//src/daisy_core.h **** }
 143:../../../libDaisy//src/daisy_core.h **** /**
 144:../../../libDaisy//src/daisy_core.h ****     Converts float to Signed 24-bit
 145:../../../libDaisy//src/daisy_core.h ****  */
 146:../../../libDaisy//src/daisy_core.h **** FORCE_INLINE int32_t f2s24(float x)
 147:../../../libDaisy//src/daisy_core.h **** {
 148:../../../libDaisy//src/daisy_core.h ****     x = x <= FBIPMIN ? FBIPMIN : x;
 149:../../../libDaisy//src/daisy_core.h ****     x = x >= FBIPMAX ? FBIPMAX : x;
 150:../../../libDaisy//src/daisy_core.h ****     return (int32_t)(x * F2S24_SCALE);
 151:../../../libDaisy//src/daisy_core.h **** }
 152:../../../libDaisy//src/daisy_core.h **** 
 153:../../../libDaisy//src/daisy_core.h **** /**
 154:../../../libDaisy//src/daisy_core.h ****     Converts Signed 32-bit to float
 155:../../../libDaisy//src/daisy_core.h ****  */
 156:../../../libDaisy//src/daisy_core.h **** FORCE_INLINE float s322f(int32_t x)
 157:../../../libDaisy//src/daisy_core.h **** {
 158:../../../libDaisy//src/daisy_core.h ****     return (float)x * S322F_SCALE;
 159:../../../libDaisy//src/daisy_core.h **** }
 160:../../../libDaisy//src/daisy_core.h **** /**
 161:../../../libDaisy//src/daisy_core.h ****     Converts float to Signed 24-bit
 162:../../../libDaisy//src/daisy_core.h ****  */
 163:../../../libDaisy//src/daisy_core.h **** FORCE_INLINE int32_t f2s32(float x)
 164:../../../libDaisy//src/daisy_core.h **** {
 165:../../../libDaisy//src/daisy_core.h ****     x = x <= FBIPMIN ? FBIPMIN : x;
 166:../../../libDaisy//src/daisy_core.h ****     x = x >= FBIPMAX ? FBIPMAX : x;
 167:../../../libDaisy//src/daisy_core.h ****     return (int32_t)(x * F2S32_SCALE);
 168:../../../libDaisy//src/daisy_core.h **** }
 169:../../../libDaisy//src/daisy_core.h **** 
 170:../../../libDaisy//src/daisy_core.h **** 
 171:../../../libDaisy//src/daisy_core.h **** /** Enums and a simple struct for defining a hardware pin on the MCU
 172:../../../libDaisy//src/daisy_core.h ****  *  These correlate with the stm32 datasheet, and are used to configure
 173:../../../libDaisy//src/daisy_core.h ****  *  the hardware.
 174:../../../libDaisy//src/daisy_core.h ****  * 
 175:../../../libDaisy//src/daisy_core.h ****  *  This along with the dsy_gpio_pin class should no longer be used.
 176:../../../libDaisy//src/daisy_core.h ****  *  They are available for backwards compatability. 
 177:../../../libDaisy//src/daisy_core.h ****  * 
 178:../../../libDaisy//src/daisy_core.h ****  *  Please use GPIOPort enum and the Pin struct instead.
 179:../../../libDaisy//src/daisy_core.h ****  */
 180:../../../libDaisy//src/daisy_core.h **** typedef enum
 181:../../../libDaisy//src/daisy_core.h **** {
 182:../../../libDaisy//src/daisy_core.h ****     DSY_GPIOA, /**< & */
 183:../../../libDaisy//src/daisy_core.h ****     DSY_GPIOB, /**< & */
 184:../../../libDaisy//src/daisy_core.h ****     DSY_GPIOC, /**< & */
 185:../../../libDaisy//src/daisy_core.h ****     DSY_GPIOD, /**< & */
 186:../../../libDaisy//src/daisy_core.h ****     DSY_GPIOE, /**< & */
 187:../../../libDaisy//src/daisy_core.h ****     DSY_GPIOF, /**< & */
 188:../../../libDaisy//src/daisy_core.h ****     DSY_GPIOG, /**< & */
 189:../../../libDaisy//src/daisy_core.h ****     DSY_GPIOH, /**< & */
 190:../../../libDaisy//src/daisy_core.h ****     DSY_GPIOI, /**< & */
 191:../../../libDaisy//src/daisy_core.h ****     DSY_GPIOJ, /**< & */
 192:../../../libDaisy//src/daisy_core.h ****     DSY_GPIOK, /**< & */
 193:../../../libDaisy//src/daisy_core.h ****     DSY_GPIOX, /** This is a non-existant port for unsupported bits of hardware. */
 194:../../../libDaisy//src/daisy_core.h ****     DSY_GPIO_LAST, /** Final enum member */
 195:../../../libDaisy//src/daisy_core.h **** } dsy_gpio_port;
 196:../../../libDaisy//src/daisy_core.h **** 
 197:../../../libDaisy//src/daisy_core.h **** /** Hardware define pins 
ARM GAS  /var/folders/wz/z09yph4n0qj4t7mjxhl6ttn80000gn/T//ccBtkQIl.s 			page 17


 198:../../../libDaisy//src/daisy_core.h ****  *  
 199:../../../libDaisy//src/daisy_core.h ****  *  The dsy_gpio_pin struct should no longer be used, and is only available for
 200:../../../libDaisy//src/daisy_core.h ****  *  backwards compatability.
 201:../../../libDaisy//src/daisy_core.h ****  * 
 202:../../../libDaisy//src/daisy_core.h ****  *  Please use Pin struct instead.
 203:../../../libDaisy//src/daisy_core.h ****  */
 204:../../../libDaisy//src/daisy_core.h **** typedef struct
 205:../../../libDaisy//src/daisy_core.h **** {
 206:../../../libDaisy//src/daisy_core.h ****     dsy_gpio_port port; /**< & */
 207:../../../libDaisy//src/daisy_core.h ****     uint8_t       pin;  /**< number 0-15 */
 208:../../../libDaisy//src/daisy_core.h **** } dsy_gpio_pin;
 209:../../../libDaisy//src/daisy_core.h **** 
 210:../../../libDaisy//src/daisy_core.h **** /** Helper for creating pins from port/pin combos easily
 211:../../../libDaisy//src/daisy_core.h ****  * 
 212:../../../libDaisy//src/daisy_core.h ****  *  The dsy_gpio_pin struct should no longer be used, and is only available for
 213:../../../libDaisy//src/daisy_core.h ****  *  backwards compatability.
 214:../../../libDaisy//src/daisy_core.h ****  * 
 215:../../../libDaisy//src/daisy_core.h ****  *  Please use Pin struct instead.
 216:../../../libDaisy//src/daisy_core.h **** */
 217:../../../libDaisy//src/daisy_core.h **** FORCE_INLINE dsy_gpio_pin dsy_pin(dsy_gpio_port port, uint8_t pin)
 218:../../../libDaisy//src/daisy_core.h **** {
 219:../../../libDaisy//src/daisy_core.h ****     dsy_gpio_pin p;
 220:../../../libDaisy//src/daisy_core.h ****     p.port = port;
 221:../../../libDaisy//src/daisy_core.h ****     p.pin  = pin;
 222:../../../libDaisy//src/daisy_core.h ****     return p;
 223:../../../libDaisy//src/daisy_core.h **** }
 224:../../../libDaisy//src/daisy_core.h **** 
 225:../../../libDaisy//src/daisy_core.h **** /** Helper for testing sameness of two dsy_gpio_pins
 226:../../../libDaisy//src/daisy_core.h ****  *  \return    1 if same, 0 if different
 227:../../../libDaisy//src/daisy_core.h ****  * 
 228:../../../libDaisy//src/daisy_core.h ****  *  The dsy_gpio_pin struct should no longer be used, and is only available for
 229:../../../libDaisy//src/daisy_core.h ****  *  backwards compatability.
 230:../../../libDaisy//src/daisy_core.h ****  * 
 231:../../../libDaisy//src/daisy_core.h ****  *  Please use Pin struct instead.
 232:../../../libDaisy//src/daisy_core.h ****  */
 233:../../../libDaisy//src/daisy_core.h **** FORCE_INLINE uint8_t dsy_pin_cmp(dsy_gpio_pin *a, dsy_gpio_pin *b)
 234:../../../libDaisy//src/daisy_core.h **** {
 235:../../../libDaisy//src/daisy_core.h ****     return ((a->port == b->port) && (a->pin == b->pin));
 236:../../../libDaisy//src/daisy_core.h **** }
 237:../../../libDaisy//src/daisy_core.h **** 
 238:../../../libDaisy//src/daisy_core.h **** #ifdef __cplusplus
 239:../../../libDaisy//src/daisy_core.h **** 
 240:../../../libDaisy//src/daisy_core.h **** namespace daisy
 241:../../../libDaisy//src/daisy_core.h **** {
 242:../../../libDaisy//src/daisy_core.h **** /** @brief GPIO Port names */
 243:../../../libDaisy//src/daisy_core.h **** enum GPIOPort
 244:../../../libDaisy//src/daisy_core.h **** {
 245:../../../libDaisy//src/daisy_core.h ****     PORTA, /**< Port A */
 246:../../../libDaisy//src/daisy_core.h ****     PORTB, /**< Port B */
 247:../../../libDaisy//src/daisy_core.h ****     PORTC, /**< Port C */
 248:../../../libDaisy//src/daisy_core.h ****     PORTD, /**< Port D */
 249:../../../libDaisy//src/daisy_core.h ****     PORTE, /**< Port E */
 250:../../../libDaisy//src/daisy_core.h ****     PORTF, /**< Port F */
 251:../../../libDaisy//src/daisy_core.h ****     PORTG, /**< Port G */
 252:../../../libDaisy//src/daisy_core.h ****     PORTH, /**< Port H */
 253:../../../libDaisy//src/daisy_core.h ****     PORTI, /**< Port I */
 254:../../../libDaisy//src/daisy_core.h ****     PORTJ, /**< Port J */
ARM GAS  /var/folders/wz/z09yph4n0qj4t7mjxhl6ttn80000gn/T//ccBtkQIl.s 			page 18


 255:../../../libDaisy//src/daisy_core.h ****     PORTK, /**< Port K */
 256:../../../libDaisy//src/daisy_core.h ****     PORTX, /**< Used as a dummy port to signal an invalid pin. */
 257:../../../libDaisy//src/daisy_core.h **** };
 258:../../../libDaisy//src/daisy_core.h **** 
 259:../../../libDaisy//src/daisy_core.h **** /** @brief representation of hardware port/pin combination */
 260:../../../libDaisy//src/daisy_core.h **** struct Pin
 261:../../../libDaisy//src/daisy_core.h **** {
 262:../../../libDaisy//src/daisy_core.h ****     GPIOPort port;
 263:../../../libDaisy//src/daisy_core.h ****     uint8_t  pin;
 264:../../../libDaisy//src/daisy_core.h **** 
 265:../../../libDaisy//src/daisy_core.h ****     /** @brief Constructor creates a valid pin. 
 266:../../../libDaisy//src/daisy_core.h ****      *  @param pt GPIOPort between PA, and PK corresponding to STM32 Port.
 267:../../../libDaisy//src/daisy_core.h ****      *  @param pn pin number in range of 0-15
 268:../../../libDaisy//src/daisy_core.h ****     */
 269:../../../libDaisy//src/daisy_core.h ****     constexpr Pin(const GPIOPort pt, const uint8_t pn) : port(pt), pin(pn) {}
 270:../../../libDaisy//src/daisy_core.h **** 
 271:../../../libDaisy//src/daisy_core.h ****     /** @brief Basic Constructor creates an invalid Pin object */
 272:../../../libDaisy//src/daisy_core.h ****     constexpr Pin() : port(PORTX), pin(255) {}
 273:../../../libDaisy//src/daisy_core.h **** 
 274:../../../libDaisy//src/daisy_core.h ****     /** @brief checks validity of a Pin 
 275:../../../libDaisy//src/daisy_core.h ****      *  @retval returns true if the port is a valid hardware pin, otherwise false.
 276:../../../libDaisy//src/daisy_core.h ****     */
 277:../../../libDaisy//src/daisy_core.h ****     constexpr bool IsValid() const { return port != PORTX && pin < 16; }
 278:../../../libDaisy//src/daisy_core.h **** 
 279:../../../libDaisy//src/daisy_core.h ****     /** @brief comparison operator for checking equality between Pin objects */
 280:../../../libDaisy//src/daisy_core.h ****     constexpr bool operator==(const Pin &rhs) const
 281:../../../libDaisy//src/daisy_core.h ****     {
 282:../../../libDaisy//src/daisy_core.h ****         return (rhs.port == port) && (rhs.pin == pin);
 283:../../../libDaisy//src/daisy_core.h ****     }
 284:../../../libDaisy//src/daisy_core.h **** 
 285:../../../libDaisy//src/daisy_core.h ****     /** @brief comparison operator for checking inequality between Pin objects */
 286:../../../libDaisy//src/daisy_core.h ****     constexpr bool operator!=(const Pin &rhs) const { return !operator==(rhs); }
 287:../../../libDaisy//src/daisy_core.h **** 
 288:../../../libDaisy//src/daisy_core.h ****     /** @brief conversion operation for converting to the old-style representation
 289:../../../libDaisy//src/daisy_core.h ****      *         of a pin.
 290:../../../libDaisy//src/daisy_core.h ****      * 
 291:../../../libDaisy//src/daisy_core.h ****      *  This allows the new Pin type to be used in place of the older, dsy_gpio_pin
 292:../../../libDaisy//src/daisy_core.h ****      *  type.
 293:../../../libDaisy//src/daisy_core.h ****      */
 294:../../../libDaisy//src/daisy_core.h ****     operator dsy_gpio_pin() const
 222              		.loc 8 294 5 view .LVU42
 223              	.LBE148:
 295:../../../libDaisy//src/daisy_core.h ****     {
 296:../../../libDaisy//src/daisy_core.h ****         return dsy_pin(static_cast<dsy_gpio_port>(port), pin);
 224              		.loc 8 296 9 view .LVU43
 225              	.LBB150:
 226              	.LBB149:
 227              	.LBI149:
 217:../../../libDaisy//src/daisy_core.h **** {
 228              		.loc 8 217 27 view .LVU44
 229              	.LBE149:
 230              	.LBE150:
 219:../../../libDaisy//src/daisy_core.h ****     p.port = port;
 231              		.loc 8 219 5 view .LVU45
 220:../../../libDaisy//src/daisy_core.h ****     p.pin  = pin;
 232              		.loc 8 220 5 view .LVU46
 221:../../../libDaisy//src/daisy_core.h ****     return p;
ARM GAS  /var/folders/wz/z09yph4n0qj4t7mjxhl6ttn80000gn/T//ccBtkQIl.s 			page 19


 233              		.loc 8 221 5 view .LVU47
 222:../../../libDaisy//src/daisy_core.h **** }
 234              		.loc 8 222 5 view .LVU48
  65:LoopyTunes.cpp **** 	play.Init(daisy::seed::D1, 30);
 235              		.loc 7 65 13 is_stmt 0 view .LVU49
 236 0044 FFF7FEFF 		bl	_ZN5daisy6Switch4InitE12dsy_gpio_pinf
 237              	.LVL13:
  66:LoopyTunes.cpp **** 
 238              		.loc 7 66 2 is_stmt 1 view .LVU50
 239              	.LBB151:
 240              	.LBI151:
 294:../../../libDaisy//src/daisy_core.h ****     {
 241              		.loc 8 294 5 view .LVU51
 242              	.LBE151:
 243              		.loc 8 296 9 view .LVU52
 244              	.LBB153:
 245              	.LBB152:
 246              	.LBI152:
 217:../../../libDaisy//src/daisy_core.h **** {
 247              		.loc 8 217 27 view .LVU53
 248              	.LBE152:
 249              	.LBE153:
 219:../../../libDaisy//src/daisy_core.h ****     p.port = port;
 250              		.loc 8 219 5 view .LVU54
 220:../../../libDaisy//src/daisy_core.h ****     p.pin  = pin;
 251              		.loc 8 220 5 view .LVU55
 221:../../../libDaisy//src/daisy_core.h ****     return p;
 252              		.loc 8 221 5 view .LVU56
 222:../../../libDaisy//src/daisy_core.h **** }
 253              		.loc 8 222 5 view .LVU57
 222:../../../libDaisy//src/daisy_core.h **** }
 254              		.loc 8 222 5 is_stmt 0 view .LVU58
 255 0048 0222     		movs	r2, #2
 256 004a 0B23     		movs	r3, #11
  66:LoopyTunes.cpp **** 
 257              		.loc 7 66 11 view .LVU59
 258 004c B3EE0E0A 		vmov.f32	s0, #3.0e+1
 259 0050 0F48     		ldr	r0, .L10+16
 260 0052 8DF80C20 		strb	r2, [sp, #12]
 261 0056 8DF80D30 		strb	r3, [sp, #13]
 262              	.LVL14:
  66:LoopyTunes.cpp **** 
 263              		.loc 7 66 11 view .LVU60
 264 005a 0399     		ldr	r1, [sp, #12]
 265 005c FFF7FEFF 		bl	_ZN5daisy6Switch4InitE12dsy_gpio_pinf
 266              	.LVL15:
  68:LoopyTunes.cpp **** 	isPlay = false;
 267              		.loc 7 68 2 is_stmt 1 view .LVU61
  68:LoopyTunes.cpp **** 	isPlay = false;
 268              		.loc 7 68 11 is_stmt 0 view .LVU62
 269 0060 0022     		movs	r2, #0
  72:LoopyTunes.cpp **** }
 270              		.loc 7 72 12 view .LVU63
 271 0062 0C4B     		ldr	r3, .L10+20
 272 0064 2146     		mov	r1, r4
  68:LoopyTunes.cpp **** 	isPlay = false;
 273              		.loc 7 68 11 view .LVU64
ARM GAS  /var/folders/wz/z09yph4n0qj4t7mjxhl6ttn80000gn/T//ccBtkQIl.s 			page 20


 274 0066 0C48     		ldr	r0, .L10+24
  72:LoopyTunes.cpp **** }
 275              		.loc 7 72 12 view .LVU65
 276 0068 0193     		str	r3, [sp, #4]
 277 006a 0095     		str	r5, [sp]
  68:LoopyTunes.cpp **** 	isPlay = false;
 278              		.loc 7 68 11 view .LVU66
 279 006c 0270     		strb	r2, [r0]
  69:LoopyTunes.cpp **** 
 280              		.loc 7 69 2 is_stmt 1 view .LVU67
  69:LoopyTunes.cpp **** 
 281              		.loc 7 69 9 is_stmt 0 view .LVU68
 282 006e 0B48     		ldr	r0, .L10+28
  72:LoopyTunes.cpp **** }
 283              		.loc 7 72 12 view .LVU69
 284 0070 0B4B     		ldr	r3, .L10+32
  69:LoopyTunes.cpp **** 
 285              		.loc 7 69 9 view .LVU70
 286 0072 0270     		strb	r2, [r0]
  72:LoopyTunes.cpp **** }
 287              		.loc 7 72 2 is_stmt 1 view .LVU71
  72:LoopyTunes.cpp **** }
 288              		.loc 7 72 12 is_stmt 0 view .LVU72
 289 0074 0B4A     		ldr	r2, .L10+36
 290 0076 0C48     		ldr	r0, .L10+40
 291 0078 FFF7FEFF 		bl	_ZN5Mixer4initEPN5daisy9DaisySeedEPPfS4_S4_S4_
 292              	.LVL16:
  73:LoopyTunes.cpp **** 
 293              		.loc 7 73 1 view .LVU73
 294 007c 05B0     		add	sp, sp, #20
 295              		.cfi_def_cfa_offset 12
 296              		@ sp needed
 297 007e 30BD     		pop	{r4, r5, pc}
 298              	.L11:
 299              		.align	2
 300              	.L10:
 301 0080 00000000 		.word	.LANCHOR1
 302 0084 00000000 		.word	.LANCHOR10
 303 0088 00000000 		.word	.LANCHOR2
 304 008c 00000000 		.word	.LANCHOR3
 305 0090 00000000 		.word	.LANCHOR4
 306 0094 00000000 		.word	.LANCHOR9
 307 0098 00000000 		.word	.LANCHOR5
 308 009c 00000000 		.word	.LANCHOR6
 309 00a0 00000000 		.word	.LANCHOR7
 310 00a4 00000000 		.word	.LANCHOR8
 311 00a8 00000000 		.word	.LANCHOR0
 312              		.cfi_endproc
 313              	.LFE4805:
 315              		.section	.text._Z7initADCv,"ax",%progbits
 316              		.align	1
 317              		.p2align 2,,3
 318              		.global	_Z7initADCv
 319              		.syntax unified
 320              		.thumb
 321              		.thumb_func
 323              	_Z7initADCv:
ARM GAS  /var/folders/wz/z09yph4n0qj4t7mjxhl6ttn80000gn/T//ccBtkQIl.s 			page 21


 324              	.LFB4806:
  76:LoopyTunes.cpp **** 	amp1.InitSingle(daisy::seed::A0);
 325              		.loc 7 76 1 is_stmt 1 view -0
 326              		.cfi_startproc
 327              		@ args = 0, pretend = 0, frame = 8
 328              		@ frame_needed = 0, uses_anonymous_args = 0
  77:LoopyTunes.cpp **** 	hw.adc.Init(&amp1, 1);
 329              		.loc 7 77 2 view .LVU75
 330              	.LVL17:
 331              	.LBB154:
 332              	.LBI154:
 294:../../../libDaisy//src/daisy_core.h ****     {
 333              		.loc 8 294 5 view .LVU76
 334              	.LBE154:
 335              		.loc 8 296 9 view .LVU77
 336              	.LBB156:
 337              	.LBB155:
 338              	.LBI155:
 217:../../../libDaisy//src/daisy_core.h **** {
 339              		.loc 8 217 27 view .LVU78
 340              	.LBE155:
 341              	.LBE156:
 219:../../../libDaisy//src/daisy_core.h ****     p.port = port;
 342              		.loc 8 219 5 view .LVU79
 220:../../../libDaisy//src/daisy_core.h ****     p.pin  = pin;
 343              		.loc 8 220 5 view .LVU80
 221:../../../libDaisy//src/daisy_core.h ****     return p;
 344              		.loc 8 221 5 view .LVU81
 222:../../../libDaisy//src/daisy_core.h **** }
 345              		.loc 8 222 5 view .LVU82
  76:LoopyTunes.cpp **** 	amp1.InitSingle(daisy::seed::A0);
 346              		.loc 7 76 1 is_stmt 0 view .LVU83
 347 0000 30B5     		push	{r4, r5, lr}
 348              		.cfi_def_cfa_offset 12
 349              		.cfi_offset 4, -12
 350              		.cfi_offset 5, -8
 351              		.cfi_offset 14, -4
 352 0002 0222     		movs	r2, #2
 353 0004 83B0     		sub	sp, sp, #12
 354              		.cfi_def_cfa_offset 24
 355 0006 0023     		movs	r3, #0
  77:LoopyTunes.cpp **** 	hw.adc.Init(&amp1, 1);
 356              		.loc 7 77 17 view .LVU84
 357 0008 0A4D     		ldr	r5, .L14
 358 000a 8DF80420 		strb	r2, [sp, #4]
 359 000e 8DF80530 		strb	r3, [sp, #5]
 360              	.LVL18:
  77:LoopyTunes.cpp **** 	hw.adc.Init(&amp1, 1);
 361              		.loc 7 77 17 view .LVU85
 362 0012 2846     		mov	r0, r5
  78:LoopyTunes.cpp **** 	hw.adc.Start();
 363              		.loc 7 78 13 view .LVU86
 364 0014 084C     		ldr	r4, .L14+4
  77:LoopyTunes.cpp **** 	hw.adc.Init(&amp1, 1);
 365              		.loc 7 77 17 view .LVU87
 366 0016 0199     		ldr	r1, [sp, #4]
 367 0018 FFF7FEFF 		bl	_ZN5daisy16AdcChannelConfig10InitSingleE12dsy_gpio_pin
ARM GAS  /var/folders/wz/z09yph4n0qj4t7mjxhl6ttn80000gn/T//ccBtkQIl.s 			page 22


 368              	.LVL19:
  78:LoopyTunes.cpp **** 	hw.adc.Start();
 369              		.loc 7 78 2 is_stmt 1 view .LVU88
  78:LoopyTunes.cpp **** 	hw.adc.Start();
 370              		.loc 7 78 13 is_stmt 0 view .LVU89
 371 001c 2046     		mov	r0, r4
 372 001e 0423     		movs	r3, #4
 373 0020 0122     		movs	r2, #1
 374 0022 2946     		mov	r1, r5
 375 0024 FFF7FEFF 		bl	_ZN5daisy9AdcHandle4InitEPNS_16AdcChannelConfigEjNS0_12OverSamplingE
 376              	.LVL20:
  79:LoopyTunes.cpp **** }
 377              		.loc 7 79 2 is_stmt 1 view .LVU90
  79:LoopyTunes.cpp **** }
 378              		.loc 7 79 14 is_stmt 0 view .LVU91
 379 0028 2046     		mov	r0, r4
  80:LoopyTunes.cpp **** 
 380              		.loc 7 80 1 view .LVU92
 381 002a 03B0     		add	sp, sp, #12
 382              		.cfi_def_cfa_offset 12
 383              		@ sp needed
 384 002c BDE83040 		pop	{r4, r5, lr}
 385              		.cfi_restore 14
 386              		.cfi_restore 5
 387              		.cfi_restore 4
 388              		.cfi_def_cfa_offset 0
  79:LoopyTunes.cpp **** }
 389              		.loc 7 79 14 view .LVU93
 390 0030 FFF7FEBF 		b	_ZN5daisy9AdcHandle5StartEv
 391              	.LVL21:
 392              	.L15:
 393              		.align	2
 394              	.L14:
 395 0034 00000000 		.word	.LANCHOR11
 396 0038 18000000 		.word	.LANCHOR1+24
 397              		.cfi_endproc
 398              	.LFE4806:
 400              		.section	.rodata._Z10pollInputsv.str1.4,"aMS",%progbits,1
 401              		.align	2
 402              	.LC0:
 403 0000 5265636F 		.ascii	"Record set\000"
 403      72642073 
 403      657400
 404 000b 00       		.align	2
 405              	.LC1:
 406 000c 506C6179 		.ascii	"Play set\000"
 406      20736574 
 406      00
 407              		.section	.text._Z10pollInputsv,"ax",%progbits
 408              		.align	1
 409              		.p2align 2,,3
 410              		.global	_Z10pollInputsv
 411              		.syntax unified
 412              		.thumb
 413              		.thumb_func
 415              	_Z10pollInputsv:
 416              	.LFB4807:
ARM GAS  /var/folders/wz/z09yph4n0qj4t7mjxhl6ttn80000gn/T//ccBtkQIl.s 			page 23


  83:LoopyTunes.cpp **** 	isRecord = record.Pressed();
 417              		.loc 7 83 1 is_stmt 1 view -0
 418              		.cfi_startproc
 419              		@ args = 0, pretend = 0, frame = 0
 420              		@ frame_needed = 0, uses_anonymous_args = 0
  84:LoopyTunes.cpp **** 	isPlay = play.Pressed();
 421              		.loc 7 84 2 view .LVU95
 422              	.LVL22:
 423              	.LBB157:
 424              	.LBI157:
  43:../../../libDaisy//src/hid/switch.h **** 
  44:../../../libDaisy//src/hid/switch.h ****     /** 
  45:../../../libDaisy//src/hid/switch.h ****     Initializes the switch object with a given port/pin combo.
  46:../../../libDaisy//src/hid/switch.h ****     \param pin port/pin object to tell the switch which hardware pin to use.
  47:../../../libDaisy//src/hid/switch.h ****     \param update_rate Does nothing. Backwards compatibility until next breaking update.
  48:../../../libDaisy//src/hid/switch.h ****     \param t switch type -- Default: TYPE_MOMENTARY
  49:../../../libDaisy//src/hid/switch.h ****     \param pol switch polarity -- Default: POLARITY_INVERTED
  50:../../../libDaisy//src/hid/switch.h ****     \param pu switch pull up/down -- Default: PULL_UP
  51:../../../libDaisy//src/hid/switch.h ****     */
  52:../../../libDaisy//src/hid/switch.h ****     void
  53:../../../libDaisy//src/hid/switch.h ****     Init(dsy_gpio_pin pin, float update_rate, Type t, Polarity pol, Pull pu);
  54:../../../libDaisy//src/hid/switch.h **** 
  55:../../../libDaisy//src/hid/switch.h ****     /**
  56:../../../libDaisy//src/hid/switch.h ****        Simplified Init.
  57:../../../libDaisy//src/hid/switch.h ****        \param pin port/pin object to tell the switch which hardware pin to use.
  58:../../../libDaisy//src/hid/switch.h ****        \param update_rate Left for backwards compatibility until next breaking change.
  59:../../../libDaisy//src/hid/switch.h ****     */
  60:../../../libDaisy//src/hid/switch.h ****     void Init(dsy_gpio_pin pin, float update_rate = 0.f);
  61:../../../libDaisy//src/hid/switch.h **** 
  62:../../../libDaisy//src/hid/switch.h ****     /** 
  63:../../../libDaisy//src/hid/switch.h ****     Called at update_rate to debounce and handle timing for the switch.
  64:../../../libDaisy//src/hid/switch.h ****     In order for events not to be missed, its important that the Edge/Pressed checks
  65:../../../libDaisy//src/hid/switch.h ****     be made at the same rate as the debounce function is being called.
  66:../../../libDaisy//src/hid/switch.h ****     */
  67:../../../libDaisy//src/hid/switch.h ****     void Debounce();
  68:../../../libDaisy//src/hid/switch.h **** 
  69:../../../libDaisy//src/hid/switch.h ****     /** \return true if a button was just pressed. */
  70:../../../libDaisy//src/hid/switch.h ****     inline bool RisingEdge() const { return updated_ ? state_ == 0x7f : false; }
  71:../../../libDaisy//src/hid/switch.h **** 
  72:../../../libDaisy//src/hid/switch.h ****     /** \return true if the button was just released */
  73:../../../libDaisy//src/hid/switch.h ****     inline bool FallingEdge() const
  74:../../../libDaisy//src/hid/switch.h ****     {
  75:../../../libDaisy//src/hid/switch.h ****         return updated_ ? state_ == 0x80 : false;
  76:../../../libDaisy//src/hid/switch.h ****     }
  77:../../../libDaisy//src/hid/switch.h **** 
  78:../../../libDaisy//src/hid/switch.h ****     /** \return true if the button is held down (or if the toggle is on) */
  79:../../../libDaisy//src/hid/switch.h ****     inline bool Pressed() const { return state_ == 0xff; }
 425              		.loc 1 79 17 view .LVU96
 426              	.LBB158:
 427              		.loc 1 79 35 view .LVU97
 428              		.loc 1 79 42 is_stmt 0 view .LVU98
 429 0000 1B4A     		ldr	r2, .L25
 430              	.LBE158:
 431              	.LBE157:
 432              	.LBB164:
 433              	.LBB165:
 434 0002 1C4B     		ldr	r3, .L25+4
ARM GAS  /var/folders/wz/z09yph4n0qj4t7mjxhl6ttn80000gn/T//ccBtkQIl.s 			page 24


 435              	.LBE165:
 436              	.LBE164:
  84:LoopyTunes.cpp **** 	isPlay = play.Pressed();
 437              		.loc 7 84 11 view .LVU99
 438 0004 1C49     		ldr	r1, .L25+8
  83:LoopyTunes.cpp **** 	isRecord = record.Pressed();
 439              		.loc 7 83 1 view .LVU100
 440 0006 10B5     		push	{r4, lr}
 441              		.cfi_def_cfa_offset 8
 442              		.cfi_offset 4, -8
 443              		.cfi_offset 14, -4
 444              	.LBB171:
 445              	.LBB159:
 446              		.loc 1 79 42 view .LVU101
 447 0008 927A     		ldrb	r2, [r2, #10]	@ zero_extendqisi2
 448              	.LVL23:
 449              		.loc 1 79 42 view .LVU102
 450              	.LBE159:
 451              	.LBE171:
 452              	.LBB172:
 453              	.LBB166:
 454              		.loc 1 79 52 view .LVU103
 455 000a 9B7A     		ldrb	r3, [r3, #10]	@ zero_extendqisi2
 456              	.LBE166:
 457              	.LBE172:
 458              	.LBB173:
 459              	.LBB160:
 460 000c A2F1FF00 		sub	r0, r2, #255
 461              	.LBE160:
 462              	.LBE173:
  85:LoopyTunes.cpp **** 
 463              		.loc 7 85 9 view .LVU104
 464 0010 1A4C     		ldr	r4, .L25+12
 465              	.LBB174:
 466              	.LBB167:
 467              		.loc 1 79 52 view .LVU105
 468 0012 A3F1FF03 		sub	r3, #255
 469              	.LBE167:
 470              	.LBE174:
  87:LoopyTunes.cpp **** 	{  
 471              		.loc 7 87 2 view .LVU106
 472 0016 FF2A     		cmp	r2, #255
 473              	.LBB175:
 474              	.LBB161:
 475              		.loc 1 79 52 view .LVU107
 476 0018 B0FA80F0 		clz	r0, r0
 477              	.LBE161:
 478              	.LBE175:
 479              	.LBB176:
 480              	.LBB168:
 481 001c B3FA83F3 		clz	r3, r3
 482              	.LBE168:
 483              	.LBE176:
 484              	.LBB177:
 485              	.LBB162:
 486 0020 4FEA5010 		lsr	r0, r0, #5
 487              	.LBE162:
ARM GAS  /var/folders/wz/z09yph4n0qj4t7mjxhl6ttn80000gn/T//ccBtkQIl.s 			page 25


 488              	.LBE177:
 489              	.LBB178:
 490              	.LBB169:
 491 0024 4FEA5313 		lsr	r3, r3, #5
 492              	.LBE169:
 493              	.LBE178:
 494              	.LBB179:
 495              	.LBB163:
 496 0028 0870     		strb	r0, [r1]
 497              	.LBE163:
 498              	.LBE179:
  85:LoopyTunes.cpp **** 
 499              		.loc 7 85 2 is_stmt 1 view .LVU108
 500              	.LVL24:
 501              	.LBB180:
 502              	.LBI164:
 503              		.loc 1 79 17 view .LVU109
 504              	.LBB170:
 505              		.loc 1 79 35 view .LVU110
 506              		.loc 1 79 52 is_stmt 0 view .LVU111
 507 002a 2370     		strb	r3, [r4]
 508              	.LBE170:
 509              	.LBE180:
  87:LoopyTunes.cpp **** 	{  
 510              		.loc 7 87 2 is_stmt 1 view .LVU112
 511 002c 09D0     		beq	.L23
  92:LoopyTunes.cpp **** 
 512              		.loc 7 92 2 view .LVU113
  92:LoopyTunes.cpp **** 
 513              		.loc 7 92 17 is_stmt 0 view .LVU114
 514 002e 1048     		ldr	r0, .L25
 515 0030 FFF7FEFF 		bl	_ZN5daisy6Switch8DebounceEv
 516              	.LVL25:
  94:LoopyTunes.cpp **** 	{ 
 517              		.loc 7 94 2 is_stmt 1 view .LVU115
 518 0034 2378     		ldrb	r3, [r4]	@ zero_extendqisi2
 519 0036 83B9     		cbnz	r3, .L24
 520              	.L18:
  99:LoopyTunes.cpp **** }
 521              		.loc 7 99 2 view .LVU116
  99:LoopyTunes.cpp **** }
 522              		.loc 7 99 15 is_stmt 0 view .LVU117
 523 0038 0E48     		ldr	r0, .L25+4
 100:LoopyTunes.cpp **** 
 524              		.loc 7 100 1 view .LVU118
 525 003a BDE81040 		pop	{r4, lr}
 526              		.cfi_remember_state
 527              		.cfi_restore 14
 528              		.cfi_restore 4
 529              		.cfi_def_cfa_offset 0
  99:LoopyTunes.cpp **** }
 530              		.loc 7 99 15 view .LVU119
 531 003e FFF7FEBF 		b	_ZN5daisy6Switch8DebounceEv
 532              	.LVL26:
 533              	.L23:
 534              		.cfi_restore_state
  89:LoopyTunes.cpp **** 		hw.PrintLine("Record set");
ARM GAS  /var/folders/wz/z09yph4n0qj4t7mjxhl6ttn80000gn/T//ccBtkQIl.s 			page 26


 535              		.loc 7 89 3 is_stmt 1 view .LVU120
 536              	.LBB181:
 537              	.LBI181:
 538              		.file 9 "DSP/Mixer.h"
   1:DSP/Mixer.h   **** #include "Track.h"
   2:DSP/Mixer.h   **** 
   3:DSP/Mixer.h   **** /********************************************//**
   4:DSP/Mixer.h   ****  *  Class name: Mixer
   5:DSP/Mixer.h   ****  *  Function: Mixes outputs of track classes
   6:DSP/Mixer.h   ****  ***********************************************/
   7:DSP/Mixer.h   **** 
   8:DSP/Mixer.h   **** class Mixer
   9:DSP/Mixer.h   **** {
  10:DSP/Mixer.h   **** public:
  11:DSP/Mixer.h   **** 
  12:DSP/Mixer.h   ****     void init(daisy::DaisySeed* seed, float* t1[2], float* t2[2], float* t3[2], float* t4[2]); 
  13:DSP/Mixer.h   ****     void initParameters();
  14:DSP/Mixer.h   ****     
  15:DSP/Mixer.h   ****     void prepare();
  16:DSP/Mixer.h   ****     void tick();
  17:DSP/Mixer.h   **** 
  18:DSP/Mixer.h   ****     void processInputBlock(const float* left, const float* right, size_t size);
  19:DSP/Mixer.h   ****     void processOutputBlock(float* left, float* right, size_t size);
  20:DSP/Mixer.h   **** 
  21:DSP/Mixer.h   ****     void setIsRecording() { track1.track.setIsRecording(); }
 539              		.loc 9 21 10 view .LVU121
 540              	.LBB182:
 541              		.loc 9 21 29 view .LVU122
 542              		.loc 9 21 56 is_stmt 0 view .LVU123
 543 0042 0F48     		ldr	r0, .L25+16
 544 0044 FFF7FEFF 		bl	_ZN5Track14setIsRecordingEv
 545              	.LVL27:
 546              		.loc 9 21 56 view .LVU124
 547              	.LBE182:
 548              	.LBE181:
  90:LoopyTunes.cpp **** 	}
 549              		.loc 7 90 3 is_stmt 1 view .LVU125
 550              	.LBB183:
 551              	.LBI183:
  23:../../../libDaisy//src/daisy_seed.h **** 
  24:../../../libDaisy//src/daisy_seed.h ****     /** This function used to provide a pre-initialization configuraiton 
  25:../../../libDaisy//src/daisy_seed.h ****      *  it has since been deprecated, and does nothing.
  26:../../../libDaisy//src/daisy_seed.h ****      */
  27:../../../libDaisy//src/daisy_seed.h ****     void Configure();
  28:../../../libDaisy//src/daisy_seed.h **** 
  29:../../../libDaisy//src/daisy_seed.h ****     /** 
  30:../../../libDaisy//src/daisy_seed.h ****     Initializes the Daisy Seed and the following peripherals:
  31:../../../libDaisy//src/daisy_seed.h ****     SDRAM, QSPI, 24-bit 48kHz Audio via AK4556, Internal USB,
  32:../../../libDaisy//src/daisy_seed.h ****     as well as the built-in LED and Testpoint.
  33:../../../libDaisy//src/daisy_seed.h **** 
  34:../../../libDaisy//src/daisy_seed.h ****     ADCs, DACs, and other special peripherals (such as I2C, SPI, etc.)
  35:../../../libDaisy//src/daisy_seed.h ****     can be initialized using their specific initializers within libdaisy
  36:../../../libDaisy//src/daisy_seed.h ****     for a specific application.
  37:../../../libDaisy//src/daisy_seed.h ****     */
  38:../../../libDaisy//src/daisy_seed.h ****     void Init(bool boost = false);
  39:../../../libDaisy//src/daisy_seed.h **** 
  40:../../../libDaisy//src/daisy_seed.h ****     /** 
ARM GAS  /var/folders/wz/z09yph4n0qj4t7mjxhl6ttn80000gn/T//ccBtkQIl.s 			page 27


  41:../../../libDaisy//src/daisy_seed.h ****     Deinitializes all peripherals automatically handled by `Init`.
  42:../../../libDaisy//src/daisy_seed.h ****     */
  43:../../../libDaisy//src/daisy_seed.h ****     void DeInit();
  44:../../../libDaisy//src/daisy_seed.h **** 
  45:../../../libDaisy//src/daisy_seed.h ****     /** 
  46:../../../libDaisy//src/daisy_seed.h ****     Wait some ms before going on.
  47:../../../libDaisy//src/daisy_seed.h ****     \param del Delay time in ms.
  48:../../../libDaisy//src/daisy_seed.h ****     */
  49:../../../libDaisy//src/daisy_seed.h ****     void DelayMs(size_t del);
  50:../../../libDaisy//src/daisy_seed.h **** 
  51:../../../libDaisy//src/daisy_seed.h ****     /** 
  52:../../../libDaisy//src/daisy_seed.h ****     Returns the gpio_pin corresponding to the index 0-31.
  53:../../../libDaisy//src/daisy_seed.h ****     For the given GPIO on the Daisy Seed (labeled 1-32 in docs).
  54:../../../libDaisy//src/daisy_seed.h ****     */
  55:../../../libDaisy//src/daisy_seed.h ****     static dsy_gpio_pin GetPin(uint8_t pin_idx);
  56:../../../libDaisy//src/daisy_seed.h **** 
  57:../../../libDaisy//src/daisy_seed.h ****     /** Begins the audio for the seeds builtin audio.
  58:../../../libDaisy//src/daisy_seed.h ****     the specified callback will get called whenever
  59:../../../libDaisy//src/daisy_seed.h ****     new data is ready to be prepared.
  60:../../../libDaisy//src/daisy_seed.h ****     */
  61:../../../libDaisy//src/daisy_seed.h ****     void StartAudio(AudioHandle::InterleavingAudioCallback cb);
  62:../../../libDaisy//src/daisy_seed.h **** 
  63:../../../libDaisy//src/daisy_seed.h ****     /** Begins the audio for the seeds builtin audio.
  64:../../../libDaisy//src/daisy_seed.h ****     the specified callback will get called whenever
  65:../../../libDaisy//src/daisy_seed.h ****     new data is ready to be prepared.
  66:../../../libDaisy//src/daisy_seed.h ****     This will use the newer non-interleaved callback.
  67:../../../libDaisy//src/daisy_seed.h ****     */
  68:../../../libDaisy//src/daisy_seed.h ****     void StartAudio(AudioHandle::AudioCallback cb);
  69:../../../libDaisy//src/daisy_seed.h **** 
  70:../../../libDaisy//src/daisy_seed.h ****     /** Changes to a new interleaved callback
  71:../../../libDaisy//src/daisy_seed.h ****      */
  72:../../../libDaisy//src/daisy_seed.h ****     void ChangeAudioCallback(AudioHandle::InterleavingAudioCallback cb);
  73:../../../libDaisy//src/daisy_seed.h **** 
  74:../../../libDaisy//src/daisy_seed.h ****     /** Changes to a new multichannel callback
  75:../../../libDaisy//src/daisy_seed.h ****      */
  76:../../../libDaisy//src/daisy_seed.h ****     void ChangeAudioCallback(AudioHandle::AudioCallback cb);
  77:../../../libDaisy//src/daisy_seed.h **** 
  78:../../../libDaisy//src/daisy_seed.h ****     /** Stops the audio if it is running. */
  79:../../../libDaisy//src/daisy_seed.h ****     void StopAudio();
  80:../../../libDaisy//src/daisy_seed.h **** 
  81:../../../libDaisy//src/daisy_seed.h ****     /** Updates the Audio Sample Rate, and reinitializes.
  82:../../../libDaisy//src/daisy_seed.h ****      ** Audio must be stopped for this to work.
  83:../../../libDaisy//src/daisy_seed.h ****      */
  84:../../../libDaisy//src/daisy_seed.h ****     void SetAudioSampleRate(SaiHandle::Config::SampleRate samplerate);
  85:../../../libDaisy//src/daisy_seed.h **** 
  86:../../../libDaisy//src/daisy_seed.h ****     /** Returns the audio sample rate in Hz as a floating point number.
  87:../../../libDaisy//src/daisy_seed.h ****      */
  88:../../../libDaisy//src/daisy_seed.h ****     float AudioSampleRate();
  89:../../../libDaisy//src/daisy_seed.h **** 
  90:../../../libDaisy//src/daisy_seed.h ****     /** Sets the number of samples processed per channel by the audio callback.
  91:../../../libDaisy//src/daisy_seed.h ****      */
  92:../../../libDaisy//src/daisy_seed.h ****     void SetAudioBlockSize(size_t blocksize);
  93:../../../libDaisy//src/daisy_seed.h **** 
  94:../../../libDaisy//src/daisy_seed.h ****     /** Returns the number of samples per channel in a block of audio. */
  95:../../../libDaisy//src/daisy_seed.h ****     size_t AudioBlockSize();
  96:../../../libDaisy//src/daisy_seed.h **** 
  97:../../../libDaisy//src/daisy_seed.h ****     /** Returns the rate in Hz that the Audio callback is called */
ARM GAS  /var/folders/wz/z09yph4n0qj4t7mjxhl6ttn80000gn/T//ccBtkQIl.s 			page 28


  98:../../../libDaisy//src/daisy_seed.h ****     float AudioCallbackRate() const;
  99:../../../libDaisy//src/daisy_seed.h **** 
 100:../../../libDaisy//src/daisy_seed.h ****     /** Sets the state of the built in LED
 101:../../../libDaisy//src/daisy_seed.h ****      */
 102:../../../libDaisy//src/daisy_seed.h ****     void SetLed(bool state);
 103:../../../libDaisy//src/daisy_seed.h **** 
 104:../../../libDaisy//src/daisy_seed.h ****     /** Sets the state of the test point near pin 10
 105:../../../libDaisy//src/daisy_seed.h ****      */
 106:../../../libDaisy//src/daisy_seed.h ****     void SetTestPoint(bool state);
 107:../../../libDaisy//src/daisy_seed.h **** 
 108:../../../libDaisy//src/daisy_seed.h ****     /** Print formatted debug log message
 109:../../../libDaisy//src/daisy_seed.h ****      */
 110:../../../libDaisy//src/daisy_seed.h ****     template <typename... VA>
 111:../../../libDaisy//src/daisy_seed.h ****     static void Print(const char* format, VA... va)
 112:../../../libDaisy//src/daisy_seed.h ****     {
 113:../../../libDaisy//src/daisy_seed.h ****         Log::Print(format, va...);
 114:../../../libDaisy//src/daisy_seed.h ****     }
 115:../../../libDaisy//src/daisy_seed.h **** 
 116:../../../libDaisy//src/daisy_seed.h ****     /** Print formatted debug log message with automatic line termination
 117:../../../libDaisy//src/daisy_seed.h ****     */
 118:../../../libDaisy//src/daisy_seed.h ****     template <typename... VA>
 119:../../../libDaisy//src/daisy_seed.h ****     static void PrintLine(const char* format, VA... va)
 552              		.loc 2 119 17 view .LVU126
 553              	.LBB184:
 120:../../../libDaisy//src/daisy_seed.h ****     {
 121:../../../libDaisy//src/daisy_seed.h ****         Log::PrintLine(format, va...);
 554              		.loc 2 121 23 is_stmt 0 view .LVU127
 555 0048 0E48     		ldr	r0, .L25+20
 556 004a FFF7FEFF 		bl	_ZN5daisy6LoggerILNS_17LoggerDestinationE1EE9PrintLineEPKcz
 557              	.LVL28:
 558              		.loc 2 121 23 view .LVU128
 559              	.LBE184:
 560              	.LBE183:
  92:LoopyTunes.cpp **** 
 561              		.loc 7 92 2 is_stmt 1 view .LVU129
  92:LoopyTunes.cpp **** 
 562              		.loc 7 92 17 is_stmt 0 view .LVU130
 563 004e 0848     		ldr	r0, .L25
 564 0050 FFF7FEFF 		bl	_ZN5daisy6Switch8DebounceEv
 565              	.LVL29:
  94:LoopyTunes.cpp **** 	{ 
 566              		.loc 7 94 2 is_stmt 1 view .LVU131
 567 0054 2378     		ldrb	r3, [r4]	@ zero_extendqisi2
 568 0056 002B     		cmp	r3, #0
 569 0058 EED0     		beq	.L18
 570              	.L24:
  96:LoopyTunes.cpp **** 		hw.PrintLine("Play set");
 571              		.loc 7 96 3 view .LVU132
 572              	.LVL30:
 573              	.LBB185:
 574              	.LBI185:
  22:DSP/Mixer.h   ****     void setIsPlaying() { track1.track.setIsPlaying(); }
 575              		.loc 9 22 10 view .LVU133
 576              	.LBB186:
 577              		.loc 9 22 27 view .LVU134
 578              		.loc 9 22 52 is_stmt 0 view .LVU135
 579 005a 0948     		ldr	r0, .L25+16
ARM GAS  /var/folders/wz/z09yph4n0qj4t7mjxhl6ttn80000gn/T//ccBtkQIl.s 			page 29


 580 005c FFF7FEFF 		bl	_ZN5Track12setIsPlayingEv
 581              	.LVL31:
 582              		.loc 9 22 52 view .LVU136
 583              	.LBE186:
 584              	.LBE185:
  97:LoopyTunes.cpp **** 	}
 585              		.loc 7 97 3 is_stmt 1 view .LVU137
 586              	.LBB187:
 587              	.LBI187:
 119:../../../libDaisy//src/daisy_seed.h ****     {
 588              		.loc 2 119 17 view .LVU138
 589              	.LBB188:
 590              		.loc 2 121 23 is_stmt 0 view .LVU139
 591 0060 0948     		ldr	r0, .L25+24
 592 0062 FFF7FEFF 		bl	_ZN5daisy6LoggerILNS_17LoggerDestinationE1EE9PrintLineEPKcz
 593              	.LVL32:
 594              		.loc 2 121 23 view .LVU140
 595              	.LBE188:
 596              	.LBE187:
  99:LoopyTunes.cpp **** }
 597              		.loc 7 99 2 is_stmt 1 view .LVU141
  99:LoopyTunes.cpp **** }
 598              		.loc 7 99 15 is_stmt 0 view .LVU142
 599 0066 0348     		ldr	r0, .L25+4
 100:LoopyTunes.cpp **** 
 600              		.loc 7 100 1 view .LVU143
 601 0068 BDE81040 		pop	{r4, lr}
 602              		.cfi_restore 14
 603              		.cfi_restore 4
 604              		.cfi_def_cfa_offset 0
  99:LoopyTunes.cpp **** }
 605              		.loc 7 99 15 view .LVU144
 606 006c FFF7FEBF 		b	_ZN5daisy6Switch8DebounceEv
 607              	.LVL33:
 608              	.L26:
 609              		.align	2
 610              	.L25:
 611 0070 00000000 		.word	.LANCHOR3
 612 0074 00000000 		.word	.LANCHOR4
 613 0078 00000000 		.word	.LANCHOR5
 614 007c 00000000 		.word	.LANCHOR6
 615 0080 00000000 		.word	.LANCHOR0
 616 0084 00000000 		.word	.LC0
 617 0088 0C000000 		.word	.LC1
 618              		.cfi_endproc
 619              	.LFE4807:
 621              		.section	.text.startup.main,"ax",%progbits
 622              		.align	1
 623              		.p2align 2,,3
 624              		.global	main
 625              		.syntax unified
 626              		.thumb
 627              		.thumb_func
 629              	main:
 630              	.LFB4809:
 107:LoopyTunes.cpp **** 
 108:LoopyTunes.cpp **** int main(void)
ARM GAS  /var/folders/wz/z09yph4n0qj4t7mjxhl6ttn80000gn/T//ccBtkQIl.s 			page 30


 109:LoopyTunes.cpp **** {
 631              		.loc 7 109 1 is_stmt 1 view -0
 632              		.cfi_startproc
 633              		@ Volatile: function does not return.
 634              		@ args = 0, pretend = 0, frame = 0
 635              		@ frame_needed = 0, uses_anonymous_args = 0
 110:LoopyTunes.cpp **** 	init();
 636              		.loc 7 110 2 view .LVU146
 109:LoopyTunes.cpp **** 	init();
 637              		.loc 7 109 1 is_stmt 0 view .LVU147
 638 0000 08B5     		push	{r3, lr}
 639              		.cfi_def_cfa_offset 8
 640              		.cfi_offset 3, -8
 641              		.cfi_offset 14, -4
 642              		.loc 7 110 6 view .LVU148
 643 0002 FFF7FEFF 		bl	_Z4initv
 644              	.LVL34:
 111:LoopyTunes.cpp **** 	initADC();
 645              		.loc 7 111 2 is_stmt 1 view .LVU149
 646              		.loc 7 111 9 is_stmt 0 view .LVU150
 647 0006 FFF7FEFF 		bl	_Z7initADCv
 648              	.LVL35:
 112:LoopyTunes.cpp **** 
 113:LoopyTunes.cpp **** 	hw.StartLog();
 649              		.loc 7 113 2 is_stmt 1 view .LVU151
 650              	.LBB189:
 651              	.LBI189:
 122:../../../libDaisy//src/daisy_seed.h ****     }
 123:../../../libDaisy//src/daisy_seed.h **** 
 124:../../../libDaisy//src/daisy_seed.h ****     /** Start the logging session. Optionally wait for terminal connection before proceeding.
 125:../../../libDaisy//src/daisy_seed.h ****     */
 126:../../../libDaisy//src/daisy_seed.h ****     static void StartLog(bool wait_for_pc = false)
 652              		.loc 2 126 17 view .LVU152
 653              	.LBB190:
 127:../../../libDaisy//src/daisy_seed.h ****     {
 128:../../../libDaisy//src/daisy_seed.h ****         Log::StartLog(wait_for_pc);
 654              		.loc 2 128 9 view .LVU153
 655              		.loc 2 128 22 is_stmt 0 view .LVU154
 656 000a 0020     		movs	r0, #0
 657 000c FFF7FEFF 		bl	_ZN5daisy6LoggerILNS_17LoggerDestinationE1EE8StartLogEb
 658              	.LVL36:
 659              		.loc 2 128 22 view .LVU155
 660              	.LBE190:
 661              	.LBE189:
 114:LoopyTunes.cpp **** 	hw.StartAudio(AudioCallback);
 662              		.loc 7 114 2 is_stmt 1 view .LVU156
 663              		.loc 7 114 15 is_stmt 0 view .LVU157
 664 0010 0449     		ldr	r1, .L30
 665 0012 0548     		ldr	r0, .L30+4
 666 0014 FFF7FEFF 		bl	_ZN5daisy9DaisySeed10StartAudioEPFvPKPKfPPfjE
 667              	.LVL37:
 668              	.L28:
 115:LoopyTunes.cpp **** 
 116:LoopyTunes.cpp **** 	while(1) 
 669              		.loc 7 116 2 is_stmt 1 discriminator 1 view .LVU158
 117:LoopyTunes.cpp **** 	{
 118:LoopyTunes.cpp **** 		pollInputs();
ARM GAS  /var/folders/wz/z09yph4n0qj4t7mjxhl6ttn80000gn/T//ccBtkQIl.s 			page 31


 670              		.loc 7 118 3 discriminator 1 view .LVU159
 671              		.loc 7 118 13 is_stmt 0 discriminator 1 view .LVU160
 672 0018 FFF7FEFF 		bl	_Z10pollInputsv
 673              	.LVL38:
 119:LoopyTunes.cpp **** 		mixer.tick();
 674              		.loc 7 119 3 is_stmt 1 discriminator 1 view .LVU161
 675              		.loc 7 119 13 is_stmt 0 discriminator 1 view .LVU162
 676 001c 0348     		ldr	r0, .L30+8
 677 001e FFF7FEFF 		bl	_ZN5Mixer4tickEv
 678              	.LVL39:
 116:LoopyTunes.cpp **** 	{
 679              		.loc 7 116 2 is_stmt 1 discriminator 1 view .LVU163
 680 0022 F9E7     		b	.L28
 681              	.L31:
 682              		.align	2
 683              	.L30:
 684 0024 00000000 		.word	_Z13AudioCallbackPKPKfPPfj
 685 0028 00000000 		.word	.LANCHOR1
 686 002c 00000000 		.word	.LANCHOR0
 687              		.cfi_endproc
 688              	.LFE4809:
 690              		.section	.text.startup._GLOBAL__sub_I_hw,"ax",%progbits
 691              		.align	1
 692              		.p2align 2,,3
 693              		.syntax unified
 694              		.thumb
 695              		.thumb_func
 697              	_GLOBAL__sub_I_hw:
 698              	.LFB5370:
 120:LoopyTunes.cpp **** 	}
 121:LoopyTunes.cpp **** }
 699              		.loc 7 121 1 view -0
 700              		.cfi_startproc
 701              		@ args = 0, pretend = 0, frame = 0
 702              		@ frame_needed = 0, uses_anonymous_args = 0
 703              	.LBB227:
 704              	.LBI227:
 705              		.loc 7 121 1 view .LVU165
 706              	.LVL40:
 707              	.LBB228:
 708              	.LBB229:
 709              	.LBI229:
  21:../../../libDaisy//src/daisy_seed.h ****     ~DaisySeed() {}
 710              		.loc 2 21 5 view .LVU166
 711              	.LBB230:
 712              	.LBB231:
 713              	.LBI231:
 714              		.file 10 "../../../libDaisy//src/per/qspi.h"
   1:../../../libDaisy//src/per/qspi.h **** #ifndef DSY_QSPI
   2:../../../libDaisy//src/per/qspi.h **** #define DSY_QSPI /**< Macro */
   3:../../../libDaisy//src/per/qspi.h **** 
   4:../../../libDaisy//src/per/qspi.h **** #ifndef UNIT_TEST // for unit tests, a dummy implementation
   5:../../../libDaisy//src/per/qspi.h **** 
   6:../../../libDaisy//src/per/qspi.h **** #include <cstdint>
   7:../../../libDaisy//src/per/qspi.h **** #include "daisy_core.h" // Added for dsy_gpio_pin typedef
   8:../../../libDaisy//src/per/qspi.h **** 
   9:../../../libDaisy//src/per/qspi.h **** #define DSY_QSPI_TEXT       \
ARM GAS  /var/folders/wz/z09yph4n0qj4t7mjxhl6ttn80000gn/T//ccBtkQIl.s 			page 32


  10:../../../libDaisy//src/per/qspi.h ****     __attribute__((section( \
  11:../../../libDaisy//src/per/qspi.h ****         ".qspiflash_text"))) /**< used for reading memory in memory_mapped mode. */
  12:../../../libDaisy//src/per/qspi.h **** #define DSY_QSPI_DATA       \
  13:../../../libDaisy//src/per/qspi.h ****     __attribute__((section( \
  14:../../../libDaisy//src/per/qspi.h ****         ".qspiflash_data"))) /**< used for reading memory in memory_mapped mode. */
  15:../../../libDaisy//src/per/qspi.h **** #define DSY_QSPI_BSS        \
  16:../../../libDaisy//src/per/qspi.h ****     __attribute__((section( \
  17:../../../libDaisy//src/per/qspi.h ****         ".qspiflash_bss"))) /**< used for reading memory in memory_mapped mode. */
  18:../../../libDaisy//src/per/qspi.h **** 
  19:../../../libDaisy//src/per/qspi.h **** namespace daisy
  20:../../../libDaisy//src/per/qspi.h **** {
  21:../../../libDaisy//src/per/qspi.h **** /** @addtogroup serial
  22:../../../libDaisy//src/per/qspi.h **** @{
  23:../../../libDaisy//src/per/qspi.h **** */
  24:../../../libDaisy//src/per/qspi.h **** 
  25:../../../libDaisy//src/per/qspi.h **** /** 
  26:../../../libDaisy//src/per/qspi.h ****  Driver for QSPI peripheral to interface with external flash memory. \n 
  27:../../../libDaisy//src/per/qspi.h ****     Currently supported QSPI Devices: \n 
  28:../../../libDaisy//src/per/qspi.h ****     * IS25LP080D
  29:../../../libDaisy//src/per/qspi.h **** */
  30:../../../libDaisy//src/per/qspi.h **** class QSPIHandle
  31:../../../libDaisy//src/per/qspi.h **** {
  32:../../../libDaisy//src/per/qspi.h ****   public:
  33:../../../libDaisy//src/per/qspi.h ****     enum Result
  34:../../../libDaisy//src/per/qspi.h ****     {
  35:../../../libDaisy//src/per/qspi.h ****         OK = 0,
  36:../../../libDaisy//src/per/qspi.h ****         ERR
  37:../../../libDaisy//src/per/qspi.h ****     };
  38:../../../libDaisy//src/per/qspi.h **** 
  39:../../../libDaisy//src/per/qspi.h ****     /** Indicates the current status of the module. 
  40:../../../libDaisy//src/per/qspi.h ****          *  Warnings are indicated by a leading W.
  41:../../../libDaisy//src/per/qspi.h ****          *  Errors are indicated by a leading E and cause an immediate exit.
  42:../../../libDaisy//src/per/qspi.h ****          * 
  43:../../../libDaisy//src/per/qspi.h ****          *  \param GOOD - No errors have been reported.
  44:../../../libDaisy//src/per/qspi.h ****          *  \param E_HAL_ERROR - HAL code did not return HAL_OK.
  45:../../../libDaisy//src/per/qspi.h ****          *  \param E_SWITCHING_MODES - An error was encountered while switching QSPI peripheral mod
  46:../../../libDaisy//src/per/qspi.h ****          *  \param E_INVALID_MODE - QSPI should not be written to while the program is executing fr
  47:../../../libDaisy//src/per/qspi.h ****          */
  48:../../../libDaisy//src/per/qspi.h ****     enum Status
  49:../../../libDaisy//src/per/qspi.h ****     {
  50:../../../libDaisy//src/per/qspi.h ****         GOOD = 0,
  51:../../../libDaisy//src/per/qspi.h ****         E_HAL_ERROR,
  52:../../../libDaisy//src/per/qspi.h ****         E_SWITCHING_MODES,
  53:../../../libDaisy//src/per/qspi.h ****         E_INVALID_MODE,
  54:../../../libDaisy//src/per/qspi.h ****     };
  55:../../../libDaisy//src/per/qspi.h **** 
  56:../../../libDaisy//src/per/qspi.h ****     /** Configuration structure for interfacing with QSPI Driver */
  57:../../../libDaisy//src/per/qspi.h ****     struct Config
  58:../../../libDaisy//src/per/qspi.h ****     {
  59:../../../libDaisy//src/per/qspi.h ****         /** Flash Devices supported. (Both of these are more-or-less the same, just different sizes
  60:../../../libDaisy//src/per/qspi.h ****         enum Device
  61:../../../libDaisy//src/per/qspi.h ****         {
  62:../../../libDaisy//src/per/qspi.h ****             IS25LP080D,  /**< & */
  63:../../../libDaisy//src/per/qspi.h ****             IS25LP064A,  /**< & */
  64:../../../libDaisy//src/per/qspi.h ****             DEVICE_LAST, /**< & */
  65:../../../libDaisy//src/per/qspi.h ****         };
  66:../../../libDaisy//src/per/qspi.h **** 
ARM GAS  /var/folders/wz/z09yph4n0qj4t7mjxhl6ttn80000gn/T//ccBtkQIl.s 			page 33


  67:../../../libDaisy//src/per/qspi.h ****         /** 
  68:../../../libDaisy//src/per/qspi.h ****         Modes of operation.
  69:../../../libDaisy//src/per/qspi.h ****         Memory Mapped mode: QSPI configured so that the QSPI can be
  70:../../../libDaisy//src/per/qspi.h ****         read from starting address 0x90000000. Writing is not
  71:../../../libDaisy//src/per/qspi.h ****         possible in this mode. \n 
  72:../../../libDaisy//src/per/qspi.h ****         Indirect Polling mode: Device driver enabled. 
  73:../../../libDaisy//src/per/qspi.h ****         */
  74:../../../libDaisy//src/per/qspi.h ****         enum Mode
  75:../../../libDaisy//src/per/qspi.h ****         {
  76:../../../libDaisy//src/per/qspi.h ****             MEMORY_MAPPED,    /**< & */
  77:../../../libDaisy//src/per/qspi.h ****             INDIRECT_POLLING, /**< & */
  78:../../../libDaisy//src/per/qspi.h ****             MODE_LAST,
  79:../../../libDaisy//src/per/qspi.h ****         };
  80:../../../libDaisy//src/per/qspi.h **** 
  81:../../../libDaisy//src/per/qspi.h ****         //SCK,  CE# (active low)
  82:../../../libDaisy//src/per/qspi.h ****         struct
  83:../../../libDaisy//src/per/qspi.h ****         {
  84:../../../libDaisy//src/per/qspi.h ****             dsy_gpio_pin io0; /**< & */
  85:../../../libDaisy//src/per/qspi.h ****             dsy_gpio_pin io1; /**< & */
  86:../../../libDaisy//src/per/qspi.h ****             dsy_gpio_pin io2; /**< & */
  87:../../../libDaisy//src/per/qspi.h ****             dsy_gpio_pin io3; /**< & */
  88:../../../libDaisy//src/per/qspi.h ****             dsy_gpio_pin clk; /**< & */
  89:../../../libDaisy//src/per/qspi.h ****             dsy_gpio_pin ncs; /**< & */
  90:../../../libDaisy//src/per/qspi.h ****         } pin_config;
  91:../../../libDaisy//src/per/qspi.h **** 
  92:../../../libDaisy//src/per/qspi.h ****         Device device;
  93:../../../libDaisy//src/per/qspi.h ****         Mode   mode;
  94:../../../libDaisy//src/per/qspi.h ****     };
  95:../../../libDaisy//src/per/qspi.h **** 
  96:../../../libDaisy//src/per/qspi.h ****     /** 
  97:../../../libDaisy//src/per/qspi.h ****         Initializes QSPI peripheral, and Resets, and prepares memory for access.
  98:../../../libDaisy//src/per/qspi.h ****         \param config should be populated with the mode, device and pin_config before calling this 
  99:../../../libDaisy//src/per/qspi.h ****         \return Result::OK or Result::ERR
 100:../../../libDaisy//src/per/qspi.h ****         */
 101:../../../libDaisy//src/per/qspi.h ****     Result Init(const Config& config);
 102:../../../libDaisy//src/per/qspi.h **** 
 103:../../../libDaisy//src/per/qspi.h ****     /** Returns the current config. */
 104:../../../libDaisy//src/per/qspi.h ****     const Config& GetConfig() const;
 105:../../../libDaisy//src/per/qspi.h **** 
 106:../../../libDaisy//src/per/qspi.h ****     // Couldn't this just be called before anything else in init? That
 107:../../../libDaisy//src/per/qspi.h ****     // would make manually calling it unnecessary.
 108:../../../libDaisy//src/per/qspi.h ****     /** 
 109:../../../libDaisy//src/per/qspi.h ****         Deinitializes the peripheral
 110:../../../libDaisy//src/per/qspi.h ****         This should be called before reinitializing QSPI in a different mode.
 111:../../../libDaisy//src/per/qspi.h ****         \return Result::OK or Result::ERR
 112:../../../libDaisy//src/per/qspi.h ****         */
 113:../../../libDaisy//src/per/qspi.h ****     Result DeInit();
 114:../../../libDaisy//src/per/qspi.h **** 
 115:../../../libDaisy//src/per/qspi.h ****     /** 
 116:../../../libDaisy//src/per/qspi.h ****         Writes a single page to to the specified address on the QSPI chip.
 117:../../../libDaisy//src/per/qspi.h ****         For IS25LP*, page size is 256 bytes.
 118:../../../libDaisy//src/per/qspi.h ****         \param address Address to write to
 119:../../../libDaisy//src/per/qspi.h ****         \param size Buffer size
 120:../../../libDaisy//src/per/qspi.h ****         \param buffer Buffer to write
 121:../../../libDaisy//src/per/qspi.h ****         \return Result::OK or Result::ERR
 122:../../../libDaisy//src/per/qspi.h ****         */
 123:../../../libDaisy//src/per/qspi.h ****     Result WritePage(uint32_t address, uint32_t size, uint8_t* buffer);
ARM GAS  /var/folders/wz/z09yph4n0qj4t7mjxhl6ttn80000gn/T//ccBtkQIl.s 			page 34


 124:../../../libDaisy//src/per/qspi.h **** 
 125:../../../libDaisy//src/per/qspi.h ****     /** 
 126:../../../libDaisy//src/per/qspi.h ****         Writes data in buffer to to the QSPI. Starting at address to address+size 
 127:../../../libDaisy//src/per/qspi.h ****         \param address Address to write to
 128:../../../libDaisy//src/per/qspi.h ****         \param size Buffer size
 129:../../../libDaisy//src/per/qspi.h ****         \param buffer Buffer to write
 130:../../../libDaisy//src/per/qspi.h ****         \return Result::OK or Result::ERR
 131:../../../libDaisy//src/per/qspi.h ****         */
 132:../../../libDaisy//src/per/qspi.h ****     Result Write(uint32_t address, uint32_t size, uint8_t* buffer);
 133:../../../libDaisy//src/per/qspi.h **** 
 134:../../../libDaisy//src/per/qspi.h ****     /** 
 135:../../../libDaisy//src/per/qspi.h ****         Erases the area specified on the chip.
 136:../../../libDaisy//src/per/qspi.h ****         Erasures will happen by 4K, 32K or 64K increments.
 137:../../../libDaisy//src/per/qspi.h ****         Smallest erase possible is 4kB at a time. (on IS25LP*)
 138:../../../libDaisy//src/per/qspi.h ****         \param start_addr Address to begin erasing from
 139:../../../libDaisy//src/per/qspi.h ****         \param end_addr  Address to stop erasing at
 140:../../../libDaisy//src/per/qspi.h ****         \return Result::OK or Result::ERR
 141:../../../libDaisy//src/per/qspi.h ****         */
 142:../../../libDaisy//src/per/qspi.h ****     Result Erase(uint32_t start_addr, uint32_t end_addr);
 143:../../../libDaisy//src/per/qspi.h **** 
 144:../../../libDaisy//src/per/qspi.h ****     /**  
 145:../../../libDaisy//src/per/qspi.h ****          Erases a single sector of the chip.  
 146:../../../libDaisy//src/per/qspi.h ****         TODO: Document the size of this function. 
 147:../../../libDaisy//src/per/qspi.h ****         \param address Address of sector to erase
 148:../../../libDaisy//src/per/qspi.h ****         \return Result::OK or Result::ERR
 149:../../../libDaisy//src/per/qspi.h ****         */
 150:../../../libDaisy//src/per/qspi.h ****     Result EraseSector(uint32_t address);
 151:../../../libDaisy//src/per/qspi.h **** 
 152:../../../libDaisy//src/per/qspi.h ****     /** Returns the current class status. Useful for debugging.
 153:../../../libDaisy//src/per/qspi.h ****      *  \returns Status
 154:../../../libDaisy//src/per/qspi.h ****      */
 155:../../../libDaisy//src/per/qspi.h ****     Status GetStatus();
 156:../../../libDaisy//src/per/qspi.h **** 
 157:../../../libDaisy//src/per/qspi.h ****     /** Returns a pointer to the actual memory used 
 158:../../../libDaisy//src/per/qspi.h ****      *  The memory at this address is read-only
 159:../../../libDaisy//src/per/qspi.h ****      *  to write to it use the Write function.
 160:../../../libDaisy//src/per/qspi.h ****      * 
 161:../../../libDaisy//src/per/qspi.h ****      *  \param offset returns the pointer starting this 
 162:../../../libDaisy//src/per/qspi.h ****      *                many bytes into the memory
 163:../../../libDaisy//src/per/qspi.h ****     */
 164:../../../libDaisy//src/per/qspi.h ****     void* GetData(uint32_t offset = 0);
 165:../../../libDaisy//src/per/qspi.h **** 
 166:../../../libDaisy//src/per/qspi.h ****     QSPIHandle() : pimpl_(nullptr) {}
 715              		.loc 10 166 5 view .LVU167
 716              	.LBE231:
 717              	.LBE230:
 718              	.LBE229:
 719              	.LBE228:
 720              	.LBE227:
 721              		.loc 7 121 1 is_stmt 0 view .LVU168
 722 0000 08B5     		push	{r3, lr}
 723              		.cfi_def_cfa_offset 8
 724              		.cfi_offset 3, -8
 725              		.cfi_offset 14, -4
 726              	.LBB267:
 727              	.LBB266:
 728              	.LBB249:
ARM GAS  /var/folders/wz/z09yph4n0qj4t7mjxhl6ttn80000gn/T//ccBtkQIl.s 			page 35


 729              	.LBB247:
 730              	.LBB236:
 731              	.LBB232:
 732              	.LBB233:
 733              		.loc 10 166 34 view .LVU169
 734 0002 0E48     		ldr	r0, .L34
 735 0004 0023     		movs	r3, #0
 736              	.LBE233:
 737              	.LBE232:
 738              	.LBE236:
 739              	.LBE247:
 740              	.LBE249:
  21:LoopyTunes.cpp **** 
 741              		.loc 7 21 11 view .LVU170
 742 0006 0E4A     		ldr	r2, .L34+4
 743              	.LBB250:
 744              	.LBB248:
 745              	.LBB237:
 746              	.LBB235:
 747              	.LBB234:
 748              		.loc 10 166 34 view .LVU171
 749 0008 0360     		str	r3, [r0]
 750              	.LVL41:
 751              		.loc 10 166 34 view .LVU172
 752              	.LBE234:
 753              	.LBE235:
 754              	.LBE237:
 755              	.LBB238:
 756              	.LBI238:
  95:../../../libDaisy//src/hid/audio.h ****     ~AudioHandle() {}
 757              		.loc 6 95 5 is_stmt 1 view .LVU173
 758              	.LBB239:
 759              	.LBB240:
  95:../../../libDaisy//src/hid/audio.h ****     ~AudioHandle() {}
 760              		.loc 6 95 35 is_stmt 0 view .LVU174
 761 000a 4361     		str	r3, [r0, #20]
 762              	.LVL42:
  95:../../../libDaisy//src/hid/audio.h ****     ~AudioHandle() {}
 763              		.loc 6 95 35 view .LVU175
 764              	.LBE240:
 765              	.LBE239:
 766              	.LBE238:
 767              	.LBB241:
 768              	.LBI241:
  92:../../../libDaisy//src/per/adc.h ****     ~AdcHandle() {}
 769              		.loc 5 92 5 is_stmt 1 view .LVU176
  92:../../../libDaisy//src/per/adc.h ****     ~AdcHandle() {}
 770              		.loc 5 92 5 is_stmt 0 view .LVU177
 771              	.LBE241:
 772              	.LBB242:
 773              	.LBI242:
 774              		.file 11 "../../../libDaisy//src/per/dac.h"
   1:../../../libDaisy//src/per/dac.h **** #pragma once
   2:../../../libDaisy//src/per/dac.h **** #ifndef DSY_DAC_H
   3:../../../libDaisy//src/per/dac.h **** #define DSY_DAC_H
   4:../../../libDaisy//src/per/dac.h **** 
   5:../../../libDaisy//src/per/dac.h **** #include "daisy_core.h"
ARM GAS  /var/folders/wz/z09yph4n0qj4t7mjxhl6ttn80000gn/T//ccBtkQIl.s 			page 36


   6:../../../libDaisy//src/per/dac.h **** 
   7:../../../libDaisy//src/per/dac.h **** namespace daisy
   8:../../../libDaisy//src/per/dac.h **** {
   9:../../../libDaisy//src/per/dac.h **** /** @brief DAC handle for Built-in DAC Peripheral 
  10:../../../libDaisy//src/per/dac.h ****  *  @ingroup per_analog
  11:../../../libDaisy//src/per/dac.h ****  ** 
  12:../../../libDaisy//src/per/dac.h ****  ** For now only Normal Mode is supported,
  13:../../../libDaisy//src/per/dac.h ****  ** Sample and hold mode provides reduced power consumption, but requires a bit more setup.
  14:../../../libDaisy//src/per/dac.h ****  **
  15:../../../libDaisy//src/per/dac.h ****  ** For now connecting the DAC through other internal peripherals is also not supported.
  16:../../../libDaisy//src/per/dac.h ****  **
  17:../../../libDaisy//src/per/dac.h ****  ** Since the DAC channels have dedicated pins we don't need to pass in a pin config like with
  18:../../../libDaisy//src/per/dac.h ****  ** other modules. However, it is still important to not try to use the DAC pins for anything else.
  19:../../../libDaisy//src/per/dac.h ****  ** DAC Channel 1 is on PA4, and DAC Channel 2 is on PA5
  20:../../../libDaisy//src/per/dac.h ****  ***/
  21:../../../libDaisy//src/per/dac.h **** class DacHandle
  22:../../../libDaisy//src/per/dac.h **** {
  23:../../../libDaisy//src/per/dac.h ****   public:
  24:../../../libDaisy//src/per/dac.h ****     /** Return Values for the DacHandle class */
  25:../../../libDaisy//src/per/dac.h ****     enum class Result
  26:../../../libDaisy//src/per/dac.h ****     {
  27:../../../libDaisy//src/per/dac.h ****         OK,
  28:../../../libDaisy//src/per/dac.h ****         ERR,
  29:../../../libDaisy//src/per/dac.h ****     };
  30:../../../libDaisy//src/per/dac.h **** 
  31:../../../libDaisy//src/per/dac.h ****     /** Selects which channel(s) will be configured for use. */
  32:../../../libDaisy//src/per/dac.h ****     enum class Channel
  33:../../../libDaisy//src/per/dac.h ****     {
  34:../../../libDaisy//src/per/dac.h ****         ONE,
  35:../../../libDaisy//src/per/dac.h ****         TWO,
  36:../../../libDaisy//src/per/dac.h ****         BOTH,
  37:../../../libDaisy//src/per/dac.h ****     };
  38:../../../libDaisy//src/per/dac.h **** 
  39:../../../libDaisy//src/per/dac.h ****     /** Sets the Mode for the DAC channels.
  40:../../../libDaisy//src/per/dac.h ****      **
  41:../../../libDaisy//src/per/dac.h ****      ** Polling mode uses the blocking mode to transmit a single value at a time.
  42:../../../libDaisy//src/per/dac.h ****      **
  43:../../../libDaisy//src/per/dac.h ****      ** DMA mode uses a buffer, and periodically transmits it triggering a 
  44:../../../libDaisy//src/per/dac.h ****      ** callback to fill the buffer when it is ready for more samples.
  45:../../../libDaisy//src/per/dac.h ****      ***/
  46:../../../libDaisy//src/per/dac.h ****     enum class Mode
  47:../../../libDaisy//src/per/dac.h ****     {
  48:../../../libDaisy//src/per/dac.h ****         POLLING,
  49:../../../libDaisy//src/per/dac.h ****         DMA,
  50:../../../libDaisy//src/per/dac.h ****     };
  51:../../../libDaisy//src/per/dac.h **** 
  52:../../../libDaisy//src/per/dac.h ****     /** Sets the number of bits per sample transmitted out of the DAC.
  53:../../../libDaisy//src/per/dac.h ****      ** The output range will be: 0V - VDDA
  54:../../../libDaisy//src/per/dac.h ****      ** The resolution will be roughly: bitdepth / (VDDA - 0V) 
  55:../../../libDaisy//src/per/dac.h ****      ***/
  56:../../../libDaisy//src/per/dac.h ****     enum class BitDepth
  57:../../../libDaisy//src/per/dac.h ****     {
  58:../../../libDaisy//src/per/dac.h ****         BITS_8,
  59:../../../libDaisy//src/per/dac.h ****         BITS_12
  60:../../../libDaisy//src/per/dac.h ****     };
  61:../../../libDaisy//src/per/dac.h **** 
  62:../../../libDaisy//src/per/dac.h ****     /** Sets whether the DAC output is buffered for higher drive ability. */
ARM GAS  /var/folders/wz/z09yph4n0qj4t7mjxhl6ttn80000gn/T//ccBtkQIl.s 			page 37


  63:../../../libDaisy//src/per/dac.h ****     enum class BufferState
  64:../../../libDaisy//src/per/dac.h ****     {
  65:../../../libDaisy//src/per/dac.h ****         ENABLED,
  66:../../../libDaisy//src/per/dac.h ****         DISABLED,
  67:../../../libDaisy//src/per/dac.h ****     };
  68:../../../libDaisy//src/per/dac.h **** 
  69:../../../libDaisy//src/per/dac.h ****     /** Configuration structure for initializing the DAC structure. */
  70:../../../libDaisy//src/per/dac.h ****     struct Config
  71:../../../libDaisy//src/per/dac.h ****     {
  72:../../../libDaisy//src/per/dac.h ****         /** Target Samplerate in Hz used to configure the internal 
  73:../../../libDaisy//src/per/dac.h ****          ** timebase for DMA mode. Does nothing in POLLING mode.
  74:../../../libDaisy//src/per/dac.h ****          ** If the value is 0 at Init time this will default to 48000Hz 
  75:../../../libDaisy//src/per/dac.h ****          ** otherwise the driver will attempt meet the target.*/
  76:../../../libDaisy//src/per/dac.h ****         uint32_t target_samplerate;
  77:../../../libDaisy//src/per/dac.h **** 
  78:../../../libDaisy//src/per/dac.h ****         Channel     chn;
  79:../../../libDaisy//src/per/dac.h ****         Mode        mode;
  80:../../../libDaisy//src/per/dac.h ****         BitDepth    bitdepth;
  81:../../../libDaisy//src/per/dac.h ****         BufferState buff_state;
  82:../../../libDaisy//src/per/dac.h ****     };
  83:../../../libDaisy//src/per/dac.h **** 
  84:../../../libDaisy//src/per/dac.h ****     DacHandle() : pimpl_(nullptr) {}
 775              		.loc 11 84 5 is_stmt 1 view .LVU178
 776              	.LBB243:
 777              	.LBB244:
 778              		.loc 11 84 33 is_stmt 0 view .LVU179
 779 000c 0362     		str	r3, [r0, #32]
 780              	.LVL43:
 781              		.loc 11 84 33 view .LVU180
 782              	.LBE244:
 783              	.LBE243:
 784              	.LBE242:
 785              	.LBB245:
 786              	.LBI245:
  40:../../../libDaisy//src/hid/usb.h **** 
 787              		.loc 4 40 5 is_stmt 1 view .LVU181
  40:../../../libDaisy//src/hid/usb.h **** 
 788              		.loc 4 40 5 is_stmt 0 view .LVU182
 789              	.LBE245:
 790              	.LBB246:
 791              	.LBI246:
  77:../../../libDaisy//src/sys/system.h ****     ~System() {}
 792              		.loc 3 77 5 is_stmt 1 view .LVU183
  77:../../../libDaisy//src/sys/system.h ****     ~System() {}
 793              		.loc 3 77 5 is_stmt 0 view .LVU184
 794              	.LBE246:
 795              	.LBE248:
 796              	.LBE250:
  21:LoopyTunes.cpp **** 
 797              		.loc 7 21 11 view .LVU185
 798 000e 0D49     		ldr	r1, .L34+8
 799 0010 FFF7FEFF 		bl	__aeabi_atexit
 800              	.LVL44:
 801              	.LBB251:
 802              	.LBI251:
  41:../../../libDaisy//src/hid/switch.h ****     ~Switch() {}
 803              		.loc 1 41 5 is_stmt 1 view .LVU186
ARM GAS  /var/folders/wz/z09yph4n0qj4t7mjxhl6ttn80000gn/T//ccBtkQIl.s 			page 38


  41:../../../libDaisy//src/hid/switch.h ****     ~Switch() {}
 804              		.loc 1 41 5 is_stmt 0 view .LVU187
 805              	.LBE251:
  24:LoopyTunes.cpp **** Switch play;
 806              		.loc 7 24 8 view .LVU188
 807 0014 0C49     		ldr	r1, .L34+12
 808 0016 0A4A     		ldr	r2, .L34+4
 809 0018 0C48     		ldr	r0, .L34+16
 810 001a FFF7FEFF 		bl	__aeabi_atexit
 811              	.LVL45:
 812              	.LBB252:
 813              	.LBI252:
  41:../../../libDaisy//src/hid/switch.h ****     ~Switch() {}
 814              		.loc 1 41 5 is_stmt 1 view .LVU189
  41:../../../libDaisy//src/hid/switch.h ****     ~Switch() {}
 815              		.loc 1 41 5 is_stmt 0 view .LVU190
 816              	.LBE252:
  25:LoopyTunes.cpp **** 
 817              		.loc 7 25 8 view .LVU191
 818 001e 084A     		ldr	r2, .L34+4
 819 0020 0949     		ldr	r1, .L34+12
 820 0022 0B48     		ldr	r0, .L34+20
 821 0024 FFF7FEFF 		bl	__aeabi_atexit
 822              	.LVL46:
 823              	.LBB253:
 824              	.LBI253:
   8:DSP/Mixer.h   **** {
 825              		.loc 9 8 7 is_stmt 1 view .LVU192
 826              	.LBB254:
 827              	.LBI254:
  23:DSP/Mixer.h   **** 
  24:DSP/Mixer.h   **** private:
  25:DSP/Mixer.h   **** 
  26:DSP/Mixer.h   ****     struct MixerTrack
 828              		.loc 9 26 12 view .LVU193
 829              	.LBB255:
 830              	.LBI255:
 831              		.file 12 "DSP/../Parameters/AudioParameter.h"
   1:DSP/../Parameters/AudioParameter.h **** #include "daisy_seed.h"
   2:DSP/../Parameters/AudioParameter.h **** #include "../Utils/Helpers.h"
   3:DSP/../Parameters/AudioParameter.h **** #include <cstdint>
   4:DSP/../Parameters/AudioParameter.h **** 
   5:DSP/../Parameters/AudioParameter.h **** /*****************************************************************************//**
   6:DSP/../Parameters/AudioParameter.h ****  *  Class name: AudioParameter
   7:DSP/../Parameters/AudioParameter.h ****  *  Function: Parameter object for DSP classes that contains pot boilerplate code
   8:DSP/../Parameters/AudioParameter.h ****  ********************************************************************************/
   9:DSP/../Parameters/AudioParameter.h **** 
  10:DSP/../Parameters/AudioParameter.h **** using namespace daisy;
  11:DSP/../Parameters/AudioParameter.h **** 
  12:DSP/../Parameters/AudioParameter.h **** template <class type>
  13:DSP/../Parameters/AudioParameter.h **** class AudioParameter
 832              		.loc 12 13 7 view .LVU194
 833              	.LBB256:
 834 0028 0A4B     		ldr	r3, .L34+24
 835 002a 0B4A     		ldr	r2, .L34+28
 836 002c 9A62     		str	r2, [r3, #40]	@ float
 837              	.LVL47:
ARM GAS  /var/folders/wz/z09yph4n0qj4t7mjxhl6ttn80000gn/T//ccBtkQIl.s 			page 39


 838              		.loc 12 13 7 is_stmt 0 view .LVU195
 839              	.LBE256:
 840              	.LBE255:
 841              	.LBE254:
 842              	.LBB257:
 843              	.LBI257:
 844              		.loc 9 26 12 is_stmt 1 view .LVU196
 845              	.LBB258:
 846              	.LBI258:
 847              		.loc 12 13 7 view .LVU197
 848              	.LBB259:
 849 002e 5A66     		str	r2, [r3, #100]	@ float
 850              	.LVL48:
 851              		.loc 12 13 7 is_stmt 0 view .LVU198
 852              	.LBE259:
 853              	.LBE258:
 854              	.LBE257:
 855              	.LBB260:
 856              	.LBI260:
 857              		.loc 9 26 12 is_stmt 1 view .LVU199
 858              	.LBB261:
 859              	.LBI261:
 860              		.loc 12 13 7 view .LVU200
 861              	.LBB262:
 862 0030 C3F8A020 		str	r2, [r3, #160]	@ float
 863              	.LVL49:
 864              		.loc 12 13 7 is_stmt 0 view .LVU201
 865              	.LBE262:
 866              	.LBE261:
 867              	.LBE260:
 868              	.LBB263:
 869              	.LBI263:
 870              		.loc 9 26 12 is_stmt 1 view .LVU202
 871              	.LBB264:
 872              	.LBI264:
 873              		.loc 12 13 7 view .LVU203
 874              	.LBB265:
 875 0034 C3F8DC20 		str	r2, [r3, #220]	@ float
 876              	.LVL50:
 877              		.loc 12 13 7 is_stmt 0 view .LVU204
 878              	.LBE265:
 879              	.LBE264:
 880              	.LBE263:
 881              	.LBE253:
 882              	.LBE266:
 883              	.LBE267:
 884              		.loc 7 121 1 view .LVU205
 885 0038 08BD     		pop	{r3, pc}
 886              	.L35:
 887 003a 00BF     		.align	2
 888              	.L34:
 889 003c 00000000 		.word	.LANCHOR1
 890 0040 00000000 		.word	__dso_handle
 891 0044 00000000 		.word	_ZN5daisy9DaisySeedD1Ev
 892 0048 00000000 		.word	_ZN5daisy6SwitchD1Ev
 893 004c 00000000 		.word	.LANCHOR3
 894 0050 00000000 		.word	.LANCHOR4
ARM GAS  /var/folders/wz/z09yph4n0qj4t7mjxhl6ttn80000gn/T//ccBtkQIl.s 			page 40


 895 0054 00000000 		.word	.LANCHOR0
 896 0058 0AD7233C 		.word	1008981770
 897              		.cfi_endproc
 898              	.LFE5370:
 900              		.section	.init_array,"aw",%init_array
 901              		.align	2
 902 0000 00000000 		.word	_GLOBAL__sub_I_hw(target1)
 903              		.global	track4Ptr
 904              		.global	track3Ptr
 905              		.global	track2Ptr
 906              		.global	track1Ptr
 907              		.global	track4
 908              		.global	track3
 909              		.global	track2
 910              		.global	track1
 911              		.global	mixer
 912              		.global	connectionMatrix
 913              		.global	isPlay
 914              		.global	isRecord
 915              		.global	sampleRate
 916              		.global	amp1
 917              		.global	play
 918              		.global	record
 919              		.global	hw
 920              		.section	.bss.amp1,"aw",%nobits
 921              		.align	2
 922              		.set	.LANCHOR11,. + 0
 925              	amp1:
 926 0000 00000000 		.space	17
 926      00000000 
 926      00000000 
 926      00000000 
 926      00
 927              		.section	.bss.connectionMatrix,"aw",%nobits
 928              		.align	2
 931              	connectionMatrix:
 932 0000 00       		.space	1
 933              		.section	.bss.hw,"aw",%nobits
 934              		.align	2
 935              		.set	.LANCHOR1,. + 0
 938              	hw:
 939 0000 00000000 		.space	60
 939      00000000 
 939      00000000 
 939      00000000 
 939      00000000 
 940              		.section	.bss.isPlay,"aw",%nobits
 941              		.set	.LANCHOR6,. + 0
 944              	isPlay:
 945 0000 00       		.space	1
 946              		.section	.bss.isRecord,"aw",%nobits
 947              		.set	.LANCHOR5,. + 0
 950              	isRecord:
 951 0000 00       		.space	1
 952              		.section	.bss.mixer,"aw",%nobits
 953              		.align	2
 954              		.set	.LANCHOR0,. + 0
ARM GAS  /var/folders/wz/z09yph4n0qj4t7mjxhl6ttn80000gn/T//ccBtkQIl.s 			page 41


 957              	mixer:
 958 0000 00000000 		.space	244
 958      00000000 
 958      00000000 
 958      00000000 
 958      00000000 
 959              		.section	.bss.play,"aw",%nobits
 960              		.align	2
 961              		.set	.LANCHOR4,. + 0
 964              	play:
 965 0000 00000000 		.space	16
 965      00000000 
 965      00000000 
 965      00000000 
 966              		.section	.bss.record,"aw",%nobits
 967              		.align	2
 968              		.set	.LANCHOR3,. + 0
 971              	record:
 972 0000 00000000 		.space	16
 972      00000000 
 972      00000000 
 972      00000000 
 973              		.section	.bss.sampleRate,"aw",%nobits
 974              		.align	2
 975              		.set	.LANCHOR2,. + 0
 978              	sampleRate:
 979 0000 00000000 		.space	4
 980              		.section	.data.track1Ptr,"aw"
 981              		.align	2
 982              		.set	.LANCHOR8,. + 0
 985              	track1Ptr:
 986 0000 00000000 		.word	track1
 987 0004 004C1D00 		.word	track1+1920000
 988              		.section	.data.track2Ptr,"aw"
 989              		.align	2
 990              		.set	.LANCHOR7,. + 0
 993              	track2Ptr:
 994 0000 00000000 		.word	track2
 995 0004 004C1D00 		.word	track2+1920000
 996              		.section	.data.track3Ptr,"aw"
 997              		.align	2
 998              		.set	.LANCHOR10,. + 0
 1001              	track3Ptr:
 1002 0000 00000000 		.word	track3
 1003 0004 004C1D00 		.word	track3+1920000
 1004              		.section	.data.track4Ptr,"aw"
 1005              		.align	2
 1006              		.set	.LANCHOR9,. + 0
 1009              	track4Ptr:
 1010 0000 00000000 		.word	track4
 1011 0004 004C1D00 		.word	track4+1920000
 1012              		.section	.sdram_bss,"aw"
 1013              		.align	2
 1016              	track4:
 1017 0000 00000000 		.space	3840000
 1017      00000000 
 1017      00000000 
ARM GAS  /var/folders/wz/z09yph4n0qj4t7mjxhl6ttn80000gn/T//ccBtkQIl.s 			page 42


 1017      00000000 
 1017      00000000 
 1020              	track3:
 1021 3a9800 00000000 		.space	3840000
 1021      00000000 
 1021      00000000 
 1021      00000000 
 1021      00000000 
 1024              	track2:
 1025 753000 00000000 		.space	3840000
 1025      00000000 
 1025      00000000 
 1025      00000000 
 1025      00000000 
 1028              	track1:
 1029 afc800 00000000 		.space	3840000
 1029      00000000 
 1029      00000000 
 1029      00000000 
 1029      00000000 
 1030              		.text
 1031              	.Letext0:
 1032              		.file 13 "/Library/DaisyToolchain/0.2.0/arm/arm-none-eabi/include/machine/_default_types.h"
 1033              		.file 14 "/Library/DaisyToolchain/0.2.0/arm/arm-none-eabi/include/sys/_stdint.h"
 1034              		.file 15 "/Library/DaisyToolchain/0.2.0/arm/arm-none-eabi/include/stdint.h"
 1035              		.file 16 "/Library/DaisyToolchain/0.2.0/arm/lib/gcc/arm-none-eabi/10.3.1/include/stddef.h"
 1036              		.file 17 "/Library/DaisyToolchain/0.2.0/arm/arm-none-eabi/include/c++/10.3.1/cmath"
 1037              		.file 18 "/Library/DaisyToolchain/0.2.0/arm/arm-none-eabi/include/c++/10.3.1/bits/std_abs.h"
 1038              		.file 19 "/Library/DaisyToolchain/0.2.0/arm/arm-none-eabi/include/c++/10.3.1/cstdint"
 1039              		.file 20 "/Library/DaisyToolchain/0.2.0/arm/arm-none-eabi/include/c++/10.3.1/cstdlib"
 1040              		.file 21 "/Library/DaisyToolchain/0.2.0/arm/arm-none-eabi/include/c++/10.3.1/type_traits"
 1041              		.file 22 "/Library/DaisyToolchain/0.2.0/arm/arm-none-eabi/include/c++/10.3.1/debug/debug.h"
 1042              		.file 23 "/Library/DaisyToolchain/0.2.0/arm/arm-none-eabi/include/c++/10.3.1/cwchar"
 1043              		.file 24 "/Library/DaisyToolchain/0.2.0/arm/arm-none-eabi/include/c++/10.3.1/bits/stl_pair.h"
 1044              		.file 25 "/Library/DaisyToolchain/0.2.0/arm/arm-none-eabi/include/c++/10.3.1/bits/exception_ptr.h"
 1045              		.file 26 "/Library/DaisyToolchain/0.2.0/arm/arm-none-eabi/include/c++/10.3.1/arm-none-eabi/thumb/v
 1046              		.file 27 "/Library/DaisyToolchain/0.2.0/arm/arm-none-eabi/include/c++/10.3.1/clocale"
 1047              		.file 28 "/Library/DaisyToolchain/0.2.0/arm/arm-none-eabi/include/c++/10.3.1/cstdio"
 1048              		.file 29 "/Library/DaisyToolchain/0.2.0/arm/arm-none-eabi/include/c++/10.3.1/bits/basic_string.h"
 1049              		.file 30 "/Library/DaisyToolchain/0.2.0/arm/arm-none-eabi/include/c++/10.3.1/bits/stl_iterator.h"
 1050              		.file 31 "/Library/DaisyToolchain/0.2.0/arm/arm-none-eabi/include/c++/10.3.1/cstring"
 1051              		.file 32 "/Library/DaisyToolchain/0.2.0/arm/arm-none-eabi/include/c++/10.3.1/bits/algorithmfwd.h"
 1052              		.file 33 "/Library/DaisyToolchain/0.2.0/arm/arm-none-eabi/include/c++/10.3.1/cstdarg"
 1053              		.file 34 "/Library/DaisyToolchain/0.2.0/arm/arm-none-eabi/include/c++/10.3.1/bits/predefined_ops.h
 1054              		.file 35 "/Library/DaisyToolchain/0.2.0/arm/arm-none-eabi/include/sys/_types.h"
 1055              		.file 36 "/Library/DaisyToolchain/0.2.0/arm/arm-none-eabi/include/sys/reent.h"
 1056              		.file 37 "/Library/DaisyToolchain/0.2.0/arm/arm-none-eabi/include/sys/lock.h"
 1057              		.file 38 "/Library/DaisyToolchain/0.2.0/arm/arm-none-eabi/include/math.h"
 1058              		.file 39 "/Library/DaisyToolchain/0.2.0/arm/arm-none-eabi/include/stdlib.h"
 1059              		.file 40 "/Library/DaisyToolchain/0.2.0/arm/arm-none-eabi/include/c++/10.3.1/math.h"
 1060              		.file 41 "../../../DaisySP//Source/Control/adenv.h"
 1061              		.file 42 "../../../DaisySP//Source/Utility/dsp.h"
 1062              		.file 43 "/Library/DaisyToolchain/0.2.0/arm/lib/gcc/arm-none-eabi/10.3.1/include/stdarg.h"
 1063              		.file 44 "/Library/DaisyToolchain/0.2.0/arm/arm-none-eabi/include/wchar.h"
 1064              		.file 45 "/Library/DaisyToolchain/0.2.0/arm/arm-none-eabi/include/locale.h"
 1065              		.file 46 "/Library/DaisyToolchain/0.2.0/arm/arm-none-eabi/include/stdio.h"
 1066              		.file 47 "/Library/DaisyToolchain/0.2.0/arm/arm-none-eabi/include/c++/10.3.1/stdlib.h"
ARM GAS  /var/folders/wz/z09yph4n0qj4t7mjxhl6ttn80000gn/T//ccBtkQIl.s 			page 43


 1067              		.file 48 "/Library/DaisyToolchain/0.2.0/arm/arm-none-eabi/include/string.h"
 1068              		.file 49 "../../../libDaisy//src/per/tim.h"
 1069              		.file 50 "../../../libDaisy//src/per/sai.h"
 1070              		.file 51 "../../../libDaisy//src/hid/logger_impl.h"
 1071              		.file 52 "../../../libDaisy//src/util/wav_format.h"
 1072              		.file 53 "../../../libDaisy//src/dev/max11300.h"
 1073              		.file 54 "../../../libDaisy//src/hid/logger.h"
 1074              		.file 55 "../../../libDaisy//src/per/gpio.h"
 1075              		.file 56 "../../../libDaisy//src/dev/sdram.h"
 1076              		.file 57 "DSP/../Parameters/../Utils/Helpers.h"
 1077              		.file 58 "DSP/Track.h"
 1078              		.file 59 "<built-in>"
 1079              		.file 60 "../../../libDaisy//src/dev/sr_595.h"
 1080              		.file 61 "Architecture/ConnectionMatrix.h"
ARM GAS  /var/folders/wz/z09yph4n0qj4t7mjxhl6ttn80000gn/T//ccBtkQIl.s 			page 44


DEFINED SYMBOLS
                            *ABS*:0000000000000000 LoopyTunes.cpp
/var/folders/wz/z09yph4n0qj4t7mjxhl6ttn80000gn/T//ccBtkQIl.s:19     .text._ZN5daisy6SwitchD2Ev:0000000000000000 $t
/var/folders/wz/z09yph4n0qj4t7mjxhl6ttn80000gn/T//ccBtkQIl.s:26     .text._ZN5daisy6SwitchD2Ev:0000000000000000 _ZN5daisy6SwitchD2Ev
/var/folders/wz/z09yph4n0qj4t7mjxhl6ttn80000gn/T//ccBtkQIl.s:26     .text._ZN5daisy6SwitchD2Ev:0000000000000000 _ZN5daisy6SwitchD1Ev
/var/folders/wz/z09yph4n0qj4t7mjxhl6ttn80000gn/T//ccBtkQIl.s:43     .text._ZN5daisy9DaisySeedD2Ev:0000000000000000 $t
/var/folders/wz/z09yph4n0qj4t7mjxhl6ttn80000gn/T//ccBtkQIl.s:50     .text._ZN5daisy9DaisySeedD2Ev:0000000000000000 _ZN5daisy9DaisySeedD2Ev
/var/folders/wz/z09yph4n0qj4t7mjxhl6ttn80000gn/T//ccBtkQIl.s:50     .text._ZN5daisy9DaisySeedD2Ev:0000000000000000 _ZN5daisy9DaisySeedD1Ev
/var/folders/wz/z09yph4n0qj4t7mjxhl6ttn80000gn/T//ccBtkQIl.s:91     .text._Z13AudioCallbackPKPKfPPfj:0000000000000000 $t
/var/folders/wz/z09yph4n0qj4t7mjxhl6ttn80000gn/T//ccBtkQIl.s:98     .text._Z13AudioCallbackPKPKfPPfj:0000000000000000 _Z13AudioCallbackPKPKfPPfj
/var/folders/wz/z09yph4n0qj4t7mjxhl6ttn80000gn/T//ccBtkQIl.s:148    .text._Z13AudioCallbackPKPKfPPfj:0000000000000028 $d
/var/folders/wz/z09yph4n0qj4t7mjxhl6ttn80000gn/T//ccBtkQIl.s:153    .text._Z4initv:0000000000000000 $t
/var/folders/wz/z09yph4n0qj4t7mjxhl6ttn80000gn/T//ccBtkQIl.s:160    .text._Z4initv:0000000000000000 _Z4initv
/var/folders/wz/z09yph4n0qj4t7mjxhl6ttn80000gn/T//ccBtkQIl.s:301    .text._Z4initv:0000000000000080 $d
/var/folders/wz/z09yph4n0qj4t7mjxhl6ttn80000gn/T//ccBtkQIl.s:316    .text._Z7initADCv:0000000000000000 $t
/var/folders/wz/z09yph4n0qj4t7mjxhl6ttn80000gn/T//ccBtkQIl.s:323    .text._Z7initADCv:0000000000000000 _Z7initADCv
/var/folders/wz/z09yph4n0qj4t7mjxhl6ttn80000gn/T//ccBtkQIl.s:395    .text._Z7initADCv:0000000000000034 $d
/var/folders/wz/z09yph4n0qj4t7mjxhl6ttn80000gn/T//ccBtkQIl.s:401    .rodata._Z10pollInputsv.str1.4:0000000000000000 $d
/var/folders/wz/z09yph4n0qj4t7mjxhl6ttn80000gn/T//ccBtkQIl.s:408    .text._Z10pollInputsv:0000000000000000 $t
/var/folders/wz/z09yph4n0qj4t7mjxhl6ttn80000gn/T//ccBtkQIl.s:415    .text._Z10pollInputsv:0000000000000000 _Z10pollInputsv
/var/folders/wz/z09yph4n0qj4t7mjxhl6ttn80000gn/T//ccBtkQIl.s:611    .text._Z10pollInputsv:0000000000000070 $d
/var/folders/wz/z09yph4n0qj4t7mjxhl6ttn80000gn/T//ccBtkQIl.s:622    .text.startup.main:0000000000000000 $t
/var/folders/wz/z09yph4n0qj4t7mjxhl6ttn80000gn/T//ccBtkQIl.s:629    .text.startup.main:0000000000000000 main
/var/folders/wz/z09yph4n0qj4t7mjxhl6ttn80000gn/T//ccBtkQIl.s:684    .text.startup.main:0000000000000024 $d
/var/folders/wz/z09yph4n0qj4t7mjxhl6ttn80000gn/T//ccBtkQIl.s:691    .text.startup._GLOBAL__sub_I_hw:0000000000000000 $t
/var/folders/wz/z09yph4n0qj4t7mjxhl6ttn80000gn/T//ccBtkQIl.s:697    .text.startup._GLOBAL__sub_I_hw:0000000000000000 _GLOBAL__sub_I_hw
/var/folders/wz/z09yph4n0qj4t7mjxhl6ttn80000gn/T//ccBtkQIl.s:889    .text.startup._GLOBAL__sub_I_hw:000000000000003c $d
/var/folders/wz/z09yph4n0qj4t7mjxhl6ttn80000gn/T//ccBtkQIl.s:901    .init_array:0000000000000000 $d
/var/folders/wz/z09yph4n0qj4t7mjxhl6ttn80000gn/T//ccBtkQIl.s:1009   .data.track4Ptr:0000000000000000 track4Ptr
/var/folders/wz/z09yph4n0qj4t7mjxhl6ttn80000gn/T//ccBtkQIl.s:1001   .data.track3Ptr:0000000000000000 track3Ptr
/var/folders/wz/z09yph4n0qj4t7mjxhl6ttn80000gn/T//ccBtkQIl.s:993    .data.track2Ptr:0000000000000000 track2Ptr
/var/folders/wz/z09yph4n0qj4t7mjxhl6ttn80000gn/T//ccBtkQIl.s:985    .data.track1Ptr:0000000000000000 track1Ptr
/var/folders/wz/z09yph4n0qj4t7mjxhl6ttn80000gn/T//ccBtkQIl.s:1016   .sdram_bss:0000000000000000 track4
/var/folders/wz/z09yph4n0qj4t7mjxhl6ttn80000gn/T//ccBtkQIl.s:1020   .sdram_bss:00000000003a9800 track3
/var/folders/wz/z09yph4n0qj4t7mjxhl6ttn80000gn/T//ccBtkQIl.s:1024   .sdram_bss:0000000000753000 track2
/var/folders/wz/z09yph4n0qj4t7mjxhl6ttn80000gn/T//ccBtkQIl.s:1028   .sdram_bss:0000000000afc800 track1
/var/folders/wz/z09yph4n0qj4t7mjxhl6ttn80000gn/T//ccBtkQIl.s:957    .bss.mixer:0000000000000000 mixer
/var/folders/wz/z09yph4n0qj4t7mjxhl6ttn80000gn/T//ccBtkQIl.s:931    .bss.connectionMatrix:0000000000000000 connectionMatrix
/var/folders/wz/z09yph4n0qj4t7mjxhl6ttn80000gn/T//ccBtkQIl.s:944    .bss.isPlay:0000000000000000 isPlay
/var/folders/wz/z09yph4n0qj4t7mjxhl6ttn80000gn/T//ccBtkQIl.s:950    .bss.isRecord:0000000000000000 isRecord
/var/folders/wz/z09yph4n0qj4t7mjxhl6ttn80000gn/T//ccBtkQIl.s:978    .bss.sampleRate:0000000000000000 sampleRate
/var/folders/wz/z09yph4n0qj4t7mjxhl6ttn80000gn/T//ccBtkQIl.s:925    .bss.amp1:0000000000000000 amp1
/var/folders/wz/z09yph4n0qj4t7mjxhl6ttn80000gn/T//ccBtkQIl.s:964    .bss.play:0000000000000000 play
/var/folders/wz/z09yph4n0qj4t7mjxhl6ttn80000gn/T//ccBtkQIl.s:971    .bss.record:0000000000000000 record
/var/folders/wz/z09yph4n0qj4t7mjxhl6ttn80000gn/T//ccBtkQIl.s:938    .bss.hw:0000000000000000 hw
/var/folders/wz/z09yph4n0qj4t7mjxhl6ttn80000gn/T//ccBtkQIl.s:921    .bss.amp1:0000000000000000 $d
/var/folders/wz/z09yph4n0qj4t7mjxhl6ttn80000gn/T//ccBtkQIl.s:928    .bss.connectionMatrix:0000000000000000 $d
/var/folders/wz/z09yph4n0qj4t7mjxhl6ttn80000gn/T//ccBtkQIl.s:934    .bss.hw:0000000000000000 $d
/var/folders/wz/z09yph4n0qj4t7mjxhl6ttn80000gn/T//ccBtkQIl.s:945    .bss.isPlay:0000000000000000 $d
/var/folders/wz/z09yph4n0qj4t7mjxhl6ttn80000gn/T//ccBtkQIl.s:951    .bss.isRecord:0000000000000000 $d
/var/folders/wz/z09yph4n0qj4t7mjxhl6ttn80000gn/T//ccBtkQIl.s:953    .bss.mixer:0000000000000000 $d
/var/folders/wz/z09yph4n0qj4t7mjxhl6ttn80000gn/T//ccBtkQIl.s:960    .bss.play:0000000000000000 $d
/var/folders/wz/z09yph4n0qj4t7mjxhl6ttn80000gn/T//ccBtkQIl.s:967    .bss.record:0000000000000000 $d
/var/folders/wz/z09yph4n0qj4t7mjxhl6ttn80000gn/T//ccBtkQIl.s:974    .bss.sampleRate:0000000000000000 $d
/var/folders/wz/z09yph4n0qj4t7mjxhl6ttn80000gn/T//ccBtkQIl.s:981    .data.track1Ptr:0000000000000000 $d
/var/folders/wz/z09yph4n0qj4t7mjxhl6ttn80000gn/T//ccBtkQIl.s:989    .data.track2Ptr:0000000000000000 $d
/var/folders/wz/z09yph4n0qj4t7mjxhl6ttn80000gn/T//ccBtkQIl.s:997    .data.track3Ptr:0000000000000000 $d
ARM GAS  /var/folders/wz/z09yph4n0qj4t7mjxhl6ttn80000gn/T//ccBtkQIl.s 			page 45


/var/folders/wz/z09yph4n0qj4t7mjxhl6ttn80000gn/T//ccBtkQIl.s:1005   .data.track4Ptr:0000000000000000 $d
/var/folders/wz/z09yph4n0qj4t7mjxhl6ttn80000gn/T//ccBtkQIl.s:1013   .sdram_bss:0000000000000000 $d
                           .group:0000000000000000 _ZN5daisy6SwitchD5Ev
                           .group:0000000000000000 _ZN5daisy9DaisySeedD5Ev

UNDEFINED SYMBOLS
_ZN5Mixer17processInputBlockEPKfS1_j
_ZN5Mixer18processOutputBlockEPfS0_j
_ZN5daisy9DaisySeed4InitEb
_ZN5daisy9DaisySeed17SetAudioBlockSizeEj
_ZN5daisy9DaisySeed18SetAudioSampleRateENS_9SaiHandle6Config10SampleRateE
_ZN5daisy9DaisySeed15AudioSampleRateEv
_ZN5daisy6Switch4InitE12dsy_gpio_pinf
_ZN5Mixer4initEPN5daisy9DaisySeedEPPfS4_S4_S4_
_ZN5daisy16AdcChannelConfig10InitSingleE12dsy_gpio_pin
_ZN5daisy9AdcHandle4InitEPNS_16AdcChannelConfigEjNS0_12OverSamplingE
_ZN5daisy9AdcHandle5StartEv
_ZN5daisy6Switch8DebounceEv
_ZN5Track14setIsRecordingEv
_ZN5daisy6LoggerILNS_17LoggerDestinationE1EE9PrintLineEPKcz
_ZN5Track12setIsPlayingEv
_ZN5daisy6LoggerILNS_17LoggerDestinationE1EE8StartLogEb
_ZN5daisy9DaisySeed10StartAudioEPFvPKPKfPPfjE
_ZN5Mixer4tickEv
__aeabi_atexit
__dso_handle
