ARM GAS  /var/folders/wz/z09yph4n0qj4t7mjxhl6ttn80000gn/T//ccz7tZYf.s 			page 1


   1              		.cpu cortex-m7
   2              		.arch armv7e-m
   3              		.fpu fpv5-d16
   4              		.eabi_attribute 28, 1
   5              		.eabi_attribute 20, 1
   6              		.eabi_attribute 21, 1
   7              		.eabi_attribute 23, 3
   8              		.eabi_attribute 24, 1
   9              		.eabi_attribute 25, 1
  10              		.eabi_attribute 26, 1
  11              		.eabi_attribute 30, 2
  12              		.eabi_attribute 34, 1
  13              		.eabi_attribute 18, 4
  14              		.file	"LoopyTunes.cpp"
  15              		.text
  16              	.Ltext0:
  17              		.cfi_sections	.debug_frame
  18              		.section	.text._ZN5daisy6SwitchD2Ev,"axG",%progbits,_ZN5daisy6SwitchD5Ev,comdat
  19              		.align	1
  20              		.p2align 2,,3
  21              		.weak	_ZN5daisy6SwitchD2Ev
  22              		.syntax unified
  23              		.thumb
  24              		.thumb_func
  26              	_ZN5daisy6SwitchD2Ev:
  27              	.LVL0:
  28              	.LFB1606:
  29              		.file 1 "../../../libDaisy//src/hid/switch.h"
   1:../../../libDaisy//src/hid/switch.h **** #pragma once
   2:../../../libDaisy//src/hid/switch.h **** #ifndef DSY_SWITCH_H
   3:../../../libDaisy//src/hid/switch.h **** #define DSY_SWITCH_H
   4:../../../libDaisy//src/hid/switch.h **** #include "daisy_core.h"
   5:../../../libDaisy//src/hid/switch.h **** #include "per/gpio.h"
   6:../../../libDaisy//src/hid/switch.h **** #include "sys/system.h"
   7:../../../libDaisy//src/hid/switch.h **** 
   8:../../../libDaisy//src/hid/switch.h **** namespace daisy
   9:../../../libDaisy//src/hid/switch.h **** {
  10:../../../libDaisy//src/hid/switch.h **** /** 
  11:../../../libDaisy//src/hid/switch.h ****     Generic Class for handling momentary/latching switches \n 
  12:../../../libDaisy//src/hid/switch.h ****     Inspired/influenced by Mutable Instruments (pichenettes) Switch classes
  13:../../../libDaisy//src/hid/switch.h ****     @author Stephen Hensley
  14:../../../libDaisy//src/hid/switch.h ****     @date December 2019
  15:../../../libDaisy//src/hid/switch.h ****     @ingroup controls
  16:../../../libDaisy//src/hid/switch.h **** */
  17:../../../libDaisy//src/hid/switch.h **** class Switch
  18:../../../libDaisy//src/hid/switch.h **** {
  19:../../../libDaisy//src/hid/switch.h ****   public:
  20:../../../libDaisy//src/hid/switch.h ****     /** Specifies the expected behavior of the switch */
  21:../../../libDaisy//src/hid/switch.h ****     enum Type
  22:../../../libDaisy//src/hid/switch.h ****     {
  23:../../../libDaisy//src/hid/switch.h ****         TYPE_TOGGLE,    /**< & */
  24:../../../libDaisy//src/hid/switch.h ****         TYPE_MOMENTARY, /**< & */
  25:../../../libDaisy//src/hid/switch.h ****     };
  26:../../../libDaisy//src/hid/switch.h ****     /** Specifies whether the pressed is HIGH or LOW. */
  27:../../../libDaisy//src/hid/switch.h ****     enum Polarity
  28:../../../libDaisy//src/hid/switch.h ****     {
  29:../../../libDaisy//src/hid/switch.h ****         POLARITY_NORMAL,   /**< & */
ARM GAS  /var/folders/wz/z09yph4n0qj4t7mjxhl6ttn80000gn/T//ccz7tZYf.s 			page 2


  30:../../../libDaisy//src/hid/switch.h ****         POLARITY_INVERTED, /**< & */
  31:../../../libDaisy//src/hid/switch.h ****     };
  32:../../../libDaisy//src/hid/switch.h **** 
  33:../../../libDaisy//src/hid/switch.h ****     /** Specifies whether to use built-in Pull Up/Down resistors to hold button at a given state wh
  34:../../../libDaisy//src/hid/switch.h ****     enum Pull
  35:../../../libDaisy//src/hid/switch.h ****     {
  36:../../../libDaisy//src/hid/switch.h ****         PULL_UP,   /**< & */
  37:../../../libDaisy//src/hid/switch.h ****         PULL_DOWN, /**< & */
  38:../../../libDaisy//src/hid/switch.h ****         PULL_NONE, /**< & */
  39:../../../libDaisy//src/hid/switch.h ****     };
  40:../../../libDaisy//src/hid/switch.h **** 
  41:../../../libDaisy//src/hid/switch.h ****     Switch() {}
  42:../../../libDaisy//src/hid/switch.h ****     ~Switch() {}
  30              		.loc 1 42 5 view -0
  31              		.cfi_startproc
  32              		@ args = 0, pretend = 0, frame = 0
  33              		@ frame_needed = 0, uses_anonymous_args = 0
  34              		@ link register save eliminated.
  35              		.loc 1 42 16 is_stmt 0 view .LVU1
  36 0000 7047     		bx	lr
  37              		.cfi_endproc
  38              	.LFE1606:
  40              		.weak	_ZN5daisy6SwitchD1Ev
  41              		.thumb_set _ZN5daisy6SwitchD1Ev,_ZN5daisy6SwitchD2Ev
  42 0002 00BF     		.section	.text._ZN5daisy9DaisySeedD2Ev,"axG",%progbits,_ZN5daisy9DaisySeedD5Ev,comdat
  43              		.align	1
  44              		.p2align 2,,3
  45              		.weak	_ZN5daisy9DaisySeedD2Ev
  46              		.syntax unified
  47              		.thumb
  48              		.thumb_func
  50              	_ZN5daisy9DaisySeedD2Ev:
  51              	.LVL1:
  52              	.LFB2529:
  53              		.file 2 "../../../libDaisy//src/daisy_seed.h"
   1:../../../libDaisy//src/daisy_seed.h **** #pragma once
   2:../../../libDaisy//src/daisy_seed.h **** #ifndef DSY_SEED_H
   3:../../../libDaisy//src/daisy_seed.h **** #define DSY_SEED_H
   4:../../../libDaisy//src/daisy_seed.h **** 
   5:../../../libDaisy//src/daisy_seed.h **** #include "daisy.h"
   6:../../../libDaisy//src/daisy_seed.h **** 
   7:../../../libDaisy//src/daisy_seed.h **** //Uncomment this out if you're still using the rev2 hardware
   8:../../../libDaisy//src/daisy_seed.h **** //#define SEED_REV2
   9:../../../libDaisy//src/daisy_seed.h **** 
  10:../../../libDaisy//src/daisy_seed.h **** namespace daisy
  11:../../../libDaisy//src/daisy_seed.h **** {
  12:../../../libDaisy//src/daisy_seed.h **** /**
  13:../../../libDaisy//src/daisy_seed.h ****    @brief This is the higher-level interface for the Daisy board. \n 
  14:../../../libDaisy//src/daisy_seed.h ****     All basic peripheral configuration/initialization is setup here. \n
  15:../../../libDaisy//src/daisy_seed.h **** 
  16:../../../libDaisy//src/daisy_seed.h ****    @ingroup boards
  17:../../../libDaisy//src/daisy_seed.h **** */
  18:../../../libDaisy//src/daisy_seed.h **** class DaisySeed
  19:../../../libDaisy//src/daisy_seed.h **** {
  20:../../../libDaisy//src/daisy_seed.h ****   public:
  21:../../../libDaisy//src/daisy_seed.h ****     DaisySeed() {}
  22:../../../libDaisy//src/daisy_seed.h ****     ~DaisySeed() {}
ARM GAS  /var/folders/wz/z09yph4n0qj4t7mjxhl6ttn80000gn/T//ccz7tZYf.s 			page 3


  54              		.loc 2 22 5 is_stmt 1 view -0
  55              		.cfi_startproc
  56              		@ args = 0, pretend = 0, frame = 0
  57              		@ frame_needed = 0, uses_anonymous_args = 0
  58              		@ link register save eliminated.
  59              	.LBB88:
  60              	.LBI88:
  61              		.file 3 "../../../libDaisy//src/sys/system.h"
   1:../../../libDaisy//src/sys/system.h **** #ifndef DSY_SYSTEM_H
   2:../../../libDaisy//src/sys/system.h **** #define DSY_SYSTEM_H
   3:../../../libDaisy//src/sys/system.h **** 
   4:../../../libDaisy//src/sys/system.h **** #ifndef UNIT_TEST // for unit tests, a dummy implementation is provided below
   5:../../../libDaisy//src/sys/system.h **** 
   6:../../../libDaisy//src/sys/system.h **** #include <cstdint>
   7:../../../libDaisy//src/sys/system.h **** #include "per/tim.h"
   8:../../../libDaisy//src/sys/system.h **** 
   9:../../../libDaisy//src/sys/system.h **** namespace daisy
  10:../../../libDaisy//src/sys/system.h **** {
  11:../../../libDaisy//src/sys/system.h **** /** A handle for interacting with the Core System. 
  12:../../../libDaisy//src/sys/system.h ****  ** This includes the Clock tree, MPU, global DMA initialization,
  13:../../../libDaisy//src/sys/system.h ****  ** cache handling, and any other necessary global initiailzation
  14:../../../libDaisy//src/sys/system.h ****  **
  15:../../../libDaisy//src/sys/system.h ****  ** @author shensley
  16:../../../libDaisy//src/sys/system.h ****  ** @ingroup system
  17:../../../libDaisy//src/sys/system.h ****  */
  18:../../../libDaisy//src/sys/system.h **** class System
  19:../../../libDaisy//src/sys/system.h **** {
  20:../../../libDaisy//src/sys/system.h ****   public:
  21:../../../libDaisy//src/sys/system.h ****     /** Contains settings for initializing the System */
  22:../../../libDaisy//src/sys/system.h ****     struct Config
  23:../../../libDaisy//src/sys/system.h ****     {
  24:../../../libDaisy//src/sys/system.h ****         /** Specifies the system clock frequency that feeds APB/AHB clocks, etc. */
  25:../../../libDaisy//src/sys/system.h ****         enum class SysClkFreq
  26:../../../libDaisy//src/sys/system.h ****         {
  27:../../../libDaisy//src/sys/system.h ****             FREQ_400MHZ,
  28:../../../libDaisy//src/sys/system.h ****             FREQ_480MHZ,
  29:../../../libDaisy//src/sys/system.h ****         };
  30:../../../libDaisy//src/sys/system.h **** 
  31:../../../libDaisy//src/sys/system.h ****         /** Method to call on the struct to set to defaults
  32:../../../libDaisy//src/sys/system.h ****          ** CPU Freq set to 400MHz
  33:../../../libDaisy//src/sys/system.h ****          ** Cache Enabled 
  34:../../../libDaisy//src/sys/system.h ****          ** */
  35:../../../libDaisy//src/sys/system.h ****         void Defaults()
  36:../../../libDaisy//src/sys/system.h ****         {
  37:../../../libDaisy//src/sys/system.h ****             cpu_freq    = SysClkFreq::FREQ_400MHZ;
  38:../../../libDaisy//src/sys/system.h ****             use_dcache  = true;
  39:../../../libDaisy//src/sys/system.h ****             use_icache  = true;
  40:../../../libDaisy//src/sys/system.h ****             skip_clocks = false;
  41:../../../libDaisy//src/sys/system.h ****         }
  42:../../../libDaisy//src/sys/system.h **** 
  43:../../../libDaisy//src/sys/system.h ****         /** Method to call on the struct to set to boost mode:
  44:../../../libDaisy//src/sys/system.h ****          ** CPU Freq set to 480MHz
  45:../../../libDaisy//src/sys/system.h ****          ** Cache Enabled 
  46:../../../libDaisy//src/sys/system.h ****          ** */
  47:../../../libDaisy//src/sys/system.h ****         void Boost()
  48:../../../libDaisy//src/sys/system.h ****         {
  49:../../../libDaisy//src/sys/system.h ****             cpu_freq    = SysClkFreq::FREQ_480MHZ;
ARM GAS  /var/folders/wz/z09yph4n0qj4t7mjxhl6ttn80000gn/T//ccz7tZYf.s 			page 4


  50:../../../libDaisy//src/sys/system.h ****             use_dcache  = true;
  51:../../../libDaisy//src/sys/system.h ****             use_icache  = true;
  52:../../../libDaisy//src/sys/system.h ****             skip_clocks = false;
  53:../../../libDaisy//src/sys/system.h ****         }
  54:../../../libDaisy//src/sys/system.h **** 
  55:../../../libDaisy//src/sys/system.h ****         SysClkFreq cpu_freq;
  56:../../../libDaisy//src/sys/system.h ****         bool       use_dcache;
  57:../../../libDaisy//src/sys/system.h ****         bool       use_icache;
  58:../../../libDaisy//src/sys/system.h ****         bool       skip_clocks;
  59:../../../libDaisy//src/sys/system.h ****     };
  60:../../../libDaisy//src/sys/system.h **** 
  61:../../../libDaisy//src/sys/system.h ****     /** Describes the different regions of memory available to the Daisy
  62:../../../libDaisy//src/sys/system.h ****      * 
  63:../../../libDaisy//src/sys/system.h ****      */
  64:../../../libDaisy//src/sys/system.h ****     enum MemoryRegion
  65:../../../libDaisy//src/sys/system.h ****     {
  66:../../../libDaisy//src/sys/system.h ****         INTERNAL_FLASH = 0,
  67:../../../libDaisy//src/sys/system.h ****         ITCMRAM,
  68:../../../libDaisy//src/sys/system.h ****         DTCMRAM,
  69:../../../libDaisy//src/sys/system.h ****         SRAM_D1,
  70:../../../libDaisy//src/sys/system.h ****         SRAM_D2,
  71:../../../libDaisy//src/sys/system.h ****         SRAM_D3,
  72:../../../libDaisy//src/sys/system.h ****         SDRAM,
  73:../../../libDaisy//src/sys/system.h ****         QSPI,
  74:../../../libDaisy//src/sys/system.h ****         INVALID_ADDRESS,
  75:../../../libDaisy//src/sys/system.h ****     };
  76:../../../libDaisy//src/sys/system.h **** 
  77:../../../libDaisy//src/sys/system.h ****     System() {}
  78:../../../libDaisy//src/sys/system.h ****     ~System() {}
  62              		.loc 3 78 5 view .LVU3
  63              		.loc 3 78 5 is_stmt 0 view .LVU4
  64              	.LBE88:
  65              	.LBB89:
  66              	.LBI89:
  67              		.file 4 "../../../libDaisy//src/hid/usb.h"
   1:../../../libDaisy//src/hid/usb.h **** #pragma once
   2:../../../libDaisy//src/hid/usb.h **** #ifndef DSY_HID_USB_H
   3:../../../libDaisy//src/hid/usb.h **** #define DSY_HID_USB_H
   4:../../../libDaisy//src/hid/usb.h **** #include <stdint.h>
   5:../../../libDaisy//src/hid/usb.h **** #include <stdlib.h>
   6:../../../libDaisy//src/hid/usb.h **** 
   7:../../../libDaisy//src/hid/usb.h **** namespace daisy
   8:../../../libDaisy//src/hid/usb.h **** /** @addtogroup human_interface
   9:../../../libDaisy//src/hid/usb.h ****     @{
  10:../../../libDaisy//src/hid/usb.h **** */
  11:../../../libDaisy//src/hid/usb.h **** 
  12:../../../libDaisy//src/hid/usb.h **** {
  13:../../../libDaisy//src/hid/usb.h **** /** 
  14:../../../libDaisy//src/hid/usb.h ****     @brief Interface for initializing and using the USB Peripherals on the daisy
  15:../../../libDaisy//src/hid/usb.h ****     @author Stephen Hensley
  16:../../../libDaisy//src/hid/usb.h ****     @date December 2019
  17:../../../libDaisy//src/hid/usb.h **** */
  18:../../../libDaisy//src/hid/usb.h **** class UsbHandle
  19:../../../libDaisy//src/hid/usb.h **** {
  20:../../../libDaisy//src/hid/usb.h ****   public:
  21:../../../libDaisy//src/hid/usb.h ****     /** Return values for USBHandle Functions */
  22:../../../libDaisy//src/hid/usb.h ****     enum class Result
ARM GAS  /var/folders/wz/z09yph4n0qj4t7mjxhl6ttn80000gn/T//ccz7tZYf.s 			page 5


  23:../../../libDaisy//src/hid/usb.h ****     {
  24:../../../libDaisy//src/hid/usb.h ****         OK,
  25:../../../libDaisy//src/hid/usb.h ****         ERR,
  26:../../../libDaisy//src/hid/usb.h ****     };
  27:../../../libDaisy//src/hid/usb.h **** 
  28:../../../libDaisy//src/hid/usb.h ****     /** Specified which of the two USB Peripherals to initialize. */
  29:../../../libDaisy//src/hid/usb.h ****     enum UsbPeriph
  30:../../../libDaisy//src/hid/usb.h ****     {
  31:../../../libDaisy//src/hid/usb.h ****         FS_INTERNAL, /**< Internal pin */
  32:../../../libDaisy//src/hid/usb.h ****         FS_EXTERNAL, /**< FS External D+ pin is Pin 38 (GPIO32). FS External D- pin is Pin 37 (GPIO
  33:../../../libDaisy//src/hid/usb.h ****         FS_BOTH,     /**< Both */
  34:../../../libDaisy//src/hid/usb.h ****     };
  35:../../../libDaisy//src/hid/usb.h **** 
  36:../../../libDaisy//src/hid/usb.h **** 
  37:../../../libDaisy//src/hid/usb.h ****     /** Function called upon reception of a buffer */
  38:../../../libDaisy//src/hid/usb.h ****     typedef void (*ReceiveCallback)(uint8_t* buff, uint32_t* len);
  39:../../../libDaisy//src/hid/usb.h **** 
  40:../../../libDaisy//src/hid/usb.h ****     UsbHandle() {}
  41:../../../libDaisy//src/hid/usb.h **** 
  42:../../../libDaisy//src/hid/usb.h ****     ~UsbHandle() {}
  68              		.loc 4 42 5 is_stmt 1 view .LVU5
  69              		.loc 4 42 5 is_stmt 0 view .LVU6
  70              	.LBE89:
  71              	.LBB90:
  72              	.LBI90:
  73              		.file 5 "../../../libDaisy//src/per/adc.h"
   1:../../../libDaisy//src/per/adc.h **** #pragma once
   2:../../../libDaisy//src/per/adc.h **** #ifndef DSY_ADC_H
   3:../../../libDaisy//src/per/adc.h **** #define DSY_ADC_H /**< Macro */
   4:../../../libDaisy//src/per/adc.h **** #include <stdint.h>
   5:../../../libDaisy//src/per/adc.h **** #include <stdlib.h>
   6:../../../libDaisy//src/per/adc.h **** #include "daisy_core.h"
   7:../../../libDaisy//src/per/adc.h **** #include "per/gpio.h"
   8:../../../libDaisy//src/per/adc.h **** 
   9:../../../libDaisy//src/per/adc.h **** #define DSY_ADC_MAX_CHANNELS 16 /**< Maximum number of ADC channels */
  10:../../../libDaisy//src/per/adc.h **** 
  11:../../../libDaisy//src/per/adc.h **** namespace daisy
  12:../../../libDaisy//src/per/adc.h **** {
  13:../../../libDaisy//src/per/adc.h **** /** @addtogroup per_analog
  14:../../../libDaisy//src/per/adc.h ****     @{
  15:../../../libDaisy//src/per/adc.h **** */
  16:../../../libDaisy//src/per/adc.h **** 
  17:../../../libDaisy//src/per/adc.h **** /* While there may not be many configuration options here,
  18:../../../libDaisy//src/per/adc.h **** using a struct like this allows us to add more configuration
  19:../../../libDaisy//src/per/adc.h **** later without breaking existing functionality.
  20:../../../libDaisy//src/per/adc.h **** */
  21:../../../libDaisy//src/per/adc.h **** 
  22:../../../libDaisy//src/per/adc.h **** /** @brief   Configuration Structure for an ADC Channel 
  23:../../../libDaisy//src/per/adc.h ****  *  @details This can be used to configure a a single input, 
  24:../../../libDaisy//src/per/adc.h ****  *           or a multiplexed input, allowing up to 8 inputs on 
  25:../../../libDaisy//src/per/adc.h ****  *           one channel.
  26:../../../libDaisy//src/per/adc.h ****  *  @note    Sharing data lines to multiple muxes _is_ possible, but
  27:../../../libDaisy//src/per/adc.h ****  *           each channel sharing data lines must be set to the maximum
  28:../../../libDaisy//src/per/adc.h ****  *           number of channels, even if some multiplexers have fewer
  29:../../../libDaisy//src/per/adc.h ****  *           inputs connected.
  30:../../../libDaisy//src/per/adc.h **** */
  31:../../../libDaisy//src/per/adc.h **** struct AdcChannelConfig
ARM GAS  /var/folders/wz/z09yph4n0qj4t7mjxhl6ttn80000gn/T//ccz7tZYf.s 			page 6


  32:../../../libDaisy//src/per/adc.h **** {
  33:../../../libDaisy//src/per/adc.h ****     /** Which pin to use for multiplexing */
  34:../../../libDaisy//src/per/adc.h ****     enum MuxPin
  35:../../../libDaisy//src/per/adc.h ****     {
  36:../../../libDaisy//src/per/adc.h ****         MUX_SEL_0,    /**< & */
  37:../../../libDaisy//src/per/adc.h ****         MUX_SEL_1,    /**< & */
  38:../../../libDaisy//src/per/adc.h ****         MUX_SEL_2,    /**< & */
  39:../../../libDaisy//src/per/adc.h ****         MUX_SEL_LAST, /**< & */
  40:../../../libDaisy//src/per/adc.h ****     };
  41:../../../libDaisy//src/per/adc.h **** 
  42:../../../libDaisy//src/per/adc.h ****     /** Initializes a single ADC pin as an ADC. 
  43:../../../libDaisy//src/per/adc.h ****     \param pin Pin to init.
  44:../../../libDaisy//src/per/adc.h ****      */
  45:../../../libDaisy//src/per/adc.h ****     void InitSingle(dsy_gpio_pin pin);
  46:../../../libDaisy//src/per/adc.h **** 
  47:../../../libDaisy//src/per/adc.h ****     /** 
  48:../../../libDaisy//src/per/adc.h ****     Initializes a single ADC pin as a Multiplexed ADC.
  49:../../../libDaisy//src/per/adc.h ****     Requires a CD405X Multiplexer connected to the pin.
  50:../../../libDaisy//src/per/adc.h ****     You only need to supply the mux pins that are required,
  51:../../../libDaisy//src/per/adc.h ****     e.g. a 4052 mux would only require mux_0 and mux_1.
  52:../../../libDaisy//src/per/adc.h ****     Internal Callbacks handle the pin addressing.
  53:../../../libDaisy//src/per/adc.h ****     \param mux_channels must be 1-8
  54:../../../libDaisy//src/per/adc.h ****     \param mux_0 First mux pin
  55:../../../libDaisy//src/per/adc.h ****     \param mux_1 Second mux pin
  56:../../../libDaisy//src/per/adc.h ****     \param mux_2 Third mux pin
  57:../../../libDaisy//src/per/adc.h ****     \param adc_pin &
  58:../../../libDaisy//src/per/adc.h ****     */
  59:../../../libDaisy//src/per/adc.h ****     void InitMux(dsy_gpio_pin adc_pin,
  60:../../../libDaisy//src/per/adc.h ****                  size_t       mux_channels,
  61:../../../libDaisy//src/per/adc.h ****                  dsy_gpio_pin mux_0,
  62:../../../libDaisy//src/per/adc.h ****                  dsy_gpio_pin mux_1 = {DSY_GPIOX, 0},
  63:../../../libDaisy//src/per/adc.h ****                  dsy_gpio_pin mux_2 = {DSY_GPIOX, 0});
  64:../../../libDaisy//src/per/adc.h **** 
  65:../../../libDaisy//src/per/adc.h ****     dsy_gpio pin_;                   /**< & */
  66:../../../libDaisy//src/per/adc.h ****     dsy_gpio mux_pin_[MUX_SEL_LAST]; /**< & */
  67:../../../libDaisy//src/per/adc.h ****     uint8_t  mux_channels_;          /**< & */
  68:../../../libDaisy//src/per/adc.h **** };
  69:../../../libDaisy//src/per/adc.h **** 
  70:../../../libDaisy//src/per/adc.h **** /**
  71:../../../libDaisy//src/per/adc.h ****    @brief Handler for analog to digital conversion
  72:../../../libDaisy//src/per/adc.h **** */
  73:../../../libDaisy//src/per/adc.h **** class AdcHandle
  74:../../../libDaisy//src/per/adc.h **** {
  75:../../../libDaisy//src/per/adc.h ****   public:
  76:../../../libDaisy//src/per/adc.h ****     /** Supported oversampling amounts */
  77:../../../libDaisy//src/per/adc.h ****     enum OverSampling
  78:../../../libDaisy//src/per/adc.h ****     {
  79:../../../libDaisy//src/per/adc.h ****         OVS_NONE, /**< & */
  80:../../../libDaisy//src/per/adc.h ****         OVS_4,    /**< & */
  81:../../../libDaisy//src/per/adc.h ****         OVS_8,    /**< & */
  82:../../../libDaisy//src/per/adc.h ****         OVS_16,   /**< & */
  83:../../../libDaisy//src/per/adc.h ****         OVS_32,   /**< & */
  84:../../../libDaisy//src/per/adc.h ****         OVS_64,   /**< & */
  85:../../../libDaisy//src/per/adc.h ****         OVS_128,  /**< & */
  86:../../../libDaisy//src/per/adc.h ****         OVS_256,  /**< & */
  87:../../../libDaisy//src/per/adc.h ****         OVS_512,  /**< & */
  88:../../../libDaisy//src/per/adc.h ****         OVS_1024, /**< & */
ARM GAS  /var/folders/wz/z09yph4n0qj4t7mjxhl6ttn80000gn/T//ccz7tZYf.s 			page 7


  89:../../../libDaisy//src/per/adc.h ****         OVS_LAST, /**< & */
  90:../../../libDaisy//src/per/adc.h ****     };
  91:../../../libDaisy//src/per/adc.h **** 
  92:../../../libDaisy//src/per/adc.h ****     AdcHandle() {}
  93:../../../libDaisy//src/per/adc.h ****     ~AdcHandle() {}
  74              		.loc 5 93 5 is_stmt 1 view .LVU7
  75              		.loc 5 93 5 is_stmt 0 view .LVU8
  76              	.LBE90:
  77              	.LBB91:
  78              	.LBI91:
  79              		.file 6 "../../../libDaisy//src/hid/audio.h"
   1:../../../libDaisy//src/hid/audio.h **** #ifndef DSY_AUDIO_H
   2:../../../libDaisy//src/hid/audio.h **** #define DSY_AUDIO_H /**< & */
   3:../../../libDaisy//src/hid/audio.h **** 
   4:../../../libDaisy//src/hid/audio.h **** #include "per/sai.h"
   5:../../../libDaisy//src/hid/audio.h **** 
   6:../../../libDaisy//src/hid/audio.h **** namespace daisy
   7:../../../libDaisy//src/hid/audio.h **** {
   8:../../../libDaisy//src/hid/audio.h **** /** @brief Audio Engine Handle
   9:../../../libDaisy//src/hid/audio.h ****  *  @ingroup audio 
  10:../../../libDaisy//src/hid/audio.h ****  *  @details This class allows for higher level access to an audio engine.
  11:../../../libDaisy//src/hid/audio.h ****  *           If you're using a SOM like the DaisySeed or DaisyPatchSM (or any 
  12:../../../libDaisy//src/hid/audio.h ****  *            board that includes one of those objects) then the intialization
  13:../../../libDaisy//src/hid/audio.h ****  *            is already taken  care of.
  14:../../../libDaisy//src/hid/audio.h ****  *           If you're setting up your own custom hardware, or need to make changes
  15:../../../libDaisy//src/hid/audio.h ****  *           you will have to take the following steps:
  16:../../../libDaisy//src/hid/audio.h ****  *             1. Create and Initialize an SaiHandle or two depending on your requirements
  17:../../../libDaisy//src/hid/audio.h ****  *             2. Initialize the Audio Handle with the desired settings and the Initialized SaiHand
  18:../../../libDaisy//src/hid/audio.h ****  *             3. If the connected codec requires special configuration or initialization, do so
  19:../../../libDaisy//src/hid/audio.h ****  *             4. Write a callback method using either the AudioCallback or the InterleavingAudioCa
  20:../../../libDaisy//src/hid/audio.h ****  *             5. Start the Audio using one of the StartAudio function
  21:../../../libDaisy//src/hid/audio.h ****  */
  22:../../../libDaisy//src/hid/audio.h **** class AudioHandle
  23:../../../libDaisy//src/hid/audio.h **** {
  24:../../../libDaisy//src/hid/audio.h ****   public:
  25:../../../libDaisy//src/hid/audio.h ****     /** Manually configurable details about the Audio Engine */
  26:../../../libDaisy//src/hid/audio.h ****     /** TODO: Figure out how to get samplerate in here. */
  27:../../../libDaisy//src/hid/audio.h ****     struct Config
  28:../../../libDaisy//src/hid/audio.h ****     {
  29:../../../libDaisy//src/hid/audio.h ****         /** number of samples to process per callback */
  30:../../../libDaisy//src/hid/audio.h ****         size_t blocksize;
  31:../../../libDaisy//src/hid/audio.h **** 
  32:../../../libDaisy//src/hid/audio.h ****         /**< Sample rate of audio */
  33:../../../libDaisy//src/hid/audio.h ****         SaiHandle::Config::SampleRate samplerate;
  34:../../../libDaisy//src/hid/audio.h **** 
  35:../../../libDaisy//src/hid/audio.h ****         /** factor for adjustment before and after callback for hardware that may have extra headro
  36:../../../libDaisy//src/hid/audio.h ****         float postgain;
  37:../../../libDaisy//src/hid/audio.h **** 
  38:../../../libDaisy//src/hid/audio.h ****         /** factor for additional one-sided compensation to audio path for hardware that may
  39:../../../libDaisy//src/hid/audio.h ****          *  have unequal input/output ranges
  40:../../../libDaisy//src/hid/audio.h ****          */
  41:../../../libDaisy//src/hid/audio.h ****         float output_compensation;
  42:../../../libDaisy//src/hid/audio.h **** 
  43:../../../libDaisy//src/hid/audio.h ****         /** Sets default values for config struct */
  44:../../../libDaisy//src/hid/audio.h ****         Config()
  45:../../../libDaisy//src/hid/audio.h ****         : blocksize(48),
  46:../../../libDaisy//src/hid/audio.h ****           samplerate(SaiHandle::Config::SampleRate::SAI_48KHZ),
ARM GAS  /var/folders/wz/z09yph4n0qj4t7mjxhl6ttn80000gn/T//ccz7tZYf.s 			page 8


  47:../../../libDaisy//src/hid/audio.h ****           postgain(1.f),
  48:../../../libDaisy//src/hid/audio.h ****           output_compensation(1.f)
  49:../../../libDaisy//src/hid/audio.h ****         {
  50:../../../libDaisy//src/hid/audio.h ****         }
  51:../../../libDaisy//src/hid/audio.h ****     };
  52:../../../libDaisy//src/hid/audio.h **** 
  53:../../../libDaisy//src/hid/audio.h ****     enum class Result
  54:../../../libDaisy//src/hid/audio.h ****     {
  55:../../../libDaisy//src/hid/audio.h ****         OK,
  56:../../../libDaisy//src/hid/audio.h ****         ERR,
  57:../../../libDaisy//src/hid/audio.h ****     };
  58:../../../libDaisy//src/hid/audio.h **** 
  59:../../../libDaisy//src/hid/audio.h ****     /** Non-Interleaving input buffer
  60:../../../libDaisy//src/hid/audio.h ****      * Buffer arranged by float[chn][sample] 
  61:../../../libDaisy//src/hid/audio.h ****      * const so that the user can't modify the input
  62:../../../libDaisy//src/hid/audio.h ****      */
  63:../../../libDaisy//src/hid/audio.h ****     typedef const float* const* InputBuffer;
  64:../../../libDaisy//src/hid/audio.h **** 
  65:../../../libDaisy//src/hid/audio.h ****     /** Non-Interleaving output buffer
  66:../../../libDaisy//src/hid/audio.h ****      * Arranged by float[chn][sample] 
  67:../../../libDaisy//src/hid/audio.h ****      */
  68:../../../libDaisy//src/hid/audio.h ****     typedef float** OutputBuffer;
  69:../../../libDaisy//src/hid/audio.h **** 
  70:../../../libDaisy//src/hid/audio.h ****     /** Type for a Non-Interleaving audio callback 
  71:../../../libDaisy//src/hid/audio.h ****      * Non-Interleaving audio callbacks in daisy will be of this type
  72:../../../libDaisy//src/hid/audio.h ****      */
  73:../../../libDaisy//src/hid/audio.h ****     typedef void (*AudioCallback)(InputBuffer  in,
  74:../../../libDaisy//src/hid/audio.h ****                                   OutputBuffer out,
  75:../../../libDaisy//src/hid/audio.h ****                                   size_t       size);
  76:../../../libDaisy//src/hid/audio.h **** 
  77:../../../libDaisy//src/hid/audio.h ****     /** Interleaving Input buffer
  78:../../../libDaisy//src/hid/audio.h ****      ** audio is prepared as { L0, R0, L1, R1, . . . LN, RN }]
  79:../../../libDaisy//src/hid/audio.h ****      ** this is const, as the user shouldn't modify it
  80:../../../libDaisy//src/hid/audio.h ****     */
  81:../../../libDaisy//src/hid/audio.h ****     typedef const float* InterleavingInputBuffer;
  82:../../../libDaisy//src/hid/audio.h **** 
  83:../../../libDaisy//src/hid/audio.h ****     /** Interleaving Output buffer 
  84:../../../libDaisy//src/hid/audio.h ****      ** audio is prepared as { L0, R0, L1, R1, . . . LN, RN }
  85:../../../libDaisy//src/hid/audio.h ****     */
  86:../../../libDaisy//src/hid/audio.h ****     typedef float* InterleavingOutputBuffer;
  87:../../../libDaisy//src/hid/audio.h **** 
  88:../../../libDaisy//src/hid/audio.h ****     /** Interleaving Audio Callback 
  89:../../../libDaisy//src/hid/audio.h ****      * Interleaving audio callbacks in daisy must be of this type
  90:../../../libDaisy//src/hid/audio.h ****      */
  91:../../../libDaisy//src/hid/audio.h ****     typedef void (*InterleavingAudioCallback)(InterleavingInputBuffer  in,
  92:../../../libDaisy//src/hid/audio.h ****                                               InterleavingOutputBuffer out,
  93:../../../libDaisy//src/hid/audio.h ****                                               size_t                   size);
  94:../../../libDaisy//src/hid/audio.h **** 
  95:../../../libDaisy//src/hid/audio.h ****     AudioHandle() : pimpl_(nullptr) {}
  96:../../../libDaisy//src/hid/audio.h ****     ~AudioHandle() {}
  80              		.loc 6 96 5 is_stmt 1 view .LVU9
  81              		.loc 6 96 5 is_stmt 0 view .LVU10
  82              	.LBE91:
  83              		.loc 2 22 19 view .LVU11
  84 0000 7047     		bx	lr
  85              		.cfi_endproc
  86              	.LFE2529:
ARM GAS  /var/folders/wz/z09yph4n0qj4t7mjxhl6ttn80000gn/T//ccz7tZYf.s 			page 9


  88              		.weak	_ZN5daisy9DaisySeedD1Ev
  89              		.thumb_set _ZN5daisy9DaisySeedD1Ev,_ZN5daisy9DaisySeedD2Ev
  90 0002 00BF     		.section	.text._Z13AudioCallbackPKPKfPPfj,"ax",%progbits
  91              		.align	1
  92              		.p2align 2,,3
  93              		.global	_Z13AudioCallbackPKPKfPPfj
  94              		.syntax unified
  95              		.thumb
  96              		.thumb_func
  98              	_Z13AudioCallbackPKPKfPPfj:
  99              	.LVL2:
 100              	.LFB4796:
 101              		.file 7 "LoopyTunes.cpp"
   1:LoopyTunes.cpp **** #include "daisy_seed.h"
   2:LoopyTunes.cpp **** #include "daisysp.h"
   3:LoopyTunes.cpp **** #include "DSP/Mixer.h"
   4:LoopyTunes.cpp **** #include "Architecture/ConnectionMatrix.h"
   5:LoopyTunes.cpp **** 
   6:LoopyTunes.cpp **** using namespace daisy;
   7:LoopyTunes.cpp **** using namespace daisysp;
   8:LoopyTunes.cpp **** 
   9:LoopyTunes.cpp **** // Hardware
  10:LoopyTunes.cpp **** DaisySeed hw;
  11:LoopyTunes.cpp **** 
  12:LoopyTunes.cpp **** // GPIO
  13:LoopyTunes.cpp **** static Switch record;
  14:LoopyTunes.cpp **** static Switch play;
  15:LoopyTunes.cpp **** 
  16:LoopyTunes.cpp **** // Global
  17:LoopyTunes.cpp **** static float sampleRate;
  18:LoopyTunes.cpp **** 
  19:LoopyTunes.cpp **** // System - Flash
  20:LoopyTunes.cpp **** ConnectionMatrix connectionMatrix;
  21:LoopyTunes.cpp **** 
  22:LoopyTunes.cpp **** // DSP - SDRAM
  23:LoopyTunes.cpp **** static Mixer mixer;
  24:LoopyTunes.cpp **** 
  25:LoopyTunes.cpp **** // Buffers
  26:LoopyTunes.cpp **** float DSY_SDRAM_BSS mix[2][SAMPLERATE * DURATION];
  27:LoopyTunes.cpp **** 
  28:LoopyTunes.cpp **** float DSY_SDRAM_BSS track1[2][SAMPLERATE * DURATION];
  29:LoopyTunes.cpp **** float DSY_SDRAM_BSS track2[2][SAMPLERATE * DURATION];
  30:LoopyTunes.cpp **** float DSY_SDRAM_BSS track3[2][SAMPLERATE * DURATION];
  31:LoopyTunes.cpp **** float DSY_SDRAM_BSS track4[2][SAMPLERATE * DURATION];
  32:LoopyTunes.cpp **** 
  33:LoopyTunes.cpp **** // Buffer pointers
  34:LoopyTunes.cpp **** float* mixPtr[2] = {mix[L], mix[R]};
  35:LoopyTunes.cpp **** 
  36:LoopyTunes.cpp **** float* track1Ptr[2] = {track1[L], track1[R]};
  37:LoopyTunes.cpp **** float* track2Ptr[2] = {track2[L], track2[R]};
  38:LoopyTunes.cpp **** float* track3Ptr[2] = {track3[L], track3[R]};
  39:LoopyTunes.cpp **** float* track4Ptr[2] = {track4[L], track4[R]};
  40:LoopyTunes.cpp **** 
  41:LoopyTunes.cpp **** // UI - QSPI
  42:LoopyTunes.cpp **** 
  43:LoopyTunes.cpp **** // functions
  44:LoopyTunes.cpp **** void initialise()
ARM GAS  /var/folders/wz/z09yph4n0qj4t7mjxhl6ttn80000gn/T//ccz7tZYf.s 			page 10


  45:LoopyTunes.cpp **** {
  46:LoopyTunes.cpp **** 	// initialise DSP
  47:LoopyTunes.cpp **** 	mixer.init(mixPtr, track1Ptr, track2Ptr, track3Ptr, track4Ptr, SAMPLERATE * DURATION);
  48:LoopyTunes.cpp **** 
  49:LoopyTunes.cpp **** 	// initialise GPIO
  50:LoopyTunes.cpp **** 	record.Init(hw.GetPin(22), sampleRate / 48.f, Switch::Type::TYPE_MOMENTARY, Switch::Polarity::POLA
  51:LoopyTunes.cpp **** 	play.Init(hw.GetPin(23), sampleRate / 48.f, Switch::Type::TYPE_MOMENTARY, Switch::Polarity::POLARI
  52:LoopyTunes.cpp **** }
  53:LoopyTunes.cpp **** 
  54:LoopyTunes.cpp **** void pollInputs()
  55:LoopyTunes.cpp **** {
  56:LoopyTunes.cpp **** 	record.Debounce();
  57:LoopyTunes.cpp **** 	play.Debounce();
  58:LoopyTunes.cpp **** 
  59:LoopyTunes.cpp **** 	if(record.Pressed())
  60:LoopyTunes.cpp **** 		mixer.setIsRecording();
  61:LoopyTunes.cpp **** 
  62:LoopyTunes.cpp **** 	if(play.Pressed())
  63:LoopyTunes.cpp **** 		mixer.setIsPlaying();
  64:LoopyTunes.cpp **** }
  65:LoopyTunes.cpp **** 
  66:LoopyTunes.cpp **** void AudioCallback(AudioHandle::InputBuffer in, AudioHandle::OutputBuffer out, size_t size)
  67:LoopyTunes.cpp **** {
 102              		.loc 7 67 1 is_stmt 1 view -0
 103              		.cfi_startproc
 104              		@ args = 0, pretend = 0, frame = 0
 105              		@ frame_needed = 0, uses_anonymous_args = 0
  68:LoopyTunes.cpp **** 	pollInputs();
 106              		.loc 7 68 2 view .LVU13
 107              	.LBB103:
 108              	.LBI103:
  54:LoopyTunes.cpp **** {
 109              		.loc 7 54 6 view .LVU14
 110              	.LBB104:
  56:LoopyTunes.cpp **** 	play.Debounce();
 111              		.loc 7 56 2 view .LVU15
 112              	.LBE104:
 113              	.LBE103:
  67:LoopyTunes.cpp **** 	pollInputs();
 114              		.loc 7 67 1 is_stmt 0 view .LVU16
 115 0000 2DE9F843 		push	{r3, r4, r5, r6, r7, r8, r9, lr}
 116              		.cfi_def_cfa_offset 32
 117              		.cfi_offset 3, -32
 118              		.cfi_offset 4, -28
 119              		.cfi_offset 5, -24
 120              		.cfi_offset 6, -20
 121              		.cfi_offset 7, -16
 122              		.cfi_offset 8, -12
 123              		.cfi_offset 9, -8
 124              		.cfi_offset 14, -4
 125              	.LBB118:
 126              	.LBB115:
  56:LoopyTunes.cpp **** 	play.Debounce();
 127              		.loc 7 56 17 view .LVU17
 128 0004 1F4D     		ldr	r5, .L16
 129              	.LBE115:
 130              	.LBE118:
ARM GAS  /var/folders/wz/z09yph4n0qj4t7mjxhl6ttn80000gn/T//ccz7tZYf.s 			page 11


  67:LoopyTunes.cpp **** 	pollInputs();
 131              		.loc 7 67 1 view .LVU18
 132 0006 0446     		mov	r4, r0
 133 0008 0F46     		mov	r7, r1
 134 000a 9146     		mov	r9, r2
 135              	.LBB119:
 136              	.LBB116:
  56:LoopyTunes.cpp **** 	play.Debounce();
 137              		.loc 7 56 17 view .LVU19
 138 000c 2846     		mov	r0, r5
 139              	.LVL3:
  56:LoopyTunes.cpp **** 	play.Debounce();
 140              		.loc 7 56 17 view .LVU20
 141 000e FFF7FEFF 		bl	_ZN5daisy6Switch8DebounceEv
 142              	.LVL4:
  57:LoopyTunes.cpp **** 
 143              		.loc 7 57 2 is_stmt 1 view .LVU21
  57:LoopyTunes.cpp **** 
 144              		.loc 7 57 15 is_stmt 0 view .LVU22
 145 0012 1D48     		ldr	r0, .L16+4
 146 0014 FFF7FEFF 		bl	_ZN5daisy6Switch8DebounceEv
 147              	.LVL5:
  59:LoopyTunes.cpp **** 		mixer.setIsRecording();
 148              		.loc 7 59 2 is_stmt 1 view .LVU23
 149              	.LBB105:
 150              	.LBI105:
  43:../../../libDaisy//src/hid/switch.h **** 
  44:../../../libDaisy//src/hid/switch.h ****     /** 
  45:../../../libDaisy//src/hid/switch.h ****     Initializes the switch object with a given port/pin combo.
  46:../../../libDaisy//src/hid/switch.h ****     \param pin port/pin object to tell the switch which hardware pin to use.
  47:../../../libDaisy//src/hid/switch.h ****     \param update_rate Does nothing. Backwards compatibility until next breaking update.
  48:../../../libDaisy//src/hid/switch.h ****     \param t switch type -- Default: TYPE_MOMENTARY
  49:../../../libDaisy//src/hid/switch.h ****     \param pol switch polarity -- Default: POLARITY_INVERTED
  50:../../../libDaisy//src/hid/switch.h ****     \param pu switch pull up/down -- Default: PULL_UP
  51:../../../libDaisy//src/hid/switch.h ****     */
  52:../../../libDaisy//src/hid/switch.h ****     void
  53:../../../libDaisy//src/hid/switch.h ****     Init(dsy_gpio_pin pin, float update_rate, Type t, Polarity pol, Pull pu);
  54:../../../libDaisy//src/hid/switch.h **** 
  55:../../../libDaisy//src/hid/switch.h ****     /**
  56:../../../libDaisy//src/hid/switch.h ****        Simplified Init.
  57:../../../libDaisy//src/hid/switch.h ****        \param pin port/pin object to tell the switch which hardware pin to use.
  58:../../../libDaisy//src/hid/switch.h ****        \param update_rate Left for backwards compatibility until next breaking change.
  59:../../../libDaisy//src/hid/switch.h ****     */
  60:../../../libDaisy//src/hid/switch.h ****     void Init(dsy_gpio_pin pin, float update_rate = 0.f);
  61:../../../libDaisy//src/hid/switch.h **** 
  62:../../../libDaisy//src/hid/switch.h ****     /** 
  63:../../../libDaisy//src/hid/switch.h ****     Called at update_rate to debounce and handle timing for the switch.
  64:../../../libDaisy//src/hid/switch.h ****     In order for events not to be missed, its important that the Edge/Pressed checks
  65:../../../libDaisy//src/hid/switch.h ****     be made at the same rate as the debounce function is being called.
  66:../../../libDaisy//src/hid/switch.h ****     */
  67:../../../libDaisy//src/hid/switch.h ****     void Debounce();
  68:../../../libDaisy//src/hid/switch.h **** 
  69:../../../libDaisy//src/hid/switch.h ****     /** \return true if a button was just pressed. */
  70:../../../libDaisy//src/hid/switch.h ****     inline bool RisingEdge() const { return updated_ ? state_ == 0x7f : false; }
  71:../../../libDaisy//src/hid/switch.h **** 
  72:../../../libDaisy//src/hid/switch.h ****     /** \return true if the button was just released */
  73:../../../libDaisy//src/hid/switch.h ****     inline bool FallingEdge() const
ARM GAS  /var/folders/wz/z09yph4n0qj4t7mjxhl6ttn80000gn/T//ccz7tZYf.s 			page 12


  74:../../../libDaisy//src/hid/switch.h ****     {
  75:../../../libDaisy//src/hid/switch.h ****         return updated_ ? state_ == 0x80 : false;
  76:../../../libDaisy//src/hid/switch.h ****     }
  77:../../../libDaisy//src/hid/switch.h **** 
  78:../../../libDaisy//src/hid/switch.h ****     /** \return true if the button is held down (or if the toggle is on) */
  79:../../../libDaisy//src/hid/switch.h ****     inline bool Pressed() const { return state_ == 0xff; }
 151              		.loc 1 79 17 view .LVU24
 152              	.LBB106:
 153              		.loc 1 79 35 view .LVU25
 154              		.loc 1 79 35 is_stmt 0 view .LVU26
 155              	.LBE106:
 156              	.LBE105:
  59:LoopyTunes.cpp **** 		mixer.setIsRecording();
 157              		.loc 7 59 2 view .LVU27
 158 0018 AB7A     		ldrb	r3, [r5, #10]	@ zero_extendqisi2
 159 001a FF2B     		cmp	r3, #255
 160 001c 26D0     		beq	.L14
  62:LoopyTunes.cpp **** 		mixer.setIsPlaying();
 161              		.loc 7 62 2 is_stmt 1 view .LVU28
 162              	.LVL6:
 163              	.LBB107:
 164              	.LBI107:
 165              		.loc 1 79 17 view .LVU29
 166              	.LBB108:
 167              		.loc 1 79 35 view .LVU30
 168              		.loc 1 79 42 is_stmt 0 view .LVU31
 169 001e 1A4B     		ldr	r3, .L16+4
 170              	.LBE108:
 171              	.LBE107:
  62:LoopyTunes.cpp **** 		mixer.setIsPlaying();
 172              		.loc 7 62 2 view .LVU32
 173 0020 9B7A     		ldrb	r3, [r3, #10]	@ zero_extendqisi2
 174 0022 FF2B     		cmp	r3, #255
 175 0024 29D0     		beq	.L15
 176              	.L6:
 177              	.LBE116:
 178              	.LBE119:
  69:LoopyTunes.cpp **** 
  70:LoopyTunes.cpp **** 	mixer.processInput(in[0], in[1], size);
 179              		.loc 7 70 2 is_stmt 1 view .LVU33
 180              		.loc 7 70 20 is_stmt 0 view .LVU34
 181 0026 4B46     		mov	r3, r9
 182 0028 1848     		ldr	r0, .L16+8
 183 002a D4E90012 		ldrd	r1, r2, [r4]
 184 002e FFF7FEFF 		bl	_ZN5Mixer12processInputEPKfS1_j
 185              	.LVL7:
  71:LoopyTunes.cpp **** 
  72:LoopyTunes.cpp **** 	// process output
  73:LoopyTunes.cpp **** 	for(size_t i = 0 ; i < size ; i++)
 186              		.loc 7 73 2 is_stmt 1 view .LVU35
 187              	.LBB120:
 188              		.loc 7 73 23 view .LVU36
 189 0032 B9F1000F 		cmp	r9, #0
 190 0036 17D0     		beq	.L4
 191              		.loc 7 73 13 is_stmt 0 view .LVU37
 192 0038 0024     		movs	r4, #0
 193              	.LVL8:
ARM GAS  /var/folders/wz/z09yph4n0qj4t7mjxhl6ttn80000gn/T//ccz7tZYf.s 			page 13


 194              	.L8:
  74:LoopyTunes.cpp **** 	{
  75:LoopyTunes.cpp **** 		mixer.tick();
 195              		.loc 7 75 3 is_stmt 1 discriminator 2 view .LVU38
 196              		.loc 7 75 13 is_stmt 0 discriminator 2 view .LVU39
 197 003a 1448     		ldr	r0, .L16+8
 198 003c 4FEA8408 		lsl	r8, r4, #2
 199 0040 FFF7FEFF 		bl	_ZN5Mixer4tickEv
 200              	.LVL9:
  76:LoopyTunes.cpp **** 
  77:LoopyTunes.cpp **** 		out[L][i] = mixer.processOutputLeft();
 201              		.loc 7 77 3 is_stmt 1 discriminator 2 view .LVU40
 202              		.loc 7 77 11 is_stmt 0 discriminator 2 view .LVU41
 203 0044 3E68     		ldr	r6, [r7]
 204              		.loc 7 77 38 discriminator 2 view .LVU42
 205 0046 1148     		ldr	r0, .L16+8
 206              		.loc 7 77 11 discriminator 2 view .LVU43
 207 0048 06EB8406 		add	r6, r6, r4, lsl #2
  73:LoopyTunes.cpp **** 	{
 208              		.loc 7 73 2 discriminator 2 view .LVU44
 209 004c 0134     		adds	r4, r4, #1
 210              	.LVL10:
 211              		.loc 7 77 38 discriminator 2 view .LVU45
 212 004e FFF7FEFF 		bl	_ZN5Mixer17processOutputLeftEv
 213              	.LVL11:
  78:LoopyTunes.cpp **** 		out[R][i] = mixer.processOutputRight();
 214              		.loc 7 78 11 discriminator 2 view .LVU46
 215 0052 7D68     		ldr	r5, [r7, #4]
 216              		.loc 7 78 39 discriminator 2 view .LVU47
 217 0054 0D48     		ldr	r0, .L16+8
  77:LoopyTunes.cpp **** 		out[R][i] = mixer.processOutputRight();
 218              		.loc 7 77 13 discriminator 2 view .LVU48
 219 0056 86ED000A 		vstr.32	s0, [r6]
 220              		.loc 7 78 3 is_stmt 1 discriminator 2 view .LVU49
 221              		.loc 7 78 11 is_stmt 0 discriminator 2 view .LVU50
 222 005a 4544     		add	r5, r5, r8
 223              		.loc 7 78 39 discriminator 2 view .LVU51
 224 005c FFF7FEFF 		bl	_ZN5Mixer18processOutputRightEv
 225              	.LVL12:
  73:LoopyTunes.cpp **** 	{
 226              		.loc 7 73 23 discriminator 2 view .LVU52
 227 0060 A145     		cmp	r9, r4
 228              		.loc 7 78 13 discriminator 2 view .LVU53
 229 0062 85ED000A 		vstr.32	s0, [r5]
  73:LoopyTunes.cpp **** 	{
 230              		.loc 7 73 2 is_stmt 1 discriminator 2 view .LVU54
 231              	.LVL13:
  73:LoopyTunes.cpp **** 	{
 232              		.loc 7 73 23 discriminator 2 view .LVU55
 233 0066 E8D1     		bne	.L8
 234              	.LVL14:
 235              	.L4:
  73:LoopyTunes.cpp **** 	{
 236              		.loc 7 73 23 is_stmt 0 discriminator 2 view .LVU56
 237              	.LBE120:
  79:LoopyTunes.cpp **** 	}
  80:LoopyTunes.cpp **** }
ARM GAS  /var/folders/wz/z09yph4n0qj4t7mjxhl6ttn80000gn/T//ccz7tZYf.s 			page 14


 238              		.loc 7 80 1 view .LVU57
 239 0068 BDE8F883 		pop	{r3, r4, r5, r6, r7, r8, r9, pc}
 240              	.LVL15:
 241              	.L14:
 242              	.LBB121:
 243              	.LBB117:
  60:LoopyTunes.cpp **** 
 244              		.loc 7 60 3 is_stmt 1 view .LVU58
 245              	.LBB110:
 246              	.LBI110:
 247              		.file 8 "DSP/Mixer.h"
   1:DSP/Mixer.h   **** #include "Track.h"
   2:DSP/Mixer.h   **** 
   3:DSP/Mixer.h   **** /********************************************//**
   4:DSP/Mixer.h   ****  *  Class name: Mixer
   5:DSP/Mixer.h   ****  *  Function: Mixes outputs of track classes
   6:DSP/Mixer.h   ****  ***********************************************/
   7:DSP/Mixer.h   **** 
   8:DSP/Mixer.h   **** class Mixer
   9:DSP/Mixer.h   **** {
  10:DSP/Mixer.h   **** public:
  11:DSP/Mixer.h   **** 
  12:DSP/Mixer.h   ****     void init(float* m[2], float* t1[2], float* t2[2], float* t3[2], float* t4[2], size_t s); 
  13:DSP/Mixer.h   ****     
  14:DSP/Mixer.h   ****     void prepare();
  15:DSP/Mixer.h   ****     void processBlock(size_t size);
  16:DSP/Mixer.h   ****     void tick();
  17:DSP/Mixer.h   **** 
  18:DSP/Mixer.h   ****     void processInput(const float* left, const float* right, size_t size);
  19:DSP/Mixer.h   ****     float processOutputLeft();
  20:DSP/Mixer.h   ****     float processOutputRight();
  21:DSP/Mixer.h   **** 
  22:DSP/Mixer.h   ****     void setIsRecording() { track1.track.setIsRecording(); }
 248              		.loc 8 22 10 view .LVU59
 249              	.LBB111:
 250              		.loc 8 22 29 view .LVU60
 251              		.loc 8 22 56 is_stmt 0 view .LVU61
 252 006c 0848     		ldr	r0, .L16+12
 253 006e FFF7FEFF 		bl	_ZN5Track14setIsRecordingEv
 254              	.LVL16:
 255              		.loc 8 22 56 view .LVU62
 256              	.LBE111:
 257              	.LBE110:
  62:LoopyTunes.cpp **** 		mixer.setIsPlaying();
 258              		.loc 7 62 2 is_stmt 1 view .LVU63
 259              	.LBB112:
 260              		.loc 1 79 17 view .LVU64
 261              	.LBB109:
 262              		.loc 1 79 35 view .LVU65
 263              		.loc 1 79 42 is_stmt 0 view .LVU66
 264 0072 054B     		ldr	r3, .L16+4
 265              	.LBE109:
 266              	.LBE112:
  62:LoopyTunes.cpp **** 		mixer.setIsPlaying();
 267              		.loc 7 62 2 view .LVU67
 268 0074 9B7A     		ldrb	r3, [r3, #10]	@ zero_extendqisi2
 269 0076 FF2B     		cmp	r3, #255
ARM GAS  /var/folders/wz/z09yph4n0qj4t7mjxhl6ttn80000gn/T//ccz7tZYf.s 			page 15


 270 0078 D5D1     		bne	.L6
 271              	.L15:
  63:LoopyTunes.cpp **** }
 272              		.loc 7 63 3 is_stmt 1 view .LVU68
 273              	.LVL17:
 274              	.LBB113:
 275              	.LBI113:
  23:DSP/Mixer.h   ****     void setIsPlaying() { track1.track.setIsPlaying(); }
 276              		.loc 8 23 10 view .LVU69
 277              	.LBB114:
 278              		.loc 8 23 27 view .LVU70
 279              		.loc 8 23 52 is_stmt 0 view .LVU71
 280 007a 0548     		ldr	r0, .L16+12
 281 007c FFF7FEFF 		bl	_ZN5Track12setIsPlayingEv
 282              	.LVL18:
 283              		.loc 8 23 56 view .LVU72
 284 0080 D1E7     		b	.L6
 285              	.L17:
 286 0082 00BF     		.align	2
 287              	.L16:
 288 0084 00000000 		.word	.LANCHOR0
 289 0088 00000000 		.word	.LANCHOR1
 290 008c 00000000 		.word	.LANCHOR2
 291 0090 14000000 		.word	.LANCHOR2+20
 292              	.LBE114:
 293              	.LBE113:
 294              	.LBE117:
 295              	.LBE121:
 296              		.cfi_endproc
 297              	.LFE4796:
 299              		.section	.text._Z10initialisev,"ax",%progbits
 300              		.align	1
 301              		.p2align 2,,3
 302              		.global	_Z10initialisev
 303              		.syntax unified
 304              		.thumb
 305              		.thumb_func
 307              	_Z10initialisev:
 308              	.LFB4794:
  45:LoopyTunes.cpp **** 	// initialise DSP
 309              		.loc 7 45 1 is_stmt 1 view -0
 310              		.cfi_startproc
 311              		@ args = 0, pretend = 0, frame = 8
 312              		@ frame_needed = 0, uses_anonymous_args = 0
  47:LoopyTunes.cpp **** 
 313              		.loc 7 47 2 view .LVU74
  45:LoopyTunes.cpp **** 	// initialise DSP
 314              		.loc 7 45 1 is_stmt 0 view .LVU75
 315 0000 30B5     		push	{r4, r5, lr}
 316              		.cfi_def_cfa_offset 12
 317              		.cfi_offset 4, -12
 318              		.cfi_offset 5, -8
 319              		.cfi_offset 14, -4
  47:LoopyTunes.cpp **** 
 320              		.loc 7 47 12 view .LVU76
 321 0002 1B48     		ldr	r0, .L20
 322 0004 1B49     		ldr	r1, .L20+4
ARM GAS  /var/folders/wz/z09yph4n0qj4t7mjxhl6ttn80000gn/T//ccz7tZYf.s 			page 16


 323 0006 1C4C     		ldr	r4, .L20+8
 324 0008 1C4B     		ldr	r3, .L20+12
 325 000a 1D4A     		ldr	r2, .L20+16
  50:LoopyTunes.cpp **** 	play.Init(hw.GetPin(23), sampleRate / 48.f, Switch::Type::TYPE_MOMENTARY, Switch::Polarity::POLARI
 326              		.loc 7 50 13 view .LVU77
 327 000c 1D4D     		ldr	r5, .L20+20
  45:LoopyTunes.cpp **** 	// initialise DSP
 328              		.loc 7 45 1 view .LVU78
 329 000e 2DED028B 		vpush.64	{d8}
 330              		.cfi_def_cfa_offset 20
 331              		.cfi_offset 80, -20
 332              		.cfi_offset 81, -16
 333 0012 87B0     		sub	sp, sp, #28
 334              		.cfi_def_cfa_offset 48
  50:LoopyTunes.cpp **** 	play.Init(hw.GetPin(23), sampleRate / 48.f, Switch::Type::TYPE_MOMENTARY, Switch::Polarity::POLARI
 335              		.loc 7 50 13 view .LVU79
 336 0014 9FED1C8A 		vldr.32	s16, .L20+24
  47:LoopyTunes.cpp **** 
 337              		.loc 7 47 12 view .LVU80
 338 0018 CDE90110 		strd	r1, r0, [sp, #4]
 339 001c 0094     		str	r4, [sp]
  50:LoopyTunes.cpp **** 	play.Init(hw.GetPin(23), sampleRate / 48.f, Switch::Type::TYPE_MOMENTARY, Switch::Polarity::POLARI
 340              		.loc 7 50 13 view .LVU81
 341 001e 0124     		movs	r4, #1
  47:LoopyTunes.cpp **** 
 342              		.loc 7 47 12 view .LVU82
 343 0020 1A49     		ldr	r1, .L20+28
 344 0022 1B48     		ldr	r0, .L20+32
 345 0024 FFF7FEFF 		bl	_ZN5Mixer4initEPPfS1_S1_S1_S1_j
 346              	.LVL19:
  50:LoopyTunes.cpp **** 	play.Init(hw.GetPin(23), sampleRate / 48.f, Switch::Type::TYPE_MOMENTARY, Switch::Polarity::POLARI
 347              		.loc 7 50 2 is_stmt 1 view .LVU83
  50:LoopyTunes.cpp **** 	play.Init(hw.GetPin(23), sampleRate / 48.f, Switch::Type::TYPE_MOMENTARY, Switch::Polarity::POLARI
 348              		.loc 7 50 13 is_stmt 0 view .LVU84
 349 0028 1620     		movs	r0, #22
 350 002a FFF7FEFF 		bl	_ZN5daisy9DaisySeed6GetPinEh
 351              	.LVL20:
 352 002e 95ED000A 		vldr.32	s0, [r5]
 353 0032 ADF81000 		strh	r0, [sp, #16]	@ movhi
 354 0036 2246     		mov	r2, r4
 355 0038 80EE080A 		vdiv.f32	s0, s0, s16
 356 003c 0499     		ldr	r1, [sp, #16]
 357 003e 0023     		movs	r3, #0
 358 0040 1448     		ldr	r0, .L20+36
 359 0042 0094     		str	r4, [sp]
 360 0044 FFF7FEFF 		bl	_ZN5daisy6Switch4InitE12dsy_gpio_pinfNS0_4TypeENS0_8PolarityENS0_4PullE
 361              	.LVL21:
  51:LoopyTunes.cpp **** }
 362              		.loc 7 51 2 is_stmt 1 view .LVU85
  51:LoopyTunes.cpp **** }
 363              		.loc 7 51 11 is_stmt 0 view .LVU86
 364 0048 1720     		movs	r0, #23
 365 004a FFF7FEFF 		bl	_ZN5daisy9DaisySeed6GetPinEh
 366              	.LVL22:
 367 004e 95ED000A 		vldr.32	s0, [r5]
 368 0052 ADF81400 		strh	r0, [sp, #20]	@ movhi
 369 0056 0023     		movs	r3, #0
ARM GAS  /var/folders/wz/z09yph4n0qj4t7mjxhl6ttn80000gn/T//ccz7tZYf.s 			page 17


 370 0058 80EE080A 		vdiv.f32	s0, s0, s16
 371 005c 2246     		mov	r2, r4
 372 005e 0599     		ldr	r1, [sp, #20]
 373 0060 0D48     		ldr	r0, .L20+40
 374 0062 0094     		str	r4, [sp]
 375 0064 FFF7FEFF 		bl	_ZN5daisy6Switch4InitE12dsy_gpio_pinfNS0_4TypeENS0_8PolarityENS0_4PullE
 376              	.LVL23:
  52:LoopyTunes.cpp **** 
 377              		.loc 7 52 1 view .LVU87
 378 0068 07B0     		add	sp, sp, #28
 379              		.cfi_def_cfa_offset 20
 380              		@ sp needed
 381 006a BDEC028B 		vldm	sp!, {d8}
 382              		.cfi_restore 80
 383              		.cfi_restore 81
 384              		.cfi_def_cfa_offset 12
 385 006e 30BD     		pop	{r4, r5, pc}
 386              	.L21:
 387              		.align	2
 388              	.L20:
 389 0070 00530700 		.word	480000
 390 0074 00000000 		.word	.LANCHOR6
 391 0078 00000000 		.word	.LANCHOR7
 392 007c 00000000 		.word	.LANCHOR3
 393 0080 00000000 		.word	.LANCHOR4
 394 0084 00000000 		.word	.LANCHOR8
 395 0088 00004042 		.word	1111490560
 396 008c 00000000 		.word	.LANCHOR5
 397 0090 00000000 		.word	.LANCHOR2
 398 0094 00000000 		.word	.LANCHOR0
 399 0098 00000000 		.word	.LANCHOR1
 400              		.cfi_endproc
 401              	.LFE4794:
 403              		.section	.text._Z10pollInputsv,"ax",%progbits
 404              		.align	1
 405              		.p2align 2,,3
 406              		.global	_Z10pollInputsv
 407              		.syntax unified
 408              		.thumb
 409              		.thumb_func
 411              	_Z10pollInputsv:
 412              	.LFB4795:
  55:LoopyTunes.cpp **** 	record.Debounce();
 413              		.loc 7 55 1 is_stmt 1 view -0
 414              		.cfi_startproc
 415              		@ args = 0, pretend = 0, frame = 0
 416              		@ frame_needed = 0, uses_anonymous_args = 0
  56:LoopyTunes.cpp **** 	play.Debounce();
 417              		.loc 7 56 2 view .LVU89
  55:LoopyTunes.cpp **** 	record.Debounce();
 418              		.loc 7 55 1 is_stmt 0 view .LVU90
 419 0000 10B5     		push	{r4, lr}
 420              		.cfi_def_cfa_offset 8
 421              		.cfi_offset 4, -8
 422              		.cfi_offset 14, -4
  56:LoopyTunes.cpp **** 	play.Debounce();
 423              		.loc 7 56 17 view .LVU91
ARM GAS  /var/folders/wz/z09yph4n0qj4t7mjxhl6ttn80000gn/T//ccz7tZYf.s 			page 18


 424 0002 0D4C     		ldr	r4, .L28
 425 0004 2046     		mov	r0, r4
 426 0006 FFF7FEFF 		bl	_ZN5daisy6Switch8DebounceEv
 427              	.LVL24:
  57:LoopyTunes.cpp **** 
 428              		.loc 7 57 2 is_stmt 1 view .LVU92
  57:LoopyTunes.cpp **** 
 429              		.loc 7 57 15 is_stmt 0 view .LVU93
 430 000a 0C48     		ldr	r0, .L28+4
 431 000c FFF7FEFF 		bl	_ZN5daisy6Switch8DebounceEv
 432              	.LVL25:
  59:LoopyTunes.cpp **** 		mixer.setIsRecording();
 433              		.loc 7 59 2 is_stmt 1 view .LVU94
 434              	.LBB122:
 435              	.LBI122:
 436              		.loc 1 79 17 view .LVU95
 437              	.LBB123:
 438              		.loc 1 79 35 view .LVU96
 439              		.loc 1 79 35 is_stmt 0 view .LVU97
 440              	.LBE123:
 441              	.LBE122:
  59:LoopyTunes.cpp **** 		mixer.setIsRecording();
 442              		.loc 7 59 2 view .LVU98
 443 0010 A37A     		ldrb	r3, [r4, #10]	@ zero_extendqisi2
 444 0012 FF2B     		cmp	r3, #255
 445 0014 04D0     		beq	.L26
  62:LoopyTunes.cpp **** 		mixer.setIsPlaying();
 446              		.loc 7 62 2 is_stmt 1 view .LVU99
 447              	.LVL26:
 448              	.LBB124:
 449              	.LBI124:
 450              		.loc 1 79 17 view .LVU100
 451              	.LBB125:
 452              		.loc 1 79 35 view .LVU101
 453              		.loc 1 79 42 is_stmt 0 view .LVU102
 454 0016 094B     		ldr	r3, .L28+4
 455              	.LBE125:
 456              	.LBE124:
  62:LoopyTunes.cpp **** 		mixer.setIsPlaying();
 457              		.loc 7 62 2 view .LVU103
 458 0018 9B7A     		ldrb	r3, [r3, #10]	@ zero_extendqisi2
 459 001a FF2B     		cmp	r3, #255
 460 001c 07D0     		beq	.L27
 461              	.L22:
  64:LoopyTunes.cpp **** 
 462              		.loc 7 64 1 view .LVU104
 463 001e 10BD     		pop	{r4, pc}
 464              	.L26:
  60:LoopyTunes.cpp **** 
 465              		.loc 7 60 3 is_stmt 1 view .LVU105
 466              	.LVL27:
 467              	.LBB127:
 468              	.LBI127:
  22:DSP/Mixer.h   ****     void setIsPlaying() { track1.track.setIsPlaying(); }
 469              		.loc 8 22 10 view .LVU106
 470              	.LBB128:
  22:DSP/Mixer.h   ****     void setIsPlaying() { track1.track.setIsPlaying(); }
ARM GAS  /var/folders/wz/z09yph4n0qj4t7mjxhl6ttn80000gn/T//ccz7tZYf.s 			page 19


 471              		.loc 8 22 29 view .LVU107
  22:DSP/Mixer.h   ****     void setIsPlaying() { track1.track.setIsPlaying(); }
 472              		.loc 8 22 56 is_stmt 0 view .LVU108
 473 0020 0748     		ldr	r0, .L28+8
 474 0022 FFF7FEFF 		bl	_ZN5Track14setIsRecordingEv
 475              	.LVL28:
  22:DSP/Mixer.h   ****     void setIsPlaying() { track1.track.setIsPlaying(); }
 476              		.loc 8 22 56 view .LVU109
 477              	.LBE128:
 478              	.LBE127:
  62:LoopyTunes.cpp **** 		mixer.setIsPlaying();
 479              		.loc 7 62 2 is_stmt 1 view .LVU110
 480              	.LBB129:
 481              		.loc 1 79 17 view .LVU111
 482              	.LBB126:
 483              		.loc 1 79 35 view .LVU112
 484              		.loc 1 79 42 is_stmt 0 view .LVU113
 485 0026 054B     		ldr	r3, .L28+4
 486              	.LBE126:
 487              	.LBE129:
  62:LoopyTunes.cpp **** 		mixer.setIsPlaying();
 488              		.loc 7 62 2 view .LVU114
 489 0028 9B7A     		ldrb	r3, [r3, #10]	@ zero_extendqisi2
 490 002a FF2B     		cmp	r3, #255
 491 002c F7D1     		bne	.L22
 492              	.L27:
  63:LoopyTunes.cpp **** }
 493              		.loc 7 63 3 is_stmt 1 view .LVU115
 494              	.LVL29:
 495              	.LBB130:
 496              	.LBI130:
 497              		.loc 8 23 10 view .LVU116
 498              	.LBB131:
 499              		.loc 8 23 27 view .LVU117
 500              		.loc 8 23 52 is_stmt 0 view .LVU118
 501 002e 0448     		ldr	r0, .L28+8
 502              	.LBE131:
 503              	.LBE130:
  64:LoopyTunes.cpp **** 
 504              		.loc 7 64 1 view .LVU119
 505 0030 BDE81040 		pop	{r4, lr}
 506              		.cfi_restore 14
 507              		.cfi_restore 4
 508              		.cfi_def_cfa_offset 0
 509              	.LBB133:
 510              	.LBB132:
 511              		.loc 8 23 52 view .LVU120
 512 0034 FFF7FEBF 		b	_ZN5Track12setIsPlayingEv
 513              	.LVL30:
 514              	.L29:
 515              		.align	2
 516              	.L28:
 517 0038 00000000 		.word	.LANCHOR0
 518 003c 00000000 		.word	.LANCHOR1
 519 0040 14000000 		.word	.LANCHOR2+20
 520              	.LBE132:
 521              	.LBE133:
ARM GAS  /var/folders/wz/z09yph4n0qj4t7mjxhl6ttn80000gn/T//ccz7tZYf.s 			page 20


 522              		.cfi_endproc
 523              	.LFE4795:
 525              		.section	.rodata.main.str1.4,"aMS",%progbits,1
 526              		.align	2
 527              	.LC0:
 528 0000 74727565 		.ascii	"true\000"
 528      00
 529 0005 000000   		.align	2
 530              	.LC1:
 531 0008 66616C73 		.ascii	"false\000"
 531      6500
 532 000e 0000     		.align	2
 533              	.LC2:
 534 0010 5265636F 		.ascii	"Record State: %s\000"
 534      72642053 
 534      74617465 
 534      3A202573 
 534      00
 535 0021 000000   		.align	2
 536              	.LC3:
 537 0024 506C6179 		.ascii	"Play State: %s\000"
 537      20537461 
 537      74653A20 
 537      257300
 538              		.section	.text.startup.main,"ax",%progbits
 539              		.align	1
 540              		.p2align 2,,3
 541              		.global	main
 542              		.syntax unified
 543              		.thumb
 544              		.thumb_func
 546              	main:
 547              	.LFB4797:
  81:LoopyTunes.cpp **** 
  82:LoopyTunes.cpp **** int main(void)
  83:LoopyTunes.cpp **** {
 548              		.loc 7 83 1 is_stmt 1 view -0
 549              		.cfi_startproc
 550              		@ Volatile: function does not return.
 551              		@ args = 0, pretend = 0, frame = 0
 552              		@ frame_needed = 0, uses_anonymous_args = 0
  84:LoopyTunes.cpp **** 	hw.Init();
 553              		.loc 7 84 2 view .LVU122
  83:LoopyTunes.cpp **** 	hw.Init();
 554              		.loc 7 83 1 is_stmt 0 view .LVU123
 555 0000 80B5     		push	{r7, lr}
 556              		.cfi_def_cfa_offset 8
 557              		.cfi_offset 7, -8
 558              		.cfi_offset 14, -4
 559              		.loc 7 84 9 view .LVU124
 560 0002 0021     		movs	r1, #0
 561 0004 1748     		ldr	r0, .L37
 562 0006 FFF7FEFF 		bl	_ZN5daisy9DaisySeed4InitEb
 563              	.LVL31:
  85:LoopyTunes.cpp **** 	hw.SetAudioBlockSize(BLOCKLENGTH); // number of samples handled per callback
 564              		.loc 7 85 2 is_stmt 1 view .LVU125
 565              		.loc 7 85 22 is_stmt 0 view .LVU126
ARM GAS  /var/folders/wz/z09yph4n0qj4t7mjxhl6ttn80000gn/T//ccz7tZYf.s 			page 21


 566 000a 0421     		movs	r1, #4
 567 000c 1548     		ldr	r0, .L37
 568 000e FFF7FEFF 		bl	_ZN5daisy9DaisySeed17SetAudioBlockSizeEj
 569              	.LVL32:
  86:LoopyTunes.cpp **** 	hw.SetAudioSampleRate(SaiHandle::Config::SampleRate::SAI_48KHZ);
 570              		.loc 7 86 2 is_stmt 1 view .LVU127
 571              		.loc 7 86 23 is_stmt 0 view .LVU128
 572 0012 0321     		movs	r1, #3
 573 0014 1348     		ldr	r0, .L37
 574 0016 FFF7FEFF 		bl	_ZN5daisy9DaisySeed18SetAudioSampleRateENS_9SaiHandle6Config10SampleRateE
 575              	.LVL33:
  87:LoopyTunes.cpp **** 	sampleRate = hw.AudioSampleRate();
 576              		.loc 7 87 2 is_stmt 1 view .LVU129
 577              		.loc 7 87 33 is_stmt 0 view .LVU130
 578 001a 1248     		ldr	r0, .L37
 579 001c FFF7FEFF 		bl	_ZN5daisy9DaisySeed15AudioSampleRateEv
 580              	.LVL34:
 581              		.loc 7 87 13 view .LVU131
 582 0020 114B     		ldr	r3, .L37+4
 583 0022 124F     		ldr	r7, .L37+8
 584 0024 83ED000A 		vstr.32	s0, [r3]
  88:LoopyTunes.cpp **** 
  89:LoopyTunes.cpp **** 	initialise();
 585              		.loc 7 89 2 is_stmt 1 view .LVU132
 586              		.loc 7 89 12 is_stmt 0 view .LVU133
 587 0028 FFF7FEFF 		bl	_Z10initialisev
 588              	.LVL35:
  90:LoopyTunes.cpp **** 
  91:LoopyTunes.cpp **** 	hw.StartLog();
 589              		.loc 7 91 2 is_stmt 1 view .LVU134
 590              	.LBB134:
 591              	.LBI134:
  23:../../../libDaisy//src/daisy_seed.h **** 
  24:../../../libDaisy//src/daisy_seed.h ****     /** This function used to provide a pre-initialization configuraiton 
  25:../../../libDaisy//src/daisy_seed.h ****      *  it has since been deprecated, and does nothing.
  26:../../../libDaisy//src/daisy_seed.h ****      */
  27:../../../libDaisy//src/daisy_seed.h ****     void Configure();
  28:../../../libDaisy//src/daisy_seed.h **** 
  29:../../../libDaisy//src/daisy_seed.h ****     /** 
  30:../../../libDaisy//src/daisy_seed.h ****     Initializes the Daisy Seed and the following peripherals:
  31:../../../libDaisy//src/daisy_seed.h ****     SDRAM, QSPI, 24-bit 48kHz Audio via AK4556, Internal USB,
  32:../../../libDaisy//src/daisy_seed.h ****     as well as the built-in LED and Testpoint.
  33:../../../libDaisy//src/daisy_seed.h **** 
  34:../../../libDaisy//src/daisy_seed.h ****     ADCs, DACs, and other special peripherals (such as I2C, SPI, etc.)
  35:../../../libDaisy//src/daisy_seed.h ****     can be initialized using their specific initializers within libdaisy
  36:../../../libDaisy//src/daisy_seed.h ****     for a specific application.
  37:../../../libDaisy//src/daisy_seed.h ****     */
  38:../../../libDaisy//src/daisy_seed.h ****     void Init(bool boost = false);
  39:../../../libDaisy//src/daisy_seed.h **** 
  40:../../../libDaisy//src/daisy_seed.h ****     /** 
  41:../../../libDaisy//src/daisy_seed.h ****     Deinitializes all peripherals automatically handled by `Init`.
  42:../../../libDaisy//src/daisy_seed.h ****     */
  43:../../../libDaisy//src/daisy_seed.h ****     void DeInit();
  44:../../../libDaisy//src/daisy_seed.h **** 
  45:../../../libDaisy//src/daisy_seed.h ****     /** 
  46:../../../libDaisy//src/daisy_seed.h ****     Wait some ms before going on.
  47:../../../libDaisy//src/daisy_seed.h ****     \param del Delay time in ms.
ARM GAS  /var/folders/wz/z09yph4n0qj4t7mjxhl6ttn80000gn/T//ccz7tZYf.s 			page 22


  48:../../../libDaisy//src/daisy_seed.h ****     */
  49:../../../libDaisy//src/daisy_seed.h ****     void DelayMs(size_t del);
  50:../../../libDaisy//src/daisy_seed.h **** 
  51:../../../libDaisy//src/daisy_seed.h ****     /** 
  52:../../../libDaisy//src/daisy_seed.h ****     Returns the gpio_pin corresponding to the index 0-31.
  53:../../../libDaisy//src/daisy_seed.h ****     For the given GPIO on the Daisy Seed (labeled 1-32 in docs).
  54:../../../libDaisy//src/daisy_seed.h ****     */
  55:../../../libDaisy//src/daisy_seed.h ****     static dsy_gpio_pin GetPin(uint8_t pin_idx);
  56:../../../libDaisy//src/daisy_seed.h **** 
  57:../../../libDaisy//src/daisy_seed.h ****     /** Begins the audio for the seeds builtin audio.
  58:../../../libDaisy//src/daisy_seed.h ****     the specified callback will get called whenever
  59:../../../libDaisy//src/daisy_seed.h ****     new data is ready to be prepared.
  60:../../../libDaisy//src/daisy_seed.h ****     */
  61:../../../libDaisy//src/daisy_seed.h ****     void StartAudio(AudioHandle::InterleavingAudioCallback cb);
  62:../../../libDaisy//src/daisy_seed.h **** 
  63:../../../libDaisy//src/daisy_seed.h ****     /** Begins the audio for the seeds builtin audio.
  64:../../../libDaisy//src/daisy_seed.h ****     the specified callback will get called whenever
  65:../../../libDaisy//src/daisy_seed.h ****     new data is ready to be prepared.
  66:../../../libDaisy//src/daisy_seed.h ****     This will use the newer non-interleaved callback.
  67:../../../libDaisy//src/daisy_seed.h ****     */
  68:../../../libDaisy//src/daisy_seed.h ****     void StartAudio(AudioHandle::AudioCallback cb);
  69:../../../libDaisy//src/daisy_seed.h **** 
  70:../../../libDaisy//src/daisy_seed.h ****     /** Changes to a new interleaved callback
  71:../../../libDaisy//src/daisy_seed.h ****      */
  72:../../../libDaisy//src/daisy_seed.h ****     void ChangeAudioCallback(AudioHandle::InterleavingAudioCallback cb);
  73:../../../libDaisy//src/daisy_seed.h **** 
  74:../../../libDaisy//src/daisy_seed.h ****     /** Changes to a new multichannel callback
  75:../../../libDaisy//src/daisy_seed.h ****      */
  76:../../../libDaisy//src/daisy_seed.h ****     void ChangeAudioCallback(AudioHandle::AudioCallback cb);
  77:../../../libDaisy//src/daisy_seed.h **** 
  78:../../../libDaisy//src/daisy_seed.h ****     /** Stops the audio if it is running. */
  79:../../../libDaisy//src/daisy_seed.h ****     void StopAudio();
  80:../../../libDaisy//src/daisy_seed.h **** 
  81:../../../libDaisy//src/daisy_seed.h ****     /** Updates the Audio Sample Rate, and reinitializes.
  82:../../../libDaisy//src/daisy_seed.h ****      ** Audio must be stopped for this to work.
  83:../../../libDaisy//src/daisy_seed.h ****      */
  84:../../../libDaisy//src/daisy_seed.h ****     void SetAudioSampleRate(SaiHandle::Config::SampleRate samplerate);
  85:../../../libDaisy//src/daisy_seed.h **** 
  86:../../../libDaisy//src/daisy_seed.h ****     /** Returns the audio sample rate in Hz as a floating point number.
  87:../../../libDaisy//src/daisy_seed.h ****      */
  88:../../../libDaisy//src/daisy_seed.h ****     float AudioSampleRate();
  89:../../../libDaisy//src/daisy_seed.h **** 
  90:../../../libDaisy//src/daisy_seed.h ****     /** Sets the number of samples processed per channel by the audio callback.
  91:../../../libDaisy//src/daisy_seed.h ****      */
  92:../../../libDaisy//src/daisy_seed.h ****     void SetAudioBlockSize(size_t blocksize);
  93:../../../libDaisy//src/daisy_seed.h **** 
  94:../../../libDaisy//src/daisy_seed.h ****     /** Returns the number of samples per channel in a block of audio. */
  95:../../../libDaisy//src/daisy_seed.h ****     size_t AudioBlockSize();
  96:../../../libDaisy//src/daisy_seed.h **** 
  97:../../../libDaisy//src/daisy_seed.h ****     /** Returns the rate in Hz that the Audio callback is called */
  98:../../../libDaisy//src/daisy_seed.h ****     float AudioCallbackRate() const;
  99:../../../libDaisy//src/daisy_seed.h **** 
 100:../../../libDaisy//src/daisy_seed.h ****     /** Sets the state of the built in LED
 101:../../../libDaisy//src/daisy_seed.h ****      */
 102:../../../libDaisy//src/daisy_seed.h ****     void SetLed(bool state);
 103:../../../libDaisy//src/daisy_seed.h **** 
 104:../../../libDaisy//src/daisy_seed.h ****     /** Sets the state of the test point near pin 10
ARM GAS  /var/folders/wz/z09yph4n0qj4t7mjxhl6ttn80000gn/T//ccz7tZYf.s 			page 23


 105:../../../libDaisy//src/daisy_seed.h ****      */
 106:../../../libDaisy//src/daisy_seed.h ****     void SetTestPoint(bool state);
 107:../../../libDaisy//src/daisy_seed.h **** 
 108:../../../libDaisy//src/daisy_seed.h ****     /** Print formatted debug log message
 109:../../../libDaisy//src/daisy_seed.h ****      */
 110:../../../libDaisy//src/daisy_seed.h ****     template <typename... VA>
 111:../../../libDaisy//src/daisy_seed.h ****     static void Print(const char* format, VA... va)
 112:../../../libDaisy//src/daisy_seed.h ****     {
 113:../../../libDaisy//src/daisy_seed.h ****         Log::Print(format, va...);
 114:../../../libDaisy//src/daisy_seed.h ****     }
 115:../../../libDaisy//src/daisy_seed.h **** 
 116:../../../libDaisy//src/daisy_seed.h ****     /** Print formatted debug log message with automatic line termination
 117:../../../libDaisy//src/daisy_seed.h ****     */
 118:../../../libDaisy//src/daisy_seed.h ****     template <typename... VA>
 119:../../../libDaisy//src/daisy_seed.h ****     static void PrintLine(const char* format, VA... va)
 120:../../../libDaisy//src/daisy_seed.h ****     {
 121:../../../libDaisy//src/daisy_seed.h ****         Log::PrintLine(format, va...);
 122:../../../libDaisy//src/daisy_seed.h ****     }
 123:../../../libDaisy//src/daisy_seed.h **** 
 124:../../../libDaisy//src/daisy_seed.h ****     /** Start the logging session. Optionally wait for terminal connection before proceeding.
 125:../../../libDaisy//src/daisy_seed.h ****     */
 126:../../../libDaisy//src/daisy_seed.h ****     static void StartLog(bool wait_for_pc = false)
 592              		.loc 2 126 17 view .LVU135
 593              	.LBB135:
 127:../../../libDaisy//src/daisy_seed.h ****     {
 128:../../../libDaisy//src/daisy_seed.h ****         Log::StartLog(wait_for_pc);
 594              		.loc 2 128 9 view .LVU136
 595              		.loc 2 128 22 is_stmt 0 view .LVU137
 596 002c 0020     		movs	r0, #0
 597 002e 104E     		ldr	r6, .L37+12
 598 0030 FFF7FEFF 		bl	_ZN5daisy6LoggerILNS_17LoggerDestinationE1EE8StartLogEb
 599              	.LVL36:
 600              		.loc 2 128 22 view .LVU138
 601              	.LBE135:
 602              	.LBE134:
  92:LoopyTunes.cpp **** 	hw.StartAudio(AudioCallback);
 603              		.loc 7 92 2 is_stmt 1 view .LVU139
 604              		.loc 7 92 15 is_stmt 0 view .LVU140
 605 0034 0F49     		ldr	r1, .L37+16
 606 0036 0B48     		ldr	r0, .L37
 607 0038 FFF7FEFF 		bl	_ZN5daisy9DaisySeed10StartAudioEPFvPKPKfPPfjE
 608              	.LVL37:
 609              	.L33:
  93:LoopyTunes.cpp **** 
  94:LoopyTunes.cpp **** 	while(1) 
 610              		.loc 7 94 2 is_stmt 1 view .LVU141
  95:LoopyTunes.cpp **** 	{
  96:LoopyTunes.cpp **** 		hw.PrintLine("Record State: %s", record.Pressed() ? "true" : "false");
 611              		.loc 7 96 3 view .LVU142
 612              	.LBB136:
 613              	.LBI136:
 614              		.loc 1 79 17 view .LVU143
 615              	.LBB137:
 616              		.loc 1 79 35 view .LVU144
 617              		.loc 1 79 35 is_stmt 0 view .LVU145
 618              	.LBE137:
 619              	.LBE136:
ARM GAS  /var/folders/wz/z09yph4n0qj4t7mjxhl6ttn80000gn/T//ccz7tZYf.s 			page 24


 620              		.loc 7 96 15 view .LVU146
 621 003c B97A     		ldrb	r1, [r7, #10]	@ zero_extendqisi2
 622 003e 0E4D     		ldr	r5, .L37+20
 623 0040 0E4C     		ldr	r4, .L37+24
 624              	.LVL38:
 625              	.LBB138:
 626              	.LBI138:
 119:../../../libDaisy//src/daisy_seed.h ****     {
 627              		.loc 2 119 17 is_stmt 1 view .LVU147
 628              	.LBB139:
 121:../../../libDaisy//src/daisy_seed.h ****     }
 629              		.loc 2 121 23 is_stmt 0 view .LVU148
 630 0042 0F48     		ldr	r0, .L37+28
 631 0044 FF29     		cmp	r1, #255
 632 0046 0CBF     		ite	eq
 633 0048 2946     		moveq	r1, r5
 634 004a 2146     		movne	r1, r4
 635              	.LVL39:
 121:../../../libDaisy//src/daisy_seed.h ****     }
 636              		.loc 2 121 23 view .LVU149
 637 004c FFF7FEFF 		bl	_ZN5daisy6LoggerILNS_17LoggerDestinationE1EE9PrintLineEPKcz
 638              	.LVL40:
 121:../../../libDaisy//src/daisy_seed.h ****     }
 639              		.loc 2 121 23 view .LVU150
 640              	.LBE139:
 641              	.LBE138:
  97:LoopyTunes.cpp **** 		hw.PrintLine("Play State: %s", play.Pressed() ? "true" : "false");
 642              		.loc 7 97 3 is_stmt 1 view .LVU151
 643              	.LBB140:
 644              	.LBI140:
 645              		.loc 1 79 17 view .LVU152
 646              	.LBB141:
 647              		.loc 1 79 35 view .LVU153
 648              		.loc 1 79 35 is_stmt 0 view .LVU154
 649              	.LBE141:
 650              	.LBE140:
 651              		.loc 7 97 15 view .LVU155
 652 0050 B17A     		ldrb	r1, [r6, #10]	@ zero_extendqisi2
 653              	.LVL41:
 654              	.LBB142:
 655              	.LBI142:
 119:../../../libDaisy//src/daisy_seed.h ****     {
 656              		.loc 2 119 17 is_stmt 1 view .LVU156
 657              	.LBB143:
 121:../../../libDaisy//src/daisy_seed.h ****     }
 658              		.loc 2 121 23 is_stmt 0 view .LVU157
 659 0052 0C48     		ldr	r0, .L37+32
 660 0054 FF29     		cmp	r1, #255
 661 0056 0CBF     		ite	eq
 662 0058 2946     		moveq	r1, r5
 663 005a 2146     		movne	r1, r4
 664              	.LVL42:
 121:../../../libDaisy//src/daisy_seed.h ****     }
 665              		.loc 2 121 23 view .LVU158
 666 005c FFF7FEFF 		bl	_ZN5daisy6LoggerILNS_17LoggerDestinationE1EE9PrintLineEPKcz
 667              	.LVL43:
 122:../../../libDaisy//src/daisy_seed.h **** 
ARM GAS  /var/folders/wz/z09yph4n0qj4t7mjxhl6ttn80000gn/T//ccz7tZYf.s 			page 25


 668              		.loc 2 122 5 view .LVU159
 669 0060 ECE7     		b	.L33
 670              	.L38:
 671 0062 00BF     		.align	2
 672              	.L37:
 673 0064 00000000 		.word	.LANCHOR9
 674 0068 00000000 		.word	.LANCHOR8
 675 006c 00000000 		.word	.LANCHOR0
 676 0070 00000000 		.word	.LANCHOR1
 677 0074 00000000 		.word	_Z13AudioCallbackPKPKfPPfj
 678 0078 00000000 		.word	.LC0
 679 007c 08000000 		.word	.LC1
 680 0080 10000000 		.word	.LC2
 681 0084 24000000 		.word	.LC3
 682              	.LBE143:
 683              	.LBE142:
 684              		.cfi_endproc
 685              	.LFE4797:
 687              		.section	.text.startup._GLOBAL__sub_I_hw,"ax",%progbits
 688              		.align	1
 689              		.p2align 2,,3
 690              		.syntax unified
 691              		.thumb
 692              		.thumb_func
 694              	_GLOBAL__sub_I_hw:
 695              	.LFB5358:
  98:LoopyTunes.cpp **** 	}
  99:LoopyTunes.cpp **** }
 696              		.loc 7 99 1 is_stmt 1 view -0
 697              		.cfi_startproc
 698              		@ args = 0, pretend = 0, frame = 0
 699              		@ frame_needed = 0, uses_anonymous_args = 0
 700              	.LBB166:
 701              	.LBI166:
 702              		.loc 7 99 1 view .LVU161
 703              	.LVL44:
 704              	.LBB167:
 705              	.LBB168:
 706              	.LBI168:
  21:../../../libDaisy//src/daisy_seed.h ****     ~DaisySeed() {}
 707              		.loc 2 21 5 view .LVU162
 708              	.LBB169:
 709              	.LBB170:
 710              	.LBI170:
 711              		.file 9 "../../../libDaisy//src/per/qspi.h"
   1:../../../libDaisy//src/per/qspi.h **** #ifndef DSY_QSPI
   2:../../../libDaisy//src/per/qspi.h **** #define DSY_QSPI /**< Macro */
   3:../../../libDaisy//src/per/qspi.h **** 
   4:../../../libDaisy//src/per/qspi.h **** #ifndef UNIT_TEST // for unit tests, a dummy implementation
   5:../../../libDaisy//src/per/qspi.h **** 
   6:../../../libDaisy//src/per/qspi.h **** #include <cstdint>
   7:../../../libDaisy//src/per/qspi.h **** #include "daisy_core.h" // Added for dsy_gpio_pin typedef
   8:../../../libDaisy//src/per/qspi.h **** 
   9:../../../libDaisy//src/per/qspi.h **** #define DSY_QSPI_TEXT       \
  10:../../../libDaisy//src/per/qspi.h ****     __attribute__((section( \
  11:../../../libDaisy//src/per/qspi.h ****         ".qspiflash_text"))) /**< used for reading memory in memory_mapped mode. */
  12:../../../libDaisy//src/per/qspi.h **** #define DSY_QSPI_DATA       \
ARM GAS  /var/folders/wz/z09yph4n0qj4t7mjxhl6ttn80000gn/T//ccz7tZYf.s 			page 26


  13:../../../libDaisy//src/per/qspi.h ****     __attribute__((section( \
  14:../../../libDaisy//src/per/qspi.h ****         ".qspiflash_data"))) /**< used for reading memory in memory_mapped mode. */
  15:../../../libDaisy//src/per/qspi.h **** #define DSY_QSPI_BSS        \
  16:../../../libDaisy//src/per/qspi.h ****     __attribute__((section( \
  17:../../../libDaisy//src/per/qspi.h ****         ".qspiflash_bss"))) /**< used for reading memory in memory_mapped mode. */
  18:../../../libDaisy//src/per/qspi.h **** 
  19:../../../libDaisy//src/per/qspi.h **** namespace daisy
  20:../../../libDaisy//src/per/qspi.h **** {
  21:../../../libDaisy//src/per/qspi.h **** /** @addtogroup serial
  22:../../../libDaisy//src/per/qspi.h **** @{
  23:../../../libDaisy//src/per/qspi.h **** */
  24:../../../libDaisy//src/per/qspi.h **** 
  25:../../../libDaisy//src/per/qspi.h **** /** 
  26:../../../libDaisy//src/per/qspi.h ****  Driver for QSPI peripheral to interface with external flash memory. \n 
  27:../../../libDaisy//src/per/qspi.h ****     Currently supported QSPI Devices: \n 
  28:../../../libDaisy//src/per/qspi.h ****     * IS25LP080D
  29:../../../libDaisy//src/per/qspi.h **** */
  30:../../../libDaisy//src/per/qspi.h **** class QSPIHandle
  31:../../../libDaisy//src/per/qspi.h **** {
  32:../../../libDaisy//src/per/qspi.h ****   public:
  33:../../../libDaisy//src/per/qspi.h ****     enum Result
  34:../../../libDaisy//src/per/qspi.h ****     {
  35:../../../libDaisy//src/per/qspi.h ****         OK = 0,
  36:../../../libDaisy//src/per/qspi.h ****         ERR
  37:../../../libDaisy//src/per/qspi.h ****     };
  38:../../../libDaisy//src/per/qspi.h **** 
  39:../../../libDaisy//src/per/qspi.h ****     /** Indicates the current status of the module. 
  40:../../../libDaisy//src/per/qspi.h ****          *  Warnings are indicated by a leading W.
  41:../../../libDaisy//src/per/qspi.h ****          *  Errors are indicated by a leading E and cause an immediate exit.
  42:../../../libDaisy//src/per/qspi.h ****          * 
  43:../../../libDaisy//src/per/qspi.h ****          *  \param GOOD - No errors have been reported.
  44:../../../libDaisy//src/per/qspi.h ****          *  \param E_HAL_ERROR - HAL code did not return HAL_OK.
  45:../../../libDaisy//src/per/qspi.h ****          *  \param E_SWITCHING_MODES - An error was encountered while switching QSPI peripheral mod
  46:../../../libDaisy//src/per/qspi.h ****          *  \param E_INVALID_MODE - QSPI should not be written to while the program is executing fr
  47:../../../libDaisy//src/per/qspi.h ****          */
  48:../../../libDaisy//src/per/qspi.h ****     enum Status
  49:../../../libDaisy//src/per/qspi.h ****     {
  50:../../../libDaisy//src/per/qspi.h ****         GOOD = 0,
  51:../../../libDaisy//src/per/qspi.h ****         E_HAL_ERROR,
  52:../../../libDaisy//src/per/qspi.h ****         E_SWITCHING_MODES,
  53:../../../libDaisy//src/per/qspi.h ****         E_INVALID_MODE,
  54:../../../libDaisy//src/per/qspi.h ****     };
  55:../../../libDaisy//src/per/qspi.h **** 
  56:../../../libDaisy//src/per/qspi.h ****     /** Configuration structure for interfacing with QSPI Driver */
  57:../../../libDaisy//src/per/qspi.h ****     struct Config
  58:../../../libDaisy//src/per/qspi.h ****     {
  59:../../../libDaisy//src/per/qspi.h ****         /** Flash Devices supported. (Both of these are more-or-less the same, just different sizes
  60:../../../libDaisy//src/per/qspi.h ****         enum Device
  61:../../../libDaisy//src/per/qspi.h ****         {
  62:../../../libDaisy//src/per/qspi.h ****             IS25LP080D,  /**< & */
  63:../../../libDaisy//src/per/qspi.h ****             IS25LP064A,  /**< & */
  64:../../../libDaisy//src/per/qspi.h ****             DEVICE_LAST, /**< & */
  65:../../../libDaisy//src/per/qspi.h ****         };
  66:../../../libDaisy//src/per/qspi.h **** 
  67:../../../libDaisy//src/per/qspi.h ****         /** 
  68:../../../libDaisy//src/per/qspi.h ****         Modes of operation.
  69:../../../libDaisy//src/per/qspi.h ****         Memory Mapped mode: QSPI configured so that the QSPI can be
ARM GAS  /var/folders/wz/z09yph4n0qj4t7mjxhl6ttn80000gn/T//ccz7tZYf.s 			page 27


  70:../../../libDaisy//src/per/qspi.h ****         read from starting address 0x90000000. Writing is not
  71:../../../libDaisy//src/per/qspi.h ****         possible in this mode. \n 
  72:../../../libDaisy//src/per/qspi.h ****         Indirect Polling mode: Device driver enabled. 
  73:../../../libDaisy//src/per/qspi.h ****         */
  74:../../../libDaisy//src/per/qspi.h ****         enum Mode
  75:../../../libDaisy//src/per/qspi.h ****         {
  76:../../../libDaisy//src/per/qspi.h ****             MEMORY_MAPPED,    /**< & */
  77:../../../libDaisy//src/per/qspi.h ****             INDIRECT_POLLING, /**< & */
  78:../../../libDaisy//src/per/qspi.h ****             MODE_LAST,
  79:../../../libDaisy//src/per/qspi.h ****         };
  80:../../../libDaisy//src/per/qspi.h **** 
  81:../../../libDaisy//src/per/qspi.h ****         //SCK,  CE# (active low)
  82:../../../libDaisy//src/per/qspi.h ****         struct
  83:../../../libDaisy//src/per/qspi.h ****         {
  84:../../../libDaisy//src/per/qspi.h ****             dsy_gpio_pin io0; /**< & */
  85:../../../libDaisy//src/per/qspi.h ****             dsy_gpio_pin io1; /**< & */
  86:../../../libDaisy//src/per/qspi.h ****             dsy_gpio_pin io2; /**< & */
  87:../../../libDaisy//src/per/qspi.h ****             dsy_gpio_pin io3; /**< & */
  88:../../../libDaisy//src/per/qspi.h ****             dsy_gpio_pin clk; /**< & */
  89:../../../libDaisy//src/per/qspi.h ****             dsy_gpio_pin ncs; /**< & */
  90:../../../libDaisy//src/per/qspi.h ****         } pin_config;
  91:../../../libDaisy//src/per/qspi.h **** 
  92:../../../libDaisy//src/per/qspi.h ****         Device device;
  93:../../../libDaisy//src/per/qspi.h ****         Mode   mode;
  94:../../../libDaisy//src/per/qspi.h ****     };
  95:../../../libDaisy//src/per/qspi.h **** 
  96:../../../libDaisy//src/per/qspi.h ****     /** 
  97:../../../libDaisy//src/per/qspi.h ****         Initializes QSPI peripheral, and Resets, and prepares memory for access.
  98:../../../libDaisy//src/per/qspi.h ****         \param config should be populated with the mode, device and pin_config before calling this 
  99:../../../libDaisy//src/per/qspi.h ****         \return Result::OK or Result::ERR
 100:../../../libDaisy//src/per/qspi.h ****         */
 101:../../../libDaisy//src/per/qspi.h ****     Result Init(const Config& config);
 102:../../../libDaisy//src/per/qspi.h **** 
 103:../../../libDaisy//src/per/qspi.h ****     /** Returns the current config. */
 104:../../../libDaisy//src/per/qspi.h ****     const Config& GetConfig() const;
 105:../../../libDaisy//src/per/qspi.h **** 
 106:../../../libDaisy//src/per/qspi.h ****     // Couldn't this just be called before anything else in init? That
 107:../../../libDaisy//src/per/qspi.h ****     // would make manually calling it unnecessary.
 108:../../../libDaisy//src/per/qspi.h ****     /** 
 109:../../../libDaisy//src/per/qspi.h ****         Deinitializes the peripheral
 110:../../../libDaisy//src/per/qspi.h ****         This should be called before reinitializing QSPI in a different mode.
 111:../../../libDaisy//src/per/qspi.h ****         \return Result::OK or Result::ERR
 112:../../../libDaisy//src/per/qspi.h ****         */
 113:../../../libDaisy//src/per/qspi.h ****     Result DeInit();
 114:../../../libDaisy//src/per/qspi.h **** 
 115:../../../libDaisy//src/per/qspi.h ****     /** 
 116:../../../libDaisy//src/per/qspi.h ****         Writes a single page to to the specified address on the QSPI chip.
 117:../../../libDaisy//src/per/qspi.h ****         For IS25LP*, page size is 256 bytes.
 118:../../../libDaisy//src/per/qspi.h ****         \param address Address to write to
 119:../../../libDaisy//src/per/qspi.h ****         \param size Buffer size
 120:../../../libDaisy//src/per/qspi.h ****         \param buffer Buffer to write
 121:../../../libDaisy//src/per/qspi.h ****         \return Result::OK or Result::ERR
 122:../../../libDaisy//src/per/qspi.h ****         */
 123:../../../libDaisy//src/per/qspi.h ****     Result WritePage(uint32_t address, uint32_t size, uint8_t* buffer);
 124:../../../libDaisy//src/per/qspi.h **** 
 125:../../../libDaisy//src/per/qspi.h ****     /** 
 126:../../../libDaisy//src/per/qspi.h ****         Writes data in buffer to to the QSPI. Starting at address to address+size 
ARM GAS  /var/folders/wz/z09yph4n0qj4t7mjxhl6ttn80000gn/T//ccz7tZYf.s 			page 28


 127:../../../libDaisy//src/per/qspi.h ****         \param address Address to write to
 128:../../../libDaisy//src/per/qspi.h ****         \param size Buffer size
 129:../../../libDaisy//src/per/qspi.h ****         \param buffer Buffer to write
 130:../../../libDaisy//src/per/qspi.h ****         \return Result::OK or Result::ERR
 131:../../../libDaisy//src/per/qspi.h ****         */
 132:../../../libDaisy//src/per/qspi.h ****     Result Write(uint32_t address, uint32_t size, uint8_t* buffer);
 133:../../../libDaisy//src/per/qspi.h **** 
 134:../../../libDaisy//src/per/qspi.h ****     /** 
 135:../../../libDaisy//src/per/qspi.h ****         Erases the area specified on the chip.
 136:../../../libDaisy//src/per/qspi.h ****         Erasures will happen by 4K, 32K or 64K increments.
 137:../../../libDaisy//src/per/qspi.h ****         Smallest erase possible is 4kB at a time. (on IS25LP*)
 138:../../../libDaisy//src/per/qspi.h ****         \param start_addr Address to begin erasing from
 139:../../../libDaisy//src/per/qspi.h ****         \param end_addr  Address to stop erasing at
 140:../../../libDaisy//src/per/qspi.h ****         \return Result::OK or Result::ERR
 141:../../../libDaisy//src/per/qspi.h ****         */
 142:../../../libDaisy//src/per/qspi.h ****     Result Erase(uint32_t start_addr, uint32_t end_addr);
 143:../../../libDaisy//src/per/qspi.h **** 
 144:../../../libDaisy//src/per/qspi.h ****     /**  
 145:../../../libDaisy//src/per/qspi.h ****          Erases a single sector of the chip.  
 146:../../../libDaisy//src/per/qspi.h ****         TODO: Document the size of this function. 
 147:../../../libDaisy//src/per/qspi.h ****         \param address Address of sector to erase
 148:../../../libDaisy//src/per/qspi.h ****         \return Result::OK or Result::ERR
 149:../../../libDaisy//src/per/qspi.h ****         */
 150:../../../libDaisy//src/per/qspi.h ****     Result EraseSector(uint32_t address);
 151:../../../libDaisy//src/per/qspi.h **** 
 152:../../../libDaisy//src/per/qspi.h ****     /** Returns the current class status. Useful for debugging.
 153:../../../libDaisy//src/per/qspi.h ****      *  \returns Status
 154:../../../libDaisy//src/per/qspi.h ****      */
 155:../../../libDaisy//src/per/qspi.h ****     Status GetStatus();
 156:../../../libDaisy//src/per/qspi.h **** 
 157:../../../libDaisy//src/per/qspi.h ****     /** Returns a pointer to the actual memory used 
 158:../../../libDaisy//src/per/qspi.h ****      *  The memory at this address is read-only
 159:../../../libDaisy//src/per/qspi.h ****      *  to write to it use the Write function.
 160:../../../libDaisy//src/per/qspi.h ****      * 
 161:../../../libDaisy//src/per/qspi.h ****      *  \param offset returns the pointer starting this 
 162:../../../libDaisy//src/per/qspi.h ****      *                many bytes into the memory
 163:../../../libDaisy//src/per/qspi.h ****     */
 164:../../../libDaisy//src/per/qspi.h ****     void* GetData(uint32_t offset = 0);
 165:../../../libDaisy//src/per/qspi.h **** 
 166:../../../libDaisy//src/per/qspi.h ****     QSPIHandle() : pimpl_(nullptr) {}
 712              		.loc 9 166 5 view .LVU163
 713              	.LBE170:
 714              	.LBE169:
 715              	.LBE168:
 716              	.LBE167:
 717              	.LBE166:
 718              		.loc 7 99 1 is_stmt 0 view .LVU164
 719 0000 08B5     		push	{r3, lr}
 720              		.cfi_def_cfa_offset 8
 721              		.cfi_offset 3, -8
 722              		.cfi_offset 14, -4
 723              	.LBB194:
 724              	.LBB192:
 725              	.LBB188:
 726              	.LBB186:
 727              	.LBB175:
 728              	.LBB171:
ARM GAS  /var/folders/wz/z09yph4n0qj4t7mjxhl6ttn80000gn/T//ccz7tZYf.s 			page 29


 729              	.LBB172:
 730              		.loc 9 166 34 view .LVU165
 731 0002 0A48     		ldr	r0, .L41
 732 0004 0023     		movs	r3, #0
 733              	.LBE172:
 734              	.LBE171:
 735              	.LBE175:
 736              	.LBE186:
 737              	.LBE188:
  10:LoopyTunes.cpp **** 
 738              		.loc 7 10 11 view .LVU166
 739 0006 0A4A     		ldr	r2, .L41+4
 740              	.LBB189:
 741              	.LBB187:
 742              	.LBB176:
 743              	.LBB174:
 744              	.LBB173:
 745              		.loc 9 166 34 view .LVU167
 746 0008 0360     		str	r3, [r0]
 747              	.LVL45:
 748              		.loc 9 166 34 view .LVU168
 749              	.LBE173:
 750              	.LBE174:
 751              	.LBE176:
 752              	.LBB177:
 753              	.LBI177:
  95:../../../libDaisy//src/hid/audio.h ****     ~AudioHandle() {}
 754              		.loc 6 95 5 is_stmt 1 view .LVU169
 755              	.LBB178:
 756              	.LBB179:
  95:../../../libDaisy//src/hid/audio.h ****     ~AudioHandle() {}
 757              		.loc 6 95 35 is_stmt 0 view .LVU170
 758 000a 4361     		str	r3, [r0, #20]
 759              	.LVL46:
  95:../../../libDaisy//src/hid/audio.h ****     ~AudioHandle() {}
 760              		.loc 6 95 35 view .LVU171
 761              	.LBE179:
 762              	.LBE178:
 763              	.LBE177:
 764              	.LBB180:
 765              	.LBI180:
  92:../../../libDaisy//src/per/adc.h ****     ~AdcHandle() {}
 766              		.loc 5 92 5 is_stmt 1 view .LVU172
  92:../../../libDaisy//src/per/adc.h ****     ~AdcHandle() {}
 767              		.loc 5 92 5 is_stmt 0 view .LVU173
 768              	.LBE180:
 769              	.LBB181:
 770              	.LBI181:
 771              		.file 10 "../../../libDaisy//src/per/dac.h"
   1:../../../libDaisy//src/per/dac.h **** #pragma once
   2:../../../libDaisy//src/per/dac.h **** #ifndef DSY_DAC_H
   3:../../../libDaisy//src/per/dac.h **** #define DSY_DAC_H
   4:../../../libDaisy//src/per/dac.h **** 
   5:../../../libDaisy//src/per/dac.h **** #include "daisy_core.h"
   6:../../../libDaisy//src/per/dac.h **** 
   7:../../../libDaisy//src/per/dac.h **** namespace daisy
   8:../../../libDaisy//src/per/dac.h **** {
ARM GAS  /var/folders/wz/z09yph4n0qj4t7mjxhl6ttn80000gn/T//ccz7tZYf.s 			page 30


   9:../../../libDaisy//src/per/dac.h **** /** @brief DAC handle for Built-in DAC Peripheral 
  10:../../../libDaisy//src/per/dac.h ****  *  @ingroup per_analog
  11:../../../libDaisy//src/per/dac.h ****  ** 
  12:../../../libDaisy//src/per/dac.h ****  ** For now only Normal Mode is supported,
  13:../../../libDaisy//src/per/dac.h ****  ** Sample and hold mode provides reduced power consumption, but requires a bit more setup.
  14:../../../libDaisy//src/per/dac.h ****  **
  15:../../../libDaisy//src/per/dac.h ****  ** For now connecting the DAC through other internal peripherals is also not supported.
  16:../../../libDaisy//src/per/dac.h ****  **
  17:../../../libDaisy//src/per/dac.h ****  ** Since the DAC channels have dedicated pins we don't need to pass in a pin config like with
  18:../../../libDaisy//src/per/dac.h ****  ** other modules. However, it is still important to not try to use the DAC pins for anything else.
  19:../../../libDaisy//src/per/dac.h ****  ** DAC Channel 1 is on PA4, and DAC Channel 2 is on PA5
  20:../../../libDaisy//src/per/dac.h ****  ***/
  21:../../../libDaisy//src/per/dac.h **** class DacHandle
  22:../../../libDaisy//src/per/dac.h **** {
  23:../../../libDaisy//src/per/dac.h ****   public:
  24:../../../libDaisy//src/per/dac.h ****     /** Return Values for the DacHandle class */
  25:../../../libDaisy//src/per/dac.h ****     enum class Result
  26:../../../libDaisy//src/per/dac.h ****     {
  27:../../../libDaisy//src/per/dac.h ****         OK,
  28:../../../libDaisy//src/per/dac.h ****         ERR,
  29:../../../libDaisy//src/per/dac.h ****     };
  30:../../../libDaisy//src/per/dac.h **** 
  31:../../../libDaisy//src/per/dac.h ****     /** Selects which channel(s) will be configured for use. */
  32:../../../libDaisy//src/per/dac.h ****     enum class Channel
  33:../../../libDaisy//src/per/dac.h ****     {
  34:../../../libDaisy//src/per/dac.h ****         ONE,
  35:../../../libDaisy//src/per/dac.h ****         TWO,
  36:../../../libDaisy//src/per/dac.h ****         BOTH,
  37:../../../libDaisy//src/per/dac.h ****     };
  38:../../../libDaisy//src/per/dac.h **** 
  39:../../../libDaisy//src/per/dac.h ****     /** Sets the Mode for the DAC channels.
  40:../../../libDaisy//src/per/dac.h ****      **
  41:../../../libDaisy//src/per/dac.h ****      ** Polling mode uses the blocking mode to transmit a single value at a time.
  42:../../../libDaisy//src/per/dac.h ****      **
  43:../../../libDaisy//src/per/dac.h ****      ** DMA mode uses a buffer, and periodically transmits it triggering a 
  44:../../../libDaisy//src/per/dac.h ****      ** callback to fill the buffer when it is ready for more samples.
  45:../../../libDaisy//src/per/dac.h ****      ***/
  46:../../../libDaisy//src/per/dac.h ****     enum class Mode
  47:../../../libDaisy//src/per/dac.h ****     {
  48:../../../libDaisy//src/per/dac.h ****         POLLING,
  49:../../../libDaisy//src/per/dac.h ****         DMA,
  50:../../../libDaisy//src/per/dac.h ****     };
  51:../../../libDaisy//src/per/dac.h **** 
  52:../../../libDaisy//src/per/dac.h ****     /** Sets the number of bits per sample transmitted out of the DAC.
  53:../../../libDaisy//src/per/dac.h ****      ** The output range will be: 0V - VDDA
  54:../../../libDaisy//src/per/dac.h ****      ** The resolution will be roughly: bitdepth / (VDDA - 0V) 
  55:../../../libDaisy//src/per/dac.h ****      ***/
  56:../../../libDaisy//src/per/dac.h ****     enum class BitDepth
  57:../../../libDaisy//src/per/dac.h ****     {
  58:../../../libDaisy//src/per/dac.h ****         BITS_8,
  59:../../../libDaisy//src/per/dac.h ****         BITS_12
  60:../../../libDaisy//src/per/dac.h ****     };
  61:../../../libDaisy//src/per/dac.h **** 
  62:../../../libDaisy//src/per/dac.h ****     /** Sets whether the DAC output is buffered for higher drive ability. */
  63:../../../libDaisy//src/per/dac.h ****     enum class BufferState
  64:../../../libDaisy//src/per/dac.h ****     {
  65:../../../libDaisy//src/per/dac.h ****         ENABLED,
ARM GAS  /var/folders/wz/z09yph4n0qj4t7mjxhl6ttn80000gn/T//ccz7tZYf.s 			page 31


  66:../../../libDaisy//src/per/dac.h ****         DISABLED,
  67:../../../libDaisy//src/per/dac.h ****     };
  68:../../../libDaisy//src/per/dac.h **** 
  69:../../../libDaisy//src/per/dac.h ****     /** Configuration structure for initializing the DAC structure. */
  70:../../../libDaisy//src/per/dac.h ****     struct Config
  71:../../../libDaisy//src/per/dac.h ****     {
  72:../../../libDaisy//src/per/dac.h ****         /** Target Samplerate in Hz used to configure the internal 
  73:../../../libDaisy//src/per/dac.h ****          ** timebase for DMA mode. Does nothing in POLLING mode.
  74:../../../libDaisy//src/per/dac.h ****          ** If the value is 0 at Init time this will default to 48000Hz 
  75:../../../libDaisy//src/per/dac.h ****          ** otherwise the driver will attempt meet the target.*/
  76:../../../libDaisy//src/per/dac.h ****         uint32_t target_samplerate;
  77:../../../libDaisy//src/per/dac.h **** 
  78:../../../libDaisy//src/per/dac.h ****         Channel     chn;
  79:../../../libDaisy//src/per/dac.h ****         Mode        mode;
  80:../../../libDaisy//src/per/dac.h ****         BitDepth    bitdepth;
  81:../../../libDaisy//src/per/dac.h ****         BufferState buff_state;
  82:../../../libDaisy//src/per/dac.h ****     };
  83:../../../libDaisy//src/per/dac.h **** 
  84:../../../libDaisy//src/per/dac.h ****     DacHandle() : pimpl_(nullptr) {}
 772              		.loc 10 84 5 is_stmt 1 view .LVU174
 773              	.LBB182:
 774              	.LBB183:
 775              		.loc 10 84 33 is_stmt 0 view .LVU175
 776 000c 0362     		str	r3, [r0, #32]
 777              	.LVL47:
 778              		.loc 10 84 33 view .LVU176
 779              	.LBE183:
 780              	.LBE182:
 781              	.LBE181:
 782              	.LBB184:
 783              	.LBI184:
  40:../../../libDaisy//src/hid/usb.h **** 
 784              		.loc 4 40 5 is_stmt 1 view .LVU177
  40:../../../libDaisy//src/hid/usb.h **** 
 785              		.loc 4 40 5 is_stmt 0 view .LVU178
 786              	.LBE184:
 787              	.LBB185:
 788              	.LBI185:
  77:../../../libDaisy//src/sys/system.h ****     ~System() {}
 789              		.loc 3 77 5 is_stmt 1 view .LVU179
  77:../../../libDaisy//src/sys/system.h ****     ~System() {}
 790              		.loc 3 77 5 is_stmt 0 view .LVU180
 791              	.LBE185:
 792              	.LBE187:
 793              	.LBE189:
  10:LoopyTunes.cpp **** 
 794              		.loc 7 10 11 view .LVU181
 795 000e 0949     		ldr	r1, .L41+8
 796 0010 FFF7FEFF 		bl	__aeabi_atexit
 797              	.LVL48:
 798              	.LBB190:
 799              	.LBI190:
  41:../../../libDaisy//src/hid/switch.h ****     ~Switch() {}
 800              		.loc 1 41 5 is_stmt 1 view .LVU182
  41:../../../libDaisy//src/hid/switch.h ****     ~Switch() {}
 801              		.loc 1 41 5 is_stmt 0 view .LVU183
 802              	.LBE190:
ARM GAS  /var/folders/wz/z09yph4n0qj4t7mjxhl6ttn80000gn/T//ccz7tZYf.s 			page 32


  13:LoopyTunes.cpp **** static Switch play;
 803              		.loc 7 13 15 view .LVU184
 804 0014 0849     		ldr	r1, .L41+12
 805 0016 064A     		ldr	r2, .L41+4
 806 0018 0848     		ldr	r0, .L41+16
 807 001a FFF7FEFF 		bl	__aeabi_atexit
 808              	.LVL49:
 809              	.LBB191:
 810              	.LBI191:
  41:../../../libDaisy//src/hid/switch.h ****     ~Switch() {}
 811              		.loc 1 41 5 is_stmt 1 view .LVU185
  41:../../../libDaisy//src/hid/switch.h ****     ~Switch() {}
 812              		.loc 1 41 5 is_stmt 0 view .LVU186
 813              	.LBE191:
  14:LoopyTunes.cpp **** 
 814              		.loc 7 14 15 view .LVU187
 815 001e 044A     		ldr	r2, .L41+4
 816 0020 0549     		ldr	r1, .L41+12
 817 0022 0748     		ldr	r0, .L41+20
 818              	.LBE192:
 819              	.LBE194:
 820              		.loc 7 99 1 view .LVU188
 821 0024 BDE80840 		pop	{r3, lr}
 822              		.cfi_restore 14
 823              		.cfi_restore 3
 824              		.cfi_def_cfa_offset 0
 825              	.LBB195:
 826              	.LBB193:
  14:LoopyTunes.cpp **** 
 827              		.loc 7 14 15 view .LVU189
 828 0028 FFF7FEBF 		b	__aeabi_atexit
 829              	.LVL50:
 830              	.L42:
 831              		.align	2
 832              	.L41:
 833 002c 00000000 		.word	.LANCHOR9
 834 0030 00000000 		.word	__dso_handle
 835 0034 00000000 		.word	_ZN5daisy9DaisySeedD1Ev
 836 0038 00000000 		.word	_ZN5daisy6SwitchD1Ev
 837 003c 00000000 		.word	.LANCHOR0
 838 0040 00000000 		.word	.LANCHOR1
 839              	.LBE193:
 840              	.LBE195:
 841              		.cfi_endproc
 842              	.LFE5358:
 844              		.section	.init_array,"aw",%init_array
 845              		.align	2
 846 0000 00000000 		.word	_GLOBAL__sub_I_hw(target1)
 847              		.global	track4Ptr
 848              		.global	track3Ptr
 849              		.global	track2Ptr
 850              		.global	track1Ptr
 851              		.global	mixPtr
 852              		.global	track4
 853              		.global	track3
 854              		.global	track2
 855              		.global	track1
ARM GAS  /var/folders/wz/z09yph4n0qj4t7mjxhl6ttn80000gn/T//ccz7tZYf.s 			page 33


 856              		.global	mix
 857              		.global	connectionMatrix
 858              		.global	hw
 859              		.section	.bss._ZL10sampleRate,"aw",%nobits
 860              		.align	2
 861              		.set	.LANCHOR8,. + 0
 864              	_ZL10sampleRate:
 865 0000 00000000 		.space	4
 866              		.section	.bss._ZL4play,"aw",%nobits
 867              		.align	2
 868              		.set	.LANCHOR1,. + 0
 871              	_ZL4play:
 872 0000 00000000 		.space	16
 872      00000000 
 872      00000000 
 872      00000000 
 873              		.section	.bss._ZL5mixer,"aw",%nobits
 874              		.align	2
 875              		.set	.LANCHOR2,. + 0
 878              	_ZL5mixer:
 879 0000 00000000 		.space	132
 879      00000000 
 879      00000000 
 879      00000000 
 879      00000000 
 880              		.section	.bss._ZL6record,"aw",%nobits
 881              		.align	2
 882              		.set	.LANCHOR0,. + 0
 885              	_ZL6record:
 886 0000 00000000 		.space	16
 886      00000000 
 886      00000000 
 886      00000000 
 887              		.section	.bss.connectionMatrix,"aw",%nobits
 888              		.align	2
 891              	connectionMatrix:
 892 0000 00       		.space	1
 893              		.section	.bss.hw,"aw",%nobits
 894              		.align	2
 895              		.set	.LANCHOR9,. + 0
 898              	hw:
 899 0000 00000000 		.space	60
 899      00000000 
 899      00000000 
 899      00000000 
 899      00000000 
 900              		.section	.data.mixPtr,"aw"
 901              		.align	2
 902              		.set	.LANCHOR5,. + 0
 905              	mixPtr:
 906 0000 00000000 		.word	mix
 907 0004 004C1D00 		.word	mix+1920000
 908              		.section	.data.track1Ptr,"aw"
 909              		.align	2
 910              		.set	.LANCHOR4,. + 0
 913              	track1Ptr:
 914 0000 00000000 		.word	track1
ARM GAS  /var/folders/wz/z09yph4n0qj4t7mjxhl6ttn80000gn/T//ccz7tZYf.s 			page 34


 915 0004 004C1D00 		.word	track1+1920000
 916              		.section	.data.track2Ptr,"aw"
 917              		.align	2
 918              		.set	.LANCHOR3,. + 0
 921              	track2Ptr:
 922 0000 00000000 		.word	track2
 923 0004 004C1D00 		.word	track2+1920000
 924              		.section	.data.track3Ptr,"aw"
 925              		.align	2
 926              		.set	.LANCHOR7,. + 0
 929              	track3Ptr:
 930 0000 00000000 		.word	track3
 931 0004 004C1D00 		.word	track3+1920000
 932              		.section	.data.track4Ptr,"aw"
 933              		.align	2
 934              		.set	.LANCHOR6,. + 0
 937              	track4Ptr:
 938 0000 00000000 		.word	track4
 939 0004 004C1D00 		.word	track4+1920000
 940              		.section	.sdram_bss,"aw"
 941              		.align	2
 944              	track4:
 945 0000 00000000 		.space	3840000
 945      00000000 
 945      00000000 
 945      00000000 
 945      00000000 
 948              	track3:
 949 3a9800 00000000 		.space	3840000
 949      00000000 
 949      00000000 
 949      00000000 
 949      00000000 
 952              	track2:
 953 753000 00000000 		.space	3840000
 953      00000000 
 953      00000000 
 953      00000000 
 953      00000000 
 956              	track1:
 957 afc800 00000000 		.space	3840000
 957      00000000 
 957      00000000 
 957      00000000 
 957      00000000 
 960              	mix:
 961 ea6000 00000000 		.space	3840000
 961      00000000 
 961      00000000 
 961      00000000 
 961      00000000 
 962              		.text
 963              	.Letext0:
 964              		.file 11 "/Library/DaisyToolchain/0.2.0/arm/arm-none-eabi/include/machine/_default_types.h"
 965              		.file 12 "/Library/DaisyToolchain/0.2.0/arm/arm-none-eabi/include/sys/_stdint.h"
 966              		.file 13 "/Library/DaisyToolchain/0.2.0/arm/arm-none-eabi/include/stdint.h"
 967              		.file 14 "/Library/DaisyToolchain/0.2.0/arm/lib/gcc/arm-none-eabi/10.3.1/include/stddef.h"
ARM GAS  /var/folders/wz/z09yph4n0qj4t7mjxhl6ttn80000gn/T//ccz7tZYf.s 			page 35


 968              		.file 15 "/Library/DaisyToolchain/0.2.0/arm/arm-none-eabi/include/c++/10.3.1/cmath"
 969              		.file 16 "/Library/DaisyToolchain/0.2.0/arm/arm-none-eabi/include/c++/10.3.1/bits/std_abs.h"
 970              		.file 17 "/Library/DaisyToolchain/0.2.0/arm/arm-none-eabi/include/c++/10.3.1/cstdlib"
 971              		.file 18 "/Library/DaisyToolchain/0.2.0/arm/arm-none-eabi/include/c++/10.3.1/cstdint"
 972              		.file 19 "/Library/DaisyToolchain/0.2.0/arm/arm-none-eabi/include/c++/10.3.1/type_traits"
 973              		.file 20 "/Library/DaisyToolchain/0.2.0/arm/arm-none-eabi/include/c++/10.3.1/debug/debug.h"
 974              		.file 21 "/Library/DaisyToolchain/0.2.0/arm/arm-none-eabi/include/c++/10.3.1/arm-none-eabi/thumb/v
 975              		.file 22 "/Library/DaisyToolchain/0.2.0/arm/arm-none-eabi/include/c++/10.3.1/bits/algorithmfwd.h"
 976              		.file 23 "/Library/DaisyToolchain/0.2.0/arm/arm-none-eabi/include/c++/10.3.1/bits/stl_pair.h"
 977              		.file 24 "/Library/DaisyToolchain/0.2.0/arm/arm-none-eabi/include/c++/10.3.1/bits/exception_ptr.h"
 978              		.file 25 "/Library/DaisyToolchain/0.2.0/arm/arm-none-eabi/include/c++/10.3.1/cstdarg"
 979              		.file 26 "/Library/DaisyToolchain/0.2.0/arm/arm-none-eabi/include/c++/10.3.1/cstdio"
 980              		.file 27 "/Library/DaisyToolchain/0.2.0/arm/arm-none-eabi/include/c++/10.3.1/cstring"
 981              		.file 28 "/Library/DaisyToolchain/0.2.0/arm/arm-none-eabi/include/c++/10.3.1/cwchar"
 982              		.file 29 "/Library/DaisyToolchain/0.2.0/arm/arm-none-eabi/include/c++/10.3.1/clocale"
 983              		.file 30 "/Library/DaisyToolchain/0.2.0/arm/arm-none-eabi/include/c++/10.3.1/bits/basic_string.h"
 984              		.file 31 "/Library/DaisyToolchain/0.2.0/arm/arm-none-eabi/include/c++/10.3.1/bits/stl_iterator.h"
 985              		.file 32 "/Library/DaisyToolchain/0.2.0/arm/arm-none-eabi/include/c++/10.3.1/bits/predefined_ops.h
 986              		.file 33 "/Library/DaisyToolchain/0.2.0/arm/arm-none-eabi/include/sys/_types.h"
 987              		.file 34 "/Library/DaisyToolchain/0.2.0/arm/arm-none-eabi/include/sys/reent.h"
 988              		.file 35 "/Library/DaisyToolchain/0.2.0/arm/arm-none-eabi/include/sys/lock.h"
 989              		.file 36 "/Library/DaisyToolchain/0.2.0/arm/arm-none-eabi/include/math.h"
 990              		.file 37 "/Library/DaisyToolchain/0.2.0/arm/arm-none-eabi/include/stdlib.h"
 991              		.file 38 "/Library/DaisyToolchain/0.2.0/arm/arm-none-eabi/include/c++/10.3.1/math.h"
 992              		.file 39 "/Library/DaisyToolchain/0.2.0/arm/arm-none-eabi/include/c++/10.3.1/stdlib.h"
 993              		.file 40 "../../../libDaisy//src/daisy_core.h"
 994              		.file 41 "../../../libDaisy//src/per/tim.h"
 995              		.file 42 "../../../libDaisy//src/per/sai.h"
 996              		.file 43 "../../../libDaisy//src/hid/logger_impl.h"
 997              		.file 44 "../../../libDaisy//src/util/wav_format.h"
 998              		.file 45 "../../../libDaisy//src/dev/max11300.h"
 999              		.file 46 "../../../libDaisy//src/hid/logger.h"
 1000              		.file 47 "../../../libDaisy//src/per/gpio.h"
 1001              		.file 48 "../../../libDaisy//src/dev/sdram.h"
 1002              		.file 49 "/Library/DaisyToolchain/0.2.0/arm/lib/gcc/arm-none-eabi/10.3.1/include/stdarg.h"
 1003              		.file 50 "/Library/DaisyToolchain/0.2.0/arm/arm-none-eabi/include/stdio.h"
 1004              		.file 51 "/Library/DaisyToolchain/0.2.0/arm/arm-none-eabi/include/string.h"
 1005              		.file 52 "../../../DaisySP//Source/Control/adenv.h"
 1006              		.file 53 "../../../DaisySP//Source/Utility/dsp.h"
 1007              		.file 54 "/Library/DaisyToolchain/0.2.0/arm/arm-none-eabi/include/wchar.h"
 1008              		.file 55 "/Library/DaisyToolchain/0.2.0/arm/arm-none-eabi/include/locale.h"
 1009              		.file 56 "DSP/Helpers.h"
 1010              		.file 57 "DSP/Track.h"
 1011              		.file 58 "../../../libDaisy//src/dev/sr_595.h"
 1012              		.file 59 "<built-in>"
 1013              		.file 60 "Architecture/ConnectionMatrix.h"
ARM GAS  /var/folders/wz/z09yph4n0qj4t7mjxhl6ttn80000gn/T//ccz7tZYf.s 			page 36


DEFINED SYMBOLS
                            *ABS*:0000000000000000 LoopyTunes.cpp
/var/folders/wz/z09yph4n0qj4t7mjxhl6ttn80000gn/T//ccz7tZYf.s:19     .text._ZN5daisy6SwitchD2Ev:0000000000000000 $t
/var/folders/wz/z09yph4n0qj4t7mjxhl6ttn80000gn/T//ccz7tZYf.s:26     .text._ZN5daisy6SwitchD2Ev:0000000000000000 _ZN5daisy6SwitchD2Ev
/var/folders/wz/z09yph4n0qj4t7mjxhl6ttn80000gn/T//ccz7tZYf.s:26     .text._ZN5daisy6SwitchD2Ev:0000000000000000 _ZN5daisy6SwitchD1Ev
/var/folders/wz/z09yph4n0qj4t7mjxhl6ttn80000gn/T//ccz7tZYf.s:43     .text._ZN5daisy9DaisySeedD2Ev:0000000000000000 $t
/var/folders/wz/z09yph4n0qj4t7mjxhl6ttn80000gn/T//ccz7tZYf.s:50     .text._ZN5daisy9DaisySeedD2Ev:0000000000000000 _ZN5daisy9DaisySeedD2Ev
/var/folders/wz/z09yph4n0qj4t7mjxhl6ttn80000gn/T//ccz7tZYf.s:50     .text._ZN5daisy9DaisySeedD2Ev:0000000000000000 _ZN5daisy9DaisySeedD1Ev
/var/folders/wz/z09yph4n0qj4t7mjxhl6ttn80000gn/T//ccz7tZYf.s:91     .text._Z13AudioCallbackPKPKfPPfj:0000000000000000 $t
/var/folders/wz/z09yph4n0qj4t7mjxhl6ttn80000gn/T//ccz7tZYf.s:98     .text._Z13AudioCallbackPKPKfPPfj:0000000000000000 _Z13AudioCallbackPKPKfPPfj
/var/folders/wz/z09yph4n0qj4t7mjxhl6ttn80000gn/T//ccz7tZYf.s:288    .text._Z13AudioCallbackPKPKfPPfj:0000000000000084 $d
/var/folders/wz/z09yph4n0qj4t7mjxhl6ttn80000gn/T//ccz7tZYf.s:300    .text._Z10initialisev:0000000000000000 $t
/var/folders/wz/z09yph4n0qj4t7mjxhl6ttn80000gn/T//ccz7tZYf.s:307    .text._Z10initialisev:0000000000000000 _Z10initialisev
/var/folders/wz/z09yph4n0qj4t7mjxhl6ttn80000gn/T//ccz7tZYf.s:389    .text._Z10initialisev:0000000000000070 $d
/var/folders/wz/z09yph4n0qj4t7mjxhl6ttn80000gn/T//ccz7tZYf.s:404    .text._Z10pollInputsv:0000000000000000 $t
/var/folders/wz/z09yph4n0qj4t7mjxhl6ttn80000gn/T//ccz7tZYf.s:411    .text._Z10pollInputsv:0000000000000000 _Z10pollInputsv
/var/folders/wz/z09yph4n0qj4t7mjxhl6ttn80000gn/T//ccz7tZYf.s:517    .text._Z10pollInputsv:0000000000000038 $d
/var/folders/wz/z09yph4n0qj4t7mjxhl6ttn80000gn/T//ccz7tZYf.s:526    .rodata.main.str1.4:0000000000000000 $d
/var/folders/wz/z09yph4n0qj4t7mjxhl6ttn80000gn/T//ccz7tZYf.s:539    .text.startup.main:0000000000000000 $t
/var/folders/wz/z09yph4n0qj4t7mjxhl6ttn80000gn/T//ccz7tZYf.s:546    .text.startup.main:0000000000000000 main
/var/folders/wz/z09yph4n0qj4t7mjxhl6ttn80000gn/T//ccz7tZYf.s:673    .text.startup.main:0000000000000064 $d
/var/folders/wz/z09yph4n0qj4t7mjxhl6ttn80000gn/T//ccz7tZYf.s:688    .text.startup._GLOBAL__sub_I_hw:0000000000000000 $t
/var/folders/wz/z09yph4n0qj4t7mjxhl6ttn80000gn/T//ccz7tZYf.s:694    .text.startup._GLOBAL__sub_I_hw:0000000000000000 _GLOBAL__sub_I_hw
/var/folders/wz/z09yph4n0qj4t7mjxhl6ttn80000gn/T//ccz7tZYf.s:833    .text.startup._GLOBAL__sub_I_hw:000000000000002c $d
/var/folders/wz/z09yph4n0qj4t7mjxhl6ttn80000gn/T//ccz7tZYf.s:845    .init_array:0000000000000000 $d
/var/folders/wz/z09yph4n0qj4t7mjxhl6ttn80000gn/T//ccz7tZYf.s:937    .data.track4Ptr:0000000000000000 track4Ptr
/var/folders/wz/z09yph4n0qj4t7mjxhl6ttn80000gn/T//ccz7tZYf.s:929    .data.track3Ptr:0000000000000000 track3Ptr
/var/folders/wz/z09yph4n0qj4t7mjxhl6ttn80000gn/T//ccz7tZYf.s:921    .data.track2Ptr:0000000000000000 track2Ptr
/var/folders/wz/z09yph4n0qj4t7mjxhl6ttn80000gn/T//ccz7tZYf.s:913    .data.track1Ptr:0000000000000000 track1Ptr
/var/folders/wz/z09yph4n0qj4t7mjxhl6ttn80000gn/T//ccz7tZYf.s:905    .data.mixPtr:0000000000000000 mixPtr
/var/folders/wz/z09yph4n0qj4t7mjxhl6ttn80000gn/T//ccz7tZYf.s:944    .sdram_bss:0000000000000000 track4
/var/folders/wz/z09yph4n0qj4t7mjxhl6ttn80000gn/T//ccz7tZYf.s:948    .sdram_bss:00000000003a9800 track3
/var/folders/wz/z09yph4n0qj4t7mjxhl6ttn80000gn/T//ccz7tZYf.s:952    .sdram_bss:0000000000753000 track2
/var/folders/wz/z09yph4n0qj4t7mjxhl6ttn80000gn/T//ccz7tZYf.s:956    .sdram_bss:0000000000afc800 track1
/var/folders/wz/z09yph4n0qj4t7mjxhl6ttn80000gn/T//ccz7tZYf.s:960    .sdram_bss:0000000000ea6000 mix
/var/folders/wz/z09yph4n0qj4t7mjxhl6ttn80000gn/T//ccz7tZYf.s:891    .bss.connectionMatrix:0000000000000000 connectionMatrix
/var/folders/wz/z09yph4n0qj4t7mjxhl6ttn80000gn/T//ccz7tZYf.s:898    .bss.hw:0000000000000000 hw
/var/folders/wz/z09yph4n0qj4t7mjxhl6ttn80000gn/T//ccz7tZYf.s:860    .bss._ZL10sampleRate:0000000000000000 $d
/var/folders/wz/z09yph4n0qj4t7mjxhl6ttn80000gn/T//ccz7tZYf.s:864    .bss._ZL10sampleRate:0000000000000000 _ZL10sampleRate
/var/folders/wz/z09yph4n0qj4t7mjxhl6ttn80000gn/T//ccz7tZYf.s:867    .bss._ZL4play:0000000000000000 $d
/var/folders/wz/z09yph4n0qj4t7mjxhl6ttn80000gn/T//ccz7tZYf.s:871    .bss._ZL4play:0000000000000000 _ZL4play
/var/folders/wz/z09yph4n0qj4t7mjxhl6ttn80000gn/T//ccz7tZYf.s:874    .bss._ZL5mixer:0000000000000000 $d
/var/folders/wz/z09yph4n0qj4t7mjxhl6ttn80000gn/T//ccz7tZYf.s:878    .bss._ZL5mixer:0000000000000000 _ZL5mixer
/var/folders/wz/z09yph4n0qj4t7mjxhl6ttn80000gn/T//ccz7tZYf.s:881    .bss._ZL6record:0000000000000000 $d
/var/folders/wz/z09yph4n0qj4t7mjxhl6ttn80000gn/T//ccz7tZYf.s:885    .bss._ZL6record:0000000000000000 _ZL6record
/var/folders/wz/z09yph4n0qj4t7mjxhl6ttn80000gn/T//ccz7tZYf.s:888    .bss.connectionMatrix:0000000000000000 $d
/var/folders/wz/z09yph4n0qj4t7mjxhl6ttn80000gn/T//ccz7tZYf.s:894    .bss.hw:0000000000000000 $d
/var/folders/wz/z09yph4n0qj4t7mjxhl6ttn80000gn/T//ccz7tZYf.s:901    .data.mixPtr:0000000000000000 $d
/var/folders/wz/z09yph4n0qj4t7mjxhl6ttn80000gn/T//ccz7tZYf.s:909    .data.track1Ptr:0000000000000000 $d
/var/folders/wz/z09yph4n0qj4t7mjxhl6ttn80000gn/T//ccz7tZYf.s:917    .data.track2Ptr:0000000000000000 $d
/var/folders/wz/z09yph4n0qj4t7mjxhl6ttn80000gn/T//ccz7tZYf.s:925    .data.track3Ptr:0000000000000000 $d
/var/folders/wz/z09yph4n0qj4t7mjxhl6ttn80000gn/T//ccz7tZYf.s:933    .data.track4Ptr:0000000000000000 $d
/var/folders/wz/z09yph4n0qj4t7mjxhl6ttn80000gn/T//ccz7tZYf.s:941    .sdram_bss:0000000000000000 $d
                           .group:0000000000000000 _ZN5daisy6SwitchD5Ev
                           .group:0000000000000000 _ZN5daisy9DaisySeedD5Ev

UNDEFINED SYMBOLS
ARM GAS  /var/folders/wz/z09yph4n0qj4t7mjxhl6ttn80000gn/T//ccz7tZYf.s 			page 37


_ZN5daisy6Switch8DebounceEv
_ZN5Mixer12processInputEPKfS1_j
_ZN5Mixer4tickEv
_ZN5Mixer17processOutputLeftEv
_ZN5Mixer18processOutputRightEv
_ZN5Track14setIsRecordingEv
_ZN5Track12setIsPlayingEv
_ZN5Mixer4initEPPfS1_S1_S1_S1_j
_ZN5daisy9DaisySeed6GetPinEh
_ZN5daisy6Switch4InitE12dsy_gpio_pinfNS0_4TypeENS0_8PolarityENS0_4PullE
_ZN5daisy9DaisySeed4InitEb
_ZN5daisy9DaisySeed17SetAudioBlockSizeEj
_ZN5daisy9DaisySeed18SetAudioSampleRateENS_9SaiHandle6Config10SampleRateE
_ZN5daisy9DaisySeed15AudioSampleRateEv
_ZN5daisy6LoggerILNS_17LoggerDestinationE1EE8StartLogEb
_ZN5daisy9DaisySeed10StartAudioEPFvPKPKfPPfjE
_ZN5daisy6LoggerILNS_17LoggerDestinationE1EE9PrintLineEPKcz
__aeabi_atexit
__dso_handle
