ARM GAS  /var/folders/wz/z09yph4n0qj4t7mjxhl6ttn80000gn/T//cctms0BV.s 			page 1


   1              		.cpu cortex-m7
   2              		.arch armv7e-m
   3              		.fpu fpv5-d16
   4              		.eabi_attribute 28, 1
   5              		.eabi_attribute 20, 1
   6              		.eabi_attribute 21, 1
   7              		.eabi_attribute 23, 3
   8              		.eabi_attribute 24, 1
   9              		.eabi_attribute 25, 1
  10              		.eabi_attribute 26, 1
  11              		.eabi_attribute 30, 2
  12              		.eabi_attribute 34, 1
  13              		.eabi_attribute 18, 4
  14              		.file	"LoopyTunes.cpp"
  15              		.text
  16              	.Ltext0:
  17              		.cfi_sections	.debug_frame
  18              		.section	.text._ZN5daisy6SwitchD2Ev,"axG",%progbits,_ZN5daisy6SwitchD5Ev,comdat
  19              		.align	1
  20              		.p2align 2,,3
  21              		.weak	_ZN5daisy6SwitchD2Ev
  22              		.syntax unified
  23              		.thumb
  24              		.thumb_func
  26              	_ZN5daisy6SwitchD2Ev:
  27              	.LVL0:
  28              	.LFB1606:
  29              		.file 1 "../../../libDaisy//src/hid/switch.h"
   1:../../../libDaisy//src/hid/switch.h **** #pragma once
   2:../../../libDaisy//src/hid/switch.h **** #ifndef DSY_SWITCH_H
   3:../../../libDaisy//src/hid/switch.h **** #define DSY_SWITCH_H
   4:../../../libDaisy//src/hid/switch.h **** #include "daisy_core.h"
   5:../../../libDaisy//src/hid/switch.h **** #include "per/gpio.h"
   6:../../../libDaisy//src/hid/switch.h **** #include "sys/system.h"
   7:../../../libDaisy//src/hid/switch.h **** 
   8:../../../libDaisy//src/hid/switch.h **** namespace daisy
   9:../../../libDaisy//src/hid/switch.h **** {
  10:../../../libDaisy//src/hid/switch.h **** /** 
  11:../../../libDaisy//src/hid/switch.h ****     Generic Class for handling momentary/latching switches \n 
  12:../../../libDaisy//src/hid/switch.h ****     Inspired/influenced by Mutable Instruments (pichenettes) Switch classes
  13:../../../libDaisy//src/hid/switch.h ****     @author Stephen Hensley
  14:../../../libDaisy//src/hid/switch.h ****     @date December 2019
  15:../../../libDaisy//src/hid/switch.h ****     @ingroup controls
  16:../../../libDaisy//src/hid/switch.h **** */
  17:../../../libDaisy//src/hid/switch.h **** class Switch
  18:../../../libDaisy//src/hid/switch.h **** {
  19:../../../libDaisy//src/hid/switch.h ****   public:
  20:../../../libDaisy//src/hid/switch.h ****     /** Specifies the expected behavior of the switch */
  21:../../../libDaisy//src/hid/switch.h ****     enum Type
  22:../../../libDaisy//src/hid/switch.h ****     {
  23:../../../libDaisy//src/hid/switch.h ****         TYPE_TOGGLE,    /**< & */
  24:../../../libDaisy//src/hid/switch.h ****         TYPE_MOMENTARY, /**< & */
  25:../../../libDaisy//src/hid/switch.h ****     };
  26:../../../libDaisy//src/hid/switch.h ****     /** Specifies whether the pressed is HIGH or LOW. */
  27:../../../libDaisy//src/hid/switch.h ****     enum Polarity
  28:../../../libDaisy//src/hid/switch.h ****     {
  29:../../../libDaisy//src/hid/switch.h ****         POLARITY_NORMAL,   /**< & */
ARM GAS  /var/folders/wz/z09yph4n0qj4t7mjxhl6ttn80000gn/T//cctms0BV.s 			page 2


  30:../../../libDaisy//src/hid/switch.h ****         POLARITY_INVERTED, /**< & */
  31:../../../libDaisy//src/hid/switch.h ****     };
  32:../../../libDaisy//src/hid/switch.h **** 
  33:../../../libDaisy//src/hid/switch.h ****     /** Specifies whether to use built-in Pull Up/Down resistors to hold button at a given state wh
  34:../../../libDaisy//src/hid/switch.h ****     enum Pull
  35:../../../libDaisy//src/hid/switch.h ****     {
  36:../../../libDaisy//src/hid/switch.h ****         PULL_UP,   /**< & */
  37:../../../libDaisy//src/hid/switch.h ****         PULL_DOWN, /**< & */
  38:../../../libDaisy//src/hid/switch.h ****         PULL_NONE, /**< & */
  39:../../../libDaisy//src/hid/switch.h ****     };
  40:../../../libDaisy//src/hid/switch.h **** 
  41:../../../libDaisy//src/hid/switch.h ****     Switch() {}
  42:../../../libDaisy//src/hid/switch.h ****     ~Switch() {}
  30              		.loc 1 42 5 view -0
  31              		.cfi_startproc
  32              		@ args = 0, pretend = 0, frame = 0
  33              		@ frame_needed = 0, uses_anonymous_args = 0
  34              		@ link register save eliminated.
  35              		.loc 1 42 16 is_stmt 0 view .LVU1
  36 0000 7047     		bx	lr
  37              		.cfi_endproc
  38              	.LFE1606:
  40              		.weak	_ZN5daisy6SwitchD1Ev
  41              		.thumb_set _ZN5daisy6SwitchD1Ev,_ZN5daisy6SwitchD2Ev
  42 0002 00BF     		.section	.text._ZN5daisy9DaisySeedD2Ev,"axG",%progbits,_ZN5daisy9DaisySeedD5Ev,comdat
  43              		.align	1
  44              		.p2align 2,,3
  45              		.weak	_ZN5daisy9DaisySeedD2Ev
  46              		.syntax unified
  47              		.thumb
  48              		.thumb_func
  50              	_ZN5daisy9DaisySeedD2Ev:
  51              	.LVL1:
  52              	.LFB2529:
  53              		.file 2 "../../../libDaisy//src/daisy_seed.h"
   1:../../../libDaisy//src/daisy_seed.h **** #pragma once
   2:../../../libDaisy//src/daisy_seed.h **** #ifndef DSY_SEED_H
   3:../../../libDaisy//src/daisy_seed.h **** #define DSY_SEED_H
   4:../../../libDaisy//src/daisy_seed.h **** 
   5:../../../libDaisy//src/daisy_seed.h **** #include "daisy.h"
   6:../../../libDaisy//src/daisy_seed.h **** 
   7:../../../libDaisy//src/daisy_seed.h **** //Uncomment this out if you're still using the rev2 hardware
   8:../../../libDaisy//src/daisy_seed.h **** //#define SEED_REV2
   9:../../../libDaisy//src/daisy_seed.h **** 
  10:../../../libDaisy//src/daisy_seed.h **** namespace daisy
  11:../../../libDaisy//src/daisy_seed.h **** {
  12:../../../libDaisy//src/daisy_seed.h **** /**
  13:../../../libDaisy//src/daisy_seed.h ****    @brief This is the higher-level interface for the Daisy board. \n 
  14:../../../libDaisy//src/daisy_seed.h ****     All basic peripheral configuration/initialization is setup here. \n
  15:../../../libDaisy//src/daisy_seed.h **** 
  16:../../../libDaisy//src/daisy_seed.h ****    @ingroup boards
  17:../../../libDaisy//src/daisy_seed.h **** */
  18:../../../libDaisy//src/daisy_seed.h **** class DaisySeed
  19:../../../libDaisy//src/daisy_seed.h **** {
  20:../../../libDaisy//src/daisy_seed.h ****   public:
  21:../../../libDaisy//src/daisy_seed.h ****     DaisySeed() {}
  22:../../../libDaisy//src/daisy_seed.h ****     ~DaisySeed() {}
ARM GAS  /var/folders/wz/z09yph4n0qj4t7mjxhl6ttn80000gn/T//cctms0BV.s 			page 3


  54              		.loc 2 22 5 is_stmt 1 view -0
  55              		.cfi_startproc
  56              		@ args = 0, pretend = 0, frame = 0
  57              		@ frame_needed = 0, uses_anonymous_args = 0
  58              		@ link register save eliminated.
  59              	.LBB183:
  60              	.LBI183:
  61              		.file 3 "../../../libDaisy//src/sys/system.h"
   1:../../../libDaisy//src/sys/system.h **** #ifndef DSY_SYSTEM_H
   2:../../../libDaisy//src/sys/system.h **** #define DSY_SYSTEM_H
   3:../../../libDaisy//src/sys/system.h **** 
   4:../../../libDaisy//src/sys/system.h **** #ifndef UNIT_TEST // for unit tests, a dummy implementation is provided below
   5:../../../libDaisy//src/sys/system.h **** 
   6:../../../libDaisy//src/sys/system.h **** #include <cstdint>
   7:../../../libDaisy//src/sys/system.h **** #include "per/tim.h"
   8:../../../libDaisy//src/sys/system.h **** 
   9:../../../libDaisy//src/sys/system.h **** namespace daisy
  10:../../../libDaisy//src/sys/system.h **** {
  11:../../../libDaisy//src/sys/system.h **** /** A handle for interacting with the Core System. 
  12:../../../libDaisy//src/sys/system.h ****  ** This includes the Clock tree, MPU, global DMA initialization,
  13:../../../libDaisy//src/sys/system.h ****  ** cache handling, and any other necessary global initiailzation
  14:../../../libDaisy//src/sys/system.h ****  **
  15:../../../libDaisy//src/sys/system.h ****  ** @author shensley
  16:../../../libDaisy//src/sys/system.h ****  ** @ingroup system
  17:../../../libDaisy//src/sys/system.h ****  */
  18:../../../libDaisy//src/sys/system.h **** class System
  19:../../../libDaisy//src/sys/system.h **** {
  20:../../../libDaisy//src/sys/system.h ****   public:
  21:../../../libDaisy//src/sys/system.h ****     /** Contains settings for initializing the System */
  22:../../../libDaisy//src/sys/system.h ****     struct Config
  23:../../../libDaisy//src/sys/system.h ****     {
  24:../../../libDaisy//src/sys/system.h ****         /** Specifies the system clock frequency that feeds APB/AHB clocks, etc. */
  25:../../../libDaisy//src/sys/system.h ****         enum class SysClkFreq
  26:../../../libDaisy//src/sys/system.h ****         {
  27:../../../libDaisy//src/sys/system.h ****             FREQ_400MHZ,
  28:../../../libDaisy//src/sys/system.h ****             FREQ_480MHZ,
  29:../../../libDaisy//src/sys/system.h ****         };
  30:../../../libDaisy//src/sys/system.h **** 
  31:../../../libDaisy//src/sys/system.h ****         /** Method to call on the struct to set to defaults
  32:../../../libDaisy//src/sys/system.h ****          ** CPU Freq set to 400MHz
  33:../../../libDaisy//src/sys/system.h ****          ** Cache Enabled 
  34:../../../libDaisy//src/sys/system.h ****          ** */
  35:../../../libDaisy//src/sys/system.h ****         void Defaults()
  36:../../../libDaisy//src/sys/system.h ****         {
  37:../../../libDaisy//src/sys/system.h ****             cpu_freq    = SysClkFreq::FREQ_400MHZ;
  38:../../../libDaisy//src/sys/system.h ****             use_dcache  = true;
  39:../../../libDaisy//src/sys/system.h ****             use_icache  = true;
  40:../../../libDaisy//src/sys/system.h ****             skip_clocks = false;
  41:../../../libDaisy//src/sys/system.h ****         }
  42:../../../libDaisy//src/sys/system.h **** 
  43:../../../libDaisy//src/sys/system.h ****         /** Method to call on the struct to set to boost mode:
  44:../../../libDaisy//src/sys/system.h ****          ** CPU Freq set to 480MHz
  45:../../../libDaisy//src/sys/system.h ****          ** Cache Enabled 
  46:../../../libDaisy//src/sys/system.h ****          ** */
  47:../../../libDaisy//src/sys/system.h ****         void Boost()
  48:../../../libDaisy//src/sys/system.h ****         {
  49:../../../libDaisy//src/sys/system.h ****             cpu_freq    = SysClkFreq::FREQ_480MHZ;
ARM GAS  /var/folders/wz/z09yph4n0qj4t7mjxhl6ttn80000gn/T//cctms0BV.s 			page 4


  50:../../../libDaisy//src/sys/system.h ****             use_dcache  = true;
  51:../../../libDaisy//src/sys/system.h ****             use_icache  = true;
  52:../../../libDaisy//src/sys/system.h ****             skip_clocks = false;
  53:../../../libDaisy//src/sys/system.h ****         }
  54:../../../libDaisy//src/sys/system.h **** 
  55:../../../libDaisy//src/sys/system.h ****         SysClkFreq cpu_freq;
  56:../../../libDaisy//src/sys/system.h ****         bool       use_dcache;
  57:../../../libDaisy//src/sys/system.h ****         bool       use_icache;
  58:../../../libDaisy//src/sys/system.h ****         bool       skip_clocks;
  59:../../../libDaisy//src/sys/system.h ****     };
  60:../../../libDaisy//src/sys/system.h **** 
  61:../../../libDaisy//src/sys/system.h ****     /** Describes the different regions of memory available to the Daisy
  62:../../../libDaisy//src/sys/system.h ****      * 
  63:../../../libDaisy//src/sys/system.h ****      */
  64:../../../libDaisy//src/sys/system.h ****     enum MemoryRegion
  65:../../../libDaisy//src/sys/system.h ****     {
  66:../../../libDaisy//src/sys/system.h ****         INTERNAL_FLASH = 0,
  67:../../../libDaisy//src/sys/system.h ****         ITCMRAM,
  68:../../../libDaisy//src/sys/system.h ****         DTCMRAM,
  69:../../../libDaisy//src/sys/system.h ****         SRAM_D1,
  70:../../../libDaisy//src/sys/system.h ****         SRAM_D2,
  71:../../../libDaisy//src/sys/system.h ****         SRAM_D3,
  72:../../../libDaisy//src/sys/system.h ****         SDRAM,
  73:../../../libDaisy//src/sys/system.h ****         QSPI,
  74:../../../libDaisy//src/sys/system.h ****         INVALID_ADDRESS,
  75:../../../libDaisy//src/sys/system.h ****     };
  76:../../../libDaisy//src/sys/system.h **** 
  77:../../../libDaisy//src/sys/system.h ****     System() {}
  78:../../../libDaisy//src/sys/system.h ****     ~System() {}
  62              		.loc 3 78 5 view .LVU3
  63              		.loc 3 78 5 is_stmt 0 view .LVU4
  64              	.LBE183:
  65              	.LBB184:
  66              	.LBI184:
  67              		.file 4 "../../../libDaisy//src/hid/usb.h"
   1:../../../libDaisy//src/hid/usb.h **** #pragma once
   2:../../../libDaisy//src/hid/usb.h **** #ifndef DSY_HID_USB_H
   3:../../../libDaisy//src/hid/usb.h **** #define DSY_HID_USB_H
   4:../../../libDaisy//src/hid/usb.h **** #include <stdint.h>
   5:../../../libDaisy//src/hid/usb.h **** #include <stdlib.h>
   6:../../../libDaisy//src/hid/usb.h **** 
   7:../../../libDaisy//src/hid/usb.h **** namespace daisy
   8:../../../libDaisy//src/hid/usb.h **** /** @addtogroup human_interface
   9:../../../libDaisy//src/hid/usb.h ****     @{
  10:../../../libDaisy//src/hid/usb.h **** */
  11:../../../libDaisy//src/hid/usb.h **** 
  12:../../../libDaisy//src/hid/usb.h **** {
  13:../../../libDaisy//src/hid/usb.h **** /** 
  14:../../../libDaisy//src/hid/usb.h ****     @brief Interface for initializing and using the USB Peripherals on the daisy
  15:../../../libDaisy//src/hid/usb.h ****     @author Stephen Hensley
  16:../../../libDaisy//src/hid/usb.h ****     @date December 2019
  17:../../../libDaisy//src/hid/usb.h **** */
  18:../../../libDaisy//src/hid/usb.h **** class UsbHandle
  19:../../../libDaisy//src/hid/usb.h **** {
  20:../../../libDaisy//src/hid/usb.h ****   public:
  21:../../../libDaisy//src/hid/usb.h ****     /** Return values for USBHandle Functions */
  22:../../../libDaisy//src/hid/usb.h ****     enum class Result
ARM GAS  /var/folders/wz/z09yph4n0qj4t7mjxhl6ttn80000gn/T//cctms0BV.s 			page 5


  23:../../../libDaisy//src/hid/usb.h ****     {
  24:../../../libDaisy//src/hid/usb.h ****         OK,
  25:../../../libDaisy//src/hid/usb.h ****         ERR,
  26:../../../libDaisy//src/hid/usb.h ****     };
  27:../../../libDaisy//src/hid/usb.h **** 
  28:../../../libDaisy//src/hid/usb.h ****     /** Specified which of the two USB Peripherals to initialize. */
  29:../../../libDaisy//src/hid/usb.h ****     enum UsbPeriph
  30:../../../libDaisy//src/hid/usb.h ****     {
  31:../../../libDaisy//src/hid/usb.h ****         FS_INTERNAL, /**< Internal pin */
  32:../../../libDaisy//src/hid/usb.h ****         FS_EXTERNAL, /**< FS External D+ pin is Pin 38 (GPIO32). FS External D- pin is Pin 37 (GPIO
  33:../../../libDaisy//src/hid/usb.h ****         FS_BOTH,     /**< Both */
  34:../../../libDaisy//src/hid/usb.h ****     };
  35:../../../libDaisy//src/hid/usb.h **** 
  36:../../../libDaisy//src/hid/usb.h **** 
  37:../../../libDaisy//src/hid/usb.h ****     /** Function called upon reception of a buffer */
  38:../../../libDaisy//src/hid/usb.h ****     typedef void (*ReceiveCallback)(uint8_t* buff, uint32_t* len);
  39:../../../libDaisy//src/hid/usb.h **** 
  40:../../../libDaisy//src/hid/usb.h ****     UsbHandle() {}
  41:../../../libDaisy//src/hid/usb.h **** 
  42:../../../libDaisy//src/hid/usb.h ****     ~UsbHandle() {}
  68              		.loc 4 42 5 is_stmt 1 view .LVU5
  69              		.loc 4 42 5 is_stmt 0 view .LVU6
  70              	.LBE184:
  71              	.LBB185:
  72              	.LBI185:
  73              		.file 5 "../../../libDaisy//src/per/adc.h"
   1:../../../libDaisy//src/per/adc.h **** #pragma once
   2:../../../libDaisy//src/per/adc.h **** #ifndef DSY_ADC_H
   3:../../../libDaisy//src/per/adc.h **** #define DSY_ADC_H /**< Macro */
   4:../../../libDaisy//src/per/adc.h **** #include <stdint.h>
   5:../../../libDaisy//src/per/adc.h **** #include <stdlib.h>
   6:../../../libDaisy//src/per/adc.h **** #include "daisy_core.h"
   7:../../../libDaisy//src/per/adc.h **** #include "per/gpio.h"
   8:../../../libDaisy//src/per/adc.h **** 
   9:../../../libDaisy//src/per/adc.h **** #define DSY_ADC_MAX_CHANNELS 16 /**< Maximum number of ADC channels */
  10:../../../libDaisy//src/per/adc.h **** 
  11:../../../libDaisy//src/per/adc.h **** namespace daisy
  12:../../../libDaisy//src/per/adc.h **** {
  13:../../../libDaisy//src/per/adc.h **** /** @addtogroup per_analog
  14:../../../libDaisy//src/per/adc.h ****     @{
  15:../../../libDaisy//src/per/adc.h **** */
  16:../../../libDaisy//src/per/adc.h **** 
  17:../../../libDaisy//src/per/adc.h **** /* While there may not be many configuration options here,
  18:../../../libDaisy//src/per/adc.h **** using a struct like this allows us to add more configuration
  19:../../../libDaisy//src/per/adc.h **** later without breaking existing functionality.
  20:../../../libDaisy//src/per/adc.h **** */
  21:../../../libDaisy//src/per/adc.h **** 
  22:../../../libDaisy//src/per/adc.h **** /** @brief   Configuration Structure for an ADC Channel 
  23:../../../libDaisy//src/per/adc.h ****  *  @details This can be used to configure a a single input, 
  24:../../../libDaisy//src/per/adc.h ****  *           or a multiplexed input, allowing up to 8 inputs on 
  25:../../../libDaisy//src/per/adc.h ****  *           one channel.
  26:../../../libDaisy//src/per/adc.h ****  *  @note    Sharing data lines to multiple muxes _is_ possible, but
  27:../../../libDaisy//src/per/adc.h ****  *           each channel sharing data lines must be set to the maximum
  28:../../../libDaisy//src/per/adc.h ****  *           number of channels, even if some multiplexers have fewer
  29:../../../libDaisy//src/per/adc.h ****  *           inputs connected.
  30:../../../libDaisy//src/per/adc.h **** */
  31:../../../libDaisy//src/per/adc.h **** struct AdcChannelConfig
ARM GAS  /var/folders/wz/z09yph4n0qj4t7mjxhl6ttn80000gn/T//cctms0BV.s 			page 6


  32:../../../libDaisy//src/per/adc.h **** {
  33:../../../libDaisy//src/per/adc.h ****     /** Which pin to use for multiplexing */
  34:../../../libDaisy//src/per/adc.h ****     enum MuxPin
  35:../../../libDaisy//src/per/adc.h ****     {
  36:../../../libDaisy//src/per/adc.h ****         MUX_SEL_0,    /**< & */
  37:../../../libDaisy//src/per/adc.h ****         MUX_SEL_1,    /**< & */
  38:../../../libDaisy//src/per/adc.h ****         MUX_SEL_2,    /**< & */
  39:../../../libDaisy//src/per/adc.h ****         MUX_SEL_LAST, /**< & */
  40:../../../libDaisy//src/per/adc.h ****     };
  41:../../../libDaisy//src/per/adc.h **** 
  42:../../../libDaisy//src/per/adc.h ****     /** Initializes a single ADC pin as an ADC. 
  43:../../../libDaisy//src/per/adc.h ****     \param pin Pin to init.
  44:../../../libDaisy//src/per/adc.h ****      */
  45:../../../libDaisy//src/per/adc.h ****     void InitSingle(dsy_gpio_pin pin);
  46:../../../libDaisy//src/per/adc.h **** 
  47:../../../libDaisy//src/per/adc.h ****     /** 
  48:../../../libDaisy//src/per/adc.h ****     Initializes a single ADC pin as a Multiplexed ADC.
  49:../../../libDaisy//src/per/adc.h ****     Requires a CD405X Multiplexer connected to the pin.
  50:../../../libDaisy//src/per/adc.h ****     You only need to supply the mux pins that are required,
  51:../../../libDaisy//src/per/adc.h ****     e.g. a 4052 mux would only require mux_0 and mux_1.
  52:../../../libDaisy//src/per/adc.h ****     Internal Callbacks handle the pin addressing.
  53:../../../libDaisy//src/per/adc.h ****     \param mux_channels must be 1-8
  54:../../../libDaisy//src/per/adc.h ****     \param mux_0 First mux pin
  55:../../../libDaisy//src/per/adc.h ****     \param mux_1 Second mux pin
  56:../../../libDaisy//src/per/adc.h ****     \param mux_2 Third mux pin
  57:../../../libDaisy//src/per/adc.h ****     \param adc_pin &
  58:../../../libDaisy//src/per/adc.h ****     */
  59:../../../libDaisy//src/per/adc.h ****     void InitMux(dsy_gpio_pin adc_pin,
  60:../../../libDaisy//src/per/adc.h ****                  size_t       mux_channels,
  61:../../../libDaisy//src/per/adc.h ****                  dsy_gpio_pin mux_0,
  62:../../../libDaisy//src/per/adc.h ****                  dsy_gpio_pin mux_1 = {DSY_GPIOX, 0},
  63:../../../libDaisy//src/per/adc.h ****                  dsy_gpio_pin mux_2 = {DSY_GPIOX, 0});
  64:../../../libDaisy//src/per/adc.h **** 
  65:../../../libDaisy//src/per/adc.h ****     dsy_gpio pin_;                   /**< & */
  66:../../../libDaisy//src/per/adc.h ****     dsy_gpio mux_pin_[MUX_SEL_LAST]; /**< & */
  67:../../../libDaisy//src/per/adc.h ****     uint8_t  mux_channels_;          /**< & */
  68:../../../libDaisy//src/per/adc.h **** };
  69:../../../libDaisy//src/per/adc.h **** 
  70:../../../libDaisy//src/per/adc.h **** /**
  71:../../../libDaisy//src/per/adc.h ****    @brief Handler for analog to digital conversion
  72:../../../libDaisy//src/per/adc.h **** */
  73:../../../libDaisy//src/per/adc.h **** class AdcHandle
  74:../../../libDaisy//src/per/adc.h **** {
  75:../../../libDaisy//src/per/adc.h ****   public:
  76:../../../libDaisy//src/per/adc.h ****     /** Supported oversampling amounts */
  77:../../../libDaisy//src/per/adc.h ****     enum OverSampling
  78:../../../libDaisy//src/per/adc.h ****     {
  79:../../../libDaisy//src/per/adc.h ****         OVS_NONE, /**< & */
  80:../../../libDaisy//src/per/adc.h ****         OVS_4,    /**< & */
  81:../../../libDaisy//src/per/adc.h ****         OVS_8,    /**< & */
  82:../../../libDaisy//src/per/adc.h ****         OVS_16,   /**< & */
  83:../../../libDaisy//src/per/adc.h ****         OVS_32,   /**< & */
  84:../../../libDaisy//src/per/adc.h ****         OVS_64,   /**< & */
  85:../../../libDaisy//src/per/adc.h ****         OVS_128,  /**< & */
  86:../../../libDaisy//src/per/adc.h ****         OVS_256,  /**< & */
  87:../../../libDaisy//src/per/adc.h ****         OVS_512,  /**< & */
  88:../../../libDaisy//src/per/adc.h ****         OVS_1024, /**< & */
ARM GAS  /var/folders/wz/z09yph4n0qj4t7mjxhl6ttn80000gn/T//cctms0BV.s 			page 7


  89:../../../libDaisy//src/per/adc.h ****         OVS_LAST, /**< & */
  90:../../../libDaisy//src/per/adc.h ****     };
  91:../../../libDaisy//src/per/adc.h **** 
  92:../../../libDaisy//src/per/adc.h ****     AdcHandle() {}
  93:../../../libDaisy//src/per/adc.h ****     ~AdcHandle() {}
  74              		.loc 5 93 5 is_stmt 1 view .LVU7
  75              		.loc 5 93 5 is_stmt 0 view .LVU8
  76              	.LBE185:
  77              	.LBB186:
  78              	.LBI186:
  79              		.file 6 "../../../libDaisy//src/hid/audio.h"
   1:../../../libDaisy//src/hid/audio.h **** #ifndef DSY_AUDIO_H
   2:../../../libDaisy//src/hid/audio.h **** #define DSY_AUDIO_H /**< & */
   3:../../../libDaisy//src/hid/audio.h **** 
   4:../../../libDaisy//src/hid/audio.h **** #include "per/sai.h"
   5:../../../libDaisy//src/hid/audio.h **** 
   6:../../../libDaisy//src/hid/audio.h **** namespace daisy
   7:../../../libDaisy//src/hid/audio.h **** {
   8:../../../libDaisy//src/hid/audio.h **** /** @brief Audio Engine Handle
   9:../../../libDaisy//src/hid/audio.h ****  *  @ingroup audio 
  10:../../../libDaisy//src/hid/audio.h ****  *  @details This class allows for higher level access to an audio engine.
  11:../../../libDaisy//src/hid/audio.h ****  *           If you're using a SOM like the DaisySeed or DaisyPatchSM (or any 
  12:../../../libDaisy//src/hid/audio.h ****  *            board that includes one of those objects) then the intialization
  13:../../../libDaisy//src/hid/audio.h ****  *            is already taken  care of.
  14:../../../libDaisy//src/hid/audio.h ****  *           If you're setting up your own custom hardware, or need to make changes
  15:../../../libDaisy//src/hid/audio.h ****  *           you will have to take the following steps:
  16:../../../libDaisy//src/hid/audio.h ****  *             1. Create and Initialize an SaiHandle or two depending on your requirements
  17:../../../libDaisy//src/hid/audio.h ****  *             2. Initialize the Audio Handle with the desired settings and the Initialized SaiHand
  18:../../../libDaisy//src/hid/audio.h ****  *             3. If the connected codec requires special configuration or initialization, do so
  19:../../../libDaisy//src/hid/audio.h ****  *             4. Write a callback method using either the AudioCallback or the InterleavingAudioCa
  20:../../../libDaisy//src/hid/audio.h ****  *             5. Start the Audio using one of the StartAudio function
  21:../../../libDaisy//src/hid/audio.h ****  */
  22:../../../libDaisy//src/hid/audio.h **** class AudioHandle
  23:../../../libDaisy//src/hid/audio.h **** {
  24:../../../libDaisy//src/hid/audio.h ****   public:
  25:../../../libDaisy//src/hid/audio.h ****     /** Manually configurable details about the Audio Engine */
  26:../../../libDaisy//src/hid/audio.h ****     /** TODO: Figure out how to get samplerate in here. */
  27:../../../libDaisy//src/hid/audio.h ****     struct Config
  28:../../../libDaisy//src/hid/audio.h ****     {
  29:../../../libDaisy//src/hid/audio.h ****         /** number of samples to process per callback */
  30:../../../libDaisy//src/hid/audio.h ****         size_t blocksize;
  31:../../../libDaisy//src/hid/audio.h **** 
  32:../../../libDaisy//src/hid/audio.h ****         /**< Sample rate of audio */
  33:../../../libDaisy//src/hid/audio.h ****         SaiHandle::Config::SampleRate samplerate;
  34:../../../libDaisy//src/hid/audio.h **** 
  35:../../../libDaisy//src/hid/audio.h ****         /** factor for adjustment before and after callback for hardware that may have extra headro
  36:../../../libDaisy//src/hid/audio.h ****         float postgain;
  37:../../../libDaisy//src/hid/audio.h **** 
  38:../../../libDaisy//src/hid/audio.h ****         /** factor for additional one-sided compensation to audio path for hardware that may
  39:../../../libDaisy//src/hid/audio.h ****          *  have unequal input/output ranges
  40:../../../libDaisy//src/hid/audio.h ****          */
  41:../../../libDaisy//src/hid/audio.h ****         float output_compensation;
  42:../../../libDaisy//src/hid/audio.h **** 
  43:../../../libDaisy//src/hid/audio.h ****         /** Sets default values for config struct */
  44:../../../libDaisy//src/hid/audio.h ****         Config()
  45:../../../libDaisy//src/hid/audio.h ****         : blocksize(48),
  46:../../../libDaisy//src/hid/audio.h ****           samplerate(SaiHandle::Config::SampleRate::SAI_48KHZ),
ARM GAS  /var/folders/wz/z09yph4n0qj4t7mjxhl6ttn80000gn/T//cctms0BV.s 			page 8


  47:../../../libDaisy//src/hid/audio.h ****           postgain(1.f),
  48:../../../libDaisy//src/hid/audio.h ****           output_compensation(1.f)
  49:../../../libDaisy//src/hid/audio.h ****         {
  50:../../../libDaisy//src/hid/audio.h ****         }
  51:../../../libDaisy//src/hid/audio.h ****     };
  52:../../../libDaisy//src/hid/audio.h **** 
  53:../../../libDaisy//src/hid/audio.h ****     enum class Result
  54:../../../libDaisy//src/hid/audio.h ****     {
  55:../../../libDaisy//src/hid/audio.h ****         OK,
  56:../../../libDaisy//src/hid/audio.h ****         ERR,
  57:../../../libDaisy//src/hid/audio.h ****     };
  58:../../../libDaisy//src/hid/audio.h **** 
  59:../../../libDaisy//src/hid/audio.h ****     /** Non-Interleaving input buffer
  60:../../../libDaisy//src/hid/audio.h ****      * Buffer arranged by float[chn][sample] 
  61:../../../libDaisy//src/hid/audio.h ****      * const so that the user can't modify the input
  62:../../../libDaisy//src/hid/audio.h ****      */
  63:../../../libDaisy//src/hid/audio.h ****     typedef const float* const* InputBuffer;
  64:../../../libDaisy//src/hid/audio.h **** 
  65:../../../libDaisy//src/hid/audio.h ****     /** Non-Interleaving output buffer
  66:../../../libDaisy//src/hid/audio.h ****      * Arranged by float[chn][sample] 
  67:../../../libDaisy//src/hid/audio.h ****      */
  68:../../../libDaisy//src/hid/audio.h ****     typedef float** OutputBuffer;
  69:../../../libDaisy//src/hid/audio.h **** 
  70:../../../libDaisy//src/hid/audio.h ****     /** Type for a Non-Interleaving audio callback 
  71:../../../libDaisy//src/hid/audio.h ****      * Non-Interleaving audio callbacks in daisy will be of this type
  72:../../../libDaisy//src/hid/audio.h ****      */
  73:../../../libDaisy//src/hid/audio.h ****     typedef void (*AudioCallback)(InputBuffer  in,
  74:../../../libDaisy//src/hid/audio.h ****                                   OutputBuffer out,
  75:../../../libDaisy//src/hid/audio.h ****                                   size_t       size);
  76:../../../libDaisy//src/hid/audio.h **** 
  77:../../../libDaisy//src/hid/audio.h ****     /** Interleaving Input buffer
  78:../../../libDaisy//src/hid/audio.h ****      ** audio is prepared as { L0, R0, L1, R1, . . . LN, RN }]
  79:../../../libDaisy//src/hid/audio.h ****      ** this is const, as the user shouldn't modify it
  80:../../../libDaisy//src/hid/audio.h ****     */
  81:../../../libDaisy//src/hid/audio.h ****     typedef const float* InterleavingInputBuffer;
  82:../../../libDaisy//src/hid/audio.h **** 
  83:../../../libDaisy//src/hid/audio.h ****     /** Interleaving Output buffer 
  84:../../../libDaisy//src/hid/audio.h ****      ** audio is prepared as { L0, R0, L1, R1, . . . LN, RN }
  85:../../../libDaisy//src/hid/audio.h ****     */
  86:../../../libDaisy//src/hid/audio.h ****     typedef float* InterleavingOutputBuffer;
  87:../../../libDaisy//src/hid/audio.h **** 
  88:../../../libDaisy//src/hid/audio.h ****     /** Interleaving Audio Callback 
  89:../../../libDaisy//src/hid/audio.h ****      * Interleaving audio callbacks in daisy must be of this type
  90:../../../libDaisy//src/hid/audio.h ****      */
  91:../../../libDaisy//src/hid/audio.h ****     typedef void (*InterleavingAudioCallback)(InterleavingInputBuffer  in,
  92:../../../libDaisy//src/hid/audio.h ****                                               InterleavingOutputBuffer out,
  93:../../../libDaisy//src/hid/audio.h ****                                               size_t                   size);
  94:../../../libDaisy//src/hid/audio.h **** 
  95:../../../libDaisy//src/hid/audio.h ****     AudioHandle() : pimpl_(nullptr) {}
  96:../../../libDaisy//src/hid/audio.h ****     ~AudioHandle() {}
  80              		.loc 6 96 5 is_stmt 1 view .LVU9
  81              		.loc 6 96 5 is_stmt 0 view .LVU10
  82              	.LBE186:
  83              		.loc 2 22 19 view .LVU11
  84 0000 7047     		bx	lr
  85              		.cfi_endproc
  86              	.LFE2529:
ARM GAS  /var/folders/wz/z09yph4n0qj4t7mjxhl6ttn80000gn/T//cctms0BV.s 			page 9


  88              		.weak	_ZN5daisy9DaisySeedD1Ev
  89              		.thumb_set _ZN5daisy9DaisySeedD1Ev,_ZN5daisy9DaisySeedD2Ev
  90 0002 00BF     		.section	.text._ZN7daisysp9DelayLineIfLj240000EED2Ev,"axG",%progbits,_ZN7daisysp9DelayLineIfLj2400
  91              		.align	1
  92              		.p2align 2,,3
  93              		.weak	_ZN7daisysp9DelayLineIfLj240000EED2Ev
  94              		.syntax unified
  95              		.thumb
  96              		.thumb_func
  98              	_ZN7daisysp9DelayLineIfLj240000EED2Ev:
  99              	.LVL2:
 100              	.LFB5383:
 101              		.file 7 "../../../DaisySP//Source/Utility/delayline.h"
   1:../../../DaisySP//Source/Utility/delayline.h **** #pragma once
   2:../../../DaisySP//Source/Utility/delayline.h **** #ifndef DSY_DELAY_H
   3:../../../DaisySP//Source/Utility/delayline.h **** #define DSY_DELAY_H
   4:../../../DaisySP//Source/Utility/delayline.h **** #include <stdlib.h>
   5:../../../DaisySP//Source/Utility/delayline.h **** #include <stdint.h>
   6:../../../DaisySP//Source/Utility/delayline.h **** namespace daisysp
   7:../../../DaisySP//Source/Utility/delayline.h **** {
   8:../../../DaisySP//Source/Utility/delayline.h **** /** Simple Delay line.
   9:../../../DaisySP//Source/Utility/delayline.h **** November 2019
  10:../../../DaisySP//Source/Utility/delayline.h **** 
  11:../../../DaisySP//Source/Utility/delayline.h **** Converted to Template December 2019
  12:../../../DaisySP//Source/Utility/delayline.h **** 
  13:../../../DaisySP//Source/Utility/delayline.h **** declaration example: (1 second of floats)
  14:../../../DaisySP//Source/Utility/delayline.h **** 
  15:../../../DaisySP//Source/Utility/delayline.h **** DelayLine<float, SAMPLE_RATE> del;
  16:../../../DaisySP//Source/Utility/delayline.h **** 
  17:../../../DaisySP//Source/Utility/delayline.h **** By: shensley
  18:../../../DaisySP//Source/Utility/delayline.h **** */
  19:../../../DaisySP//Source/Utility/delayline.h **** template <typename T, size_t max_size>
  20:../../../DaisySP//Source/Utility/delayline.h **** class DelayLine
  21:../../../DaisySP//Source/Utility/delayline.h **** {
  22:../../../DaisySP//Source/Utility/delayline.h ****   public:
  23:../../../DaisySP//Source/Utility/delayline.h ****     DelayLine() {}
  24:../../../DaisySP//Source/Utility/delayline.h ****     ~DelayLine() {}
 102              		.loc 7 24 5 is_stmt 1 view -0
 103              		.cfi_startproc
 104              		@ args = 0, pretend = 0, frame = 0
 105              		@ frame_needed = 0, uses_anonymous_args = 0
 106              		@ link register save eliminated.
 107              		.loc 7 24 19 is_stmt 0 view .LVU13
 108 0000 7047     		bx	lr
 109              		.cfi_endproc
 110              	.LFE5383:
 112              		.weak	_ZN7daisysp9DelayLineIfLj240000EED1Ev
 113              		.thumb_set _ZN7daisysp9DelayLineIfLj240000EED1Ev,_ZN7daisysp9DelayLineIfLj240000EED2Ev
 114 0002 00BF     		.section	.text._Z13AudioCallbackPKPKfPPfj,"ax",%progbits
 115              		.align	1
 116              		.p2align 2,,3
 117              		.global	_Z13AudioCallbackPKPKfPPfj
 118              		.syntax unified
 119              		.thumb
 120              		.thumb_func
 122              	_Z13AudioCallbackPKPKfPPfj:
 123              	.LVL3:
ARM GAS  /var/folders/wz/z09yph4n0qj4t7mjxhl6ttn80000gn/T//cctms0BV.s 			page 10


 124              	.LFB4815:
 125              		.file 8 "LoopyTunes.cpp"
   1:LoopyTunes.cpp **** #include "DSP/Mixer.h"
   2:LoopyTunes.cpp **** #include "Architecture/ConnectionMatrix.h"
   3:LoopyTunes.cpp **** 
   4:LoopyTunes.cpp **** using namespace daisy;
   5:LoopyTunes.cpp **** using namespace daisysp;
   6:LoopyTunes.cpp **** 
   7:LoopyTunes.cpp **** /*
   8:LoopyTunes.cpp **** TO DO:
   9:LoopyTunes.cpp **** - BinaryParameter
  10:LoopyTunes.cpp **** - AudioParameter value smoothing / ramping
  11:LoopyTunes.cpp **** - Parameter update queue
  12:LoopyTunes.cpp **** - Value normalisation
  13:LoopyTunes.cpp **** - Tick parameters less often
  14:LoopyTunes.cpp **** - Reduce floating point precision
  15:LoopyTunes.cpp **** - Come up with much better mixing system
  16:LoopyTunes.cpp **** - Decibel conversion
  17:LoopyTunes.cpp **** - Undo/redo?
  18:LoopyTunes.cpp **** - Output EQ profiles for different output sources
  19:LoopyTunes.cpp **** - Interpolate between start and end sample of loop to smooth transition
  20:LoopyTunes.cpp **** - Is there a better method of managing ADC inputs?
  21:LoopyTunes.cpp **** - Check bit width of pointers, memory range
  22:LoopyTunes.cpp **** */
  23:LoopyTunes.cpp **** 
  24:LoopyTunes.cpp **** // Hardware
  25:LoopyTunes.cpp **** DaisySeed hw;
  26:LoopyTunes.cpp **** 
  27:LoopyTunes.cpp **** // GPIO
  28:LoopyTunes.cpp **** Switch record;
  29:LoopyTunes.cpp **** Switch play;
  30:LoopyTunes.cpp **** 
  31:LoopyTunes.cpp **** // ADC inputs
  32:LoopyTunes.cpp **** AdcChannelConfig amp1;
  33:LoopyTunes.cpp **** 
  34:LoopyTunes.cpp **** // Global
  35:LoopyTunes.cpp **** bool isRecord;
  36:LoopyTunes.cpp **** bool isPlay;
  37:LoopyTunes.cpp **** 
  38:LoopyTunes.cpp **** // System - Flash
  39:LoopyTunes.cpp **** ConnectionMatrix connectionMatrix;
  40:LoopyTunes.cpp **** 
  41:LoopyTunes.cpp **** // DSP - SDRAM
  42:LoopyTunes.cpp **** Mixer mixer;
  43:LoopyTunes.cpp **** 
  44:LoopyTunes.cpp **** // UI - QSPI
  45:LoopyTunes.cpp **** 
  46:LoopyTunes.cpp **** namespace Buffers
  47:LoopyTunes.cpp **** {
  48:LoopyTunes.cpp **** 	float DSY_SDRAM_BSS mix[2][SAMPLERATE * DURATION];
  49:LoopyTunes.cpp **** 	float DSY_SDRAM_BSS track1[2][SAMPLERATE * DURATION];
  50:LoopyTunes.cpp **** 	float DSY_SDRAM_BSS track2[2][SAMPLERATE * DURATION];
  51:LoopyTunes.cpp **** 	float DSY_SDRAM_BSS track3[2][SAMPLERATE * DURATION];
  52:LoopyTunes.cpp **** 	float DSY_SDRAM_BSS track4[2][SAMPLERATE * DURATION];
  53:LoopyTunes.cpp **** 
  54:LoopyTunes.cpp **** 	float* mixPtr[2] = {mix[L], mix[R]};
  55:LoopyTunes.cpp **** 	float* track1Ptr[2] = {track1[L], track1[R]};
ARM GAS  /var/folders/wz/z09yph4n0qj4t7mjxhl6ttn80000gn/T//cctms0BV.s 			page 11


  56:LoopyTunes.cpp **** 	float* track2Ptr[2] = {track2[L], track2[R]};
  57:LoopyTunes.cpp **** 	float* track3Ptr[2] = {track3[L], track3[R]};
  58:LoopyTunes.cpp **** 	float* track4Ptr[2] = {track4[L], track4[R]};
  59:LoopyTunes.cpp **** };
  60:LoopyTunes.cpp **** 
  61:LoopyTunes.cpp **** void init()
  62:LoopyTunes.cpp **** {
  63:LoopyTunes.cpp **** 	// initialise Daisy Seed
  64:LoopyTunes.cpp **** 	hw.Init();
  65:LoopyTunes.cpp **** 	hw.SetAudioBlockSize(BLOCKLENGTH); // number of samples handled per callback
  66:LoopyTunes.cpp **** 	hw.SetAudioSampleRate(SaiHandle::Config::SampleRate::SAI_48KHZ);
  67:LoopyTunes.cpp **** 
  68:LoopyTunes.cpp **** 	// initialise GPIO
  69:LoopyTunes.cpp **** 	record.Init(daisy::seed::D0, 30);
  70:LoopyTunes.cpp **** 	play.Init(daisy::seed::D1, 30);
  71:LoopyTunes.cpp **** 
  72:LoopyTunes.cpp **** 	isRecord = false;
  73:LoopyTunes.cpp **** 	isPlay = false;
  74:LoopyTunes.cpp **** 
  75:LoopyTunes.cpp **** 	// initialise DSP
  76:LoopyTunes.cpp **** 	mixer.init(&hw, Buffers::mixPtr, Buffers::track1Ptr, Buffers::track2Ptr, Buffers::track3Ptr, Buffe
  77:LoopyTunes.cpp **** }
  78:LoopyTunes.cpp **** 
  79:LoopyTunes.cpp **** void initADC()
  80:LoopyTunes.cpp **** {
  81:LoopyTunes.cpp **** 	amp1.InitSingle(daisy::seed::A0);
  82:LoopyTunes.cpp **** 	hw.adc.Init(&amp1, 1);
  83:LoopyTunes.cpp **** 	hw.adc.Start();
  84:LoopyTunes.cpp **** }
  85:LoopyTunes.cpp **** 
  86:LoopyTunes.cpp **** void pollInputs()
  87:LoopyTunes.cpp **** {
  88:LoopyTunes.cpp **** 	isRecord = record.Pressed();
  89:LoopyTunes.cpp **** 	isPlay = play.Pressed();
  90:LoopyTunes.cpp **** 
  91:LoopyTunes.cpp **** 	if(isRecord) 
  92:LoopyTunes.cpp **** 	{  
  93:LoopyTunes.cpp **** 		mixer.setIsRecording();
  94:LoopyTunes.cpp **** 	}
  95:LoopyTunes.cpp **** 	record.Debounce();
  96:LoopyTunes.cpp **** 
  97:LoopyTunes.cpp **** 	if(isPlay) 
  98:LoopyTunes.cpp **** 	{ 
  99:LoopyTunes.cpp **** 		mixer.setIsPlaying(); 
 100:LoopyTunes.cpp **** 	}
 101:LoopyTunes.cpp **** 	play.Debounce();
 102:LoopyTunes.cpp **** }
 103:LoopyTunes.cpp **** 
 104:LoopyTunes.cpp **** void AudioCallback(AudioHandle::InputBuffer in, AudioHandle::OutputBuffer out, size_t size)
 105:LoopyTunes.cpp **** {
 126              		.loc 8 105 1 is_stmt 1 view -0
 127              		.cfi_startproc
 128              		@ args = 0, pretend = 0, frame = 8
 129              		@ frame_needed = 0, uses_anonymous_args = 0
 106:LoopyTunes.cpp **** 	mixer.processInputBlock(in[L], in[R], size);
 130              		.loc 8 106 2 view .LVU15
 105:LoopyTunes.cpp **** 	mixer.processInputBlock(in[L], in[R], size);
ARM GAS  /var/folders/wz/z09yph4n0qj4t7mjxhl6ttn80000gn/T//cctms0BV.s 			page 12


 131              		.loc 8 105 1 is_stmt 0 view .LVU16
 132 0000 10B5     		push	{r4, lr}
 133              		.cfi_def_cfa_offset 8
 134              		.cfi_offset 4, -8
 135              		.cfi_offset 14, -4
 136 0002 8446     		mov	ip, r0
 137 0004 82B0     		sub	sp, sp, #8
 138              		.cfi_def_cfa_offset 16
 105:LoopyTunes.cpp **** 	mixer.processInputBlock(in[L], in[R], size);
 139              		.loc 8 105 1 view .LVU17
 140 0006 0C46     		mov	r4, r1
 141 0008 1346     		mov	r3, r2
 142              		.loc 8 106 25 view .LVU18
 143 000a 0192     		str	r2, [sp, #4]
 144 000c 0648     		ldr	r0, .L7
 145              	.LVL4:
 146              		.loc 8 106 25 view .LVU19
 147 000e DCE90012 		ldrd	r1, r2, [ip]
 148              	.LVL5:
 149              		.loc 8 106 25 view .LVU20
 150 0012 FFF7FEFF 		bl	_ZN5Mixer17processInputBlockEPKfS1_j
 151              	.LVL6:
 107:LoopyTunes.cpp **** 	mixer.processOutputBlock(out[L], out[R], size);
 152              		.loc 8 107 2 is_stmt 1 view .LVU21
 153              		.loc 8 107 26 is_stmt 0 view .LVU22
 154 0016 019B     		ldr	r3, [sp, #4]
 155 0018 0348     		ldr	r0, .L7
 156 001a D4E90012 		ldrd	r1, r2, [r4]
 108:LoopyTunes.cpp **** }
 157              		.loc 8 108 1 view .LVU23
 158 001e 02B0     		add	sp, sp, #8
 159              		.cfi_def_cfa_offset 8
 160              		@ sp needed
 161 0020 BDE81040 		pop	{r4, lr}
 162              		.cfi_restore 14
 163              		.cfi_restore 4
 164              		.cfi_def_cfa_offset 0
 165              	.LVL7:
 107:LoopyTunes.cpp **** 	mixer.processOutputBlock(out[L], out[R], size);
 166              		.loc 8 107 26 view .LVU24
 167 0024 FFF7FEBF 		b	_ZN5Mixer18processOutputBlockEPfS0_j
 168              	.LVL8:
 169              	.L8:
 170              		.align	2
 171              	.L7:
 172 0028 00000000 		.word	.LANCHOR0
 173              		.cfi_endproc
 174              	.LFE4815:
 176              		.section	.text._Z4initv,"ax",%progbits
 177              		.align	1
 178              		.p2align 2,,3
 179              		.global	_Z4initv
 180              		.syntax unified
 181              		.thumb
 182              		.thumb_func
 184              	_Z4initv:
 185              	.LFB4812:
ARM GAS  /var/folders/wz/z09yph4n0qj4t7mjxhl6ttn80000gn/T//cctms0BV.s 			page 13


  62:LoopyTunes.cpp **** 	// initialise Daisy Seed
 186              		.loc 8 62 1 is_stmt 1 view -0
 187              		.cfi_startproc
 188              		@ args = 0, pretend = 0, frame = 8
 189              		@ frame_needed = 0, uses_anonymous_args = 0
  64:LoopyTunes.cpp **** 	hw.SetAudioBlockSize(BLOCKLENGTH); // number of samples handled per callback
 190              		.loc 8 64 2 view .LVU26
  62:LoopyTunes.cpp **** 	// initialise Daisy Seed
 191              		.loc 8 62 1 is_stmt 0 view .LVU27
 192 0000 70B5     		push	{r4, r5, r6, lr}
 193              		.cfi_def_cfa_offset 16
 194              		.cfi_offset 4, -16
 195              		.cfi_offset 5, -12
 196              		.cfi_offset 6, -8
 197              		.cfi_offset 14, -4
  64:LoopyTunes.cpp **** 	hw.SetAudioBlockSize(BLOCKLENGTH); // number of samples handled per callback
 198              		.loc 8 64 9 view .LVU28
 199 0002 1C4C     		ldr	r4, .L11
  62:LoopyTunes.cpp **** 	// initialise Daisy Seed
 200              		.loc 8 62 1 view .LVU29
 201 0004 86B0     		sub	sp, sp, #24
 202              		.cfi_def_cfa_offset 40
  64:LoopyTunes.cpp **** 	hw.SetAudioBlockSize(BLOCKLENGTH); // number of samples handled per callback
 203              		.loc 8 64 9 view .LVU30
 204 0006 0021     		movs	r1, #0
  76:LoopyTunes.cpp **** }
 205              		.loc 8 76 12 view .LVU31
 206 0008 1B4E     		ldr	r6, .L11+4
  64:LoopyTunes.cpp **** 	hw.SetAudioBlockSize(BLOCKLENGTH); // number of samples handled per callback
 207              		.loc 8 64 9 view .LVU32
 208 000a 2046     		mov	r0, r4
  72:LoopyTunes.cpp **** 	isPlay = false;
 209              		.loc 8 72 11 view .LVU33
 210 000c 1B4D     		ldr	r5, .L11+8
  64:LoopyTunes.cpp **** 	hw.SetAudioBlockSize(BLOCKLENGTH); // number of samples handled per callback
 211              		.loc 8 64 9 view .LVU34
 212 000e FFF7FEFF 		bl	_ZN5daisy9DaisySeed4InitEb
 213              	.LVL9:
  65:LoopyTunes.cpp **** 	hw.SetAudioSampleRate(SaiHandle::Config::SampleRate::SAI_48KHZ);
 214              		.loc 8 65 2 is_stmt 1 view .LVU35
  65:LoopyTunes.cpp **** 	hw.SetAudioSampleRate(SaiHandle::Config::SampleRate::SAI_48KHZ);
 215              		.loc 8 65 22 is_stmt 0 view .LVU36
 216 0012 2046     		mov	r0, r4
 217 0014 0421     		movs	r1, #4
 218 0016 FFF7FEFF 		bl	_ZN5daisy9DaisySeed17SetAudioBlockSizeEj
 219              	.LVL10:
  66:LoopyTunes.cpp **** 
 220              		.loc 8 66 2 is_stmt 1 view .LVU37
  66:LoopyTunes.cpp **** 
 221              		.loc 8 66 23 is_stmt 0 view .LVU38
 222 001a 2046     		mov	r0, r4
 223 001c 0321     		movs	r1, #3
 224 001e FFF7FEFF 		bl	_ZN5daisy9DaisySeed18SetAudioSampleRateENS_9SaiHandle6Config10SampleRateE
 225              	.LVL11:
  69:LoopyTunes.cpp **** 	play.Init(daisy::seed::D1, 30);
 226              		.loc 8 69 2 is_stmt 1 view .LVU39
 227              	.LBB187:
ARM GAS  /var/folders/wz/z09yph4n0qj4t7mjxhl6ttn80000gn/T//cctms0BV.s 			page 14


 228              	.LBI187:
 229              		.file 9 "../../../libDaisy//src/daisy_core.h"
   1:../../../libDaisy//src/daisy_core.h **** #pragma once
   2:../../../libDaisy//src/daisy_core.h **** #ifndef DSY_CORE_HW_H
   3:../../../libDaisy//src/daisy_core.h **** #define DSY_CORE_HW_H /**< & */
   4:../../../libDaisy//src/daisy_core.h **** #include <stdint.h>
   5:../../../libDaisy//src/daisy_core.h **** #include <stdlib.h>
   6:../../../libDaisy//src/daisy_core.h **** 
   7:../../../libDaisy//src/daisy_core.h **** #if defined(_MSC_VER)
   8:../../../libDaisy//src/daisy_core.h **** #define FORCE_INLINE __forceinline /**< & */
   9:../../../libDaisy//src/daisy_core.h **** #elif defined(__clang__)
  10:../../../libDaisy//src/daisy_core.h **** #define FORCE_INLINE inline __attribute__((always_inline)) /**< & */
  11:../../../libDaisy//src/daisy_core.h **** #pragma clang diagnostic ignored "-Wduplicate-decl-specifier"
  12:../../../libDaisy//src/daisy_core.h **** #elif defined(__GNUC__)
  13:../../../libDaisy//src/daisy_core.h **** #define FORCE_INLINE inline __attribute__((always_inline)) /**< & */
  14:../../../libDaisy//src/daisy_core.h **** #else
  15:../../../libDaisy//src/daisy_core.h **** #error unknown compiler
  16:../../../libDaisy//src/daisy_core.h **** #endif
  17:../../../libDaisy//src/daisy_core.h **** 
  18:../../../libDaisy//src/daisy_core.h **** /** @addtogroup utility
  19:../../../libDaisy//src/daisy_core.h ****     @{
  20:../../../libDaisy//src/daisy_core.h **** */
  21:../../../libDaisy//src/daisy_core.h **** 
  22:../../../libDaisy//src/daisy_core.h **** /** Macro for area of memory that is configured as cacheless
  23:../../../libDaisy//src/daisy_core.h **** This should be used primarily for DMA buffers, and the like.
  24:../../../libDaisy//src/daisy_core.h **** */
  25:../../../libDaisy//src/daisy_core.h **** #define DMA_BUFFER_MEM_SECTION __attribute__((section(".sram1_bss")))
  26:../../../libDaisy//src/daisy_core.h **** /** 
  27:../../../libDaisy//src/daisy_core.h **** THE DTCM RAM section is also non-cached. However, is not suitable 
  28:../../../libDaisy//src/daisy_core.h **** for DMA transfers. Performance is on par with internal SRAM w/ 
  29:../../../libDaisy//src/daisy_core.h **** cache enabled.
  30:../../../libDaisy//src/daisy_core.h **** */
  31:../../../libDaisy//src/daisy_core.h **** #define DTCM_MEM_SECTION __attribute__((section(".dtcmram_bss")))
  32:../../../libDaisy//src/daisy_core.h **** 
  33:../../../libDaisy//src/daisy_core.h **** #define FBIPMAX 0.999985f             /**< close to 1.0f-LSB at 16 bit */
  34:../../../libDaisy//src/daisy_core.h **** #define FBIPMIN (-FBIPMAX)            /**< - (1 - LSB) */
  35:../../../libDaisy//src/daisy_core.h **** #define U82F_SCALE 0.0078740f         /**< 1 / 127 */
  36:../../../libDaisy//src/daisy_core.h **** #define F2U8_SCALE 127.0f             /**< 128 - 1 */
  37:../../../libDaisy//src/daisy_core.h **** #define S82F_SCALE 0.0078125f         /**< 1 / (2**7) */
  38:../../../libDaisy//src/daisy_core.h **** #define F2S8_SCALE 127.0f             /**< (2 ** 7) - 1 */
  39:../../../libDaisy//src/daisy_core.h **** #define S162F_SCALE 3.0517578125e-05f /**< 1 / (2** 15) */
  40:../../../libDaisy//src/daisy_core.h **** #define F2S16_SCALE 32767.0f          /**< (2 ** 15) - 1 */
  41:../../../libDaisy//src/daisy_core.h **** #define F2S24_SCALE 8388608.0f        /**< 2 ** 23 */
  42:../../../libDaisy//src/daisy_core.h **** #define S242F_SCALE 1.192092896e-07f  /**< 1 / (2 ** 23) */
  43:../../../libDaisy//src/daisy_core.h **** #define S24SIGN 0x800000              /**< 2 ** 23 */
  44:../../../libDaisy//src/daisy_core.h **** #define S322F_SCALE 4.6566129e-10f    /**< 1 / (2** 31) */
  45:../../../libDaisy//src/daisy_core.h **** #define F2S32_SCALE 2147483647.f      /**< (2 ** 31) - 1 */
  46:../../../libDaisy//src/daisy_core.h **** 
  47:../../../libDaisy//src/daisy_core.h **** 
  48:../../../libDaisy//src/daisy_core.h **** /** shorthand macro for simplifying the reading of the left 
  49:../../../libDaisy//src/daisy_core.h ****  *  channel of a non-interleaved output buffer named out */
  50:../../../libDaisy//src/daisy_core.h **** #define OUT_L out[0]
  51:../../../libDaisy//src/daisy_core.h **** 
  52:../../../libDaisy//src/daisy_core.h **** /** shorthand macro for simplifying the reading of the right 
  53:../../../libDaisy//src/daisy_core.h ****  *  channel of a non-interleaved output buffer named out */
  54:../../../libDaisy//src/daisy_core.h **** #define OUT_R out[1]
  55:../../../libDaisy//src/daisy_core.h **** 
ARM GAS  /var/folders/wz/z09yph4n0qj4t7mjxhl6ttn80000gn/T//cctms0BV.s 			page 15


  56:../../../libDaisy//src/daisy_core.h **** /** shorthand macro for simplifying the reading of the left 
  57:../../../libDaisy//src/daisy_core.h ****  *  channel of a non-interleaved input buffer named in */
  58:../../../libDaisy//src/daisy_core.h **** #define IN_L in[0]
  59:../../../libDaisy//src/daisy_core.h **** 
  60:../../../libDaisy//src/daisy_core.h **** /** shorthand macro for simplifying the reading of the right 
  61:../../../libDaisy//src/daisy_core.h ****  *  channel of a non-interleaved input buffer named in */
  62:../../../libDaisy//src/daisy_core.h **** #define IN_R in[1]
  63:../../../libDaisy//src/daisy_core.h **** 
  64:../../../libDaisy//src/daisy_core.h **** /** 
  65:../../../libDaisy//src/daisy_core.h ****     Computes cube.
  66:../../../libDaisy//src/daisy_core.h ****     \param x Number to be cubed
  67:../../../libDaisy//src/daisy_core.h ****     \return x ^ 3
  68:../../../libDaisy//src/daisy_core.h **** */
  69:../../../libDaisy//src/daisy_core.h **** FORCE_INLINE float cube(float x)
  70:../../../libDaisy//src/daisy_core.h **** {
  71:../../../libDaisy//src/daisy_core.h ****     return (x * x) * x;
  72:../../../libDaisy//src/daisy_core.h **** }
  73:../../../libDaisy//src/daisy_core.h **** 
  74:../../../libDaisy//src/daisy_core.h **** /** 
  75:../../../libDaisy//src/daisy_core.h ****     Converts unsigned 8-bit to float
  76:../../../libDaisy//src/daisy_core.h ****     \param x Number to be scaled.
  77:../../../libDaisy//src/daisy_core.h ****     \return Scaled number.
  78:../../../libDaisy//src/daisy_core.h **** */
  79:../../../libDaisy//src/daisy_core.h **** FORCE_INLINE float u82f(uint8_t x)
  80:../../../libDaisy//src/daisy_core.h **** {
  81:../../../libDaisy//src/daisy_core.h ****     return ((float)x - 127.f) * U82F_SCALE;
  82:../../../libDaisy//src/daisy_core.h **** }
  83:../../../libDaisy//src/daisy_core.h **** 
  84:../../../libDaisy//src/daisy_core.h **** /**
  85:../../../libDaisy//src/daisy_core.h ****     Converts float to unsigned 8-bit
  86:../../../libDaisy//src/daisy_core.h **** */
  87:../../../libDaisy//src/daisy_core.h **** FORCE_INLINE uint8_t f2u8(float x)
  88:../../../libDaisy//src/daisy_core.h **** {
  89:../../../libDaisy//src/daisy_core.h ****     x = x <= FBIPMIN ? FBIPMIN : x;
  90:../../../libDaisy//src/daisy_core.h ****     x = x >= FBIPMAX ? FBIPMAX : x;
  91:../../../libDaisy//src/daisy_core.h ****     return (uint8_t)((x * F2U8_SCALE) + F2U8_SCALE);
  92:../../../libDaisy//src/daisy_core.h **** }
  93:../../../libDaisy//src/daisy_core.h **** 
  94:../../../libDaisy//src/daisy_core.h **** 
  95:../../../libDaisy//src/daisy_core.h **** /** 
  96:../../../libDaisy//src/daisy_core.h ****     Converts Signed 8-bit to float
  97:../../../libDaisy//src/daisy_core.h ****     \param x Number to be scaled.
  98:../../../libDaisy//src/daisy_core.h ****     \return Scaled number.
  99:../../../libDaisy//src/daisy_core.h **** */
 100:../../../libDaisy//src/daisy_core.h **** FORCE_INLINE float s82f(int8_t x)
 101:../../../libDaisy//src/daisy_core.h **** {
 102:../../../libDaisy//src/daisy_core.h ****     return (float)x * S82F_SCALE;
 103:../../../libDaisy//src/daisy_core.h **** }
 104:../../../libDaisy//src/daisy_core.h **** 
 105:../../../libDaisy//src/daisy_core.h **** /**
 106:../../../libDaisy//src/daisy_core.h ****     Converts float to Signed 8-bit
 107:../../../libDaisy//src/daisy_core.h **** */
 108:../../../libDaisy//src/daisy_core.h **** FORCE_INLINE int8_t f2s8(float x)
 109:../../../libDaisy//src/daisy_core.h **** {
 110:../../../libDaisy//src/daisy_core.h ****     x = x <= FBIPMIN ? FBIPMIN : x;
 111:../../../libDaisy//src/daisy_core.h ****     x = x >= FBIPMAX ? FBIPMAX : x;
 112:../../../libDaisy//src/daisy_core.h ****     return (int32_t)(x * F2S8_SCALE);
ARM GAS  /var/folders/wz/z09yph4n0qj4t7mjxhl6ttn80000gn/T//cctms0BV.s 			page 16


 113:../../../libDaisy//src/daisy_core.h **** }
 114:../../../libDaisy//src/daisy_core.h **** 
 115:../../../libDaisy//src/daisy_core.h **** /** 
 116:../../../libDaisy//src/daisy_core.h ****     Converts Signed 16-bit to float
 117:../../../libDaisy//src/daisy_core.h ****     \param x Number to be scaled.
 118:../../../libDaisy//src/daisy_core.h ****     \return Scaled number.
 119:../../../libDaisy//src/daisy_core.h **** */
 120:../../../libDaisy//src/daisy_core.h **** FORCE_INLINE float s162f(int16_t x)
 121:../../../libDaisy//src/daisy_core.h **** {
 122:../../../libDaisy//src/daisy_core.h ****     return (float)x * S162F_SCALE;
 123:../../../libDaisy//src/daisy_core.h **** }
 124:../../../libDaisy//src/daisy_core.h **** 
 125:../../../libDaisy//src/daisy_core.h **** /**
 126:../../../libDaisy//src/daisy_core.h ****     Converts float to Signed 16-bit
 127:../../../libDaisy//src/daisy_core.h **** */
 128:../../../libDaisy//src/daisy_core.h **** FORCE_INLINE int16_t f2s16(float x)
 129:../../../libDaisy//src/daisy_core.h **** {
 130:../../../libDaisy//src/daisy_core.h ****     x = x <= FBIPMIN ? FBIPMIN : x;
 131:../../../libDaisy//src/daisy_core.h ****     x = x >= FBIPMAX ? FBIPMAX : x;
 132:../../../libDaisy//src/daisy_core.h ****     return (int32_t)(x * F2S16_SCALE);
 133:../../../libDaisy//src/daisy_core.h **** }
 134:../../../libDaisy//src/daisy_core.h **** 
 135:../../../libDaisy//src/daisy_core.h **** /**
 136:../../../libDaisy//src/daisy_core.h ****     Converts Signed 24-bit to float
 137:../../../libDaisy//src/daisy_core.h ****  */
 138:../../../libDaisy//src/daisy_core.h **** FORCE_INLINE float s242f(int32_t x)
 139:../../../libDaisy//src/daisy_core.h **** {
 140:../../../libDaisy//src/daisy_core.h ****     x = (x ^ S24SIGN) - S24SIGN; //sign extend aka ((x<<8)>>8)
 141:../../../libDaisy//src/daisy_core.h ****     return (float)x * S242F_SCALE;
 142:../../../libDaisy//src/daisy_core.h **** }
 143:../../../libDaisy//src/daisy_core.h **** /**
 144:../../../libDaisy//src/daisy_core.h ****     Converts float to Signed 24-bit
 145:../../../libDaisy//src/daisy_core.h ****  */
 146:../../../libDaisy//src/daisy_core.h **** FORCE_INLINE int32_t f2s24(float x)
 147:../../../libDaisy//src/daisy_core.h **** {
 148:../../../libDaisy//src/daisy_core.h ****     x = x <= FBIPMIN ? FBIPMIN : x;
 149:../../../libDaisy//src/daisy_core.h ****     x = x >= FBIPMAX ? FBIPMAX : x;
 150:../../../libDaisy//src/daisy_core.h ****     return (int32_t)(x * F2S24_SCALE);
 151:../../../libDaisy//src/daisy_core.h **** }
 152:../../../libDaisy//src/daisy_core.h **** 
 153:../../../libDaisy//src/daisy_core.h **** /**
 154:../../../libDaisy//src/daisy_core.h ****     Converts Signed 32-bit to float
 155:../../../libDaisy//src/daisy_core.h ****  */
 156:../../../libDaisy//src/daisy_core.h **** FORCE_INLINE float s322f(int32_t x)
 157:../../../libDaisy//src/daisy_core.h **** {
 158:../../../libDaisy//src/daisy_core.h ****     return (float)x * S322F_SCALE;
 159:../../../libDaisy//src/daisy_core.h **** }
 160:../../../libDaisy//src/daisy_core.h **** /**
 161:../../../libDaisy//src/daisy_core.h ****     Converts float to Signed 24-bit
 162:../../../libDaisy//src/daisy_core.h ****  */
 163:../../../libDaisy//src/daisy_core.h **** FORCE_INLINE int32_t f2s32(float x)
 164:../../../libDaisy//src/daisy_core.h **** {
 165:../../../libDaisy//src/daisy_core.h ****     x = x <= FBIPMIN ? FBIPMIN : x;
 166:../../../libDaisy//src/daisy_core.h ****     x = x >= FBIPMAX ? FBIPMAX : x;
 167:../../../libDaisy//src/daisy_core.h ****     return (int32_t)(x * F2S32_SCALE);
 168:../../../libDaisy//src/daisy_core.h **** }
 169:../../../libDaisy//src/daisy_core.h **** 
ARM GAS  /var/folders/wz/z09yph4n0qj4t7mjxhl6ttn80000gn/T//cctms0BV.s 			page 17


 170:../../../libDaisy//src/daisy_core.h **** 
 171:../../../libDaisy//src/daisy_core.h **** /** Enums and a simple struct for defining a hardware pin on the MCU
 172:../../../libDaisy//src/daisy_core.h ****  *  These correlate with the stm32 datasheet, and are used to configure
 173:../../../libDaisy//src/daisy_core.h ****  *  the hardware.
 174:../../../libDaisy//src/daisy_core.h ****  * 
 175:../../../libDaisy//src/daisy_core.h ****  *  This along with the dsy_gpio_pin class should no longer be used.
 176:../../../libDaisy//src/daisy_core.h ****  *  They are available for backwards compatability. 
 177:../../../libDaisy//src/daisy_core.h ****  * 
 178:../../../libDaisy//src/daisy_core.h ****  *  Please use GPIOPort enum and the Pin struct instead.
 179:../../../libDaisy//src/daisy_core.h ****  */
 180:../../../libDaisy//src/daisy_core.h **** typedef enum
 181:../../../libDaisy//src/daisy_core.h **** {
 182:../../../libDaisy//src/daisy_core.h ****     DSY_GPIOA, /**< & */
 183:../../../libDaisy//src/daisy_core.h ****     DSY_GPIOB, /**< & */
 184:../../../libDaisy//src/daisy_core.h ****     DSY_GPIOC, /**< & */
 185:../../../libDaisy//src/daisy_core.h ****     DSY_GPIOD, /**< & */
 186:../../../libDaisy//src/daisy_core.h ****     DSY_GPIOE, /**< & */
 187:../../../libDaisy//src/daisy_core.h ****     DSY_GPIOF, /**< & */
 188:../../../libDaisy//src/daisy_core.h ****     DSY_GPIOG, /**< & */
 189:../../../libDaisy//src/daisy_core.h ****     DSY_GPIOH, /**< & */
 190:../../../libDaisy//src/daisy_core.h ****     DSY_GPIOI, /**< & */
 191:../../../libDaisy//src/daisy_core.h ****     DSY_GPIOJ, /**< & */
 192:../../../libDaisy//src/daisy_core.h ****     DSY_GPIOK, /**< & */
 193:../../../libDaisy//src/daisy_core.h ****     DSY_GPIOX, /** This is a non-existant port for unsupported bits of hardware. */
 194:../../../libDaisy//src/daisy_core.h ****     DSY_GPIO_LAST, /** Final enum member */
 195:../../../libDaisy//src/daisy_core.h **** } dsy_gpio_port;
 196:../../../libDaisy//src/daisy_core.h **** 
 197:../../../libDaisy//src/daisy_core.h **** /** Hardware define pins 
 198:../../../libDaisy//src/daisy_core.h ****  *  
 199:../../../libDaisy//src/daisy_core.h ****  *  The dsy_gpio_pin struct should no longer be used, and is only available for
 200:../../../libDaisy//src/daisy_core.h ****  *  backwards compatability.
 201:../../../libDaisy//src/daisy_core.h ****  * 
 202:../../../libDaisy//src/daisy_core.h ****  *  Please use Pin struct instead.
 203:../../../libDaisy//src/daisy_core.h ****  */
 204:../../../libDaisy//src/daisy_core.h **** typedef struct
 205:../../../libDaisy//src/daisy_core.h **** {
 206:../../../libDaisy//src/daisy_core.h ****     dsy_gpio_port port; /**< & */
 207:../../../libDaisy//src/daisy_core.h ****     uint8_t       pin;  /**< number 0-15 */
 208:../../../libDaisy//src/daisy_core.h **** } dsy_gpio_pin;
 209:../../../libDaisy//src/daisy_core.h **** 
 210:../../../libDaisy//src/daisy_core.h **** /** Helper for creating pins from port/pin combos easily
 211:../../../libDaisy//src/daisy_core.h ****  * 
 212:../../../libDaisy//src/daisy_core.h ****  *  The dsy_gpio_pin struct should no longer be used, and is only available for
 213:../../../libDaisy//src/daisy_core.h ****  *  backwards compatability.
 214:../../../libDaisy//src/daisy_core.h ****  * 
 215:../../../libDaisy//src/daisy_core.h ****  *  Please use Pin struct instead.
 216:../../../libDaisy//src/daisy_core.h **** */
 217:../../../libDaisy//src/daisy_core.h **** FORCE_INLINE dsy_gpio_pin dsy_pin(dsy_gpio_port port, uint8_t pin)
 218:../../../libDaisy//src/daisy_core.h **** {
 219:../../../libDaisy//src/daisy_core.h ****     dsy_gpio_pin p;
 220:../../../libDaisy//src/daisy_core.h ****     p.port = port;
 221:../../../libDaisy//src/daisy_core.h ****     p.pin  = pin;
 222:../../../libDaisy//src/daisy_core.h ****     return p;
 223:../../../libDaisy//src/daisy_core.h **** }
 224:../../../libDaisy//src/daisy_core.h **** 
 225:../../../libDaisy//src/daisy_core.h **** /** Helper for testing sameness of two dsy_gpio_pins
 226:../../../libDaisy//src/daisy_core.h ****  *  \return    1 if same, 0 if different
ARM GAS  /var/folders/wz/z09yph4n0qj4t7mjxhl6ttn80000gn/T//cctms0BV.s 			page 18


 227:../../../libDaisy//src/daisy_core.h ****  * 
 228:../../../libDaisy//src/daisy_core.h ****  *  The dsy_gpio_pin struct should no longer be used, and is only available for
 229:../../../libDaisy//src/daisy_core.h ****  *  backwards compatability.
 230:../../../libDaisy//src/daisy_core.h ****  * 
 231:../../../libDaisy//src/daisy_core.h ****  *  Please use Pin struct instead.
 232:../../../libDaisy//src/daisy_core.h ****  */
 233:../../../libDaisy//src/daisy_core.h **** FORCE_INLINE uint8_t dsy_pin_cmp(dsy_gpio_pin *a, dsy_gpio_pin *b)
 234:../../../libDaisy//src/daisy_core.h **** {
 235:../../../libDaisy//src/daisy_core.h ****     return ((a->port == b->port) && (a->pin == b->pin));
 236:../../../libDaisy//src/daisy_core.h **** }
 237:../../../libDaisy//src/daisy_core.h **** 
 238:../../../libDaisy//src/daisy_core.h **** #ifdef __cplusplus
 239:../../../libDaisy//src/daisy_core.h **** 
 240:../../../libDaisy//src/daisy_core.h **** namespace daisy
 241:../../../libDaisy//src/daisy_core.h **** {
 242:../../../libDaisy//src/daisy_core.h **** /** @brief GPIO Port names */
 243:../../../libDaisy//src/daisy_core.h **** enum GPIOPort
 244:../../../libDaisy//src/daisy_core.h **** {
 245:../../../libDaisy//src/daisy_core.h ****     PORTA, /**< Port A */
 246:../../../libDaisy//src/daisy_core.h ****     PORTB, /**< Port B */
 247:../../../libDaisy//src/daisy_core.h ****     PORTC, /**< Port C */
 248:../../../libDaisy//src/daisy_core.h ****     PORTD, /**< Port D */
 249:../../../libDaisy//src/daisy_core.h ****     PORTE, /**< Port E */
 250:../../../libDaisy//src/daisy_core.h ****     PORTF, /**< Port F */
 251:../../../libDaisy//src/daisy_core.h ****     PORTG, /**< Port G */
 252:../../../libDaisy//src/daisy_core.h ****     PORTH, /**< Port H */
 253:../../../libDaisy//src/daisy_core.h ****     PORTI, /**< Port I */
 254:../../../libDaisy//src/daisy_core.h ****     PORTJ, /**< Port J */
 255:../../../libDaisy//src/daisy_core.h ****     PORTK, /**< Port K */
 256:../../../libDaisy//src/daisy_core.h ****     PORTX, /**< Used as a dummy port to signal an invalid pin. */
 257:../../../libDaisy//src/daisy_core.h **** };
 258:../../../libDaisy//src/daisy_core.h **** 
 259:../../../libDaisy//src/daisy_core.h **** /** @brief representation of hardware port/pin combination */
 260:../../../libDaisy//src/daisy_core.h **** struct Pin
 261:../../../libDaisy//src/daisy_core.h **** {
 262:../../../libDaisy//src/daisy_core.h ****     GPIOPort port;
 263:../../../libDaisy//src/daisy_core.h ****     uint8_t  pin;
 264:../../../libDaisy//src/daisy_core.h **** 
 265:../../../libDaisy//src/daisy_core.h ****     /** @brief Constructor creates a valid pin. 
 266:../../../libDaisy//src/daisy_core.h ****      *  @param pt GPIOPort between PA, and PK corresponding to STM32 Port.
 267:../../../libDaisy//src/daisy_core.h ****      *  @param pn pin number in range of 0-15
 268:../../../libDaisy//src/daisy_core.h ****     */
 269:../../../libDaisy//src/daisy_core.h ****     constexpr Pin(const GPIOPort pt, const uint8_t pn) : port(pt), pin(pn) {}
 270:../../../libDaisy//src/daisy_core.h **** 
 271:../../../libDaisy//src/daisy_core.h ****     /** @brief Basic Constructor creates an invalid Pin object */
 272:../../../libDaisy//src/daisy_core.h ****     constexpr Pin() : port(PORTX), pin(255) {}
 273:../../../libDaisy//src/daisy_core.h **** 
 274:../../../libDaisy//src/daisy_core.h ****     /** @brief checks validity of a Pin 
 275:../../../libDaisy//src/daisy_core.h ****      *  @retval returns true if the port is a valid hardware pin, otherwise false.
 276:../../../libDaisy//src/daisy_core.h ****     */
 277:../../../libDaisy//src/daisy_core.h ****     constexpr bool IsValid() const { return port != PORTX && pin < 16; }
 278:../../../libDaisy//src/daisy_core.h **** 
 279:../../../libDaisy//src/daisy_core.h ****     /** @brief comparison operator for checking equality between Pin objects */
 280:../../../libDaisy//src/daisy_core.h ****     constexpr bool operator==(const Pin &rhs) const
 281:../../../libDaisy//src/daisy_core.h ****     {
 282:../../../libDaisy//src/daisy_core.h ****         return (rhs.port == port) && (rhs.pin == pin);
 283:../../../libDaisy//src/daisy_core.h ****     }
ARM GAS  /var/folders/wz/z09yph4n0qj4t7mjxhl6ttn80000gn/T//cctms0BV.s 			page 19


 284:../../../libDaisy//src/daisy_core.h **** 
 285:../../../libDaisy//src/daisy_core.h ****     /** @brief comparison operator for checking inequality between Pin objects */
 286:../../../libDaisy//src/daisy_core.h ****     constexpr bool operator!=(const Pin &rhs) const { return !operator==(rhs); }
 287:../../../libDaisy//src/daisy_core.h **** 
 288:../../../libDaisy//src/daisy_core.h ****     /** @brief conversion operation for converting to the old-style representation
 289:../../../libDaisy//src/daisy_core.h ****      *         of a pin.
 290:../../../libDaisy//src/daisy_core.h ****      * 
 291:../../../libDaisy//src/daisy_core.h ****      *  This allows the new Pin type to be used in place of the older, dsy_gpio_pin
 292:../../../libDaisy//src/daisy_core.h ****      *  type.
 293:../../../libDaisy//src/daisy_core.h ****      */
 294:../../../libDaisy//src/daisy_core.h ****     operator dsy_gpio_pin() const
 230              		.loc 9 294 5 view .LVU40
 231              	.LBE187:
 295:../../../libDaisy//src/daisy_core.h ****     {
 296:../../../libDaisy//src/daisy_core.h ****         return dsy_pin(static_cast<dsy_gpio_port>(port), pin);
 232              		.loc 9 296 9 view .LVU41
 233              	.LBB189:
 234              	.LBB188:
 235              	.LBI188:
 217:../../../libDaisy//src/daisy_core.h **** {
 236              		.loc 9 217 27 view .LVU42
 237              	.LBE188:
 238              	.LBE189:
 219:../../../libDaisy//src/daisy_core.h ****     p.port = port;
 239              		.loc 9 219 5 view .LVU43
 220:../../../libDaisy//src/daisy_core.h ****     p.pin  = pin;
 240              		.loc 9 220 5 view .LVU44
 221:../../../libDaisy//src/daisy_core.h ****     return p;
 241              		.loc 9 221 5 view .LVU45
 222:../../../libDaisy//src/daisy_core.h **** }
 242              		.loc 9 222 5 view .LVU46
 222:../../../libDaisy//src/daisy_core.h **** }
 243              		.loc 9 222 5 is_stmt 0 view .LVU47
 244 0022 0122     		movs	r2, #1
 245 0024 0C23     		movs	r3, #12
  69:LoopyTunes.cpp **** 	play.Init(daisy::seed::D1, 30);
 246              		.loc 8 69 13 view .LVU48
 247 0026 B3EE0E0A 		vmov.f32	s0, #3.0e+1
 248 002a 8DF81020 		strb	r2, [sp, #16]
 249 002e 8DF81130 		strb	r3, [sp, #17]
 250              	.LVL12:
  69:LoopyTunes.cpp **** 	play.Init(daisy::seed::D1, 30);
 251              		.loc 8 69 13 view .LVU49
 252 0032 0499     		ldr	r1, [sp, #16]
 253 0034 1248     		ldr	r0, .L11+12
 254 0036 FFF7FEFF 		bl	_ZN5daisy6Switch4InitE12dsy_gpio_pinf
 255              	.LVL13:
  70:LoopyTunes.cpp **** 
 256              		.loc 8 70 2 is_stmt 1 view .LVU50
 257              	.LBB190:
 258              	.LBI190:
 294:../../../libDaisy//src/daisy_core.h ****     {
 259              		.loc 9 294 5 view .LVU51
 260              	.LBE190:
 261              		.loc 9 296 9 view .LVU52
 262              	.LBB192:
 263              	.LBB191:
ARM GAS  /var/folders/wz/z09yph4n0qj4t7mjxhl6ttn80000gn/T//cctms0BV.s 			page 20


 264              	.LBI191:
 217:../../../libDaisy//src/daisy_core.h **** {
 265              		.loc 9 217 27 view .LVU53
 266              	.LBE191:
 267              	.LBE192:
 219:../../../libDaisy//src/daisy_core.h ****     p.port = port;
 268              		.loc 9 219 5 view .LVU54
 220:../../../libDaisy//src/daisy_core.h ****     p.pin  = pin;
 269              		.loc 9 220 5 view .LVU55
 221:../../../libDaisy//src/daisy_core.h ****     return p;
 270              		.loc 9 221 5 view .LVU56
 222:../../../libDaisy//src/daisy_core.h **** }
 271              		.loc 9 222 5 view .LVU57
 222:../../../libDaisy//src/daisy_core.h **** }
 272              		.loc 9 222 5 is_stmt 0 view .LVU58
 273 003a 0222     		movs	r2, #2
 274 003c 0B23     		movs	r3, #11
  70:LoopyTunes.cpp **** 
 275              		.loc 8 70 11 view .LVU59
 276 003e B3EE0E0A 		vmov.f32	s0, #3.0e+1
 277 0042 8DF81420 		strb	r2, [sp, #20]
 278 0046 8DF81530 		strb	r3, [sp, #21]
 279              	.LVL14:
  70:LoopyTunes.cpp **** 
 280              		.loc 8 70 11 view .LVU60
 281 004a 0599     		ldr	r1, [sp, #20]
 282 004c 0D48     		ldr	r0, .L11+16
 283 004e FFF7FEFF 		bl	_ZN5daisy6Switch4InitE12dsy_gpio_pinf
 284              	.LVL15:
  72:LoopyTunes.cpp **** 	isPlay = false;
 285              		.loc 8 72 2 is_stmt 1 view .LVU61
  72:LoopyTunes.cpp **** 	isPlay = false;
 286              		.loc 8 72 11 is_stmt 0 view .LVU62
 287 0052 0020     		movs	r0, #0
  76:LoopyTunes.cpp **** }
 288              		.loc 8 76 12 view .LVU63
 289 0054 2146     		mov	r1, r4
 290 0056 0C4B     		ldr	r3, .L11+20
 291 0058 0C4A     		ldr	r2, .L11+24
  73:LoopyTunes.cpp **** 
 292              		.loc 8 73 9 view .LVU64
 293 005a 0D4C     		ldr	r4, .L11+28
  76:LoopyTunes.cpp **** }
 294              		.loc 8 76 12 view .LVU65
 295 005c 0293     		str	r3, [sp, #8]
  72:LoopyTunes.cpp **** 	isPlay = false;
 296              		.loc 8 72 11 view .LVU66
 297 005e 2870     		strb	r0, [r5]
  73:LoopyTunes.cpp **** 
 298              		.loc 8 73 2 is_stmt 1 view .LVU67
  76:LoopyTunes.cpp **** }
 299              		.loc 8 76 12 is_stmt 0 view .LVU68
 300 0060 0C4B     		ldr	r3, .L11+32
 301 0062 CDE90026 		strd	r2, r6, [sp]
  73:LoopyTunes.cpp **** 
 302              		.loc 8 73 9 view .LVU69
 303 0066 2070     		strb	r0, [r4]
ARM GAS  /var/folders/wz/z09yph4n0qj4t7mjxhl6ttn80000gn/T//cctms0BV.s 			page 21


  76:LoopyTunes.cpp **** }
 304              		.loc 8 76 2 is_stmt 1 view .LVU70
  76:LoopyTunes.cpp **** }
 305              		.loc 8 76 12 is_stmt 0 view .LVU71
 306 0068 0B4A     		ldr	r2, .L11+36
 307 006a 0C48     		ldr	r0, .L11+40
 308 006c FFF7FEFF 		bl	_ZN5Mixer4initEPN5daisy9DaisySeedEPPfS4_S4_S4_S4_
 309              	.LVL16:
  77:LoopyTunes.cpp **** 
 310              		.loc 8 77 1 view .LVU72
 311 0070 06B0     		add	sp, sp, #24
 312              		.cfi_def_cfa_offset 16
 313              		@ sp needed
 314 0072 70BD     		pop	{r4, r5, r6, pc}
 315              	.L12:
 316              		.align	2
 317              	.L11:
 318 0074 00000000 		.word	.LANCHOR1
 319 0078 00000000 		.word	.LANCHOR9
 320 007c 00000000 		.word	.LANCHOR4
 321 0080 00000000 		.word	.LANCHOR2
 322 0084 00000000 		.word	.LANCHOR3
 323 0088 00000000 		.word	.LANCHOR8
 324 008c 00000000 		.word	.LANCHOR10
 325 0090 00000000 		.word	.LANCHOR5
 326 0094 00000000 		.word	.LANCHOR6
 327 0098 00000000 		.word	.LANCHOR7
 328 009c 00000000 		.word	.LANCHOR0
 329              		.cfi_endproc
 330              	.LFE4812:
 332              		.section	.text._Z7initADCv,"ax",%progbits
 333              		.align	1
 334              		.p2align 2,,3
 335              		.global	_Z7initADCv
 336              		.syntax unified
 337              		.thumb
 338              		.thumb_func
 340              	_Z7initADCv:
 341              	.LFB4813:
  80:LoopyTunes.cpp **** 	amp1.InitSingle(daisy::seed::A0);
 342              		.loc 8 80 1 is_stmt 1 view -0
 343              		.cfi_startproc
 344              		@ args = 0, pretend = 0, frame = 8
 345              		@ frame_needed = 0, uses_anonymous_args = 0
  81:LoopyTunes.cpp **** 	hw.adc.Init(&amp1, 1);
 346              		.loc 8 81 2 view .LVU74
 347              	.LVL17:
 348              	.LBB193:
 349              	.LBI193:
 294:../../../libDaisy//src/daisy_core.h ****     {
 350              		.loc 9 294 5 view .LVU75
 351              	.LBE193:
 352              		.loc 9 296 9 view .LVU76
 353              	.LBB195:
 354              	.LBB194:
 355              	.LBI194:
 217:../../../libDaisy//src/daisy_core.h **** {
ARM GAS  /var/folders/wz/z09yph4n0qj4t7mjxhl6ttn80000gn/T//cctms0BV.s 			page 22


 356              		.loc 9 217 27 view .LVU77
 357              	.LBE194:
 358              	.LBE195:
 219:../../../libDaisy//src/daisy_core.h ****     p.port = port;
 359              		.loc 9 219 5 view .LVU78
 220:../../../libDaisy//src/daisy_core.h ****     p.pin  = pin;
 360              		.loc 9 220 5 view .LVU79
 221:../../../libDaisy//src/daisy_core.h ****     return p;
 361              		.loc 9 221 5 view .LVU80
 222:../../../libDaisy//src/daisy_core.h **** }
 362              		.loc 9 222 5 view .LVU81
  80:LoopyTunes.cpp **** 	amp1.InitSingle(daisy::seed::A0);
 363              		.loc 8 80 1 is_stmt 0 view .LVU82
 364 0000 30B5     		push	{r4, r5, lr}
 365              		.cfi_def_cfa_offset 12
 366              		.cfi_offset 4, -12
 367              		.cfi_offset 5, -8
 368              		.cfi_offset 14, -4
 369 0002 0222     		movs	r2, #2
 370 0004 83B0     		sub	sp, sp, #12
 371              		.cfi_def_cfa_offset 24
 372 0006 0023     		movs	r3, #0
  81:LoopyTunes.cpp **** 	hw.adc.Init(&amp1, 1);
 373              		.loc 8 81 17 view .LVU83
 374 0008 0A4D     		ldr	r5, .L15
 375 000a 8DF80420 		strb	r2, [sp, #4]
 376 000e 8DF80530 		strb	r3, [sp, #5]
 377              	.LVL18:
  81:LoopyTunes.cpp **** 	hw.adc.Init(&amp1, 1);
 378              		.loc 8 81 17 view .LVU84
 379 0012 2846     		mov	r0, r5
  82:LoopyTunes.cpp **** 	hw.adc.Start();
 380              		.loc 8 82 13 view .LVU85
 381 0014 084C     		ldr	r4, .L15+4
  81:LoopyTunes.cpp **** 	hw.adc.Init(&amp1, 1);
 382              		.loc 8 81 17 view .LVU86
 383 0016 0199     		ldr	r1, [sp, #4]
 384 0018 FFF7FEFF 		bl	_ZN5daisy16AdcChannelConfig10InitSingleE12dsy_gpio_pin
 385              	.LVL19:
  82:LoopyTunes.cpp **** 	hw.adc.Start();
 386              		.loc 8 82 2 is_stmt 1 view .LVU87
  82:LoopyTunes.cpp **** 	hw.adc.Start();
 387              		.loc 8 82 13 is_stmt 0 view .LVU88
 388 001c 2046     		mov	r0, r4
 389 001e 0423     		movs	r3, #4
 390 0020 0122     		movs	r2, #1
 391 0022 2946     		mov	r1, r5
 392 0024 FFF7FEFF 		bl	_ZN5daisy9AdcHandle4InitEPNS_16AdcChannelConfigEjNS0_12OverSamplingE
 393              	.LVL20:
  83:LoopyTunes.cpp **** }
 394              		.loc 8 83 2 is_stmt 1 view .LVU89
  83:LoopyTunes.cpp **** }
 395              		.loc 8 83 14 is_stmt 0 view .LVU90
 396 0028 2046     		mov	r0, r4
  84:LoopyTunes.cpp **** 
 397              		.loc 8 84 1 view .LVU91
 398 002a 03B0     		add	sp, sp, #12
ARM GAS  /var/folders/wz/z09yph4n0qj4t7mjxhl6ttn80000gn/T//cctms0BV.s 			page 23


 399              		.cfi_def_cfa_offset 12
 400              		@ sp needed
 401 002c BDE83040 		pop	{r4, r5, lr}
 402              		.cfi_restore 14
 403              		.cfi_restore 5
 404              		.cfi_restore 4
 405              		.cfi_def_cfa_offset 0
  83:LoopyTunes.cpp **** }
 406              		.loc 8 83 14 view .LVU92
 407 0030 FFF7FEBF 		b	_ZN5daisy9AdcHandle5StartEv
 408              	.LVL21:
 409              	.L16:
 410              		.align	2
 411              	.L15:
 412 0034 00000000 		.word	.LANCHOR11
 413 0038 18000000 		.word	.LANCHOR1+24
 414              		.cfi_endproc
 415              	.LFE4813:
 417              		.section	.text._Z10pollInputsv,"ax",%progbits
 418              		.align	1
 419              		.p2align 2,,3
 420              		.global	_Z10pollInputsv
 421              		.syntax unified
 422              		.thumb
 423              		.thumb_func
 425              	_Z10pollInputsv:
 426              	.LFB4814:
  87:LoopyTunes.cpp **** 	isRecord = record.Pressed();
 427              		.loc 8 87 1 is_stmt 1 view -0
 428              		.cfi_startproc
 429              		@ args = 0, pretend = 0, frame = 0
 430              		@ frame_needed = 0, uses_anonymous_args = 0
  88:LoopyTunes.cpp **** 	isPlay = play.Pressed();
 431              		.loc 8 88 2 view .LVU94
 432              	.LVL22:
 433              	.LBB196:
 434              	.LBI196:
  43:../../../libDaisy//src/hid/switch.h **** 
  44:../../../libDaisy//src/hid/switch.h ****     /** 
  45:../../../libDaisy//src/hid/switch.h ****     Initializes the switch object with a given port/pin combo.
  46:../../../libDaisy//src/hid/switch.h ****     \param pin port/pin object to tell the switch which hardware pin to use.
  47:../../../libDaisy//src/hid/switch.h ****     \param update_rate Does nothing. Backwards compatibility until next breaking update.
  48:../../../libDaisy//src/hid/switch.h ****     \param t switch type -- Default: TYPE_MOMENTARY
  49:../../../libDaisy//src/hid/switch.h ****     \param pol switch polarity -- Default: POLARITY_INVERTED
  50:../../../libDaisy//src/hid/switch.h ****     \param pu switch pull up/down -- Default: PULL_UP
  51:../../../libDaisy//src/hid/switch.h ****     */
  52:../../../libDaisy//src/hid/switch.h ****     void
  53:../../../libDaisy//src/hid/switch.h ****     Init(dsy_gpio_pin pin, float update_rate, Type t, Polarity pol, Pull pu);
  54:../../../libDaisy//src/hid/switch.h **** 
  55:../../../libDaisy//src/hid/switch.h ****     /**
  56:../../../libDaisy//src/hid/switch.h ****        Simplified Init.
  57:../../../libDaisy//src/hid/switch.h ****        \param pin port/pin object to tell the switch which hardware pin to use.
  58:../../../libDaisy//src/hid/switch.h ****        \param update_rate Left for backwards compatibility until next breaking change.
  59:../../../libDaisy//src/hid/switch.h ****     */
  60:../../../libDaisy//src/hid/switch.h ****     void Init(dsy_gpio_pin pin, float update_rate = 0.f);
  61:../../../libDaisy//src/hid/switch.h **** 
  62:../../../libDaisy//src/hid/switch.h ****     /** 
ARM GAS  /var/folders/wz/z09yph4n0qj4t7mjxhl6ttn80000gn/T//cctms0BV.s 			page 24


  63:../../../libDaisy//src/hid/switch.h ****     Called at update_rate to debounce and handle timing for the switch.
  64:../../../libDaisy//src/hid/switch.h ****     In order for events not to be missed, its important that the Edge/Pressed checks
  65:../../../libDaisy//src/hid/switch.h ****     be made at the same rate as the debounce function is being called.
  66:../../../libDaisy//src/hid/switch.h ****     */
  67:../../../libDaisy//src/hid/switch.h ****     void Debounce();
  68:../../../libDaisy//src/hid/switch.h **** 
  69:../../../libDaisy//src/hid/switch.h ****     /** \return true if a button was just pressed. */
  70:../../../libDaisy//src/hid/switch.h ****     inline bool RisingEdge() const { return updated_ ? state_ == 0x7f : false; }
  71:../../../libDaisy//src/hid/switch.h **** 
  72:../../../libDaisy//src/hid/switch.h ****     /** \return true if the button was just released */
  73:../../../libDaisy//src/hid/switch.h ****     inline bool FallingEdge() const
  74:../../../libDaisy//src/hid/switch.h ****     {
  75:../../../libDaisy//src/hid/switch.h ****         return updated_ ? state_ == 0x80 : false;
  76:../../../libDaisy//src/hid/switch.h ****     }
  77:../../../libDaisy//src/hid/switch.h **** 
  78:../../../libDaisy//src/hid/switch.h ****     /** \return true if the button is held down (or if the toggle is on) */
  79:../../../libDaisy//src/hid/switch.h ****     inline bool Pressed() const { return state_ == 0xff; }
 435              		.loc 1 79 17 view .LVU95
 436              	.LBB197:
 437              		.loc 1 79 35 view .LVU96
 438              		.loc 1 79 42 is_stmt 0 view .LVU97
 439 0000 184A     		ldr	r2, .L26
 440              	.LBE197:
 441              	.LBE196:
 442              	.LBB203:
 443              	.LBB204:
 444 0002 194B     		ldr	r3, .L26+4
 445              	.LBE204:
 446              	.LBE203:
  88:LoopyTunes.cpp **** 	isPlay = play.Pressed();
 447              		.loc 8 88 11 view .LVU98
 448 0004 1949     		ldr	r1, .L26+8
  87:LoopyTunes.cpp **** 	isRecord = record.Pressed();
 449              		.loc 8 87 1 view .LVU99
 450 0006 10B5     		push	{r4, lr}
 451              		.cfi_def_cfa_offset 8
 452              		.cfi_offset 4, -8
 453              		.cfi_offset 14, -4
 454              	.LBB210:
 455              	.LBB198:
 456              		.loc 1 79 42 view .LVU100
 457 0008 927A     		ldrb	r2, [r2, #10]	@ zero_extendqisi2
 458              	.LVL23:
 459              		.loc 1 79 42 view .LVU101
 460              	.LBE198:
 461              	.LBE210:
 462              	.LBB211:
 463              	.LBB205:
 464              		.loc 1 79 52 view .LVU102
 465 000a 9B7A     		ldrb	r3, [r3, #10]	@ zero_extendqisi2
 466              	.LBE205:
 467              	.LBE211:
 468              	.LBB212:
 469              	.LBB199:
 470 000c A2F1FF00 		sub	r0, r2, #255
 471              	.LBE199:
 472              	.LBE212:
ARM GAS  /var/folders/wz/z09yph4n0qj4t7mjxhl6ttn80000gn/T//cctms0BV.s 			page 25


  89:LoopyTunes.cpp **** 
 473              		.loc 8 89 9 view .LVU103
 474 0010 174C     		ldr	r4, .L26+12
 475              	.LBB213:
 476              	.LBB206:
 477              		.loc 1 79 52 view .LVU104
 478 0012 A3F1FF03 		sub	r3, #255
 479              	.LBE206:
 480              	.LBE213:
  91:LoopyTunes.cpp **** 	{  
 481              		.loc 8 91 2 view .LVU105
 482 0016 FF2A     		cmp	r2, #255
 483              	.LBB214:
 484              	.LBB200:
 485              		.loc 1 79 52 view .LVU106
 486 0018 B0FA80F0 		clz	r0, r0
 487              	.LBE200:
 488              	.LBE214:
 489              	.LBB215:
 490              	.LBB207:
 491 001c B3FA83F3 		clz	r3, r3
 492              	.LBE207:
 493              	.LBE215:
 494              	.LBB216:
 495              	.LBB201:
 496 0020 4FEA5010 		lsr	r0, r0, #5
 497              	.LBE201:
 498              	.LBE216:
 499              	.LBB217:
 500              	.LBB208:
 501 0024 4FEA5313 		lsr	r3, r3, #5
 502              	.LBE208:
 503              	.LBE217:
 504              	.LBB218:
 505              	.LBB202:
 506 0028 0870     		strb	r0, [r1]
 507              	.LBE202:
 508              	.LBE218:
  89:LoopyTunes.cpp **** 
 509              		.loc 8 89 2 is_stmt 1 view .LVU107
 510              	.LVL24:
 511              	.LBB219:
 512              	.LBI203:
 513              		.loc 1 79 17 view .LVU108
 514              	.LBB209:
 515              		.loc 1 79 35 view .LVU109
 516              		.loc 1 79 52 is_stmt 0 view .LVU110
 517 002a 2370     		strb	r3, [r4]
 518              	.LBE209:
 519              	.LBE219:
  91:LoopyTunes.cpp **** 	{  
 520              		.loc 8 91 2 is_stmt 1 view .LVU111
 521 002c 09D0     		beq	.L24
  95:LoopyTunes.cpp **** 
 522              		.loc 8 95 2 view .LVU112
  95:LoopyTunes.cpp **** 
 523              		.loc 8 95 17 is_stmt 0 view .LVU113
ARM GAS  /var/folders/wz/z09yph4n0qj4t7mjxhl6ttn80000gn/T//cctms0BV.s 			page 26


 524 002e 0D48     		ldr	r0, .L26
 525 0030 FFF7FEFF 		bl	_ZN5daisy6Switch8DebounceEv
 526              	.LVL25:
  97:LoopyTunes.cpp **** 	{ 
 527              		.loc 8 97 2 is_stmt 1 view .LVU114
 528 0034 2378     		ldrb	r3, [r4]	@ zero_extendqisi2
 529 0036 6BB9     		cbnz	r3, .L25
 530              	.L19:
 101:LoopyTunes.cpp **** }
 531              		.loc 8 101 2 view .LVU115
 101:LoopyTunes.cpp **** }
 532              		.loc 8 101 15 is_stmt 0 view .LVU116
 533 0038 0B48     		ldr	r0, .L26+4
 102:LoopyTunes.cpp **** 
 534              		.loc 8 102 1 view .LVU117
 535 003a BDE81040 		pop	{r4, lr}
 536              		.cfi_remember_state
 537              		.cfi_restore 14
 538              		.cfi_restore 4
 539              		.cfi_def_cfa_offset 0
 101:LoopyTunes.cpp **** }
 540              		.loc 8 101 15 view .LVU118
 541 003e FFF7FEBF 		b	_ZN5daisy6Switch8DebounceEv
 542              	.LVL26:
 543              	.L24:
 544              		.cfi_restore_state
  93:LoopyTunes.cpp **** 	}
 545              		.loc 8 93 3 is_stmt 1 view .LVU119
 546              	.LBB220:
 547              	.LBI220:
 548              		.file 10 "DSP/Mixer.h"
   1:DSP/Mixer.h   **** #ifndef MIXER_H
   2:DSP/Mixer.h   **** #define MIXER_H
   3:DSP/Mixer.h   **** 
   4:DSP/Mixer.h   **** #include "Track.h"
   5:DSP/Mixer.h   **** 
   6:DSP/Mixer.h   **** /********************************************//**
   7:DSP/Mixer.h   ****  *  Class name: Mixer
   8:DSP/Mixer.h   ****  *  Function: Mixes outputs of track classes
   9:DSP/Mixer.h   ****  ***********************************************/
  10:DSP/Mixer.h   **** 
  11:DSP/Mixer.h   **** class Mixer
  12:DSP/Mixer.h   **** {
  13:DSP/Mixer.h   **** public:
  14:DSP/Mixer.h   **** 
  15:DSP/Mixer.h   ****     void init(daisy::DaisySeed* seed, float* m[2], float* t1[2], float* t2[2], float* t3[2], float*
  16:DSP/Mixer.h   ****     void tick();
  17:DSP/Mixer.h   **** 
  18:DSP/Mixer.h   ****     void prepare();
  19:DSP/Mixer.h   ****     void processInputBlock(const float* left, const float* right, size_t size);
  20:DSP/Mixer.h   ****     void processOutputBlock(float* left, float* right, size_t size);
  21:DSP/Mixer.h   **** 
  22:DSP/Mixer.h   ****     void setIsRecording() { track1.track.setIsRecording(); }
 549              		.loc 10 22 10 view .LVU120
 550              	.LBB221:
 551              		.loc 10 22 29 view .LVU121
 552              		.loc 10 22 56 is_stmt 0 view .LVU122
ARM GAS  /var/folders/wz/z09yph4n0qj4t7mjxhl6ttn80000gn/T//cctms0BV.s 			page 27


 553 0042 0C48     		ldr	r0, .L26+16
 554 0044 FFF7FEFF 		bl	_ZN5Track14setIsRecordingEv
 555              	.LVL27:
 556              		.loc 10 22 56 view .LVU123
 557              	.LBE221:
 558              	.LBE220:
  95:LoopyTunes.cpp **** 
 559              		.loc 8 95 2 is_stmt 1 view .LVU124
  95:LoopyTunes.cpp **** 
 560              		.loc 8 95 17 is_stmt 0 view .LVU125
 561 0048 0648     		ldr	r0, .L26
 562 004a FFF7FEFF 		bl	_ZN5daisy6Switch8DebounceEv
 563              	.LVL28:
  97:LoopyTunes.cpp **** 	{ 
 564              		.loc 8 97 2 is_stmt 1 view .LVU126
 565 004e 2378     		ldrb	r3, [r4]	@ zero_extendqisi2
 566 0050 002B     		cmp	r3, #0
 567 0052 F1D0     		beq	.L19
 568              	.L25:
  99:LoopyTunes.cpp **** 	}
 569              		.loc 8 99 3 view .LVU127
 570              	.LVL29:
 571              	.LBB222:
 572              	.LBI222:
  23:DSP/Mixer.h   ****     void setIsPlaying() { track1.track.setIsPlaying(); }
 573              		.loc 10 23 10 view .LVU128
 574              	.LBB223:
 575              		.loc 10 23 27 view .LVU129
 576              		.loc 10 23 52 is_stmt 0 view .LVU130
 577 0054 0748     		ldr	r0, .L26+16
 578 0056 FFF7FEFF 		bl	_ZN5Track12setIsPlayingEv
 579              	.LVL30:
 580              		.loc 10 23 52 view .LVU131
 581              	.LBE223:
 582              	.LBE222:
 101:LoopyTunes.cpp **** }
 583              		.loc 8 101 2 is_stmt 1 view .LVU132
 101:LoopyTunes.cpp **** }
 584              		.loc 8 101 15 is_stmt 0 view .LVU133
 585 005a 0348     		ldr	r0, .L26+4
 102:LoopyTunes.cpp **** 
 586              		.loc 8 102 1 view .LVU134
 587 005c BDE81040 		pop	{r4, lr}
 588              		.cfi_restore 14
 589              		.cfi_restore 4
 590              		.cfi_def_cfa_offset 0
 101:LoopyTunes.cpp **** }
 591              		.loc 8 101 15 view .LVU135
 592 0060 FFF7FEBF 		b	_ZN5daisy6Switch8DebounceEv
 593              	.LVL31:
 594              	.L27:
 595              		.align	2
 596              	.L26:
 597 0064 00000000 		.word	.LANCHOR2
 598 0068 00000000 		.word	.LANCHOR3
 599 006c 00000000 		.word	.LANCHOR4
 600 0070 00000000 		.word	.LANCHOR5
ARM GAS  /var/folders/wz/z09yph4n0qj4t7mjxhl6ttn80000gn/T//cctms0BV.s 			page 28


 601 0074 00000000 		.word	.LANCHOR0
 602              		.cfi_endproc
 603              	.LFE4814:
 605              		.section	.text.startup.main,"ax",%progbits
 606              		.align	1
 607              		.p2align 2,,3
 608              		.global	main
 609              		.syntax unified
 610              		.thumb
 611              		.thumb_func
 613              	main:
 614              	.LFB4816:
 109:LoopyTunes.cpp **** 
 110:LoopyTunes.cpp **** int main(void)
 111:LoopyTunes.cpp **** {
 615              		.loc 8 111 1 is_stmt 1 view -0
 616              		.cfi_startproc
 617              		@ Volatile: function does not return.
 618              		@ args = 0, pretend = 0, frame = 0
 619              		@ frame_needed = 0, uses_anonymous_args = 0
 112:LoopyTunes.cpp **** 	init();
 620              		.loc 8 112 2 view .LVU137
 111:LoopyTunes.cpp **** 	init();
 621              		.loc 8 111 1 is_stmt 0 view .LVU138
 622 0000 08B5     		push	{r3, lr}
 623              		.cfi_def_cfa_offset 8
 624              		.cfi_offset 3, -8
 625              		.cfi_offset 14, -4
 626              		.loc 8 112 6 view .LVU139
 627 0002 FFF7FEFF 		bl	_Z4initv
 628              	.LVL32:
 113:LoopyTunes.cpp **** 	initADC();
 629              		.loc 8 113 2 is_stmt 1 view .LVU140
 630              		.loc 8 113 9 is_stmt 0 view .LVU141
 631 0006 FFF7FEFF 		bl	_Z7initADCv
 632              	.LVL33:
 114:LoopyTunes.cpp **** 
 115:LoopyTunes.cpp **** 	hw.StartLog();
 633              		.loc 8 115 2 is_stmt 1 view .LVU142
 634              	.LBB224:
 635              	.LBI224:
  23:../../../libDaisy//src/daisy_seed.h **** 
  24:../../../libDaisy//src/daisy_seed.h ****     /** This function used to provide a pre-initialization configuraiton 
  25:../../../libDaisy//src/daisy_seed.h ****      *  it has since been deprecated, and does nothing.
  26:../../../libDaisy//src/daisy_seed.h ****      */
  27:../../../libDaisy//src/daisy_seed.h ****     void Configure();
  28:../../../libDaisy//src/daisy_seed.h **** 
  29:../../../libDaisy//src/daisy_seed.h ****     /** 
  30:../../../libDaisy//src/daisy_seed.h ****     Initializes the Daisy Seed and the following peripherals:
  31:../../../libDaisy//src/daisy_seed.h ****     SDRAM, QSPI, 24-bit 48kHz Audio via AK4556, Internal USB,
  32:../../../libDaisy//src/daisy_seed.h ****     as well as the built-in LED and Testpoint.
  33:../../../libDaisy//src/daisy_seed.h **** 
  34:../../../libDaisy//src/daisy_seed.h ****     ADCs, DACs, and other special peripherals (such as I2C, SPI, etc.)
  35:../../../libDaisy//src/daisy_seed.h ****     can be initialized using their specific initializers within libdaisy
  36:../../../libDaisy//src/daisy_seed.h ****     for a specific application.
  37:../../../libDaisy//src/daisy_seed.h ****     */
  38:../../../libDaisy//src/daisy_seed.h ****     void Init(bool boost = false);
ARM GAS  /var/folders/wz/z09yph4n0qj4t7mjxhl6ttn80000gn/T//cctms0BV.s 			page 29


  39:../../../libDaisy//src/daisy_seed.h **** 
  40:../../../libDaisy//src/daisy_seed.h ****     /** 
  41:../../../libDaisy//src/daisy_seed.h ****     Deinitializes all peripherals automatically handled by `Init`.
  42:../../../libDaisy//src/daisy_seed.h ****     */
  43:../../../libDaisy//src/daisy_seed.h ****     void DeInit();
  44:../../../libDaisy//src/daisy_seed.h **** 
  45:../../../libDaisy//src/daisy_seed.h ****     /** 
  46:../../../libDaisy//src/daisy_seed.h ****     Wait some ms before going on.
  47:../../../libDaisy//src/daisy_seed.h ****     \param del Delay time in ms.
  48:../../../libDaisy//src/daisy_seed.h ****     */
  49:../../../libDaisy//src/daisy_seed.h ****     void DelayMs(size_t del);
  50:../../../libDaisy//src/daisy_seed.h **** 
  51:../../../libDaisy//src/daisy_seed.h ****     /** 
  52:../../../libDaisy//src/daisy_seed.h ****     Returns the gpio_pin corresponding to the index 0-31.
  53:../../../libDaisy//src/daisy_seed.h ****     For the given GPIO on the Daisy Seed (labeled 1-32 in docs).
  54:../../../libDaisy//src/daisy_seed.h ****     */
  55:../../../libDaisy//src/daisy_seed.h ****     static dsy_gpio_pin GetPin(uint8_t pin_idx);
  56:../../../libDaisy//src/daisy_seed.h **** 
  57:../../../libDaisy//src/daisy_seed.h ****     /** Begins the audio for the seeds builtin audio.
  58:../../../libDaisy//src/daisy_seed.h ****     the specified callback will get called whenever
  59:../../../libDaisy//src/daisy_seed.h ****     new data is ready to be prepared.
  60:../../../libDaisy//src/daisy_seed.h ****     */
  61:../../../libDaisy//src/daisy_seed.h ****     void StartAudio(AudioHandle::InterleavingAudioCallback cb);
  62:../../../libDaisy//src/daisy_seed.h **** 
  63:../../../libDaisy//src/daisy_seed.h ****     /** Begins the audio for the seeds builtin audio.
  64:../../../libDaisy//src/daisy_seed.h ****     the specified callback will get called whenever
  65:../../../libDaisy//src/daisy_seed.h ****     new data is ready to be prepared.
  66:../../../libDaisy//src/daisy_seed.h ****     This will use the newer non-interleaved callback.
  67:../../../libDaisy//src/daisy_seed.h ****     */
  68:../../../libDaisy//src/daisy_seed.h ****     void StartAudio(AudioHandle::AudioCallback cb);
  69:../../../libDaisy//src/daisy_seed.h **** 
  70:../../../libDaisy//src/daisy_seed.h ****     /** Changes to a new interleaved callback
  71:../../../libDaisy//src/daisy_seed.h ****      */
  72:../../../libDaisy//src/daisy_seed.h ****     void ChangeAudioCallback(AudioHandle::InterleavingAudioCallback cb);
  73:../../../libDaisy//src/daisy_seed.h **** 
  74:../../../libDaisy//src/daisy_seed.h ****     /** Changes to a new multichannel callback
  75:../../../libDaisy//src/daisy_seed.h ****      */
  76:../../../libDaisy//src/daisy_seed.h ****     void ChangeAudioCallback(AudioHandle::AudioCallback cb);
  77:../../../libDaisy//src/daisy_seed.h **** 
  78:../../../libDaisy//src/daisy_seed.h ****     /** Stops the audio if it is running. */
  79:../../../libDaisy//src/daisy_seed.h ****     void StopAudio();
  80:../../../libDaisy//src/daisy_seed.h **** 
  81:../../../libDaisy//src/daisy_seed.h ****     /** Updates the Audio Sample Rate, and reinitializes.
  82:../../../libDaisy//src/daisy_seed.h ****      ** Audio must be stopped for this to work.
  83:../../../libDaisy//src/daisy_seed.h ****      */
  84:../../../libDaisy//src/daisy_seed.h ****     void SetAudioSampleRate(SaiHandle::Config::SampleRate samplerate);
  85:../../../libDaisy//src/daisy_seed.h **** 
  86:../../../libDaisy//src/daisy_seed.h ****     /** Returns the audio sample rate in Hz as a floating point number.
  87:../../../libDaisy//src/daisy_seed.h ****      */
  88:../../../libDaisy//src/daisy_seed.h ****     float AudioSampleRate();
  89:../../../libDaisy//src/daisy_seed.h **** 
  90:../../../libDaisy//src/daisy_seed.h ****     /** Sets the number of samples processed per channel by the audio callback.
  91:../../../libDaisy//src/daisy_seed.h ****      */
  92:../../../libDaisy//src/daisy_seed.h ****     void SetAudioBlockSize(size_t blocksize);
  93:../../../libDaisy//src/daisy_seed.h **** 
  94:../../../libDaisy//src/daisy_seed.h ****     /** Returns the number of samples per channel in a block of audio. */
  95:../../../libDaisy//src/daisy_seed.h ****     size_t AudioBlockSize();
ARM GAS  /var/folders/wz/z09yph4n0qj4t7mjxhl6ttn80000gn/T//cctms0BV.s 			page 30


  96:../../../libDaisy//src/daisy_seed.h **** 
  97:../../../libDaisy//src/daisy_seed.h ****     /** Returns the rate in Hz that the Audio callback is called */
  98:../../../libDaisy//src/daisy_seed.h ****     float AudioCallbackRate() const;
  99:../../../libDaisy//src/daisy_seed.h **** 
 100:../../../libDaisy//src/daisy_seed.h ****     /** Sets the state of the built in LED
 101:../../../libDaisy//src/daisy_seed.h ****      */
 102:../../../libDaisy//src/daisy_seed.h ****     void SetLed(bool state);
 103:../../../libDaisy//src/daisy_seed.h **** 
 104:../../../libDaisy//src/daisy_seed.h ****     /** Sets the state of the test point near pin 10
 105:../../../libDaisy//src/daisy_seed.h ****      */
 106:../../../libDaisy//src/daisy_seed.h ****     void SetTestPoint(bool state);
 107:../../../libDaisy//src/daisy_seed.h **** 
 108:../../../libDaisy//src/daisy_seed.h ****     /** Print formatted debug log message
 109:../../../libDaisy//src/daisy_seed.h ****      */
 110:../../../libDaisy//src/daisy_seed.h ****     template <typename... VA>
 111:../../../libDaisy//src/daisy_seed.h ****     static void Print(const char* format, VA... va)
 112:../../../libDaisy//src/daisy_seed.h ****     {
 113:../../../libDaisy//src/daisy_seed.h ****         Log::Print(format, va...);
 114:../../../libDaisy//src/daisy_seed.h ****     }
 115:../../../libDaisy//src/daisy_seed.h **** 
 116:../../../libDaisy//src/daisy_seed.h ****     /** Print formatted debug log message with automatic line termination
 117:../../../libDaisy//src/daisy_seed.h ****     */
 118:../../../libDaisy//src/daisy_seed.h ****     template <typename... VA>
 119:../../../libDaisy//src/daisy_seed.h ****     static void PrintLine(const char* format, VA... va)
 120:../../../libDaisy//src/daisy_seed.h ****     {
 121:../../../libDaisy//src/daisy_seed.h ****         Log::PrintLine(format, va...);
 122:../../../libDaisy//src/daisy_seed.h ****     }
 123:../../../libDaisy//src/daisy_seed.h **** 
 124:../../../libDaisy//src/daisy_seed.h ****     /** Start the logging session. Optionally wait for terminal connection before proceeding.
 125:../../../libDaisy//src/daisy_seed.h ****     */
 126:../../../libDaisy//src/daisy_seed.h ****     static void StartLog(bool wait_for_pc = false)
 636              		.loc 2 126 17 view .LVU143
 637              	.LBB225:
 127:../../../libDaisy//src/daisy_seed.h ****     {
 128:../../../libDaisy//src/daisy_seed.h ****         Log::StartLog(wait_for_pc);
 638              		.loc 2 128 9 view .LVU144
 639              		.loc 2 128 22 is_stmt 0 view .LVU145
 640 000a 0020     		movs	r0, #0
 641 000c FFF7FEFF 		bl	_ZN5daisy6LoggerILNS_17LoggerDestinationE1EE8StartLogEb
 642              	.LVL34:
 643              		.loc 2 128 22 view .LVU146
 644              	.LBE225:
 645              	.LBE224:
 116:LoopyTunes.cpp **** 	hw.StartAudio(AudioCallback);
 646              		.loc 8 116 2 is_stmt 1 view .LVU147
 647              		.loc 8 116 15 is_stmt 0 view .LVU148
 648 0010 0449     		ldr	r1, .L31
 649 0012 0548     		ldr	r0, .L31+4
 650 0014 FFF7FEFF 		bl	_ZN5daisy9DaisySeed10StartAudioEPFvPKPKfPPfjE
 651              	.LVL35:
 652              	.L29:
 117:LoopyTunes.cpp **** 
 118:LoopyTunes.cpp **** 	while(1) 
 653              		.loc 8 118 2 is_stmt 1 discriminator 1 view .LVU149
 119:LoopyTunes.cpp **** 	{
 120:LoopyTunes.cpp **** 		pollInputs();
 654              		.loc 8 120 3 discriminator 1 view .LVU150
ARM GAS  /var/folders/wz/z09yph4n0qj4t7mjxhl6ttn80000gn/T//cctms0BV.s 			page 31


 655              		.loc 8 120 13 is_stmt 0 discriminator 1 view .LVU151
 656 0018 FFF7FEFF 		bl	_Z10pollInputsv
 657              	.LVL36:
 121:LoopyTunes.cpp **** 		mixer.tick();
 658              		.loc 8 121 3 is_stmt 1 discriminator 1 view .LVU152
 659              		.loc 8 121 13 is_stmt 0 discriminator 1 view .LVU153
 660 001c 0348     		ldr	r0, .L31+8
 661 001e FFF7FEFF 		bl	_ZN5Mixer4tickEv
 662              	.LVL37:
 118:LoopyTunes.cpp **** 	{
 663              		.loc 8 118 2 is_stmt 1 discriminator 1 view .LVU154
 664 0022 F9E7     		b	.L29
 665              	.L32:
 666              		.align	2
 667              	.L31:
 668 0024 00000000 		.word	_Z13AudioCallbackPKPKfPPfj
 669 0028 00000000 		.word	.LANCHOR1
 670 002c 00000000 		.word	.LANCHOR0
 671              		.cfi_endproc
 672              	.LFE4816:
 674              		.section	.text.startup._GLOBAL__sub_I_delayLine,"ax",%progbits
 675              		.align	1
 676              		.p2align 2,,3
 677              		.syntax unified
 678              		.thumb
 679              		.thumb_func
 681              	_GLOBAL__sub_I_delayLine:
 682              	.LFB5385:
 122:LoopyTunes.cpp **** 	}
 123:LoopyTunes.cpp **** }
 683              		.loc 8 123 1 view -0
 684              		.cfi_startproc
 685              		@ args = 0, pretend = 0, frame = 0
 686              		@ frame_needed = 0, uses_anonymous_args = 0
 687              	.LBB276:
 688              	.LBI276:
 689              		.loc 8 123 1 view .LVU156
 690              	.LVL38:
 691              	.LBB277:
 692              	.LBB278:
 693              	.LBI278:
  23:../../../DaisySP//Source/Utility/delayline.h ****     ~DelayLine() {}
 694              		.loc 7 23 5 view .LVU157
  23:../../../DaisySP//Source/Utility/delayline.h ****     ~DelayLine() {}
 695              		.loc 7 23 5 is_stmt 0 view .LVU158
 696              	.LBE278:
 697              	.LBE277:
 698              	.LBE276:
 699              		.loc 8 123 1 view .LVU159
 700 0000 10B5     		push	{r4, lr}
 701              		.cfi_def_cfa_offset 8
 702              		.cfi_offset 4, -8
 703              		.cfi_offset 14, -4
 704              	.LBB343:
 705              	.LBB342:
 706              		.file 11 "DSP/FX/Delay.h"
   1:DSP/FX/Delay.h **** #ifndef DELAY_H
ARM GAS  /var/folders/wz/z09yph4n0qj4t7mjxhl6ttn80000gn/T//cctms0BV.s 			page 32


   2:DSP/FX/Delay.h **** #define DELAY_H
   3:DSP/FX/Delay.h **** 
   4:DSP/FX/Delay.h **** #include "../../Parameters/AudioParameter.h"
   5:DSP/FX/Delay.h **** 
   6:DSP/FX/Delay.h **** /************************************************************//**
   7:DSP/FX/Delay.h ****  *  Class name: Delay
   8:DSP/FX/Delay.h ****  *  Function: Processes delay effect for block of input sanples
   9:DSP/FX/Delay.h ****  ***************************************************************/
  10:DSP/FX/Delay.h **** using namespace daisysp;
  11:DSP/FX/Delay.h **** 
  12:DSP/FX/Delay.h **** DelayLine<float, MAXDELAY> DSY_SDRAM_BSS delayLine;
 707              		.loc 11 12 42 view .LVU160
 708 0002 144A     		ldr	r2, .L35
 709              	.LBB279:
 710              	.LBB280:
 711              	.LBB281:
 712              	.LBB282:
 713              	.LBB283:
 714              		.file 12 "../../../libDaisy//src/per/qspi.h"
   1:../../../libDaisy//src/per/qspi.h **** #ifndef DSY_QSPI
   2:../../../libDaisy//src/per/qspi.h **** #define DSY_QSPI /**< Macro */
   3:../../../libDaisy//src/per/qspi.h **** 
   4:../../../libDaisy//src/per/qspi.h **** #ifndef UNIT_TEST // for unit tests, a dummy implementation
   5:../../../libDaisy//src/per/qspi.h **** 
   6:../../../libDaisy//src/per/qspi.h **** #include <cstdint>
   7:../../../libDaisy//src/per/qspi.h **** #include "daisy_core.h" // Added for dsy_gpio_pin typedef
   8:../../../libDaisy//src/per/qspi.h **** 
   9:../../../libDaisy//src/per/qspi.h **** #define DSY_QSPI_TEXT       \
  10:../../../libDaisy//src/per/qspi.h ****     __attribute__((section( \
  11:../../../libDaisy//src/per/qspi.h ****         ".qspiflash_text"))) /**< used for reading memory in memory_mapped mode. */
  12:../../../libDaisy//src/per/qspi.h **** #define DSY_QSPI_DATA       \
  13:../../../libDaisy//src/per/qspi.h ****     __attribute__((section( \
  14:../../../libDaisy//src/per/qspi.h ****         ".qspiflash_data"))) /**< used for reading memory in memory_mapped mode. */
  15:../../../libDaisy//src/per/qspi.h **** #define DSY_QSPI_BSS        \
  16:../../../libDaisy//src/per/qspi.h ****     __attribute__((section( \
  17:../../../libDaisy//src/per/qspi.h ****         ".qspiflash_bss"))) /**< used for reading memory in memory_mapped mode. */
  18:../../../libDaisy//src/per/qspi.h **** 
  19:../../../libDaisy//src/per/qspi.h **** namespace daisy
  20:../../../libDaisy//src/per/qspi.h **** {
  21:../../../libDaisy//src/per/qspi.h **** /** @addtogroup serial
  22:../../../libDaisy//src/per/qspi.h **** @{
  23:../../../libDaisy//src/per/qspi.h **** */
  24:../../../libDaisy//src/per/qspi.h **** 
  25:../../../libDaisy//src/per/qspi.h **** /** 
  26:../../../libDaisy//src/per/qspi.h ****  Driver for QSPI peripheral to interface with external flash memory. \n 
  27:../../../libDaisy//src/per/qspi.h ****     Currently supported QSPI Devices: \n 
  28:../../../libDaisy//src/per/qspi.h ****     * IS25LP080D
  29:../../../libDaisy//src/per/qspi.h **** */
  30:../../../libDaisy//src/per/qspi.h **** class QSPIHandle
  31:../../../libDaisy//src/per/qspi.h **** {
  32:../../../libDaisy//src/per/qspi.h ****   public:
  33:../../../libDaisy//src/per/qspi.h ****     enum Result
  34:../../../libDaisy//src/per/qspi.h ****     {
  35:../../../libDaisy//src/per/qspi.h ****         OK = 0,
  36:../../../libDaisy//src/per/qspi.h ****         ERR
  37:../../../libDaisy//src/per/qspi.h ****     };
  38:../../../libDaisy//src/per/qspi.h **** 
ARM GAS  /var/folders/wz/z09yph4n0qj4t7mjxhl6ttn80000gn/T//cctms0BV.s 			page 33


  39:../../../libDaisy//src/per/qspi.h ****     /** Indicates the current status of the module. 
  40:../../../libDaisy//src/per/qspi.h ****          *  Warnings are indicated by a leading W.
  41:../../../libDaisy//src/per/qspi.h ****          *  Errors are indicated by a leading E and cause an immediate exit.
  42:../../../libDaisy//src/per/qspi.h ****          * 
  43:../../../libDaisy//src/per/qspi.h ****          *  \param GOOD - No errors have been reported.
  44:../../../libDaisy//src/per/qspi.h ****          *  \param E_HAL_ERROR - HAL code did not return HAL_OK.
  45:../../../libDaisy//src/per/qspi.h ****          *  \param E_SWITCHING_MODES - An error was encountered while switching QSPI peripheral mod
  46:../../../libDaisy//src/per/qspi.h ****          *  \param E_INVALID_MODE - QSPI should not be written to while the program is executing fr
  47:../../../libDaisy//src/per/qspi.h ****          */
  48:../../../libDaisy//src/per/qspi.h ****     enum Status
  49:../../../libDaisy//src/per/qspi.h ****     {
  50:../../../libDaisy//src/per/qspi.h ****         GOOD = 0,
  51:../../../libDaisy//src/per/qspi.h ****         E_HAL_ERROR,
  52:../../../libDaisy//src/per/qspi.h ****         E_SWITCHING_MODES,
  53:../../../libDaisy//src/per/qspi.h ****         E_INVALID_MODE,
  54:../../../libDaisy//src/per/qspi.h ****     };
  55:../../../libDaisy//src/per/qspi.h **** 
  56:../../../libDaisy//src/per/qspi.h ****     /** Configuration structure for interfacing with QSPI Driver */
  57:../../../libDaisy//src/per/qspi.h ****     struct Config
  58:../../../libDaisy//src/per/qspi.h ****     {
  59:../../../libDaisy//src/per/qspi.h ****         /** Flash Devices supported. (Both of these are more-or-less the same, just different sizes
  60:../../../libDaisy//src/per/qspi.h ****         enum Device
  61:../../../libDaisy//src/per/qspi.h ****         {
  62:../../../libDaisy//src/per/qspi.h ****             IS25LP080D,  /**< & */
  63:../../../libDaisy//src/per/qspi.h ****             IS25LP064A,  /**< & */
  64:../../../libDaisy//src/per/qspi.h ****             DEVICE_LAST, /**< & */
  65:../../../libDaisy//src/per/qspi.h ****         };
  66:../../../libDaisy//src/per/qspi.h **** 
  67:../../../libDaisy//src/per/qspi.h ****         /** 
  68:../../../libDaisy//src/per/qspi.h ****         Modes of operation.
  69:../../../libDaisy//src/per/qspi.h ****         Memory Mapped mode: QSPI configured so that the QSPI can be
  70:../../../libDaisy//src/per/qspi.h ****         read from starting address 0x90000000. Writing is not
  71:../../../libDaisy//src/per/qspi.h ****         possible in this mode. \n 
  72:../../../libDaisy//src/per/qspi.h ****         Indirect Polling mode: Device driver enabled. 
  73:../../../libDaisy//src/per/qspi.h ****         */
  74:../../../libDaisy//src/per/qspi.h ****         enum Mode
  75:../../../libDaisy//src/per/qspi.h ****         {
  76:../../../libDaisy//src/per/qspi.h ****             MEMORY_MAPPED,    /**< & */
  77:../../../libDaisy//src/per/qspi.h ****             INDIRECT_POLLING, /**< & */
  78:../../../libDaisy//src/per/qspi.h ****             MODE_LAST,
  79:../../../libDaisy//src/per/qspi.h ****         };
  80:../../../libDaisy//src/per/qspi.h **** 
  81:../../../libDaisy//src/per/qspi.h ****         //SCK,  CE# (active low)
  82:../../../libDaisy//src/per/qspi.h ****         struct
  83:../../../libDaisy//src/per/qspi.h ****         {
  84:../../../libDaisy//src/per/qspi.h ****             dsy_gpio_pin io0; /**< & */
  85:../../../libDaisy//src/per/qspi.h ****             dsy_gpio_pin io1; /**< & */
  86:../../../libDaisy//src/per/qspi.h ****             dsy_gpio_pin io2; /**< & */
  87:../../../libDaisy//src/per/qspi.h ****             dsy_gpio_pin io3; /**< & */
  88:../../../libDaisy//src/per/qspi.h ****             dsy_gpio_pin clk; /**< & */
  89:../../../libDaisy//src/per/qspi.h ****             dsy_gpio_pin ncs; /**< & */
  90:../../../libDaisy//src/per/qspi.h ****         } pin_config;
  91:../../../libDaisy//src/per/qspi.h **** 
  92:../../../libDaisy//src/per/qspi.h ****         Device device;
  93:../../../libDaisy//src/per/qspi.h ****         Mode   mode;
  94:../../../libDaisy//src/per/qspi.h ****     };
  95:../../../libDaisy//src/per/qspi.h **** 
ARM GAS  /var/folders/wz/z09yph4n0qj4t7mjxhl6ttn80000gn/T//cctms0BV.s 			page 34


  96:../../../libDaisy//src/per/qspi.h ****     /** 
  97:../../../libDaisy//src/per/qspi.h ****         Initializes QSPI peripheral, and Resets, and prepares memory for access.
  98:../../../libDaisy//src/per/qspi.h ****         \param config should be populated with the mode, device and pin_config before calling this 
  99:../../../libDaisy//src/per/qspi.h ****         \return Result::OK or Result::ERR
 100:../../../libDaisy//src/per/qspi.h ****         */
 101:../../../libDaisy//src/per/qspi.h ****     Result Init(const Config& config);
 102:../../../libDaisy//src/per/qspi.h **** 
 103:../../../libDaisy//src/per/qspi.h ****     /** Returns the current config. */
 104:../../../libDaisy//src/per/qspi.h ****     const Config& GetConfig() const;
 105:../../../libDaisy//src/per/qspi.h **** 
 106:../../../libDaisy//src/per/qspi.h ****     // Couldn't this just be called before anything else in init? That
 107:../../../libDaisy//src/per/qspi.h ****     // would make manually calling it unnecessary.
 108:../../../libDaisy//src/per/qspi.h ****     /** 
 109:../../../libDaisy//src/per/qspi.h ****         Deinitializes the peripheral
 110:../../../libDaisy//src/per/qspi.h ****         This should be called before reinitializing QSPI in a different mode.
 111:../../../libDaisy//src/per/qspi.h ****         \return Result::OK or Result::ERR
 112:../../../libDaisy//src/per/qspi.h ****         */
 113:../../../libDaisy//src/per/qspi.h ****     Result DeInit();
 114:../../../libDaisy//src/per/qspi.h **** 
 115:../../../libDaisy//src/per/qspi.h ****     /** 
 116:../../../libDaisy//src/per/qspi.h ****         Writes a single page to to the specified address on the QSPI chip.
 117:../../../libDaisy//src/per/qspi.h ****         For IS25LP*, page size is 256 bytes.
 118:../../../libDaisy//src/per/qspi.h ****         \param address Address to write to
 119:../../../libDaisy//src/per/qspi.h ****         \param size Buffer size
 120:../../../libDaisy//src/per/qspi.h ****         \param buffer Buffer to write
 121:../../../libDaisy//src/per/qspi.h ****         \return Result::OK or Result::ERR
 122:../../../libDaisy//src/per/qspi.h ****         */
 123:../../../libDaisy//src/per/qspi.h ****     Result WritePage(uint32_t address, uint32_t size, uint8_t* buffer);
 124:../../../libDaisy//src/per/qspi.h **** 
 125:../../../libDaisy//src/per/qspi.h ****     /** 
 126:../../../libDaisy//src/per/qspi.h ****         Writes data in buffer to to the QSPI. Starting at address to address+size 
 127:../../../libDaisy//src/per/qspi.h ****         \param address Address to write to
 128:../../../libDaisy//src/per/qspi.h ****         \param size Buffer size
 129:../../../libDaisy//src/per/qspi.h ****         \param buffer Buffer to write
 130:../../../libDaisy//src/per/qspi.h ****         \return Result::OK or Result::ERR
 131:../../../libDaisy//src/per/qspi.h ****         */
 132:../../../libDaisy//src/per/qspi.h ****     Result Write(uint32_t address, uint32_t size, uint8_t* buffer);
 133:../../../libDaisy//src/per/qspi.h **** 
 134:../../../libDaisy//src/per/qspi.h ****     /** 
 135:../../../libDaisy//src/per/qspi.h ****         Erases the area specified on the chip.
 136:../../../libDaisy//src/per/qspi.h ****         Erasures will happen by 4K, 32K or 64K increments.
 137:../../../libDaisy//src/per/qspi.h ****         Smallest erase possible is 4kB at a time. (on IS25LP*)
 138:../../../libDaisy//src/per/qspi.h ****         \param start_addr Address to begin erasing from
 139:../../../libDaisy//src/per/qspi.h ****         \param end_addr  Address to stop erasing at
 140:../../../libDaisy//src/per/qspi.h ****         \return Result::OK or Result::ERR
 141:../../../libDaisy//src/per/qspi.h ****         */
 142:../../../libDaisy//src/per/qspi.h ****     Result Erase(uint32_t start_addr, uint32_t end_addr);
 143:../../../libDaisy//src/per/qspi.h **** 
 144:../../../libDaisy//src/per/qspi.h ****     /**  
 145:../../../libDaisy//src/per/qspi.h ****          Erases a single sector of the chip.  
 146:../../../libDaisy//src/per/qspi.h ****         TODO: Document the size of this function. 
 147:../../../libDaisy//src/per/qspi.h ****         \param address Address of sector to erase
 148:../../../libDaisy//src/per/qspi.h ****         \return Result::OK or Result::ERR
 149:../../../libDaisy//src/per/qspi.h ****         */
 150:../../../libDaisy//src/per/qspi.h ****     Result EraseSector(uint32_t address);
 151:../../../libDaisy//src/per/qspi.h **** 
 152:../../../libDaisy//src/per/qspi.h ****     /** Returns the current class status. Useful for debugging.
ARM GAS  /var/folders/wz/z09yph4n0qj4t7mjxhl6ttn80000gn/T//cctms0BV.s 			page 35


 153:../../../libDaisy//src/per/qspi.h ****      *  \returns Status
 154:../../../libDaisy//src/per/qspi.h ****      */
 155:../../../libDaisy//src/per/qspi.h ****     Status GetStatus();
 156:../../../libDaisy//src/per/qspi.h **** 
 157:../../../libDaisy//src/per/qspi.h ****     /** Returns a pointer to the actual memory used 
 158:../../../libDaisy//src/per/qspi.h ****      *  The memory at this address is read-only
 159:../../../libDaisy//src/per/qspi.h ****      *  to write to it use the Write function.
 160:../../../libDaisy//src/per/qspi.h ****      * 
 161:../../../libDaisy//src/per/qspi.h ****      *  \param offset returns the pointer starting this 
 162:../../../libDaisy//src/per/qspi.h ****      *                many bytes into the memory
 163:../../../libDaisy//src/per/qspi.h ****     */
 164:../../../libDaisy//src/per/qspi.h ****     void* GetData(uint32_t offset = 0);
 165:../../../libDaisy//src/per/qspi.h **** 
 166:../../../libDaisy//src/per/qspi.h ****     QSPIHandle() : pimpl_(nullptr) {}
 715              		.loc 12 166 34 view .LVU161
 716 0004 0024     		movs	r4, #0
 717              	.LBE283:
 718              	.LBE282:
 719              	.LBE281:
 720              	.LBE280:
 721              	.LBE279:
 722              		.loc 11 12 42 view .LVU162
 723 0006 1449     		ldr	r1, .L35+4
 724 0008 1448     		ldr	r0, .L35+8
 725 000a FFF7FEFF 		bl	__aeabi_atexit
 726              	.LVL39:
 727              	.LBB301:
 728              	.LBI279:
  21:../../../libDaisy//src/daisy_seed.h ****     ~DaisySeed() {}
 729              		.loc 2 21 5 is_stmt 1 view .LVU163
 730              	.LBB299:
 731              	.LBB288:
 732              	.LBI281:
 733              		.loc 12 166 5 view .LVU164
 734              	.LBB286:
 735              	.LBB284:
 736              		.loc 12 166 34 is_stmt 0 view .LVU165
 737 000e 1448     		ldr	r0, .L35+12
 738              	.LBE284:
 739              	.LBE286:
 740              	.LBE288:
 741              	.LBE299:
 742              	.LBE301:
  25:LoopyTunes.cpp **** 
 743              		.loc 8 25 11 view .LVU166
 744 0010 104A     		ldr	r2, .L35
 745 0012 1449     		ldr	r1, .L35+16
 746              	.LBB302:
 747              	.LBB300:
 748              	.LBB289:
 749              	.LBB287:
 750              	.LBB285:
 751              		.loc 12 166 34 view .LVU167
 752 0014 0460     		str	r4, [r0]
 753              	.LVL40:
 754              		.loc 12 166 34 view .LVU168
 755              	.LBE285:
ARM GAS  /var/folders/wz/z09yph4n0qj4t7mjxhl6ttn80000gn/T//cctms0BV.s 			page 36


 756              	.LBE287:
 757              	.LBE289:
 758              	.LBB290:
 759              	.LBI290:
  95:../../../libDaisy//src/hid/audio.h ****     ~AudioHandle() {}
 760              		.loc 6 95 5 is_stmt 1 view .LVU169
 761              	.LBB291:
 762              	.LBB292:
  95:../../../libDaisy//src/hid/audio.h ****     ~AudioHandle() {}
 763              		.loc 6 95 35 is_stmt 0 view .LVU170
 764 0016 4461     		str	r4, [r0, #20]
 765              	.LVL41:
  95:../../../libDaisy//src/hid/audio.h ****     ~AudioHandle() {}
 766              		.loc 6 95 35 view .LVU171
 767              	.LBE292:
 768              	.LBE291:
 769              	.LBE290:
 770              	.LBB293:
 771              	.LBI293:
  92:../../../libDaisy//src/per/adc.h ****     ~AdcHandle() {}
 772              		.loc 5 92 5 is_stmt 1 view .LVU172
  92:../../../libDaisy//src/per/adc.h ****     ~AdcHandle() {}
 773              		.loc 5 92 5 is_stmt 0 view .LVU173
 774              	.LBE293:
 775              	.LBB294:
 776              	.LBI294:
 777              		.file 13 "../../../libDaisy//src/per/dac.h"
   1:../../../libDaisy//src/per/dac.h **** #pragma once
   2:../../../libDaisy//src/per/dac.h **** #ifndef DSY_DAC_H
   3:../../../libDaisy//src/per/dac.h **** #define DSY_DAC_H
   4:../../../libDaisy//src/per/dac.h **** 
   5:../../../libDaisy//src/per/dac.h **** #include "daisy_core.h"
   6:../../../libDaisy//src/per/dac.h **** 
   7:../../../libDaisy//src/per/dac.h **** namespace daisy
   8:../../../libDaisy//src/per/dac.h **** {
   9:../../../libDaisy//src/per/dac.h **** /** @brief DAC handle for Built-in DAC Peripheral 
  10:../../../libDaisy//src/per/dac.h ****  *  @ingroup per_analog
  11:../../../libDaisy//src/per/dac.h ****  ** 
  12:../../../libDaisy//src/per/dac.h ****  ** For now only Normal Mode is supported,
  13:../../../libDaisy//src/per/dac.h ****  ** Sample and hold mode provides reduced power consumption, but requires a bit more setup.
  14:../../../libDaisy//src/per/dac.h ****  **
  15:../../../libDaisy//src/per/dac.h ****  ** For now connecting the DAC through other internal peripherals is also not supported.
  16:../../../libDaisy//src/per/dac.h ****  **
  17:../../../libDaisy//src/per/dac.h ****  ** Since the DAC channels have dedicated pins we don't need to pass in a pin config like with
  18:../../../libDaisy//src/per/dac.h ****  ** other modules. However, it is still important to not try to use the DAC pins for anything else.
  19:../../../libDaisy//src/per/dac.h ****  ** DAC Channel 1 is on PA4, and DAC Channel 2 is on PA5
  20:../../../libDaisy//src/per/dac.h ****  ***/
  21:../../../libDaisy//src/per/dac.h **** class DacHandle
  22:../../../libDaisy//src/per/dac.h **** {
  23:../../../libDaisy//src/per/dac.h ****   public:
  24:../../../libDaisy//src/per/dac.h ****     /** Return Values for the DacHandle class */
  25:../../../libDaisy//src/per/dac.h ****     enum class Result
  26:../../../libDaisy//src/per/dac.h ****     {
  27:../../../libDaisy//src/per/dac.h ****         OK,
  28:../../../libDaisy//src/per/dac.h ****         ERR,
  29:../../../libDaisy//src/per/dac.h ****     };
  30:../../../libDaisy//src/per/dac.h **** 
ARM GAS  /var/folders/wz/z09yph4n0qj4t7mjxhl6ttn80000gn/T//cctms0BV.s 			page 37


  31:../../../libDaisy//src/per/dac.h ****     /** Selects which channel(s) will be configured for use. */
  32:../../../libDaisy//src/per/dac.h ****     enum class Channel
  33:../../../libDaisy//src/per/dac.h ****     {
  34:../../../libDaisy//src/per/dac.h ****         ONE,
  35:../../../libDaisy//src/per/dac.h ****         TWO,
  36:../../../libDaisy//src/per/dac.h ****         BOTH,
  37:../../../libDaisy//src/per/dac.h ****     };
  38:../../../libDaisy//src/per/dac.h **** 
  39:../../../libDaisy//src/per/dac.h ****     /** Sets the Mode for the DAC channels.
  40:../../../libDaisy//src/per/dac.h ****      **
  41:../../../libDaisy//src/per/dac.h ****      ** Polling mode uses the blocking mode to transmit a single value at a time.
  42:../../../libDaisy//src/per/dac.h ****      **
  43:../../../libDaisy//src/per/dac.h ****      ** DMA mode uses a buffer, and periodically transmits it triggering a 
  44:../../../libDaisy//src/per/dac.h ****      ** callback to fill the buffer when it is ready for more samples.
  45:../../../libDaisy//src/per/dac.h ****      ***/
  46:../../../libDaisy//src/per/dac.h ****     enum class Mode
  47:../../../libDaisy//src/per/dac.h ****     {
  48:../../../libDaisy//src/per/dac.h ****         POLLING,
  49:../../../libDaisy//src/per/dac.h ****         DMA,
  50:../../../libDaisy//src/per/dac.h ****     };
  51:../../../libDaisy//src/per/dac.h **** 
  52:../../../libDaisy//src/per/dac.h ****     /** Sets the number of bits per sample transmitted out of the DAC.
  53:../../../libDaisy//src/per/dac.h ****      ** The output range will be: 0V - VDDA
  54:../../../libDaisy//src/per/dac.h ****      ** The resolution will be roughly: bitdepth / (VDDA - 0V) 
  55:../../../libDaisy//src/per/dac.h ****      ***/
  56:../../../libDaisy//src/per/dac.h ****     enum class BitDepth
  57:../../../libDaisy//src/per/dac.h ****     {
  58:../../../libDaisy//src/per/dac.h ****         BITS_8,
  59:../../../libDaisy//src/per/dac.h ****         BITS_12
  60:../../../libDaisy//src/per/dac.h ****     };
  61:../../../libDaisy//src/per/dac.h **** 
  62:../../../libDaisy//src/per/dac.h ****     /** Sets whether the DAC output is buffered for higher drive ability. */
  63:../../../libDaisy//src/per/dac.h ****     enum class BufferState
  64:../../../libDaisy//src/per/dac.h ****     {
  65:../../../libDaisy//src/per/dac.h ****         ENABLED,
  66:../../../libDaisy//src/per/dac.h ****         DISABLED,
  67:../../../libDaisy//src/per/dac.h ****     };
  68:../../../libDaisy//src/per/dac.h **** 
  69:../../../libDaisy//src/per/dac.h ****     /** Configuration structure for initializing the DAC structure. */
  70:../../../libDaisy//src/per/dac.h ****     struct Config
  71:../../../libDaisy//src/per/dac.h ****     {
  72:../../../libDaisy//src/per/dac.h ****         /** Target Samplerate in Hz used to configure the internal 
  73:../../../libDaisy//src/per/dac.h ****          ** timebase for DMA mode. Does nothing in POLLING mode.
  74:../../../libDaisy//src/per/dac.h ****          ** If the value is 0 at Init time this will default to 48000Hz 
  75:../../../libDaisy//src/per/dac.h ****          ** otherwise the driver will attempt meet the target.*/
  76:../../../libDaisy//src/per/dac.h ****         uint32_t target_samplerate;
  77:../../../libDaisy//src/per/dac.h **** 
  78:../../../libDaisy//src/per/dac.h ****         Channel     chn;
  79:../../../libDaisy//src/per/dac.h ****         Mode        mode;
  80:../../../libDaisy//src/per/dac.h ****         BitDepth    bitdepth;
  81:../../../libDaisy//src/per/dac.h ****         BufferState buff_state;
  82:../../../libDaisy//src/per/dac.h ****     };
  83:../../../libDaisy//src/per/dac.h **** 
  84:../../../libDaisy//src/per/dac.h ****     DacHandle() : pimpl_(nullptr) {}
 778              		.loc 13 84 5 is_stmt 1 view .LVU174
 779              	.LBB295:
 780              	.LBB296:
ARM GAS  /var/folders/wz/z09yph4n0qj4t7mjxhl6ttn80000gn/T//cctms0BV.s 			page 38


 781              		.loc 13 84 33 is_stmt 0 view .LVU175
 782 0018 0462     		str	r4, [r0, #32]
 783              	.LVL42:
 784              		.loc 13 84 33 view .LVU176
 785              	.LBE296:
 786              	.LBE295:
 787              	.LBE294:
 788              	.LBB297:
 789              	.LBI297:
  40:../../../libDaisy//src/hid/usb.h **** 
 790              		.loc 4 40 5 is_stmt 1 view .LVU177
  40:../../../libDaisy//src/hid/usb.h **** 
 791              		.loc 4 40 5 is_stmt 0 view .LVU178
 792              	.LBE297:
 793              	.LBB298:
 794              	.LBI298:
  77:../../../libDaisy//src/sys/system.h ****     ~System() {}
 795              		.loc 3 77 5 is_stmt 1 view .LVU179
  77:../../../libDaisy//src/sys/system.h ****     ~System() {}
 796              		.loc 3 77 5 is_stmt 0 view .LVU180
 797              	.LBE298:
 798              	.LBE300:
 799              	.LBE302:
  25:LoopyTunes.cpp **** 
 800              		.loc 8 25 11 view .LVU181
 801 001a FFF7FEFF 		bl	__aeabi_atexit
 802              	.LVL43:
 803              	.LBB303:
 804              	.LBI303:
  41:../../../libDaisy//src/hid/switch.h ****     ~Switch() {}
 805              		.loc 1 41 5 is_stmt 1 view .LVU182
  41:../../../libDaisy//src/hid/switch.h ****     ~Switch() {}
 806              		.loc 1 41 5 is_stmt 0 view .LVU183
 807              	.LBE303:
  28:LoopyTunes.cpp **** Switch play;
 808              		.loc 8 28 8 view .LVU184
 809 001e 1249     		ldr	r1, .L35+20
 810 0020 0C4A     		ldr	r2, .L35
 811 0022 1248     		ldr	r0, .L35+24
 812 0024 FFF7FEFF 		bl	__aeabi_atexit
 813              	.LVL44:
 814              	.LBB304:
 815              	.LBI304:
  41:../../../libDaisy//src/hid/switch.h ****     ~Switch() {}
 816              		.loc 1 41 5 is_stmt 1 view .LVU185
  41:../../../libDaisy//src/hid/switch.h ****     ~Switch() {}
 817              		.loc 1 41 5 is_stmt 0 view .LVU186
 818              	.LBE304:
  29:LoopyTunes.cpp **** 
 819              		.loc 8 29 8 view .LVU187
 820 0028 0A4A     		ldr	r2, .L35
 821 002a 0F49     		ldr	r1, .L35+20
 822 002c 1048     		ldr	r0, .L35+28
 823 002e FFF7FEFF 		bl	__aeabi_atexit
 824              	.LVL45:
 825              	.LBB305:
 826              	.LBI305:
ARM GAS  /var/folders/wz/z09yph4n0qj4t7mjxhl6ttn80000gn/T//cctms0BV.s 			page 39


  11:DSP/Mixer.h   **** {
 827              		.loc 10 11 7 is_stmt 1 view .LVU188
 828              	.LBB306:
 829              	.LBI306:
  24:DSP/Mixer.h   **** 
  25:DSP/Mixer.h   **** private:
  26:DSP/Mixer.h   **** 
  27:DSP/Mixer.h   ****     struct MixerChannel
 830              		.loc 10 27 12 view .LVU189
 831              	.LBB307:
 832              	.LBI307:
 833              		.file 14 "/Library/DaisyToolchain/0.2.0/arm/arm-none-eabi/include/c++/10.3.1/bits/stl_pair.h"
   1:/Library/DaisyToolchain/0.2.0/arm/arm-none-eabi/include/c++/10.3.1/bits/stl_pair.h **** // Pair implementation -*- C++ -*-
   2:/Library/DaisyToolchain/0.2.0/arm/arm-none-eabi/include/c++/10.3.1/bits/stl_pair.h **** 
   3:/Library/DaisyToolchain/0.2.0/arm/arm-none-eabi/include/c++/10.3.1/bits/stl_pair.h **** // Copyright (C) 2001-2020 Free Software Foundation, Inc.
   4:/Library/DaisyToolchain/0.2.0/arm/arm-none-eabi/include/c++/10.3.1/bits/stl_pair.h **** //
   5:/Library/DaisyToolchain/0.2.0/arm/arm-none-eabi/include/c++/10.3.1/bits/stl_pair.h **** // This file is part of the GNU ISO C++ Library.  This library is free
   6:/Library/DaisyToolchain/0.2.0/arm/arm-none-eabi/include/c++/10.3.1/bits/stl_pair.h **** // software; you can redistribute it and/or modify it under the
   7:/Library/DaisyToolchain/0.2.0/arm/arm-none-eabi/include/c++/10.3.1/bits/stl_pair.h **** // terms of the GNU General Public License as published by the
   8:/Library/DaisyToolchain/0.2.0/arm/arm-none-eabi/include/c++/10.3.1/bits/stl_pair.h **** // Free Software Foundation; either version 3, or (at your option)
   9:/Library/DaisyToolchain/0.2.0/arm/arm-none-eabi/include/c++/10.3.1/bits/stl_pair.h **** // any later version.
  10:/Library/DaisyToolchain/0.2.0/arm/arm-none-eabi/include/c++/10.3.1/bits/stl_pair.h **** 
  11:/Library/DaisyToolchain/0.2.0/arm/arm-none-eabi/include/c++/10.3.1/bits/stl_pair.h **** // This library is distributed in the hope that it will be useful,
  12:/Library/DaisyToolchain/0.2.0/arm/arm-none-eabi/include/c++/10.3.1/bits/stl_pair.h **** // but WITHOUT ANY WARRANTY; without even the implied warranty of
  13:/Library/DaisyToolchain/0.2.0/arm/arm-none-eabi/include/c++/10.3.1/bits/stl_pair.h **** // MERCHANTABILITY or FITNESS FOR A PARTICULAR PURPOSE.  See the
  14:/Library/DaisyToolchain/0.2.0/arm/arm-none-eabi/include/c++/10.3.1/bits/stl_pair.h **** // GNU General Public License for more details.
  15:/Library/DaisyToolchain/0.2.0/arm/arm-none-eabi/include/c++/10.3.1/bits/stl_pair.h **** 
  16:/Library/DaisyToolchain/0.2.0/arm/arm-none-eabi/include/c++/10.3.1/bits/stl_pair.h **** // Under Section 7 of GPL version 3, you are granted additional
  17:/Library/DaisyToolchain/0.2.0/arm/arm-none-eabi/include/c++/10.3.1/bits/stl_pair.h **** // permissions described in the GCC Runtime Library Exception, version
  18:/Library/DaisyToolchain/0.2.0/arm/arm-none-eabi/include/c++/10.3.1/bits/stl_pair.h **** // 3.1, as published by the Free Software Foundation.
  19:/Library/DaisyToolchain/0.2.0/arm/arm-none-eabi/include/c++/10.3.1/bits/stl_pair.h **** 
  20:/Library/DaisyToolchain/0.2.0/arm/arm-none-eabi/include/c++/10.3.1/bits/stl_pair.h **** // You should have received a copy of the GNU General Public License and
  21:/Library/DaisyToolchain/0.2.0/arm/arm-none-eabi/include/c++/10.3.1/bits/stl_pair.h **** // a copy of the GCC Runtime Library Exception along with this program;
  22:/Library/DaisyToolchain/0.2.0/arm/arm-none-eabi/include/c++/10.3.1/bits/stl_pair.h **** // see the files COPYING3 and COPYING.RUNTIME respectively.  If not, see
  23:/Library/DaisyToolchain/0.2.0/arm/arm-none-eabi/include/c++/10.3.1/bits/stl_pair.h **** // <http://www.gnu.org/licenses/>.
  24:/Library/DaisyToolchain/0.2.0/arm/arm-none-eabi/include/c++/10.3.1/bits/stl_pair.h **** 
  25:/Library/DaisyToolchain/0.2.0/arm/arm-none-eabi/include/c++/10.3.1/bits/stl_pair.h **** /*
  26:/Library/DaisyToolchain/0.2.0/arm/arm-none-eabi/include/c++/10.3.1/bits/stl_pair.h ****  *
  27:/Library/DaisyToolchain/0.2.0/arm/arm-none-eabi/include/c++/10.3.1/bits/stl_pair.h ****  * Copyright (c) 1994
  28:/Library/DaisyToolchain/0.2.0/arm/arm-none-eabi/include/c++/10.3.1/bits/stl_pair.h ****  * Hewlett-Packard Company
  29:/Library/DaisyToolchain/0.2.0/arm/arm-none-eabi/include/c++/10.3.1/bits/stl_pair.h ****  *
  30:/Library/DaisyToolchain/0.2.0/arm/arm-none-eabi/include/c++/10.3.1/bits/stl_pair.h ****  * Permission to use, copy, modify, distribute and sell this software
  31:/Library/DaisyToolchain/0.2.0/arm/arm-none-eabi/include/c++/10.3.1/bits/stl_pair.h ****  * and its documentation for any purpose is hereby granted without fee,
  32:/Library/DaisyToolchain/0.2.0/arm/arm-none-eabi/include/c++/10.3.1/bits/stl_pair.h ****  * provided that the above copyright notice appear in all copies and
  33:/Library/DaisyToolchain/0.2.0/arm/arm-none-eabi/include/c++/10.3.1/bits/stl_pair.h ****  * that both that copyright notice and this permission notice appear
  34:/Library/DaisyToolchain/0.2.0/arm/arm-none-eabi/include/c++/10.3.1/bits/stl_pair.h ****  * in supporting documentation.  Hewlett-Packard Company makes no
  35:/Library/DaisyToolchain/0.2.0/arm/arm-none-eabi/include/c++/10.3.1/bits/stl_pair.h ****  * representations about the suitability of this software for any
  36:/Library/DaisyToolchain/0.2.0/arm/arm-none-eabi/include/c++/10.3.1/bits/stl_pair.h ****  * purpose.  It is provided "as is" without express or implied warranty.
  37:/Library/DaisyToolchain/0.2.0/arm/arm-none-eabi/include/c++/10.3.1/bits/stl_pair.h ****  *
  38:/Library/DaisyToolchain/0.2.0/arm/arm-none-eabi/include/c++/10.3.1/bits/stl_pair.h ****  *
  39:/Library/DaisyToolchain/0.2.0/arm/arm-none-eabi/include/c++/10.3.1/bits/stl_pair.h ****  * Copyright (c) 1996,1997
  40:/Library/DaisyToolchain/0.2.0/arm/arm-none-eabi/include/c++/10.3.1/bits/stl_pair.h ****  * Silicon Graphics Computer Systems, Inc.
  41:/Library/DaisyToolchain/0.2.0/arm/arm-none-eabi/include/c++/10.3.1/bits/stl_pair.h ****  *
  42:/Library/DaisyToolchain/0.2.0/arm/arm-none-eabi/include/c++/10.3.1/bits/stl_pair.h ****  * Permission to use, copy, modify, distribute and sell this software
  43:/Library/DaisyToolchain/0.2.0/arm/arm-none-eabi/include/c++/10.3.1/bits/stl_pair.h ****  * and its documentation for any purpose is hereby granted without fee,
  44:/Library/DaisyToolchain/0.2.0/arm/arm-none-eabi/include/c++/10.3.1/bits/stl_pair.h ****  * provided that the above copyright notice appear in all copies and
  45:/Library/DaisyToolchain/0.2.0/arm/arm-none-eabi/include/c++/10.3.1/bits/stl_pair.h ****  * that both that copyright notice and this permission notice appear
ARM GAS  /var/folders/wz/z09yph4n0qj4t7mjxhl6ttn80000gn/T//cctms0BV.s 			page 40


  46:/Library/DaisyToolchain/0.2.0/arm/arm-none-eabi/include/c++/10.3.1/bits/stl_pair.h ****  * in supporting documentation.  Silicon Graphics makes no
  47:/Library/DaisyToolchain/0.2.0/arm/arm-none-eabi/include/c++/10.3.1/bits/stl_pair.h ****  * representations about the suitability of this software for any
  48:/Library/DaisyToolchain/0.2.0/arm/arm-none-eabi/include/c++/10.3.1/bits/stl_pair.h ****  * purpose.  It is provided "as is" without express or implied warranty.
  49:/Library/DaisyToolchain/0.2.0/arm/arm-none-eabi/include/c++/10.3.1/bits/stl_pair.h ****  */
  50:/Library/DaisyToolchain/0.2.0/arm/arm-none-eabi/include/c++/10.3.1/bits/stl_pair.h **** 
  51:/Library/DaisyToolchain/0.2.0/arm/arm-none-eabi/include/c++/10.3.1/bits/stl_pair.h **** /** @file bits/stl_pair.h
  52:/Library/DaisyToolchain/0.2.0/arm/arm-none-eabi/include/c++/10.3.1/bits/stl_pair.h ****  *  This is an internal header file, included by other library headers.
  53:/Library/DaisyToolchain/0.2.0/arm/arm-none-eabi/include/c++/10.3.1/bits/stl_pair.h ****  *  Do not attempt to use it directly. @headername{utility}
  54:/Library/DaisyToolchain/0.2.0/arm/arm-none-eabi/include/c++/10.3.1/bits/stl_pair.h ****  */
  55:/Library/DaisyToolchain/0.2.0/arm/arm-none-eabi/include/c++/10.3.1/bits/stl_pair.h **** 
  56:/Library/DaisyToolchain/0.2.0/arm/arm-none-eabi/include/c++/10.3.1/bits/stl_pair.h **** #ifndef _STL_PAIR_H
  57:/Library/DaisyToolchain/0.2.0/arm/arm-none-eabi/include/c++/10.3.1/bits/stl_pair.h **** #define _STL_PAIR_H 1
  58:/Library/DaisyToolchain/0.2.0/arm/arm-none-eabi/include/c++/10.3.1/bits/stl_pair.h **** 
  59:/Library/DaisyToolchain/0.2.0/arm/arm-none-eabi/include/c++/10.3.1/bits/stl_pair.h **** #include <bits/move.h> // for std::move / std::forward, and std::swap
  60:/Library/DaisyToolchain/0.2.0/arm/arm-none-eabi/include/c++/10.3.1/bits/stl_pair.h **** 
  61:/Library/DaisyToolchain/0.2.0/arm/arm-none-eabi/include/c++/10.3.1/bits/stl_pair.h **** #if __cplusplus >= 201103L
  62:/Library/DaisyToolchain/0.2.0/arm/arm-none-eabi/include/c++/10.3.1/bits/stl_pair.h **** # include <type_traits> // for std::__decay_and_strip, std::is_reference_v
  63:/Library/DaisyToolchain/0.2.0/arm/arm-none-eabi/include/c++/10.3.1/bits/stl_pair.h **** #endif
  64:/Library/DaisyToolchain/0.2.0/arm/arm-none-eabi/include/c++/10.3.1/bits/stl_pair.h **** #if __cplusplus > 201703L
  65:/Library/DaisyToolchain/0.2.0/arm/arm-none-eabi/include/c++/10.3.1/bits/stl_pair.h **** # include <compare>
  66:/Library/DaisyToolchain/0.2.0/arm/arm-none-eabi/include/c++/10.3.1/bits/stl_pair.h **** # define __cpp_lib_constexpr_utility 201811L
  67:/Library/DaisyToolchain/0.2.0/arm/arm-none-eabi/include/c++/10.3.1/bits/stl_pair.h **** #endif
  68:/Library/DaisyToolchain/0.2.0/arm/arm-none-eabi/include/c++/10.3.1/bits/stl_pair.h **** 
  69:/Library/DaisyToolchain/0.2.0/arm/arm-none-eabi/include/c++/10.3.1/bits/stl_pair.h **** namespace std _GLIBCXX_VISIBILITY(default)
  70:/Library/DaisyToolchain/0.2.0/arm/arm-none-eabi/include/c++/10.3.1/bits/stl_pair.h **** {
  71:/Library/DaisyToolchain/0.2.0/arm/arm-none-eabi/include/c++/10.3.1/bits/stl_pair.h **** _GLIBCXX_BEGIN_NAMESPACE_VERSION
  72:/Library/DaisyToolchain/0.2.0/arm/arm-none-eabi/include/c++/10.3.1/bits/stl_pair.h **** 
  73:/Library/DaisyToolchain/0.2.0/arm/arm-none-eabi/include/c++/10.3.1/bits/stl_pair.h ****   /**
  74:/Library/DaisyToolchain/0.2.0/arm/arm-none-eabi/include/c++/10.3.1/bits/stl_pair.h ****    *  @addtogroup utilities
  75:/Library/DaisyToolchain/0.2.0/arm/arm-none-eabi/include/c++/10.3.1/bits/stl_pair.h ****    *  @{
  76:/Library/DaisyToolchain/0.2.0/arm/arm-none-eabi/include/c++/10.3.1/bits/stl_pair.h ****    */
  77:/Library/DaisyToolchain/0.2.0/arm/arm-none-eabi/include/c++/10.3.1/bits/stl_pair.h **** 
  78:/Library/DaisyToolchain/0.2.0/arm/arm-none-eabi/include/c++/10.3.1/bits/stl_pair.h **** #if __cplusplus >= 201103L
  79:/Library/DaisyToolchain/0.2.0/arm/arm-none-eabi/include/c++/10.3.1/bits/stl_pair.h ****   /// Tag type for piecewise construction of std::pair objects.
  80:/Library/DaisyToolchain/0.2.0/arm/arm-none-eabi/include/c++/10.3.1/bits/stl_pair.h ****   struct piecewise_construct_t { explicit piecewise_construct_t() = default; };
  81:/Library/DaisyToolchain/0.2.0/arm/arm-none-eabi/include/c++/10.3.1/bits/stl_pair.h **** 
  82:/Library/DaisyToolchain/0.2.0/arm/arm-none-eabi/include/c++/10.3.1/bits/stl_pair.h ****   /// Tag for piecewise construction of std::pair objects.
  83:/Library/DaisyToolchain/0.2.0/arm/arm-none-eabi/include/c++/10.3.1/bits/stl_pair.h ****   _GLIBCXX17_INLINE constexpr piecewise_construct_t piecewise_construct =
  84:/Library/DaisyToolchain/0.2.0/arm/arm-none-eabi/include/c++/10.3.1/bits/stl_pair.h ****     piecewise_construct_t();
  85:/Library/DaisyToolchain/0.2.0/arm/arm-none-eabi/include/c++/10.3.1/bits/stl_pair.h **** 
  86:/Library/DaisyToolchain/0.2.0/arm/arm-none-eabi/include/c++/10.3.1/bits/stl_pair.h ****   /// @cond undocumented
  87:/Library/DaisyToolchain/0.2.0/arm/arm-none-eabi/include/c++/10.3.1/bits/stl_pair.h **** 
  88:/Library/DaisyToolchain/0.2.0/arm/arm-none-eabi/include/c++/10.3.1/bits/stl_pair.h ****   // Forward declarations.
  89:/Library/DaisyToolchain/0.2.0/arm/arm-none-eabi/include/c++/10.3.1/bits/stl_pair.h ****   template<typename...>
  90:/Library/DaisyToolchain/0.2.0/arm/arm-none-eabi/include/c++/10.3.1/bits/stl_pair.h ****     class tuple;
  91:/Library/DaisyToolchain/0.2.0/arm/arm-none-eabi/include/c++/10.3.1/bits/stl_pair.h **** 
  92:/Library/DaisyToolchain/0.2.0/arm/arm-none-eabi/include/c++/10.3.1/bits/stl_pair.h ****   template<std::size_t...>
  93:/Library/DaisyToolchain/0.2.0/arm/arm-none-eabi/include/c++/10.3.1/bits/stl_pair.h ****     struct _Index_tuple;
  94:/Library/DaisyToolchain/0.2.0/arm/arm-none-eabi/include/c++/10.3.1/bits/stl_pair.h **** 
  95:/Library/DaisyToolchain/0.2.0/arm/arm-none-eabi/include/c++/10.3.1/bits/stl_pair.h ****   // Concept utility functions, reused in conditionally-explicit
  96:/Library/DaisyToolchain/0.2.0/arm/arm-none-eabi/include/c++/10.3.1/bits/stl_pair.h ****   // constructors.
  97:/Library/DaisyToolchain/0.2.0/arm/arm-none-eabi/include/c++/10.3.1/bits/stl_pair.h ****   // See PR 70437, don't look at is_constructible or
  98:/Library/DaisyToolchain/0.2.0/arm/arm-none-eabi/include/c++/10.3.1/bits/stl_pair.h ****   // is_convertible if the types are the same to
  99:/Library/DaisyToolchain/0.2.0/arm/arm-none-eabi/include/c++/10.3.1/bits/stl_pair.h ****   // avoid querying those properties for incomplete types.
 100:/Library/DaisyToolchain/0.2.0/arm/arm-none-eabi/include/c++/10.3.1/bits/stl_pair.h ****   template <bool, typename _T1, typename _T2>
 101:/Library/DaisyToolchain/0.2.0/arm/arm-none-eabi/include/c++/10.3.1/bits/stl_pair.h ****     struct _PCC
 102:/Library/DaisyToolchain/0.2.0/arm/arm-none-eabi/include/c++/10.3.1/bits/stl_pair.h ****     {
ARM GAS  /var/folders/wz/z09yph4n0qj4t7mjxhl6ttn80000gn/T//cctms0BV.s 			page 41


 103:/Library/DaisyToolchain/0.2.0/arm/arm-none-eabi/include/c++/10.3.1/bits/stl_pair.h ****       template <typename _U1, typename _U2>
 104:/Library/DaisyToolchain/0.2.0/arm/arm-none-eabi/include/c++/10.3.1/bits/stl_pair.h ****       static constexpr bool _ConstructiblePair()
 105:/Library/DaisyToolchain/0.2.0/arm/arm-none-eabi/include/c++/10.3.1/bits/stl_pair.h ****       {
 106:/Library/DaisyToolchain/0.2.0/arm/arm-none-eabi/include/c++/10.3.1/bits/stl_pair.h **** 	return __and_<is_constructible<_T1, const _U1&>,
 107:/Library/DaisyToolchain/0.2.0/arm/arm-none-eabi/include/c++/10.3.1/bits/stl_pair.h **** 		      is_constructible<_T2, const _U2&>>::value;
 108:/Library/DaisyToolchain/0.2.0/arm/arm-none-eabi/include/c++/10.3.1/bits/stl_pair.h ****       }
 109:/Library/DaisyToolchain/0.2.0/arm/arm-none-eabi/include/c++/10.3.1/bits/stl_pair.h **** 
 110:/Library/DaisyToolchain/0.2.0/arm/arm-none-eabi/include/c++/10.3.1/bits/stl_pair.h ****       template <typename _U1, typename _U2>
 111:/Library/DaisyToolchain/0.2.0/arm/arm-none-eabi/include/c++/10.3.1/bits/stl_pair.h ****       static constexpr bool _ImplicitlyConvertiblePair()
 112:/Library/DaisyToolchain/0.2.0/arm/arm-none-eabi/include/c++/10.3.1/bits/stl_pair.h ****       {
 113:/Library/DaisyToolchain/0.2.0/arm/arm-none-eabi/include/c++/10.3.1/bits/stl_pair.h **** 	return __and_<is_convertible<const _U1&, _T1>,
 114:/Library/DaisyToolchain/0.2.0/arm/arm-none-eabi/include/c++/10.3.1/bits/stl_pair.h **** 		      is_convertible<const _U2&, _T2>>::value;
 115:/Library/DaisyToolchain/0.2.0/arm/arm-none-eabi/include/c++/10.3.1/bits/stl_pair.h ****       }
 116:/Library/DaisyToolchain/0.2.0/arm/arm-none-eabi/include/c++/10.3.1/bits/stl_pair.h **** 
 117:/Library/DaisyToolchain/0.2.0/arm/arm-none-eabi/include/c++/10.3.1/bits/stl_pair.h ****       template <typename _U1, typename _U2>
 118:/Library/DaisyToolchain/0.2.0/arm/arm-none-eabi/include/c++/10.3.1/bits/stl_pair.h ****       static constexpr bool _MoveConstructiblePair()
 119:/Library/DaisyToolchain/0.2.0/arm/arm-none-eabi/include/c++/10.3.1/bits/stl_pair.h ****       {
 120:/Library/DaisyToolchain/0.2.0/arm/arm-none-eabi/include/c++/10.3.1/bits/stl_pair.h **** 	return __and_<is_constructible<_T1, _U1&&>,
 121:/Library/DaisyToolchain/0.2.0/arm/arm-none-eabi/include/c++/10.3.1/bits/stl_pair.h **** 		      is_constructible<_T2, _U2&&>>::value;
 122:/Library/DaisyToolchain/0.2.0/arm/arm-none-eabi/include/c++/10.3.1/bits/stl_pair.h ****       }
 123:/Library/DaisyToolchain/0.2.0/arm/arm-none-eabi/include/c++/10.3.1/bits/stl_pair.h **** 
 124:/Library/DaisyToolchain/0.2.0/arm/arm-none-eabi/include/c++/10.3.1/bits/stl_pair.h ****       template <typename _U1, typename _U2>
 125:/Library/DaisyToolchain/0.2.0/arm/arm-none-eabi/include/c++/10.3.1/bits/stl_pair.h ****       static constexpr bool _ImplicitlyMoveConvertiblePair()
 126:/Library/DaisyToolchain/0.2.0/arm/arm-none-eabi/include/c++/10.3.1/bits/stl_pair.h ****       {
 127:/Library/DaisyToolchain/0.2.0/arm/arm-none-eabi/include/c++/10.3.1/bits/stl_pair.h **** 	return __and_<is_convertible<_U1&&, _T1>,
 128:/Library/DaisyToolchain/0.2.0/arm/arm-none-eabi/include/c++/10.3.1/bits/stl_pair.h **** 		      is_convertible<_U2&&, _T2>>::value;
 129:/Library/DaisyToolchain/0.2.0/arm/arm-none-eabi/include/c++/10.3.1/bits/stl_pair.h ****       }
 130:/Library/DaisyToolchain/0.2.0/arm/arm-none-eabi/include/c++/10.3.1/bits/stl_pair.h **** 
 131:/Library/DaisyToolchain/0.2.0/arm/arm-none-eabi/include/c++/10.3.1/bits/stl_pair.h ****       template <bool __implicit, typename _U1, typename _U2>
 132:/Library/DaisyToolchain/0.2.0/arm/arm-none-eabi/include/c++/10.3.1/bits/stl_pair.h ****       static constexpr bool _CopyMovePair()
 133:/Library/DaisyToolchain/0.2.0/arm/arm-none-eabi/include/c++/10.3.1/bits/stl_pair.h ****       {
 134:/Library/DaisyToolchain/0.2.0/arm/arm-none-eabi/include/c++/10.3.1/bits/stl_pair.h **** 	using __do_converts = __and_<is_convertible<const _U1&, _T1>,
 135:/Library/DaisyToolchain/0.2.0/arm/arm-none-eabi/include/c++/10.3.1/bits/stl_pair.h **** 				  is_convertible<_U2&&, _T2>>;
 136:/Library/DaisyToolchain/0.2.0/arm/arm-none-eabi/include/c++/10.3.1/bits/stl_pair.h **** 	using __converts = typename conditional<__implicit,
 137:/Library/DaisyToolchain/0.2.0/arm/arm-none-eabi/include/c++/10.3.1/bits/stl_pair.h **** 				       __do_converts,
 138:/Library/DaisyToolchain/0.2.0/arm/arm-none-eabi/include/c++/10.3.1/bits/stl_pair.h **** 				       __not_<__do_converts>>::type;
 139:/Library/DaisyToolchain/0.2.0/arm/arm-none-eabi/include/c++/10.3.1/bits/stl_pair.h **** 	return __and_<is_constructible<_T1, const _U1&>,
 140:/Library/DaisyToolchain/0.2.0/arm/arm-none-eabi/include/c++/10.3.1/bits/stl_pair.h **** 		      is_constructible<_T2, _U2&&>,
 141:/Library/DaisyToolchain/0.2.0/arm/arm-none-eabi/include/c++/10.3.1/bits/stl_pair.h **** 		      __converts
 142:/Library/DaisyToolchain/0.2.0/arm/arm-none-eabi/include/c++/10.3.1/bits/stl_pair.h **** 		      >::value;
 143:/Library/DaisyToolchain/0.2.0/arm/arm-none-eabi/include/c++/10.3.1/bits/stl_pair.h ****       }
 144:/Library/DaisyToolchain/0.2.0/arm/arm-none-eabi/include/c++/10.3.1/bits/stl_pair.h **** 
 145:/Library/DaisyToolchain/0.2.0/arm/arm-none-eabi/include/c++/10.3.1/bits/stl_pair.h ****       template <bool __implicit, typename _U1, typename _U2>
 146:/Library/DaisyToolchain/0.2.0/arm/arm-none-eabi/include/c++/10.3.1/bits/stl_pair.h ****       static constexpr bool _MoveCopyPair()
 147:/Library/DaisyToolchain/0.2.0/arm/arm-none-eabi/include/c++/10.3.1/bits/stl_pair.h ****       {
 148:/Library/DaisyToolchain/0.2.0/arm/arm-none-eabi/include/c++/10.3.1/bits/stl_pair.h **** 	using __do_converts = __and_<is_convertible<_U1&&, _T1>,
 149:/Library/DaisyToolchain/0.2.0/arm/arm-none-eabi/include/c++/10.3.1/bits/stl_pair.h **** 				  is_convertible<const _U2&, _T2>>;
 150:/Library/DaisyToolchain/0.2.0/arm/arm-none-eabi/include/c++/10.3.1/bits/stl_pair.h **** 	using __converts = typename conditional<__implicit,
 151:/Library/DaisyToolchain/0.2.0/arm/arm-none-eabi/include/c++/10.3.1/bits/stl_pair.h **** 				       __do_converts,
 152:/Library/DaisyToolchain/0.2.0/arm/arm-none-eabi/include/c++/10.3.1/bits/stl_pair.h **** 				       __not_<__do_converts>>::type;
 153:/Library/DaisyToolchain/0.2.0/arm/arm-none-eabi/include/c++/10.3.1/bits/stl_pair.h **** 	return __and_<is_constructible<_T1, _U1&&>,
 154:/Library/DaisyToolchain/0.2.0/arm/arm-none-eabi/include/c++/10.3.1/bits/stl_pair.h **** 		      is_constructible<_T2, const _U2&&>,
 155:/Library/DaisyToolchain/0.2.0/arm/arm-none-eabi/include/c++/10.3.1/bits/stl_pair.h **** 		      __converts
 156:/Library/DaisyToolchain/0.2.0/arm/arm-none-eabi/include/c++/10.3.1/bits/stl_pair.h **** 		      >::value;
 157:/Library/DaisyToolchain/0.2.0/arm/arm-none-eabi/include/c++/10.3.1/bits/stl_pair.h ****       }
 158:/Library/DaisyToolchain/0.2.0/arm/arm-none-eabi/include/c++/10.3.1/bits/stl_pair.h ****   };
 159:/Library/DaisyToolchain/0.2.0/arm/arm-none-eabi/include/c++/10.3.1/bits/stl_pair.h **** 
ARM GAS  /var/folders/wz/z09yph4n0qj4t7mjxhl6ttn80000gn/T//cctms0BV.s 			page 42


 160:/Library/DaisyToolchain/0.2.0/arm/arm-none-eabi/include/c++/10.3.1/bits/stl_pair.h ****   template <typename _T1, typename _T2>
 161:/Library/DaisyToolchain/0.2.0/arm/arm-none-eabi/include/c++/10.3.1/bits/stl_pair.h ****     struct _PCC<false, _T1, _T2>
 162:/Library/DaisyToolchain/0.2.0/arm/arm-none-eabi/include/c++/10.3.1/bits/stl_pair.h ****     {
 163:/Library/DaisyToolchain/0.2.0/arm/arm-none-eabi/include/c++/10.3.1/bits/stl_pair.h ****       template <typename _U1, typename _U2>
 164:/Library/DaisyToolchain/0.2.0/arm/arm-none-eabi/include/c++/10.3.1/bits/stl_pair.h ****       static constexpr bool _ConstructiblePair()
 165:/Library/DaisyToolchain/0.2.0/arm/arm-none-eabi/include/c++/10.3.1/bits/stl_pair.h ****       {
 166:/Library/DaisyToolchain/0.2.0/arm/arm-none-eabi/include/c++/10.3.1/bits/stl_pair.h **** 	return false;
 167:/Library/DaisyToolchain/0.2.0/arm/arm-none-eabi/include/c++/10.3.1/bits/stl_pair.h ****       }
 168:/Library/DaisyToolchain/0.2.0/arm/arm-none-eabi/include/c++/10.3.1/bits/stl_pair.h **** 
 169:/Library/DaisyToolchain/0.2.0/arm/arm-none-eabi/include/c++/10.3.1/bits/stl_pair.h ****       template <typename _U1, typename _U2>
 170:/Library/DaisyToolchain/0.2.0/arm/arm-none-eabi/include/c++/10.3.1/bits/stl_pair.h ****       static constexpr bool _ImplicitlyConvertiblePair()
 171:/Library/DaisyToolchain/0.2.0/arm/arm-none-eabi/include/c++/10.3.1/bits/stl_pair.h ****       {
 172:/Library/DaisyToolchain/0.2.0/arm/arm-none-eabi/include/c++/10.3.1/bits/stl_pair.h **** 	return false;
 173:/Library/DaisyToolchain/0.2.0/arm/arm-none-eabi/include/c++/10.3.1/bits/stl_pair.h ****       }
 174:/Library/DaisyToolchain/0.2.0/arm/arm-none-eabi/include/c++/10.3.1/bits/stl_pair.h **** 
 175:/Library/DaisyToolchain/0.2.0/arm/arm-none-eabi/include/c++/10.3.1/bits/stl_pair.h ****       template <typename _U1, typename _U2>
 176:/Library/DaisyToolchain/0.2.0/arm/arm-none-eabi/include/c++/10.3.1/bits/stl_pair.h ****       static constexpr bool _MoveConstructiblePair()
 177:/Library/DaisyToolchain/0.2.0/arm/arm-none-eabi/include/c++/10.3.1/bits/stl_pair.h ****       {
 178:/Library/DaisyToolchain/0.2.0/arm/arm-none-eabi/include/c++/10.3.1/bits/stl_pair.h **** 	return false;
 179:/Library/DaisyToolchain/0.2.0/arm/arm-none-eabi/include/c++/10.3.1/bits/stl_pair.h ****       }
 180:/Library/DaisyToolchain/0.2.0/arm/arm-none-eabi/include/c++/10.3.1/bits/stl_pair.h **** 
 181:/Library/DaisyToolchain/0.2.0/arm/arm-none-eabi/include/c++/10.3.1/bits/stl_pair.h ****       template <typename _U1, typename _U2>
 182:/Library/DaisyToolchain/0.2.0/arm/arm-none-eabi/include/c++/10.3.1/bits/stl_pair.h ****       static constexpr bool _ImplicitlyMoveConvertiblePair()
 183:/Library/DaisyToolchain/0.2.0/arm/arm-none-eabi/include/c++/10.3.1/bits/stl_pair.h ****       {
 184:/Library/DaisyToolchain/0.2.0/arm/arm-none-eabi/include/c++/10.3.1/bits/stl_pair.h **** 	return false;
 185:/Library/DaisyToolchain/0.2.0/arm/arm-none-eabi/include/c++/10.3.1/bits/stl_pair.h ****       }
 186:/Library/DaisyToolchain/0.2.0/arm/arm-none-eabi/include/c++/10.3.1/bits/stl_pair.h ****   };
 187:/Library/DaisyToolchain/0.2.0/arm/arm-none-eabi/include/c++/10.3.1/bits/stl_pair.h **** #endif // C++11
 188:/Library/DaisyToolchain/0.2.0/arm/arm-none-eabi/include/c++/10.3.1/bits/stl_pair.h **** 
 189:/Library/DaisyToolchain/0.2.0/arm/arm-none-eabi/include/c++/10.3.1/bits/stl_pair.h ****   template<typename _U1, typename _U2> class __pair_base
 190:/Library/DaisyToolchain/0.2.0/arm/arm-none-eabi/include/c++/10.3.1/bits/stl_pair.h ****   {
 191:/Library/DaisyToolchain/0.2.0/arm/arm-none-eabi/include/c++/10.3.1/bits/stl_pair.h **** #if __cplusplus >= 201103L
 192:/Library/DaisyToolchain/0.2.0/arm/arm-none-eabi/include/c++/10.3.1/bits/stl_pair.h ****     template<typename _T1, typename _T2> friend struct pair;
 193:/Library/DaisyToolchain/0.2.0/arm/arm-none-eabi/include/c++/10.3.1/bits/stl_pair.h ****     __pair_base() = default;
 194:/Library/DaisyToolchain/0.2.0/arm/arm-none-eabi/include/c++/10.3.1/bits/stl_pair.h ****     ~__pair_base() = default;
 195:/Library/DaisyToolchain/0.2.0/arm/arm-none-eabi/include/c++/10.3.1/bits/stl_pair.h ****     __pair_base(const __pair_base&) = default;
 196:/Library/DaisyToolchain/0.2.0/arm/arm-none-eabi/include/c++/10.3.1/bits/stl_pair.h ****     __pair_base& operator=(const __pair_base&) = delete;
 197:/Library/DaisyToolchain/0.2.0/arm/arm-none-eabi/include/c++/10.3.1/bits/stl_pair.h **** #endif // C++11
 198:/Library/DaisyToolchain/0.2.0/arm/arm-none-eabi/include/c++/10.3.1/bits/stl_pair.h ****   };
 199:/Library/DaisyToolchain/0.2.0/arm/arm-none-eabi/include/c++/10.3.1/bits/stl_pair.h **** 
 200:/Library/DaisyToolchain/0.2.0/arm/arm-none-eabi/include/c++/10.3.1/bits/stl_pair.h ****   /// @endcond
 201:/Library/DaisyToolchain/0.2.0/arm/arm-none-eabi/include/c++/10.3.1/bits/stl_pair.h **** 
 202:/Library/DaisyToolchain/0.2.0/arm/arm-none-eabi/include/c++/10.3.1/bits/stl_pair.h ****  /**
 203:/Library/DaisyToolchain/0.2.0/arm/arm-none-eabi/include/c++/10.3.1/bits/stl_pair.h ****    *  @brief Struct holding two objects of arbitrary type.
 204:/Library/DaisyToolchain/0.2.0/arm/arm-none-eabi/include/c++/10.3.1/bits/stl_pair.h ****    *
 205:/Library/DaisyToolchain/0.2.0/arm/arm-none-eabi/include/c++/10.3.1/bits/stl_pair.h ****    *  @tparam _T1  Type of first object.
 206:/Library/DaisyToolchain/0.2.0/arm/arm-none-eabi/include/c++/10.3.1/bits/stl_pair.h ****    *  @tparam _T2  Type of second object.
 207:/Library/DaisyToolchain/0.2.0/arm/arm-none-eabi/include/c++/10.3.1/bits/stl_pair.h ****    *
 208:/Library/DaisyToolchain/0.2.0/arm/arm-none-eabi/include/c++/10.3.1/bits/stl_pair.h ****    *  <https://gcc.gnu.org/onlinedocs/libstdc++/manual/utilities.html>
 209:/Library/DaisyToolchain/0.2.0/arm/arm-none-eabi/include/c++/10.3.1/bits/stl_pair.h ****    */
 210:/Library/DaisyToolchain/0.2.0/arm/arm-none-eabi/include/c++/10.3.1/bits/stl_pair.h ****   template<typename _T1, typename _T2>
 211:/Library/DaisyToolchain/0.2.0/arm/arm-none-eabi/include/c++/10.3.1/bits/stl_pair.h ****     struct pair
 212:/Library/DaisyToolchain/0.2.0/arm/arm-none-eabi/include/c++/10.3.1/bits/stl_pair.h ****     : private __pair_base<_T1, _T2>
 213:/Library/DaisyToolchain/0.2.0/arm/arm-none-eabi/include/c++/10.3.1/bits/stl_pair.h ****     {
 214:/Library/DaisyToolchain/0.2.0/arm/arm-none-eabi/include/c++/10.3.1/bits/stl_pair.h ****       typedef _T1 first_type;    ///< The type of the `first` member
 215:/Library/DaisyToolchain/0.2.0/arm/arm-none-eabi/include/c++/10.3.1/bits/stl_pair.h ****       typedef _T2 second_type;   ///< The type of the `second` member
 216:/Library/DaisyToolchain/0.2.0/arm/arm-none-eabi/include/c++/10.3.1/bits/stl_pair.h **** 
ARM GAS  /var/folders/wz/z09yph4n0qj4t7mjxhl6ttn80000gn/T//cctms0BV.s 			page 43


 217:/Library/DaisyToolchain/0.2.0/arm/arm-none-eabi/include/c++/10.3.1/bits/stl_pair.h ****       _T1 first;                 ///< The first member
 218:/Library/DaisyToolchain/0.2.0/arm/arm-none-eabi/include/c++/10.3.1/bits/stl_pair.h ****       _T2 second;                ///< The second member
 219:/Library/DaisyToolchain/0.2.0/arm/arm-none-eabi/include/c++/10.3.1/bits/stl_pair.h **** 
 220:/Library/DaisyToolchain/0.2.0/arm/arm-none-eabi/include/c++/10.3.1/bits/stl_pair.h ****       // _GLIBCXX_RESOLVE_LIB_DEFECTS
 221:/Library/DaisyToolchain/0.2.0/arm/arm-none-eabi/include/c++/10.3.1/bits/stl_pair.h ****       // 265.  std::pair::pair() effects overly restrictive
 222:/Library/DaisyToolchain/0.2.0/arm/arm-none-eabi/include/c++/10.3.1/bits/stl_pair.h ****       /** The default constructor creates @c first and @c second using their
 223:/Library/DaisyToolchain/0.2.0/arm/arm-none-eabi/include/c++/10.3.1/bits/stl_pair.h ****        *  respective default constructors.  */
 224:/Library/DaisyToolchain/0.2.0/arm/arm-none-eabi/include/c++/10.3.1/bits/stl_pair.h **** #if __cplusplus >= 201103L
 225:/Library/DaisyToolchain/0.2.0/arm/arm-none-eabi/include/c++/10.3.1/bits/stl_pair.h ****       template <typename _U1 = _T1,
 226:/Library/DaisyToolchain/0.2.0/arm/arm-none-eabi/include/c++/10.3.1/bits/stl_pair.h ****                 typename _U2 = _T2,
 227:/Library/DaisyToolchain/0.2.0/arm/arm-none-eabi/include/c++/10.3.1/bits/stl_pair.h ****                 typename enable_if<__and_<
 228:/Library/DaisyToolchain/0.2.0/arm/arm-none-eabi/include/c++/10.3.1/bits/stl_pair.h ****                                      __is_implicitly_default_constructible<_U1>,
 229:/Library/DaisyToolchain/0.2.0/arm/arm-none-eabi/include/c++/10.3.1/bits/stl_pair.h ****                                      __is_implicitly_default_constructible<_U2>>
 230:/Library/DaisyToolchain/0.2.0/arm/arm-none-eabi/include/c++/10.3.1/bits/stl_pair.h ****                                    ::value, bool>::type = true>
 231:/Library/DaisyToolchain/0.2.0/arm/arm-none-eabi/include/c++/10.3.1/bits/stl_pair.h **** #endif
 232:/Library/DaisyToolchain/0.2.0/arm/arm-none-eabi/include/c++/10.3.1/bits/stl_pair.h ****       _GLIBCXX_CONSTEXPR pair()
 834              		.loc 14 232 26 view .LVU190
 835              	.LBB308:
 836              	.LBB309:
 233:/Library/DaisyToolchain/0.2.0/arm/arm-none-eabi/include/c++/10.3.1/bits/stl_pair.h ****       : first(), second() { }
 837              		.loc 14 233 25 is_stmt 0 view .LVU191
 838 0032 104B     		ldr	r3, .L35+32
 839              	.LBE309:
 840              	.LBE308:
 841              	.LBE307:
 842              	.LBB312:
 843              	.LBB313:
 844              		.file 15 "DSP/FX/../../Parameters/AudioParameter.h"
   1:DSP/FX/../../Parameters/AudioParameter.h **** #ifndef AUDIO_PARAMETER_H
   2:DSP/FX/../../Parameters/AudioParameter.h **** #define AUDIO_PARAMETER_H
   3:DSP/FX/../../Parameters/AudioParameter.h **** 
   4:DSP/FX/../../Parameters/AudioParameter.h **** #include "daisy_seed.h"
   5:DSP/FX/../../Parameters/AudioParameter.h **** #include "daisysp.h"
   6:DSP/FX/../../Parameters/AudioParameter.h **** #include "../Utils/Helpers.h"
   7:DSP/FX/../../Parameters/AudioParameter.h **** #include "../Utils/Constants.h"
   8:DSP/FX/../../Parameters/AudioParameter.h **** #include <cstdint>
   9:DSP/FX/../../Parameters/AudioParameter.h **** 
  10:DSP/FX/../../Parameters/AudioParameter.h **** /*****************************************************************************//**
  11:DSP/FX/../../Parameters/AudioParameter.h ****  *  Class name: AudioParameter
  12:DSP/FX/../../Parameters/AudioParameter.h ****  *  Function: Parameter object for DSP classes that contains pot boilerplate code
  13:DSP/FX/../../Parameters/AudioParameter.h ****  ********************************************************************************/
  14:DSP/FX/../../Parameters/AudioParameter.h **** 
  15:DSP/FX/../../Parameters/AudioParameter.h **** using namespace daisy;
  16:DSP/FX/../../Parameters/AudioParameter.h **** 
  17:DSP/FX/../../Parameters/AudioParameter.h **** template <class type>
  18:DSP/FX/../../Parameters/AudioParameter.h **** class AudioParameter
 845              		.loc 15 18 7 view .LVU192
 846 0034 104A     		ldr	r2, .L35+36
 847              	.LBE313:
 848              	.LBE312:
 849              	.LBB315:
 850              	.LBB311:
 851              	.LBB310:
 852              		.loc 14 233 25 view .LVU193
 853 0036 C3E90844 		strd	r4, r4, [r3, #32]
 854              	.LVL46:
 855              		.loc 14 233 25 view .LVU194
ARM GAS  /var/folders/wz/z09yph4n0qj4t7mjxhl6ttn80000gn/T//cctms0BV.s 			page 44


 856              	.LBE310:
 857              	.LBE311:
 858              	.LBE315:
 859              	.LBB316:
 860              	.LBI312:
 861              		.loc 15 18 7 is_stmt 1 view .LVU195
 862              	.LBB314:
 863 003a 1A63     		str	r2, [r3, #48]	@ float
 864              	.LVL47:
 865              		.loc 15 18 7 is_stmt 0 view .LVU196
 866              	.LBE314:
 867              	.LBE316:
 868              	.LBE306:
 869              	.LBB317:
 870              	.LBI317:
 871              		.loc 10 27 12 is_stmt 1 view .LVU197
 872              	.LBB318:
 873              	.LBI318:
 232:/Library/DaisyToolchain/0.2.0/arm/arm-none-eabi/include/c++/10.3.1/bits/stl_pair.h ****       : first(), second() { }
 874              		.loc 14 232 26 view .LVU198
 875              	.LBE318:
 876              	.LBB321:
 877              	.LBB322:
 878              		.loc 15 18 7 is_stmt 0 view .LVU199
 879 003c 5A67     		str	r2, [r3, #116]	@ float
 880              	.LBE322:
 881              	.LBE321:
 882              	.LBE317:
 883              	.LBB325:
 884              	.LBB326:
 885              	.LBB327:
 886 003e C3F8B820 		str	r2, [r3, #184]	@ float
 887              	.LBE327:
 888              	.LBE326:
 889              	.LBE325:
 890              	.LBB332:
 891              	.LBB333:
 892              	.LBB334:
 893 0042 C3F8FC20 		str	r2, [r3, #252]	@ float
 894              	.LBE334:
 895              	.LBE333:
 896              	.LBE332:
 897              	.LBB339:
 898              	.LBB323:
 899              	.LBB319:
 900              	.LBB320:
 901              		.loc 14 233 25 view .LVU200
 902 0046 C3E91944 		strd	r4, r4, [r3, #100]
 903              	.LVL48:
 904              		.loc 14 233 25 view .LVU201
 905              	.LBE320:
 906              	.LBE319:
 907              	.LBE323:
 908              	.LBB324:
 909              	.LBI321:
 910              		.loc 15 18 7 is_stmt 1 view .LVU202
 911              		.loc 15 18 7 is_stmt 0 view .LVU203
ARM GAS  /var/folders/wz/z09yph4n0qj4t7mjxhl6ttn80000gn/T//cctms0BV.s 			page 45


 912              	.LBE324:
 913              	.LBE339:
 914              	.LBB340:
 915              	.LBI325:
 916              		.loc 10 27 12 is_stmt 1 view .LVU204
 917              	.LBB328:
 918              	.LBI328:
 232:/Library/DaisyToolchain/0.2.0/arm/arm-none-eabi/include/c++/10.3.1/bits/stl_pair.h ****       : first(), second() { }
 919              		.loc 14 232 26 view .LVU205
 920              	.LBB329:
 921              	.LBB330:
 922              		.loc 14 233 25 is_stmt 0 view .LVU206
 923 004a C3E92A44 		strd	r4, r4, [r3, #168]
 924              	.LVL49:
 925              		.loc 14 233 25 view .LVU207
 926              	.LBE330:
 927              	.LBE329:
 928              	.LBE328:
 929              	.LBB331:
 930              	.LBI326:
 931              		.loc 15 18 7 is_stmt 1 view .LVU208
 932              		.loc 15 18 7 is_stmt 0 view .LVU209
 933              	.LBE331:
 934              	.LBE340:
 935              	.LBB341:
 936              	.LBI332:
 937              		.loc 10 27 12 is_stmt 1 view .LVU210
 938              	.LBB335:
 939              	.LBI335:
 232:/Library/DaisyToolchain/0.2.0/arm/arm-none-eabi/include/c++/10.3.1/bits/stl_pair.h ****       : first(), second() { }
 940              		.loc 14 232 26 view .LVU211
 941              	.LBB336:
 942              	.LBB337:
 943              		.loc 14 233 25 is_stmt 0 view .LVU212
 944 004e C3E93B44 		strd	r4, r4, [r3, #236]
 945              	.LVL50:
 946              		.loc 14 233 25 view .LVU213
 947              	.LBE337:
 948              	.LBE336:
 949              	.LBE335:
 950              	.LBB338:
 951              	.LBI333:
 952              		.loc 15 18 7 is_stmt 1 view .LVU214
 953              		.loc 15 18 7 is_stmt 0 view .LVU215
 954              	.LBE338:
 955              	.LBE341:
 956              	.LBE305:
 957              	.LBE342:
 958              	.LBE343:
 959              		.loc 8 123 1 view .LVU216
 960 0052 10BD     		pop	{r4, pc}
 961              	.L36:
 962              		.align	2
 963              	.L35:
 964 0054 00000000 		.word	__dso_handle
 965 0058 00000000 		.word	_ZN7daisysp9DelayLineIfLj240000EED1Ev
 966 005c 00000000 		.word	delayLine
ARM GAS  /var/folders/wz/z09yph4n0qj4t7mjxhl6ttn80000gn/T//cctms0BV.s 			page 46


 967 0060 00000000 		.word	.LANCHOR1
 968 0064 00000000 		.word	_ZN5daisy9DaisySeedD1Ev
 969 0068 00000000 		.word	_ZN5daisy6SwitchD1Ev
 970 006c 00000000 		.word	.LANCHOR2
 971 0070 00000000 		.word	.LANCHOR3
 972 0074 00000000 		.word	.LANCHOR0
 973 0078 0AD7233C 		.word	1008981770
 974              		.cfi_endproc
 975              	.LFE5385:
 977              		.section	.init_array,"aw",%init_array
 978              		.align	2
 979 0000 00000000 		.word	_GLOBAL__sub_I_delayLine(target1)
 980              		.global	_ZN7Buffers9track4PtrE
 981              		.global	_ZN7Buffers9track3PtrE
 982              		.global	_ZN7Buffers9track2PtrE
 983              		.global	_ZN7Buffers9track1PtrE
 984              		.global	_ZN7Buffers6mixPtrE
 985              		.global	_ZN7Buffers6track4E
 986              		.global	_ZN7Buffers6track3E
 987              		.global	_ZN7Buffers6track2E
 988              		.global	_ZN7Buffers6track1E
 989              		.global	_ZN7Buffers3mixE
 990              		.global	mixer
 991              		.global	connectionMatrix
 992              		.global	isPlay
 993              		.global	isRecord
 994              		.global	amp1
 995              		.global	play
 996              		.global	record
 997              		.global	hw
 998              		.global	delayLine
 999              		.section	.bss.amp1,"aw",%nobits
 1000              		.align	2
 1001              		.set	.LANCHOR11,. + 0
 1004              	amp1:
 1005 0000 00000000 		.space	17
 1005      00000000 
 1005      00000000 
 1005      00000000 
 1005      00
 1006              		.section	.bss.connectionMatrix,"aw",%nobits
 1007              		.align	2
 1010              	connectionMatrix:
 1011 0000 00       		.space	1
 1012              		.section	.bss.hw,"aw",%nobits
 1013              		.align	2
 1014              		.set	.LANCHOR1,. + 0
 1017              	hw:
 1018 0000 00000000 		.space	60
 1018      00000000 
 1018      00000000 
 1018      00000000 
 1018      00000000 
 1019              		.section	.bss.isPlay,"aw",%nobits
 1020              		.set	.LANCHOR5,. + 0
 1023              	isPlay:
 1024 0000 00       		.space	1
ARM GAS  /var/folders/wz/z09yph4n0qj4t7mjxhl6ttn80000gn/T//cctms0BV.s 			page 47


 1025              		.section	.bss.isRecord,"aw",%nobits
 1026              		.set	.LANCHOR4,. + 0
 1029              	isRecord:
 1030 0000 00       		.space	1
 1031              		.section	.bss.mixer,"aw",%nobits
 1032              		.align	2
 1033              		.set	.LANCHOR0,. + 0
 1036              	mixer:
 1037 0000 00000000 		.space	284
 1037      00000000 
 1037      00000000 
 1037      00000000 
 1037      00000000 
 1038              		.section	.bss.play,"aw",%nobits
 1039              		.align	2
 1040              		.set	.LANCHOR3,. + 0
 1043              	play:
 1044 0000 00000000 		.space	16
 1044      00000000 
 1044      00000000 
 1044      00000000 
 1045              		.section	.bss.record,"aw",%nobits
 1046              		.align	2
 1047              		.set	.LANCHOR2,. + 0
 1050              	record:
 1051 0000 00000000 		.space	16
 1051      00000000 
 1051      00000000 
 1051      00000000 
 1052              		.section	.data._ZN7Buffers6mixPtrE,"aw"
 1053              		.align	2
 1054              		.set	.LANCHOR7,. + 0
 1057              	_ZN7Buffers6mixPtrE:
 1058 0000 00000000 		.word	_ZN7Buffers3mixE
 1059 0004 004C1D00 		.word	_ZN7Buffers3mixE+1920000
 1060              		.section	.data._ZN7Buffers9track1PtrE,"aw"
 1061              		.align	2
 1062              		.set	.LANCHOR6,. + 0
 1065              	_ZN7Buffers9track1PtrE:
 1066 0000 00000000 		.word	_ZN7Buffers6track1E
 1067 0004 004C1D00 		.word	_ZN7Buffers6track1E+1920000
 1068              		.section	.data._ZN7Buffers9track2PtrE,"aw"
 1069              		.align	2
 1070              		.set	.LANCHOR10,. + 0
 1073              	_ZN7Buffers9track2PtrE:
 1074 0000 00000000 		.word	_ZN7Buffers6track2E
 1075 0004 004C1D00 		.word	_ZN7Buffers6track2E+1920000
 1076              		.section	.data._ZN7Buffers9track3PtrE,"aw"
 1077              		.align	2
 1078              		.set	.LANCHOR9,. + 0
 1081              	_ZN7Buffers9track3PtrE:
 1082 0000 00000000 		.word	_ZN7Buffers6track3E
 1083 0004 004C1D00 		.word	_ZN7Buffers6track3E+1920000
 1084              		.section	.data._ZN7Buffers9track4PtrE,"aw"
 1085              		.align	2
 1086              		.set	.LANCHOR8,. + 0
 1089              	_ZN7Buffers9track4PtrE:
ARM GAS  /var/folders/wz/z09yph4n0qj4t7mjxhl6ttn80000gn/T//cctms0BV.s 			page 48


 1090 0000 00000000 		.word	_ZN7Buffers6track4E
 1091 0004 004C1D00 		.word	_ZN7Buffers6track4E+1920000
 1092              		.section	.sdram_bss,"aw"
 1093              		.align	2
 1096              	_ZN7Buffers6track4E:
 1097 0000 00000000 		.space	3840000
 1097      00000000 
 1097      00000000 
 1097      00000000 
 1097      00000000 
 1100              	_ZN7Buffers6track3E:
 1101 3a9800 00000000 		.space	3840000
 1101      00000000 
 1101      00000000 
 1101      00000000 
 1101      00000000 
 1104              	_ZN7Buffers6track2E:
 1105 753000 00000000 		.space	3840000
 1105      00000000 
 1105      00000000 
 1105      00000000 
 1105      00000000 
 1108              	_ZN7Buffers6track1E:
 1109 afc800 00000000 		.space	3840000
 1109      00000000 
 1109      00000000 
 1109      00000000 
 1109      00000000 
 1112              	_ZN7Buffers3mixE:
 1113 ea6000 00000000 		.space	3840000
 1113      00000000 
 1113      00000000 
 1113      00000000 
 1113      00000000 
 1116              	delayLine:
 1117 124f800 00000000 		.space	960012
 1117      00000000 
 1117      00000000 
 1117      00000000 
 1117      00000000 
 1118              		.text
 1119              	.Letext0:
 1120              		.file 16 "/Library/DaisyToolchain/0.2.0/arm/arm-none-eabi/include/machine/_default_types.h"
 1121              		.file 17 "/Library/DaisyToolchain/0.2.0/arm/arm-none-eabi/include/sys/_stdint.h"
 1122              		.file 18 "/Library/DaisyToolchain/0.2.0/arm/arm-none-eabi/include/stdint.h"
 1123              		.file 19 "/Library/DaisyToolchain/0.2.0/arm/lib/gcc/arm-none-eabi/10.3.1/include/stddef.h"
 1124              		.file 20 "/Library/DaisyToolchain/0.2.0/arm/arm-none-eabi/include/c++/10.3.1/cmath"
 1125              		.file 21 "/Library/DaisyToolchain/0.2.0/arm/arm-none-eabi/include/c++/10.3.1/bits/std_abs.h"
 1126              		.file 22 "/Library/DaisyToolchain/0.2.0/arm/arm-none-eabi/include/c++/10.3.1/cstdlib"
 1127              		.file 23 "/Library/DaisyToolchain/0.2.0/arm/arm-none-eabi/include/c++/10.3.1/cstdint"
 1128              		.file 24 "/Library/DaisyToolchain/0.2.0/arm/arm-none-eabi/include/c++/10.3.1/type_traits"
 1129              		.file 25 "/Library/DaisyToolchain/0.2.0/arm/arm-none-eabi/include/c++/10.3.1/debug/debug.h"
 1130              		.file 26 "/Library/DaisyToolchain/0.2.0/arm/arm-none-eabi/include/c++/10.3.1/arm-none-eabi/thumb/v
 1131              		.file 27 "/Library/DaisyToolchain/0.2.0/arm/arm-none-eabi/include/c++/10.3.1/bits/algorithmfwd.h"
 1132              		.file 28 "/Library/DaisyToolchain/0.2.0/arm/arm-none-eabi/include/c++/10.3.1/bits/exception_ptr.h"
 1133              		.file 29 "/Library/DaisyToolchain/0.2.0/arm/arm-none-eabi/include/c++/10.3.1/cstdarg"
 1134              		.file 30 "/Library/DaisyToolchain/0.2.0/arm/arm-none-eabi/include/c++/10.3.1/cstdio"
ARM GAS  /var/folders/wz/z09yph4n0qj4t7mjxhl6ttn80000gn/T//cctms0BV.s 			page 49


 1135              		.file 31 "/Library/DaisyToolchain/0.2.0/arm/arm-none-eabi/include/c++/10.3.1/cstring"
 1136              		.file 32 "/Library/DaisyToolchain/0.2.0/arm/arm-none-eabi/include/c++/10.3.1/cwchar"
 1137              		.file 33 "/Library/DaisyToolchain/0.2.0/arm/arm-none-eabi/include/c++/10.3.1/clocale"
 1138              		.file 34 "/Library/DaisyToolchain/0.2.0/arm/arm-none-eabi/include/c++/10.3.1/bits/basic_string.h"
 1139              		.file 35 "/Library/DaisyToolchain/0.2.0/arm/arm-none-eabi/include/c++/10.3.1/bits/stl_iterator.h"
 1140              		.file 36 "/Library/DaisyToolchain/0.2.0/arm/arm-none-eabi/include/c++/10.3.1/bits/predefined_ops.h
 1141              		.file 37 "/Library/DaisyToolchain/0.2.0/arm/arm-none-eabi/include/sys/_types.h"
 1142              		.file 38 "<built-in>"
 1143              		.file 39 "/Library/DaisyToolchain/0.2.0/arm/arm-none-eabi/include/sys/reent.h"
 1144              		.file 40 "/Library/DaisyToolchain/0.2.0/arm/arm-none-eabi/include/sys/lock.h"
 1145              		.file 41 "/Library/DaisyToolchain/0.2.0/arm/arm-none-eabi/include/math.h"
 1146              		.file 42 "/Library/DaisyToolchain/0.2.0/arm/arm-none-eabi/include/stdlib.h"
 1147              		.file 43 "/Library/DaisyToolchain/0.2.0/arm/arm-none-eabi/include/c++/10.3.1/math.h"
 1148              		.file 44 "/Library/DaisyToolchain/0.2.0/arm/arm-none-eabi/include/c++/10.3.1/stdlib.h"
 1149              		.file 45 "../../../libDaisy//src/per/tim.h"
 1150              		.file 46 "../../../libDaisy//src/per/sai.h"
 1151              		.file 47 "../../../libDaisy//src/hid/logger_impl.h"
 1152              		.file 48 "../../../libDaisy//src/util/wav_format.h"
 1153              		.file 49 "../../../libDaisy//src/dev/max11300.h"
 1154              		.file 50 "../../../libDaisy//src/hid/logger.h"
 1155              		.file 51 "../../../libDaisy//src/per/gpio.h"
 1156              		.file 52 "../../../libDaisy//src/dev/sdram.h"
 1157              		.file 53 "/Library/DaisyToolchain/0.2.0/arm/lib/gcc/arm-none-eabi/10.3.1/include/stdarg.h"
 1158              		.file 54 "/Library/DaisyToolchain/0.2.0/arm/arm-none-eabi/include/stdio.h"
 1159              		.file 55 "/Library/DaisyToolchain/0.2.0/arm/arm-none-eabi/include/string.h"
 1160              		.file 56 "../../../DaisySP//Source/Control/adenv.h"
 1161              		.file 57 "../../../DaisySP//Source/Utility/dsp.h"
 1162              		.file 58 "/Library/DaisyToolchain/0.2.0/arm/arm-none-eabi/include/wchar.h"
 1163              		.file 59 "/Library/DaisyToolchain/0.2.0/arm/arm-none-eabi/include/locale.h"
 1164              		.file 60 "DSP/FX/../../Parameters/../Utils/Helpers.h"
 1165              		.file 61 "DSP/Track.h"
 1166              		.file 62 "../../../libDaisy//src/dev/sr_595.h"
 1167              		.file 63 "Architecture/ConnectionMatrix.h"
ARM GAS  /var/folders/wz/z09yph4n0qj4t7mjxhl6ttn80000gn/T//cctms0BV.s 			page 50

