ARM GAS  /var/folders/wz/z09yph4n0qj4t7mjxhl6ttn80000gn/T//ccxdcdyF.s 			page 1


   1              		.cpu cortex-m7
   2              		.arch armv7e-m
   3              		.fpu fpv5-d16
   4              		.eabi_attribute 28, 1
   5              		.eabi_attribute 20, 1
   6              		.eabi_attribute 21, 1
   7              		.eabi_attribute 23, 3
   8              		.eabi_attribute 24, 1
   9              		.eabi_attribute 25, 1
  10              		.eabi_attribute 26, 1
  11              		.eabi_attribute 30, 6
  12              		.eabi_attribute 34, 1
  13              		.eabi_attribute 18, 4
  14              		.file	"Mixer.cpp"
  15              		.text
  16              	.Ltext0:
  17              		.cfi_sections	.debug_frame
  18              		.section	.rodata._ZStL19piecewise_construct,"a"
  19              		.align	2
  22              	_ZStL19piecewise_construct:
  23 0000 00       		.space	1
  24              		.section	.text._ZnwjPv,"axG",%progbits,_ZnwjPv,comdat
  25              		.align	1
  26              		.weak	_ZnwjPv
  27              		.syntax unified
  28              		.thumb
  29              		.thumb_func
  31              	_ZnwjPv:
  32              	.LFB1119:
  33              		.file 1 "/Library/DaisyToolchain/0.2.0/arm/arm-none-eabi/include/c++/10.3.1/new"
   1:/Library/DaisyToolchain/0.2.0/arm/arm-none-eabi/include/c++/10.3.1/new **** // The -*- C++ -*- dynamic memory management header.
   2:/Library/DaisyToolchain/0.2.0/arm/arm-none-eabi/include/c++/10.3.1/new **** 
   3:/Library/DaisyToolchain/0.2.0/arm/arm-none-eabi/include/c++/10.3.1/new **** // Copyright (C) 1994-2020 Free Software Foundation, Inc.
   4:/Library/DaisyToolchain/0.2.0/arm/arm-none-eabi/include/c++/10.3.1/new **** 
   5:/Library/DaisyToolchain/0.2.0/arm/arm-none-eabi/include/c++/10.3.1/new **** // This file is part of GCC.
   6:/Library/DaisyToolchain/0.2.0/arm/arm-none-eabi/include/c++/10.3.1/new **** //
   7:/Library/DaisyToolchain/0.2.0/arm/arm-none-eabi/include/c++/10.3.1/new **** // GCC is free software; you can redistribute it and/or modify
   8:/Library/DaisyToolchain/0.2.0/arm/arm-none-eabi/include/c++/10.3.1/new **** // it under the terms of the GNU General Public License as published by
   9:/Library/DaisyToolchain/0.2.0/arm/arm-none-eabi/include/c++/10.3.1/new **** // the Free Software Foundation; either version 3, or (at your option)
  10:/Library/DaisyToolchain/0.2.0/arm/arm-none-eabi/include/c++/10.3.1/new **** // any later version.
  11:/Library/DaisyToolchain/0.2.0/arm/arm-none-eabi/include/c++/10.3.1/new **** // 
  12:/Library/DaisyToolchain/0.2.0/arm/arm-none-eabi/include/c++/10.3.1/new **** // GCC is distributed in the hope that it will be useful,
  13:/Library/DaisyToolchain/0.2.0/arm/arm-none-eabi/include/c++/10.3.1/new **** // but WITHOUT ANY WARRANTY; without even the implied warranty of
  14:/Library/DaisyToolchain/0.2.0/arm/arm-none-eabi/include/c++/10.3.1/new **** // MERCHANTABILITY or FITNESS FOR A PARTICULAR PURPOSE.  See the
  15:/Library/DaisyToolchain/0.2.0/arm/arm-none-eabi/include/c++/10.3.1/new **** // GNU General Public License for more details.
  16:/Library/DaisyToolchain/0.2.0/arm/arm-none-eabi/include/c++/10.3.1/new **** // 
  17:/Library/DaisyToolchain/0.2.0/arm/arm-none-eabi/include/c++/10.3.1/new **** // Under Section 7 of GPL version 3, you are granted additional
  18:/Library/DaisyToolchain/0.2.0/arm/arm-none-eabi/include/c++/10.3.1/new **** // permissions described in the GCC Runtime Library Exception, version
  19:/Library/DaisyToolchain/0.2.0/arm/arm-none-eabi/include/c++/10.3.1/new **** // 3.1, as published by the Free Software Foundation.
  20:/Library/DaisyToolchain/0.2.0/arm/arm-none-eabi/include/c++/10.3.1/new **** 
  21:/Library/DaisyToolchain/0.2.0/arm/arm-none-eabi/include/c++/10.3.1/new **** // You should have received a copy of the GNU General Public License and
  22:/Library/DaisyToolchain/0.2.0/arm/arm-none-eabi/include/c++/10.3.1/new **** // a copy of the GCC Runtime Library Exception along with this program;
  23:/Library/DaisyToolchain/0.2.0/arm/arm-none-eabi/include/c++/10.3.1/new **** // see the files COPYING3 and COPYING.RUNTIME respectively.  If not, see
  24:/Library/DaisyToolchain/0.2.0/arm/arm-none-eabi/include/c++/10.3.1/new **** // <http://www.gnu.org/licenses/>.
  25:/Library/DaisyToolchain/0.2.0/arm/arm-none-eabi/include/c++/10.3.1/new **** 
  26:/Library/DaisyToolchain/0.2.0/arm/arm-none-eabi/include/c++/10.3.1/new **** /** @file new
  27:/Library/DaisyToolchain/0.2.0/arm/arm-none-eabi/include/c++/10.3.1/new ****  *  This is a Standard C++ Library header.
ARM GAS  /var/folders/wz/z09yph4n0qj4t7mjxhl6ttn80000gn/T//ccxdcdyF.s 			page 2


  28:/Library/DaisyToolchain/0.2.0/arm/arm-none-eabi/include/c++/10.3.1/new ****  *
  29:/Library/DaisyToolchain/0.2.0/arm/arm-none-eabi/include/c++/10.3.1/new ****  *  The header @c new defines several functions to manage dynamic memory and
  30:/Library/DaisyToolchain/0.2.0/arm/arm-none-eabi/include/c++/10.3.1/new ****  *  handling memory allocation errors; see
  31:/Library/DaisyToolchain/0.2.0/arm/arm-none-eabi/include/c++/10.3.1/new ****  *  https://gcc.gnu.org/onlinedocs/libstdc++/manual/dynamic_memory.html
  32:/Library/DaisyToolchain/0.2.0/arm/arm-none-eabi/include/c++/10.3.1/new ****  *  for more.
  33:/Library/DaisyToolchain/0.2.0/arm/arm-none-eabi/include/c++/10.3.1/new ****  */
  34:/Library/DaisyToolchain/0.2.0/arm/arm-none-eabi/include/c++/10.3.1/new **** 
  35:/Library/DaisyToolchain/0.2.0/arm/arm-none-eabi/include/c++/10.3.1/new **** #ifndef _NEW
  36:/Library/DaisyToolchain/0.2.0/arm/arm-none-eabi/include/c++/10.3.1/new **** #define _NEW
  37:/Library/DaisyToolchain/0.2.0/arm/arm-none-eabi/include/c++/10.3.1/new **** 
  38:/Library/DaisyToolchain/0.2.0/arm/arm-none-eabi/include/c++/10.3.1/new **** #pragma GCC system_header
  39:/Library/DaisyToolchain/0.2.0/arm/arm-none-eabi/include/c++/10.3.1/new **** 
  40:/Library/DaisyToolchain/0.2.0/arm/arm-none-eabi/include/c++/10.3.1/new **** #include <bits/c++config.h>
  41:/Library/DaisyToolchain/0.2.0/arm/arm-none-eabi/include/c++/10.3.1/new **** #include <exception>
  42:/Library/DaisyToolchain/0.2.0/arm/arm-none-eabi/include/c++/10.3.1/new **** 
  43:/Library/DaisyToolchain/0.2.0/arm/arm-none-eabi/include/c++/10.3.1/new **** #pragma GCC visibility push(default)
  44:/Library/DaisyToolchain/0.2.0/arm/arm-none-eabi/include/c++/10.3.1/new **** 
  45:/Library/DaisyToolchain/0.2.0/arm/arm-none-eabi/include/c++/10.3.1/new **** extern "C++" {
  46:/Library/DaisyToolchain/0.2.0/arm/arm-none-eabi/include/c++/10.3.1/new **** 
  47:/Library/DaisyToolchain/0.2.0/arm/arm-none-eabi/include/c++/10.3.1/new **** namespace std 
  48:/Library/DaisyToolchain/0.2.0/arm/arm-none-eabi/include/c++/10.3.1/new **** {
  49:/Library/DaisyToolchain/0.2.0/arm/arm-none-eabi/include/c++/10.3.1/new ****   /**
  50:/Library/DaisyToolchain/0.2.0/arm/arm-none-eabi/include/c++/10.3.1/new ****    *  @brief  Exception possibly thrown by @c new.
  51:/Library/DaisyToolchain/0.2.0/arm/arm-none-eabi/include/c++/10.3.1/new ****    *  @ingroup exceptions
  52:/Library/DaisyToolchain/0.2.0/arm/arm-none-eabi/include/c++/10.3.1/new ****    *
  53:/Library/DaisyToolchain/0.2.0/arm/arm-none-eabi/include/c++/10.3.1/new ****    *  @c bad_alloc (or classes derived from it) is used to report allocation
  54:/Library/DaisyToolchain/0.2.0/arm/arm-none-eabi/include/c++/10.3.1/new ****    *  errors from the throwing forms of @c new.  */
  55:/Library/DaisyToolchain/0.2.0/arm/arm-none-eabi/include/c++/10.3.1/new ****   class bad_alloc : public exception 
  56:/Library/DaisyToolchain/0.2.0/arm/arm-none-eabi/include/c++/10.3.1/new ****   {
  57:/Library/DaisyToolchain/0.2.0/arm/arm-none-eabi/include/c++/10.3.1/new ****   public:
  58:/Library/DaisyToolchain/0.2.0/arm/arm-none-eabi/include/c++/10.3.1/new ****     bad_alloc() throw() { }
  59:/Library/DaisyToolchain/0.2.0/arm/arm-none-eabi/include/c++/10.3.1/new **** 
  60:/Library/DaisyToolchain/0.2.0/arm/arm-none-eabi/include/c++/10.3.1/new **** #if __cplusplus >= 201103L
  61:/Library/DaisyToolchain/0.2.0/arm/arm-none-eabi/include/c++/10.3.1/new ****     bad_alloc(const bad_alloc&) = default;
  62:/Library/DaisyToolchain/0.2.0/arm/arm-none-eabi/include/c++/10.3.1/new ****     bad_alloc& operator=(const bad_alloc&) = default;
  63:/Library/DaisyToolchain/0.2.0/arm/arm-none-eabi/include/c++/10.3.1/new **** #endif
  64:/Library/DaisyToolchain/0.2.0/arm/arm-none-eabi/include/c++/10.3.1/new **** 
  65:/Library/DaisyToolchain/0.2.0/arm/arm-none-eabi/include/c++/10.3.1/new ****     // This declaration is not useless:
  66:/Library/DaisyToolchain/0.2.0/arm/arm-none-eabi/include/c++/10.3.1/new ****     // http://gcc.gnu.org/onlinedocs/gcc-3.0.2/gcc_6.html#SEC118
  67:/Library/DaisyToolchain/0.2.0/arm/arm-none-eabi/include/c++/10.3.1/new ****     virtual ~bad_alloc() throw();
  68:/Library/DaisyToolchain/0.2.0/arm/arm-none-eabi/include/c++/10.3.1/new **** 
  69:/Library/DaisyToolchain/0.2.0/arm/arm-none-eabi/include/c++/10.3.1/new ****     // See comment in eh_exception.cc.
  70:/Library/DaisyToolchain/0.2.0/arm/arm-none-eabi/include/c++/10.3.1/new ****     virtual const char* what() const throw();
  71:/Library/DaisyToolchain/0.2.0/arm/arm-none-eabi/include/c++/10.3.1/new ****   };
  72:/Library/DaisyToolchain/0.2.0/arm/arm-none-eabi/include/c++/10.3.1/new **** 
  73:/Library/DaisyToolchain/0.2.0/arm/arm-none-eabi/include/c++/10.3.1/new **** #if __cplusplus >= 201103L
  74:/Library/DaisyToolchain/0.2.0/arm/arm-none-eabi/include/c++/10.3.1/new ****   class bad_array_new_length : public bad_alloc
  75:/Library/DaisyToolchain/0.2.0/arm/arm-none-eabi/include/c++/10.3.1/new ****   {
  76:/Library/DaisyToolchain/0.2.0/arm/arm-none-eabi/include/c++/10.3.1/new ****   public:
  77:/Library/DaisyToolchain/0.2.0/arm/arm-none-eabi/include/c++/10.3.1/new ****     bad_array_new_length() throw() { }
  78:/Library/DaisyToolchain/0.2.0/arm/arm-none-eabi/include/c++/10.3.1/new **** 
  79:/Library/DaisyToolchain/0.2.0/arm/arm-none-eabi/include/c++/10.3.1/new ****     // This declaration is not useless:
  80:/Library/DaisyToolchain/0.2.0/arm/arm-none-eabi/include/c++/10.3.1/new ****     // http://gcc.gnu.org/onlinedocs/gcc-3.0.2/gcc_6.html#SEC118
  81:/Library/DaisyToolchain/0.2.0/arm/arm-none-eabi/include/c++/10.3.1/new ****     virtual ~bad_array_new_length() throw();
  82:/Library/DaisyToolchain/0.2.0/arm/arm-none-eabi/include/c++/10.3.1/new **** 
  83:/Library/DaisyToolchain/0.2.0/arm/arm-none-eabi/include/c++/10.3.1/new ****     // See comment in eh_exception.cc.
  84:/Library/DaisyToolchain/0.2.0/arm/arm-none-eabi/include/c++/10.3.1/new ****     virtual const char* what() const throw();
ARM GAS  /var/folders/wz/z09yph4n0qj4t7mjxhl6ttn80000gn/T//ccxdcdyF.s 			page 3


  85:/Library/DaisyToolchain/0.2.0/arm/arm-none-eabi/include/c++/10.3.1/new ****   };
  86:/Library/DaisyToolchain/0.2.0/arm/arm-none-eabi/include/c++/10.3.1/new **** #endif
  87:/Library/DaisyToolchain/0.2.0/arm/arm-none-eabi/include/c++/10.3.1/new **** 
  88:/Library/DaisyToolchain/0.2.0/arm/arm-none-eabi/include/c++/10.3.1/new **** #if __cpp_aligned_new
  89:/Library/DaisyToolchain/0.2.0/arm/arm-none-eabi/include/c++/10.3.1/new ****   enum class align_val_t: size_t {};
  90:/Library/DaisyToolchain/0.2.0/arm/arm-none-eabi/include/c++/10.3.1/new **** #endif
  91:/Library/DaisyToolchain/0.2.0/arm/arm-none-eabi/include/c++/10.3.1/new **** 
  92:/Library/DaisyToolchain/0.2.0/arm/arm-none-eabi/include/c++/10.3.1/new ****   struct nothrow_t
  93:/Library/DaisyToolchain/0.2.0/arm/arm-none-eabi/include/c++/10.3.1/new ****   {
  94:/Library/DaisyToolchain/0.2.0/arm/arm-none-eabi/include/c++/10.3.1/new **** #if __cplusplus >= 201103L
  95:/Library/DaisyToolchain/0.2.0/arm/arm-none-eabi/include/c++/10.3.1/new ****     explicit nothrow_t() = default;
  96:/Library/DaisyToolchain/0.2.0/arm/arm-none-eabi/include/c++/10.3.1/new **** #endif
  97:/Library/DaisyToolchain/0.2.0/arm/arm-none-eabi/include/c++/10.3.1/new ****   };
  98:/Library/DaisyToolchain/0.2.0/arm/arm-none-eabi/include/c++/10.3.1/new **** 
  99:/Library/DaisyToolchain/0.2.0/arm/arm-none-eabi/include/c++/10.3.1/new ****   extern const nothrow_t nothrow;
 100:/Library/DaisyToolchain/0.2.0/arm/arm-none-eabi/include/c++/10.3.1/new **** 
 101:/Library/DaisyToolchain/0.2.0/arm/arm-none-eabi/include/c++/10.3.1/new ****   /** If you write your own error handler to be called by @c new, it must
 102:/Library/DaisyToolchain/0.2.0/arm/arm-none-eabi/include/c++/10.3.1/new ****    *  be of this type.  */
 103:/Library/DaisyToolchain/0.2.0/arm/arm-none-eabi/include/c++/10.3.1/new ****   typedef void (*new_handler)();
 104:/Library/DaisyToolchain/0.2.0/arm/arm-none-eabi/include/c++/10.3.1/new **** 
 105:/Library/DaisyToolchain/0.2.0/arm/arm-none-eabi/include/c++/10.3.1/new ****   /// Takes a replacement handler as the argument, returns the
 106:/Library/DaisyToolchain/0.2.0/arm/arm-none-eabi/include/c++/10.3.1/new ****   /// previous handler.
 107:/Library/DaisyToolchain/0.2.0/arm/arm-none-eabi/include/c++/10.3.1/new ****   new_handler set_new_handler(new_handler) throw();
 108:/Library/DaisyToolchain/0.2.0/arm/arm-none-eabi/include/c++/10.3.1/new **** 
 109:/Library/DaisyToolchain/0.2.0/arm/arm-none-eabi/include/c++/10.3.1/new **** #if __cplusplus >= 201103L
 110:/Library/DaisyToolchain/0.2.0/arm/arm-none-eabi/include/c++/10.3.1/new ****   /// Return the current new handler.
 111:/Library/DaisyToolchain/0.2.0/arm/arm-none-eabi/include/c++/10.3.1/new ****   new_handler get_new_handler() noexcept;
 112:/Library/DaisyToolchain/0.2.0/arm/arm-none-eabi/include/c++/10.3.1/new **** #endif
 113:/Library/DaisyToolchain/0.2.0/arm/arm-none-eabi/include/c++/10.3.1/new **** } // namespace std
 114:/Library/DaisyToolchain/0.2.0/arm/arm-none-eabi/include/c++/10.3.1/new **** 
 115:/Library/DaisyToolchain/0.2.0/arm/arm-none-eabi/include/c++/10.3.1/new **** //@{
 116:/Library/DaisyToolchain/0.2.0/arm/arm-none-eabi/include/c++/10.3.1/new **** /** These are replaceable signatures:
 117:/Library/DaisyToolchain/0.2.0/arm/arm-none-eabi/include/c++/10.3.1/new ****  *  - normal single new and delete (no arguments, throw @c bad_alloc on error)
 118:/Library/DaisyToolchain/0.2.0/arm/arm-none-eabi/include/c++/10.3.1/new ****  *  - normal array new and delete (same)
 119:/Library/DaisyToolchain/0.2.0/arm/arm-none-eabi/include/c++/10.3.1/new ****  *  - @c nothrow single new and delete (take a @c nothrow argument, return
 120:/Library/DaisyToolchain/0.2.0/arm/arm-none-eabi/include/c++/10.3.1/new ****  *    @c NULL on error)
 121:/Library/DaisyToolchain/0.2.0/arm/arm-none-eabi/include/c++/10.3.1/new ****  *  - @c nothrow array new and delete (same)
 122:/Library/DaisyToolchain/0.2.0/arm/arm-none-eabi/include/c++/10.3.1/new ****  *
 123:/Library/DaisyToolchain/0.2.0/arm/arm-none-eabi/include/c++/10.3.1/new ****  *  Placement new and delete signatures (take a memory address argument,
 124:/Library/DaisyToolchain/0.2.0/arm/arm-none-eabi/include/c++/10.3.1/new ****  *  does nothing) may not be replaced by a user's program.
 125:/Library/DaisyToolchain/0.2.0/arm/arm-none-eabi/include/c++/10.3.1/new **** */
 126:/Library/DaisyToolchain/0.2.0/arm/arm-none-eabi/include/c++/10.3.1/new **** _GLIBCXX_NODISCARD void* operator new(std::size_t) _GLIBCXX_THROW (std::bad_alloc)
 127:/Library/DaisyToolchain/0.2.0/arm/arm-none-eabi/include/c++/10.3.1/new ****   __attribute__((__externally_visible__));
 128:/Library/DaisyToolchain/0.2.0/arm/arm-none-eabi/include/c++/10.3.1/new **** _GLIBCXX_NODISCARD void* operator new[](std::size_t) _GLIBCXX_THROW (std::bad_alloc)
 129:/Library/DaisyToolchain/0.2.0/arm/arm-none-eabi/include/c++/10.3.1/new ****   __attribute__((__externally_visible__));
 130:/Library/DaisyToolchain/0.2.0/arm/arm-none-eabi/include/c++/10.3.1/new **** void operator delete(void*) _GLIBCXX_USE_NOEXCEPT
 131:/Library/DaisyToolchain/0.2.0/arm/arm-none-eabi/include/c++/10.3.1/new ****   __attribute__((__externally_visible__));
 132:/Library/DaisyToolchain/0.2.0/arm/arm-none-eabi/include/c++/10.3.1/new **** void operator delete[](void*) _GLIBCXX_USE_NOEXCEPT
 133:/Library/DaisyToolchain/0.2.0/arm/arm-none-eabi/include/c++/10.3.1/new ****   __attribute__((__externally_visible__));
 134:/Library/DaisyToolchain/0.2.0/arm/arm-none-eabi/include/c++/10.3.1/new **** #if __cpp_sized_deallocation
 135:/Library/DaisyToolchain/0.2.0/arm/arm-none-eabi/include/c++/10.3.1/new **** void operator delete(void*, std::size_t) _GLIBCXX_USE_NOEXCEPT
 136:/Library/DaisyToolchain/0.2.0/arm/arm-none-eabi/include/c++/10.3.1/new ****   __attribute__((__externally_visible__));
 137:/Library/DaisyToolchain/0.2.0/arm/arm-none-eabi/include/c++/10.3.1/new **** void operator delete[](void*, std::size_t) _GLIBCXX_USE_NOEXCEPT
 138:/Library/DaisyToolchain/0.2.0/arm/arm-none-eabi/include/c++/10.3.1/new ****   __attribute__((__externally_visible__));
 139:/Library/DaisyToolchain/0.2.0/arm/arm-none-eabi/include/c++/10.3.1/new **** #endif
 140:/Library/DaisyToolchain/0.2.0/arm/arm-none-eabi/include/c++/10.3.1/new **** _GLIBCXX_NODISCARD void* operator new(std::size_t, const std::nothrow_t&) _GLIBCXX_USE_NOEXCEPT
 141:/Library/DaisyToolchain/0.2.0/arm/arm-none-eabi/include/c++/10.3.1/new ****   __attribute__((__externally_visible__, __malloc__));
ARM GAS  /var/folders/wz/z09yph4n0qj4t7mjxhl6ttn80000gn/T//ccxdcdyF.s 			page 4


 142:/Library/DaisyToolchain/0.2.0/arm/arm-none-eabi/include/c++/10.3.1/new **** _GLIBCXX_NODISCARD void* operator new[](std::size_t, const std::nothrow_t&) _GLIBCXX_USE_NOEXCEPT
 143:/Library/DaisyToolchain/0.2.0/arm/arm-none-eabi/include/c++/10.3.1/new ****   __attribute__((__externally_visible__, __malloc__));
 144:/Library/DaisyToolchain/0.2.0/arm/arm-none-eabi/include/c++/10.3.1/new **** void operator delete(void*, const std::nothrow_t&) _GLIBCXX_USE_NOEXCEPT
 145:/Library/DaisyToolchain/0.2.0/arm/arm-none-eabi/include/c++/10.3.1/new ****   __attribute__((__externally_visible__));
 146:/Library/DaisyToolchain/0.2.0/arm/arm-none-eabi/include/c++/10.3.1/new **** void operator delete[](void*, const std::nothrow_t&) _GLIBCXX_USE_NOEXCEPT
 147:/Library/DaisyToolchain/0.2.0/arm/arm-none-eabi/include/c++/10.3.1/new ****   __attribute__((__externally_visible__));
 148:/Library/DaisyToolchain/0.2.0/arm/arm-none-eabi/include/c++/10.3.1/new **** #if __cpp_aligned_new
 149:/Library/DaisyToolchain/0.2.0/arm/arm-none-eabi/include/c++/10.3.1/new **** _GLIBCXX_NODISCARD void* operator new(std::size_t, std::align_val_t)
 150:/Library/DaisyToolchain/0.2.0/arm/arm-none-eabi/include/c++/10.3.1/new ****   __attribute__((__externally_visible__));
 151:/Library/DaisyToolchain/0.2.0/arm/arm-none-eabi/include/c++/10.3.1/new **** _GLIBCXX_NODISCARD void* operator new(std::size_t, std::align_val_t, const std::nothrow_t&)
 152:/Library/DaisyToolchain/0.2.0/arm/arm-none-eabi/include/c++/10.3.1/new ****   _GLIBCXX_USE_NOEXCEPT __attribute__((__externally_visible__, __malloc__));
 153:/Library/DaisyToolchain/0.2.0/arm/arm-none-eabi/include/c++/10.3.1/new **** void operator delete(void*, std::align_val_t)
 154:/Library/DaisyToolchain/0.2.0/arm/arm-none-eabi/include/c++/10.3.1/new ****   _GLIBCXX_USE_NOEXCEPT __attribute__((__externally_visible__));
 155:/Library/DaisyToolchain/0.2.0/arm/arm-none-eabi/include/c++/10.3.1/new **** void operator delete(void*, std::align_val_t, const std::nothrow_t&)
 156:/Library/DaisyToolchain/0.2.0/arm/arm-none-eabi/include/c++/10.3.1/new ****   _GLIBCXX_USE_NOEXCEPT __attribute__((__externally_visible__));
 157:/Library/DaisyToolchain/0.2.0/arm/arm-none-eabi/include/c++/10.3.1/new **** _GLIBCXX_NODISCARD void* operator new[](std::size_t, std::align_val_t)
 158:/Library/DaisyToolchain/0.2.0/arm/arm-none-eabi/include/c++/10.3.1/new ****   __attribute__((__externally_visible__));
 159:/Library/DaisyToolchain/0.2.0/arm/arm-none-eabi/include/c++/10.3.1/new **** _GLIBCXX_NODISCARD void* operator new[](std::size_t, std::align_val_t, const std::nothrow_t&)
 160:/Library/DaisyToolchain/0.2.0/arm/arm-none-eabi/include/c++/10.3.1/new ****   _GLIBCXX_USE_NOEXCEPT __attribute__((__externally_visible__, __malloc__));
 161:/Library/DaisyToolchain/0.2.0/arm/arm-none-eabi/include/c++/10.3.1/new **** void operator delete[](void*, std::align_val_t)
 162:/Library/DaisyToolchain/0.2.0/arm/arm-none-eabi/include/c++/10.3.1/new ****   _GLIBCXX_USE_NOEXCEPT __attribute__((__externally_visible__));
 163:/Library/DaisyToolchain/0.2.0/arm/arm-none-eabi/include/c++/10.3.1/new **** void operator delete[](void*, std::align_val_t, const std::nothrow_t&)
 164:/Library/DaisyToolchain/0.2.0/arm/arm-none-eabi/include/c++/10.3.1/new ****   _GLIBCXX_USE_NOEXCEPT __attribute__((__externally_visible__));
 165:/Library/DaisyToolchain/0.2.0/arm/arm-none-eabi/include/c++/10.3.1/new **** #if __cpp_sized_deallocation
 166:/Library/DaisyToolchain/0.2.0/arm/arm-none-eabi/include/c++/10.3.1/new **** void operator delete(void*, std::size_t, std::align_val_t)
 167:/Library/DaisyToolchain/0.2.0/arm/arm-none-eabi/include/c++/10.3.1/new ****   _GLIBCXX_USE_NOEXCEPT __attribute__((__externally_visible__));
 168:/Library/DaisyToolchain/0.2.0/arm/arm-none-eabi/include/c++/10.3.1/new **** void operator delete[](void*, std::size_t, std::align_val_t)
 169:/Library/DaisyToolchain/0.2.0/arm/arm-none-eabi/include/c++/10.3.1/new ****   _GLIBCXX_USE_NOEXCEPT __attribute__((__externally_visible__));
 170:/Library/DaisyToolchain/0.2.0/arm/arm-none-eabi/include/c++/10.3.1/new **** #endif // __cpp_sized_deallocation
 171:/Library/DaisyToolchain/0.2.0/arm/arm-none-eabi/include/c++/10.3.1/new **** #endif // __cpp_aligned_new
 172:/Library/DaisyToolchain/0.2.0/arm/arm-none-eabi/include/c++/10.3.1/new **** 
 173:/Library/DaisyToolchain/0.2.0/arm/arm-none-eabi/include/c++/10.3.1/new **** // Default placement versions of operator new.
 174:/Library/DaisyToolchain/0.2.0/arm/arm-none-eabi/include/c++/10.3.1/new **** _GLIBCXX_NODISCARD inline void* operator new(std::size_t, void* __p) _GLIBCXX_USE_NOEXCEPT
 175:/Library/DaisyToolchain/0.2.0/arm/arm-none-eabi/include/c++/10.3.1/new **** { return __p; }
  34              		.loc 1 175 1
  35              		.cfi_startproc
  36              		@ args = 0, pretend = 0, frame = 8
  37              		@ frame_needed = 1, uses_anonymous_args = 0
  38              		@ link register save eliminated.
  39 0000 80B4     		push	{r7}
  40              		.cfi_def_cfa_offset 4
  41              		.cfi_offset 7, -4
  42 0002 83B0     		sub	sp, sp, #12
  43              		.cfi_def_cfa_offset 16
  44 0004 00AF     		add	r7, sp, #0
  45              		.cfi_def_cfa_register 7
  46 0006 7860     		str	r0, [r7, #4]
  47 0008 3960     		str	r1, [r7]
  48              		.loc 1 175 10
  49 000a 3B68     		ldr	r3, [r7]
  50              		.loc 1 175 15
  51 000c 1846     		mov	r0, r3
  52 000e 0C37     		adds	r7, r7, #12
  53              		.cfi_def_cfa_offset 4
  54 0010 BD46     		mov	sp, r7
  55              		.cfi_def_cfa_register 13
  56              		@ sp needed
ARM GAS  /var/folders/wz/z09yph4n0qj4t7mjxhl6ttn80000gn/T//ccxdcdyF.s 			page 5


  57 0012 5DF8047B 		ldr	r7, [sp], #4
  58              		.cfi_restore 7
  59              		.cfi_def_cfa_offset 0
  60 0016 7047     		bx	lr
  61              		.cfi_endproc
  62              	.LFE1119:
  64              		.section	.rodata._ZN5daisyL15kWavFileChunkIdE,"a"
  65              		.align	2
  68              	_ZN5daisyL15kWavFileChunkIdE:
  69 0000 52494646 		.word	1179011410
  70              		.section	.rodata._ZN5daisyL14kWavFileWaveIdE,"a"
  71              		.align	2
  74              	_ZN5daisyL14kWavFileWaveIdE:
  75 0000 57415645 		.word	1163280727
  76              		.section	.rodata._ZN5daisyL19kWavFileSubChunk1IdE,"a"
  77              		.align	2
  80              	_ZN5daisyL19kWavFileSubChunk1IdE:
  81 0000 666D7420 		.word	544501094
  82              		.section	.rodata._ZN5daisyL19kWavFileSubChunk2IdE,"a"
  83              		.align	2
  86              	_ZN5daisyL19kWavFileSubChunk2IdE:
  87 0000 64617461 		.word	1635017060
  88              		.section	.rodata._ZL19kMaxSr595DaisyChain,"a"
  89              		.align	2
  92              	_ZL19kMaxSr595DaisyChain:
  93 0000 10000000 		.word	16
  94              		.section	.rodata._ZN5daisy4seedL2D0E,"a"
  95              		.align	2
  98              	_ZN5daisy4seedL2D0E:
  99 0000 01       		.byte	1
 100 0001 0C       		.byte	12
 101              		.section	.rodata._ZN5daisy4seedL2D1E,"a"
 102              		.align	2
 105              	_ZN5daisy4seedL2D1E:
 106 0000 02       		.byte	2
 107 0001 0B       		.byte	11
 108              		.section	.rodata._ZN5daisy4seedL2D2E,"a"
 109              		.align	2
 112              	_ZN5daisy4seedL2D2E:
 113 0000 02       		.byte	2
 114 0001 0A       		.byte	10
 115              		.section	.rodata._ZN5daisy4seedL2D3E,"a"
 116              		.align	2
 119              	_ZN5daisy4seedL2D3E:
 120 0000 02       		.byte	2
 121 0001 09       		.byte	9
 122              		.section	.rodata._ZN5daisy4seedL2D4E,"a"
 123              		.align	2
 126              	_ZN5daisy4seedL2D4E:
 127 0000 02       		.byte	2
 128 0001 08       		.byte	8
 129              		.section	.rodata._ZN5daisy4seedL2D5E,"a"
 130              		.align	2
 133              	_ZN5daisy4seedL2D5E:
 134 0000 03       		.byte	3
 135 0001 02       		.byte	2
 136              		.section	.rodata._ZN5daisy4seedL2D6E,"a"
ARM GAS  /var/folders/wz/z09yph4n0qj4t7mjxhl6ttn80000gn/T//ccxdcdyF.s 			page 6


 137              		.align	2
 140              	_ZN5daisy4seedL2D6E:
 141 0000 02       		.byte	2
 142 0001 0C       		.byte	12
 143              		.section	.rodata._ZN5daisy4seedL2D7E,"a"
 144              		.align	2
 147              	_ZN5daisy4seedL2D7E:
 148 0000 06       		.byte	6
 149 0001 0A       		.byte	10
 150              		.section	.rodata._ZN5daisy4seedL2D8E,"a"
 151              		.align	2
 154              	_ZN5daisy4seedL2D8E:
 155 0000 06       		.byte	6
 156 0001 0B       		.byte	11
 157              		.section	.rodata._ZN5daisy4seedL2D9E,"a"
 158              		.align	2
 161              	_ZN5daisy4seedL2D9E:
 162 0000 01       		.byte	1
 163 0001 04       		.byte	4
 164              		.section	.rodata._ZN5daisy4seedL3D10E,"a"
 165              		.align	2
 168              	_ZN5daisy4seedL3D10E:
 169 0000 01       		.byte	1
 170 0001 05       		.byte	5
 171              		.section	.rodata._ZN5daisy4seedL3D11E,"a"
 172              		.align	2
 175              	_ZN5daisy4seedL3D11E:
 176 0000 01       		.byte	1
 177 0001 08       		.byte	8
 178              		.section	.rodata._ZN5daisy4seedL3D12E,"a"
 179              		.align	2
 182              	_ZN5daisy4seedL3D12E:
 183 0000 01       		.byte	1
 184 0001 09       		.byte	9
 185              		.section	.rodata._ZN5daisy4seedL3D13E,"a"
 186              		.align	2
 189              	_ZN5daisy4seedL3D13E:
 190 0000 01       		.byte	1
 191 0001 06       		.byte	6
 192              		.section	.rodata._ZN5daisy4seedL3D14E,"a"
 193              		.align	2
 196              	_ZN5daisy4seedL3D14E:
 197 0000 01       		.byte	1
 198 0001 07       		.byte	7
 199              		.section	.rodata._ZN5daisy4seedL3D15E,"a"
 200              		.align	2
 203              	_ZN5daisy4seedL3D15E:
 204 0000 02       		.byte	2
 205 0001 00       		.byte	0
 206              		.section	.rodata._ZN5daisy4seedL3D16E,"a"
 207              		.align	2
 210              	_ZN5daisy4seedL3D16E:
 211 0000 00       		.byte	0
 212 0001 03       		.byte	3
 213              		.section	.rodata._ZN5daisy4seedL3D17E,"a"
 214              		.align	2
 217              	_ZN5daisy4seedL3D17E:
ARM GAS  /var/folders/wz/z09yph4n0qj4t7mjxhl6ttn80000gn/T//ccxdcdyF.s 			page 7


 218 0000 01       		.byte	1
 219 0001 01       		.byte	1
 220              		.section	.rodata._ZN5daisy4seedL3D18E,"a"
 221              		.align	2
 224              	_ZN5daisy4seedL3D18E:
 225 0000 00       		.byte	0
 226 0001 07       		.byte	7
 227              		.section	.rodata._ZN5daisy4seedL3D19E,"a"
 228              		.align	2
 231              	_ZN5daisy4seedL3D19E:
 232 0000 00       		.byte	0
 233 0001 06       		.byte	6
 234              		.section	.rodata._ZN5daisy4seedL3D20E,"a"
 235              		.align	2
 238              	_ZN5daisy4seedL3D20E:
 239 0000 02       		.byte	2
 240 0001 01       		.byte	1
 241              		.section	.rodata._ZN5daisy4seedL3D21E,"a"
 242              		.align	2
 245              	_ZN5daisy4seedL3D21E:
 246 0000 02       		.byte	2
 247 0001 04       		.byte	4
 248              		.section	.rodata._ZN5daisy4seedL3D22E,"a"
 249              		.align	2
 252              	_ZN5daisy4seedL3D22E:
 253 0000 00       		.byte	0
 254 0001 05       		.byte	5
 255              		.section	.rodata._ZN5daisy4seedL3D23E,"a"
 256              		.align	2
 259              	_ZN5daisy4seedL3D23E:
 260 0000 00       		.byte	0
 261 0001 04       		.byte	4
 262              		.section	.rodata._ZN5daisy4seedL3D24E,"a"
 263              		.align	2
 266              	_ZN5daisy4seedL3D24E:
 267 0000 00       		.byte	0
 268 0001 01       		.byte	1
 269              		.section	.rodata._ZN5daisy4seedL3D25E,"a"
 270              		.align	2
 273              	_ZN5daisy4seedL3D25E:
 274 0000 0000     		.space	2
 275              		.section	.rodata._ZN5daisy4seedL3D26E,"a"
 276              		.align	2
 279              	_ZN5daisy4seedL3D26E:
 280 0000 03       		.byte	3
 281 0001 0B       		.byte	11
 282              		.section	.rodata._ZN5daisy4seedL3D27E,"a"
 283              		.align	2
 286              	_ZN5daisy4seedL3D27E:
 287 0000 06       		.byte	6
 288 0001 09       		.byte	9
 289              		.section	.rodata._ZN5daisy4seedL3D28E,"a"
 290              		.align	2
 293              	_ZN5daisy4seedL3D28E:
 294 0000 00       		.byte	0
 295 0001 02       		.byte	2
 296              		.section	.rodata._ZN5daisy4seedL3D29E,"a"
ARM GAS  /var/folders/wz/z09yph4n0qj4t7mjxhl6ttn80000gn/T//ccxdcdyF.s 			page 8


 297              		.align	2
 300              	_ZN5daisy4seedL3D29E:
 301 0000 01       		.byte	1
 302 0001 0E       		.byte	14
 303              		.section	.rodata._ZN5daisy4seedL3D30E,"a"
 304              		.align	2
 307              	_ZN5daisy4seedL3D30E:
 308 0000 01       		.byte	1
 309 0001 0F       		.byte	15
 310              		.section	.rodata._ZN5daisy4seedL2A0E,"a"
 311              		.align	2
 314              	_ZN5daisy4seedL2A0E:
 315 0000 02       		.byte	2
 316 0001 00       		.byte	0
 317              		.section	.rodata._ZN5daisy4seedL2A1E,"a"
 318              		.align	2
 321              	_ZN5daisy4seedL2A1E:
 322 0000 00       		.byte	0
 323 0001 03       		.byte	3
 324              		.section	.rodata._ZN5daisy4seedL2A2E,"a"
 325              		.align	2
 328              	_ZN5daisy4seedL2A2E:
 329 0000 01       		.byte	1
 330 0001 01       		.byte	1
 331              		.section	.rodata._ZN5daisy4seedL2A3E,"a"
 332              		.align	2
 335              	_ZN5daisy4seedL2A3E:
 336 0000 00       		.byte	0
 337 0001 07       		.byte	7
 338              		.section	.rodata._ZN5daisy4seedL2A4E,"a"
 339              		.align	2
 342              	_ZN5daisy4seedL2A4E:
 343 0000 00       		.byte	0
 344 0001 06       		.byte	6
 345              		.section	.rodata._ZN5daisy4seedL2A5E,"a"
 346              		.align	2
 349              	_ZN5daisy4seedL2A5E:
 350 0000 02       		.byte	2
 351 0001 01       		.byte	1
 352              		.section	.rodata._ZN5daisy4seedL2A6E,"a"
 353              		.align	2
 356              	_ZN5daisy4seedL2A6E:
 357 0000 02       		.byte	2
 358 0001 04       		.byte	4
 359              		.section	.rodata._ZN5daisy4seedL2A7E,"a"
 360              		.align	2
 363              	_ZN5daisy4seedL2A7E:
 364 0000 00       		.byte	0
 365 0001 05       		.byte	5
 366              		.section	.rodata._ZN5daisy4seedL2A8E,"a"
 367              		.align	2
 370              	_ZN5daisy4seedL2A8E:
 371 0000 00       		.byte	0
 372 0001 04       		.byte	4
 373              		.section	.rodata._ZN5daisy4seedL2A9E,"a"
 374              		.align	2
 377              	_ZN5daisy4seedL2A9E:
ARM GAS  /var/folders/wz/z09yph4n0qj4t7mjxhl6ttn80000gn/T//ccxdcdyF.s 			page 9


 378 0000 00       		.byte	0
 379 0001 01       		.byte	1
 380              		.section	.rodata._ZN5daisy4seedL3A10E,"a"
 381              		.align	2
 384              	_ZN5daisy4seedL3A10E:
 385 0000 0000     		.space	2
 386              		.section	.rodata._ZN5daisy4seedL3A11E,"a"
 387              		.align	2
 390              	_ZN5daisy4seedL3A11E:
 391 0000 00       		.byte	0
 392 0001 02       		.byte	2
 393              		.section	.rodata._ZN5daisy4seedL3D31E,"a"
 394              		.align	2
 397              	_ZN5daisy4seedL3D31E:
 398 0000 02       		.byte	2
 399 0001 02       		.byte	2
 400              		.section	.rodata._ZN5daisy4seedL3D32E,"a"
 401              		.align	2
 404              	_ZN5daisy4seedL3D32E:
 405 0000 02       		.byte	2
 406 0001 03       		.byte	3
 407              		.section	.rodata._ZN5daisy4seedL3A12E,"a"
 408              		.align	2
 411              	_ZN5daisy4seedL3A12E:
 412 0000 02       		.byte	2
 413 0001 02       		.byte	2
 414              		.section	.rodata._ZN5daisy4seedL3A13E,"a"
 415              		.align	2
 418              	_ZN5daisy4seedL3A13E:
 419 0000 02       		.byte	2
 420 0001 03       		.byte	3
 421              		.section	.text._ZL20__gthread_key_deletei,"ax",%progbits
 422              		.align	1
 423              		.syntax unified
 424              		.thumb
 425              		.thumb_func
 427              	_ZL20__gthread_key_deletei:
 428              	.LFB2826:
 429              		.file 2 "/Library/DaisyToolchain/0.2.0/arm/arm-none-eabi/include/c++/10.3.1/arm-none-eabi/thumb/v7
   1:/Library/DaisyToolchain/0.2.0/arm/arm-none-eabi/include/c++/10.3.1/arm-none-eabi/thumb/v7e-m+dp/hard/bits/gthr-default.h **** /* Threads compatibility routines for libgcc2 and libobjc.  */
   2:/Library/DaisyToolchain/0.2.0/arm/arm-none-eabi/include/c++/10.3.1/arm-none-eabi/thumb/v7e-m+dp/hard/bits/gthr-default.h **** /* Compile this one with gcc.  */
   3:/Library/DaisyToolchain/0.2.0/arm/arm-none-eabi/include/c++/10.3.1/arm-none-eabi/thumb/v7e-m+dp/hard/bits/gthr-default.h **** /* Copyright (C) 1997-2020 Free Software Foundation, Inc.
   4:/Library/DaisyToolchain/0.2.0/arm/arm-none-eabi/include/c++/10.3.1/arm-none-eabi/thumb/v7e-m+dp/hard/bits/gthr-default.h **** 
   5:/Library/DaisyToolchain/0.2.0/arm/arm-none-eabi/include/c++/10.3.1/arm-none-eabi/thumb/v7e-m+dp/hard/bits/gthr-default.h **** This file is part of GCC.
   6:/Library/DaisyToolchain/0.2.0/arm/arm-none-eabi/include/c++/10.3.1/arm-none-eabi/thumb/v7e-m+dp/hard/bits/gthr-default.h **** 
   7:/Library/DaisyToolchain/0.2.0/arm/arm-none-eabi/include/c++/10.3.1/arm-none-eabi/thumb/v7e-m+dp/hard/bits/gthr-default.h **** GCC is free software; you can redistribute it and/or modify it under
   8:/Library/DaisyToolchain/0.2.0/arm/arm-none-eabi/include/c++/10.3.1/arm-none-eabi/thumb/v7e-m+dp/hard/bits/gthr-default.h **** the terms of the GNU General Public License as published by the Free
   9:/Library/DaisyToolchain/0.2.0/arm/arm-none-eabi/include/c++/10.3.1/arm-none-eabi/thumb/v7e-m+dp/hard/bits/gthr-default.h **** Software Foundation; either version 3, or (at your option) any later
  10:/Library/DaisyToolchain/0.2.0/arm/arm-none-eabi/include/c++/10.3.1/arm-none-eabi/thumb/v7e-m+dp/hard/bits/gthr-default.h **** version.
  11:/Library/DaisyToolchain/0.2.0/arm/arm-none-eabi/include/c++/10.3.1/arm-none-eabi/thumb/v7e-m+dp/hard/bits/gthr-default.h **** 
  12:/Library/DaisyToolchain/0.2.0/arm/arm-none-eabi/include/c++/10.3.1/arm-none-eabi/thumb/v7e-m+dp/hard/bits/gthr-default.h **** GCC is distributed in the hope that it will be useful, but WITHOUT ANY
  13:/Library/DaisyToolchain/0.2.0/arm/arm-none-eabi/include/c++/10.3.1/arm-none-eabi/thumb/v7e-m+dp/hard/bits/gthr-default.h **** WARRANTY; without even the implied warranty of MERCHANTABILITY or
  14:/Library/DaisyToolchain/0.2.0/arm/arm-none-eabi/include/c++/10.3.1/arm-none-eabi/thumb/v7e-m+dp/hard/bits/gthr-default.h **** FITNESS FOR A PARTICULAR PURPOSE.  See the GNU General Public License
  15:/Library/DaisyToolchain/0.2.0/arm/arm-none-eabi/include/c++/10.3.1/arm-none-eabi/thumb/v7e-m+dp/hard/bits/gthr-default.h **** for more details.
  16:/Library/DaisyToolchain/0.2.0/arm/arm-none-eabi/include/c++/10.3.1/arm-none-eabi/thumb/v7e-m+dp/hard/bits/gthr-default.h **** 
  17:/Library/DaisyToolchain/0.2.0/arm/arm-none-eabi/include/c++/10.3.1/arm-none-eabi/thumb/v7e-m+dp/hard/bits/gthr-default.h **** Under Section 7 of GPL version 3, you are granted additional
  18:/Library/DaisyToolchain/0.2.0/arm/arm-none-eabi/include/c++/10.3.1/arm-none-eabi/thumb/v7e-m+dp/hard/bits/gthr-default.h **** permissions described in the GCC Runtime Library Exception, version
ARM GAS  /var/folders/wz/z09yph4n0qj4t7mjxhl6ttn80000gn/T//ccxdcdyF.s 			page 10


  19:/Library/DaisyToolchain/0.2.0/arm/arm-none-eabi/include/c++/10.3.1/arm-none-eabi/thumb/v7e-m+dp/hard/bits/gthr-default.h **** 3.1, as published by the Free Software Foundation.
  20:/Library/DaisyToolchain/0.2.0/arm/arm-none-eabi/include/c++/10.3.1/arm-none-eabi/thumb/v7e-m+dp/hard/bits/gthr-default.h **** 
  21:/Library/DaisyToolchain/0.2.0/arm/arm-none-eabi/include/c++/10.3.1/arm-none-eabi/thumb/v7e-m+dp/hard/bits/gthr-default.h **** You should have received a copy of the GNU General Public License and
  22:/Library/DaisyToolchain/0.2.0/arm/arm-none-eabi/include/c++/10.3.1/arm-none-eabi/thumb/v7e-m+dp/hard/bits/gthr-default.h **** a copy of the GCC Runtime Library Exception along with this program;
  23:/Library/DaisyToolchain/0.2.0/arm/arm-none-eabi/include/c++/10.3.1/arm-none-eabi/thumb/v7e-m+dp/hard/bits/gthr-default.h **** see the files COPYING3 and COPYING.RUNTIME respectively.  If not, see
  24:/Library/DaisyToolchain/0.2.0/arm/arm-none-eabi/include/c++/10.3.1/arm-none-eabi/thumb/v7e-m+dp/hard/bits/gthr-default.h **** <http://www.gnu.org/licenses/>.  */
  25:/Library/DaisyToolchain/0.2.0/arm/arm-none-eabi/include/c++/10.3.1/arm-none-eabi/thumb/v7e-m+dp/hard/bits/gthr-default.h **** 
  26:/Library/DaisyToolchain/0.2.0/arm/arm-none-eabi/include/c++/10.3.1/arm-none-eabi/thumb/v7e-m+dp/hard/bits/gthr-default.h **** #ifndef _GLIBCXX_GCC_GTHR_SINGLE_H
  27:/Library/DaisyToolchain/0.2.0/arm/arm-none-eabi/include/c++/10.3.1/arm-none-eabi/thumb/v7e-m+dp/hard/bits/gthr-default.h **** #define _GLIBCXX_GCC_GTHR_SINGLE_H
  28:/Library/DaisyToolchain/0.2.0/arm/arm-none-eabi/include/c++/10.3.1/arm-none-eabi/thumb/v7e-m+dp/hard/bits/gthr-default.h **** 
  29:/Library/DaisyToolchain/0.2.0/arm/arm-none-eabi/include/c++/10.3.1/arm-none-eabi/thumb/v7e-m+dp/hard/bits/gthr-default.h **** /* Just provide compatibility for mutex handling.  */
  30:/Library/DaisyToolchain/0.2.0/arm/arm-none-eabi/include/c++/10.3.1/arm-none-eabi/thumb/v7e-m+dp/hard/bits/gthr-default.h **** 
  31:/Library/DaisyToolchain/0.2.0/arm/arm-none-eabi/include/c++/10.3.1/arm-none-eabi/thumb/v7e-m+dp/hard/bits/gthr-default.h **** typedef int __gthread_key_t;
  32:/Library/DaisyToolchain/0.2.0/arm/arm-none-eabi/include/c++/10.3.1/arm-none-eabi/thumb/v7e-m+dp/hard/bits/gthr-default.h **** typedef int __gthread_once_t;
  33:/Library/DaisyToolchain/0.2.0/arm/arm-none-eabi/include/c++/10.3.1/arm-none-eabi/thumb/v7e-m+dp/hard/bits/gthr-default.h **** typedef int __gthread_mutex_t;
  34:/Library/DaisyToolchain/0.2.0/arm/arm-none-eabi/include/c++/10.3.1/arm-none-eabi/thumb/v7e-m+dp/hard/bits/gthr-default.h **** typedef int __gthread_recursive_mutex_t;
  35:/Library/DaisyToolchain/0.2.0/arm/arm-none-eabi/include/c++/10.3.1/arm-none-eabi/thumb/v7e-m+dp/hard/bits/gthr-default.h **** 
  36:/Library/DaisyToolchain/0.2.0/arm/arm-none-eabi/include/c++/10.3.1/arm-none-eabi/thumb/v7e-m+dp/hard/bits/gthr-default.h **** #define __GTHREAD_ONCE_INIT 0
  37:/Library/DaisyToolchain/0.2.0/arm/arm-none-eabi/include/c++/10.3.1/arm-none-eabi/thumb/v7e-m+dp/hard/bits/gthr-default.h **** #define __GTHREAD_MUTEX_INIT 0
  38:/Library/DaisyToolchain/0.2.0/arm/arm-none-eabi/include/c++/10.3.1/arm-none-eabi/thumb/v7e-m+dp/hard/bits/gthr-default.h **** #define __GTHREAD_MUTEX_INIT_FUNCTION(mx) do {} while (0)
  39:/Library/DaisyToolchain/0.2.0/arm/arm-none-eabi/include/c++/10.3.1/arm-none-eabi/thumb/v7e-m+dp/hard/bits/gthr-default.h **** #define __GTHREAD_RECURSIVE_MUTEX_INIT 0
  40:/Library/DaisyToolchain/0.2.0/arm/arm-none-eabi/include/c++/10.3.1/arm-none-eabi/thumb/v7e-m+dp/hard/bits/gthr-default.h **** 
  41:/Library/DaisyToolchain/0.2.0/arm/arm-none-eabi/include/c++/10.3.1/arm-none-eabi/thumb/v7e-m+dp/hard/bits/gthr-default.h **** #define _GLIBCXX_UNUSED __attribute__((__unused__))
  42:/Library/DaisyToolchain/0.2.0/arm/arm-none-eabi/include/c++/10.3.1/arm-none-eabi/thumb/v7e-m+dp/hard/bits/gthr-default.h **** 
  43:/Library/DaisyToolchain/0.2.0/arm/arm-none-eabi/include/c++/10.3.1/arm-none-eabi/thumb/v7e-m+dp/hard/bits/gthr-default.h **** #ifdef _LIBOBJC
  44:/Library/DaisyToolchain/0.2.0/arm/arm-none-eabi/include/c++/10.3.1/arm-none-eabi/thumb/v7e-m+dp/hard/bits/gthr-default.h **** 
  45:/Library/DaisyToolchain/0.2.0/arm/arm-none-eabi/include/c++/10.3.1/arm-none-eabi/thumb/v7e-m+dp/hard/bits/gthr-default.h **** /* Thread local storage for a single thread */
  46:/Library/DaisyToolchain/0.2.0/arm/arm-none-eabi/include/c++/10.3.1/arm-none-eabi/thumb/v7e-m+dp/hard/bits/gthr-default.h **** static void *thread_local_storage = NULL;
  47:/Library/DaisyToolchain/0.2.0/arm/arm-none-eabi/include/c++/10.3.1/arm-none-eabi/thumb/v7e-m+dp/hard/bits/gthr-default.h **** 
  48:/Library/DaisyToolchain/0.2.0/arm/arm-none-eabi/include/c++/10.3.1/arm-none-eabi/thumb/v7e-m+dp/hard/bits/gthr-default.h **** /* Backend initialization functions */
  49:/Library/DaisyToolchain/0.2.0/arm/arm-none-eabi/include/c++/10.3.1/arm-none-eabi/thumb/v7e-m+dp/hard/bits/gthr-default.h **** 
  50:/Library/DaisyToolchain/0.2.0/arm/arm-none-eabi/include/c++/10.3.1/arm-none-eabi/thumb/v7e-m+dp/hard/bits/gthr-default.h **** /* Initialize the threads subsystem.  */
  51:/Library/DaisyToolchain/0.2.0/arm/arm-none-eabi/include/c++/10.3.1/arm-none-eabi/thumb/v7e-m+dp/hard/bits/gthr-default.h **** static inline int
  52:/Library/DaisyToolchain/0.2.0/arm/arm-none-eabi/include/c++/10.3.1/arm-none-eabi/thumb/v7e-m+dp/hard/bits/gthr-default.h **** __gthread_objc_init_thread_system (void)
  53:/Library/DaisyToolchain/0.2.0/arm/arm-none-eabi/include/c++/10.3.1/arm-none-eabi/thumb/v7e-m+dp/hard/bits/gthr-default.h **** {
  54:/Library/DaisyToolchain/0.2.0/arm/arm-none-eabi/include/c++/10.3.1/arm-none-eabi/thumb/v7e-m+dp/hard/bits/gthr-default.h ****   /* No thread support available */
  55:/Library/DaisyToolchain/0.2.0/arm/arm-none-eabi/include/c++/10.3.1/arm-none-eabi/thumb/v7e-m+dp/hard/bits/gthr-default.h ****   return -1;
  56:/Library/DaisyToolchain/0.2.0/arm/arm-none-eabi/include/c++/10.3.1/arm-none-eabi/thumb/v7e-m+dp/hard/bits/gthr-default.h **** }
  57:/Library/DaisyToolchain/0.2.0/arm/arm-none-eabi/include/c++/10.3.1/arm-none-eabi/thumb/v7e-m+dp/hard/bits/gthr-default.h **** 
  58:/Library/DaisyToolchain/0.2.0/arm/arm-none-eabi/include/c++/10.3.1/arm-none-eabi/thumb/v7e-m+dp/hard/bits/gthr-default.h **** /* Close the threads subsystem.  */
  59:/Library/DaisyToolchain/0.2.0/arm/arm-none-eabi/include/c++/10.3.1/arm-none-eabi/thumb/v7e-m+dp/hard/bits/gthr-default.h **** static inline int
  60:/Library/DaisyToolchain/0.2.0/arm/arm-none-eabi/include/c++/10.3.1/arm-none-eabi/thumb/v7e-m+dp/hard/bits/gthr-default.h **** __gthread_objc_close_thread_system (void)
  61:/Library/DaisyToolchain/0.2.0/arm/arm-none-eabi/include/c++/10.3.1/arm-none-eabi/thumb/v7e-m+dp/hard/bits/gthr-default.h **** {
  62:/Library/DaisyToolchain/0.2.0/arm/arm-none-eabi/include/c++/10.3.1/arm-none-eabi/thumb/v7e-m+dp/hard/bits/gthr-default.h ****   /* No thread support available */
  63:/Library/DaisyToolchain/0.2.0/arm/arm-none-eabi/include/c++/10.3.1/arm-none-eabi/thumb/v7e-m+dp/hard/bits/gthr-default.h ****   return -1;
  64:/Library/DaisyToolchain/0.2.0/arm/arm-none-eabi/include/c++/10.3.1/arm-none-eabi/thumb/v7e-m+dp/hard/bits/gthr-default.h **** }
  65:/Library/DaisyToolchain/0.2.0/arm/arm-none-eabi/include/c++/10.3.1/arm-none-eabi/thumb/v7e-m+dp/hard/bits/gthr-default.h **** 
  66:/Library/DaisyToolchain/0.2.0/arm/arm-none-eabi/include/c++/10.3.1/arm-none-eabi/thumb/v7e-m+dp/hard/bits/gthr-default.h **** /* Backend thread functions */
  67:/Library/DaisyToolchain/0.2.0/arm/arm-none-eabi/include/c++/10.3.1/arm-none-eabi/thumb/v7e-m+dp/hard/bits/gthr-default.h **** 
  68:/Library/DaisyToolchain/0.2.0/arm/arm-none-eabi/include/c++/10.3.1/arm-none-eabi/thumb/v7e-m+dp/hard/bits/gthr-default.h **** /* Create a new thread of execution.  */
  69:/Library/DaisyToolchain/0.2.0/arm/arm-none-eabi/include/c++/10.3.1/arm-none-eabi/thumb/v7e-m+dp/hard/bits/gthr-default.h **** static inline objc_thread_t
  70:/Library/DaisyToolchain/0.2.0/arm/arm-none-eabi/include/c++/10.3.1/arm-none-eabi/thumb/v7e-m+dp/hard/bits/gthr-default.h **** __gthread_objc_thread_detach (void (* func)(void *), void * arg _GLIBCXX_UNUSED)
  71:/Library/DaisyToolchain/0.2.0/arm/arm-none-eabi/include/c++/10.3.1/arm-none-eabi/thumb/v7e-m+dp/hard/bits/gthr-default.h **** {
  72:/Library/DaisyToolchain/0.2.0/arm/arm-none-eabi/include/c++/10.3.1/arm-none-eabi/thumb/v7e-m+dp/hard/bits/gthr-default.h ****   /* No thread support available */
  73:/Library/DaisyToolchain/0.2.0/arm/arm-none-eabi/include/c++/10.3.1/arm-none-eabi/thumb/v7e-m+dp/hard/bits/gthr-default.h ****   return NULL;
  74:/Library/DaisyToolchain/0.2.0/arm/arm-none-eabi/include/c++/10.3.1/arm-none-eabi/thumb/v7e-m+dp/hard/bits/gthr-default.h **** }
  75:/Library/DaisyToolchain/0.2.0/arm/arm-none-eabi/include/c++/10.3.1/arm-none-eabi/thumb/v7e-m+dp/hard/bits/gthr-default.h **** 
ARM GAS  /var/folders/wz/z09yph4n0qj4t7mjxhl6ttn80000gn/T//ccxdcdyF.s 			page 11


  76:/Library/DaisyToolchain/0.2.0/arm/arm-none-eabi/include/c++/10.3.1/arm-none-eabi/thumb/v7e-m+dp/hard/bits/gthr-default.h **** /* Set the current thread's priority.  */
  77:/Library/DaisyToolchain/0.2.0/arm/arm-none-eabi/include/c++/10.3.1/arm-none-eabi/thumb/v7e-m+dp/hard/bits/gthr-default.h **** static inline int
  78:/Library/DaisyToolchain/0.2.0/arm/arm-none-eabi/include/c++/10.3.1/arm-none-eabi/thumb/v7e-m+dp/hard/bits/gthr-default.h **** __gthread_objc_thread_set_priority (int priority _GLIBCXX_UNUSED)
  79:/Library/DaisyToolchain/0.2.0/arm/arm-none-eabi/include/c++/10.3.1/arm-none-eabi/thumb/v7e-m+dp/hard/bits/gthr-default.h **** {
  80:/Library/DaisyToolchain/0.2.0/arm/arm-none-eabi/include/c++/10.3.1/arm-none-eabi/thumb/v7e-m+dp/hard/bits/gthr-default.h ****   /* No thread support available */
  81:/Library/DaisyToolchain/0.2.0/arm/arm-none-eabi/include/c++/10.3.1/arm-none-eabi/thumb/v7e-m+dp/hard/bits/gthr-default.h ****   return -1;
  82:/Library/DaisyToolchain/0.2.0/arm/arm-none-eabi/include/c++/10.3.1/arm-none-eabi/thumb/v7e-m+dp/hard/bits/gthr-default.h **** }
  83:/Library/DaisyToolchain/0.2.0/arm/arm-none-eabi/include/c++/10.3.1/arm-none-eabi/thumb/v7e-m+dp/hard/bits/gthr-default.h **** 
  84:/Library/DaisyToolchain/0.2.0/arm/arm-none-eabi/include/c++/10.3.1/arm-none-eabi/thumb/v7e-m+dp/hard/bits/gthr-default.h **** /* Return the current thread's priority.  */
  85:/Library/DaisyToolchain/0.2.0/arm/arm-none-eabi/include/c++/10.3.1/arm-none-eabi/thumb/v7e-m+dp/hard/bits/gthr-default.h **** static inline int
  86:/Library/DaisyToolchain/0.2.0/arm/arm-none-eabi/include/c++/10.3.1/arm-none-eabi/thumb/v7e-m+dp/hard/bits/gthr-default.h **** __gthread_objc_thread_get_priority (void)
  87:/Library/DaisyToolchain/0.2.0/arm/arm-none-eabi/include/c++/10.3.1/arm-none-eabi/thumb/v7e-m+dp/hard/bits/gthr-default.h **** {
  88:/Library/DaisyToolchain/0.2.0/arm/arm-none-eabi/include/c++/10.3.1/arm-none-eabi/thumb/v7e-m+dp/hard/bits/gthr-default.h ****   return OBJC_THREAD_INTERACTIVE_PRIORITY;
  89:/Library/DaisyToolchain/0.2.0/arm/arm-none-eabi/include/c++/10.3.1/arm-none-eabi/thumb/v7e-m+dp/hard/bits/gthr-default.h **** }
  90:/Library/DaisyToolchain/0.2.0/arm/arm-none-eabi/include/c++/10.3.1/arm-none-eabi/thumb/v7e-m+dp/hard/bits/gthr-default.h **** 
  91:/Library/DaisyToolchain/0.2.0/arm/arm-none-eabi/include/c++/10.3.1/arm-none-eabi/thumb/v7e-m+dp/hard/bits/gthr-default.h **** /* Yield our process time to another thread.  */
  92:/Library/DaisyToolchain/0.2.0/arm/arm-none-eabi/include/c++/10.3.1/arm-none-eabi/thumb/v7e-m+dp/hard/bits/gthr-default.h **** static inline void
  93:/Library/DaisyToolchain/0.2.0/arm/arm-none-eabi/include/c++/10.3.1/arm-none-eabi/thumb/v7e-m+dp/hard/bits/gthr-default.h **** __gthread_objc_thread_yield (void)
  94:/Library/DaisyToolchain/0.2.0/arm/arm-none-eabi/include/c++/10.3.1/arm-none-eabi/thumb/v7e-m+dp/hard/bits/gthr-default.h **** {
  95:/Library/DaisyToolchain/0.2.0/arm/arm-none-eabi/include/c++/10.3.1/arm-none-eabi/thumb/v7e-m+dp/hard/bits/gthr-default.h ****   return;
  96:/Library/DaisyToolchain/0.2.0/arm/arm-none-eabi/include/c++/10.3.1/arm-none-eabi/thumb/v7e-m+dp/hard/bits/gthr-default.h **** }
  97:/Library/DaisyToolchain/0.2.0/arm/arm-none-eabi/include/c++/10.3.1/arm-none-eabi/thumb/v7e-m+dp/hard/bits/gthr-default.h **** 
  98:/Library/DaisyToolchain/0.2.0/arm/arm-none-eabi/include/c++/10.3.1/arm-none-eabi/thumb/v7e-m+dp/hard/bits/gthr-default.h **** /* Terminate the current thread.  */
  99:/Library/DaisyToolchain/0.2.0/arm/arm-none-eabi/include/c++/10.3.1/arm-none-eabi/thumb/v7e-m+dp/hard/bits/gthr-default.h **** static inline int
 100:/Library/DaisyToolchain/0.2.0/arm/arm-none-eabi/include/c++/10.3.1/arm-none-eabi/thumb/v7e-m+dp/hard/bits/gthr-default.h **** __gthread_objc_thread_exit (void)
 101:/Library/DaisyToolchain/0.2.0/arm/arm-none-eabi/include/c++/10.3.1/arm-none-eabi/thumb/v7e-m+dp/hard/bits/gthr-default.h **** {
 102:/Library/DaisyToolchain/0.2.0/arm/arm-none-eabi/include/c++/10.3.1/arm-none-eabi/thumb/v7e-m+dp/hard/bits/gthr-default.h ****   /* No thread support available */
 103:/Library/DaisyToolchain/0.2.0/arm/arm-none-eabi/include/c++/10.3.1/arm-none-eabi/thumb/v7e-m+dp/hard/bits/gthr-default.h ****   /* Should we really exit the program */
 104:/Library/DaisyToolchain/0.2.0/arm/arm-none-eabi/include/c++/10.3.1/arm-none-eabi/thumb/v7e-m+dp/hard/bits/gthr-default.h ****   /* exit (&__objc_thread_exit_status); */
 105:/Library/DaisyToolchain/0.2.0/arm/arm-none-eabi/include/c++/10.3.1/arm-none-eabi/thumb/v7e-m+dp/hard/bits/gthr-default.h ****   return -1;
 106:/Library/DaisyToolchain/0.2.0/arm/arm-none-eabi/include/c++/10.3.1/arm-none-eabi/thumb/v7e-m+dp/hard/bits/gthr-default.h **** }
 107:/Library/DaisyToolchain/0.2.0/arm/arm-none-eabi/include/c++/10.3.1/arm-none-eabi/thumb/v7e-m+dp/hard/bits/gthr-default.h **** 
 108:/Library/DaisyToolchain/0.2.0/arm/arm-none-eabi/include/c++/10.3.1/arm-none-eabi/thumb/v7e-m+dp/hard/bits/gthr-default.h **** /* Returns an integer value which uniquely describes a thread.  */
 109:/Library/DaisyToolchain/0.2.0/arm/arm-none-eabi/include/c++/10.3.1/arm-none-eabi/thumb/v7e-m+dp/hard/bits/gthr-default.h **** static inline objc_thread_t
 110:/Library/DaisyToolchain/0.2.0/arm/arm-none-eabi/include/c++/10.3.1/arm-none-eabi/thumb/v7e-m+dp/hard/bits/gthr-default.h **** __gthread_objc_thread_id (void)
 111:/Library/DaisyToolchain/0.2.0/arm/arm-none-eabi/include/c++/10.3.1/arm-none-eabi/thumb/v7e-m+dp/hard/bits/gthr-default.h **** {
 112:/Library/DaisyToolchain/0.2.0/arm/arm-none-eabi/include/c++/10.3.1/arm-none-eabi/thumb/v7e-m+dp/hard/bits/gthr-default.h ****   /* No thread support, use 1.  */
 113:/Library/DaisyToolchain/0.2.0/arm/arm-none-eabi/include/c++/10.3.1/arm-none-eabi/thumb/v7e-m+dp/hard/bits/gthr-default.h ****   return (objc_thread_t) 1;
 114:/Library/DaisyToolchain/0.2.0/arm/arm-none-eabi/include/c++/10.3.1/arm-none-eabi/thumb/v7e-m+dp/hard/bits/gthr-default.h **** }
 115:/Library/DaisyToolchain/0.2.0/arm/arm-none-eabi/include/c++/10.3.1/arm-none-eabi/thumb/v7e-m+dp/hard/bits/gthr-default.h **** 
 116:/Library/DaisyToolchain/0.2.0/arm/arm-none-eabi/include/c++/10.3.1/arm-none-eabi/thumb/v7e-m+dp/hard/bits/gthr-default.h **** /* Sets the thread's local storage pointer.  */
 117:/Library/DaisyToolchain/0.2.0/arm/arm-none-eabi/include/c++/10.3.1/arm-none-eabi/thumb/v7e-m+dp/hard/bits/gthr-default.h **** static inline int
 118:/Library/DaisyToolchain/0.2.0/arm/arm-none-eabi/include/c++/10.3.1/arm-none-eabi/thumb/v7e-m+dp/hard/bits/gthr-default.h **** __gthread_objc_thread_set_data (void *value)
 119:/Library/DaisyToolchain/0.2.0/arm/arm-none-eabi/include/c++/10.3.1/arm-none-eabi/thumb/v7e-m+dp/hard/bits/gthr-default.h **** {
 120:/Library/DaisyToolchain/0.2.0/arm/arm-none-eabi/include/c++/10.3.1/arm-none-eabi/thumb/v7e-m+dp/hard/bits/gthr-default.h ****   thread_local_storage = value;
 121:/Library/DaisyToolchain/0.2.0/arm/arm-none-eabi/include/c++/10.3.1/arm-none-eabi/thumb/v7e-m+dp/hard/bits/gthr-default.h ****   return 0;
 122:/Library/DaisyToolchain/0.2.0/arm/arm-none-eabi/include/c++/10.3.1/arm-none-eabi/thumb/v7e-m+dp/hard/bits/gthr-default.h **** }
 123:/Library/DaisyToolchain/0.2.0/arm/arm-none-eabi/include/c++/10.3.1/arm-none-eabi/thumb/v7e-m+dp/hard/bits/gthr-default.h **** 
 124:/Library/DaisyToolchain/0.2.0/arm/arm-none-eabi/include/c++/10.3.1/arm-none-eabi/thumb/v7e-m+dp/hard/bits/gthr-default.h **** /* Returns the thread's local storage pointer.  */
 125:/Library/DaisyToolchain/0.2.0/arm/arm-none-eabi/include/c++/10.3.1/arm-none-eabi/thumb/v7e-m+dp/hard/bits/gthr-default.h **** static inline void *
 126:/Library/DaisyToolchain/0.2.0/arm/arm-none-eabi/include/c++/10.3.1/arm-none-eabi/thumb/v7e-m+dp/hard/bits/gthr-default.h **** __gthread_objc_thread_get_data (void)
 127:/Library/DaisyToolchain/0.2.0/arm/arm-none-eabi/include/c++/10.3.1/arm-none-eabi/thumb/v7e-m+dp/hard/bits/gthr-default.h **** {
 128:/Library/DaisyToolchain/0.2.0/arm/arm-none-eabi/include/c++/10.3.1/arm-none-eabi/thumb/v7e-m+dp/hard/bits/gthr-default.h ****   return thread_local_storage;
 129:/Library/DaisyToolchain/0.2.0/arm/arm-none-eabi/include/c++/10.3.1/arm-none-eabi/thumb/v7e-m+dp/hard/bits/gthr-default.h **** }
 130:/Library/DaisyToolchain/0.2.0/arm/arm-none-eabi/include/c++/10.3.1/arm-none-eabi/thumb/v7e-m+dp/hard/bits/gthr-default.h **** 
 131:/Library/DaisyToolchain/0.2.0/arm/arm-none-eabi/include/c++/10.3.1/arm-none-eabi/thumb/v7e-m+dp/hard/bits/gthr-default.h **** /* Backend mutex functions */
 132:/Library/DaisyToolchain/0.2.0/arm/arm-none-eabi/include/c++/10.3.1/arm-none-eabi/thumb/v7e-m+dp/hard/bits/gthr-default.h **** 
ARM GAS  /var/folders/wz/z09yph4n0qj4t7mjxhl6ttn80000gn/T//ccxdcdyF.s 			page 12


 133:/Library/DaisyToolchain/0.2.0/arm/arm-none-eabi/include/c++/10.3.1/arm-none-eabi/thumb/v7e-m+dp/hard/bits/gthr-default.h **** /* Allocate a mutex.  */
 134:/Library/DaisyToolchain/0.2.0/arm/arm-none-eabi/include/c++/10.3.1/arm-none-eabi/thumb/v7e-m+dp/hard/bits/gthr-default.h **** static inline int
 135:/Library/DaisyToolchain/0.2.0/arm/arm-none-eabi/include/c++/10.3.1/arm-none-eabi/thumb/v7e-m+dp/hard/bits/gthr-default.h **** __gthread_objc_mutex_allocate (objc_mutex_t mutex _GLIBCXX_UNUSED)
 136:/Library/DaisyToolchain/0.2.0/arm/arm-none-eabi/include/c++/10.3.1/arm-none-eabi/thumb/v7e-m+dp/hard/bits/gthr-default.h **** {
 137:/Library/DaisyToolchain/0.2.0/arm/arm-none-eabi/include/c++/10.3.1/arm-none-eabi/thumb/v7e-m+dp/hard/bits/gthr-default.h ****   return 0;
 138:/Library/DaisyToolchain/0.2.0/arm/arm-none-eabi/include/c++/10.3.1/arm-none-eabi/thumb/v7e-m+dp/hard/bits/gthr-default.h **** }
 139:/Library/DaisyToolchain/0.2.0/arm/arm-none-eabi/include/c++/10.3.1/arm-none-eabi/thumb/v7e-m+dp/hard/bits/gthr-default.h **** 
 140:/Library/DaisyToolchain/0.2.0/arm/arm-none-eabi/include/c++/10.3.1/arm-none-eabi/thumb/v7e-m+dp/hard/bits/gthr-default.h **** /* Deallocate a mutex.  */
 141:/Library/DaisyToolchain/0.2.0/arm/arm-none-eabi/include/c++/10.3.1/arm-none-eabi/thumb/v7e-m+dp/hard/bits/gthr-default.h **** static inline int
 142:/Library/DaisyToolchain/0.2.0/arm/arm-none-eabi/include/c++/10.3.1/arm-none-eabi/thumb/v7e-m+dp/hard/bits/gthr-default.h **** __gthread_objc_mutex_deallocate (objc_mutex_t mutex _GLIBCXX_UNUSED)
 143:/Library/DaisyToolchain/0.2.0/arm/arm-none-eabi/include/c++/10.3.1/arm-none-eabi/thumb/v7e-m+dp/hard/bits/gthr-default.h **** {
 144:/Library/DaisyToolchain/0.2.0/arm/arm-none-eabi/include/c++/10.3.1/arm-none-eabi/thumb/v7e-m+dp/hard/bits/gthr-default.h ****   return 0;
 145:/Library/DaisyToolchain/0.2.0/arm/arm-none-eabi/include/c++/10.3.1/arm-none-eabi/thumb/v7e-m+dp/hard/bits/gthr-default.h **** }
 146:/Library/DaisyToolchain/0.2.0/arm/arm-none-eabi/include/c++/10.3.1/arm-none-eabi/thumb/v7e-m+dp/hard/bits/gthr-default.h **** 
 147:/Library/DaisyToolchain/0.2.0/arm/arm-none-eabi/include/c++/10.3.1/arm-none-eabi/thumb/v7e-m+dp/hard/bits/gthr-default.h **** /* Grab a lock on a mutex.  */
 148:/Library/DaisyToolchain/0.2.0/arm/arm-none-eabi/include/c++/10.3.1/arm-none-eabi/thumb/v7e-m+dp/hard/bits/gthr-default.h **** static inline int
 149:/Library/DaisyToolchain/0.2.0/arm/arm-none-eabi/include/c++/10.3.1/arm-none-eabi/thumb/v7e-m+dp/hard/bits/gthr-default.h **** __gthread_objc_mutex_lock (objc_mutex_t mutex _GLIBCXX_UNUSED)
 150:/Library/DaisyToolchain/0.2.0/arm/arm-none-eabi/include/c++/10.3.1/arm-none-eabi/thumb/v7e-m+dp/hard/bits/gthr-default.h **** {
 151:/Library/DaisyToolchain/0.2.0/arm/arm-none-eabi/include/c++/10.3.1/arm-none-eabi/thumb/v7e-m+dp/hard/bits/gthr-default.h ****   /* There can only be one thread, so we always get the lock */
 152:/Library/DaisyToolchain/0.2.0/arm/arm-none-eabi/include/c++/10.3.1/arm-none-eabi/thumb/v7e-m+dp/hard/bits/gthr-default.h ****   return 0;
 153:/Library/DaisyToolchain/0.2.0/arm/arm-none-eabi/include/c++/10.3.1/arm-none-eabi/thumb/v7e-m+dp/hard/bits/gthr-default.h **** }
 154:/Library/DaisyToolchain/0.2.0/arm/arm-none-eabi/include/c++/10.3.1/arm-none-eabi/thumb/v7e-m+dp/hard/bits/gthr-default.h **** 
 155:/Library/DaisyToolchain/0.2.0/arm/arm-none-eabi/include/c++/10.3.1/arm-none-eabi/thumb/v7e-m+dp/hard/bits/gthr-default.h **** /* Try to grab a lock on a mutex.  */
 156:/Library/DaisyToolchain/0.2.0/arm/arm-none-eabi/include/c++/10.3.1/arm-none-eabi/thumb/v7e-m+dp/hard/bits/gthr-default.h **** static inline int
 157:/Library/DaisyToolchain/0.2.0/arm/arm-none-eabi/include/c++/10.3.1/arm-none-eabi/thumb/v7e-m+dp/hard/bits/gthr-default.h **** __gthread_objc_mutex_trylock (objc_mutex_t mutex _GLIBCXX_UNUSED)
 158:/Library/DaisyToolchain/0.2.0/arm/arm-none-eabi/include/c++/10.3.1/arm-none-eabi/thumb/v7e-m+dp/hard/bits/gthr-default.h **** {
 159:/Library/DaisyToolchain/0.2.0/arm/arm-none-eabi/include/c++/10.3.1/arm-none-eabi/thumb/v7e-m+dp/hard/bits/gthr-default.h ****   /* There can only be one thread, so we always get the lock */
 160:/Library/DaisyToolchain/0.2.0/arm/arm-none-eabi/include/c++/10.3.1/arm-none-eabi/thumb/v7e-m+dp/hard/bits/gthr-default.h ****   return 0;
 161:/Library/DaisyToolchain/0.2.0/arm/arm-none-eabi/include/c++/10.3.1/arm-none-eabi/thumb/v7e-m+dp/hard/bits/gthr-default.h **** }
 162:/Library/DaisyToolchain/0.2.0/arm/arm-none-eabi/include/c++/10.3.1/arm-none-eabi/thumb/v7e-m+dp/hard/bits/gthr-default.h **** 
 163:/Library/DaisyToolchain/0.2.0/arm/arm-none-eabi/include/c++/10.3.1/arm-none-eabi/thumb/v7e-m+dp/hard/bits/gthr-default.h **** /* Unlock the mutex */
 164:/Library/DaisyToolchain/0.2.0/arm/arm-none-eabi/include/c++/10.3.1/arm-none-eabi/thumb/v7e-m+dp/hard/bits/gthr-default.h **** static inline int
 165:/Library/DaisyToolchain/0.2.0/arm/arm-none-eabi/include/c++/10.3.1/arm-none-eabi/thumb/v7e-m+dp/hard/bits/gthr-default.h **** __gthread_objc_mutex_unlock (objc_mutex_t mutex _GLIBCXX_UNUSED)
 166:/Library/DaisyToolchain/0.2.0/arm/arm-none-eabi/include/c++/10.3.1/arm-none-eabi/thumb/v7e-m+dp/hard/bits/gthr-default.h **** {
 167:/Library/DaisyToolchain/0.2.0/arm/arm-none-eabi/include/c++/10.3.1/arm-none-eabi/thumb/v7e-m+dp/hard/bits/gthr-default.h ****   return 0;
 168:/Library/DaisyToolchain/0.2.0/arm/arm-none-eabi/include/c++/10.3.1/arm-none-eabi/thumb/v7e-m+dp/hard/bits/gthr-default.h **** }
 169:/Library/DaisyToolchain/0.2.0/arm/arm-none-eabi/include/c++/10.3.1/arm-none-eabi/thumb/v7e-m+dp/hard/bits/gthr-default.h **** 
 170:/Library/DaisyToolchain/0.2.0/arm/arm-none-eabi/include/c++/10.3.1/arm-none-eabi/thumb/v7e-m+dp/hard/bits/gthr-default.h **** /* Backend condition mutex functions */
 171:/Library/DaisyToolchain/0.2.0/arm/arm-none-eabi/include/c++/10.3.1/arm-none-eabi/thumb/v7e-m+dp/hard/bits/gthr-default.h **** 
 172:/Library/DaisyToolchain/0.2.0/arm/arm-none-eabi/include/c++/10.3.1/arm-none-eabi/thumb/v7e-m+dp/hard/bits/gthr-default.h **** /* Allocate a condition.  */
 173:/Library/DaisyToolchain/0.2.0/arm/arm-none-eabi/include/c++/10.3.1/arm-none-eabi/thumb/v7e-m+dp/hard/bits/gthr-default.h **** static inline int
 174:/Library/DaisyToolchain/0.2.0/arm/arm-none-eabi/include/c++/10.3.1/arm-none-eabi/thumb/v7e-m+dp/hard/bits/gthr-default.h **** __gthread_objc_condition_allocate (objc_condition_t condition _GLIBCXX_UNUSED)
 175:/Library/DaisyToolchain/0.2.0/arm/arm-none-eabi/include/c++/10.3.1/arm-none-eabi/thumb/v7e-m+dp/hard/bits/gthr-default.h **** {
 176:/Library/DaisyToolchain/0.2.0/arm/arm-none-eabi/include/c++/10.3.1/arm-none-eabi/thumb/v7e-m+dp/hard/bits/gthr-default.h ****   return 0;
 177:/Library/DaisyToolchain/0.2.0/arm/arm-none-eabi/include/c++/10.3.1/arm-none-eabi/thumb/v7e-m+dp/hard/bits/gthr-default.h **** }
 178:/Library/DaisyToolchain/0.2.0/arm/arm-none-eabi/include/c++/10.3.1/arm-none-eabi/thumb/v7e-m+dp/hard/bits/gthr-default.h **** 
 179:/Library/DaisyToolchain/0.2.0/arm/arm-none-eabi/include/c++/10.3.1/arm-none-eabi/thumb/v7e-m+dp/hard/bits/gthr-default.h **** /* Deallocate a condition.  */
 180:/Library/DaisyToolchain/0.2.0/arm/arm-none-eabi/include/c++/10.3.1/arm-none-eabi/thumb/v7e-m+dp/hard/bits/gthr-default.h **** static inline int
 181:/Library/DaisyToolchain/0.2.0/arm/arm-none-eabi/include/c++/10.3.1/arm-none-eabi/thumb/v7e-m+dp/hard/bits/gthr-default.h **** __gthread_objc_condition_deallocate (objc_condition_t condition _GLIBCXX_UNUSED)
 182:/Library/DaisyToolchain/0.2.0/arm/arm-none-eabi/include/c++/10.3.1/arm-none-eabi/thumb/v7e-m+dp/hard/bits/gthr-default.h **** {
 183:/Library/DaisyToolchain/0.2.0/arm/arm-none-eabi/include/c++/10.3.1/arm-none-eabi/thumb/v7e-m+dp/hard/bits/gthr-default.h ****   return 0;
 184:/Library/DaisyToolchain/0.2.0/arm/arm-none-eabi/include/c++/10.3.1/arm-none-eabi/thumb/v7e-m+dp/hard/bits/gthr-default.h **** }
 185:/Library/DaisyToolchain/0.2.0/arm/arm-none-eabi/include/c++/10.3.1/arm-none-eabi/thumb/v7e-m+dp/hard/bits/gthr-default.h **** 
 186:/Library/DaisyToolchain/0.2.0/arm/arm-none-eabi/include/c++/10.3.1/arm-none-eabi/thumb/v7e-m+dp/hard/bits/gthr-default.h **** /* Wait on the condition */
 187:/Library/DaisyToolchain/0.2.0/arm/arm-none-eabi/include/c++/10.3.1/arm-none-eabi/thumb/v7e-m+dp/hard/bits/gthr-default.h **** static inline int
 188:/Library/DaisyToolchain/0.2.0/arm/arm-none-eabi/include/c++/10.3.1/arm-none-eabi/thumb/v7e-m+dp/hard/bits/gthr-default.h **** __gthread_objc_condition_wait (objc_condition_t condition _GLIBCXX_UNUSED,
 189:/Library/DaisyToolchain/0.2.0/arm/arm-none-eabi/include/c++/10.3.1/arm-none-eabi/thumb/v7e-m+dp/hard/bits/gthr-default.h **** 			       objc_mutex_t mutex _GLIBCXX_UNUSED)
ARM GAS  /var/folders/wz/z09yph4n0qj4t7mjxhl6ttn80000gn/T//ccxdcdyF.s 			page 13


 190:/Library/DaisyToolchain/0.2.0/arm/arm-none-eabi/include/c++/10.3.1/arm-none-eabi/thumb/v7e-m+dp/hard/bits/gthr-default.h **** {
 191:/Library/DaisyToolchain/0.2.0/arm/arm-none-eabi/include/c++/10.3.1/arm-none-eabi/thumb/v7e-m+dp/hard/bits/gthr-default.h ****   return 0;
 192:/Library/DaisyToolchain/0.2.0/arm/arm-none-eabi/include/c++/10.3.1/arm-none-eabi/thumb/v7e-m+dp/hard/bits/gthr-default.h **** }
 193:/Library/DaisyToolchain/0.2.0/arm/arm-none-eabi/include/c++/10.3.1/arm-none-eabi/thumb/v7e-m+dp/hard/bits/gthr-default.h **** 
 194:/Library/DaisyToolchain/0.2.0/arm/arm-none-eabi/include/c++/10.3.1/arm-none-eabi/thumb/v7e-m+dp/hard/bits/gthr-default.h **** /* Wake up all threads waiting on this condition.  */
 195:/Library/DaisyToolchain/0.2.0/arm/arm-none-eabi/include/c++/10.3.1/arm-none-eabi/thumb/v7e-m+dp/hard/bits/gthr-default.h **** static inline int
 196:/Library/DaisyToolchain/0.2.0/arm/arm-none-eabi/include/c++/10.3.1/arm-none-eabi/thumb/v7e-m+dp/hard/bits/gthr-default.h **** __gthread_objc_condition_broadcast (objc_condition_t condition _GLIBCXX_UNUSED)
 197:/Library/DaisyToolchain/0.2.0/arm/arm-none-eabi/include/c++/10.3.1/arm-none-eabi/thumb/v7e-m+dp/hard/bits/gthr-default.h **** {
 198:/Library/DaisyToolchain/0.2.0/arm/arm-none-eabi/include/c++/10.3.1/arm-none-eabi/thumb/v7e-m+dp/hard/bits/gthr-default.h ****   return 0;
 199:/Library/DaisyToolchain/0.2.0/arm/arm-none-eabi/include/c++/10.3.1/arm-none-eabi/thumb/v7e-m+dp/hard/bits/gthr-default.h **** }
 200:/Library/DaisyToolchain/0.2.0/arm/arm-none-eabi/include/c++/10.3.1/arm-none-eabi/thumb/v7e-m+dp/hard/bits/gthr-default.h **** 
 201:/Library/DaisyToolchain/0.2.0/arm/arm-none-eabi/include/c++/10.3.1/arm-none-eabi/thumb/v7e-m+dp/hard/bits/gthr-default.h **** /* Wake up one thread waiting on this condition.  */
 202:/Library/DaisyToolchain/0.2.0/arm/arm-none-eabi/include/c++/10.3.1/arm-none-eabi/thumb/v7e-m+dp/hard/bits/gthr-default.h **** static inline int
 203:/Library/DaisyToolchain/0.2.0/arm/arm-none-eabi/include/c++/10.3.1/arm-none-eabi/thumb/v7e-m+dp/hard/bits/gthr-default.h **** __gthread_objc_condition_signal (objc_condition_t condition _GLIBCXX_UNUSED)
 204:/Library/DaisyToolchain/0.2.0/arm/arm-none-eabi/include/c++/10.3.1/arm-none-eabi/thumb/v7e-m+dp/hard/bits/gthr-default.h **** {
 205:/Library/DaisyToolchain/0.2.0/arm/arm-none-eabi/include/c++/10.3.1/arm-none-eabi/thumb/v7e-m+dp/hard/bits/gthr-default.h ****   return 0;
 206:/Library/DaisyToolchain/0.2.0/arm/arm-none-eabi/include/c++/10.3.1/arm-none-eabi/thumb/v7e-m+dp/hard/bits/gthr-default.h **** }
 207:/Library/DaisyToolchain/0.2.0/arm/arm-none-eabi/include/c++/10.3.1/arm-none-eabi/thumb/v7e-m+dp/hard/bits/gthr-default.h **** 
 208:/Library/DaisyToolchain/0.2.0/arm/arm-none-eabi/include/c++/10.3.1/arm-none-eabi/thumb/v7e-m+dp/hard/bits/gthr-default.h **** #else /* _LIBOBJC */
 209:/Library/DaisyToolchain/0.2.0/arm/arm-none-eabi/include/c++/10.3.1/arm-none-eabi/thumb/v7e-m+dp/hard/bits/gthr-default.h **** 
 210:/Library/DaisyToolchain/0.2.0/arm/arm-none-eabi/include/c++/10.3.1/arm-none-eabi/thumb/v7e-m+dp/hard/bits/gthr-default.h **** static inline int
 211:/Library/DaisyToolchain/0.2.0/arm/arm-none-eabi/include/c++/10.3.1/arm-none-eabi/thumb/v7e-m+dp/hard/bits/gthr-default.h **** __gthread_active_p (void)
 212:/Library/DaisyToolchain/0.2.0/arm/arm-none-eabi/include/c++/10.3.1/arm-none-eabi/thumb/v7e-m+dp/hard/bits/gthr-default.h **** {
 213:/Library/DaisyToolchain/0.2.0/arm/arm-none-eabi/include/c++/10.3.1/arm-none-eabi/thumb/v7e-m+dp/hard/bits/gthr-default.h ****   return 0;
 214:/Library/DaisyToolchain/0.2.0/arm/arm-none-eabi/include/c++/10.3.1/arm-none-eabi/thumb/v7e-m+dp/hard/bits/gthr-default.h **** }
 215:/Library/DaisyToolchain/0.2.0/arm/arm-none-eabi/include/c++/10.3.1/arm-none-eabi/thumb/v7e-m+dp/hard/bits/gthr-default.h **** 
 216:/Library/DaisyToolchain/0.2.0/arm/arm-none-eabi/include/c++/10.3.1/arm-none-eabi/thumb/v7e-m+dp/hard/bits/gthr-default.h **** static inline int
 217:/Library/DaisyToolchain/0.2.0/arm/arm-none-eabi/include/c++/10.3.1/arm-none-eabi/thumb/v7e-m+dp/hard/bits/gthr-default.h **** __gthread_once (__gthread_once_t *__once _GLIBCXX_UNUSED, void (*__func) (void) _GLIBCXX_UNUSED)
 218:/Library/DaisyToolchain/0.2.0/arm/arm-none-eabi/include/c++/10.3.1/arm-none-eabi/thumb/v7e-m+dp/hard/bits/gthr-default.h **** {
 219:/Library/DaisyToolchain/0.2.0/arm/arm-none-eabi/include/c++/10.3.1/arm-none-eabi/thumb/v7e-m+dp/hard/bits/gthr-default.h ****   return 0;
 220:/Library/DaisyToolchain/0.2.0/arm/arm-none-eabi/include/c++/10.3.1/arm-none-eabi/thumb/v7e-m+dp/hard/bits/gthr-default.h **** }
 221:/Library/DaisyToolchain/0.2.0/arm/arm-none-eabi/include/c++/10.3.1/arm-none-eabi/thumb/v7e-m+dp/hard/bits/gthr-default.h **** 
 222:/Library/DaisyToolchain/0.2.0/arm/arm-none-eabi/include/c++/10.3.1/arm-none-eabi/thumb/v7e-m+dp/hard/bits/gthr-default.h **** static inline int _GLIBCXX_UNUSED
 223:/Library/DaisyToolchain/0.2.0/arm/arm-none-eabi/include/c++/10.3.1/arm-none-eabi/thumb/v7e-m+dp/hard/bits/gthr-default.h **** __gthread_key_create (__gthread_key_t *__key _GLIBCXX_UNUSED, void (*__func) (void *) _GLIBCXX_UNUS
 224:/Library/DaisyToolchain/0.2.0/arm/arm-none-eabi/include/c++/10.3.1/arm-none-eabi/thumb/v7e-m+dp/hard/bits/gthr-default.h **** {
 225:/Library/DaisyToolchain/0.2.0/arm/arm-none-eabi/include/c++/10.3.1/arm-none-eabi/thumb/v7e-m+dp/hard/bits/gthr-default.h ****   return 0;
 226:/Library/DaisyToolchain/0.2.0/arm/arm-none-eabi/include/c++/10.3.1/arm-none-eabi/thumb/v7e-m+dp/hard/bits/gthr-default.h **** }
 227:/Library/DaisyToolchain/0.2.0/arm/arm-none-eabi/include/c++/10.3.1/arm-none-eabi/thumb/v7e-m+dp/hard/bits/gthr-default.h **** 
 228:/Library/DaisyToolchain/0.2.0/arm/arm-none-eabi/include/c++/10.3.1/arm-none-eabi/thumb/v7e-m+dp/hard/bits/gthr-default.h **** static int _GLIBCXX_UNUSED
 229:/Library/DaisyToolchain/0.2.0/arm/arm-none-eabi/include/c++/10.3.1/arm-none-eabi/thumb/v7e-m+dp/hard/bits/gthr-default.h **** __gthread_key_delete (__gthread_key_t __key _GLIBCXX_UNUSED)
 230:/Library/DaisyToolchain/0.2.0/arm/arm-none-eabi/include/c++/10.3.1/arm-none-eabi/thumb/v7e-m+dp/hard/bits/gthr-default.h **** {
 430              		.loc 2 230 1
 431              		.cfi_startproc
 432              		@ args = 0, pretend = 0, frame = 8
 433              		@ frame_needed = 1, uses_anonymous_args = 0
 434              		@ link register save eliminated.
 435 0000 80B4     		push	{r7}
 436              		.cfi_def_cfa_offset 4
 437              		.cfi_offset 7, -4
 438 0002 83B0     		sub	sp, sp, #12
 439              		.cfi_def_cfa_offset 16
 440 0004 00AF     		add	r7, sp, #0
 441              		.cfi_def_cfa_register 7
 442 0006 7860     		str	r0, [r7, #4]
 231:/Library/DaisyToolchain/0.2.0/arm/arm-none-eabi/include/c++/10.3.1/arm-none-eabi/thumb/v7e-m+dp/hard/bits/gthr-default.h ****   return 0;
 443              		.loc 2 231 10
 444 0008 0023     		movs	r3, #0
ARM GAS  /var/folders/wz/z09yph4n0qj4t7mjxhl6ttn80000gn/T//ccxdcdyF.s 			page 14


 232:/Library/DaisyToolchain/0.2.0/arm/arm-none-eabi/include/c++/10.3.1/arm-none-eabi/thumb/v7e-m+dp/hard/bits/gthr-default.h **** }
 445              		.loc 2 232 1
 446 000a 1846     		mov	r0, r3
 447 000c 0C37     		adds	r7, r7, #12
 448              		.cfi_def_cfa_offset 4
 449 000e BD46     		mov	sp, r7
 450              		.cfi_def_cfa_register 13
 451              		@ sp needed
 452 0010 5DF8047B 		ldr	r7, [sp], #4
 453              		.cfi_restore 7
 454              		.cfi_def_cfa_offset 0
 455 0014 7047     		bx	lr
 456              		.cfi_endproc
 457              	.LFE2826:
 459              		.section	.rodata._ZN7daisyspL9kRandFracE,"a"
 460              		.align	2
 463              	_ZN7daisyspL9kRandFracE:
 464 0000 00000030 		.word	805306368
 465              		.section	.rodata._ZN7daisyspL11kOneTwelfthE,"a"
 466              		.align	2
 469              	_ZN7daisyspL11kOneTwelfthE:
 470 0000 ABAAAA3D 		.word	1034594987
 471              		.section	.rodata._ZStL13allocator_arg,"a"
 472              		.align	2
 475              	_ZStL13allocator_arg:
 476 0000 00       		.space	1
 477              		.section	.rodata._ZStL6ignore,"a"
 478              		.align	2
 481              	_ZStL6ignore:
 482 0000 00       		.space	1
 483              		.section	.text._ZNSt9_Any_data9_M_accessEv,"axG",%progbits,_ZNSt9_Any_data9_M_accessEv,comdat
 484              		.align	1
 485              		.weak	_ZNSt9_Any_data9_M_accessEv
 486              		.syntax unified
 487              		.thumb
 488              		.thumb_func
 490              	_ZNSt9_Any_data9_M_accessEv:
 491              	.LFB5027:
 492              		.file 3 "/Library/DaisyToolchain/0.2.0/arm/arm-none-eabi/include/c++/10.3.1/bits/std_function.h"
   1:/Library/DaisyToolchain/0.2.0/arm/arm-none-eabi/include/c++/10.3.1/bits/std_function.h **** // Implementation of std::function -*- C++ -*-
   2:/Library/DaisyToolchain/0.2.0/arm/arm-none-eabi/include/c++/10.3.1/bits/std_function.h **** 
   3:/Library/DaisyToolchain/0.2.0/arm/arm-none-eabi/include/c++/10.3.1/bits/std_function.h **** // Copyright (C) 2004-2020 Free Software Foundation, Inc.
   4:/Library/DaisyToolchain/0.2.0/arm/arm-none-eabi/include/c++/10.3.1/bits/std_function.h **** //
   5:/Library/DaisyToolchain/0.2.0/arm/arm-none-eabi/include/c++/10.3.1/bits/std_function.h **** // This file is part of the GNU ISO C++ Library.  This library is free
   6:/Library/DaisyToolchain/0.2.0/arm/arm-none-eabi/include/c++/10.3.1/bits/std_function.h **** // software; you can redistribute it and/or modify it under the
   7:/Library/DaisyToolchain/0.2.0/arm/arm-none-eabi/include/c++/10.3.1/bits/std_function.h **** // terms of the GNU General Public License as published by the
   8:/Library/DaisyToolchain/0.2.0/arm/arm-none-eabi/include/c++/10.3.1/bits/std_function.h **** // Free Software Foundation; either version 3, or (at your option)
   9:/Library/DaisyToolchain/0.2.0/arm/arm-none-eabi/include/c++/10.3.1/bits/std_function.h **** // any later version.
  10:/Library/DaisyToolchain/0.2.0/arm/arm-none-eabi/include/c++/10.3.1/bits/std_function.h **** 
  11:/Library/DaisyToolchain/0.2.0/arm/arm-none-eabi/include/c++/10.3.1/bits/std_function.h **** // This library is distributed in the hope that it will be useful,
  12:/Library/DaisyToolchain/0.2.0/arm/arm-none-eabi/include/c++/10.3.1/bits/std_function.h **** // but WITHOUT ANY WARRANTY; without even the implied warranty of
  13:/Library/DaisyToolchain/0.2.0/arm/arm-none-eabi/include/c++/10.3.1/bits/std_function.h **** // MERCHANTABILITY or FITNESS FOR A PARTICULAR PURPOSE.  See the
  14:/Library/DaisyToolchain/0.2.0/arm/arm-none-eabi/include/c++/10.3.1/bits/std_function.h **** // GNU General Public License for more details.
  15:/Library/DaisyToolchain/0.2.0/arm/arm-none-eabi/include/c++/10.3.1/bits/std_function.h **** 
  16:/Library/DaisyToolchain/0.2.0/arm/arm-none-eabi/include/c++/10.3.1/bits/std_function.h **** // Under Section 7 of GPL version 3, you are granted additional
  17:/Library/DaisyToolchain/0.2.0/arm/arm-none-eabi/include/c++/10.3.1/bits/std_function.h **** // permissions described in the GCC Runtime Library Exception, version
  18:/Library/DaisyToolchain/0.2.0/arm/arm-none-eabi/include/c++/10.3.1/bits/std_function.h **** // 3.1, as published by the Free Software Foundation.
ARM GAS  /var/folders/wz/z09yph4n0qj4t7mjxhl6ttn80000gn/T//ccxdcdyF.s 			page 15


  19:/Library/DaisyToolchain/0.2.0/arm/arm-none-eabi/include/c++/10.3.1/bits/std_function.h **** 
  20:/Library/DaisyToolchain/0.2.0/arm/arm-none-eabi/include/c++/10.3.1/bits/std_function.h **** // You should have received a copy of the GNU General Public License and
  21:/Library/DaisyToolchain/0.2.0/arm/arm-none-eabi/include/c++/10.3.1/bits/std_function.h **** // a copy of the GCC Runtime Library Exception along with this program;
  22:/Library/DaisyToolchain/0.2.0/arm/arm-none-eabi/include/c++/10.3.1/bits/std_function.h **** // see the files COPYING3 and COPYING.RUNTIME respectively.  If not, see
  23:/Library/DaisyToolchain/0.2.0/arm/arm-none-eabi/include/c++/10.3.1/bits/std_function.h **** // <http://www.gnu.org/licenses/>.
  24:/Library/DaisyToolchain/0.2.0/arm/arm-none-eabi/include/c++/10.3.1/bits/std_function.h **** 
  25:/Library/DaisyToolchain/0.2.0/arm/arm-none-eabi/include/c++/10.3.1/bits/std_function.h **** /** @file include/bits/std_function.h
  26:/Library/DaisyToolchain/0.2.0/arm/arm-none-eabi/include/c++/10.3.1/bits/std_function.h ****  *  This is an internal header file, included by other library headers.
  27:/Library/DaisyToolchain/0.2.0/arm/arm-none-eabi/include/c++/10.3.1/bits/std_function.h ****  *  Do not attempt to use it directly. @headername{functional}
  28:/Library/DaisyToolchain/0.2.0/arm/arm-none-eabi/include/c++/10.3.1/bits/std_function.h ****  */
  29:/Library/DaisyToolchain/0.2.0/arm/arm-none-eabi/include/c++/10.3.1/bits/std_function.h **** 
  30:/Library/DaisyToolchain/0.2.0/arm/arm-none-eabi/include/c++/10.3.1/bits/std_function.h **** #ifndef _GLIBCXX_STD_FUNCTION_H
  31:/Library/DaisyToolchain/0.2.0/arm/arm-none-eabi/include/c++/10.3.1/bits/std_function.h **** #define _GLIBCXX_STD_FUNCTION_H 1
  32:/Library/DaisyToolchain/0.2.0/arm/arm-none-eabi/include/c++/10.3.1/bits/std_function.h **** 
  33:/Library/DaisyToolchain/0.2.0/arm/arm-none-eabi/include/c++/10.3.1/bits/std_function.h **** #pragma GCC system_header
  34:/Library/DaisyToolchain/0.2.0/arm/arm-none-eabi/include/c++/10.3.1/bits/std_function.h **** 
  35:/Library/DaisyToolchain/0.2.0/arm/arm-none-eabi/include/c++/10.3.1/bits/std_function.h **** #if __cplusplus < 201103L
  36:/Library/DaisyToolchain/0.2.0/arm/arm-none-eabi/include/c++/10.3.1/bits/std_function.h **** # include <bits/c++0x_warning.h>
  37:/Library/DaisyToolchain/0.2.0/arm/arm-none-eabi/include/c++/10.3.1/bits/std_function.h **** #else
  38:/Library/DaisyToolchain/0.2.0/arm/arm-none-eabi/include/c++/10.3.1/bits/std_function.h **** 
  39:/Library/DaisyToolchain/0.2.0/arm/arm-none-eabi/include/c++/10.3.1/bits/std_function.h **** #if __cpp_rtti
  40:/Library/DaisyToolchain/0.2.0/arm/arm-none-eabi/include/c++/10.3.1/bits/std_function.h **** # include <typeinfo>
  41:/Library/DaisyToolchain/0.2.0/arm/arm-none-eabi/include/c++/10.3.1/bits/std_function.h **** #endif
  42:/Library/DaisyToolchain/0.2.0/arm/arm-none-eabi/include/c++/10.3.1/bits/std_function.h **** #include <bits/stl_function.h>
  43:/Library/DaisyToolchain/0.2.0/arm/arm-none-eabi/include/c++/10.3.1/bits/std_function.h **** #include <bits/invoke.h>
  44:/Library/DaisyToolchain/0.2.0/arm/arm-none-eabi/include/c++/10.3.1/bits/std_function.h **** #include <bits/refwrap.h>
  45:/Library/DaisyToolchain/0.2.0/arm/arm-none-eabi/include/c++/10.3.1/bits/std_function.h **** #include <bits/functexcept.h>
  46:/Library/DaisyToolchain/0.2.0/arm/arm-none-eabi/include/c++/10.3.1/bits/std_function.h **** 
  47:/Library/DaisyToolchain/0.2.0/arm/arm-none-eabi/include/c++/10.3.1/bits/std_function.h **** namespace std _GLIBCXX_VISIBILITY(default)
  48:/Library/DaisyToolchain/0.2.0/arm/arm-none-eabi/include/c++/10.3.1/bits/std_function.h **** {
  49:/Library/DaisyToolchain/0.2.0/arm/arm-none-eabi/include/c++/10.3.1/bits/std_function.h **** _GLIBCXX_BEGIN_NAMESPACE_VERSION
  50:/Library/DaisyToolchain/0.2.0/arm/arm-none-eabi/include/c++/10.3.1/bits/std_function.h **** 
  51:/Library/DaisyToolchain/0.2.0/arm/arm-none-eabi/include/c++/10.3.1/bits/std_function.h ****   /**
  52:/Library/DaisyToolchain/0.2.0/arm/arm-none-eabi/include/c++/10.3.1/bits/std_function.h ****    *  @brief Exception class thrown when class template function's
  53:/Library/DaisyToolchain/0.2.0/arm/arm-none-eabi/include/c++/10.3.1/bits/std_function.h ****    *  operator() is called with an empty target.
  54:/Library/DaisyToolchain/0.2.0/arm/arm-none-eabi/include/c++/10.3.1/bits/std_function.h ****    *  @ingroup exceptions
  55:/Library/DaisyToolchain/0.2.0/arm/arm-none-eabi/include/c++/10.3.1/bits/std_function.h ****    */
  56:/Library/DaisyToolchain/0.2.0/arm/arm-none-eabi/include/c++/10.3.1/bits/std_function.h ****   class bad_function_call : public std::exception
  57:/Library/DaisyToolchain/0.2.0/arm/arm-none-eabi/include/c++/10.3.1/bits/std_function.h ****   {
  58:/Library/DaisyToolchain/0.2.0/arm/arm-none-eabi/include/c++/10.3.1/bits/std_function.h ****   public:
  59:/Library/DaisyToolchain/0.2.0/arm/arm-none-eabi/include/c++/10.3.1/bits/std_function.h ****     virtual ~bad_function_call() noexcept;
  60:/Library/DaisyToolchain/0.2.0/arm/arm-none-eabi/include/c++/10.3.1/bits/std_function.h **** 
  61:/Library/DaisyToolchain/0.2.0/arm/arm-none-eabi/include/c++/10.3.1/bits/std_function.h ****     const char* what() const noexcept;
  62:/Library/DaisyToolchain/0.2.0/arm/arm-none-eabi/include/c++/10.3.1/bits/std_function.h ****   };
  63:/Library/DaisyToolchain/0.2.0/arm/arm-none-eabi/include/c++/10.3.1/bits/std_function.h **** 
  64:/Library/DaisyToolchain/0.2.0/arm/arm-none-eabi/include/c++/10.3.1/bits/std_function.h ****   /**
  65:/Library/DaisyToolchain/0.2.0/arm/arm-none-eabi/include/c++/10.3.1/bits/std_function.h ****    *  Trait identifying "location-invariant" types, meaning that the
  66:/Library/DaisyToolchain/0.2.0/arm/arm-none-eabi/include/c++/10.3.1/bits/std_function.h ****    *  address of the object (or any of its members) will not escape.
  67:/Library/DaisyToolchain/0.2.0/arm/arm-none-eabi/include/c++/10.3.1/bits/std_function.h ****    *  Trivially copyable types are location-invariant and users can
  68:/Library/DaisyToolchain/0.2.0/arm/arm-none-eabi/include/c++/10.3.1/bits/std_function.h ****    *  specialize this trait for other types.
  69:/Library/DaisyToolchain/0.2.0/arm/arm-none-eabi/include/c++/10.3.1/bits/std_function.h ****    */
  70:/Library/DaisyToolchain/0.2.0/arm/arm-none-eabi/include/c++/10.3.1/bits/std_function.h ****   template<typename _Tp>
  71:/Library/DaisyToolchain/0.2.0/arm/arm-none-eabi/include/c++/10.3.1/bits/std_function.h ****     struct __is_location_invariant
  72:/Library/DaisyToolchain/0.2.0/arm/arm-none-eabi/include/c++/10.3.1/bits/std_function.h ****     : is_trivially_copyable<_Tp>::type
  73:/Library/DaisyToolchain/0.2.0/arm/arm-none-eabi/include/c++/10.3.1/bits/std_function.h ****     { };
  74:/Library/DaisyToolchain/0.2.0/arm/arm-none-eabi/include/c++/10.3.1/bits/std_function.h **** 
  75:/Library/DaisyToolchain/0.2.0/arm/arm-none-eabi/include/c++/10.3.1/bits/std_function.h ****   class _Undefined_class;
ARM GAS  /var/folders/wz/z09yph4n0qj4t7mjxhl6ttn80000gn/T//ccxdcdyF.s 			page 16


  76:/Library/DaisyToolchain/0.2.0/arm/arm-none-eabi/include/c++/10.3.1/bits/std_function.h **** 
  77:/Library/DaisyToolchain/0.2.0/arm/arm-none-eabi/include/c++/10.3.1/bits/std_function.h ****   union _Nocopy_types
  78:/Library/DaisyToolchain/0.2.0/arm/arm-none-eabi/include/c++/10.3.1/bits/std_function.h ****   {
  79:/Library/DaisyToolchain/0.2.0/arm/arm-none-eabi/include/c++/10.3.1/bits/std_function.h ****     void*       _M_object;
  80:/Library/DaisyToolchain/0.2.0/arm/arm-none-eabi/include/c++/10.3.1/bits/std_function.h ****     const void* _M_const_object;
  81:/Library/DaisyToolchain/0.2.0/arm/arm-none-eabi/include/c++/10.3.1/bits/std_function.h ****     void (*_M_function_pointer)();
  82:/Library/DaisyToolchain/0.2.0/arm/arm-none-eabi/include/c++/10.3.1/bits/std_function.h ****     void (_Undefined_class::*_M_member_pointer)();
  83:/Library/DaisyToolchain/0.2.0/arm/arm-none-eabi/include/c++/10.3.1/bits/std_function.h ****   };
  84:/Library/DaisyToolchain/0.2.0/arm/arm-none-eabi/include/c++/10.3.1/bits/std_function.h **** 
  85:/Library/DaisyToolchain/0.2.0/arm/arm-none-eabi/include/c++/10.3.1/bits/std_function.h ****   union [[gnu::may_alias]] _Any_data
  86:/Library/DaisyToolchain/0.2.0/arm/arm-none-eabi/include/c++/10.3.1/bits/std_function.h ****   {
  87:/Library/DaisyToolchain/0.2.0/arm/arm-none-eabi/include/c++/10.3.1/bits/std_function.h ****     void*       _M_access()       { return &_M_pod_data[0]; }
 493              		.loc 3 87 17
 494              		.cfi_startproc
 495              		@ args = 0, pretend = 0, frame = 8
 496              		@ frame_needed = 1, uses_anonymous_args = 0
 497              		@ link register save eliminated.
 498 0000 80B4     		push	{r7}
 499              		.cfi_def_cfa_offset 4
 500              		.cfi_offset 7, -4
 501 0002 83B0     		sub	sp, sp, #12
 502              		.cfi_def_cfa_offset 16
 503 0004 00AF     		add	r7, sp, #0
 504              		.cfi_def_cfa_register 7
 505 0006 7860     		str	r0, [r7, #4]
 506              		.loc 3 87 58
 507 0008 7B68     		ldr	r3, [r7, #4]
 508              		.loc 3 87 61
 509 000a 1846     		mov	r0, r3
 510 000c 0C37     		adds	r7, r7, #12
 511              		.cfi_def_cfa_offset 4
 512 000e BD46     		mov	sp, r7
 513              		.cfi_def_cfa_register 13
 514              		@ sp needed
 515 0010 5DF8047B 		ldr	r7, [sp], #4
 516              		.cfi_restore 7
 517              		.cfi_def_cfa_offset 0
 518 0014 7047     		bx	lr
 519              		.cfi_endproc
 520              	.LFE5027:
 522              		.section	.text._ZNKSt9_Any_data9_M_accessEv,"axG",%progbits,_ZNKSt9_Any_data9_M_accessEv,comdat
 523              		.align	1
 524              		.weak	_ZNKSt9_Any_data9_M_accessEv
 525              		.syntax unified
 526              		.thumb
 527              		.thumb_func
 529              	_ZNKSt9_Any_data9_M_accessEv:
 530              	.LFB5028:
  88:/Library/DaisyToolchain/0.2.0/arm/arm-none-eabi/include/c++/10.3.1/bits/std_function.h ****     const void* _M_access() const { return &_M_pod_data[0]; }
 531              		.loc 3 88 17
 532              		.cfi_startproc
 533              		@ args = 0, pretend = 0, frame = 8
 534              		@ frame_needed = 1, uses_anonymous_args = 0
 535              		@ link register save eliminated.
 536 0000 80B4     		push	{r7}
 537              		.cfi_def_cfa_offset 4
 538              		.cfi_offset 7, -4
ARM GAS  /var/folders/wz/z09yph4n0qj4t7mjxhl6ttn80000gn/T//ccxdcdyF.s 			page 17


 539 0002 83B0     		sub	sp, sp, #12
 540              		.cfi_def_cfa_offset 16
 541 0004 00AF     		add	r7, sp, #0
 542              		.cfi_def_cfa_register 7
 543 0006 7860     		str	r0, [r7, #4]
 544              		.loc 3 88 58
 545 0008 7B68     		ldr	r3, [r7, #4]
 546              		.loc 3 88 61
 547 000a 1846     		mov	r0, r3
 548 000c 0C37     		adds	r7, r7, #12
 549              		.cfi_def_cfa_offset 4
 550 000e BD46     		mov	sp, r7
 551              		.cfi_def_cfa_register 13
 552              		@ sp needed
 553 0010 5DF8047B 		ldr	r7, [sp], #4
 554              		.cfi_restore 7
 555              		.cfi_def_cfa_offset 0
 556 0014 7047     		bx	lr
 557              		.cfi_endproc
 558              	.LFE5028:
 560              		.section	.text._ZNSt14_Function_baseC2Ev,"axG",%progbits,_ZNSt14_Function_baseC5Ev,comdat
 561              		.align	1
 562              		.weak	_ZNSt14_Function_baseC2Ev
 563              		.syntax unified
 564              		.thumb
 565              		.thumb_func
 567              	_ZNSt14_Function_baseC2Ev:
 568              	.LFB5045:
  89:/Library/DaisyToolchain/0.2.0/arm/arm-none-eabi/include/c++/10.3.1/bits/std_function.h **** 
  90:/Library/DaisyToolchain/0.2.0/arm/arm-none-eabi/include/c++/10.3.1/bits/std_function.h ****     template<typename _Tp>
  91:/Library/DaisyToolchain/0.2.0/arm/arm-none-eabi/include/c++/10.3.1/bits/std_function.h ****       _Tp&
  92:/Library/DaisyToolchain/0.2.0/arm/arm-none-eabi/include/c++/10.3.1/bits/std_function.h ****       _M_access()
  93:/Library/DaisyToolchain/0.2.0/arm/arm-none-eabi/include/c++/10.3.1/bits/std_function.h ****       { return *static_cast<_Tp*>(_M_access()); }
  94:/Library/DaisyToolchain/0.2.0/arm/arm-none-eabi/include/c++/10.3.1/bits/std_function.h **** 
  95:/Library/DaisyToolchain/0.2.0/arm/arm-none-eabi/include/c++/10.3.1/bits/std_function.h ****     template<typename _Tp>
  96:/Library/DaisyToolchain/0.2.0/arm/arm-none-eabi/include/c++/10.3.1/bits/std_function.h ****       const _Tp&
  97:/Library/DaisyToolchain/0.2.0/arm/arm-none-eabi/include/c++/10.3.1/bits/std_function.h ****       _M_access() const
  98:/Library/DaisyToolchain/0.2.0/arm/arm-none-eabi/include/c++/10.3.1/bits/std_function.h ****       { return *static_cast<const _Tp*>(_M_access()); }
  99:/Library/DaisyToolchain/0.2.0/arm/arm-none-eabi/include/c++/10.3.1/bits/std_function.h **** 
 100:/Library/DaisyToolchain/0.2.0/arm/arm-none-eabi/include/c++/10.3.1/bits/std_function.h ****     _Nocopy_types _M_unused;
 101:/Library/DaisyToolchain/0.2.0/arm/arm-none-eabi/include/c++/10.3.1/bits/std_function.h ****     char _M_pod_data[sizeof(_Nocopy_types)];
 102:/Library/DaisyToolchain/0.2.0/arm/arm-none-eabi/include/c++/10.3.1/bits/std_function.h ****   };
 103:/Library/DaisyToolchain/0.2.0/arm/arm-none-eabi/include/c++/10.3.1/bits/std_function.h **** 
 104:/Library/DaisyToolchain/0.2.0/arm/arm-none-eabi/include/c++/10.3.1/bits/std_function.h ****   enum _Manager_operation
 105:/Library/DaisyToolchain/0.2.0/arm/arm-none-eabi/include/c++/10.3.1/bits/std_function.h ****   {
 106:/Library/DaisyToolchain/0.2.0/arm/arm-none-eabi/include/c++/10.3.1/bits/std_function.h ****     __get_type_info,
 107:/Library/DaisyToolchain/0.2.0/arm/arm-none-eabi/include/c++/10.3.1/bits/std_function.h ****     __get_functor_ptr,
 108:/Library/DaisyToolchain/0.2.0/arm/arm-none-eabi/include/c++/10.3.1/bits/std_function.h ****     __clone_functor,
 109:/Library/DaisyToolchain/0.2.0/arm/arm-none-eabi/include/c++/10.3.1/bits/std_function.h ****     __destroy_functor
 110:/Library/DaisyToolchain/0.2.0/arm/arm-none-eabi/include/c++/10.3.1/bits/std_function.h ****   };
 111:/Library/DaisyToolchain/0.2.0/arm/arm-none-eabi/include/c++/10.3.1/bits/std_function.h **** 
 112:/Library/DaisyToolchain/0.2.0/arm/arm-none-eabi/include/c++/10.3.1/bits/std_function.h ****   template<typename _Signature>
 113:/Library/DaisyToolchain/0.2.0/arm/arm-none-eabi/include/c++/10.3.1/bits/std_function.h ****     class function;
 114:/Library/DaisyToolchain/0.2.0/arm/arm-none-eabi/include/c++/10.3.1/bits/std_function.h **** 
 115:/Library/DaisyToolchain/0.2.0/arm/arm-none-eabi/include/c++/10.3.1/bits/std_function.h ****   /// Base class of all polymorphic function object wrappers.
 116:/Library/DaisyToolchain/0.2.0/arm/arm-none-eabi/include/c++/10.3.1/bits/std_function.h ****   class _Function_base
 117:/Library/DaisyToolchain/0.2.0/arm/arm-none-eabi/include/c++/10.3.1/bits/std_function.h ****   {
ARM GAS  /var/folders/wz/z09yph4n0qj4t7mjxhl6ttn80000gn/T//ccxdcdyF.s 			page 18


 118:/Library/DaisyToolchain/0.2.0/arm/arm-none-eabi/include/c++/10.3.1/bits/std_function.h ****   public:
 119:/Library/DaisyToolchain/0.2.0/arm/arm-none-eabi/include/c++/10.3.1/bits/std_function.h ****     static const size_t _M_max_size = sizeof(_Nocopy_types);
 120:/Library/DaisyToolchain/0.2.0/arm/arm-none-eabi/include/c++/10.3.1/bits/std_function.h ****     static const size_t _M_max_align = __alignof__(_Nocopy_types);
 121:/Library/DaisyToolchain/0.2.0/arm/arm-none-eabi/include/c++/10.3.1/bits/std_function.h **** 
 122:/Library/DaisyToolchain/0.2.0/arm/arm-none-eabi/include/c++/10.3.1/bits/std_function.h ****     template<typename _Functor>
 123:/Library/DaisyToolchain/0.2.0/arm/arm-none-eabi/include/c++/10.3.1/bits/std_function.h ****       class _Base_manager
 124:/Library/DaisyToolchain/0.2.0/arm/arm-none-eabi/include/c++/10.3.1/bits/std_function.h ****       {
 125:/Library/DaisyToolchain/0.2.0/arm/arm-none-eabi/include/c++/10.3.1/bits/std_function.h ****       protected:
 126:/Library/DaisyToolchain/0.2.0/arm/arm-none-eabi/include/c++/10.3.1/bits/std_function.h **** 	static const bool __stored_locally =
 127:/Library/DaisyToolchain/0.2.0/arm/arm-none-eabi/include/c++/10.3.1/bits/std_function.h **** 	(__is_location_invariant<_Functor>::value
 128:/Library/DaisyToolchain/0.2.0/arm/arm-none-eabi/include/c++/10.3.1/bits/std_function.h **** 	 && sizeof(_Functor) <= _M_max_size
 129:/Library/DaisyToolchain/0.2.0/arm/arm-none-eabi/include/c++/10.3.1/bits/std_function.h **** 	 && __alignof__(_Functor) <= _M_max_align
 130:/Library/DaisyToolchain/0.2.0/arm/arm-none-eabi/include/c++/10.3.1/bits/std_function.h **** 	 && (_M_max_align % __alignof__(_Functor) == 0));
 131:/Library/DaisyToolchain/0.2.0/arm/arm-none-eabi/include/c++/10.3.1/bits/std_function.h **** 
 132:/Library/DaisyToolchain/0.2.0/arm/arm-none-eabi/include/c++/10.3.1/bits/std_function.h **** 	typedef integral_constant<bool, __stored_locally> _Local_storage;
 133:/Library/DaisyToolchain/0.2.0/arm/arm-none-eabi/include/c++/10.3.1/bits/std_function.h **** 
 134:/Library/DaisyToolchain/0.2.0/arm/arm-none-eabi/include/c++/10.3.1/bits/std_function.h **** 	// Retrieve a pointer to the function object
 135:/Library/DaisyToolchain/0.2.0/arm/arm-none-eabi/include/c++/10.3.1/bits/std_function.h **** 	static _Functor*
 136:/Library/DaisyToolchain/0.2.0/arm/arm-none-eabi/include/c++/10.3.1/bits/std_function.h **** 	_M_get_pointer(const _Any_data& __source)
 137:/Library/DaisyToolchain/0.2.0/arm/arm-none-eabi/include/c++/10.3.1/bits/std_function.h **** 	{
 138:/Library/DaisyToolchain/0.2.0/arm/arm-none-eabi/include/c++/10.3.1/bits/std_function.h **** 	  if _GLIBCXX17_CONSTEXPR (__stored_locally)
 139:/Library/DaisyToolchain/0.2.0/arm/arm-none-eabi/include/c++/10.3.1/bits/std_function.h **** 	    {
 140:/Library/DaisyToolchain/0.2.0/arm/arm-none-eabi/include/c++/10.3.1/bits/std_function.h **** 	      const _Functor& __f = __source._M_access<_Functor>();
 141:/Library/DaisyToolchain/0.2.0/arm/arm-none-eabi/include/c++/10.3.1/bits/std_function.h **** 	      return const_cast<_Functor*>(std::__addressof(__f));
 142:/Library/DaisyToolchain/0.2.0/arm/arm-none-eabi/include/c++/10.3.1/bits/std_function.h **** 	    }
 143:/Library/DaisyToolchain/0.2.0/arm/arm-none-eabi/include/c++/10.3.1/bits/std_function.h **** 	  else // have stored a pointer
 144:/Library/DaisyToolchain/0.2.0/arm/arm-none-eabi/include/c++/10.3.1/bits/std_function.h **** 	    return __source._M_access<_Functor*>();
 145:/Library/DaisyToolchain/0.2.0/arm/arm-none-eabi/include/c++/10.3.1/bits/std_function.h **** 	}
 146:/Library/DaisyToolchain/0.2.0/arm/arm-none-eabi/include/c++/10.3.1/bits/std_function.h **** 
 147:/Library/DaisyToolchain/0.2.0/arm/arm-none-eabi/include/c++/10.3.1/bits/std_function.h **** 	// Clone a location-invariant function object that fits within
 148:/Library/DaisyToolchain/0.2.0/arm/arm-none-eabi/include/c++/10.3.1/bits/std_function.h **** 	// an _Any_data structure.
 149:/Library/DaisyToolchain/0.2.0/arm/arm-none-eabi/include/c++/10.3.1/bits/std_function.h **** 	static void
 150:/Library/DaisyToolchain/0.2.0/arm/arm-none-eabi/include/c++/10.3.1/bits/std_function.h **** 	_M_clone(_Any_data& __dest, const _Any_data& __source, true_type)
 151:/Library/DaisyToolchain/0.2.0/arm/arm-none-eabi/include/c++/10.3.1/bits/std_function.h **** 	{
 152:/Library/DaisyToolchain/0.2.0/arm/arm-none-eabi/include/c++/10.3.1/bits/std_function.h **** 	  ::new (__dest._M_access()) _Functor(__source._M_access<_Functor>());
 153:/Library/DaisyToolchain/0.2.0/arm/arm-none-eabi/include/c++/10.3.1/bits/std_function.h **** 	}
 154:/Library/DaisyToolchain/0.2.0/arm/arm-none-eabi/include/c++/10.3.1/bits/std_function.h **** 
 155:/Library/DaisyToolchain/0.2.0/arm/arm-none-eabi/include/c++/10.3.1/bits/std_function.h **** 	// Clone a function object that is not location-invariant or
 156:/Library/DaisyToolchain/0.2.0/arm/arm-none-eabi/include/c++/10.3.1/bits/std_function.h **** 	// that cannot fit into an _Any_data structure.
 157:/Library/DaisyToolchain/0.2.0/arm/arm-none-eabi/include/c++/10.3.1/bits/std_function.h **** 	static void
 158:/Library/DaisyToolchain/0.2.0/arm/arm-none-eabi/include/c++/10.3.1/bits/std_function.h **** 	_M_clone(_Any_data& __dest, const _Any_data& __source, false_type)
 159:/Library/DaisyToolchain/0.2.0/arm/arm-none-eabi/include/c++/10.3.1/bits/std_function.h **** 	{
 160:/Library/DaisyToolchain/0.2.0/arm/arm-none-eabi/include/c++/10.3.1/bits/std_function.h **** 	  __dest._M_access<_Functor*>() =
 161:/Library/DaisyToolchain/0.2.0/arm/arm-none-eabi/include/c++/10.3.1/bits/std_function.h **** 	    new _Functor(*__source._M_access<const _Functor*>());
 162:/Library/DaisyToolchain/0.2.0/arm/arm-none-eabi/include/c++/10.3.1/bits/std_function.h **** 	}
 163:/Library/DaisyToolchain/0.2.0/arm/arm-none-eabi/include/c++/10.3.1/bits/std_function.h **** 
 164:/Library/DaisyToolchain/0.2.0/arm/arm-none-eabi/include/c++/10.3.1/bits/std_function.h **** 	// Destroying a location-invariant object may still require
 165:/Library/DaisyToolchain/0.2.0/arm/arm-none-eabi/include/c++/10.3.1/bits/std_function.h **** 	// destruction.
 166:/Library/DaisyToolchain/0.2.0/arm/arm-none-eabi/include/c++/10.3.1/bits/std_function.h **** 	static void
 167:/Library/DaisyToolchain/0.2.0/arm/arm-none-eabi/include/c++/10.3.1/bits/std_function.h **** 	_M_destroy(_Any_data& __victim, true_type)
 168:/Library/DaisyToolchain/0.2.0/arm/arm-none-eabi/include/c++/10.3.1/bits/std_function.h **** 	{
 169:/Library/DaisyToolchain/0.2.0/arm/arm-none-eabi/include/c++/10.3.1/bits/std_function.h **** 	  __victim._M_access<_Functor>().~_Functor();
 170:/Library/DaisyToolchain/0.2.0/arm/arm-none-eabi/include/c++/10.3.1/bits/std_function.h **** 	}
 171:/Library/DaisyToolchain/0.2.0/arm/arm-none-eabi/include/c++/10.3.1/bits/std_function.h **** 
 172:/Library/DaisyToolchain/0.2.0/arm/arm-none-eabi/include/c++/10.3.1/bits/std_function.h **** 	// Destroying an object located on the heap.
 173:/Library/DaisyToolchain/0.2.0/arm/arm-none-eabi/include/c++/10.3.1/bits/std_function.h **** 	static void
 174:/Library/DaisyToolchain/0.2.0/arm/arm-none-eabi/include/c++/10.3.1/bits/std_function.h **** 	_M_destroy(_Any_data& __victim, false_type)
ARM GAS  /var/folders/wz/z09yph4n0qj4t7mjxhl6ttn80000gn/T//ccxdcdyF.s 			page 19


 175:/Library/DaisyToolchain/0.2.0/arm/arm-none-eabi/include/c++/10.3.1/bits/std_function.h **** 	{
 176:/Library/DaisyToolchain/0.2.0/arm/arm-none-eabi/include/c++/10.3.1/bits/std_function.h **** 	  delete __victim._M_access<_Functor*>();
 177:/Library/DaisyToolchain/0.2.0/arm/arm-none-eabi/include/c++/10.3.1/bits/std_function.h **** 	}
 178:/Library/DaisyToolchain/0.2.0/arm/arm-none-eabi/include/c++/10.3.1/bits/std_function.h **** 
 179:/Library/DaisyToolchain/0.2.0/arm/arm-none-eabi/include/c++/10.3.1/bits/std_function.h ****       public:
 180:/Library/DaisyToolchain/0.2.0/arm/arm-none-eabi/include/c++/10.3.1/bits/std_function.h **** 	static bool
 181:/Library/DaisyToolchain/0.2.0/arm/arm-none-eabi/include/c++/10.3.1/bits/std_function.h **** 	_M_manager(_Any_data& __dest, const _Any_data& __source,
 182:/Library/DaisyToolchain/0.2.0/arm/arm-none-eabi/include/c++/10.3.1/bits/std_function.h **** 		   _Manager_operation __op)
 183:/Library/DaisyToolchain/0.2.0/arm/arm-none-eabi/include/c++/10.3.1/bits/std_function.h **** 	{
 184:/Library/DaisyToolchain/0.2.0/arm/arm-none-eabi/include/c++/10.3.1/bits/std_function.h **** 	  switch (__op)
 185:/Library/DaisyToolchain/0.2.0/arm/arm-none-eabi/include/c++/10.3.1/bits/std_function.h **** 	    {
 186:/Library/DaisyToolchain/0.2.0/arm/arm-none-eabi/include/c++/10.3.1/bits/std_function.h **** #if __cpp_rtti
 187:/Library/DaisyToolchain/0.2.0/arm/arm-none-eabi/include/c++/10.3.1/bits/std_function.h **** 	    case __get_type_info:
 188:/Library/DaisyToolchain/0.2.0/arm/arm-none-eabi/include/c++/10.3.1/bits/std_function.h **** 	      __dest._M_access<const type_info*>() = &typeid(_Functor);
 189:/Library/DaisyToolchain/0.2.0/arm/arm-none-eabi/include/c++/10.3.1/bits/std_function.h **** 	      break;
 190:/Library/DaisyToolchain/0.2.0/arm/arm-none-eabi/include/c++/10.3.1/bits/std_function.h **** #endif
 191:/Library/DaisyToolchain/0.2.0/arm/arm-none-eabi/include/c++/10.3.1/bits/std_function.h **** 	    case __get_functor_ptr:
 192:/Library/DaisyToolchain/0.2.0/arm/arm-none-eabi/include/c++/10.3.1/bits/std_function.h **** 	      __dest._M_access<_Functor*>() = _M_get_pointer(__source);
 193:/Library/DaisyToolchain/0.2.0/arm/arm-none-eabi/include/c++/10.3.1/bits/std_function.h **** 	      break;
 194:/Library/DaisyToolchain/0.2.0/arm/arm-none-eabi/include/c++/10.3.1/bits/std_function.h **** 
 195:/Library/DaisyToolchain/0.2.0/arm/arm-none-eabi/include/c++/10.3.1/bits/std_function.h **** 	    case __clone_functor:
 196:/Library/DaisyToolchain/0.2.0/arm/arm-none-eabi/include/c++/10.3.1/bits/std_function.h **** 	      _M_clone(__dest, __source, _Local_storage());
 197:/Library/DaisyToolchain/0.2.0/arm/arm-none-eabi/include/c++/10.3.1/bits/std_function.h **** 	      break;
 198:/Library/DaisyToolchain/0.2.0/arm/arm-none-eabi/include/c++/10.3.1/bits/std_function.h **** 
 199:/Library/DaisyToolchain/0.2.0/arm/arm-none-eabi/include/c++/10.3.1/bits/std_function.h **** 	    case __destroy_functor:
 200:/Library/DaisyToolchain/0.2.0/arm/arm-none-eabi/include/c++/10.3.1/bits/std_function.h **** 	      _M_destroy(__dest, _Local_storage());
 201:/Library/DaisyToolchain/0.2.0/arm/arm-none-eabi/include/c++/10.3.1/bits/std_function.h **** 	      break;
 202:/Library/DaisyToolchain/0.2.0/arm/arm-none-eabi/include/c++/10.3.1/bits/std_function.h **** 	    }
 203:/Library/DaisyToolchain/0.2.0/arm/arm-none-eabi/include/c++/10.3.1/bits/std_function.h **** 	  return false;
 204:/Library/DaisyToolchain/0.2.0/arm/arm-none-eabi/include/c++/10.3.1/bits/std_function.h **** 	}
 205:/Library/DaisyToolchain/0.2.0/arm/arm-none-eabi/include/c++/10.3.1/bits/std_function.h **** 
 206:/Library/DaisyToolchain/0.2.0/arm/arm-none-eabi/include/c++/10.3.1/bits/std_function.h **** 	static void
 207:/Library/DaisyToolchain/0.2.0/arm/arm-none-eabi/include/c++/10.3.1/bits/std_function.h **** 	_M_init_functor(_Any_data& __functor, _Functor&& __f)
 208:/Library/DaisyToolchain/0.2.0/arm/arm-none-eabi/include/c++/10.3.1/bits/std_function.h **** 	{ _M_init_functor(__functor, std::move(__f), _Local_storage()); }
 209:/Library/DaisyToolchain/0.2.0/arm/arm-none-eabi/include/c++/10.3.1/bits/std_function.h **** 
 210:/Library/DaisyToolchain/0.2.0/arm/arm-none-eabi/include/c++/10.3.1/bits/std_function.h **** 	template<typename _Signature>
 211:/Library/DaisyToolchain/0.2.0/arm/arm-none-eabi/include/c++/10.3.1/bits/std_function.h **** 	  static bool
 212:/Library/DaisyToolchain/0.2.0/arm/arm-none-eabi/include/c++/10.3.1/bits/std_function.h **** 	  _M_not_empty_function(const function<_Signature>& __f)
 213:/Library/DaisyToolchain/0.2.0/arm/arm-none-eabi/include/c++/10.3.1/bits/std_function.h **** 	  { return static_cast<bool>(__f); }
 214:/Library/DaisyToolchain/0.2.0/arm/arm-none-eabi/include/c++/10.3.1/bits/std_function.h **** 
 215:/Library/DaisyToolchain/0.2.0/arm/arm-none-eabi/include/c++/10.3.1/bits/std_function.h **** 	template<typename _Tp>
 216:/Library/DaisyToolchain/0.2.0/arm/arm-none-eabi/include/c++/10.3.1/bits/std_function.h **** 	  static bool
 217:/Library/DaisyToolchain/0.2.0/arm/arm-none-eabi/include/c++/10.3.1/bits/std_function.h **** 	  _M_not_empty_function(_Tp* __fp)
 218:/Library/DaisyToolchain/0.2.0/arm/arm-none-eabi/include/c++/10.3.1/bits/std_function.h **** 	  { return __fp != nullptr; }
 219:/Library/DaisyToolchain/0.2.0/arm/arm-none-eabi/include/c++/10.3.1/bits/std_function.h **** 
 220:/Library/DaisyToolchain/0.2.0/arm/arm-none-eabi/include/c++/10.3.1/bits/std_function.h **** 	template<typename _Class, typename _Tp>
 221:/Library/DaisyToolchain/0.2.0/arm/arm-none-eabi/include/c++/10.3.1/bits/std_function.h **** 	  static bool
 222:/Library/DaisyToolchain/0.2.0/arm/arm-none-eabi/include/c++/10.3.1/bits/std_function.h **** 	  _M_not_empty_function(_Tp _Class::* __mp)
 223:/Library/DaisyToolchain/0.2.0/arm/arm-none-eabi/include/c++/10.3.1/bits/std_function.h **** 	  { return __mp != nullptr; }
 224:/Library/DaisyToolchain/0.2.0/arm/arm-none-eabi/include/c++/10.3.1/bits/std_function.h **** 
 225:/Library/DaisyToolchain/0.2.0/arm/arm-none-eabi/include/c++/10.3.1/bits/std_function.h **** 	template<typename _Tp>
 226:/Library/DaisyToolchain/0.2.0/arm/arm-none-eabi/include/c++/10.3.1/bits/std_function.h **** 	  static bool
 227:/Library/DaisyToolchain/0.2.0/arm/arm-none-eabi/include/c++/10.3.1/bits/std_function.h **** 	  _M_not_empty_function(const _Tp&)
 228:/Library/DaisyToolchain/0.2.0/arm/arm-none-eabi/include/c++/10.3.1/bits/std_function.h **** 	  { return true; }
 229:/Library/DaisyToolchain/0.2.0/arm/arm-none-eabi/include/c++/10.3.1/bits/std_function.h **** 
 230:/Library/DaisyToolchain/0.2.0/arm/arm-none-eabi/include/c++/10.3.1/bits/std_function.h ****       private:
 231:/Library/DaisyToolchain/0.2.0/arm/arm-none-eabi/include/c++/10.3.1/bits/std_function.h **** 	static void
ARM GAS  /var/folders/wz/z09yph4n0qj4t7mjxhl6ttn80000gn/T//ccxdcdyF.s 			page 20


 232:/Library/DaisyToolchain/0.2.0/arm/arm-none-eabi/include/c++/10.3.1/bits/std_function.h **** 	_M_init_functor(_Any_data& __functor, _Functor&& __f, true_type)
 233:/Library/DaisyToolchain/0.2.0/arm/arm-none-eabi/include/c++/10.3.1/bits/std_function.h **** 	{ ::new (__functor._M_access()) _Functor(std::move(__f)); }
 234:/Library/DaisyToolchain/0.2.0/arm/arm-none-eabi/include/c++/10.3.1/bits/std_function.h **** 
 235:/Library/DaisyToolchain/0.2.0/arm/arm-none-eabi/include/c++/10.3.1/bits/std_function.h **** 	static void
 236:/Library/DaisyToolchain/0.2.0/arm/arm-none-eabi/include/c++/10.3.1/bits/std_function.h **** 	_M_init_functor(_Any_data& __functor, _Functor&& __f, false_type)
 237:/Library/DaisyToolchain/0.2.0/arm/arm-none-eabi/include/c++/10.3.1/bits/std_function.h **** 	{ __functor._M_access<_Functor*>() = new _Functor(std::move(__f)); }
 238:/Library/DaisyToolchain/0.2.0/arm/arm-none-eabi/include/c++/10.3.1/bits/std_function.h ****       };
 239:/Library/DaisyToolchain/0.2.0/arm/arm-none-eabi/include/c++/10.3.1/bits/std_function.h **** 
 240:/Library/DaisyToolchain/0.2.0/arm/arm-none-eabi/include/c++/10.3.1/bits/std_function.h ****     _Function_base() : _M_manager(nullptr) { }
 569              		.loc 3 240 5
 570              		.cfi_startproc
 571              		@ args = 0, pretend = 0, frame = 8
 572              		@ frame_needed = 1, uses_anonymous_args = 0
 573              		@ link register save eliminated.
 574 0000 80B4     		push	{r7}
 575              		.cfi_def_cfa_offset 4
 576              		.cfi_offset 7, -4
 577 0002 83B0     		sub	sp, sp, #12
 578              		.cfi_def_cfa_offset 16
 579 0004 00AF     		add	r7, sp, #0
 580              		.cfi_def_cfa_register 7
 581 0006 7860     		str	r0, [r7, #4]
 582              	.LBB2:
 583              		.loc 3 240 42
 584 0008 7B68     		ldr	r3, [r7, #4]
 585 000a 0022     		movs	r2, #0
 586 000c 9A60     		str	r2, [r3, #8]
 587              	.LBE2:
 588              		.loc 3 240 46
 589 000e 7B68     		ldr	r3, [r7, #4]
 590 0010 1846     		mov	r0, r3
 591 0012 0C37     		adds	r7, r7, #12
 592              		.cfi_def_cfa_offset 4
 593 0014 BD46     		mov	sp, r7
 594              		.cfi_def_cfa_register 13
 595              		@ sp needed
 596 0016 5DF8047B 		ldr	r7, [sp], #4
 597              		.cfi_restore 7
 598              		.cfi_def_cfa_offset 0
 599 001a 7047     		bx	lr
 600              		.cfi_endproc
 601              	.LFE5045:
 603              		.weak	_ZNSt14_Function_baseC1Ev
 604              		.thumb_set _ZNSt14_Function_baseC1Ev,_ZNSt14_Function_baseC2Ev
 605              		.section	.text._ZNSt14_Function_baseD2Ev,"axG",%progbits,_ZNSt14_Function_baseD5Ev,comdat
 606              		.align	1
 607              		.weak	_ZNSt14_Function_baseD2Ev
 608              		.syntax unified
 609              		.thumb
 610              		.thumb_func
 612              	_ZNSt14_Function_baseD2Ev:
 613              	.LFB5048:
 241:/Library/DaisyToolchain/0.2.0/arm/arm-none-eabi/include/c++/10.3.1/bits/std_function.h **** 
 242:/Library/DaisyToolchain/0.2.0/arm/arm-none-eabi/include/c++/10.3.1/bits/std_function.h ****     ~_Function_base()
 614              		.loc 3 242 5
 615              		.cfi_startproc
 616              		@ args = 0, pretend = 0, frame = 8
ARM GAS  /var/folders/wz/z09yph4n0qj4t7mjxhl6ttn80000gn/T//ccxdcdyF.s 			page 21


 617              		@ frame_needed = 1, uses_anonymous_args = 0
 618 0000 80B5     		push	{r7, lr}
 619              		.cfi_def_cfa_offset 8
 620              		.cfi_offset 7, -8
 621              		.cfi_offset 14, -4
 622 0002 82B0     		sub	sp, sp, #8
 623              		.cfi_def_cfa_offset 16
 624 0004 00AF     		add	r7, sp, #0
 625              		.cfi_def_cfa_register 7
 626 0006 7860     		str	r0, [r7, #4]
 627              	.LBB3:
 243:/Library/DaisyToolchain/0.2.0/arm/arm-none-eabi/include/c++/10.3.1/bits/std_function.h ****     {
 244:/Library/DaisyToolchain/0.2.0/arm/arm-none-eabi/include/c++/10.3.1/bits/std_function.h ****       if (_M_manager)
 628              		.loc 3 244 11
 629 0008 7B68     		ldr	r3, [r7, #4]
 630 000a 9B68     		ldr	r3, [r3, #8]
 631              		.loc 3 244 7
 632 000c 002B     		cmp	r3, #0
 633 000e 05D0     		beq	.L12
 245:/Library/DaisyToolchain/0.2.0/arm/arm-none-eabi/include/c++/10.3.1/bits/std_function.h **** 	_M_manager(_M_functor, _M_functor, __destroy_functor);
 634              		.loc 3 245 2
 635 0010 7B68     		ldr	r3, [r7, #4]
 636 0012 9B68     		ldr	r3, [r3, #8]
 637              		.loc 3 245 13
 638 0014 7868     		ldr	r0, [r7, #4]
 639              		.loc 3 245 25
 640 0016 7968     		ldr	r1, [r7, #4]
 641              		.loc 3 245 12
 642 0018 0322     		movs	r2, #3
 643 001a 9847     		blx	r3
 644              	.LVL0:
 645              	.L12:
 646              	.LBE3:
 246:/Library/DaisyToolchain/0.2.0/arm/arm-none-eabi/include/c++/10.3.1/bits/std_function.h ****     }
 647              		.loc 3 246 5
 648 001c 7B68     		ldr	r3, [r7, #4]
 649 001e 1846     		mov	r0, r3
 650 0020 0837     		adds	r7, r7, #8
 651              		.cfi_def_cfa_offset 8
 652 0022 BD46     		mov	sp, r7
 653              		.cfi_def_cfa_register 13
 654              		@ sp needed
 655 0024 80BD     		pop	{r7, pc}
 656              		.cfi_endproc
 657              	.LFE5048:
 659              		.weak	_ZNSt14_Function_baseD1Ev
 660              		.thumb_set _ZNSt14_Function_baseD1Ev,_ZNSt14_Function_baseD2Ev
 661              		.section	.text._ZNKSt14_Function_base8_M_emptyEv,"axG",%progbits,_ZNKSt14_Function_base8_M_emptyEv
 662              		.align	1
 663              		.weak	_ZNKSt14_Function_base8_M_emptyEv
 664              		.syntax unified
 665              		.thumb
 666              		.thumb_func
 668              	_ZNKSt14_Function_base8_M_emptyEv:
 669              	.LFB5050:
 247:/Library/DaisyToolchain/0.2.0/arm/arm-none-eabi/include/c++/10.3.1/bits/std_function.h **** 
 248:/Library/DaisyToolchain/0.2.0/arm/arm-none-eabi/include/c++/10.3.1/bits/std_function.h ****     bool _M_empty() const { return !_M_manager; }
ARM GAS  /var/folders/wz/z09yph4n0qj4t7mjxhl6ttn80000gn/T//ccxdcdyF.s 			page 22


 670              		.loc 3 248 10
 671              		.cfi_startproc
 672              		@ args = 0, pretend = 0, frame = 8
 673              		@ frame_needed = 1, uses_anonymous_args = 0
 674              		@ link register save eliminated.
 675 0000 80B4     		push	{r7}
 676              		.cfi_def_cfa_offset 4
 677              		.cfi_offset 7, -4
 678 0002 83B0     		sub	sp, sp, #12
 679              		.cfi_def_cfa_offset 16
 680 0004 00AF     		add	r7, sp, #0
 681              		.cfi_def_cfa_register 7
 682 0006 7860     		str	r0, [r7, #4]
 683              		.loc 3 248 37
 684 0008 7B68     		ldr	r3, [r7, #4]
 685 000a 9B68     		ldr	r3, [r3, #8]
 686 000c 002B     		cmp	r3, #0
 687 000e 0CBF     		ite	eq
 688 0010 0123     		moveq	r3, #1
 689 0012 0023     		movne	r3, #0
 690 0014 DBB2     		uxtb	r3, r3
 691              		.loc 3 248 49
 692 0016 1846     		mov	r0, r3
 693 0018 0C37     		adds	r7, r7, #12
 694              		.cfi_def_cfa_offset 4
 695 001a BD46     		mov	sp, r7
 696              		.cfi_def_cfa_register 13
 697              		@ sp needed
 698 001c 5DF8047B 		ldr	r7, [sp], #4
 699              		.cfi_restore 7
 700              		.cfi_def_cfa_offset 0
 701 0020 7047     		bx	lr
 702              		.cfi_endproc
 703              	.LFE5050:
 705              		.section	.rodata._ZN9__gnu_cxxL21__default_lock_policyE,"a"
 708              	_ZN9__gnu_cxxL21__default_lock_policyE:
 709 0000 00       		.space	1
 710              		.section	.text._ZN5Track8getStateEv,"axG",%progbits,_ZN5Track8getStateEv,comdat
 711              		.align	1
 712              		.weak	_ZN5Track8getStateEv
 713              		.syntax unified
 714              		.thumb
 715              		.thumb_func
 717              	_ZN5Track8getStateEv:
 718              	.LFB5649:
 719              		.file 4 "DSP/Track.h"
   1:DSP/Track.h   **** #ifndef TRACK_H
   2:DSP/Track.h   **** #define TRACK_H
   3:DSP/Track.h   **** 
   4:DSP/Track.h   **** #include "FX/Waveshaper.h"
   5:DSP/Track.h   **** #include "FX/Delay.h"
   6:DSP/Track.h   **** #include "../Parameters/BinaryParameter.h"
   7:DSP/Track.h   **** #include <utility>
   8:DSP/Track.h   **** 
   9:DSP/Track.h   **** /**********************************************************//**
  10:DSP/Track.h   ****  *  Class name: Track
  11:DSP/Track.h   ****  *  Function: Processes audio buffer and FX for each track
ARM GAS  /var/folders/wz/z09yph4n0qj4t7mjxhl6ttn80000gn/T//ccxdcdyF.s 			page 23


  12:DSP/Track.h   ****  *************************************************************/
  13:DSP/Track.h   **** 
  14:DSP/Track.h   **** class Track
  15:DSP/Track.h   **** {
  16:DSP/Track.h   **** public:
  17:DSP/Track.h   **** 
  18:DSP/Track.h   ****     void init(float* mem[2]);
  19:DSP/Track.h   ****     void initIO(TrackIO io);
  20:DSP/Track.h   ****     void initFX(DaisySeed* seed, DelayLine<float, MAXDELAY>* dl[2]);
  21:DSP/Track.h   ****     void tick();
  22:DSP/Track.h   ****     void clearBuffer();
  23:DSP/Track.h   **** 
  24:DSP/Track.h   ****     void setIsRecording();
  25:DSP/Track.h   ****     void setIsPlaying();
  26:DSP/Track.h   **** 
  27:DSP/Track.h   ****     TrackState getState() { return state; }
 720              		.loc 4 27 16
 721              		.cfi_startproc
 722              		@ args = 0, pretend = 0, frame = 8
 723              		@ frame_needed = 1, uses_anonymous_args = 0
 724              		@ link register save eliminated.
 725 0000 80B4     		push	{r7}
 726              		.cfi_def_cfa_offset 4
 727              		.cfi_offset 7, -4
 728 0002 83B0     		sub	sp, sp, #12
 729              		.cfi_def_cfa_offset 16
 730 0004 00AF     		add	r7, sp, #0
 731              		.cfi_def_cfa_register 7
 732 0006 7860     		str	r0, [r7, #4]
 733              		.loc 4 27 36
 734 0008 7B68     		ldr	r3, [r7, #4]
 735 000a 1B78     		ldrb	r3, [r3]	@ zero_extendqisi2
 736              		.loc 4 27 43
 737 000c 1846     		mov	r0, r3
 738 000e 0C37     		adds	r7, r7, #12
 739              		.cfi_def_cfa_offset 4
 740 0010 BD46     		mov	sp, r7
 741              		.cfi_def_cfa_register 13
 742              		@ sp needed
 743 0012 5DF8047B 		ldr	r7, [sp], #4
 744              		.cfi_restore 7
 745              		.cfi_def_cfa_offset 0
 746 0016 7047     		bx	lr
 747              		.cfi_endproc
 748              	.LFE5649:
 750              		.section	.text._ZN5Mixer12setTrack1PanEf,"axG",%progbits,_ZN5Mixer12setTrack1PanEf,comdat
 751              		.align	1
 752              		.weak	_ZN5Mixer12setTrack1PanEf
 753              		.syntax unified
 754              		.thumb
 755              		.thumb_func
 757              	_ZN5Mixer12setTrack1PanEf:
 758              	.LFB5653:
 759              		.file 5 "DSP/Mixer.h"
   1:DSP/Mixer.h   **** #ifndef MIXER_H
   2:DSP/Mixer.h   **** #define MIXER_H
   3:DSP/Mixer.h   **** 
ARM GAS  /var/folders/wz/z09yph4n0qj4t7mjxhl6ttn80000gn/T//ccxdcdyF.s 			page 24


   4:DSP/Mixer.h   **** #include "Track.h"
   5:DSP/Mixer.h   **** 
   6:DSP/Mixer.h   **** /********************************************//**
   7:DSP/Mixer.h   ****  *  Class name: Mixer
   8:DSP/Mixer.h   ****  *  Function: Mixes outputs of track classes
   9:DSP/Mixer.h   ****  ***********************************************/
  10:DSP/Mixer.h   **** 
  11:DSP/Mixer.h   **** class Mixer
  12:DSP/Mixer.h   **** {
  13:DSP/Mixer.h   **** public:
  14:DSP/Mixer.h   **** 
  15:DSP/Mixer.h   ****     void init(DaisySeed* seed, float* m[2], float* t1[2], float* t2[2], float* t3[2], float* t4[2],
  16:DSP/Mixer.h   ****     void initMixChannels(float* t1[2], float* t2[2], float* t3[2], float* t4[2]);
  17:DSP/Mixer.h   ****     void initTrackIO(DaisySeed* seed, TrackIO t1, TrackIO t2, TrackIO t3, TrackIO t4);
  18:DSP/Mixer.h   ****     void tick();
  19:DSP/Mixer.h   **** 
  20:DSP/Mixer.h   ****     void prepare();
  21:DSP/Mixer.h   ****     void processInputBlock(const float* left, const float* right, size_t size);
  22:DSP/Mixer.h   ****     void panChannels(size_t size);
  23:DSP/Mixer.h   ****     void mixOutput(size_t size);
  24:DSP/Mixer.h   ****     void processOutputBlock(float* left, float* right, size_t size);
  25:DSP/Mixer.h   **** 
  26:DSP/Mixer.h   ****     void panMixBuffer(float* buffer[2], float pan, size_t size);
  27:DSP/Mixer.h   ****     void setMixDiv();
  28:DSP/Mixer.h   **** 
  29:DSP/Mixer.h   ****     void setIsRecording() { track1.track.setIsRecording(); }
  30:DSP/Mixer.h   ****     void setIsPlaying() { track1.track.setIsPlaying(); }
  31:DSP/Mixer.h   **** 
  32:DSP/Mixer.h   ****     void setTrack1Pan(float p){ track1.pan.value = p; }
 760              		.loc 5 32 10
 761              		.cfi_startproc
 762              		@ args = 0, pretend = 0, frame = 8
 763              		@ frame_needed = 1, uses_anonymous_args = 0
 764              		@ link register save eliminated.
 765 0000 80B4     		push	{r7}
 766              		.cfi_def_cfa_offset 4
 767              		.cfi_offset 7, -4
 768 0002 83B0     		sub	sp, sp, #12
 769              		.cfi_def_cfa_offset 16
 770 0004 00AF     		add	r7, sp, #0
 771              		.cfi_def_cfa_register 7
 772 0006 7860     		str	r0, [r7, #4]
 773 0008 87ED000A 		vstr.32	s0, [r7]
 774              		.loc 5 32 50
 775 000c 7B68     		ldr	r3, [r7, #4]
 776 000e 3A68     		ldr	r2, [r7]	@ float
 777 0010 C3F80422 		str	r2, [r3, #516]	@ float
 778              		.loc 5 32 55
 779 0014 00BF     		nop
 780 0016 0C37     		adds	r7, r7, #12
 781              		.cfi_def_cfa_offset 4
 782 0018 BD46     		mov	sp, r7
 783              		.cfi_def_cfa_register 13
 784              		@ sp needed
 785 001a 5DF8047B 		ldr	r7, [sp], #4
 786              		.cfi_restore 7
 787              		.cfi_def_cfa_offset 0
ARM GAS  /var/folders/wz/z09yph4n0qj4t7mjxhl6ttn80000gn/T//ccxdcdyF.s 			page 25


 788 001e 7047     		bx	lr
 789              		.cfi_endproc
 790              	.LFE5653:
 792              		.section	.text._ZN5Mixer12setTrack2PanEf,"axG",%progbits,_ZN5Mixer12setTrack2PanEf,comdat
 793              		.align	1
 794              		.weak	_ZN5Mixer12setTrack2PanEf
 795              		.syntax unified
 796              		.thumb
 797              		.thumb_func
 799              	_ZN5Mixer12setTrack2PanEf:
 800              	.LFB5654:
  33:DSP/Mixer.h   ****     void setTrack2Pan(float p){ track2.pan.value = p; }
 801              		.loc 5 33 10
 802              		.cfi_startproc
 803              		@ args = 0, pretend = 0, frame = 8
 804              		@ frame_needed = 1, uses_anonymous_args = 0
 805              		@ link register save eliminated.
 806 0000 80B4     		push	{r7}
 807              		.cfi_def_cfa_offset 4
 808              		.cfi_offset 7, -4
 809 0002 83B0     		sub	sp, sp, #12
 810              		.cfi_def_cfa_offset 16
 811 0004 00AF     		add	r7, sp, #0
 812              		.cfi_def_cfa_register 7
 813 0006 7860     		str	r0, [r7, #4]
 814 0008 87ED000A 		vstr.32	s0, [r7]
 815              		.loc 5 33 50
 816 000c 7B68     		ldr	r3, [r7, #4]
 817 000e 03F23C43 		addw	r3, r3, #1084
 818 0012 3A68     		ldr	r2, [r7]	@ float
 819 0014 1A60     		str	r2, [r3]	@ float
 820              		.loc 5 33 55
 821 0016 00BF     		nop
 822 0018 0C37     		adds	r7, r7, #12
 823              		.cfi_def_cfa_offset 4
 824 001a BD46     		mov	sp, r7
 825              		.cfi_def_cfa_register 13
 826              		@ sp needed
 827 001c 5DF8047B 		ldr	r7, [sp], #4
 828              		.cfi_restore 7
 829              		.cfi_def_cfa_offset 0
 830 0020 7047     		bx	lr
 831              		.cfi_endproc
 832              	.LFE5654:
 834              		.section	.text._ZN5Mixer12setTrack3PanEf,"axG",%progbits,_ZN5Mixer12setTrack3PanEf,comdat
 835              		.align	1
 836              		.weak	_ZN5Mixer12setTrack3PanEf
 837              		.syntax unified
 838              		.thumb
 839              		.thumb_func
 841              	_ZN5Mixer12setTrack3PanEf:
 842              	.LFB5655:
  34:DSP/Mixer.h   ****     void setTrack3Pan(float p){ track3.pan.value = p; }
 843              		.loc 5 34 10
 844              		.cfi_startproc
 845              		@ args = 0, pretend = 0, frame = 8
 846              		@ frame_needed = 1, uses_anonymous_args = 0
ARM GAS  /var/folders/wz/z09yph4n0qj4t7mjxhl6ttn80000gn/T//ccxdcdyF.s 			page 26


 847              		@ link register save eliminated.
 848 0000 80B4     		push	{r7}
 849              		.cfi_def_cfa_offset 4
 850              		.cfi_offset 7, -4
 851 0002 83B0     		sub	sp, sp, #12
 852              		.cfi_def_cfa_offset 16
 853 0004 00AF     		add	r7, sp, #0
 854              		.cfi_def_cfa_register 7
 855 0006 7860     		str	r0, [r7, #4]
 856 0008 87ED000A 		vstr.32	s0, [r7]
 857              		.loc 5 34 50
 858 000c 7B68     		ldr	r3, [r7, #4]
 859 000e 03F27463 		addw	r3, r3, #1652
 860 0012 3A68     		ldr	r2, [r7]	@ float
 861 0014 1A60     		str	r2, [r3]	@ float
 862              		.loc 5 34 55
 863 0016 00BF     		nop
 864 0018 0C37     		adds	r7, r7, #12
 865              		.cfi_def_cfa_offset 4
 866 001a BD46     		mov	sp, r7
 867              		.cfi_def_cfa_register 13
 868              		@ sp needed
 869 001c 5DF8047B 		ldr	r7, [sp], #4
 870              		.cfi_restore 7
 871              		.cfi_def_cfa_offset 0
 872 0020 7047     		bx	lr
 873              		.cfi_endproc
 874              	.LFE5655:
 876              		.section	.text._ZN5Mixer12setTrack4PanEf,"axG",%progbits,_ZN5Mixer12setTrack4PanEf,comdat
 877              		.align	1
 878              		.weak	_ZN5Mixer12setTrack4PanEf
 879              		.syntax unified
 880              		.thumb
 881              		.thumb_func
 883              	_ZN5Mixer12setTrack4PanEf:
 884              	.LFB5656:
  35:DSP/Mixer.h   ****     void setTrack4Pan(float p){ track4.pan.value = p; }
 885              		.loc 5 35 10
 886              		.cfi_startproc
 887              		@ args = 0, pretend = 0, frame = 8
 888              		@ frame_needed = 1, uses_anonymous_args = 0
 889              		@ link register save eliminated.
 890 0000 80B4     		push	{r7}
 891              		.cfi_def_cfa_offset 4
 892              		.cfi_offset 7, -4
 893 0002 83B0     		sub	sp, sp, #12
 894              		.cfi_def_cfa_offset 16
 895 0004 00AF     		add	r7, sp, #0
 896              		.cfi_def_cfa_register 7
 897 0006 7860     		str	r0, [r7, #4]
 898 0008 87ED000A 		vstr.32	s0, [r7]
 899              		.loc 5 35 50
 900 000c 7B68     		ldr	r3, [r7, #4]
 901 000e 03F6AC03 		addw	r3, r3, #2220
 902 0012 3A68     		ldr	r2, [r7]	@ float
 903 0014 1A60     		str	r2, [r3]	@ float
 904              		.loc 5 35 55
ARM GAS  /var/folders/wz/z09yph4n0qj4t7mjxhl6ttn80000gn/T//ccxdcdyF.s 			page 27


 905 0016 00BF     		nop
 906 0018 0C37     		adds	r7, r7, #12
 907              		.cfi_def_cfa_offset 4
 908 001a BD46     		mov	sp, r7
 909              		.cfi_def_cfa_register 13
 910              		@ sp needed
 911 001c 5DF8047B 		ldr	r7, [sp], #4
 912              		.cfi_restore 7
 913              		.cfi_def_cfa_offset 0
 914 0020 7047     		bx	lr
 915              		.cfi_endproc
 916              	.LFE5656:
 918              		.section	.text._ZN5Mixer13setTrack1GainEf,"axG",%progbits,_ZN5Mixer13setTrack1GainEf,comdat
 919              		.align	1
 920              		.weak	_ZN5Mixer13setTrack1GainEf
 921              		.syntax unified
 922              		.thumb
 923              		.thumb_func
 925              	_ZN5Mixer13setTrack1GainEf:
 926              	.LFB5657:
  36:DSP/Mixer.h   **** 
  37:DSP/Mixer.h   ****     void setTrack1Gain(float g){ track1.gain.value = g; }
 927              		.loc 5 37 10
 928              		.cfi_startproc
 929              		@ args = 0, pretend = 0, frame = 8
 930              		@ frame_needed = 1, uses_anonymous_args = 0
 931              		@ link register save eliminated.
 932 0000 80B4     		push	{r7}
 933              		.cfi_def_cfa_offset 4
 934              		.cfi_offset 7, -4
 935 0002 83B0     		sub	sp, sp, #12
 936              		.cfi_def_cfa_offset 16
 937 0004 00AF     		add	r7, sp, #0
 938              		.cfi_def_cfa_register 7
 939 0006 7860     		str	r0, [r7, #4]
 940 0008 87ED000A 		vstr.32	s0, [r7]
 941              		.loc 5 37 52
 942 000c 7B68     		ldr	r3, [r7, #4]
 943 000e 3A68     		ldr	r2, [r7]	@ float
 944 0010 C3F83422 		str	r2, [r3, #564]	@ float
 945              		.loc 5 37 57
 946 0014 00BF     		nop
 947 0016 0C37     		adds	r7, r7, #12
 948              		.cfi_def_cfa_offset 4
 949 0018 BD46     		mov	sp, r7
 950              		.cfi_def_cfa_register 13
 951              		@ sp needed
 952 001a 5DF8047B 		ldr	r7, [sp], #4
 953              		.cfi_restore 7
 954              		.cfi_def_cfa_offset 0
 955 001e 7047     		bx	lr
 956              		.cfi_endproc
 957              	.LFE5657:
 959              		.section	.text._ZN5Mixer13setTrack2GainEf,"axG",%progbits,_ZN5Mixer13setTrack2GainEf,comdat
 960              		.align	1
 961              		.weak	_ZN5Mixer13setTrack2GainEf
 962              		.syntax unified
ARM GAS  /var/folders/wz/z09yph4n0qj4t7mjxhl6ttn80000gn/T//ccxdcdyF.s 			page 28


 963              		.thumb
 964              		.thumb_func
 966              	_ZN5Mixer13setTrack2GainEf:
 967              	.LFB5658:
  38:DSP/Mixer.h   ****     void setTrack2Gain(float g){ track2.gain.value = g; }
 968              		.loc 5 38 10
 969              		.cfi_startproc
 970              		@ args = 0, pretend = 0, frame = 8
 971              		@ frame_needed = 1, uses_anonymous_args = 0
 972              		@ link register save eliminated.
 973 0000 80B4     		push	{r7}
 974              		.cfi_def_cfa_offset 4
 975              		.cfi_offset 7, -4
 976 0002 83B0     		sub	sp, sp, #12
 977              		.cfi_def_cfa_offset 16
 978 0004 00AF     		add	r7, sp, #0
 979              		.cfi_def_cfa_register 7
 980 0006 7860     		str	r0, [r7, #4]
 981 0008 87ED000A 		vstr.32	s0, [r7]
 982              		.loc 5 38 52
 983 000c 7B68     		ldr	r3, [r7, #4]
 984 000e 03F26C43 		addw	r3, r3, #1132
 985 0012 3A68     		ldr	r2, [r7]	@ float
 986 0014 1A60     		str	r2, [r3]	@ float
 987              		.loc 5 38 57
 988 0016 00BF     		nop
 989 0018 0C37     		adds	r7, r7, #12
 990              		.cfi_def_cfa_offset 4
 991 001a BD46     		mov	sp, r7
 992              		.cfi_def_cfa_register 13
 993              		@ sp needed
 994 001c 5DF8047B 		ldr	r7, [sp], #4
 995              		.cfi_restore 7
 996              		.cfi_def_cfa_offset 0
 997 0020 7047     		bx	lr
 998              		.cfi_endproc
 999              	.LFE5658:
 1001              		.section	.text._ZN5Mixer13setTrack3GainEf,"axG",%progbits,_ZN5Mixer13setTrack3GainEf,comdat
 1002              		.align	1
 1003              		.weak	_ZN5Mixer13setTrack3GainEf
 1004              		.syntax unified
 1005              		.thumb
 1006              		.thumb_func
 1008              	_ZN5Mixer13setTrack3GainEf:
 1009              	.LFB5659:
  39:DSP/Mixer.h   ****     void setTrack3Gain(float g){ track3.gain.value = g; }
 1010              		.loc 5 39 10
 1011              		.cfi_startproc
 1012              		@ args = 0, pretend = 0, frame = 8
 1013              		@ frame_needed = 1, uses_anonymous_args = 0
 1014              		@ link register save eliminated.
 1015 0000 80B4     		push	{r7}
 1016              		.cfi_def_cfa_offset 4
 1017              		.cfi_offset 7, -4
 1018 0002 83B0     		sub	sp, sp, #12
 1019              		.cfi_def_cfa_offset 16
 1020 0004 00AF     		add	r7, sp, #0
ARM GAS  /var/folders/wz/z09yph4n0qj4t7mjxhl6ttn80000gn/T//ccxdcdyF.s 			page 29


 1021              		.cfi_def_cfa_register 7
 1022 0006 7860     		str	r0, [r7, #4]
 1023 0008 87ED000A 		vstr.32	s0, [r7]
 1024              		.loc 5 39 52
 1025 000c 7B68     		ldr	r3, [r7, #4]
 1026 000e 03F2A463 		addw	r3, r3, #1700
 1027 0012 3A68     		ldr	r2, [r7]	@ float
 1028 0014 1A60     		str	r2, [r3]	@ float
 1029              		.loc 5 39 57
 1030 0016 00BF     		nop
 1031 0018 0C37     		adds	r7, r7, #12
 1032              		.cfi_def_cfa_offset 4
 1033 001a BD46     		mov	sp, r7
 1034              		.cfi_def_cfa_register 13
 1035              		@ sp needed
 1036 001c 5DF8047B 		ldr	r7, [sp], #4
 1037              		.cfi_restore 7
 1038              		.cfi_def_cfa_offset 0
 1039 0020 7047     		bx	lr
 1040              		.cfi_endproc
 1041              	.LFE5659:
 1043              		.section	.text._ZN5Mixer13setTrack4GainEf,"axG",%progbits,_ZN5Mixer13setTrack4GainEf,comdat
 1044              		.align	1
 1045              		.weak	_ZN5Mixer13setTrack4GainEf
 1046              		.syntax unified
 1047              		.thumb
 1048              		.thumb_func
 1050              	_ZN5Mixer13setTrack4GainEf:
 1051              	.LFB5660:
  40:DSP/Mixer.h   ****     void setTrack4Gain(float g){ track4.gain.value = g; }
 1052              		.loc 5 40 10
 1053              		.cfi_startproc
 1054              		@ args = 0, pretend = 0, frame = 8
 1055              		@ frame_needed = 1, uses_anonymous_args = 0
 1056              		@ link register save eliminated.
 1057 0000 80B4     		push	{r7}
 1058              		.cfi_def_cfa_offset 4
 1059              		.cfi_offset 7, -4
 1060 0002 83B0     		sub	sp, sp, #12
 1061              		.cfi_def_cfa_offset 16
 1062 0004 00AF     		add	r7, sp, #0
 1063              		.cfi_def_cfa_register 7
 1064 0006 7860     		str	r0, [r7, #4]
 1065 0008 87ED000A 		vstr.32	s0, [r7]
 1066              		.loc 5 40 52
 1067 000c 7B68     		ldr	r3, [r7, #4]
 1068 000e 03F6DC03 		addw	r3, r3, #2268
 1069 0012 3A68     		ldr	r2, [r7]	@ float
 1070 0014 1A60     		str	r2, [r3]	@ float
 1071              		.loc 5 40 57
 1072 0016 00BF     		nop
 1073 0018 0C37     		adds	r7, r7, #12
 1074              		.cfi_def_cfa_offset 4
 1075 001a BD46     		mov	sp, r7
 1076              		.cfi_def_cfa_register 13
 1077              		@ sp needed
 1078 001c 5DF8047B 		ldr	r7, [sp], #4
ARM GAS  /var/folders/wz/z09yph4n0qj4t7mjxhl6ttn80000gn/T//ccxdcdyF.s 			page 30


 1079              		.cfi_restore 7
 1080              		.cfi_def_cfa_offset 0
 1081 0020 7047     		bx	lr
 1082              		.cfi_endproc
 1083              	.LFE5660:
 1085              		.section	.text._ZN5Mixer15setMasterVolumeEf,"axG",%progbits,_ZN5Mixer15setMasterVolumeEf,comdat
 1086              		.align	1
 1087              		.weak	_ZN5Mixer15setMasterVolumeEf
 1088              		.syntax unified
 1089              		.thumb
 1090              		.thumb_func
 1092              	_ZN5Mixer15setMasterVolumeEf:
 1093              	.LFB5661:
  41:DSP/Mixer.h   ****     void setMasterVolume(float m){ master.value = m; }
 1094              		.loc 5 41 10
 1095              		.cfi_startproc
 1096              		@ args = 0, pretend = 0, frame = 8
 1097              		@ frame_needed = 1, uses_anonymous_args = 0
 1098              		@ link register save eliminated.
 1099 0000 80B4     		push	{r7}
 1100              		.cfi_def_cfa_offset 4
 1101              		.cfi_offset 7, -4
 1102 0002 83B0     		sub	sp, sp, #12
 1103              		.cfi_def_cfa_offset 16
 1104 0004 00AF     		add	r7, sp, #0
 1105              		.cfi_def_cfa_register 7
 1106 0006 7860     		str	r0, [r7, #4]
 1107 0008 87ED000A 		vstr.32	s0, [r7]
 1108              		.loc 5 41 49
 1109 000c 7B68     		ldr	r3, [r7, #4]
 1110 000e 03F51163 		add	r3, r3, #2320
 1111 0012 3A68     		ldr	r2, [r7]	@ float
 1112 0014 1A60     		str	r2, [r3]	@ float
 1113              		.loc 5 41 54
 1114 0016 00BF     		nop
 1115 0018 0C37     		adds	r7, r7, #12
 1116              		.cfi_def_cfa_offset 4
 1117 001a BD46     		mov	sp, r7
 1118              		.cfi_def_cfa_register 13
 1119              		@ sp needed
 1120 001c 5DF8047B 		ldr	r7, [sp], #4
 1121              		.cfi_restore 7
 1122              		.cfi_def_cfa_offset 0
 1123 0020 7047     		bx	lr
 1124              		.cfi_endproc
 1125              	.LFE5661:
 1127              		.section	.text._ZN5Mixer12MixerChannel9getCurValEij,"axG",%progbits,_ZN5Mixer12MixerChannel9getCur
 1128              		.align	1
 1129              		.weak	_ZN5Mixer12MixerChannel9getCurValEij
 1130              		.syntax unified
 1131              		.thumb
 1132              		.thumb_func
 1134              	_ZN5Mixer12MixerChannel9getCurValEij:
 1135              	.LFB5662:
  42:DSP/Mixer.h   **** 
  43:DSP/Mixer.h   **** private:
  44:DSP/Mixer.h   **** 
ARM GAS  /var/folders/wz/z09yph4n0qj4t7mjxhl6ttn80000gn/T//ccxdcdyF.s 			page 31


  45:DSP/Mixer.h   ****     struct MixerChannel
  46:DSP/Mixer.h   ****     {
  47:DSP/Mixer.h   ****         Track track;
  48:DSP/Mixer.h   ****         float* buffer[2];
  49:DSP/Mixer.h   ****         AudioParameterWrapper<float> pan;
  50:DSP/Mixer.h   ****         AudioParameterWrapper<float> gain;
  51:DSP/Mixer.h   **** 
  52:DSP/Mixer.h   ****         inline float getCurVal(int chan, size_t index)
 1136              		.loc 5 52 22
 1137              		.cfi_startproc
 1138              		@ args = 0, pretend = 0, frame = 16
 1139              		@ frame_needed = 1, uses_anonymous_args = 0
 1140 0000 80B5     		push	{r7, lr}
 1141              		.cfi_def_cfa_offset 8
 1142              		.cfi_offset 7, -8
 1143              		.cfi_offset 14, -4
 1144 0002 84B0     		sub	sp, sp, #16
 1145              		.cfi_def_cfa_offset 24
 1146 0004 00AF     		add	r7, sp, #0
 1147              		.cfi_def_cfa_register 7
 1148 0006 F860     		str	r0, [r7, #12]
 1149 0008 B960     		str	r1, [r7, #8]
 1150 000a 7A60     		str	r2, [r7, #4]
  53:DSP/Mixer.h   ****         {
  54:DSP/Mixer.h   ****             if(gain.value < 0.005 || track.getState() == STOPPED)
 1151              		.loc 5 54 21
 1152 000c FB68     		ldr	r3, [r7, #12]
 1153 000e D3ED8D7A 		vldr.32	s15, [r3, #564]
 1154 0012 B7EEE77A 		vcvt.f64.f32	d7, s15
 1155              		.loc 5 54 35
 1156 0016 9FED166B 		vldr.64	d6, .L33
 1157 001a B4EEC67B 		vcmpe.f64	d7, d6
 1158 001e F1EE10FA 		vmrs	APSR_nzcv, FPSCR
 1159 0022 06D4     		bmi	.L28
 1160              		.loc 5 54 52 discriminator 2
 1161 0024 FB68     		ldr	r3, [r7, #12]
 1162 0026 1846     		mov	r0, r3
 1163 0028 FFF7FEFF 		bl	_ZN5Track8getStateEv
 1164 002c 0346     		mov	r3, r0
 1165              		.loc 5 54 35 discriminator 2
 1166 002e 022B     		cmp	r3, #2
 1167 0030 01D1     		bne	.L29
 1168              	.L28:
 1169              		.loc 5 54 35 is_stmt 0 discriminator 3
 1170 0032 0123     		movs	r3, #1
 1171 0034 00E0     		b	.L30
 1172              	.L29:
 1173              		.loc 5 54 35 discriminator 4
 1174 0036 0023     		movs	r3, #0
 1175              	.L30:
 1176              		.loc 5 54 13 is_stmt 1 discriminator 6
 1177 0038 002B     		cmp	r3, #0
 1178 003a 02D0     		beq	.L31
  55:DSP/Mixer.h   ****                 return 0.0f;
 1179              		.loc 5 55 24
 1180 003c DFED0E7A 		vldr.32	s15, .L33+8
 1181 0040 0EE0     		b	.L32
ARM GAS  /var/folders/wz/z09yph4n0qj4t7mjxhl6ttn80000gn/T//ccxdcdyF.s 			page 32


 1182              	.L31:
  56:DSP/Mixer.h   ****             else
  57:DSP/Mixer.h   ****                 return buffer[chan][index] * gain.value;
 1183              		.loc 5 57 35
 1184 0042 FB68     		ldr	r3, [r7, #12]
 1185 0044 BA68     		ldr	r2, [r7, #8]
 1186 0046 7432     		adds	r2, r2, #116
 1187 0048 53F82220 		ldr	r2, [r3, r2, lsl #2]
 1188              		.loc 5 57 42
 1189 004c 7B68     		ldr	r3, [r7, #4]
 1190 004e 9B00     		lsls	r3, r3, #2
 1191 0050 1344     		add	r3, r3, r2
 1192 0052 93ED007A 		vldr.32	s14, [r3]
 1193              		.loc 5 57 51
 1194 0056 FB68     		ldr	r3, [r7, #12]
 1195 0058 D3ED8D7A 		vldr.32	s15, [r3, #564]
 1196 005c 67EE277A 		vmul.f32	s15, s14, s15
 1197              	.L32:
  58:DSP/Mixer.h   ****         }
 1198              		.loc 5 58 9
 1199 0060 B0EE670A 		vmov.f32	s0, s15
 1200 0064 1037     		adds	r7, r7, #16
 1201              		.cfi_def_cfa_offset 8
 1202 0066 BD46     		mov	sp, r7
 1203              		.cfi_def_cfa_register 13
 1204              		@ sp needed
 1205 0068 80BD     		pop	{r7, pc}
 1206              	.L34:
 1207 006a 00BFAFF3 		.align	3
 1207      0080
 1208              	.L33:
 1209 0070 7B14AE47 		.word	1202590843
 1210 0074 E17A743F 		.word	1064598241
 1211 0078 00000000 		.word	0
 1212              		.cfi_endproc
 1213              	.LFE5662:
 1215              		.section	.text._ZZN5Mixer4initEPN5daisy9DaisySeedEPPfS4_S4_S4_S4_PPN7daisysp9DelayLineIfLj240000EE
 1216              		.align	1
 1217              		.syntax unified
 1218              		.thumb
 1219              		.thumb_func
 1221              	_ZZN5Mixer4initEPN5daisy9DaisySeedEPPfS4_S4_S4_S4_PPN7daisysp9DelayLineIfLj240000EEEENKUlfE_clEf:
 1222              	.LFB5664:
 1223              		.file 6 "DSP/Mixer.cpp"
   1:DSP/Mixer.cpp **** #include "Mixer.h"
   2:DSP/Mixer.cpp **** 
   3:DSP/Mixer.cpp **** void Mixer::init(DaisySeed* seed, float* m[2], float* t1[2], float* t2[2], float* t3[2], float* t4[
   4:DSP/Mixer.cpp **** {
   5:DSP/Mixer.cpp ****     bufferSize = SAMPLERATE * DURATION;
   6:DSP/Mixer.cpp ****     for(uint_fast8_t i = 0 ; i < 2 ; i++)
   7:DSP/Mixer.cpp ****         mix[i] = m[i];
   8:DSP/Mixer.cpp **** 
   9:DSP/Mixer.cpp ****     for(size_t j = 0 ; j < bufferSize ; j++)
  10:DSP/Mixer.cpp ****     {
  11:DSP/Mixer.cpp ****         mix[L][j] = 0.0f;
  12:DSP/Mixer.cpp ****         mix[R][j] = 0.0f;
  13:DSP/Mixer.cpp ****     }
ARM GAS  /var/folders/wz/z09yph4n0qj4t7mjxhl6ttn80000gn/T//ccxdcdyF.s 			page 33


  14:DSP/Mixer.cpp **** 
  15:DSP/Mixer.cpp ****     track1.track.init(t1);
  16:DSP/Mixer.cpp ****     // init fx
  17:DSP/Mixer.cpp ****     track2.track.init(t2);
  18:DSP/Mixer.cpp ****     // init fx
  19:DSP/Mixer.cpp ****     track3.track.init(t3);
  20:DSP/Mixer.cpp ****     // init fx
  21:DSP/Mixer.cpp ****     track4.track.init(t4);
  22:DSP/Mixer.cpp ****     // init fx
  23:DSP/Mixer.cpp **** 
  24:DSP/Mixer.cpp ****     mixDiv = 0;
  25:DSP/Mixer.cpp ****     master.param.init(seed, 0, 1, LINEAR, ChannelIDs::MASTER, [this] ( float v) { setMasterVolume(v
 1224              		.loc 6 25 63
 1225              		.cfi_startproc
 1226              		@ args = 0, pretend = 0, frame = 8
 1227              		@ frame_needed = 1, uses_anonymous_args = 0
 1228 0000 80B5     		push	{r7, lr}
 1229              		.cfi_def_cfa_offset 8
 1230              		.cfi_offset 7, -8
 1231              		.cfi_offset 14, -4
 1232 0002 82B0     		sub	sp, sp, #8
 1233              		.cfi_def_cfa_offset 16
 1234 0004 00AF     		add	r7, sp, #0
 1235              		.cfi_def_cfa_register 7
 1236 0006 7860     		str	r0, [r7, #4]
 1237 0008 87ED000A 		vstr.32	s0, [r7]
 1238              		.loc 6 25 79
 1239 000c 7B68     		ldr	r3, [r7, #4]
 1240 000e 1B68     		ldr	r3, [r3]
 1241              		.loc 6 25 98
 1242 0010 97ED000A 		vldr.32	s0, [r7]
 1243 0014 1846     		mov	r0, r3
 1244 0016 FFF7FEFF 		bl	_ZN5Mixer15setMasterVolumeEf
 1245              		.loc 6 25 103
 1246 001a 00BF     		nop
 1247 001c 0837     		adds	r7, r7, #8
 1248              		.cfi_def_cfa_offset 8
 1249 001e BD46     		mov	sp, r7
 1250              		.cfi_def_cfa_register 13
 1251              		@ sp needed
 1252 0020 80BD     		pop	{r7, pc}
 1253              		.cfi_endproc
 1254              	.LFE5664:
 1256              		.section	.text._ZNSt8functionIFvfEED2Ev,"axG",%progbits,_ZNSt8functionIFvfEED5Ev,comdat
 1257              		.align	1
 1258              		.weak	_ZNSt8functionIFvfEED2Ev
 1259              		.syntax unified
 1260              		.thumb
 1261              		.thumb_func
 1263              	_ZNSt8functionIFvfEED2Ev:
 1264              	.LFB5666:
 249:/Library/DaisyToolchain/0.2.0/arm/arm-none-eabi/include/c++/10.3.1/bits/std_function.h **** 
 250:/Library/DaisyToolchain/0.2.0/arm/arm-none-eabi/include/c++/10.3.1/bits/std_function.h ****     typedef bool (*_Manager_type)(_Any_data&, const _Any_data&,
 251:/Library/DaisyToolchain/0.2.0/arm/arm-none-eabi/include/c++/10.3.1/bits/std_function.h **** 				  _Manager_operation);
 252:/Library/DaisyToolchain/0.2.0/arm/arm-none-eabi/include/c++/10.3.1/bits/std_function.h **** 
 253:/Library/DaisyToolchain/0.2.0/arm/arm-none-eabi/include/c++/10.3.1/bits/std_function.h ****     _Any_data     _M_functor;
 254:/Library/DaisyToolchain/0.2.0/arm/arm-none-eabi/include/c++/10.3.1/bits/std_function.h ****     _Manager_type _M_manager;
ARM GAS  /var/folders/wz/z09yph4n0qj4t7mjxhl6ttn80000gn/T//ccxdcdyF.s 			page 34


 255:/Library/DaisyToolchain/0.2.0/arm/arm-none-eabi/include/c++/10.3.1/bits/std_function.h ****   };
 256:/Library/DaisyToolchain/0.2.0/arm/arm-none-eabi/include/c++/10.3.1/bits/std_function.h **** 
 257:/Library/DaisyToolchain/0.2.0/arm/arm-none-eabi/include/c++/10.3.1/bits/std_function.h ****   template<typename _Signature, typename _Functor>
 258:/Library/DaisyToolchain/0.2.0/arm/arm-none-eabi/include/c++/10.3.1/bits/std_function.h ****     class _Function_handler;
 259:/Library/DaisyToolchain/0.2.0/arm/arm-none-eabi/include/c++/10.3.1/bits/std_function.h **** 
 260:/Library/DaisyToolchain/0.2.0/arm/arm-none-eabi/include/c++/10.3.1/bits/std_function.h ****   template<typename _Res, typename _Functor, typename... _ArgTypes>
 261:/Library/DaisyToolchain/0.2.0/arm/arm-none-eabi/include/c++/10.3.1/bits/std_function.h ****     class _Function_handler<_Res(_ArgTypes...), _Functor>
 262:/Library/DaisyToolchain/0.2.0/arm/arm-none-eabi/include/c++/10.3.1/bits/std_function.h ****     : public _Function_base::_Base_manager<_Functor>
 263:/Library/DaisyToolchain/0.2.0/arm/arm-none-eabi/include/c++/10.3.1/bits/std_function.h ****     {
 264:/Library/DaisyToolchain/0.2.0/arm/arm-none-eabi/include/c++/10.3.1/bits/std_function.h ****       typedef _Function_base::_Base_manager<_Functor> _Base;
 265:/Library/DaisyToolchain/0.2.0/arm/arm-none-eabi/include/c++/10.3.1/bits/std_function.h **** 
 266:/Library/DaisyToolchain/0.2.0/arm/arm-none-eabi/include/c++/10.3.1/bits/std_function.h ****     public:
 267:/Library/DaisyToolchain/0.2.0/arm/arm-none-eabi/include/c++/10.3.1/bits/std_function.h ****       static bool
 268:/Library/DaisyToolchain/0.2.0/arm/arm-none-eabi/include/c++/10.3.1/bits/std_function.h ****       _M_manager(_Any_data& __dest, const _Any_data& __source,
 269:/Library/DaisyToolchain/0.2.0/arm/arm-none-eabi/include/c++/10.3.1/bits/std_function.h **** 		 _Manager_operation __op)
 270:/Library/DaisyToolchain/0.2.0/arm/arm-none-eabi/include/c++/10.3.1/bits/std_function.h ****       {
 271:/Library/DaisyToolchain/0.2.0/arm/arm-none-eabi/include/c++/10.3.1/bits/std_function.h **** 	switch (__op)
 272:/Library/DaisyToolchain/0.2.0/arm/arm-none-eabi/include/c++/10.3.1/bits/std_function.h **** 	  {
 273:/Library/DaisyToolchain/0.2.0/arm/arm-none-eabi/include/c++/10.3.1/bits/std_function.h **** #if __cpp_rtti
 274:/Library/DaisyToolchain/0.2.0/arm/arm-none-eabi/include/c++/10.3.1/bits/std_function.h **** 	  case __get_type_info:
 275:/Library/DaisyToolchain/0.2.0/arm/arm-none-eabi/include/c++/10.3.1/bits/std_function.h **** 	    __dest._M_access<const type_info*>() = &typeid(_Functor);
 276:/Library/DaisyToolchain/0.2.0/arm/arm-none-eabi/include/c++/10.3.1/bits/std_function.h **** 	    break;
 277:/Library/DaisyToolchain/0.2.0/arm/arm-none-eabi/include/c++/10.3.1/bits/std_function.h **** #endif
 278:/Library/DaisyToolchain/0.2.0/arm/arm-none-eabi/include/c++/10.3.1/bits/std_function.h **** 	  case __get_functor_ptr:
 279:/Library/DaisyToolchain/0.2.0/arm/arm-none-eabi/include/c++/10.3.1/bits/std_function.h **** 	    __dest._M_access<_Functor*>() = _Base::_M_get_pointer(__source);
 280:/Library/DaisyToolchain/0.2.0/arm/arm-none-eabi/include/c++/10.3.1/bits/std_function.h **** 	    break;
 281:/Library/DaisyToolchain/0.2.0/arm/arm-none-eabi/include/c++/10.3.1/bits/std_function.h **** 
 282:/Library/DaisyToolchain/0.2.0/arm/arm-none-eabi/include/c++/10.3.1/bits/std_function.h **** 	  default:
 283:/Library/DaisyToolchain/0.2.0/arm/arm-none-eabi/include/c++/10.3.1/bits/std_function.h **** 	    _Base::_M_manager(__dest, __source, __op);
 284:/Library/DaisyToolchain/0.2.0/arm/arm-none-eabi/include/c++/10.3.1/bits/std_function.h **** 	  }
 285:/Library/DaisyToolchain/0.2.0/arm/arm-none-eabi/include/c++/10.3.1/bits/std_function.h **** 	return false;
 286:/Library/DaisyToolchain/0.2.0/arm/arm-none-eabi/include/c++/10.3.1/bits/std_function.h ****       }
 287:/Library/DaisyToolchain/0.2.0/arm/arm-none-eabi/include/c++/10.3.1/bits/std_function.h **** 
 288:/Library/DaisyToolchain/0.2.0/arm/arm-none-eabi/include/c++/10.3.1/bits/std_function.h ****       static _Res
 289:/Library/DaisyToolchain/0.2.0/arm/arm-none-eabi/include/c++/10.3.1/bits/std_function.h ****       _M_invoke(const _Any_data& __functor, _ArgTypes&&... __args)
 290:/Library/DaisyToolchain/0.2.0/arm/arm-none-eabi/include/c++/10.3.1/bits/std_function.h ****       {
 291:/Library/DaisyToolchain/0.2.0/arm/arm-none-eabi/include/c++/10.3.1/bits/std_function.h **** 	return std::__invoke_r<_Res>(*_Base::_M_get_pointer(__functor),
 292:/Library/DaisyToolchain/0.2.0/arm/arm-none-eabi/include/c++/10.3.1/bits/std_function.h **** 				     std::forward<_ArgTypes>(__args)...);
 293:/Library/DaisyToolchain/0.2.0/arm/arm-none-eabi/include/c++/10.3.1/bits/std_function.h ****       }
 294:/Library/DaisyToolchain/0.2.0/arm/arm-none-eabi/include/c++/10.3.1/bits/std_function.h ****     };
 295:/Library/DaisyToolchain/0.2.0/arm/arm-none-eabi/include/c++/10.3.1/bits/std_function.h **** 
 296:/Library/DaisyToolchain/0.2.0/arm/arm-none-eabi/include/c++/10.3.1/bits/std_function.h ****   /**
 297:/Library/DaisyToolchain/0.2.0/arm/arm-none-eabi/include/c++/10.3.1/bits/std_function.h ****    *  @brief Primary class template for std::function.
 298:/Library/DaisyToolchain/0.2.0/arm/arm-none-eabi/include/c++/10.3.1/bits/std_function.h ****    *  @ingroup functors
 299:/Library/DaisyToolchain/0.2.0/arm/arm-none-eabi/include/c++/10.3.1/bits/std_function.h ****    *
 300:/Library/DaisyToolchain/0.2.0/arm/arm-none-eabi/include/c++/10.3.1/bits/std_function.h ****    *  Polymorphic function wrapper.
 301:/Library/DaisyToolchain/0.2.0/arm/arm-none-eabi/include/c++/10.3.1/bits/std_function.h ****    */
 302:/Library/DaisyToolchain/0.2.0/arm/arm-none-eabi/include/c++/10.3.1/bits/std_function.h ****   template<typename _Res, typename... _ArgTypes>
 303:/Library/DaisyToolchain/0.2.0/arm/arm-none-eabi/include/c++/10.3.1/bits/std_function.h ****     class function<_Res(_ArgTypes...)>
 1265              		.loc 3 303 11
 1266              		.cfi_startproc
 1267              		@ args = 0, pretend = 0, frame = 8
 1268              		@ frame_needed = 1, uses_anonymous_args = 0
 1269 0000 80B5     		push	{r7, lr}
 1270              		.cfi_def_cfa_offset 8
 1271              		.cfi_offset 7, -8
 1272              		.cfi_offset 14, -4
ARM GAS  /var/folders/wz/z09yph4n0qj4t7mjxhl6ttn80000gn/T//ccxdcdyF.s 			page 35


 1273 0002 82B0     		sub	sp, sp, #8
 1274              		.cfi_def_cfa_offset 16
 1275 0004 00AF     		add	r7, sp, #0
 1276              		.cfi_def_cfa_register 7
 1277 0006 7860     		str	r0, [r7, #4]
 1278              	.LBB4:
 1279              		.loc 3 303 11
 1280 0008 7B68     		ldr	r3, [r7, #4]
 1281 000a 1846     		mov	r0, r3
 1282 000c FFF7FEFF 		bl	_ZNSt14_Function_baseD2Ev
 1283              	.LBE4:
 1284 0010 7B68     		ldr	r3, [r7, #4]
 1285 0012 1846     		mov	r0, r3
 1286 0014 0837     		adds	r7, r7, #8
 1287              		.cfi_def_cfa_offset 8
 1288 0016 BD46     		mov	sp, r7
 1289              		.cfi_def_cfa_register 13
 1290              		@ sp needed
 1291 0018 80BD     		pop	{r7, pc}
 1292              		.cfi_endproc
 1293              	.LFE5666:
 1295              		.weak	_ZNSt8functionIFvfEED1Ev
 1296              		.thumb_set _ZNSt8functionIFvfEED1Ev,_ZNSt8functionIFvfEED2Ev
 1297              		.section	.text._ZN5Mixer4initEPN5daisy9DaisySeedEPPfS4_S4_S4_S4_PPN7daisysp9DelayLineIfLj240000EEE
 1298              		.align	1
 1299              		.global	_ZN5Mixer4initEPN5daisy9DaisySeedEPPfS4_S4_S4_S4_PPN7daisysp9DelayLineIfLj240000EEE
 1300              		.syntax unified
 1301              		.thumb
 1302              		.thumb_func
 1304              	_ZN5Mixer4initEPN5daisy9DaisySeedEPPfS4_S4_S4_S4_PPN7daisysp9DelayLineIfLj240000EEE:
 1305              	.LFB5663:
   4:DSP/Mixer.cpp ****     bufferSize = SAMPLERATE * DURATION;
 1306              		.loc 6 4 1
 1307              		.cfi_startproc
 1308              		@ args = 16, pretend = 0, frame = 40
 1309              		@ frame_needed = 1, uses_anonymous_args = 0
 1310 0000 90B5     		push	{r4, r7, lr}
 1311              		.cfi_def_cfa_offset 12
 1312              		.cfi_offset 4, -12
 1313              		.cfi_offset 7, -8
 1314              		.cfi_offset 14, -4
 1315 0002 8DB0     		sub	sp, sp, #52
 1316              		.cfi_def_cfa_offset 64
 1317 0004 02AF     		add	r7, sp, #8
 1318              		.cfi_def_cfa 7, 56
 1319 0006 F860     		str	r0, [r7, #12]
 1320 0008 B960     		str	r1, [r7, #8]
 1321 000a 7A60     		str	r2, [r7, #4]
 1322 000c 3B60     		str	r3, [r7]
   5:DSP/Mixer.cpp ****     for(uint_fast8_t i = 0 ; i < 2 ; i++)
 1323              		.loc 6 5 16
 1324 000e FB68     		ldr	r3, [r7, #12]
 1325 0010 394A     		ldr	r2, .L43
 1326 0012 C3F81C29 		str	r2, [r3, #2332]
 1327              	.LBB5:
   6:DSP/Mixer.cpp ****         mix[i] = m[i];
 1328              		.loc 6 6 22
ARM GAS  /var/folders/wz/z09yph4n0qj4t7mjxhl6ttn80000gn/T//ccxdcdyF.s 			page 36


 1329 0016 0023     		movs	r3, #0
 1330 0018 7B62     		str	r3, [r7, #36]
 1331              	.L40:
   6:DSP/Mixer.cpp ****         mix[i] = m[i];
 1332              		.loc 6 6 32 discriminator 3
 1333 001a 7B6A     		ldr	r3, [r7, #36]
 1334 001c 012B     		cmp	r3, #1
 1335 001e 0FD8     		bhi	.L39
   7:DSP/Mixer.cpp **** 
 1336              		.loc 6 7 21 discriminator 2
 1337 0020 7B6A     		ldr	r3, [r7, #36]
 1338 0022 9B00     		lsls	r3, r3, #2
 1339 0024 7A68     		ldr	r2, [r7, #4]
 1340 0026 1344     		add	r3, r3, r2
 1341 0028 1A68     		ldr	r2, [r3]
   7:DSP/Mixer.cpp **** 
 1342              		.loc 6 7 16 discriminator 2
 1343 002a F968     		ldr	r1, [r7, #12]
 1344 002c 7B6A     		ldr	r3, [r7, #36]
 1345 002e 03F51173 		add	r3, r3, #580
 1346 0032 9B00     		lsls	r3, r3, #2
 1347 0034 0B44     		add	r3, r3, r1
 1348 0036 5A60     		str	r2, [r3, #4]
   6:DSP/Mixer.cpp ****         mix[i] = m[i];
 1349              		.loc 6 6 5 discriminator 2
 1350 0038 7B6A     		ldr	r3, [r7, #36]
 1351 003a 0133     		adds	r3, r3, #1
 1352 003c 7B62     		str	r3, [r7, #36]
 1353 003e ECE7     		b	.L40
 1354              	.L39:
 1355              	.LBE5:
 1356              	.LBB6:
   9:DSP/Mixer.cpp ****     {
 1357              		.loc 6 9 16
 1358 0040 0023     		movs	r3, #0
 1359 0042 3B62     		str	r3, [r7, #32]
 1360              	.L42:
   9:DSP/Mixer.cpp ****     {
 1361              		.loc 6 9 28 discriminator 3
 1362 0044 FB68     		ldr	r3, [r7, #12]
 1363 0046 D3F81C39 		ldr	r3, [r3, #2332]
   9:DSP/Mixer.cpp ****     {
 1364              		.loc 6 9 26 discriminator 3
 1365 004a 3A6A     		ldr	r2, [r7, #32]
 1366 004c 9A42     		cmp	r2, r3
 1367 004e 15D2     		bcs	.L41
  11:DSP/Mixer.cpp ****         mix[R][j] = 0.0f;
 1368              		.loc 6 11 14 discriminator 2
 1369 0050 FB68     		ldr	r3, [r7, #12]
 1370 0052 D3F81429 		ldr	r2, [r3, #2324]
  11:DSP/Mixer.cpp ****         mix[R][j] = 0.0f;
 1371              		.loc 6 11 17 discriminator 2
 1372 0056 3B6A     		ldr	r3, [r7, #32]
 1373 0058 9B00     		lsls	r3, r3, #2
 1374 005a 1344     		add	r3, r3, r2
  11:DSP/Mixer.cpp ****         mix[R][j] = 0.0f;
 1375              		.loc 6 11 19 discriminator 2
ARM GAS  /var/folders/wz/z09yph4n0qj4t7mjxhl6ttn80000gn/T//ccxdcdyF.s 			page 37


 1376 005c 4FF00002 		mov	r2, #0
 1377 0060 1A60     		str	r2, [r3]	@ float
  12:DSP/Mixer.cpp ****     }
 1378              		.loc 6 12 14 discriminator 2
 1379 0062 FB68     		ldr	r3, [r7, #12]
 1380 0064 D3F81829 		ldr	r2, [r3, #2328]
  12:DSP/Mixer.cpp ****     }
 1381              		.loc 6 12 17 discriminator 2
 1382 0068 3B6A     		ldr	r3, [r7, #32]
 1383 006a 9B00     		lsls	r3, r3, #2
 1384 006c 1344     		add	r3, r3, r2
  12:DSP/Mixer.cpp ****     }
 1385              		.loc 6 12 19 discriminator 2
 1386 006e 4FF00002 		mov	r2, #0
 1387 0072 1A60     		str	r2, [r3]	@ float
   9:DSP/Mixer.cpp ****     {
 1388              		.loc 6 9 5 discriminator 2
 1389 0074 3B6A     		ldr	r3, [r7, #32]
 1390 0076 0133     		adds	r3, r3, #1
 1391 0078 3B62     		str	r3, [r7, #32]
 1392 007a E3E7     		b	.L42
 1393              	.L41:
 1394              	.LBE6:
  15:DSP/Mixer.cpp ****     // init fx
 1395              		.loc 6 15 22
 1396 007c FB68     		ldr	r3, [r7, #12]
 1397 007e 3968     		ldr	r1, [r7]
 1398 0080 1846     		mov	r0, r3
 1399 0082 FFF7FEFF 		bl	_ZN5Track4initEPPf
  17:DSP/Mixer.cpp ****     // init fx
 1400              		.loc 6 17 22
 1401 0086 FB68     		ldr	r3, [r7, #12]
 1402 0088 03F50E73 		add	r3, r3, #568
 1403 008c B96B     		ldr	r1, [r7, #56]
 1404 008e 1846     		mov	r0, r3
 1405 0090 FFF7FEFF 		bl	_ZN5Track4initEPPf
  19:DSP/Mixer.cpp ****     // init fx
 1406              		.loc 6 19 22
 1407 0094 FB68     		ldr	r3, [r7, #12]
 1408 0096 03F58E63 		add	r3, r3, #1136
 1409 009a F96B     		ldr	r1, [r7, #60]
 1410 009c 1846     		mov	r0, r3
 1411 009e FFF7FEFF 		bl	_ZN5Track4initEPPf
  21:DSP/Mixer.cpp ****     // init fx
 1412              		.loc 6 21 22
 1413 00a2 FB68     		ldr	r3, [r7, #12]
 1414 00a4 03F5D563 		add	r3, r3, #1704
 1415 00a8 396C     		ldr	r1, [r7, #64]
 1416 00aa 1846     		mov	r0, r3
 1417 00ac FFF7FEFF 		bl	_ZN5Track4initEPPf
  24:DSP/Mixer.cpp ****     master.param.init(seed, 0, 1, LINEAR, ChannelIDs::MASTER, [this] ( float v) { setMasterVolume(v
 1418              		.loc 6 24 12
 1419 00b0 FB68     		ldr	r3, [r7, #12]
 1420 00b2 0022     		movs	r2, #0
 1421 00b4 C3F8E028 		str	r2, [r3, #2272]
 1422              		.loc 6 25 22
 1423 00b8 FB68     		ldr	r3, [r7, #12]
ARM GAS  /var/folders/wz/z09yph4n0qj4t7mjxhl6ttn80000gn/T//ccxdcdyF.s 			page 38


 1424 00ba 03F6E404 		addw	r4, r3, #2276
 1425 00be FA68     		ldr	r2, [r7, #12]
 1426 00c0 07F11003 		add	r3, r7, #16
 1427 00c4 1146     		mov	r1, r2
 1428 00c6 1846     		mov	r0, r3
 1429 00c8 FFF7FEFF 		bl	_ZNSt8functionIFvfEEC1IZN5Mixer4initEPN5daisy9DaisySeedEPPfS8_S8_S8_S8_PPN7daisysp9DelayLineIfL
 1430 00cc 07F11003 		add	r3, r7, #16
 1431 00d0 0093     		str	r3, [sp]
 1432 00d2 0423     		movs	r3, #4
 1433 00d4 0022     		movs	r2, #0
 1434 00d6 F7EE000A 		vmov.f32	s1, #1.0e+0
 1435 00da 9FED080A 		vldr.32	s0, .L43+4
 1436 00de B968     		ldr	r1, [r7, #8]
 1437 00e0 2046     		mov	r0, r4
 1438 00e2 FFF7FEFF 		bl	_ZN14AudioParameterIfE4initEPN5daisy9DaisySeedEff9CurveTypehSt8functionIFvfEE
 1439 00e6 07F11003 		add	r3, r7, #16
 1440 00ea 1846     		mov	r0, r3
 1441 00ec FFF7FEFF 		bl	_ZNSt8functionIFvfEED1Ev
  26:DSP/Mixer.cpp **** }
 1442              		.loc 6 26 1
 1443 00f0 00BF     		nop
 1444 00f2 2C37     		adds	r7, r7, #44
 1445              		.cfi_def_cfa_offset 12
 1446 00f4 BD46     		mov	sp, r7
 1447              		.cfi_def_cfa_register 13
 1448              		@ sp needed
 1449 00f6 90BD     		pop	{r4, r7, pc}
 1450              	.L44:
 1451              		.align	2
 1452              	.L43:
 1453 00f8 00530700 		.word	480000
 1454 00fc 00000000 		.word	0
 1455              		.cfi_endproc
 1456              	.LFE5663:
 1458              		.section	.text._ZN5Mixer15initMixChannelsEPPfS1_S1_S1_,"ax",%progbits
 1459              		.align	1
 1460              		.global	_ZN5Mixer15initMixChannelsEPPfS1_S1_S1_
 1461              		.syntax unified
 1462              		.thumb
 1463              		.thumb_func
 1465              	_ZN5Mixer15initMixChannelsEPPfS1_S1_S1_:
 1466              	.LFB5668:
  27:DSP/Mixer.cpp **** 
  28:DSP/Mixer.cpp **** void Mixer::initMixChannels(float* t1[2], float* t2[2], float* t3[2], float* t4[2])
  29:DSP/Mixer.cpp **** {
 1467              		.loc 6 29 1
 1468              		.cfi_startproc
 1469              		@ args = 4, pretend = 0, frame = 24
 1470              		@ frame_needed = 1, uses_anonymous_args = 0
 1471              		@ link register save eliminated.
 1472 0000 80B4     		push	{r7}
 1473              		.cfi_def_cfa_offset 4
 1474              		.cfi_offset 7, -4
 1475 0002 87B0     		sub	sp, sp, #28
 1476              		.cfi_def_cfa_offset 32
 1477 0004 00AF     		add	r7, sp, #0
 1478              		.cfi_def_cfa_register 7
ARM GAS  /var/folders/wz/z09yph4n0qj4t7mjxhl6ttn80000gn/T//ccxdcdyF.s 			page 39


 1479 0006 F860     		str	r0, [r7, #12]
 1480 0008 B960     		str	r1, [r7, #8]
 1481 000a 7A60     		str	r2, [r7, #4]
 1482 000c 3B60     		str	r3, [r7]
 1483              	.LBB7:
  30:DSP/Mixer.cpp ****     for(int i = 0 ; i < 2 ; i++)
 1484              		.loc 6 30 13
 1485 000e 0023     		movs	r3, #0
 1486 0010 7B61     		str	r3, [r7, #20]
 1487              	.L47:
 1488              		.loc 6 30 23 discriminator 3
 1489 0012 7B69     		ldr	r3, [r7, #20]
 1490 0014 012B     		cmp	r3, #1
 1491 0016 2EDC     		bgt	.L48
  31:DSP/Mixer.cpp ****     {
  32:DSP/Mixer.cpp ****         track1.buffer[i] = t1[i];
 1492              		.loc 6 32 31 discriminator 2
 1493 0018 7B69     		ldr	r3, [r7, #20]
 1494              		.loc 6 32 32 discriminator 2
 1495 001a 9B00     		lsls	r3, r3, #2
 1496 001c BA68     		ldr	r2, [r7, #8]
 1497 001e 1344     		add	r3, r3, r2
 1498 0020 1968     		ldr	r1, [r3]
 1499              		.loc 6 32 26 discriminator 2
 1500 0022 FB68     		ldr	r3, [r7, #12]
 1501 0024 7A69     		ldr	r2, [r7, #20]
 1502 0026 7432     		adds	r2, r2, #116
 1503 0028 43F82210 		str	r1, [r3, r2, lsl #2]
  33:DSP/Mixer.cpp ****         track2.buffer[i] = t2[i];
 1504              		.loc 6 33 31 discriminator 2
 1505 002c 7B69     		ldr	r3, [r7, #20]
 1506              		.loc 6 33 32 discriminator 2
 1507 002e 9B00     		lsls	r3, r3, #2
 1508 0030 7A68     		ldr	r2, [r7, #4]
 1509 0032 1344     		add	r3, r3, r2
 1510 0034 1968     		ldr	r1, [r3]
 1511              		.loc 6 33 26 discriminator 2
 1512 0036 FB68     		ldr	r3, [r7, #12]
 1513 0038 7A69     		ldr	r2, [r7, #20]
 1514 003a 02F58172 		add	r2, r2, #258
 1515 003e 43F82210 		str	r1, [r3, r2, lsl #2]
  34:DSP/Mixer.cpp ****         track3.buffer[i] = t3[i];
 1516              		.loc 6 34 31 discriminator 2
 1517 0042 7B69     		ldr	r3, [r7, #20]
 1518              		.loc 6 34 32 discriminator 2
 1519 0044 9B00     		lsls	r3, r3, #2
 1520 0046 3A68     		ldr	r2, [r7]
 1521 0048 1344     		add	r3, r3, r2
 1522 004a 1968     		ldr	r1, [r3]
 1523              		.loc 6 34 26 discriminator 2
 1524 004c FB68     		ldr	r3, [r7, #12]
 1525 004e 7A69     		ldr	r2, [r7, #20]
 1526 0050 02F5C872 		add	r2, r2, #400
 1527 0054 43F82210 		str	r1, [r3, r2, lsl #2]
  35:DSP/Mixer.cpp ****         track4.buffer[i] = t4[i];
 1528              		.loc 6 35 31 discriminator 2
 1529 0058 7B69     		ldr	r3, [r7, #20]
ARM GAS  /var/folders/wz/z09yph4n0qj4t7mjxhl6ttn80000gn/T//ccxdcdyF.s 			page 40


 1530              		.loc 6 35 32 discriminator 2
 1531 005a 9B00     		lsls	r3, r3, #2
 1532 005c 3A6A     		ldr	r2, [r7, #32]
 1533 005e 1344     		add	r3, r3, r2
 1534 0060 1968     		ldr	r1, [r3]
 1535              		.loc 6 35 26 discriminator 2
 1536 0062 FB68     		ldr	r3, [r7, #12]
 1537 0064 7A69     		ldr	r2, [r7, #20]
 1538 0066 02F21E22 		addw	r2, r2, #542
 1539 006a 43F82210 		str	r1, [r3, r2, lsl #2]
  30:DSP/Mixer.cpp ****     {
 1540              		.loc 6 30 5 discriminator 2
 1541 006e 7B69     		ldr	r3, [r7, #20]
 1542 0070 0133     		adds	r3, r3, #1
 1543 0072 7B61     		str	r3, [r7, #20]
 1544 0074 CDE7     		b	.L47
 1545              	.L48:
 1546              	.LBE7:
  36:DSP/Mixer.cpp ****     }
  37:DSP/Mixer.cpp **** }
 1547              		.loc 6 37 1
 1548 0076 00BF     		nop
 1549 0078 1C37     		adds	r7, r7, #28
 1550              		.cfi_def_cfa_offset 4
 1551 007a BD46     		mov	sp, r7
 1552              		.cfi_def_cfa_register 13
 1553              		@ sp needed
 1554 007c 5DF8047B 		ldr	r7, [sp], #4
 1555              		.cfi_restore 7
 1556              		.cfi_def_cfa_offset 0
 1557 0080 7047     		bx	lr
 1558              		.cfi_endproc
 1559              	.LFE5668:
 1561              		.section	.text._ZZN5Mixer11initTrackIOEPN5daisy9DaisySeedE7TrackIOS3_S3_S3_ENKUlfE_clEf,"ax",%prog
 1562              		.align	1
 1563              		.syntax unified
 1564              		.thumb
 1565              		.thumb_func
 1567              	_ZZN5Mixer11initTrackIOEPN5daisy9DaisySeedE7TrackIOS3_S3_S3_ENKUlfE_clEf:
 1568              	.LFB5670:
  38:DSP/Mixer.cpp **** 
  39:DSP/Mixer.cpp **** void Mixer::initTrackIO(DaisySeed* seed, TrackIO t1, TrackIO t2, TrackIO t3, TrackIO t4)
  40:DSP/Mixer.cpp **** {
  41:DSP/Mixer.cpp ****     track1.gain.param.init(seed, 0, 1, LINEAR, t1.amp, [this] (float g) { setTrack1Gain(g); });
 1569              		.loc 6 41 56
 1570              		.cfi_startproc
 1571              		@ args = 0, pretend = 0, frame = 8
 1572              		@ frame_needed = 1, uses_anonymous_args = 0
 1573 0000 80B5     		push	{r7, lr}
 1574              		.cfi_def_cfa_offset 8
 1575              		.cfi_offset 7, -8
 1576              		.cfi_offset 14, -4
 1577 0002 82B0     		sub	sp, sp, #8
 1578              		.cfi_def_cfa_offset 16
 1579 0004 00AF     		add	r7, sp, #0
 1580              		.cfi_def_cfa_register 7
 1581 0006 7860     		str	r0, [r7, #4]
ARM GAS  /var/folders/wz/z09yph4n0qj4t7mjxhl6ttn80000gn/T//ccxdcdyF.s 			page 41


 1582 0008 87ED000A 		vstr.32	s0, [r7]
 1583              		.loc 6 41 71
 1584 000c 7B68     		ldr	r3, [r7, #4]
 1585 000e 1B68     		ldr	r3, [r3]
 1586              		.loc 6 41 88
 1587 0010 97ED000A 		vldr.32	s0, [r7]
 1588 0014 1846     		mov	r0, r3
 1589 0016 FFF7FEFF 		bl	_ZN5Mixer13setTrack1GainEf
 1590              		.loc 6 41 93
 1591 001a 00BF     		nop
 1592 001c 0837     		adds	r7, r7, #8
 1593              		.cfi_def_cfa_offset 8
 1594 001e BD46     		mov	sp, r7
 1595              		.cfi_def_cfa_register 13
 1596              		@ sp needed
 1597 0020 80BD     		pop	{r7, pc}
 1598              		.cfi_endproc
 1599              	.LFE5670:
 1601              		.section	.text._ZZN5Mixer11initTrackIOEPN5daisy9DaisySeedE7TrackIOS3_S3_S3_ENKUlfE0_clEf,"ax",%pro
 1602              		.align	1
 1603              		.syntax unified
 1604              		.thumb
 1605              		.thumb_func
 1607              	_ZZN5Mixer11initTrackIOEPN5daisy9DaisySeedE7TrackIOS3_S3_S3_ENKUlfE0_clEf:
 1608              	.LFB5671:
  42:DSP/Mixer.cpp ****     track2.gain.param.init(seed, 0, 1, LINEAR, t2.amp, [this] (float g) { setTrack2Gain(g); });
 1609              		.loc 6 42 56
 1610              		.cfi_startproc
 1611              		@ args = 0, pretend = 0, frame = 8
 1612              		@ frame_needed = 1, uses_anonymous_args = 0
 1613 0000 80B5     		push	{r7, lr}
 1614              		.cfi_def_cfa_offset 8
 1615              		.cfi_offset 7, -8
 1616              		.cfi_offset 14, -4
 1617 0002 82B0     		sub	sp, sp, #8
 1618              		.cfi_def_cfa_offset 16
 1619 0004 00AF     		add	r7, sp, #0
 1620              		.cfi_def_cfa_register 7
 1621 0006 7860     		str	r0, [r7, #4]
 1622 0008 87ED000A 		vstr.32	s0, [r7]
 1623              		.loc 6 42 71
 1624 000c 7B68     		ldr	r3, [r7, #4]
 1625 000e 1B68     		ldr	r3, [r3]
 1626              		.loc 6 42 88
 1627 0010 97ED000A 		vldr.32	s0, [r7]
 1628 0014 1846     		mov	r0, r3
 1629 0016 FFF7FEFF 		bl	_ZN5Mixer13setTrack2GainEf
 1630              		.loc 6 42 93
 1631 001a 00BF     		nop
 1632 001c 0837     		adds	r7, r7, #8
 1633              		.cfi_def_cfa_offset 8
 1634 001e BD46     		mov	sp, r7
 1635              		.cfi_def_cfa_register 13
 1636              		@ sp needed
 1637 0020 80BD     		pop	{r7, pc}
 1638              		.cfi_endproc
 1639              	.LFE5671:
ARM GAS  /var/folders/wz/z09yph4n0qj4t7mjxhl6ttn80000gn/T//ccxdcdyF.s 			page 42


 1641              		.section	.text._ZZN5Mixer11initTrackIOEPN5daisy9DaisySeedE7TrackIOS3_S3_S3_ENKUlfE1_clEf,"ax",%pro
 1642              		.align	1
 1643              		.syntax unified
 1644              		.thumb
 1645              		.thumb_func
 1647              	_ZZN5Mixer11initTrackIOEPN5daisy9DaisySeedE7TrackIOS3_S3_S3_ENKUlfE1_clEf:
 1648              	.LFB5672:
  43:DSP/Mixer.cpp ****     track3.gain.param.init(seed, 0, 1, LINEAR, t3.amp, [this] (float g) { setTrack3Gain(g); });
 1649              		.loc 6 43 56
 1650              		.cfi_startproc
 1651              		@ args = 0, pretend = 0, frame = 8
 1652              		@ frame_needed = 1, uses_anonymous_args = 0
 1653 0000 80B5     		push	{r7, lr}
 1654              		.cfi_def_cfa_offset 8
 1655              		.cfi_offset 7, -8
 1656              		.cfi_offset 14, -4
 1657 0002 82B0     		sub	sp, sp, #8
 1658              		.cfi_def_cfa_offset 16
 1659 0004 00AF     		add	r7, sp, #0
 1660              		.cfi_def_cfa_register 7
 1661 0006 7860     		str	r0, [r7, #4]
 1662 0008 87ED000A 		vstr.32	s0, [r7]
 1663              		.loc 6 43 71
 1664 000c 7B68     		ldr	r3, [r7, #4]
 1665 000e 1B68     		ldr	r3, [r3]
 1666              		.loc 6 43 88
 1667 0010 97ED000A 		vldr.32	s0, [r7]
 1668 0014 1846     		mov	r0, r3
 1669 0016 FFF7FEFF 		bl	_ZN5Mixer13setTrack3GainEf
 1670              		.loc 6 43 93
 1671 001a 00BF     		nop
 1672 001c 0837     		adds	r7, r7, #8
 1673              		.cfi_def_cfa_offset 8
 1674 001e BD46     		mov	sp, r7
 1675              		.cfi_def_cfa_register 13
 1676              		@ sp needed
 1677 0020 80BD     		pop	{r7, pc}
 1678              		.cfi_endproc
 1679              	.LFE5672:
 1681              		.section	.text._ZZN5Mixer11initTrackIOEPN5daisy9DaisySeedE7TrackIOS3_S3_S3_ENKUlfE2_clEf,"ax",%pro
 1682              		.align	1
 1683              		.syntax unified
 1684              		.thumb
 1685              		.thumb_func
 1687              	_ZZN5Mixer11initTrackIOEPN5daisy9DaisySeedE7TrackIOS3_S3_S3_ENKUlfE2_clEf:
 1688              	.LFB5673:
  44:DSP/Mixer.cpp ****     track4.gain.param.init(seed, 0, 1, LINEAR, t4.amp, [this] (float g) { setTrack4Gain(g); });
 1689              		.loc 6 44 56
 1690              		.cfi_startproc
 1691              		@ args = 0, pretend = 0, frame = 8
 1692              		@ frame_needed = 1, uses_anonymous_args = 0
 1693 0000 80B5     		push	{r7, lr}
 1694              		.cfi_def_cfa_offset 8
 1695              		.cfi_offset 7, -8
 1696              		.cfi_offset 14, -4
 1697 0002 82B0     		sub	sp, sp, #8
 1698              		.cfi_def_cfa_offset 16
ARM GAS  /var/folders/wz/z09yph4n0qj4t7mjxhl6ttn80000gn/T//ccxdcdyF.s 			page 43


 1699 0004 00AF     		add	r7, sp, #0
 1700              		.cfi_def_cfa_register 7
 1701 0006 7860     		str	r0, [r7, #4]
 1702 0008 87ED000A 		vstr.32	s0, [r7]
 1703              		.loc 6 44 71
 1704 000c 7B68     		ldr	r3, [r7, #4]
 1705 000e 1B68     		ldr	r3, [r3]
 1706              		.loc 6 44 88
 1707 0010 97ED000A 		vldr.32	s0, [r7]
 1708 0014 1846     		mov	r0, r3
 1709 0016 FFF7FEFF 		bl	_ZN5Mixer13setTrack4GainEf
 1710              		.loc 6 44 93
 1711 001a 00BF     		nop
 1712 001c 0837     		adds	r7, r7, #8
 1713              		.cfi_def_cfa_offset 8
 1714 001e BD46     		mov	sp, r7
 1715              		.cfi_def_cfa_register 13
 1716              		@ sp needed
 1717 0020 80BD     		pop	{r7, pc}
 1718              		.cfi_endproc
 1719              	.LFE5673:
 1721              		.section	.text._ZZN5Mixer11initTrackIOEPN5daisy9DaisySeedE7TrackIOS3_S3_S3_ENKUlfE3_clEf,"ax",%pro
 1722              		.align	1
 1723              		.syntax unified
 1724              		.thumb
 1725              		.thumb_func
 1727              	_ZZN5Mixer11initTrackIOEPN5daisy9DaisySeedE7TrackIOS3_S3_S3_ENKUlfE3_clEf:
 1728              	.LFB5674:
  45:DSP/Mixer.cpp **** 
  46:DSP/Mixer.cpp ****     track1.pan.param.init(seed, 0, 1, LINEAR, ChannelIDs::ENCODER, [this] (float p) { setTrack1Pan(
 1729              		.loc 6 46 68
 1730              		.cfi_startproc
 1731              		@ args = 0, pretend = 0, frame = 8
 1732              		@ frame_needed = 1, uses_anonymous_args = 0
 1733 0000 80B5     		push	{r7, lr}
 1734              		.cfi_def_cfa_offset 8
 1735              		.cfi_offset 7, -8
 1736              		.cfi_offset 14, -4
 1737 0002 82B0     		sub	sp, sp, #8
 1738              		.cfi_def_cfa_offset 16
 1739 0004 00AF     		add	r7, sp, #0
 1740              		.cfi_def_cfa_register 7
 1741 0006 7860     		str	r0, [r7, #4]
 1742 0008 87ED000A 		vstr.32	s0, [r7]
 1743              		.loc 6 46 83
 1744 000c 7B68     		ldr	r3, [r7, #4]
 1745 000e 1B68     		ldr	r3, [r3]
 1746              		.loc 6 46 99
 1747 0010 97ED000A 		vldr.32	s0, [r7]
 1748 0014 1846     		mov	r0, r3
 1749 0016 FFF7FEFF 		bl	_ZN5Mixer12setTrack1PanEf
 1750              		.loc 6 46 104
 1751 001a 00BF     		nop
 1752 001c 0837     		adds	r7, r7, #8
 1753              		.cfi_def_cfa_offset 8
 1754 001e BD46     		mov	sp, r7
 1755              		.cfi_def_cfa_register 13
ARM GAS  /var/folders/wz/z09yph4n0qj4t7mjxhl6ttn80000gn/T//ccxdcdyF.s 			page 44


 1756              		@ sp needed
 1757 0020 80BD     		pop	{r7, pc}
 1758              		.cfi_endproc
 1759              	.LFE5674:
 1761              		.section	.text._ZZN5Mixer11initTrackIOEPN5daisy9DaisySeedE7TrackIOS3_S3_S3_ENKUlfE4_clEf,"ax",%pro
 1762              		.align	1
 1763              		.syntax unified
 1764              		.thumb
 1765              		.thumb_func
 1767              	_ZZN5Mixer11initTrackIOEPN5daisy9DaisySeedE7TrackIOS3_S3_S3_ENKUlfE4_clEf:
 1768              	.LFB5675:
  47:DSP/Mixer.cpp ****     track2.pan.param.init(seed, 0, 1, LINEAR, ChannelIDs::ENCODER, [this] (float p) { setTrack2Pan(
 1769              		.loc 6 47 68
 1770              		.cfi_startproc
 1771              		@ args = 0, pretend = 0, frame = 8
 1772              		@ frame_needed = 1, uses_anonymous_args = 0
 1773 0000 80B5     		push	{r7, lr}
 1774              		.cfi_def_cfa_offset 8
 1775              		.cfi_offset 7, -8
 1776              		.cfi_offset 14, -4
 1777 0002 82B0     		sub	sp, sp, #8
 1778              		.cfi_def_cfa_offset 16
 1779 0004 00AF     		add	r7, sp, #0
 1780              		.cfi_def_cfa_register 7
 1781 0006 7860     		str	r0, [r7, #4]
 1782 0008 87ED000A 		vstr.32	s0, [r7]
 1783              		.loc 6 47 83
 1784 000c 7B68     		ldr	r3, [r7, #4]
 1785 000e 1B68     		ldr	r3, [r3]
 1786              		.loc 6 47 99
 1787 0010 97ED000A 		vldr.32	s0, [r7]
 1788 0014 1846     		mov	r0, r3
 1789 0016 FFF7FEFF 		bl	_ZN5Mixer12setTrack2PanEf
 1790              		.loc 6 47 104
 1791 001a 00BF     		nop
 1792 001c 0837     		adds	r7, r7, #8
 1793              		.cfi_def_cfa_offset 8
 1794 001e BD46     		mov	sp, r7
 1795              		.cfi_def_cfa_register 13
 1796              		@ sp needed
 1797 0020 80BD     		pop	{r7, pc}
 1798              		.cfi_endproc
 1799              	.LFE5675:
 1801              		.section	.text._ZZN5Mixer11initTrackIOEPN5daisy9DaisySeedE7TrackIOS3_S3_S3_ENKUlfE5_clEf,"ax",%pro
 1802              		.align	1
 1803              		.syntax unified
 1804              		.thumb
 1805              		.thumb_func
 1807              	_ZZN5Mixer11initTrackIOEPN5daisy9DaisySeedE7TrackIOS3_S3_S3_ENKUlfE5_clEf:
 1808              	.LFB5676:
  48:DSP/Mixer.cpp ****     track3.pan.param.init(seed, 0, 1, LINEAR, ChannelIDs::ENCODER, [this] (float p) { setTrack3Pan(
 1809              		.loc 6 48 68
 1810              		.cfi_startproc
 1811              		@ args = 0, pretend = 0, frame = 8
 1812              		@ frame_needed = 1, uses_anonymous_args = 0
 1813 0000 80B5     		push	{r7, lr}
 1814              		.cfi_def_cfa_offset 8
ARM GAS  /var/folders/wz/z09yph4n0qj4t7mjxhl6ttn80000gn/T//ccxdcdyF.s 			page 45


 1815              		.cfi_offset 7, -8
 1816              		.cfi_offset 14, -4
 1817 0002 82B0     		sub	sp, sp, #8
 1818              		.cfi_def_cfa_offset 16
 1819 0004 00AF     		add	r7, sp, #0
 1820              		.cfi_def_cfa_register 7
 1821 0006 7860     		str	r0, [r7, #4]
 1822 0008 87ED000A 		vstr.32	s0, [r7]
 1823              		.loc 6 48 83
 1824 000c 7B68     		ldr	r3, [r7, #4]
 1825 000e 1B68     		ldr	r3, [r3]
 1826              		.loc 6 48 99
 1827 0010 97ED000A 		vldr.32	s0, [r7]
 1828 0014 1846     		mov	r0, r3
 1829 0016 FFF7FEFF 		bl	_ZN5Mixer12setTrack3PanEf
 1830              		.loc 6 48 104
 1831 001a 00BF     		nop
 1832 001c 0837     		adds	r7, r7, #8
 1833              		.cfi_def_cfa_offset 8
 1834 001e BD46     		mov	sp, r7
 1835              		.cfi_def_cfa_register 13
 1836              		@ sp needed
 1837 0020 80BD     		pop	{r7, pc}
 1838              		.cfi_endproc
 1839              	.LFE5676:
 1841              		.section	.text._ZZN5Mixer11initTrackIOEPN5daisy9DaisySeedE7TrackIOS3_S3_S3_ENKUlfE6_clEf,"ax",%pro
 1842              		.align	1
 1843              		.syntax unified
 1844              		.thumb
 1845              		.thumb_func
 1847              	_ZZN5Mixer11initTrackIOEPN5daisy9DaisySeedE7TrackIOS3_S3_S3_ENKUlfE6_clEf:
 1848              	.LFB5677:
  49:DSP/Mixer.cpp ****     track4.pan.param.init(seed, 0, 1, LINEAR, ChannelIDs::ENCODER, [this] (float p) { setTrack4Pan(
 1849              		.loc 6 49 68
 1850              		.cfi_startproc
 1851              		@ args = 0, pretend = 0, frame = 8
 1852              		@ frame_needed = 1, uses_anonymous_args = 0
 1853 0000 80B5     		push	{r7, lr}
 1854              		.cfi_def_cfa_offset 8
 1855              		.cfi_offset 7, -8
 1856              		.cfi_offset 14, -4
 1857 0002 82B0     		sub	sp, sp, #8
 1858              		.cfi_def_cfa_offset 16
 1859 0004 00AF     		add	r7, sp, #0
 1860              		.cfi_def_cfa_register 7
 1861 0006 7860     		str	r0, [r7, #4]
 1862 0008 87ED000A 		vstr.32	s0, [r7]
 1863              		.loc 6 49 83
 1864 000c 7B68     		ldr	r3, [r7, #4]
 1865 000e 1B68     		ldr	r3, [r3]
 1866              		.loc 6 49 99
 1867 0010 97ED000A 		vldr.32	s0, [r7]
 1868 0014 1846     		mov	r0, r3
 1869 0016 FFF7FEFF 		bl	_ZN5Mixer12setTrack4PanEf
 1870              		.loc 6 49 104
 1871 001a 00BF     		nop
 1872 001c 0837     		adds	r7, r7, #8
ARM GAS  /var/folders/wz/z09yph4n0qj4t7mjxhl6ttn80000gn/T//ccxdcdyF.s 			page 46


 1873              		.cfi_def_cfa_offset 8
 1874 001e BD46     		mov	sp, r7
 1875              		.cfi_def_cfa_register 13
 1876              		@ sp needed
 1877 0020 80BD     		pop	{r7, pc}
 1878              		.cfi_endproc
 1879              	.LFE5677:
 1881              		.section	.text._ZN5Mixer11initTrackIOEPN5daisy9DaisySeedE7TrackIOS3_S3_S3_,"ax",%progbits
 1882              		.align	1
 1883              		.global	_ZN5Mixer11initTrackIOEPN5daisy9DaisySeedE7TrackIOS3_S3_S3_
 1884              		.syntax unified
 1885              		.thumb
 1886              		.thumb_func
 1888              	_ZN5Mixer11initTrackIOEPN5daisy9DaisySeedE7TrackIOS3_S3_S3_:
 1889              	.LFB5669:
  40:DSP/Mixer.cpp ****     track1.gain.param.init(seed, 0, 1, LINEAR, t1.amp, [this] (float g) { setTrack1Gain(g); });
 1890              		.loc 6 40 1
 1891              		.cfi_startproc
 1892              		@ args = 24, pretend = 0, frame = 144
 1893              		@ frame_needed = 1, uses_anonymous_args = 0
 1894 0000 B0B5     		push	{r4, r5, r7, lr}
 1895              		.cfi_def_cfa_offset 16
 1896              		.cfi_offset 4, -16
 1897              		.cfi_offset 5, -12
 1898              		.cfi_offset 7, -8
 1899              		.cfi_offset 14, -4
 1900 0002 A6B0     		sub	sp, sp, #152
 1901              		.cfi_def_cfa_offset 168
 1902 0004 02AF     		add	r7, sp, #8
 1903              		.cfi_def_cfa 7, 160
 1904 0006 F860     		str	r0, [r7, #12]
 1905 0008 B960     		str	r1, [r7, #8]
 1906 000a 3946     		mov	r1, r7
 1907 000c 81E80C00 		stm	r1, {r2, r3}
  41:DSP/Mixer.cpp ****     track2.gain.param.init(seed, 0, 1, LINEAR, t2.amp, [this] (float g) { setTrack2Gain(g); });
 1908              		.loc 6 41 27
 1909 0010 FB68     		ldr	r3, [r7, #12]
 1910 0012 03F50274 		add	r4, r3, #520
  41:DSP/Mixer.cpp ****     track2.gain.param.init(seed, 0, 1, LINEAR, t2.amp, [this] (float g) { setTrack2Gain(g); });
 1911              		.loc 6 41 51
 1912 0016 3D78     		ldrb	r5, [r7]	@ zero_extendqisi2
  41:DSP/Mixer.cpp ****     track2.gain.param.init(seed, 0, 1, LINEAR, t2.amp, [this] (float g) { setTrack2Gain(g); });
 1913              		.loc 6 41 27
 1914 0018 FA68     		ldr	r2, [r7, #12]
 1915 001a 07F11003 		add	r3, r7, #16
 1916 001e 1146     		mov	r1, r2
 1917 0020 1846     		mov	r0, r3
 1918 0022 FFF7FEFF 		bl	_ZNSt8functionIFvfEEC1IZN5Mixer11initTrackIOEPN5daisy9DaisySeedE7TrackIOS7_S7_S7_EUlfE_vvEET_
 1919 0026 07F11003 		add	r3, r7, #16
 1920 002a 0093     		str	r3, [sp]
 1921 002c 2B46     		mov	r3, r5
 1922 002e 0022     		movs	r2, #0
 1923 0030 F7EE000A 		vmov.f32	s1, #1.0e+0
 1924 0034 9FED800A 		vldr.32	s0, .L58
 1925 0038 B968     		ldr	r1, [r7, #8]
 1926 003a 2046     		mov	r0, r4
 1927 003c FFF7FEFF 		bl	_ZN14AudioParameterIfE4initEPN5daisy9DaisySeedEff9CurveTypehSt8functionIFvfEE
ARM GAS  /var/folders/wz/z09yph4n0qj4t7mjxhl6ttn80000gn/T//ccxdcdyF.s 			page 47


 1928 0040 07F11003 		add	r3, r7, #16
 1929 0044 1846     		mov	r0, r3
 1930 0046 FFF7FEFF 		bl	_ZNSt8functionIFvfEED1Ev
  42:DSP/Mixer.cpp ****     track3.gain.param.init(seed, 0, 1, LINEAR, t3.amp, [this] (float g) { setTrack3Gain(g); });
 1931              		.loc 6 42 27
 1932 004a FB68     		ldr	r3, [r7, #12]
 1933 004c 03F58864 		add	r4, r3, #1088
  42:DSP/Mixer.cpp ****     track3.gain.param.init(seed, 0, 1, LINEAR, t3.amp, [this] (float g) { setTrack3Gain(g); });
 1934              		.loc 6 42 51
 1935 0050 97F8A050 		ldrb	r5, [r7, #160]	@ zero_extendqisi2
  42:DSP/Mixer.cpp ****     track3.gain.param.init(seed, 0, 1, LINEAR, t3.amp, [this] (float g) { setTrack3Gain(g); });
 1936              		.loc 6 42 27
 1937 0054 FA68     		ldr	r2, [r7, #12]
 1938 0056 07F12003 		add	r3, r7, #32
 1939 005a 1146     		mov	r1, r2
 1940 005c 1846     		mov	r0, r3
 1941 005e FFF7FEFF 		bl	_ZNSt8functionIFvfEEC1IZN5Mixer11initTrackIOEPN5daisy9DaisySeedE7TrackIOS7_S7_S7_EUlfE0_vvEET_
 1942 0062 07F12003 		add	r3, r7, #32
 1943 0066 0093     		str	r3, [sp]
 1944 0068 2B46     		mov	r3, r5
 1945 006a 0022     		movs	r2, #0
 1946 006c F7EE000A 		vmov.f32	s1, #1.0e+0
 1947 0070 9FED710A 		vldr.32	s0, .L58
 1948 0074 B968     		ldr	r1, [r7, #8]
 1949 0076 2046     		mov	r0, r4
 1950 0078 FFF7FEFF 		bl	_ZN14AudioParameterIfE4initEPN5daisy9DaisySeedEff9CurveTypehSt8functionIFvfEE
 1951 007c 07F12003 		add	r3, r7, #32
 1952 0080 1846     		mov	r0, r3
 1953 0082 FFF7FEFF 		bl	_ZNSt8functionIFvfEED1Ev
  43:DSP/Mixer.cpp ****     track4.gain.param.init(seed, 0, 1, LINEAR, t4.amp, [this] (float g) { setTrack4Gain(g); });
 1954              		.loc 6 43 27
 1955 0086 FB68     		ldr	r3, [r7, #12]
 1956 0088 03F5CF64 		add	r4, r3, #1656
  43:DSP/Mixer.cpp ****     track4.gain.param.init(seed, 0, 1, LINEAR, t4.amp, [this] (float g) { setTrack4Gain(g); });
 1957              		.loc 6 43 51
 1958 008c 97F8A850 		ldrb	r5, [r7, #168]	@ zero_extendqisi2
  43:DSP/Mixer.cpp ****     track4.gain.param.init(seed, 0, 1, LINEAR, t4.amp, [this] (float g) { setTrack4Gain(g); });
 1959              		.loc 6 43 27
 1960 0090 FA68     		ldr	r2, [r7, #12]
 1961 0092 07F13003 		add	r3, r7, #48
 1962 0096 1146     		mov	r1, r2
 1963 0098 1846     		mov	r0, r3
 1964 009a FFF7FEFF 		bl	_ZNSt8functionIFvfEEC1IZN5Mixer11initTrackIOEPN5daisy9DaisySeedE7TrackIOS7_S7_S7_EUlfE1_vvEET_
 1965 009e 07F13003 		add	r3, r7, #48
 1966 00a2 0093     		str	r3, [sp]
 1967 00a4 2B46     		mov	r3, r5
 1968 00a6 0022     		movs	r2, #0
 1969 00a8 F7EE000A 		vmov.f32	s1, #1.0e+0
 1970 00ac 9FED620A 		vldr.32	s0, .L58
 1971 00b0 B968     		ldr	r1, [r7, #8]
 1972 00b2 2046     		mov	r0, r4
 1973 00b4 FFF7FEFF 		bl	_ZN14AudioParameterIfE4initEPN5daisy9DaisySeedEff9CurveTypehSt8functionIFvfEE
 1974 00b8 07F13003 		add	r3, r7, #48
 1975 00bc 1846     		mov	r0, r3
 1976 00be FFF7FEFF 		bl	_ZNSt8functionIFvfEED1Ev
  44:DSP/Mixer.cpp **** 
 1977              		.loc 6 44 27
ARM GAS  /var/folders/wz/z09yph4n0qj4t7mjxhl6ttn80000gn/T//ccxdcdyF.s 			page 48


 1978 00c2 FB68     		ldr	r3, [r7, #12]
 1979 00c4 03F50B64 		add	r4, r3, #2224
  44:DSP/Mixer.cpp **** 
 1980              		.loc 6 44 51
 1981 00c8 97F8B050 		ldrb	r5, [r7, #176]	@ zero_extendqisi2
  44:DSP/Mixer.cpp **** 
 1982              		.loc 6 44 27
 1983 00cc FA68     		ldr	r2, [r7, #12]
 1984 00ce 07F14003 		add	r3, r7, #64
 1985 00d2 1146     		mov	r1, r2
 1986 00d4 1846     		mov	r0, r3
 1987 00d6 FFF7FEFF 		bl	_ZNSt8functionIFvfEEC1IZN5Mixer11initTrackIOEPN5daisy9DaisySeedE7TrackIOS7_S7_S7_EUlfE2_vvEET_
 1988 00da 07F14003 		add	r3, r7, #64
 1989 00de 0093     		str	r3, [sp]
 1990 00e0 2B46     		mov	r3, r5
 1991 00e2 0022     		movs	r2, #0
 1992 00e4 F7EE000A 		vmov.f32	s1, #1.0e+0
 1993 00e8 9FED530A 		vldr.32	s0, .L58
 1994 00ec B968     		ldr	r1, [r7, #8]
 1995 00ee 2046     		mov	r0, r4
 1996 00f0 FFF7FEFF 		bl	_ZN14AudioParameterIfE4initEPN5daisy9DaisySeedEff9CurveTypehSt8functionIFvfEE
 1997 00f4 07F14003 		add	r3, r7, #64
 1998 00f8 1846     		mov	r0, r3
 1999 00fa FFF7FEFF 		bl	_ZNSt8functionIFvfEED1Ev
  46:DSP/Mixer.cpp ****     track2.pan.param.init(seed, 0, 1, LINEAR, ChannelIDs::ENCODER, [this] (float p) { setTrack2Pan(
 2000              		.loc 6 46 26
 2001 00fe FB68     		ldr	r3, [r7, #12]
 2002 0100 03F5EC74 		add	r4, r3, #472
 2003 0104 FA68     		ldr	r2, [r7, #12]
 2004 0106 07F15003 		add	r3, r7, #80
 2005 010a 1146     		mov	r1, r2
 2006 010c 1846     		mov	r0, r3
 2007 010e FFF7FEFF 		bl	_ZNSt8functionIFvfEEC1IZN5Mixer11initTrackIOEPN5daisy9DaisySeedE7TrackIOS7_S7_S7_EUlfE3_vvEET_
 2008 0112 07F15003 		add	r3, r7, #80
 2009 0116 0093     		str	r3, [sp]
 2010 0118 0523     		movs	r3, #5
 2011 011a 0022     		movs	r2, #0
 2012 011c F7EE000A 		vmov.f32	s1, #1.0e+0
 2013 0120 9FED450A 		vldr.32	s0, .L58
 2014 0124 B968     		ldr	r1, [r7, #8]
 2015 0126 2046     		mov	r0, r4
 2016 0128 FFF7FEFF 		bl	_ZN14AudioParameterIfE4initEPN5daisy9DaisySeedEff9CurveTypehSt8functionIFvfEE
 2017 012c 07F15003 		add	r3, r7, #80
 2018 0130 1846     		mov	r0, r3
 2019 0132 FFF7FEFF 		bl	_ZNSt8functionIFvfEED1Ev
  47:DSP/Mixer.cpp ****     track3.pan.param.init(seed, 0, 1, LINEAR, ChannelIDs::ENCODER, [this] (float p) { setTrack3Pan(
 2020              		.loc 6 47 26
 2021 0136 FB68     		ldr	r3, [r7, #12]
 2022 0138 03F58264 		add	r4, r3, #1040
 2023 013c FA68     		ldr	r2, [r7, #12]
 2024 013e 07F16003 		add	r3, r7, #96
 2025 0142 1146     		mov	r1, r2
 2026 0144 1846     		mov	r0, r3
 2027 0146 FFF7FEFF 		bl	_ZNSt8functionIFvfEEC1IZN5Mixer11initTrackIOEPN5daisy9DaisySeedE7TrackIOS7_S7_S7_EUlfE4_vvEET_
 2028 014a 07F16003 		add	r3, r7, #96
 2029 014e 0093     		str	r3, [sp]
 2030 0150 0523     		movs	r3, #5
ARM GAS  /var/folders/wz/z09yph4n0qj4t7mjxhl6ttn80000gn/T//ccxdcdyF.s 			page 49


 2031 0152 0022     		movs	r2, #0
 2032 0154 F7EE000A 		vmov.f32	s1, #1.0e+0
 2033 0158 9FED370A 		vldr.32	s0, .L58
 2034 015c B968     		ldr	r1, [r7, #8]
 2035 015e 2046     		mov	r0, r4
 2036 0160 FFF7FEFF 		bl	_ZN14AudioParameterIfE4initEPN5daisy9DaisySeedEff9CurveTypehSt8functionIFvfEE
 2037 0164 07F16003 		add	r3, r7, #96
 2038 0168 1846     		mov	r0, r3
 2039 016a FFF7FEFF 		bl	_ZNSt8functionIFvfEED1Ev
  48:DSP/Mixer.cpp ****     track4.pan.param.init(seed, 0, 1, LINEAR, ChannelIDs::ENCODER, [this] (float p) { setTrack4Pan(
 2040              		.loc 6 48 26
 2041 016e FB68     		ldr	r3, [r7, #12]
 2042 0170 03F5C964 		add	r4, r3, #1608
 2043 0174 FA68     		ldr	r2, [r7, #12]
 2044 0176 07F17003 		add	r3, r7, #112
 2045 017a 1146     		mov	r1, r2
 2046 017c 1846     		mov	r0, r3
 2047 017e FFF7FEFF 		bl	_ZNSt8functionIFvfEEC1IZN5Mixer11initTrackIOEPN5daisy9DaisySeedE7TrackIOS7_S7_S7_EUlfE5_vvEET_
 2048 0182 07F17003 		add	r3, r7, #112
 2049 0186 0093     		str	r3, [sp]
 2050 0188 0523     		movs	r3, #5
 2051 018a 0022     		movs	r2, #0
 2052 018c F7EE000A 		vmov.f32	s1, #1.0e+0
 2053 0190 9FED290A 		vldr.32	s0, .L58
 2054 0194 B968     		ldr	r1, [r7, #8]
 2055 0196 2046     		mov	r0, r4
 2056 0198 FFF7FEFF 		bl	_ZN14AudioParameterIfE4initEPN5daisy9DaisySeedEff9CurveTypehSt8functionIFvfEE
 2057 019c 07F17003 		add	r3, r7, #112
 2058 01a0 1846     		mov	r0, r3
 2059 01a2 FFF7FEFF 		bl	_ZNSt8functionIFvfEED1Ev
 2060              		.loc 6 49 26
 2061 01a6 FB68     		ldr	r3, [r7, #12]
 2062 01a8 03F50864 		add	r4, r3, #2176
 2063 01ac FA68     		ldr	r2, [r7, #12]
 2064 01ae 07F18003 		add	r3, r7, #128
 2065 01b2 1146     		mov	r1, r2
 2066 01b4 1846     		mov	r0, r3
 2067 01b6 FFF7FEFF 		bl	_ZNSt8functionIFvfEEC1IZN5Mixer11initTrackIOEPN5daisy9DaisySeedE7TrackIOS7_S7_S7_EUlfE6_vvEET_
 2068 01ba 07F18003 		add	r3, r7, #128
 2069 01be 0093     		str	r3, [sp]
 2070 01c0 0523     		movs	r3, #5
 2071 01c2 0022     		movs	r2, #0
 2072 01c4 F7EE000A 		vmov.f32	s1, #1.0e+0
 2073 01c8 9FED1B0A 		vldr.32	s0, .L58
 2074 01cc B968     		ldr	r1, [r7, #8]
 2075 01ce 2046     		mov	r0, r4
 2076 01d0 FFF7FEFF 		bl	_ZN14AudioParameterIfE4initEPN5daisy9DaisySeedEff9CurveTypehSt8functionIFvfEE
 2077 01d4 07F18003 		add	r3, r7, #128
 2078 01d8 1846     		mov	r0, r3
 2079 01da FFF7FEFF 		bl	_ZNSt8functionIFvfEED1Ev
  50:DSP/Mixer.cpp **** 
  51:DSP/Mixer.cpp ****     track1.track.initIO(t1);
 2080              		.loc 6 51 24
 2081 01de F868     		ldr	r0, [r7, #12]
 2082 01e0 3B46     		mov	r3, r7
 2083 01e2 93E80600 		ldm	r3, {r1, r2}
 2084 01e6 FFF7FEFF 		bl	_ZN5Track6initIOE7TrackIO
ARM GAS  /var/folders/wz/z09yph4n0qj4t7mjxhl6ttn80000gn/T//ccxdcdyF.s 			page 50


  52:DSP/Mixer.cpp ****     track2.track.initIO(t2);
 2085              		.loc 6 52 24
 2086 01ea FB68     		ldr	r3, [r7, #12]
 2087 01ec 03F50E73 		add	r3, r3, #568
 2088 01f0 07F1A002 		add	r2, r7, #160
 2089 01f4 06CA     		ldm	r2, {r1, r2}
 2090 01f6 1846     		mov	r0, r3
 2091 01f8 FFF7FEFF 		bl	_ZN5Track6initIOE7TrackIO
  53:DSP/Mixer.cpp ****     track3.track.initIO(t3);
 2092              		.loc 6 53 24
 2093 01fc FB68     		ldr	r3, [r7, #12]
 2094 01fe 03F58E60 		add	r0, r3, #1136
 2095 0202 07F1A803 		add	r3, r7, #168
 2096 0206 93E80600 		ldm	r3, {r1, r2}
 2097 020a FFF7FEFF 		bl	_ZN5Track6initIOE7TrackIO
  54:DSP/Mixer.cpp ****     track4.track.initIO(t4);
 2098              		.loc 6 54 24
 2099 020e FB68     		ldr	r3, [r7, #12]
 2100 0210 03F5D560 		add	r0, r3, #1704
 2101 0214 07F1B003 		add	r3, r7, #176
 2102 0218 93E80600 		ldm	r3, {r1, r2}
 2103 021c FFF7FEFF 		bl	_ZN5Track6initIOE7TrackIO
  55:DSP/Mixer.cpp **** 
  56:DSP/Mixer.cpp ****     track1.pan.param.setIsSelected(true);
 2104              		.loc 6 56 35
 2105 0220 FB68     		ldr	r3, [r7, #12]
 2106 0222 03F5EC73 		add	r3, r3, #472
 2107 0226 0121     		movs	r1, #1
 2108 0228 1846     		mov	r0, r3
 2109 022a FFF7FEFF 		bl	_ZN14AudioParameterIfE13setIsSelectedEb
  57:DSP/Mixer.cpp **** }
 2110              		.loc 6 57 1
 2111 022e 00BF     		nop
 2112 0230 9037     		adds	r7, r7, #144
 2113              		.cfi_def_cfa_offset 16
 2114 0232 BD46     		mov	sp, r7
 2115              		.cfi_def_cfa_register 13
 2116              		@ sp needed
 2117 0234 B0BD     		pop	{r4, r5, r7, pc}
 2118              	.L59:
 2119 0236 00BF     		.align	2
 2120              	.L58:
 2121 0238 00000000 		.word	0
 2122              		.cfi_endproc
 2123              	.LFE5669:
 2125              		.section	.text._ZN5Mixer4tickEv,"ax",%progbits
 2126              		.align	1
 2127              		.global	_ZN5Mixer4tickEv
 2128              		.syntax unified
 2129              		.thumb
 2130              		.thumb_func
 2132              	_ZN5Mixer4tickEv:
 2133              	.LFB5678:
  58:DSP/Mixer.cpp **** 
  59:DSP/Mixer.cpp **** void Mixer::tick()
  60:DSP/Mixer.cpp **** {
 2134              		.loc 6 60 1
ARM GAS  /var/folders/wz/z09yph4n0qj4t7mjxhl6ttn80000gn/T//ccxdcdyF.s 			page 51


 2135              		.cfi_startproc
 2136              		@ args = 0, pretend = 0, frame = 8
 2137              		@ frame_needed = 1, uses_anonymous_args = 0
 2138 0000 80B5     		push	{r7, lr}
 2139              		.cfi_def_cfa_offset 8
 2140              		.cfi_offset 7, -8
 2141              		.cfi_offset 14, -4
 2142 0002 82B0     		sub	sp, sp, #8
 2143              		.cfi_def_cfa_offset 16
 2144 0004 00AF     		add	r7, sp, #0
 2145              		.cfi_def_cfa_register 7
 2146 0006 7860     		str	r0, [r7, #4]
  61:DSP/Mixer.cpp ****     track1.track.tick();
 2147              		.loc 6 61 22
 2148 0008 7B68     		ldr	r3, [r7, #4]
 2149 000a 1846     		mov	r0, r3
 2150 000c FFF7FEFF 		bl	_ZN5Track4tickEv
  62:DSP/Mixer.cpp ****     track1.gain.param.tick();
 2151              		.loc 6 62 27
 2152 0010 7B68     		ldr	r3, [r7, #4]
 2153 0012 03F50273 		add	r3, r3, #520
 2154 0016 1846     		mov	r0, r3
 2155 0018 FFF7FEFF 		bl	_ZN14AudioParameterIfE4tickEv
  63:DSP/Mixer.cpp ****     track1.pan.param.tick();
 2156              		.loc 6 63 26
 2157 001c 7B68     		ldr	r3, [r7, #4]
 2158 001e 03F5EC73 		add	r3, r3, #472
 2159 0022 1846     		mov	r0, r3
 2160 0024 FFF7FEFF 		bl	_ZN14AudioParameterIfE4tickEv
  64:DSP/Mixer.cpp **** 
  65:DSP/Mixer.cpp ****     track2.track.tick();
 2161              		.loc 6 65 22
 2162 0028 7B68     		ldr	r3, [r7, #4]
 2163 002a 03F50E73 		add	r3, r3, #568
 2164 002e 1846     		mov	r0, r3
 2165 0030 FFF7FEFF 		bl	_ZN5Track4tickEv
  66:DSP/Mixer.cpp ****     track2.gain.param.tick();
 2166              		.loc 6 66 27
 2167 0034 7B68     		ldr	r3, [r7, #4]
 2168 0036 03F58863 		add	r3, r3, #1088
 2169 003a 1846     		mov	r0, r3
 2170 003c FFF7FEFF 		bl	_ZN14AudioParameterIfE4tickEv
  67:DSP/Mixer.cpp ****     track2.pan.param.tick();
 2171              		.loc 6 67 26
 2172 0040 7B68     		ldr	r3, [r7, #4]
 2173 0042 03F58263 		add	r3, r3, #1040
 2174 0046 1846     		mov	r0, r3
 2175 0048 FFF7FEFF 		bl	_ZN14AudioParameterIfE4tickEv
  68:DSP/Mixer.cpp **** 
  69:DSP/Mixer.cpp ****     track3.track.tick();
 2176              		.loc 6 69 22
 2177 004c 7B68     		ldr	r3, [r7, #4]
 2178 004e 03F58E63 		add	r3, r3, #1136
 2179 0052 1846     		mov	r0, r3
 2180 0054 FFF7FEFF 		bl	_ZN5Track4tickEv
  70:DSP/Mixer.cpp ****     track3.gain.param.tick();
 2181              		.loc 6 70 27
ARM GAS  /var/folders/wz/z09yph4n0qj4t7mjxhl6ttn80000gn/T//ccxdcdyF.s 			page 52


 2182 0058 7B68     		ldr	r3, [r7, #4]
 2183 005a 03F5CF63 		add	r3, r3, #1656
 2184 005e 1846     		mov	r0, r3
 2185 0060 FFF7FEFF 		bl	_ZN14AudioParameterIfE4tickEv
  71:DSP/Mixer.cpp ****     track3.pan.param.tick();
 2186              		.loc 6 71 26
 2187 0064 7B68     		ldr	r3, [r7, #4]
 2188 0066 03F5C963 		add	r3, r3, #1608
 2189 006a 1846     		mov	r0, r3
 2190 006c FFF7FEFF 		bl	_ZN14AudioParameterIfE4tickEv
  72:DSP/Mixer.cpp **** 
  73:DSP/Mixer.cpp ****     track4.track.tick();
 2191              		.loc 6 73 22
 2192 0070 7B68     		ldr	r3, [r7, #4]
 2193 0072 03F5D563 		add	r3, r3, #1704
 2194 0076 1846     		mov	r0, r3
 2195 0078 FFF7FEFF 		bl	_ZN5Track4tickEv
  74:DSP/Mixer.cpp ****     track4.gain.param.tick();
 2196              		.loc 6 74 27
 2197 007c 7B68     		ldr	r3, [r7, #4]
 2198 007e 03F50B63 		add	r3, r3, #2224
 2199 0082 1846     		mov	r0, r3
 2200 0084 FFF7FEFF 		bl	_ZN14AudioParameterIfE4tickEv
  75:DSP/Mixer.cpp ****     track4.pan.param.tick();
 2201              		.loc 6 75 26
 2202 0088 7B68     		ldr	r3, [r7, #4]
 2203 008a 03F50863 		add	r3, r3, #2176
 2204 008e 1846     		mov	r0, r3
 2205 0090 FFF7FEFF 		bl	_ZN14AudioParameterIfE4tickEv
  76:DSP/Mixer.cpp **** 
  77:DSP/Mixer.cpp ****     master.param.tick();
 2206              		.loc 6 77 22
 2207 0094 7B68     		ldr	r3, [r7, #4]
 2208 0096 03F6E403 		addw	r3, r3, #2276
 2209 009a 1846     		mov	r0, r3
 2210 009c FFF7FEFF 		bl	_ZN14AudioParameterIfE4tickEv
  78:DSP/Mixer.cpp **** }
 2211              		.loc 6 78 1
 2212 00a0 00BF     		nop
 2213 00a2 0837     		adds	r7, r7, #8
 2214              		.cfi_def_cfa_offset 8
 2215 00a4 BD46     		mov	sp, r7
 2216              		.cfi_def_cfa_register 13
 2217              		@ sp needed
 2218 00a6 80BD     		pop	{r7, pc}
 2219              		.cfi_endproc
 2220              	.LFE5678:
 2222              		.section	.text._ZN5Mixer7prepareEv,"ax",%progbits
 2223              		.align	1
 2224              		.global	_ZN5Mixer7prepareEv
 2225              		.syntax unified
 2226              		.thumb
 2227              		.thumb_func
 2229              	_ZN5Mixer7prepareEv:
 2230              	.LFB5679:
  79:DSP/Mixer.cpp **** 
  80:DSP/Mixer.cpp **** void Mixer::prepare()
ARM GAS  /var/folders/wz/z09yph4n0qj4t7mjxhl6ttn80000gn/T//ccxdcdyF.s 			page 53


  81:DSP/Mixer.cpp **** {
 2231              		.loc 6 81 1
 2232              		.cfi_startproc
 2233              		@ args = 0, pretend = 0, frame = 8
 2234              		@ frame_needed = 1, uses_anonymous_args = 0
 2235              		@ link register save eliminated.
 2236 0000 80B4     		push	{r7}
 2237              		.cfi_def_cfa_offset 4
 2238              		.cfi_offset 7, -4
 2239 0002 83B0     		sub	sp, sp, #12
 2240              		.cfi_def_cfa_offset 16
 2241 0004 00AF     		add	r7, sp, #0
 2242              		.cfi_def_cfa_register 7
 2243 0006 7860     		str	r0, [r7, #4]
  82:DSP/Mixer.cpp **** 
  83:DSP/Mixer.cpp **** }
 2244              		.loc 6 83 1
 2245 0008 00BF     		nop
 2246 000a 0C37     		adds	r7, r7, #12
 2247              		.cfi_def_cfa_offset 4
 2248 000c BD46     		mov	sp, r7
 2249              		.cfi_def_cfa_register 13
 2250              		@ sp needed
 2251 000e 5DF8047B 		ldr	r7, [sp], #4
 2252              		.cfi_restore 7
 2253              		.cfi_def_cfa_offset 0
 2254 0012 7047     		bx	lr
 2255              		.cfi_endproc
 2256              	.LFE5679:
 2258              		.section	.text._ZN5Mixer17processInputBlockEPKfS1_j,"ax",%progbits
 2259              		.align	1
 2260              		.global	_ZN5Mixer17processInputBlockEPKfS1_j
 2261              		.syntax unified
 2262              		.thumb
 2263              		.thumb_func
 2265              	_ZN5Mixer17processInputBlockEPKfS1_j:
 2266              	.LFB5680:
  84:DSP/Mixer.cpp **** 
  85:DSP/Mixer.cpp **** void Mixer::processInputBlock(const float* left, const float* right, size_t size)
  86:DSP/Mixer.cpp **** {
 2267              		.loc 6 86 1
 2268              		.cfi_startproc
 2269              		@ args = 0, pretend = 0, frame = 16
 2270              		@ frame_needed = 1, uses_anonymous_args = 0
 2271 0000 80B5     		push	{r7, lr}
 2272              		.cfi_def_cfa_offset 8
 2273              		.cfi_offset 7, -8
 2274              		.cfi_offset 14, -4
 2275 0002 84B0     		sub	sp, sp, #16
 2276              		.cfi_def_cfa_offset 24
 2277 0004 00AF     		add	r7, sp, #0
 2278              		.cfi_def_cfa_register 7
 2279 0006 F860     		str	r0, [r7, #12]
 2280 0008 B960     		str	r1, [r7, #8]
 2281 000a 7A60     		str	r2, [r7, #4]
 2282 000c 3B60     		str	r3, [r7]
  87:DSP/Mixer.cpp ****     track1.track.processInputBlock(left, right, size);
ARM GAS  /var/folders/wz/z09yph4n0qj4t7mjxhl6ttn80000gn/T//ccxdcdyF.s 			page 54


 2283              		.loc 6 87 35
 2284 000e F868     		ldr	r0, [r7, #12]
 2285 0010 3B68     		ldr	r3, [r7]
 2286 0012 7A68     		ldr	r2, [r7, #4]
 2287 0014 B968     		ldr	r1, [r7, #8]
 2288 0016 FFF7FEFF 		bl	_ZN5Track17processInputBlockEPKfS1_j
  88:DSP/Mixer.cpp ****     track2.track.processInputBlock(left, right, size);
 2289              		.loc 6 88 35
 2290 001a FB68     		ldr	r3, [r7, #12]
 2291 001c 03F50E70 		add	r0, r3, #568
 2292 0020 3B68     		ldr	r3, [r7]
 2293 0022 7A68     		ldr	r2, [r7, #4]
 2294 0024 B968     		ldr	r1, [r7, #8]
 2295 0026 FFF7FEFF 		bl	_ZN5Track17processInputBlockEPKfS1_j
  89:DSP/Mixer.cpp ****     track3.track.processInputBlock(left, right, size);
 2296              		.loc 6 89 35
 2297 002a FB68     		ldr	r3, [r7, #12]
 2298 002c 03F58E60 		add	r0, r3, #1136
 2299 0030 3B68     		ldr	r3, [r7]
 2300 0032 7A68     		ldr	r2, [r7, #4]
 2301 0034 B968     		ldr	r1, [r7, #8]
 2302 0036 FFF7FEFF 		bl	_ZN5Track17processInputBlockEPKfS1_j
  90:DSP/Mixer.cpp ****     track4.track.processInputBlock(left, right, size);
 2303              		.loc 6 90 35
 2304 003a FB68     		ldr	r3, [r7, #12]
 2305 003c 03F5D560 		add	r0, r3, #1704
 2306 0040 3B68     		ldr	r3, [r7]
 2307 0042 7A68     		ldr	r2, [r7, #4]
 2308 0044 B968     		ldr	r1, [r7, #8]
 2309 0046 FFF7FEFF 		bl	_ZN5Track17processInputBlockEPKfS1_j
  91:DSP/Mixer.cpp **** }
 2310              		.loc 6 91 1
 2311 004a 00BF     		nop
 2312 004c 1037     		adds	r7, r7, #16
 2313              		.cfi_def_cfa_offset 8
 2314 004e BD46     		mov	sp, r7
 2315              		.cfi_def_cfa_register 13
 2316              		@ sp needed
 2317 0050 80BD     		pop	{r7, pc}
 2318              		.cfi_endproc
 2319              	.LFE5680:
 2321              		.section	.text._ZN5Mixer11panChannelsEj,"ax",%progbits
 2322              		.align	1
 2323              		.global	_ZN5Mixer11panChannelsEj
 2324              		.syntax unified
 2325              		.thumb
 2326              		.thumb_func
 2328              	_ZN5Mixer11panChannelsEj:
 2329              	.LFB5681:
  92:DSP/Mixer.cpp **** 
  93:DSP/Mixer.cpp **** void Mixer::panChannels(size_t size)
  94:DSP/Mixer.cpp **** {
 2330              		.loc 6 94 1
 2331              		.cfi_startproc
 2332              		@ args = 0, pretend = 0, frame = 8
 2333              		@ frame_needed = 1, uses_anonymous_args = 0
 2334 0000 80B5     		push	{r7, lr}
ARM GAS  /var/folders/wz/z09yph4n0qj4t7mjxhl6ttn80000gn/T//ccxdcdyF.s 			page 55


 2335              		.cfi_def_cfa_offset 8
 2336              		.cfi_offset 7, -8
 2337              		.cfi_offset 14, -4
 2338 0002 82B0     		sub	sp, sp, #8
 2339              		.cfi_def_cfa_offset 16
 2340 0004 00AF     		add	r7, sp, #0
 2341              		.cfi_def_cfa_register 7
 2342 0006 7860     		str	r0, [r7, #4]
 2343 0008 3960     		str	r1, [r7]
  95:DSP/Mixer.cpp ****     panMixBuffer(track1.buffer, track1.pan.value, size);
 2344              		.loc 6 95 25
 2345 000a 7B68     		ldr	r3, [r7, #4]
 2346 000c 03F5E871 		add	r1, r3, #464
 2347              		.loc 6 95 17
 2348 0010 7B68     		ldr	r3, [r7, #4]
 2349 0012 D3ED817A 		vldr.32	s15, [r3, #516]
 2350 0016 3A68     		ldr	r2, [r7]
 2351 0018 B0EE670A 		vmov.f32	s0, s15
 2352 001c 7868     		ldr	r0, [r7, #4]
 2353 001e FFF7FEFF 		bl	_ZN5Mixer12panMixBufferEPPffj
  96:DSP/Mixer.cpp ****     panMixBuffer(track2.buffer, track2.pan.value, size);
 2354              		.loc 6 96 25
 2355 0022 7B68     		ldr	r3, [r7, #4]
 2356 0024 03F58161 		add	r1, r3, #1032
 2357              		.loc 6 96 17
 2358 0028 7B68     		ldr	r3, [r7, #4]
 2359 002a 03F23C43 		addw	r3, r3, #1084
 2360 002e D3ED007A 		vldr.32	s15, [r3]
 2361 0032 3A68     		ldr	r2, [r7]
 2362 0034 B0EE670A 		vmov.f32	s0, s15
 2363 0038 7868     		ldr	r0, [r7, #4]
 2364 003a FFF7FEFF 		bl	_ZN5Mixer12panMixBufferEPPffj
  97:DSP/Mixer.cpp ****     panMixBuffer(track3.buffer, track3.pan.value, size);
 2365              		.loc 6 97 25
 2366 003e 7B68     		ldr	r3, [r7, #4]
 2367 0040 03F5C861 		add	r1, r3, #1600
 2368              		.loc 6 97 17
 2369 0044 7B68     		ldr	r3, [r7, #4]
 2370 0046 03F27463 		addw	r3, r3, #1652
 2371 004a D3ED007A 		vldr.32	s15, [r3]
 2372 004e 3A68     		ldr	r2, [r7]
 2373 0050 B0EE670A 		vmov.f32	s0, s15
 2374 0054 7868     		ldr	r0, [r7, #4]
 2375 0056 FFF7FEFF 		bl	_ZN5Mixer12panMixBufferEPPffj
  98:DSP/Mixer.cpp ****     panMixBuffer(track4.buffer, track4.pan.value, size);
 2376              		.loc 6 98 25
 2377 005a 7B68     		ldr	r3, [r7, #4]
 2378 005c 03F67801 		addw	r1, r3, #2168
 2379              		.loc 6 98 17
 2380 0060 7B68     		ldr	r3, [r7, #4]
 2381 0062 03F6AC03 		addw	r3, r3, #2220
 2382 0066 D3ED007A 		vldr.32	s15, [r3]
 2383 006a 3A68     		ldr	r2, [r7]
 2384 006c B0EE670A 		vmov.f32	s0, s15
 2385 0070 7868     		ldr	r0, [r7, #4]
 2386 0072 FFF7FEFF 		bl	_ZN5Mixer12panMixBufferEPPffj
  99:DSP/Mixer.cpp **** }
ARM GAS  /var/folders/wz/z09yph4n0qj4t7mjxhl6ttn80000gn/T//ccxdcdyF.s 			page 56


 2387              		.loc 6 99 1
 2388 0076 00BF     		nop
 2389 0078 0837     		adds	r7, r7, #8
 2390              		.cfi_def_cfa_offset 8
 2391 007a BD46     		mov	sp, r7
 2392              		.cfi_def_cfa_register 13
 2393              		@ sp needed
 2394 007c 80BD     		pop	{r7, pc}
 2395              		.cfi_endproc
 2396              	.LFE5681:
 2398              		.section	.text._ZN5Mixer9mixOutputEj,"ax",%progbits
 2399              		.align	1
 2400              		.global	_ZN5Mixer9mixOutputEj
 2401              		.syntax unified
 2402              		.thumb
 2403              		.thumb_func
 2405              	_ZN5Mixer9mixOutputEj:
 2406              	.LFB5682:
 100:DSP/Mixer.cpp **** 
 101:DSP/Mixer.cpp **** void Mixer::mixOutput(size_t size)
 102:DSP/Mixer.cpp **** {
 2407              		.loc 6 102 1
 2408              		.cfi_startproc
 2409              		@ args = 0, pretend = 0, frame = 16
 2410              		@ frame_needed = 1, uses_anonymous_args = 0
 2411 0000 80B5     		push	{r7, lr}
 2412              		.cfi_def_cfa_offset 8
 2413              		.cfi_offset 7, -8
 2414              		.cfi_offset 14, -4
 2415 0002 2DED028B 		vpush.64	{d8}
 2416              		.cfi_def_cfa_offset 16
 2417              		.cfi_offset 80, -16
 2418              		.cfi_offset 81, -12
 2419 0006 84B0     		sub	sp, sp, #16
 2420              		.cfi_def_cfa_offset 32
 2421 0008 00AF     		add	r7, sp, #0
 2422              		.cfi_def_cfa_register 7
 2423 000a 7860     		str	r0, [r7, #4]
 2424 000c 3960     		str	r1, [r7]
 103:DSP/Mixer.cpp ****     setMixDiv();
 2425              		.loc 6 103 14
 2426 000e 7868     		ldr	r0, [r7, #4]
 2427 0010 FFF7FEFF 		bl	_ZN5Mixer9setMixDivEv
 2428              	.LBB8:
 104:DSP/Mixer.cpp **** 
 105:DSP/Mixer.cpp ****     for(size_t i = 0 ; i < size ; i++)
 2429              		.loc 6 105 16
 2430 0014 0023     		movs	r3, #0
 2431 0016 FB60     		str	r3, [r7, #12]
 2432              	.L66:
 2433              		.loc 6 105 26 discriminator 3
 2434 0018 FA68     		ldr	r2, [r7, #12]
 2435 001a 3B68     		ldr	r3, [r7]
 2436 001c 9A42     		cmp	r2, r3
 2437 001e 7DD2     		bcs	.L67
 106:DSP/Mixer.cpp ****     {
 107:DSP/Mixer.cpp ****         mix[L][i] = (track1.getCurVal(L, i) 
ARM GAS  /var/folders/wz/z09yph4n0qj4t7mjxhl6ttn80000gn/T//ccxdcdyF.s 			page 57


 2438              		.loc 6 107 38 discriminator 2
 2439 0020 7B68     		ldr	r3, [r7, #4]
 2440 0022 FA68     		ldr	r2, [r7, #12]
 2441 0024 0021     		movs	r1, #0
 2442 0026 1846     		mov	r0, r3
 2443 0028 FFF7FEFF 		bl	_ZN5Mixer12MixerChannel9getCurValEij
 2444 002c B0EE408A 		vmov.f32	s16, s0
 108:DSP/Mixer.cpp ****                     + track2.getCurVal(L, i) 
 2445              		.loc 6 108 39 discriminator 2
 2446 0030 7B68     		ldr	r3, [r7, #4]
 2447 0032 03F50E73 		add	r3, r3, #568
 2448 0036 FA68     		ldr	r2, [r7, #12]
 2449 0038 0021     		movs	r1, #0
 2450 003a 1846     		mov	r0, r3
 2451 003c FFF7FEFF 		bl	_ZN5Mixer12MixerChannel9getCurValEij
 2452 0040 F0EE407A 		vmov.f32	s15, s0
 2453              		.loc 6 108 21 discriminator 2
 2454 0044 38EE278A 		vadd.f32	s16, s16, s15
 109:DSP/Mixer.cpp ****                     + track3.getCurVal(L, i) 
 2455              		.loc 6 109 39 discriminator 2
 2456 0048 7B68     		ldr	r3, [r7, #4]
 2457 004a 03F58E63 		add	r3, r3, #1136
 2458 004e FA68     		ldr	r2, [r7, #12]
 2459 0050 0021     		movs	r1, #0
 2460 0052 1846     		mov	r0, r3
 2461 0054 FFF7FEFF 		bl	_ZN5Mixer12MixerChannel9getCurValEij
 2462 0058 F0EE407A 		vmov.f32	s15, s0
 2463              		.loc 6 109 21 discriminator 2
 2464 005c 38EE278A 		vadd.f32	s16, s16, s15
 110:DSP/Mixer.cpp ****                     + track4.getCurVal(L, i)) 
 2465              		.loc 6 110 39 discriminator 2
 2466 0060 7B68     		ldr	r3, [r7, #4]
 2467 0062 03F5D563 		add	r3, r3, #1704
 2468 0066 FA68     		ldr	r2, [r7, #12]
 2469 0068 0021     		movs	r1, #0
 2470 006a 1846     		mov	r0, r3
 2471 006c FFF7FEFF 		bl	_ZN5Mixer12MixerChannel9getCurValEij
 2472 0070 F0EE407A 		vmov.f32	s15, s0
 2473              		.loc 6 110 21 discriminator 2
 2474 0074 78EE276A 		vadd.f32	s13, s16, s15
 111:DSP/Mixer.cpp ****                     / mixDiv;
 2475              		.loc 6 111 23 discriminator 2
 2476 0078 7B68     		ldr	r3, [r7, #4]
 2477 007a D3F8E038 		ldr	r3, [r3, #2272]
 2478              		.loc 6 111 21 discriminator 2
 2479 007e 07EE903A 		vmov	s15, r3	@ int
 2480 0082 B8EEE77A 		vcvt.f32.s32	s14, s15
 107:DSP/Mixer.cpp ****                     + track2.getCurVal(L, i) 
 2481              		.loc 6 107 14 discriminator 2
 2482 0086 7B68     		ldr	r3, [r7, #4]
 2483 0088 D3F81429 		ldr	r2, [r3, #2324]
 107:DSP/Mixer.cpp ****                     + track2.getCurVal(L, i) 
 2484              		.loc 6 107 17 discriminator 2
 2485 008c FB68     		ldr	r3, [r7, #12]
 2486 008e 9B00     		lsls	r3, r3, #2
 2487 0090 1344     		add	r3, r3, r2
 2488              		.loc 6 111 21 discriminator 2
ARM GAS  /var/folders/wz/z09yph4n0qj4t7mjxhl6ttn80000gn/T//ccxdcdyF.s 			page 58


 2489 0092 C6EE877A 		vdiv.f32	s15, s13, s14
 107:DSP/Mixer.cpp ****                     + track2.getCurVal(L, i) 
 2490              		.loc 6 107 19 discriminator 2
 2491 0096 C3ED007A 		vstr.32	s15, [r3]
 112:DSP/Mixer.cpp ****         mix[R][i] = (track1.getCurVal(R, i) 
 2492              		.loc 6 112 38 discriminator 2
 2493 009a 7B68     		ldr	r3, [r7, #4]
 2494 009c FA68     		ldr	r2, [r7, #12]
 2495 009e 0121     		movs	r1, #1
 2496 00a0 1846     		mov	r0, r3
 2497 00a2 FFF7FEFF 		bl	_ZN5Mixer12MixerChannel9getCurValEij
 2498 00a6 B0EE408A 		vmov.f32	s16, s0
 113:DSP/Mixer.cpp ****                     + track2.getCurVal(R, i) 
 2499              		.loc 6 113 39 discriminator 2
 2500 00aa 7B68     		ldr	r3, [r7, #4]
 2501 00ac 03F50E73 		add	r3, r3, #568
 2502 00b0 FA68     		ldr	r2, [r7, #12]
 2503 00b2 0121     		movs	r1, #1
 2504 00b4 1846     		mov	r0, r3
 2505 00b6 FFF7FEFF 		bl	_ZN5Mixer12MixerChannel9getCurValEij
 2506 00ba F0EE407A 		vmov.f32	s15, s0
 2507              		.loc 6 113 21 discriminator 2
 2508 00be 38EE278A 		vadd.f32	s16, s16, s15
 114:DSP/Mixer.cpp ****                     + track3.getCurVal(R, i) 
 2509              		.loc 6 114 39 discriminator 2
 2510 00c2 7B68     		ldr	r3, [r7, #4]
 2511 00c4 03F58E63 		add	r3, r3, #1136
 2512 00c8 FA68     		ldr	r2, [r7, #12]
 2513 00ca 0121     		movs	r1, #1
 2514 00cc 1846     		mov	r0, r3
 2515 00ce FFF7FEFF 		bl	_ZN5Mixer12MixerChannel9getCurValEij
 2516 00d2 F0EE407A 		vmov.f32	s15, s0
 2517              		.loc 6 114 21 discriminator 2
 2518 00d6 38EE278A 		vadd.f32	s16, s16, s15
 115:DSP/Mixer.cpp ****                     + track4.getCurVal(R, i)) 
 2519              		.loc 6 115 39 discriminator 2
 2520 00da 7B68     		ldr	r3, [r7, #4]
 2521 00dc 03F5D563 		add	r3, r3, #1704
 2522 00e0 FA68     		ldr	r2, [r7, #12]
 2523 00e2 0121     		movs	r1, #1
 2524 00e4 1846     		mov	r0, r3
 2525 00e6 FFF7FEFF 		bl	_ZN5Mixer12MixerChannel9getCurValEij
 2526 00ea F0EE407A 		vmov.f32	s15, s0
 2527              		.loc 6 115 21 discriminator 2
 2528 00ee 78EE276A 		vadd.f32	s13, s16, s15
 116:DSP/Mixer.cpp ****                     / mixDiv;
 2529              		.loc 6 116 23 discriminator 2
 2530 00f2 7B68     		ldr	r3, [r7, #4]
 2531 00f4 D3F8E038 		ldr	r3, [r3, #2272]
 2532              		.loc 6 116 21 discriminator 2
 2533 00f8 07EE903A 		vmov	s15, r3	@ int
 2534 00fc B8EEE77A 		vcvt.f32.s32	s14, s15
 112:DSP/Mixer.cpp ****                     + track2.getCurVal(R, i) 
 2535              		.loc 6 112 14 discriminator 2
 2536 0100 7B68     		ldr	r3, [r7, #4]
 2537 0102 D3F81829 		ldr	r2, [r3, #2328]
 112:DSP/Mixer.cpp ****                     + track2.getCurVal(R, i) 
ARM GAS  /var/folders/wz/z09yph4n0qj4t7mjxhl6ttn80000gn/T//ccxdcdyF.s 			page 59


 2538              		.loc 6 112 17 discriminator 2
 2539 0106 FB68     		ldr	r3, [r7, #12]
 2540 0108 9B00     		lsls	r3, r3, #2
 2541 010a 1344     		add	r3, r3, r2
 2542              		.loc 6 116 21 discriminator 2
 2543 010c C6EE877A 		vdiv.f32	s15, s13, s14
 112:DSP/Mixer.cpp ****                     + track2.getCurVal(R, i) 
 2544              		.loc 6 112 19 discriminator 2
 2545 0110 C3ED007A 		vstr.32	s15, [r3]
 105:DSP/Mixer.cpp ****     {
 2546              		.loc 6 105 5 discriminator 2
 2547 0114 FB68     		ldr	r3, [r7, #12]
 2548 0116 0133     		adds	r3, r3, #1
 2549 0118 FB60     		str	r3, [r7, #12]
 2550 011a 7DE7     		b	.L66
 2551              	.L67:
 2552              	.LBE8:
 117:DSP/Mixer.cpp ****     }
 118:DSP/Mixer.cpp **** 
 119:DSP/Mixer.cpp ****     // pass mix buffer through limiter
 120:DSP/Mixer.cpp **** }
 2553              		.loc 6 120 1
 2554 011c 00BF     		nop
 2555 011e 1037     		adds	r7, r7, #16
 2556              		.cfi_def_cfa_offset 16
 2557 0120 BD46     		mov	sp, r7
 2558              		.cfi_def_cfa_register 13
 2559              		@ sp needed
 2560 0122 BDEC028B 		vldm	sp!, {d8}
 2561              		.cfi_restore 80
 2562              		.cfi_restore 81
 2563              		.cfi_def_cfa_offset 8
 2564 0126 80BD     		pop	{r7, pc}
 2565              		.cfi_endproc
 2566              	.LFE5682:
 2568              		.section	.text._ZN5Mixer18processOutputBlockEPfS0_j,"ax",%progbits
 2569              		.align	1
 2570              		.global	_ZN5Mixer18processOutputBlockEPfS0_j
 2571              		.syntax unified
 2572              		.thumb
 2573              		.thumb_func
 2575              	_ZN5Mixer18processOutputBlockEPfS0_j:
 2576              	.LFB5683:
 121:DSP/Mixer.cpp **** 
 122:DSP/Mixer.cpp **** void Mixer::processOutputBlock(float* left, float* right, size_t size)
 123:DSP/Mixer.cpp **** {
 2577              		.loc 6 123 1
 2578              		.cfi_startproc
 2579              		@ args = 0, pretend = 0, frame = 24
 2580              		@ frame_needed = 1, uses_anonymous_args = 0
 2581 0000 80B5     		push	{r7, lr}
 2582              		.cfi_def_cfa_offset 8
 2583              		.cfi_offset 7, -8
 2584              		.cfi_offset 14, -4
 2585 0002 86B0     		sub	sp, sp, #24
 2586              		.cfi_def_cfa_offset 32
 2587 0004 00AF     		add	r7, sp, #0
ARM GAS  /var/folders/wz/z09yph4n0qj4t7mjxhl6ttn80000gn/T//ccxdcdyF.s 			page 60


 2588              		.cfi_def_cfa_register 7
 2589 0006 F860     		str	r0, [r7, #12]
 2590 0008 B960     		str	r1, [r7, #8]
 2591 000a 7A60     		str	r2, [r7, #4]
 2592 000c 3B60     		str	r3, [r7]
 124:DSP/Mixer.cpp ****     track1.track.processOutputBlock(track1.buffer[L], track1.buffer[R], size);
 2593              		.loc 6 124 36
 2594 000e F868     		ldr	r0, [r7, #12]
 2595 0010 FB68     		ldr	r3, [r7, #12]
 2596 0012 D3F8D011 		ldr	r1, [r3, #464]
 2597 0016 FB68     		ldr	r3, [r7, #12]
 2598 0018 D3F8D421 		ldr	r2, [r3, #468]
 2599 001c 3B68     		ldr	r3, [r7]
 2600 001e FFF7FEFF 		bl	_ZN5Track18processOutputBlockEPfS0_j
 125:DSP/Mixer.cpp ****     track2.track.processOutputBlock(track2.buffer[L], track2.buffer[R], size);
 2601              		.loc 6 125 36
 2602 0022 FB68     		ldr	r3, [r7, #12]
 2603 0024 03F50E70 		add	r0, r3, #568
 2604 0028 FB68     		ldr	r3, [r7, #12]
 2605 002a D3F80814 		ldr	r1, [r3, #1032]
 2606 002e FB68     		ldr	r3, [r7, #12]
 2607 0030 D3F80C24 		ldr	r2, [r3, #1036]
 2608 0034 3B68     		ldr	r3, [r7]
 2609 0036 FFF7FEFF 		bl	_ZN5Track18processOutputBlockEPfS0_j
 126:DSP/Mixer.cpp ****     track3.track.processOutputBlock(track3.buffer[L], track3.buffer[R], size);
 2610              		.loc 6 126 36
 2611 003a FB68     		ldr	r3, [r7, #12]
 2612 003c 03F58E60 		add	r0, r3, #1136
 2613 0040 FB68     		ldr	r3, [r7, #12]
 2614 0042 D3F84016 		ldr	r1, [r3, #1600]
 2615 0046 FB68     		ldr	r3, [r7, #12]
 2616 0048 D3F84426 		ldr	r2, [r3, #1604]
 2617 004c 3B68     		ldr	r3, [r7]
 2618 004e FFF7FEFF 		bl	_ZN5Track18processOutputBlockEPfS0_j
 127:DSP/Mixer.cpp ****     track4.track.processOutputBlock(track4.buffer[L], track4.buffer[R], size);
 2619              		.loc 6 127 36
 2620 0052 FB68     		ldr	r3, [r7, #12]
 2621 0054 03F5D560 		add	r0, r3, #1704
 2622 0058 FB68     		ldr	r3, [r7, #12]
 2623 005a D3F87818 		ldr	r1, [r3, #2168]
 2624 005e FB68     		ldr	r3, [r7, #12]
 2625 0060 D3F87C28 		ldr	r2, [r3, #2172]
 2626 0064 3B68     		ldr	r3, [r7]
 2627 0066 FFF7FEFF 		bl	_ZN5Track18processOutputBlockEPfS0_j
 128:DSP/Mixer.cpp **** 
 129:DSP/Mixer.cpp ****     //panChannels(size);
 130:DSP/Mixer.cpp ****     mixOutput(size);
 2628              		.loc 6 130 14
 2629 006a 3968     		ldr	r1, [r7]
 2630 006c F868     		ldr	r0, [r7, #12]
 2631 006e FFF7FEFF 		bl	_ZN5Mixer9mixOutputEj
 2632              	.LBB9:
 131:DSP/Mixer.cpp **** 
 132:DSP/Mixer.cpp ****     for(size_t i = 0 ; i < size ; i++)
 2633              		.loc 6 132 16
 2634 0072 0023     		movs	r3, #0
 2635 0074 7B61     		str	r3, [r7, #20]
ARM GAS  /var/folders/wz/z09yph4n0qj4t7mjxhl6ttn80000gn/T//ccxdcdyF.s 			page 61


 2636              	.L70:
 2637              		.loc 6 132 26 discriminator 3
 2638 0076 7A69     		ldr	r2, [r7, #20]
 2639 0078 3B68     		ldr	r3, [r7]
 2640 007a 9A42     		cmp	r2, r3
 2641 007c 2DD2     		bcs	.L71
 133:DSP/Mixer.cpp ****     {
 134:DSP/Mixer.cpp ****         left[i] = mix[L][i] * master.value;
 2642              		.loc 6 134 24 discriminator 2
 2643 007e FB68     		ldr	r3, [r7, #12]
 2644 0080 D3F81429 		ldr	r2, [r3, #2324]
 2645              		.loc 6 134 27 discriminator 2
 2646 0084 7B69     		ldr	r3, [r7, #20]
 2647 0086 9B00     		lsls	r3, r3, #2
 2648 0088 1344     		add	r3, r3, r2
 2649 008a 93ED007A 		vldr.32	s14, [r3]
 2650              		.loc 6 134 38 discriminator 2
 2651 008e FB68     		ldr	r3, [r7, #12]
 2652 0090 03F51163 		add	r3, r3, #2320
 2653 0094 D3ED007A 		vldr.32	s15, [r3]
 2654              		.loc 6 134 15 discriminator 2
 2655 0098 7B69     		ldr	r3, [r7, #20]
 2656 009a 9B00     		lsls	r3, r3, #2
 2657 009c BA68     		ldr	r2, [r7, #8]
 2658 009e 1344     		add	r3, r3, r2
 2659              		.loc 6 134 29 discriminator 2
 2660 00a0 67EE277A 		vmul.f32	s15, s14, s15
 2661              		.loc 6 134 17 discriminator 2
 2662 00a4 C3ED007A 		vstr.32	s15, [r3]
 135:DSP/Mixer.cpp ****         right[i] = mix[R][i] * master.value;
 2663              		.loc 6 135 25 discriminator 2
 2664 00a8 FB68     		ldr	r3, [r7, #12]
 2665 00aa D3F81829 		ldr	r2, [r3, #2328]
 2666              		.loc 6 135 28 discriminator 2
 2667 00ae 7B69     		ldr	r3, [r7, #20]
 2668 00b0 9B00     		lsls	r3, r3, #2
 2669 00b2 1344     		add	r3, r3, r2
 2670 00b4 93ED007A 		vldr.32	s14, [r3]
 2671              		.loc 6 135 39 discriminator 2
 2672 00b8 FB68     		ldr	r3, [r7, #12]
 2673 00ba 03F51163 		add	r3, r3, #2320
 2674 00be D3ED007A 		vldr.32	s15, [r3]
 2675              		.loc 6 135 16 discriminator 2
 2676 00c2 7B69     		ldr	r3, [r7, #20]
 2677 00c4 9B00     		lsls	r3, r3, #2
 2678 00c6 7A68     		ldr	r2, [r7, #4]
 2679 00c8 1344     		add	r3, r3, r2
 2680              		.loc 6 135 30 discriminator 2
 2681 00ca 67EE277A 		vmul.f32	s15, s14, s15
 2682              		.loc 6 135 18 discriminator 2
 2683 00ce C3ED007A 		vstr.32	s15, [r3]
 132:DSP/Mixer.cpp ****     {
 2684              		.loc 6 132 5 discriminator 2
 2685 00d2 7B69     		ldr	r3, [r7, #20]
 2686 00d4 0133     		adds	r3, r3, #1
 2687 00d6 7B61     		str	r3, [r7, #20]
 2688 00d8 CDE7     		b	.L70
ARM GAS  /var/folders/wz/z09yph4n0qj4t7mjxhl6ttn80000gn/T//ccxdcdyF.s 			page 62


 2689              	.L71:
 2690              	.LBE9:
 136:DSP/Mixer.cpp ****     }
 137:DSP/Mixer.cpp **** }
 2691              		.loc 6 137 1
 2692 00da 00BF     		nop
 2693 00dc 1837     		adds	r7, r7, #24
 2694              		.cfi_def_cfa_offset 8
 2695 00de BD46     		mov	sp, r7
 2696              		.cfi_def_cfa_register 13
 2697              		@ sp needed
 2698 00e0 80BD     		pop	{r7, pc}
 2699              		.cfi_endproc
 2700              	.LFE5683:
 2702              		.section	.text._ZN5Mixer12panMixBufferEPPffj,"ax",%progbits
 2703              		.align	1
 2704              		.global	_ZN5Mixer12panMixBufferEPPffj
 2705              		.syntax unified
 2706              		.thumb
 2707              		.thumb_func
 2709              	_ZN5Mixer12panMixBufferEPPffj:
 2710              	.LFB5684:
 138:DSP/Mixer.cpp **** 
 139:DSP/Mixer.cpp **** void Mixer::panMixBuffer(float* buffer[2], float pan, size_t size)
 140:DSP/Mixer.cpp **** {
 2711              		.loc 6 140 1
 2712              		.cfi_startproc
 2713              		@ args = 0, pretend = 0, frame = 24
 2714              		@ frame_needed = 1, uses_anonymous_args = 0
 2715              		@ link register save eliminated.
 2716 0000 80B4     		push	{r7}
 2717              		.cfi_def_cfa_offset 4
 2718              		.cfi_offset 7, -4
 2719 0002 87B0     		sub	sp, sp, #28
 2720              		.cfi_def_cfa_offset 32
 2721 0004 00AF     		add	r7, sp, #0
 2722              		.cfi_def_cfa_register 7
 2723 0006 F860     		str	r0, [r7, #12]
 2724 0008 B960     		str	r1, [r7, #8]
 2725 000a 87ED010A 		vstr.32	s0, [r7, #4]
 2726 000e 3A60     		str	r2, [r7]
 2727              	.LBB10:
 141:DSP/Mixer.cpp ****     // -6dB linear taper
 142:DSP/Mixer.cpp ****     for(size_t i = 0 ; i < size ; i++)
 2728              		.loc 6 142 16
 2729 0010 0023     		movs	r3, #0
 2730 0012 7B61     		str	r3, [r7, #20]
 2731              	.L74:
 2732              		.loc 6 142 26 discriminator 3
 2733 0014 7A69     		ldr	r2, [r7, #20]
 2734 0016 3B68     		ldr	r3, [r7]
 2735 0018 9A42     		cmp	r2, r3
 2736 001a 2DD2     		bcs	.L75
 143:DSP/Mixer.cpp ****     {
 144:DSP/Mixer.cpp ****         buffer[L][i] = (1 - pan) * buffer[L][i];
 2737              		.loc 6 144 27 discriminator 2
 2738 001c B7EE007A 		vmov.f32	s14, #1.0e+0
ARM GAS  /var/folders/wz/z09yph4n0qj4t7mjxhl6ttn80000gn/T//ccxdcdyF.s 			page 63


 2739 0020 D7ED017A 		vldr.32	s15, [r7, #4]
 2740 0024 37EE677A 		vsub.f32	s14, s14, s15
 2741              		.loc 6 144 44 discriminator 2
 2742 0028 BB68     		ldr	r3, [r7, #8]
 2743 002a 1A68     		ldr	r2, [r3]
 2744              		.loc 6 144 47 discriminator 2
 2745 002c 7B69     		ldr	r3, [r7, #20]
 2746 002e 9B00     		lsls	r3, r3, #2
 2747 0030 1344     		add	r3, r3, r2
 2748 0032 D3ED007A 		vldr.32	s15, [r3]
 2749              		.loc 6 144 17 discriminator 2
 2750 0036 BB68     		ldr	r3, [r7, #8]
 2751 0038 1A68     		ldr	r2, [r3]
 2752              		.loc 6 144 20 discriminator 2
 2753 003a 7B69     		ldr	r3, [r7, #20]
 2754 003c 9B00     		lsls	r3, r3, #2
 2755 003e 1344     		add	r3, r3, r2
 2756              		.loc 6 144 34 discriminator 2
 2757 0040 67EE277A 		vmul.f32	s15, s14, s15
 2758              		.loc 6 144 22 discriminator 2
 2759 0044 C3ED007A 		vstr.32	s15, [r3]
 145:DSP/Mixer.cpp ****         buffer[R][i] = pan * buffer[R][i];
 2760              		.loc 6 145 38 discriminator 2
 2761 0048 BB68     		ldr	r3, [r7, #8]
 2762 004a 0433     		adds	r3, r3, #4
 2763 004c 1A68     		ldr	r2, [r3]
 2764              		.loc 6 145 41 discriminator 2
 2765 004e 7B69     		ldr	r3, [r7, #20]
 2766 0050 9B00     		lsls	r3, r3, #2
 2767 0052 1344     		add	r3, r3, r2
 2768 0054 93ED007A 		vldr.32	s14, [r3]
 2769              		.loc 6 145 17 discriminator 2
 2770 0058 BB68     		ldr	r3, [r7, #8]
 2771 005a 0433     		adds	r3, r3, #4
 2772 005c 1A68     		ldr	r2, [r3]
 2773              		.loc 6 145 20 discriminator 2
 2774 005e 7B69     		ldr	r3, [r7, #20]
 2775 0060 9B00     		lsls	r3, r3, #2
 2776 0062 1344     		add	r3, r3, r2
 2777              		.loc 6 145 28 discriminator 2
 2778 0064 D7ED017A 		vldr.32	s15, [r7, #4]
 2779 0068 67EE277A 		vmul.f32	s15, s14, s15
 2780              		.loc 6 145 22 discriminator 2
 2781 006c C3ED007A 		vstr.32	s15, [r3]
 142:DSP/Mixer.cpp ****     {
 2782              		.loc 6 142 5 discriminator 2
 2783 0070 7B69     		ldr	r3, [r7, #20]
 2784 0072 0133     		adds	r3, r3, #1
 2785 0074 7B61     		str	r3, [r7, #20]
 2786 0076 CDE7     		b	.L74
 2787              	.L75:
 2788              	.LBE10:
 146:DSP/Mixer.cpp ****     }
 147:DSP/Mixer.cpp **** }
 2789              		.loc 6 147 1
 2790 0078 00BF     		nop
 2791 007a 1C37     		adds	r7, r7, #28
ARM GAS  /var/folders/wz/z09yph4n0qj4t7mjxhl6ttn80000gn/T//ccxdcdyF.s 			page 64


 2792              		.cfi_def_cfa_offset 4
 2793 007c BD46     		mov	sp, r7
 2794              		.cfi_def_cfa_register 13
 2795              		@ sp needed
 2796 007e 5DF8047B 		ldr	r7, [sp], #4
 2797              		.cfi_restore 7
 2798              		.cfi_def_cfa_offset 0
 2799 0082 7047     		bx	lr
 2800              		.cfi_endproc
 2801              	.LFE5684:
 2803              		.section	.text._ZN5Mixer9setMixDivEv,"ax",%progbits
 2804              		.align	1
 2805              		.global	_ZN5Mixer9setMixDivEv
 2806              		.syntax unified
 2807              		.thumb
 2808              		.thumb_func
 2810              	_ZN5Mixer9setMixDivEv:
 2811              	.LFB5685:
 148:DSP/Mixer.cpp **** 
 149:DSP/Mixer.cpp **** void Mixer::setMixDiv()
 150:DSP/Mixer.cpp **** {
 2812              		.loc 6 150 1
 2813              		.cfi_startproc
 2814              		@ args = 0, pretend = 0, frame = 8
 2815              		@ frame_needed = 1, uses_anonymous_args = 0
 2816 0000 80B5     		push	{r7, lr}
 2817              		.cfi_def_cfa_offset 8
 2818              		.cfi_offset 7, -8
 2819              		.cfi_offset 14, -4
 2820 0002 82B0     		sub	sp, sp, #8
 2821              		.cfi_def_cfa_offset 16
 2822 0004 00AF     		add	r7, sp, #0
 2823              		.cfi_def_cfa_register 7
 2824 0006 7860     		str	r0, [r7, #4]
 151:DSP/Mixer.cpp ****     mixDiv = 0;
 2825              		.loc 6 151 12
 2826 0008 7B68     		ldr	r3, [r7, #4]
 2827 000a 0022     		movs	r2, #0
 2828 000c C3F8E028 		str	r2, [r3, #2272]
 152:DSP/Mixer.cpp **** 
 153:DSP/Mixer.cpp ****     if(track1.track.getState() != STOPPED)
 2829              		.loc 6 153 29
 2830 0010 7B68     		ldr	r3, [r7, #4]
 2831 0012 1846     		mov	r0, r3
 2832 0014 FFF7FEFF 		bl	_ZN5Track8getStateEv
 2833 0018 0346     		mov	r3, r0
 2834              		.loc 6 153 32
 2835 001a 022B     		cmp	r3, #2
 2836 001c 14BF     		ite	ne
 2837 001e 0123     		movne	r3, #1
 2838 0020 0023     		moveq	r3, #0
 2839 0022 DBB2     		uxtb	r3, r3
 2840              		.loc 6 153 5
 2841 0024 002B     		cmp	r3, #0
 2842 0026 06D0     		beq	.L77
 154:DSP/Mixer.cpp ****         mixDiv++;
 2843              		.loc 6 154 9
ARM GAS  /var/folders/wz/z09yph4n0qj4t7mjxhl6ttn80000gn/T//ccxdcdyF.s 			page 65


 2844 0028 7B68     		ldr	r3, [r7, #4]
 2845 002a D3F8E038 		ldr	r3, [r3, #2272]
 2846              		.loc 6 154 15
 2847 002e 5A1C     		adds	r2, r3, #1
 2848 0030 7B68     		ldr	r3, [r7, #4]
 2849 0032 C3F8E028 		str	r2, [r3, #2272]
 2850              	.L77:
 155:DSP/Mixer.cpp ****     if(track2.track.getState() != STOPPED)
 2851              		.loc 6 155 29
 2852 0036 7B68     		ldr	r3, [r7, #4]
 2853 0038 03F50E73 		add	r3, r3, #568
 2854 003c 1846     		mov	r0, r3
 2855 003e FFF7FEFF 		bl	_ZN5Track8getStateEv
 2856 0042 0346     		mov	r3, r0
 2857              		.loc 6 155 32
 2858 0044 022B     		cmp	r3, #2
 2859 0046 14BF     		ite	ne
 2860 0048 0123     		movne	r3, #1
 2861 004a 0023     		moveq	r3, #0
 2862 004c DBB2     		uxtb	r3, r3
 2863              		.loc 6 155 5
 2864 004e 002B     		cmp	r3, #0
 2865 0050 06D0     		beq	.L78
 156:DSP/Mixer.cpp ****         mixDiv++;
 2866              		.loc 6 156 9
 2867 0052 7B68     		ldr	r3, [r7, #4]
 2868 0054 D3F8E038 		ldr	r3, [r3, #2272]
 2869              		.loc 6 156 15
 2870 0058 5A1C     		adds	r2, r3, #1
 2871 005a 7B68     		ldr	r3, [r7, #4]
 2872 005c C3F8E028 		str	r2, [r3, #2272]
 2873              	.L78:
 157:DSP/Mixer.cpp ****     if(track3.track.getState() != STOPPED)
 2874              		.loc 6 157 29
 2875 0060 7B68     		ldr	r3, [r7, #4]
 2876 0062 03F58E63 		add	r3, r3, #1136
 2877 0066 1846     		mov	r0, r3
 2878 0068 FFF7FEFF 		bl	_ZN5Track8getStateEv
 2879 006c 0346     		mov	r3, r0
 2880              		.loc 6 157 32
 2881 006e 022B     		cmp	r3, #2
 2882 0070 14BF     		ite	ne
 2883 0072 0123     		movne	r3, #1
 2884 0074 0023     		moveq	r3, #0
 2885 0076 DBB2     		uxtb	r3, r3
 2886              		.loc 6 157 5
 2887 0078 002B     		cmp	r3, #0
 2888 007a 06D0     		beq	.L79
 158:DSP/Mixer.cpp ****         mixDiv++;
 2889              		.loc 6 158 9
 2890 007c 7B68     		ldr	r3, [r7, #4]
 2891 007e D3F8E038 		ldr	r3, [r3, #2272]
 2892              		.loc 6 158 15
 2893 0082 5A1C     		adds	r2, r3, #1
 2894 0084 7B68     		ldr	r3, [r7, #4]
 2895 0086 C3F8E028 		str	r2, [r3, #2272]
 2896              	.L79:
ARM GAS  /var/folders/wz/z09yph4n0qj4t7mjxhl6ttn80000gn/T//ccxdcdyF.s 			page 66


 159:DSP/Mixer.cpp ****     if(track4.track.getState() != STOPPED)
 2897              		.loc 6 159 29
 2898 008a 7B68     		ldr	r3, [r7, #4]
 2899 008c 03F5D563 		add	r3, r3, #1704
 2900 0090 1846     		mov	r0, r3
 2901 0092 FFF7FEFF 		bl	_ZN5Track8getStateEv
 2902 0096 0346     		mov	r3, r0
 2903              		.loc 6 159 32
 2904 0098 022B     		cmp	r3, #2
 2905 009a 14BF     		ite	ne
 2906 009c 0123     		movne	r3, #1
 2907 009e 0023     		moveq	r3, #0
 2908 00a0 DBB2     		uxtb	r3, r3
 2909              		.loc 6 159 5
 2910 00a2 002B     		cmp	r3, #0
 2911 00a4 06D0     		beq	.L80
 160:DSP/Mixer.cpp ****         mixDiv++;
 2912              		.loc 6 160 9
 2913 00a6 7B68     		ldr	r3, [r7, #4]
 2914 00a8 D3F8E038 		ldr	r3, [r3, #2272]
 2915              		.loc 6 160 15
 2916 00ac 5A1C     		adds	r2, r3, #1
 2917 00ae 7B68     		ldr	r3, [r7, #4]
 2918 00b0 C3F8E028 		str	r2, [r3, #2272]
 2919              	.L80:
 161:DSP/Mixer.cpp ****     
 162:DSP/Mixer.cpp ****     if(mixDiv > 4)
 2920              		.loc 6 162 8
 2921 00b4 7B68     		ldr	r3, [r7, #4]
 2922 00b6 D3F8E038 		ldr	r3, [r3, #2272]
 2923              		.loc 6 162 5
 2924 00ba 042B     		cmp	r3, #4
 2925 00bc 03DD     		ble	.L82
 163:DSP/Mixer.cpp ****         mixDiv = 4;
 2926              		.loc 6 163 16
 2927 00be 7B68     		ldr	r3, [r7, #4]
 2928 00c0 0422     		movs	r2, #4
 2929 00c2 C3F8E028 		str	r2, [r3, #2272]
 2930              	.L82:
 164:DSP/Mixer.cpp **** }...
 2931              		.loc 6 164 1
 2932 00c6 00BF     		nop
 2933 00c8 0837     		adds	r7, r7, #8
 2934              		.cfi_def_cfa_offset 8
 2935 00ca BD46     		mov	sp, r7
 2936              		.cfi_def_cfa_register 13
 2937              		@ sp needed
 2938 00cc 80BD     		pop	{r7, pc}
 2939              		.cfi_endproc
 2940              	.LFE5685:
 2942              		.section	.text._ZNSt8functionIFvfEEC2IZN5Mixer4initEPN5daisy9DaisySeedEPPfS8_S8_S8_S8_PPN7daisysp9
 2943              		.align	1
 2944              		.syntax unified
 2945              		.thumb
 2946              		.thumb_func
 2948              	_ZNSt8functionIFvfEEC2IZN5Mixer4initEPN5daisy9DaisySeedEPPfS8_S8_S8_S8_PPN7daisysp9DelayLineIfLj240
 2949              	.LFB6003:
ARM GAS  /var/folders/wz/z09yph4n0qj4t7mjxhl6ttn80000gn/T//ccxdcdyF.s 			page 67


 304:/Library/DaisyToolchain/0.2.0/arm/arm-none-eabi/include/c++/10.3.1/bits/std_function.h ****     : public _Maybe_unary_or_binary_function<_Res, _ArgTypes...>,
 305:/Library/DaisyToolchain/0.2.0/arm/arm-none-eabi/include/c++/10.3.1/bits/std_function.h ****       private _Function_base
 306:/Library/DaisyToolchain/0.2.0/arm/arm-none-eabi/include/c++/10.3.1/bits/std_function.h ****     {
 307:/Library/DaisyToolchain/0.2.0/arm/arm-none-eabi/include/c++/10.3.1/bits/std_function.h ****       template<typename _Func,
 308:/Library/DaisyToolchain/0.2.0/arm/arm-none-eabi/include/c++/10.3.1/bits/std_function.h **** 	       typename _Res2 = __invoke_result<_Func&, _ArgTypes...>>
 309:/Library/DaisyToolchain/0.2.0/arm/arm-none-eabi/include/c++/10.3.1/bits/std_function.h **** 	struct _Callable
 310:/Library/DaisyToolchain/0.2.0/arm/arm-none-eabi/include/c++/10.3.1/bits/std_function.h **** 	: __is_invocable_impl<_Res2, _Res>::type
 311:/Library/DaisyToolchain/0.2.0/arm/arm-none-eabi/include/c++/10.3.1/bits/std_function.h **** 	{ };
 312:/Library/DaisyToolchain/0.2.0/arm/arm-none-eabi/include/c++/10.3.1/bits/std_function.h **** 
 313:/Library/DaisyToolchain/0.2.0/arm/arm-none-eabi/include/c++/10.3.1/bits/std_function.h ****       // Used so the return type convertibility checks aren't done when
 314:/Library/DaisyToolchain/0.2.0/arm/arm-none-eabi/include/c++/10.3.1/bits/std_function.h ****       // performing overload resolution for copy construction/assignment.
 315:/Library/DaisyToolchain/0.2.0/arm/arm-none-eabi/include/c++/10.3.1/bits/std_function.h ****       template<typename _Tp>
 316:/Library/DaisyToolchain/0.2.0/arm/arm-none-eabi/include/c++/10.3.1/bits/std_function.h **** 	struct _Callable<function, _Tp> : false_type { };
 317:/Library/DaisyToolchain/0.2.0/arm/arm-none-eabi/include/c++/10.3.1/bits/std_function.h **** 
 318:/Library/DaisyToolchain/0.2.0/arm/arm-none-eabi/include/c++/10.3.1/bits/std_function.h ****       template<typename _Cond, typename _Tp>
 319:/Library/DaisyToolchain/0.2.0/arm/arm-none-eabi/include/c++/10.3.1/bits/std_function.h **** 	using _Requires = typename enable_if<_Cond::value, _Tp>::type;
 320:/Library/DaisyToolchain/0.2.0/arm/arm-none-eabi/include/c++/10.3.1/bits/std_function.h **** 
 321:/Library/DaisyToolchain/0.2.0/arm/arm-none-eabi/include/c++/10.3.1/bits/std_function.h ****     public:
 322:/Library/DaisyToolchain/0.2.0/arm/arm-none-eabi/include/c++/10.3.1/bits/std_function.h ****       typedef _Res result_type;
 323:/Library/DaisyToolchain/0.2.0/arm/arm-none-eabi/include/c++/10.3.1/bits/std_function.h **** 
 324:/Library/DaisyToolchain/0.2.0/arm/arm-none-eabi/include/c++/10.3.1/bits/std_function.h ****       // [3.7.2.1] construct/copy/destroy
 325:/Library/DaisyToolchain/0.2.0/arm/arm-none-eabi/include/c++/10.3.1/bits/std_function.h **** 
 326:/Library/DaisyToolchain/0.2.0/arm/arm-none-eabi/include/c++/10.3.1/bits/std_function.h ****       /**
 327:/Library/DaisyToolchain/0.2.0/arm/arm-none-eabi/include/c++/10.3.1/bits/std_function.h ****        *  @brief Default construct creates an empty function call wrapper.
 328:/Library/DaisyToolchain/0.2.0/arm/arm-none-eabi/include/c++/10.3.1/bits/std_function.h ****        *  @post @c !(bool)*this
 329:/Library/DaisyToolchain/0.2.0/arm/arm-none-eabi/include/c++/10.3.1/bits/std_function.h ****        */
 330:/Library/DaisyToolchain/0.2.0/arm/arm-none-eabi/include/c++/10.3.1/bits/std_function.h ****       function() noexcept
 331:/Library/DaisyToolchain/0.2.0/arm/arm-none-eabi/include/c++/10.3.1/bits/std_function.h ****       : _Function_base() { }
 332:/Library/DaisyToolchain/0.2.0/arm/arm-none-eabi/include/c++/10.3.1/bits/std_function.h **** 
 333:/Library/DaisyToolchain/0.2.0/arm/arm-none-eabi/include/c++/10.3.1/bits/std_function.h ****       /**
 334:/Library/DaisyToolchain/0.2.0/arm/arm-none-eabi/include/c++/10.3.1/bits/std_function.h ****        *  @brief Creates an empty function call wrapper.
 335:/Library/DaisyToolchain/0.2.0/arm/arm-none-eabi/include/c++/10.3.1/bits/std_function.h ****        *  @post @c !(bool)*this
 336:/Library/DaisyToolchain/0.2.0/arm/arm-none-eabi/include/c++/10.3.1/bits/std_function.h ****        */
 337:/Library/DaisyToolchain/0.2.0/arm/arm-none-eabi/include/c++/10.3.1/bits/std_function.h ****       function(nullptr_t) noexcept
 338:/Library/DaisyToolchain/0.2.0/arm/arm-none-eabi/include/c++/10.3.1/bits/std_function.h ****       : _Function_base() { }
 339:/Library/DaisyToolchain/0.2.0/arm/arm-none-eabi/include/c++/10.3.1/bits/std_function.h **** 
 340:/Library/DaisyToolchain/0.2.0/arm/arm-none-eabi/include/c++/10.3.1/bits/std_function.h ****       /**
 341:/Library/DaisyToolchain/0.2.0/arm/arm-none-eabi/include/c++/10.3.1/bits/std_function.h ****        *  @brief %Function copy constructor.
 342:/Library/DaisyToolchain/0.2.0/arm/arm-none-eabi/include/c++/10.3.1/bits/std_function.h ****        *  @param __x A %function object with identical call signature.
 343:/Library/DaisyToolchain/0.2.0/arm/arm-none-eabi/include/c++/10.3.1/bits/std_function.h ****        *  @post @c bool(*this) == bool(__x)
 344:/Library/DaisyToolchain/0.2.0/arm/arm-none-eabi/include/c++/10.3.1/bits/std_function.h ****        *
 345:/Library/DaisyToolchain/0.2.0/arm/arm-none-eabi/include/c++/10.3.1/bits/std_function.h ****        *  The newly-created %function contains a copy of the target of @a
 346:/Library/DaisyToolchain/0.2.0/arm/arm-none-eabi/include/c++/10.3.1/bits/std_function.h ****        *  __x (if it has one).
 347:/Library/DaisyToolchain/0.2.0/arm/arm-none-eabi/include/c++/10.3.1/bits/std_function.h ****        */
 348:/Library/DaisyToolchain/0.2.0/arm/arm-none-eabi/include/c++/10.3.1/bits/std_function.h ****       function(const function& __x);
 349:/Library/DaisyToolchain/0.2.0/arm/arm-none-eabi/include/c++/10.3.1/bits/std_function.h **** 
 350:/Library/DaisyToolchain/0.2.0/arm/arm-none-eabi/include/c++/10.3.1/bits/std_function.h ****       /**
 351:/Library/DaisyToolchain/0.2.0/arm/arm-none-eabi/include/c++/10.3.1/bits/std_function.h ****        *  @brief %Function move constructor.
 352:/Library/DaisyToolchain/0.2.0/arm/arm-none-eabi/include/c++/10.3.1/bits/std_function.h ****        *  @param __x A %function object rvalue with identical call signature.
 353:/Library/DaisyToolchain/0.2.0/arm/arm-none-eabi/include/c++/10.3.1/bits/std_function.h ****        *
 354:/Library/DaisyToolchain/0.2.0/arm/arm-none-eabi/include/c++/10.3.1/bits/std_function.h ****        *  The newly-created %function contains the target of @a __x
 355:/Library/DaisyToolchain/0.2.0/arm/arm-none-eabi/include/c++/10.3.1/bits/std_function.h ****        *  (if it has one).
 356:/Library/DaisyToolchain/0.2.0/arm/arm-none-eabi/include/c++/10.3.1/bits/std_function.h ****        */
 357:/Library/DaisyToolchain/0.2.0/arm/arm-none-eabi/include/c++/10.3.1/bits/std_function.h ****       function(function&& __x) noexcept : _Function_base()
 358:/Library/DaisyToolchain/0.2.0/arm/arm-none-eabi/include/c++/10.3.1/bits/std_function.h ****       {
 359:/Library/DaisyToolchain/0.2.0/arm/arm-none-eabi/include/c++/10.3.1/bits/std_function.h **** 	__x.swap(*this);
 360:/Library/DaisyToolchain/0.2.0/arm/arm-none-eabi/include/c++/10.3.1/bits/std_function.h ****       }
ARM GAS  /var/folders/wz/z09yph4n0qj4t7mjxhl6ttn80000gn/T//ccxdcdyF.s 			page 68


 361:/Library/DaisyToolchain/0.2.0/arm/arm-none-eabi/include/c++/10.3.1/bits/std_function.h **** 
 362:/Library/DaisyToolchain/0.2.0/arm/arm-none-eabi/include/c++/10.3.1/bits/std_function.h ****       /**
 363:/Library/DaisyToolchain/0.2.0/arm/arm-none-eabi/include/c++/10.3.1/bits/std_function.h ****        *  @brief Builds a %function that targets a copy of the incoming
 364:/Library/DaisyToolchain/0.2.0/arm/arm-none-eabi/include/c++/10.3.1/bits/std_function.h ****        *  function object.
 365:/Library/DaisyToolchain/0.2.0/arm/arm-none-eabi/include/c++/10.3.1/bits/std_function.h ****        *  @param __f A %function object that is callable with parameters of
 366:/Library/DaisyToolchain/0.2.0/arm/arm-none-eabi/include/c++/10.3.1/bits/std_function.h ****        *  type @c T1, @c T2, ..., @c TN and returns a value convertible
 367:/Library/DaisyToolchain/0.2.0/arm/arm-none-eabi/include/c++/10.3.1/bits/std_function.h ****        *  to @c Res.
 368:/Library/DaisyToolchain/0.2.0/arm/arm-none-eabi/include/c++/10.3.1/bits/std_function.h ****        *
 369:/Library/DaisyToolchain/0.2.0/arm/arm-none-eabi/include/c++/10.3.1/bits/std_function.h ****        *  The newly-created %function object will target a copy of
 370:/Library/DaisyToolchain/0.2.0/arm/arm-none-eabi/include/c++/10.3.1/bits/std_function.h ****        *  @a __f. If @a __f is @c reference_wrapper<F>, then this function
 371:/Library/DaisyToolchain/0.2.0/arm/arm-none-eabi/include/c++/10.3.1/bits/std_function.h ****        *  object will contain a reference to the function object @c
 372:/Library/DaisyToolchain/0.2.0/arm/arm-none-eabi/include/c++/10.3.1/bits/std_function.h ****        *  __f.get(). If @a __f is a NULL function pointer or NULL
 373:/Library/DaisyToolchain/0.2.0/arm/arm-none-eabi/include/c++/10.3.1/bits/std_function.h ****        *  pointer-to-member, the newly-created object will be empty.
 374:/Library/DaisyToolchain/0.2.0/arm/arm-none-eabi/include/c++/10.3.1/bits/std_function.h ****        *
 375:/Library/DaisyToolchain/0.2.0/arm/arm-none-eabi/include/c++/10.3.1/bits/std_function.h ****        *  If @a __f is a non-NULL function pointer or an object of type @c
 376:/Library/DaisyToolchain/0.2.0/arm/arm-none-eabi/include/c++/10.3.1/bits/std_function.h ****        *  reference_wrapper<F>, this function will not throw.
 377:/Library/DaisyToolchain/0.2.0/arm/arm-none-eabi/include/c++/10.3.1/bits/std_function.h ****        */
 378:/Library/DaisyToolchain/0.2.0/arm/arm-none-eabi/include/c++/10.3.1/bits/std_function.h ****       template<typename _Functor,
 379:/Library/DaisyToolchain/0.2.0/arm/arm-none-eabi/include/c++/10.3.1/bits/std_function.h **** 	       typename = _Requires<__not_<is_same<_Functor, function>>, void>,
 380:/Library/DaisyToolchain/0.2.0/arm/arm-none-eabi/include/c++/10.3.1/bits/std_function.h **** 	       typename = _Requires<_Callable<_Functor>, void>>
 381:/Library/DaisyToolchain/0.2.0/arm/arm-none-eabi/include/c++/10.3.1/bits/std_function.h **** 	function(_Functor);
 382:/Library/DaisyToolchain/0.2.0/arm/arm-none-eabi/include/c++/10.3.1/bits/std_function.h **** 
 383:/Library/DaisyToolchain/0.2.0/arm/arm-none-eabi/include/c++/10.3.1/bits/std_function.h ****       /**
 384:/Library/DaisyToolchain/0.2.0/arm/arm-none-eabi/include/c++/10.3.1/bits/std_function.h ****        *  @brief %Function assignment operator.
 385:/Library/DaisyToolchain/0.2.0/arm/arm-none-eabi/include/c++/10.3.1/bits/std_function.h ****        *  @param __x A %function with identical call signature.
 386:/Library/DaisyToolchain/0.2.0/arm/arm-none-eabi/include/c++/10.3.1/bits/std_function.h ****        *  @post @c (bool)*this == (bool)x
 387:/Library/DaisyToolchain/0.2.0/arm/arm-none-eabi/include/c++/10.3.1/bits/std_function.h ****        *  @returns @c *this
 388:/Library/DaisyToolchain/0.2.0/arm/arm-none-eabi/include/c++/10.3.1/bits/std_function.h ****        *
 389:/Library/DaisyToolchain/0.2.0/arm/arm-none-eabi/include/c++/10.3.1/bits/std_function.h ****        *  The target of @a __x is copied to @c *this. If @a __x has no
 390:/Library/DaisyToolchain/0.2.0/arm/arm-none-eabi/include/c++/10.3.1/bits/std_function.h ****        *  target, then @c *this will be empty.
 391:/Library/DaisyToolchain/0.2.0/arm/arm-none-eabi/include/c++/10.3.1/bits/std_function.h ****        *
 392:/Library/DaisyToolchain/0.2.0/arm/arm-none-eabi/include/c++/10.3.1/bits/std_function.h ****        *  If @a __x targets a function pointer or a reference to a function
 393:/Library/DaisyToolchain/0.2.0/arm/arm-none-eabi/include/c++/10.3.1/bits/std_function.h ****        *  object, then this operation will not throw an %exception.
 394:/Library/DaisyToolchain/0.2.0/arm/arm-none-eabi/include/c++/10.3.1/bits/std_function.h ****        */
 395:/Library/DaisyToolchain/0.2.0/arm/arm-none-eabi/include/c++/10.3.1/bits/std_function.h ****       function&
 396:/Library/DaisyToolchain/0.2.0/arm/arm-none-eabi/include/c++/10.3.1/bits/std_function.h ****       operator=(const function& __x)
 397:/Library/DaisyToolchain/0.2.0/arm/arm-none-eabi/include/c++/10.3.1/bits/std_function.h ****       {
 398:/Library/DaisyToolchain/0.2.0/arm/arm-none-eabi/include/c++/10.3.1/bits/std_function.h **** 	function(__x).swap(*this);
 399:/Library/DaisyToolchain/0.2.0/arm/arm-none-eabi/include/c++/10.3.1/bits/std_function.h **** 	return *this;
 400:/Library/DaisyToolchain/0.2.0/arm/arm-none-eabi/include/c++/10.3.1/bits/std_function.h ****       }
 401:/Library/DaisyToolchain/0.2.0/arm/arm-none-eabi/include/c++/10.3.1/bits/std_function.h **** 
 402:/Library/DaisyToolchain/0.2.0/arm/arm-none-eabi/include/c++/10.3.1/bits/std_function.h ****       /**
 403:/Library/DaisyToolchain/0.2.0/arm/arm-none-eabi/include/c++/10.3.1/bits/std_function.h ****        *  @brief %Function move-assignment operator.
 404:/Library/DaisyToolchain/0.2.0/arm/arm-none-eabi/include/c++/10.3.1/bits/std_function.h ****        *  @param __x A %function rvalue with identical call signature.
 405:/Library/DaisyToolchain/0.2.0/arm/arm-none-eabi/include/c++/10.3.1/bits/std_function.h ****        *  @returns @c *this
 406:/Library/DaisyToolchain/0.2.0/arm/arm-none-eabi/include/c++/10.3.1/bits/std_function.h ****        *
 407:/Library/DaisyToolchain/0.2.0/arm/arm-none-eabi/include/c++/10.3.1/bits/std_function.h ****        *  The target of @a __x is moved to @c *this. If @a __x has no
 408:/Library/DaisyToolchain/0.2.0/arm/arm-none-eabi/include/c++/10.3.1/bits/std_function.h ****        *  target, then @c *this will be empty.
 409:/Library/DaisyToolchain/0.2.0/arm/arm-none-eabi/include/c++/10.3.1/bits/std_function.h ****        *
 410:/Library/DaisyToolchain/0.2.0/arm/arm-none-eabi/include/c++/10.3.1/bits/std_function.h ****        *  If @a __x targets a function pointer or a reference to a function
 411:/Library/DaisyToolchain/0.2.0/arm/arm-none-eabi/include/c++/10.3.1/bits/std_function.h ****        *  object, then this operation will not throw an %exception.
 412:/Library/DaisyToolchain/0.2.0/arm/arm-none-eabi/include/c++/10.3.1/bits/std_function.h ****        */
 413:/Library/DaisyToolchain/0.2.0/arm/arm-none-eabi/include/c++/10.3.1/bits/std_function.h ****       function&
 414:/Library/DaisyToolchain/0.2.0/arm/arm-none-eabi/include/c++/10.3.1/bits/std_function.h ****       operator=(function&& __x) noexcept
 415:/Library/DaisyToolchain/0.2.0/arm/arm-none-eabi/include/c++/10.3.1/bits/std_function.h ****       {
 416:/Library/DaisyToolchain/0.2.0/arm/arm-none-eabi/include/c++/10.3.1/bits/std_function.h **** 	function(std::move(__x)).swap(*this);
 417:/Library/DaisyToolchain/0.2.0/arm/arm-none-eabi/include/c++/10.3.1/bits/std_function.h **** 	return *this;
ARM GAS  /var/folders/wz/z09yph4n0qj4t7mjxhl6ttn80000gn/T//ccxdcdyF.s 			page 69


 418:/Library/DaisyToolchain/0.2.0/arm/arm-none-eabi/include/c++/10.3.1/bits/std_function.h ****       }
 419:/Library/DaisyToolchain/0.2.0/arm/arm-none-eabi/include/c++/10.3.1/bits/std_function.h **** 
 420:/Library/DaisyToolchain/0.2.0/arm/arm-none-eabi/include/c++/10.3.1/bits/std_function.h ****       /**
 421:/Library/DaisyToolchain/0.2.0/arm/arm-none-eabi/include/c++/10.3.1/bits/std_function.h ****        *  @brief %Function assignment to zero.
 422:/Library/DaisyToolchain/0.2.0/arm/arm-none-eabi/include/c++/10.3.1/bits/std_function.h ****        *  @post @c !(bool)*this
 423:/Library/DaisyToolchain/0.2.0/arm/arm-none-eabi/include/c++/10.3.1/bits/std_function.h ****        *  @returns @c *this
 424:/Library/DaisyToolchain/0.2.0/arm/arm-none-eabi/include/c++/10.3.1/bits/std_function.h ****        *
 425:/Library/DaisyToolchain/0.2.0/arm/arm-none-eabi/include/c++/10.3.1/bits/std_function.h ****        *  The target of @c *this is deallocated, leaving it empty.
 426:/Library/DaisyToolchain/0.2.0/arm/arm-none-eabi/include/c++/10.3.1/bits/std_function.h ****        */
 427:/Library/DaisyToolchain/0.2.0/arm/arm-none-eabi/include/c++/10.3.1/bits/std_function.h ****       function&
 428:/Library/DaisyToolchain/0.2.0/arm/arm-none-eabi/include/c++/10.3.1/bits/std_function.h ****       operator=(nullptr_t) noexcept
 429:/Library/DaisyToolchain/0.2.0/arm/arm-none-eabi/include/c++/10.3.1/bits/std_function.h ****       {
 430:/Library/DaisyToolchain/0.2.0/arm/arm-none-eabi/include/c++/10.3.1/bits/std_function.h **** 	if (_M_manager)
 431:/Library/DaisyToolchain/0.2.0/arm/arm-none-eabi/include/c++/10.3.1/bits/std_function.h **** 	  {
 432:/Library/DaisyToolchain/0.2.0/arm/arm-none-eabi/include/c++/10.3.1/bits/std_function.h **** 	    _M_manager(_M_functor, _M_functor, __destroy_functor);
 433:/Library/DaisyToolchain/0.2.0/arm/arm-none-eabi/include/c++/10.3.1/bits/std_function.h **** 	    _M_manager = nullptr;
 434:/Library/DaisyToolchain/0.2.0/arm/arm-none-eabi/include/c++/10.3.1/bits/std_function.h **** 	    _M_invoker = nullptr;
 435:/Library/DaisyToolchain/0.2.0/arm/arm-none-eabi/include/c++/10.3.1/bits/std_function.h **** 	  }
 436:/Library/DaisyToolchain/0.2.0/arm/arm-none-eabi/include/c++/10.3.1/bits/std_function.h **** 	return *this;
 437:/Library/DaisyToolchain/0.2.0/arm/arm-none-eabi/include/c++/10.3.1/bits/std_function.h ****       }
 438:/Library/DaisyToolchain/0.2.0/arm/arm-none-eabi/include/c++/10.3.1/bits/std_function.h **** 
 439:/Library/DaisyToolchain/0.2.0/arm/arm-none-eabi/include/c++/10.3.1/bits/std_function.h ****       /**
 440:/Library/DaisyToolchain/0.2.0/arm/arm-none-eabi/include/c++/10.3.1/bits/std_function.h ****        *  @brief %Function assignment to a new target.
 441:/Library/DaisyToolchain/0.2.0/arm/arm-none-eabi/include/c++/10.3.1/bits/std_function.h ****        *  @param __f A %function object that is callable with parameters of
 442:/Library/DaisyToolchain/0.2.0/arm/arm-none-eabi/include/c++/10.3.1/bits/std_function.h ****        *  type @c T1, @c T2, ..., @c TN and returns a value convertible
 443:/Library/DaisyToolchain/0.2.0/arm/arm-none-eabi/include/c++/10.3.1/bits/std_function.h ****        *  to @c Res.
 444:/Library/DaisyToolchain/0.2.0/arm/arm-none-eabi/include/c++/10.3.1/bits/std_function.h ****        *  @return @c *this
 445:/Library/DaisyToolchain/0.2.0/arm/arm-none-eabi/include/c++/10.3.1/bits/std_function.h ****        *
 446:/Library/DaisyToolchain/0.2.0/arm/arm-none-eabi/include/c++/10.3.1/bits/std_function.h ****        *  This  %function object wrapper will target a copy of @a
 447:/Library/DaisyToolchain/0.2.0/arm/arm-none-eabi/include/c++/10.3.1/bits/std_function.h ****        *  __f. If @a __f is @c reference_wrapper<F>, then this function
 448:/Library/DaisyToolchain/0.2.0/arm/arm-none-eabi/include/c++/10.3.1/bits/std_function.h ****        *  object will contain a reference to the function object @c
 449:/Library/DaisyToolchain/0.2.0/arm/arm-none-eabi/include/c++/10.3.1/bits/std_function.h ****        *  __f.get(). If @a __f is a NULL function pointer or NULL
 450:/Library/DaisyToolchain/0.2.0/arm/arm-none-eabi/include/c++/10.3.1/bits/std_function.h ****        *  pointer-to-member, @c this object will be empty.
 451:/Library/DaisyToolchain/0.2.0/arm/arm-none-eabi/include/c++/10.3.1/bits/std_function.h ****        *
 452:/Library/DaisyToolchain/0.2.0/arm/arm-none-eabi/include/c++/10.3.1/bits/std_function.h ****        *  If @a __f is a non-NULL function pointer or an object of type @c
 453:/Library/DaisyToolchain/0.2.0/arm/arm-none-eabi/include/c++/10.3.1/bits/std_function.h ****        *  reference_wrapper<F>, this function will not throw.
 454:/Library/DaisyToolchain/0.2.0/arm/arm-none-eabi/include/c++/10.3.1/bits/std_function.h ****        */
 455:/Library/DaisyToolchain/0.2.0/arm/arm-none-eabi/include/c++/10.3.1/bits/std_function.h ****       template<typename _Functor>
 456:/Library/DaisyToolchain/0.2.0/arm/arm-none-eabi/include/c++/10.3.1/bits/std_function.h **** 	_Requires<_Callable<typename decay<_Functor>::type>, function&>
 457:/Library/DaisyToolchain/0.2.0/arm/arm-none-eabi/include/c++/10.3.1/bits/std_function.h **** 	operator=(_Functor&& __f)
 458:/Library/DaisyToolchain/0.2.0/arm/arm-none-eabi/include/c++/10.3.1/bits/std_function.h **** 	{
 459:/Library/DaisyToolchain/0.2.0/arm/arm-none-eabi/include/c++/10.3.1/bits/std_function.h **** 	  function(std::forward<_Functor>(__f)).swap(*this);
 460:/Library/DaisyToolchain/0.2.0/arm/arm-none-eabi/include/c++/10.3.1/bits/std_function.h **** 	  return *this;
 461:/Library/DaisyToolchain/0.2.0/arm/arm-none-eabi/include/c++/10.3.1/bits/std_function.h **** 	}
 462:/Library/DaisyToolchain/0.2.0/arm/arm-none-eabi/include/c++/10.3.1/bits/std_function.h **** 
 463:/Library/DaisyToolchain/0.2.0/arm/arm-none-eabi/include/c++/10.3.1/bits/std_function.h ****       /// @overload
 464:/Library/DaisyToolchain/0.2.0/arm/arm-none-eabi/include/c++/10.3.1/bits/std_function.h ****       template<typename _Functor>
 465:/Library/DaisyToolchain/0.2.0/arm/arm-none-eabi/include/c++/10.3.1/bits/std_function.h **** 	function&
 466:/Library/DaisyToolchain/0.2.0/arm/arm-none-eabi/include/c++/10.3.1/bits/std_function.h **** 	operator=(reference_wrapper<_Functor> __f) noexcept
 467:/Library/DaisyToolchain/0.2.0/arm/arm-none-eabi/include/c++/10.3.1/bits/std_function.h **** 	{
 468:/Library/DaisyToolchain/0.2.0/arm/arm-none-eabi/include/c++/10.3.1/bits/std_function.h **** 	  function(__f).swap(*this);
 469:/Library/DaisyToolchain/0.2.0/arm/arm-none-eabi/include/c++/10.3.1/bits/std_function.h **** 	  return *this;
 470:/Library/DaisyToolchain/0.2.0/arm/arm-none-eabi/include/c++/10.3.1/bits/std_function.h **** 	}
 471:/Library/DaisyToolchain/0.2.0/arm/arm-none-eabi/include/c++/10.3.1/bits/std_function.h **** 
 472:/Library/DaisyToolchain/0.2.0/arm/arm-none-eabi/include/c++/10.3.1/bits/std_function.h ****       // [3.7.2.2] function modifiers
 473:/Library/DaisyToolchain/0.2.0/arm/arm-none-eabi/include/c++/10.3.1/bits/std_function.h **** 
 474:/Library/DaisyToolchain/0.2.0/arm/arm-none-eabi/include/c++/10.3.1/bits/std_function.h ****       /**
ARM GAS  /var/folders/wz/z09yph4n0qj4t7mjxhl6ttn80000gn/T//ccxdcdyF.s 			page 70


 475:/Library/DaisyToolchain/0.2.0/arm/arm-none-eabi/include/c++/10.3.1/bits/std_function.h ****        *  @brief Swap the targets of two %function objects.
 476:/Library/DaisyToolchain/0.2.0/arm/arm-none-eabi/include/c++/10.3.1/bits/std_function.h ****        *  @param __x A %function with identical call signature.
 477:/Library/DaisyToolchain/0.2.0/arm/arm-none-eabi/include/c++/10.3.1/bits/std_function.h ****        *
 478:/Library/DaisyToolchain/0.2.0/arm/arm-none-eabi/include/c++/10.3.1/bits/std_function.h ****        *  Swap the targets of @c this function object and @a __f. This
 479:/Library/DaisyToolchain/0.2.0/arm/arm-none-eabi/include/c++/10.3.1/bits/std_function.h ****        *  function will not throw an %exception.
 480:/Library/DaisyToolchain/0.2.0/arm/arm-none-eabi/include/c++/10.3.1/bits/std_function.h ****        */
 481:/Library/DaisyToolchain/0.2.0/arm/arm-none-eabi/include/c++/10.3.1/bits/std_function.h ****       void swap(function& __x) noexcept
 482:/Library/DaisyToolchain/0.2.0/arm/arm-none-eabi/include/c++/10.3.1/bits/std_function.h ****       {
 483:/Library/DaisyToolchain/0.2.0/arm/arm-none-eabi/include/c++/10.3.1/bits/std_function.h **** 	std::swap(_M_functor, __x._M_functor);
 484:/Library/DaisyToolchain/0.2.0/arm/arm-none-eabi/include/c++/10.3.1/bits/std_function.h **** 	std::swap(_M_manager, __x._M_manager);
 485:/Library/DaisyToolchain/0.2.0/arm/arm-none-eabi/include/c++/10.3.1/bits/std_function.h **** 	std::swap(_M_invoker, __x._M_invoker);
 486:/Library/DaisyToolchain/0.2.0/arm/arm-none-eabi/include/c++/10.3.1/bits/std_function.h ****       }
 487:/Library/DaisyToolchain/0.2.0/arm/arm-none-eabi/include/c++/10.3.1/bits/std_function.h **** 
 488:/Library/DaisyToolchain/0.2.0/arm/arm-none-eabi/include/c++/10.3.1/bits/std_function.h ****       // [3.7.2.3] function capacity
 489:/Library/DaisyToolchain/0.2.0/arm/arm-none-eabi/include/c++/10.3.1/bits/std_function.h **** 
 490:/Library/DaisyToolchain/0.2.0/arm/arm-none-eabi/include/c++/10.3.1/bits/std_function.h ****       /**
 491:/Library/DaisyToolchain/0.2.0/arm/arm-none-eabi/include/c++/10.3.1/bits/std_function.h ****        *  @brief Determine if the %function wrapper has a target.
 492:/Library/DaisyToolchain/0.2.0/arm/arm-none-eabi/include/c++/10.3.1/bits/std_function.h ****        *
 493:/Library/DaisyToolchain/0.2.0/arm/arm-none-eabi/include/c++/10.3.1/bits/std_function.h ****        *  @return @c true when this %function object contains a target,
 494:/Library/DaisyToolchain/0.2.0/arm/arm-none-eabi/include/c++/10.3.1/bits/std_function.h ****        *  or @c false when it is empty.
 495:/Library/DaisyToolchain/0.2.0/arm/arm-none-eabi/include/c++/10.3.1/bits/std_function.h ****        *
 496:/Library/DaisyToolchain/0.2.0/arm/arm-none-eabi/include/c++/10.3.1/bits/std_function.h ****        *  This function will not throw an %exception.
 497:/Library/DaisyToolchain/0.2.0/arm/arm-none-eabi/include/c++/10.3.1/bits/std_function.h ****        */
 498:/Library/DaisyToolchain/0.2.0/arm/arm-none-eabi/include/c++/10.3.1/bits/std_function.h ****       explicit operator bool() const noexcept
 499:/Library/DaisyToolchain/0.2.0/arm/arm-none-eabi/include/c++/10.3.1/bits/std_function.h ****       { return !_M_empty(); }
 500:/Library/DaisyToolchain/0.2.0/arm/arm-none-eabi/include/c++/10.3.1/bits/std_function.h **** 
 501:/Library/DaisyToolchain/0.2.0/arm/arm-none-eabi/include/c++/10.3.1/bits/std_function.h ****       // [3.7.2.4] function invocation
 502:/Library/DaisyToolchain/0.2.0/arm/arm-none-eabi/include/c++/10.3.1/bits/std_function.h **** 
 503:/Library/DaisyToolchain/0.2.0/arm/arm-none-eabi/include/c++/10.3.1/bits/std_function.h ****       /**
 504:/Library/DaisyToolchain/0.2.0/arm/arm-none-eabi/include/c++/10.3.1/bits/std_function.h ****        *  @brief Invokes the function targeted by @c *this.
 505:/Library/DaisyToolchain/0.2.0/arm/arm-none-eabi/include/c++/10.3.1/bits/std_function.h ****        *  @returns the result of the target.
 506:/Library/DaisyToolchain/0.2.0/arm/arm-none-eabi/include/c++/10.3.1/bits/std_function.h ****        *  @throws bad_function_call when @c !(bool)*this
 507:/Library/DaisyToolchain/0.2.0/arm/arm-none-eabi/include/c++/10.3.1/bits/std_function.h ****        *
 508:/Library/DaisyToolchain/0.2.0/arm/arm-none-eabi/include/c++/10.3.1/bits/std_function.h ****        *  The function call operator invokes the target function object
 509:/Library/DaisyToolchain/0.2.0/arm/arm-none-eabi/include/c++/10.3.1/bits/std_function.h ****        *  stored by @c this.
 510:/Library/DaisyToolchain/0.2.0/arm/arm-none-eabi/include/c++/10.3.1/bits/std_function.h ****        */
 511:/Library/DaisyToolchain/0.2.0/arm/arm-none-eabi/include/c++/10.3.1/bits/std_function.h ****       _Res operator()(_ArgTypes... __args) const;
 512:/Library/DaisyToolchain/0.2.0/arm/arm-none-eabi/include/c++/10.3.1/bits/std_function.h **** 
 513:/Library/DaisyToolchain/0.2.0/arm/arm-none-eabi/include/c++/10.3.1/bits/std_function.h **** #if __cpp_rtti
 514:/Library/DaisyToolchain/0.2.0/arm/arm-none-eabi/include/c++/10.3.1/bits/std_function.h ****       // [3.7.2.5] function target access
 515:/Library/DaisyToolchain/0.2.0/arm/arm-none-eabi/include/c++/10.3.1/bits/std_function.h ****       /**
 516:/Library/DaisyToolchain/0.2.0/arm/arm-none-eabi/include/c++/10.3.1/bits/std_function.h ****        *  @brief Determine the type of the target of this function object
 517:/Library/DaisyToolchain/0.2.0/arm/arm-none-eabi/include/c++/10.3.1/bits/std_function.h ****        *  wrapper.
 518:/Library/DaisyToolchain/0.2.0/arm/arm-none-eabi/include/c++/10.3.1/bits/std_function.h ****        *
 519:/Library/DaisyToolchain/0.2.0/arm/arm-none-eabi/include/c++/10.3.1/bits/std_function.h ****        *  @returns the type identifier of the target function object, or
 520:/Library/DaisyToolchain/0.2.0/arm/arm-none-eabi/include/c++/10.3.1/bits/std_function.h ****        *  @c typeid(void) if @c !(bool)*this.
 521:/Library/DaisyToolchain/0.2.0/arm/arm-none-eabi/include/c++/10.3.1/bits/std_function.h ****        *
 522:/Library/DaisyToolchain/0.2.0/arm/arm-none-eabi/include/c++/10.3.1/bits/std_function.h ****        *  This function will not throw an %exception.
 523:/Library/DaisyToolchain/0.2.0/arm/arm-none-eabi/include/c++/10.3.1/bits/std_function.h ****        */
 524:/Library/DaisyToolchain/0.2.0/arm/arm-none-eabi/include/c++/10.3.1/bits/std_function.h ****       const type_info& target_type() const noexcept;
 525:/Library/DaisyToolchain/0.2.0/arm/arm-none-eabi/include/c++/10.3.1/bits/std_function.h **** 
 526:/Library/DaisyToolchain/0.2.0/arm/arm-none-eabi/include/c++/10.3.1/bits/std_function.h ****       /**
 527:/Library/DaisyToolchain/0.2.0/arm/arm-none-eabi/include/c++/10.3.1/bits/std_function.h ****        *  @brief Access the stored target function object.
 528:/Library/DaisyToolchain/0.2.0/arm/arm-none-eabi/include/c++/10.3.1/bits/std_function.h ****        *
 529:/Library/DaisyToolchain/0.2.0/arm/arm-none-eabi/include/c++/10.3.1/bits/std_function.h ****        *  @return Returns a pointer to the stored target function object,
 530:/Library/DaisyToolchain/0.2.0/arm/arm-none-eabi/include/c++/10.3.1/bits/std_function.h ****        *  if @c typeid(_Functor).equals(target_type()); otherwise, a NULL
 531:/Library/DaisyToolchain/0.2.0/arm/arm-none-eabi/include/c++/10.3.1/bits/std_function.h ****        *  pointer.
ARM GAS  /var/folders/wz/z09yph4n0qj4t7mjxhl6ttn80000gn/T//ccxdcdyF.s 			page 71


 532:/Library/DaisyToolchain/0.2.0/arm/arm-none-eabi/include/c++/10.3.1/bits/std_function.h ****        *
 533:/Library/DaisyToolchain/0.2.0/arm/arm-none-eabi/include/c++/10.3.1/bits/std_function.h ****        * This function does not throw exceptions.
 534:/Library/DaisyToolchain/0.2.0/arm/arm-none-eabi/include/c++/10.3.1/bits/std_function.h ****        *
 535:/Library/DaisyToolchain/0.2.0/arm/arm-none-eabi/include/c++/10.3.1/bits/std_function.h ****        * @{
 536:/Library/DaisyToolchain/0.2.0/arm/arm-none-eabi/include/c++/10.3.1/bits/std_function.h ****        */
 537:/Library/DaisyToolchain/0.2.0/arm/arm-none-eabi/include/c++/10.3.1/bits/std_function.h ****       template<typename _Functor>       _Functor* target() noexcept;
 538:/Library/DaisyToolchain/0.2.0/arm/arm-none-eabi/include/c++/10.3.1/bits/std_function.h **** 
 539:/Library/DaisyToolchain/0.2.0/arm/arm-none-eabi/include/c++/10.3.1/bits/std_function.h ****       template<typename _Functor> const _Functor* target() const noexcept;
 540:/Library/DaisyToolchain/0.2.0/arm/arm-none-eabi/include/c++/10.3.1/bits/std_function.h ****       /// @}
 541:/Library/DaisyToolchain/0.2.0/arm/arm-none-eabi/include/c++/10.3.1/bits/std_function.h **** #endif
 542:/Library/DaisyToolchain/0.2.0/arm/arm-none-eabi/include/c++/10.3.1/bits/std_function.h **** 
 543:/Library/DaisyToolchain/0.2.0/arm/arm-none-eabi/include/c++/10.3.1/bits/std_function.h ****     private:
 544:/Library/DaisyToolchain/0.2.0/arm/arm-none-eabi/include/c++/10.3.1/bits/std_function.h ****       using _Invoker_type = _Res (*)(const _Any_data&, _ArgTypes&&...);
 545:/Library/DaisyToolchain/0.2.0/arm/arm-none-eabi/include/c++/10.3.1/bits/std_function.h ****       _Invoker_type _M_invoker;
 546:/Library/DaisyToolchain/0.2.0/arm/arm-none-eabi/include/c++/10.3.1/bits/std_function.h ****   };
 547:/Library/DaisyToolchain/0.2.0/arm/arm-none-eabi/include/c++/10.3.1/bits/std_function.h **** 
 548:/Library/DaisyToolchain/0.2.0/arm/arm-none-eabi/include/c++/10.3.1/bits/std_function.h **** #if __cpp_deduction_guides >= 201606
 549:/Library/DaisyToolchain/0.2.0/arm/arm-none-eabi/include/c++/10.3.1/bits/std_function.h ****   template<typename>
 550:/Library/DaisyToolchain/0.2.0/arm/arm-none-eabi/include/c++/10.3.1/bits/std_function.h ****     struct __function_guide_helper
 551:/Library/DaisyToolchain/0.2.0/arm/arm-none-eabi/include/c++/10.3.1/bits/std_function.h ****     { };
 552:/Library/DaisyToolchain/0.2.0/arm/arm-none-eabi/include/c++/10.3.1/bits/std_function.h **** 
 553:/Library/DaisyToolchain/0.2.0/arm/arm-none-eabi/include/c++/10.3.1/bits/std_function.h ****   template<typename _Res, typename _Tp, bool _Nx, typename... _Args>
 554:/Library/DaisyToolchain/0.2.0/arm/arm-none-eabi/include/c++/10.3.1/bits/std_function.h ****     struct __function_guide_helper<
 555:/Library/DaisyToolchain/0.2.0/arm/arm-none-eabi/include/c++/10.3.1/bits/std_function.h ****       _Res (_Tp::*) (_Args...) noexcept(_Nx)
 556:/Library/DaisyToolchain/0.2.0/arm/arm-none-eabi/include/c++/10.3.1/bits/std_function.h ****     >
 557:/Library/DaisyToolchain/0.2.0/arm/arm-none-eabi/include/c++/10.3.1/bits/std_function.h ****     { using type = _Res(_Args...); };
 558:/Library/DaisyToolchain/0.2.0/arm/arm-none-eabi/include/c++/10.3.1/bits/std_function.h **** 
 559:/Library/DaisyToolchain/0.2.0/arm/arm-none-eabi/include/c++/10.3.1/bits/std_function.h ****   template<typename _Res, typename _Tp, bool _Nx, typename... _Args>
 560:/Library/DaisyToolchain/0.2.0/arm/arm-none-eabi/include/c++/10.3.1/bits/std_function.h ****     struct __function_guide_helper<
 561:/Library/DaisyToolchain/0.2.0/arm/arm-none-eabi/include/c++/10.3.1/bits/std_function.h ****       _Res (_Tp::*) (_Args...) & noexcept(_Nx)
 562:/Library/DaisyToolchain/0.2.0/arm/arm-none-eabi/include/c++/10.3.1/bits/std_function.h ****     >
 563:/Library/DaisyToolchain/0.2.0/arm/arm-none-eabi/include/c++/10.3.1/bits/std_function.h ****     { using type = _Res(_Args...); };
 564:/Library/DaisyToolchain/0.2.0/arm/arm-none-eabi/include/c++/10.3.1/bits/std_function.h **** 
 565:/Library/DaisyToolchain/0.2.0/arm/arm-none-eabi/include/c++/10.3.1/bits/std_function.h ****   template<typename _Res, typename _Tp, bool _Nx, typename... _Args>
 566:/Library/DaisyToolchain/0.2.0/arm/arm-none-eabi/include/c++/10.3.1/bits/std_function.h ****     struct __function_guide_helper<
 567:/Library/DaisyToolchain/0.2.0/arm/arm-none-eabi/include/c++/10.3.1/bits/std_function.h ****       _Res (_Tp::*) (_Args...) const noexcept(_Nx)
 568:/Library/DaisyToolchain/0.2.0/arm/arm-none-eabi/include/c++/10.3.1/bits/std_function.h ****     >
 569:/Library/DaisyToolchain/0.2.0/arm/arm-none-eabi/include/c++/10.3.1/bits/std_function.h ****     { using type = _Res(_Args...); };
 570:/Library/DaisyToolchain/0.2.0/arm/arm-none-eabi/include/c++/10.3.1/bits/std_function.h **** 
 571:/Library/DaisyToolchain/0.2.0/arm/arm-none-eabi/include/c++/10.3.1/bits/std_function.h ****   template<typename _Res, typename _Tp, bool _Nx, typename... _Args>
 572:/Library/DaisyToolchain/0.2.0/arm/arm-none-eabi/include/c++/10.3.1/bits/std_function.h ****     struct __function_guide_helper<
 573:/Library/DaisyToolchain/0.2.0/arm/arm-none-eabi/include/c++/10.3.1/bits/std_function.h ****       _Res (_Tp::*) (_Args...) const & noexcept(_Nx)
 574:/Library/DaisyToolchain/0.2.0/arm/arm-none-eabi/include/c++/10.3.1/bits/std_function.h ****     >
 575:/Library/DaisyToolchain/0.2.0/arm/arm-none-eabi/include/c++/10.3.1/bits/std_function.h ****     { using type = _Res(_Args...); };
 576:/Library/DaisyToolchain/0.2.0/arm/arm-none-eabi/include/c++/10.3.1/bits/std_function.h **** 
 577:/Library/DaisyToolchain/0.2.0/arm/arm-none-eabi/include/c++/10.3.1/bits/std_function.h ****   template<typename _Res, typename... _ArgTypes>
 578:/Library/DaisyToolchain/0.2.0/arm/arm-none-eabi/include/c++/10.3.1/bits/std_function.h ****     function(_Res(*)(_ArgTypes...)) -> function<_Res(_ArgTypes...)>;
 579:/Library/DaisyToolchain/0.2.0/arm/arm-none-eabi/include/c++/10.3.1/bits/std_function.h **** 
 580:/Library/DaisyToolchain/0.2.0/arm/arm-none-eabi/include/c++/10.3.1/bits/std_function.h ****   template<typename _Functor, typename _Signature = typename
 581:/Library/DaisyToolchain/0.2.0/arm/arm-none-eabi/include/c++/10.3.1/bits/std_function.h **** 	   __function_guide_helper<decltype(&_Functor::operator())>::type>
 582:/Library/DaisyToolchain/0.2.0/arm/arm-none-eabi/include/c++/10.3.1/bits/std_function.h ****     function(_Functor) -> function<_Signature>;
 583:/Library/DaisyToolchain/0.2.0/arm/arm-none-eabi/include/c++/10.3.1/bits/std_function.h **** #endif
 584:/Library/DaisyToolchain/0.2.0/arm/arm-none-eabi/include/c++/10.3.1/bits/std_function.h **** 
 585:/Library/DaisyToolchain/0.2.0/arm/arm-none-eabi/include/c++/10.3.1/bits/std_function.h ****   // Out-of-line member definitions.
 586:/Library/DaisyToolchain/0.2.0/arm/arm-none-eabi/include/c++/10.3.1/bits/std_function.h ****   template<typename _Res, typename... _ArgTypes>
 587:/Library/DaisyToolchain/0.2.0/arm/arm-none-eabi/include/c++/10.3.1/bits/std_function.h ****     function<_Res(_ArgTypes...)>::
 588:/Library/DaisyToolchain/0.2.0/arm/arm-none-eabi/include/c++/10.3.1/bits/std_function.h ****     function(const function& __x)
ARM GAS  /var/folders/wz/z09yph4n0qj4t7mjxhl6ttn80000gn/T//ccxdcdyF.s 			page 72


 589:/Library/DaisyToolchain/0.2.0/arm/arm-none-eabi/include/c++/10.3.1/bits/std_function.h ****     : _Function_base()
 590:/Library/DaisyToolchain/0.2.0/arm/arm-none-eabi/include/c++/10.3.1/bits/std_function.h ****     {
 591:/Library/DaisyToolchain/0.2.0/arm/arm-none-eabi/include/c++/10.3.1/bits/std_function.h ****       if (static_cast<bool>(__x))
 592:/Library/DaisyToolchain/0.2.0/arm/arm-none-eabi/include/c++/10.3.1/bits/std_function.h **** 	{
 593:/Library/DaisyToolchain/0.2.0/arm/arm-none-eabi/include/c++/10.3.1/bits/std_function.h **** 	  __x._M_manager(_M_functor, __x._M_functor, __clone_functor);
 594:/Library/DaisyToolchain/0.2.0/arm/arm-none-eabi/include/c++/10.3.1/bits/std_function.h **** 	  _M_invoker = __x._M_invoker;
 595:/Library/DaisyToolchain/0.2.0/arm/arm-none-eabi/include/c++/10.3.1/bits/std_function.h **** 	  _M_manager = __x._M_manager;
 596:/Library/DaisyToolchain/0.2.0/arm/arm-none-eabi/include/c++/10.3.1/bits/std_function.h **** 	}
 597:/Library/DaisyToolchain/0.2.0/arm/arm-none-eabi/include/c++/10.3.1/bits/std_function.h ****     }
 598:/Library/DaisyToolchain/0.2.0/arm/arm-none-eabi/include/c++/10.3.1/bits/std_function.h **** 
 599:/Library/DaisyToolchain/0.2.0/arm/arm-none-eabi/include/c++/10.3.1/bits/std_function.h ****   template<typename _Res, typename... _ArgTypes>
 600:/Library/DaisyToolchain/0.2.0/arm/arm-none-eabi/include/c++/10.3.1/bits/std_function.h ****     template<typename _Functor, typename, typename>
 601:/Library/DaisyToolchain/0.2.0/arm/arm-none-eabi/include/c++/10.3.1/bits/std_function.h ****       function<_Res(_ArgTypes...)>::
 2950              		.loc 3 601 7
 2951              		.cfi_startproc
 2952              		@ args = 0, pretend = 0, frame = 8
 2953              		@ frame_needed = 1, uses_anonymous_args = 0
 2954 0000 90B5     		push	{r4, r7, lr}
 2955              		.cfi_def_cfa_offset 12
 2956              		.cfi_offset 4, -12
 2957              		.cfi_offset 7, -8
 2958              		.cfi_offset 14, -4
 2959 0002 83B0     		sub	sp, sp, #12
 2960              		.cfi_def_cfa_offset 24
 2961 0004 00AF     		add	r7, sp, #0
 2962              		.cfi_def_cfa_register 7
 2963 0006 7860     		str	r0, [r7, #4]
 2964 0008 3960     		str	r1, [r7]
 2965              	.LBB11:
 602:/Library/DaisyToolchain/0.2.0/arm/arm-none-eabi/include/c++/10.3.1/bits/std_function.h ****       function(_Functor __f)
 603:/Library/DaisyToolchain/0.2.0/arm/arm-none-eabi/include/c++/10.3.1/bits/std_function.h ****       : _Function_base()
 2966              		.loc 3 603 24
 2967 000a 7B68     		ldr	r3, [r7, #4]
 2968 000c 1846     		mov	r0, r3
 2969 000e FFF7FEFF 		bl	_ZNSt14_Function_baseC2Ev
 2970              	.LBB12:
 604:/Library/DaisyToolchain/0.2.0/arm/arm-none-eabi/include/c++/10.3.1/bits/std_function.h ****       {
 605:/Library/DaisyToolchain/0.2.0/arm/arm-none-eabi/include/c++/10.3.1/bits/std_function.h **** 	typedef _Function_handler<_Res(_ArgTypes...), _Functor> _My_handler;
 606:/Library/DaisyToolchain/0.2.0/arm/arm-none-eabi/include/c++/10.3.1/bits/std_function.h **** 
 607:/Library/DaisyToolchain/0.2.0/arm/arm-none-eabi/include/c++/10.3.1/bits/std_function.h **** 	if (_My_handler::_M_not_empty_function(__f))
 2971              		.loc 3 607 40
 2972 0012 3B46     		mov	r3, r7
 2973 0014 1846     		mov	r0, r3
 2974 0016 FFF7FEFF 		bl	_ZNSt14_Function_base13_Base_managerIZN5Mixer4initEPN5daisy9DaisySeedEPPfS6_S6_S6_S6_PPN7daisys
 2975 001a 0346     		mov	r3, r0
 2976              		.loc 3 607 2
 2977 001c 002B     		cmp	r3, #0
 2978 001e 0FD0     		beq	.L84
 608:/Library/DaisyToolchain/0.2.0/arm/arm-none-eabi/include/c++/10.3.1/bits/std_function.h **** 	  {
 609:/Library/DaisyToolchain/0.2.0/arm/arm-none-eabi/include/c++/10.3.1/bits/std_function.h **** 	    _My_handler::_M_init_functor(_M_functor, std::move(__f));
 2979              		.loc 3 609 35
 2980 0020 7C68     		ldr	r4, [r7, #4]
 2981              		.loc 3 609 56
 2982 0022 3B46     		mov	r3, r7
 2983 0024 1846     		mov	r0, r3
 2984 0026 FFF7FEFF 		bl	_ZSt4moveIRZN5Mixer4initEPN5daisy9DaisySeedEPPfS5_S5_S5_S5_PPN7daisysp9DelayLineIfLj240000EEEEU
 2985 002a 0346     		mov	r3, r0
ARM GAS  /var/folders/wz/z09yph4n0qj4t7mjxhl6ttn80000gn/T//ccxdcdyF.s 			page 73


 2986              		.loc 3 609 34
 2987 002c 1946     		mov	r1, r3
 2988 002e 2046     		mov	r0, r4
 2989 0030 FFF7FEFF 		bl	_ZNSt14_Function_base13_Base_managerIZN5Mixer4initEPN5daisy9DaisySeedEPPfS6_S6_S6_S6_PPN7daisys
 610:/Library/DaisyToolchain/0.2.0/arm/arm-none-eabi/include/c++/10.3.1/bits/std_function.h **** 	    _M_invoker = &_My_handler::_M_invoke;
 2990              		.loc 3 610 17
 2991 0034 7B68     		ldr	r3, [r7, #4]
 2992 0036 054A     		ldr	r2, .L86
 2993 0038 DA60     		str	r2, [r3, #12]
 611:/Library/DaisyToolchain/0.2.0/arm/arm-none-eabi/include/c++/10.3.1/bits/std_function.h **** 	    _M_manager = &_My_handler::_M_manager;
 2994              		.loc 3 611 17
 2995 003a 7B68     		ldr	r3, [r7, #4]
 2996 003c 044A     		ldr	r2, .L86+4
 2997 003e 9A60     		str	r2, [r3, #8]
 2998              	.L84:
 2999              	.LBE12:
 3000              	.LBE11:
 612:/Library/DaisyToolchain/0.2.0/arm/arm-none-eabi/include/c++/10.3.1/bits/std_function.h **** 	  }
 613:/Library/DaisyToolchain/0.2.0/arm/arm-none-eabi/include/c++/10.3.1/bits/std_function.h ****       }
 3001              		.loc 3 613 7
 3002 0040 7B68     		ldr	r3, [r7, #4]
 3003 0042 1846     		mov	r0, r3
 3004 0044 0C37     		adds	r7, r7, #12
 3005              		.cfi_def_cfa_offset 12
 3006 0046 BD46     		mov	sp, r7
 3007              		.cfi_def_cfa_register 13
 3008              		@ sp needed
 3009 0048 90BD     		pop	{r4, r7, pc}
 3010              	.L87:
 3011 004a 00BF     		.align	2
 3012              	.L86:
 3013 004c 00000000 		.word	_ZNSt17_Function_handlerIFvfEZN5Mixer4initEPN5daisy9DaisySeedEPPfS6_S6_S6_S6_PPN7daisysp9Del
 3014 0050 00000000 		.word	_ZNSt17_Function_handlerIFvfEZN5Mixer4initEPN5daisy9DaisySeedEPPfS6_S6_S6_S6_PPN7daisysp9Del
 3015              		.cfi_endproc
 3016              	.LFE6003:
 3018              		.thumb_set _ZNSt8functionIFvfEEC1IZN5Mixer4initEPN5daisy9DaisySeedEPPfS8_S8_S8_S8_PPN7daisysp9Dela
 3019              		.section	.text._ZN14AudioParameterIfE4initEPN5daisy9DaisySeedEff9CurveTypehSt8functionIFvfEE,"axG"
 3020              		.align	1
 3021              		.weak	_ZN14AudioParameterIfE4initEPN5daisy9DaisySeedEff9CurveTypehSt8functionIFvfEE
 3022              		.syntax unified
 3023              		.thumb
 3024              		.thumb_func
 3026              	_ZN14AudioParameterIfE4initEPN5daisy9DaisySeedEff9CurveTypehSt8functionIFvfEE:
 3027              	.LFB6008:
 3028              		.file 7 "DSP/FX/../../Parameters/AudioParameter.h"
   1:DSP/FX/../../Parameters/AudioParameter.h **** #ifndef AUDIOPARAMETER_H
   2:DSP/FX/../../Parameters/AudioParameter.h **** #define AUDIOPARAMETER_H
   3:DSP/FX/../../Parameters/AudioParameter.h **** 
   4:DSP/FX/../../Parameters/AudioParameter.h **** #include "daisy_seed.h"
   5:DSP/FX/../../Parameters/AudioParameter.h **** #include "daisysp.h"
   6:DSP/FX/../../Parameters/AudioParameter.h **** #include "../Utils/Helpers.h"
   7:DSP/FX/../../Parameters/AudioParameter.h **** #include "../Utils/Constants.h"
   8:DSP/FX/../../Parameters/AudioParameter.h **** #include <cstdint>
   9:DSP/FX/../../Parameters/AudioParameter.h **** #include <functional>
  10:DSP/FX/../../Parameters/AudioParameter.h **** #include <memory>
  11:DSP/FX/../../Parameters/AudioParameter.h **** #include <type_traits>
  12:DSP/FX/../../Parameters/AudioParameter.h **** 
ARM GAS  /var/folders/wz/z09yph4n0qj4t7mjxhl6ttn80000gn/T//ccxdcdyF.s 			page 74


  13:DSP/FX/../../Parameters/AudioParameter.h **** /*****************************************************************************//**
  14:DSP/FX/../../Parameters/AudioParameter.h ****  *  Class name: AudioParameter
  15:DSP/FX/../../Parameters/AudioParameter.h ****  *  Function: Parameter object for DSP classes that contains pot boilerplate code
  16:DSP/FX/../../Parameters/AudioParameter.h ****  ********************************************************************************/
  17:DSP/FX/../../Parameters/AudioParameter.h **** 
  18:DSP/FX/../../Parameters/AudioParameter.h **** using namespace daisy;
  19:DSP/FX/../../Parameters/AudioParameter.h **** 
  20:DSP/FX/../../Parameters/AudioParameter.h **** template <class type>
  21:DSP/FX/../../Parameters/AudioParameter.h **** class AudioParameter
  22:DSP/FX/../../Parameters/AudioParameter.h **** {
  23:DSP/FX/../../Parameters/AudioParameter.h **** public:
  24:DSP/FX/../../Parameters/AudioParameter.h **** 
  25:DSP/FX/../../Parameters/AudioParameter.h ****     void init(DaisySeed* seed, type mi, type ma, CurveType c, uint8_t ID, std::function<void(type)>
 3029              		.loc 7 25 10
 3030              		.cfi_startproc
 3031              		@ args = 4, pretend = 0, frame = 24
 3032              		@ frame_needed = 1, uses_anonymous_args = 0
 3033 0000 80B5     		push	{r7, lr}
 3034              		.cfi_def_cfa_offset 8
 3035              		.cfi_offset 7, -8
 3036              		.cfi_offset 14, -4
 3037 0002 86B0     		sub	sp, sp, #24
 3038              		.cfi_def_cfa_offset 32
 3039 0004 00AF     		add	r7, sp, #0
 3040              		.cfi_def_cfa_register 7
 3041 0006 7861     		str	r0, [r7, #20]
 3042 0008 3961     		str	r1, [r7, #16]
 3043 000a 87ED030A 		vstr.32	s0, [r7, #12]
 3044 000e C7ED020A 		vstr.32	s1, [r7, #8]
 3045 0012 1146     		mov	r1, r2
 3046 0014 1A46     		mov	r2, r3
 3047 0016 0B46     		mov	r3, r1
 3048 0018 FB71     		strb	r3, [r7, #7]
 3049 001a 1346     		mov	r3, r2
 3050 001c BB71     		strb	r3, [r7, #6]
  26:DSP/FX/../../Parameters/AudioParameter.h ****     {
  27:DSP/FX/../../Parameters/AudioParameter.h ****         hw = seed;
 3051              		.loc 7 27 12
 3052 001e 7B69     		ldr	r3, [r7, #20]
 3053 0020 3A69     		ldr	r2, [r7, #16]
 3054 0022 1A60     		str	r2, [r3]
  28:DSP/FX/../../Parameters/AudioParameter.h ****         input = 0;
 3055              		.loc 7 28 15
 3056 0024 7B69     		ldr	r3, [r7, #20]
 3057 0026 4FF00002 		mov	r2, #0
 3058 002a 5A60     		str	r2, [r3, #4]	@ float
  29:DSP/FX/../../Parameters/AudioParameter.h **** 
  30:DSP/FX/../../Parameters/AudioParameter.h ****         curVal = 0;
 3059              		.loc 7 30 16
 3060 002c 7B69     		ldr	r3, [r7, #20]
 3061 002e 4FF00002 		mov	r2, #0
 3062 0032 DA60     		str	r2, [r3, #12]	@ float
  31:DSP/FX/../../Parameters/AudioParameter.h ****         min = mi;
 3063              		.loc 7 31 13
 3064 0034 7B69     		ldr	r3, [r7, #20]
 3065 0036 FA68     		ldr	r2, [r7, #12]	@ float
 3066 0038 1A61     		str	r2, [r3, #16]	@ float
ARM GAS  /var/folders/wz/z09yph4n0qj4t7mjxhl6ttn80000gn/T//ccxdcdyF.s 			page 75


  32:DSP/FX/../../Parameters/AudioParameter.h ****         max = ma;
 3067              		.loc 7 32 13
 3068 003a 7B69     		ldr	r3, [r7, #20]
 3069 003c BA68     		ldr	r2, [r7, #8]	@ float
 3070 003e 5A61     		str	r2, [r3, #20]	@ float
  33:DSP/FX/../../Parameters/AudioParameter.h **** 
  34:DSP/FX/../../Parameters/AudioParameter.h ****         curve = c;
 3071              		.loc 7 34 15
 3072 0040 7B69     		ldr	r3, [r7, #20]
 3073 0042 FA79     		ldrb	r2, [r7, #7]
 3074 0044 5A76     		strb	r2, [r3, #25]
  35:DSP/FX/../../Parameters/AudioParameter.h ****         channelID = ID;
 3075              		.loc 7 35 19
 3076 0046 7B69     		ldr	r3, [r7, #20]
 3077 0048 BA79     		ldrb	r2, [r7, #6]
 3078 004a 1A76     		strb	r2, [r3, #24]
  36:DSP/FX/../../Parameters/AudioParameter.h ****         callback = cb;
 3079              		.loc 7 36 18
 3080 004c 7B69     		ldr	r3, [r7, #20]
 3081 004e 1C33     		adds	r3, r3, #28
 3082 0050 396A     		ldr	r1, [r7, #32]
 3083 0052 1846     		mov	r0, r3
 3084 0054 FFF7FEFF 		bl	_ZNSt8functionIFvfEEaSERKS1_
  37:DSP/FX/../../Parameters/AudioParameter.h **** 
  38:DSP/FX/../../Parameters/AudioParameter.h ****         if(channelID != ChannelIDs::ENCODER)
 3085              		.loc 7 38 12
 3086 0058 7B69     		ldr	r3, [r7, #20]
 3087 005a 1B7E     		ldrb	r3, [r3, #24]	@ zero_extendqisi2
 3088              		.loc 7 38 9
 3089 005c 052B     		cmp	r3, #5
 3090 005e 02D0     		beq	.L90
  39:DSP/FX/../../Parameters/AudioParameter.h ****             isSelected = true;
 3091              		.loc 7 39 24
 3092 0060 7B69     		ldr	r3, [r7, #20]
 3093 0062 0122     		movs	r2, #1
 3094 0064 9A76     		strb	r2, [r3, #26]
 3095              	.L90:
  40:DSP/FX/../../Parameters/AudioParameter.h ****     }
 3096              		.loc 7 40 5
 3097 0066 00BF     		nop
 3098 0068 1837     		adds	r7, r7, #24
 3099              		.cfi_def_cfa_offset 8
 3100 006a BD46     		mov	sp, r7
 3101              		.cfi_def_cfa_register 13
 3102              		@ sp needed
 3103 006c 80BD     		pop	{r7, pc}
 3104              		.cfi_endproc
 3105              	.LFE6008:
 3107              		.section	.text._ZNSt8functionIFvfEEC2IZN5Mixer11initTrackIOEPN5daisy9DaisySeedE7TrackIOS7_S7_S7_EU
 3108              		.align	1
 3109              		.syntax unified
 3110              		.thumb
 3111              		.thumb_func
 3113              	_ZNSt8functionIFvfEEC2IZN5Mixer11initTrackIOEPN5daisy9DaisySeedE7TrackIOS7_S7_S7_EUlfE_vvEET_:
 3114              	.LFB6011:
 601:/Library/DaisyToolchain/0.2.0/arm/arm-none-eabi/include/c++/10.3.1/bits/std_function.h ****       function(_Functor __f)
 3115              		.loc 3 601 7
ARM GAS  /var/folders/wz/z09yph4n0qj4t7mjxhl6ttn80000gn/T//ccxdcdyF.s 			page 76


 3116              		.cfi_startproc
 3117              		@ args = 0, pretend = 0, frame = 8
 3118              		@ frame_needed = 1, uses_anonymous_args = 0
 3119 0000 90B5     		push	{r4, r7, lr}
 3120              		.cfi_def_cfa_offset 12
 3121              		.cfi_offset 4, -12
 3122              		.cfi_offset 7, -8
 3123              		.cfi_offset 14, -4
 3124 0002 83B0     		sub	sp, sp, #12
 3125              		.cfi_def_cfa_offset 24
 3126 0004 00AF     		add	r7, sp, #0
 3127              		.cfi_def_cfa_register 7
 3128 0006 7860     		str	r0, [r7, #4]
 3129 0008 3960     		str	r1, [r7]
 3130              	.LBB13:
 603:/Library/DaisyToolchain/0.2.0/arm/arm-none-eabi/include/c++/10.3.1/bits/std_function.h ****       {
 3131              		.loc 3 603 24
 3132 000a 7B68     		ldr	r3, [r7, #4]
 3133 000c 1846     		mov	r0, r3
 3134 000e FFF7FEFF 		bl	_ZNSt14_Function_baseC2Ev
 3135              	.LBB14:
 607:/Library/DaisyToolchain/0.2.0/arm/arm-none-eabi/include/c++/10.3.1/bits/std_function.h **** 	  {
 3136              		.loc 3 607 40
 3137 0012 3B46     		mov	r3, r7
 3138 0014 1846     		mov	r0, r3
 3139 0016 FFF7FEFF 		bl	_ZNSt14_Function_base13_Base_managerIZN5Mixer11initTrackIOEPN5daisy9DaisySeedE7TrackIOS5_S5_S5_
 3140 001a 0346     		mov	r3, r0
 607:/Library/DaisyToolchain/0.2.0/arm/arm-none-eabi/include/c++/10.3.1/bits/std_function.h **** 	  {
 3141              		.loc 3 607 2
 3142 001c 002B     		cmp	r3, #0
 3143 001e 0FD0     		beq	.L92
 609:/Library/DaisyToolchain/0.2.0/arm/arm-none-eabi/include/c++/10.3.1/bits/std_function.h **** 	    _M_invoker = &_My_handler::_M_invoke;
 3144              		.loc 3 609 35
 3145 0020 7C68     		ldr	r4, [r7, #4]
 609:/Library/DaisyToolchain/0.2.0/arm/arm-none-eabi/include/c++/10.3.1/bits/std_function.h **** 	    _M_invoker = &_My_handler::_M_invoke;
 3146              		.loc 3 609 56
 3147 0022 3B46     		mov	r3, r7
 3148 0024 1846     		mov	r0, r3
 3149 0026 FFF7FEFF 		bl	_ZSt4moveIRZN5Mixer11initTrackIOEPN5daisy9DaisySeedE7TrackIOS4_S4_S4_EUlfE_EONSt16remove_refere
 3150 002a 0346     		mov	r3, r0
 609:/Library/DaisyToolchain/0.2.0/arm/arm-none-eabi/include/c++/10.3.1/bits/std_function.h **** 	    _M_invoker = &_My_handler::_M_invoke;
 3151              		.loc 3 609 34
 3152 002c 1946     		mov	r1, r3
 3153 002e 2046     		mov	r0, r4
 3154 0030 FFF7FEFF 		bl	_ZNSt14_Function_base13_Base_managerIZN5Mixer11initTrackIOEPN5daisy9DaisySeedE7TrackIOS5_S5_S5_
 610:/Library/DaisyToolchain/0.2.0/arm/arm-none-eabi/include/c++/10.3.1/bits/std_function.h **** 	    _M_manager = &_My_handler::_M_manager;
 3155              		.loc 3 610 17
 3156 0034 7B68     		ldr	r3, [r7, #4]
 3157 0036 054A     		ldr	r2, .L94
 3158 0038 DA60     		str	r2, [r3, #12]
 611:/Library/DaisyToolchain/0.2.0/arm/arm-none-eabi/include/c++/10.3.1/bits/std_function.h **** 	  }
 3159              		.loc 3 611 17
 3160 003a 7B68     		ldr	r3, [r7, #4]
 3161 003c 044A     		ldr	r2, .L94+4
 3162 003e 9A60     		str	r2, [r3, #8]
 3163              	.L92:
 3164              	.LBE14:
ARM GAS  /var/folders/wz/z09yph4n0qj4t7mjxhl6ttn80000gn/T//ccxdcdyF.s 			page 77


 3165              	.LBE13:
 3166              		.loc 3 613 7
 3167 0040 7B68     		ldr	r3, [r7, #4]
 3168 0042 1846     		mov	r0, r3
 3169 0044 0C37     		adds	r7, r7, #12
 3170              		.cfi_def_cfa_offset 12
 3171 0046 BD46     		mov	sp, r7
 3172              		.cfi_def_cfa_register 13
 3173              		@ sp needed
 3174 0048 90BD     		pop	{r4, r7, pc}
 3175              	.L95:
 3176 004a 00BF     		.align	2
 3177              	.L94:
 3178 004c 00000000 		.word	_ZNSt17_Function_handlerIFvfEZN5Mixer11initTrackIOEPN5daisy9DaisySeedE7TrackIOS5_S5_S5_EUlfE
 3179 0050 00000000 		.word	_ZNSt17_Function_handlerIFvfEZN5Mixer11initTrackIOEPN5daisy9DaisySeedE7TrackIOS5_S5_S5_EUlfE
 3180              		.cfi_endproc
 3181              	.LFE6011:
 3183              		.thumb_set _ZNSt8functionIFvfEEC1IZN5Mixer11initTrackIOEPN5daisy9DaisySeedE7TrackIOS7_S7_S7_EUlfE_
 3184              		.section	.text._ZNSt8functionIFvfEEC2IZN5Mixer11initTrackIOEPN5daisy9DaisySeedE7TrackIOS7_S7_S7_EU
 3185              		.align	1
 3186              		.syntax unified
 3187              		.thumb
 3188              		.thumb_func
 3190              	_ZNSt8functionIFvfEEC2IZN5Mixer11initTrackIOEPN5daisy9DaisySeedE7TrackIOS7_S7_S7_EUlfE0_vvEET_:
 3191              	.LFB6015:
 601:/Library/DaisyToolchain/0.2.0/arm/arm-none-eabi/include/c++/10.3.1/bits/std_function.h ****       function(_Functor __f)
 3192              		.loc 3 601 7
 3193              		.cfi_startproc
 3194              		@ args = 0, pretend = 0, frame = 8
 3195              		@ frame_needed = 1, uses_anonymous_args = 0
 3196 0000 90B5     		push	{r4, r7, lr}
 3197              		.cfi_def_cfa_offset 12
 3198              		.cfi_offset 4, -12
 3199              		.cfi_offset 7, -8
 3200              		.cfi_offset 14, -4
 3201 0002 83B0     		sub	sp, sp, #12
 3202              		.cfi_def_cfa_offset 24
 3203 0004 00AF     		add	r7, sp, #0
 3204              		.cfi_def_cfa_register 7
 3205 0006 7860     		str	r0, [r7, #4]
 3206 0008 3960     		str	r1, [r7]
 3207              	.LBB15:
 603:/Library/DaisyToolchain/0.2.0/arm/arm-none-eabi/include/c++/10.3.1/bits/std_function.h ****       {
 3208              		.loc 3 603 24
 3209 000a 7B68     		ldr	r3, [r7, #4]
 3210 000c 1846     		mov	r0, r3
 3211 000e FFF7FEFF 		bl	_ZNSt14_Function_baseC2Ev
 3212              	.LBB16:
 607:/Library/DaisyToolchain/0.2.0/arm/arm-none-eabi/include/c++/10.3.1/bits/std_function.h **** 	  {
 3213              		.loc 3 607 40
 3214 0012 3B46     		mov	r3, r7
 3215 0014 1846     		mov	r0, r3
 3216 0016 FFF7FEFF 		bl	_ZNSt14_Function_base13_Base_managerIZN5Mixer11initTrackIOEPN5daisy9DaisySeedE7TrackIOS5_S5_S5_
 3217 001a 0346     		mov	r3, r0
 607:/Library/DaisyToolchain/0.2.0/arm/arm-none-eabi/include/c++/10.3.1/bits/std_function.h **** 	  {
 3218              		.loc 3 607 2
 3219 001c 002B     		cmp	r3, #0
ARM GAS  /var/folders/wz/z09yph4n0qj4t7mjxhl6ttn80000gn/T//ccxdcdyF.s 			page 78


 3220 001e 0FD0     		beq	.L97
 609:/Library/DaisyToolchain/0.2.0/arm/arm-none-eabi/include/c++/10.3.1/bits/std_function.h **** 	    _M_invoker = &_My_handler::_M_invoke;
 3221              		.loc 3 609 35
 3222 0020 7C68     		ldr	r4, [r7, #4]
 609:/Library/DaisyToolchain/0.2.0/arm/arm-none-eabi/include/c++/10.3.1/bits/std_function.h **** 	    _M_invoker = &_My_handler::_M_invoke;
 3223              		.loc 3 609 56
 3224 0022 3B46     		mov	r3, r7
 3225 0024 1846     		mov	r0, r3
 3226 0026 FFF7FEFF 		bl	_ZSt4moveIRZN5Mixer11initTrackIOEPN5daisy9DaisySeedE7TrackIOS4_S4_S4_EUlfE0_EONSt16remove_refer
 3227 002a 0346     		mov	r3, r0
 609:/Library/DaisyToolchain/0.2.0/arm/arm-none-eabi/include/c++/10.3.1/bits/std_function.h **** 	    _M_invoker = &_My_handler::_M_invoke;
 3228              		.loc 3 609 34
 3229 002c 1946     		mov	r1, r3
 3230 002e 2046     		mov	r0, r4
 3231 0030 FFF7FEFF 		bl	_ZNSt14_Function_base13_Base_managerIZN5Mixer11initTrackIOEPN5daisy9DaisySeedE7TrackIOS5_S5_S5_
 610:/Library/DaisyToolchain/0.2.0/arm/arm-none-eabi/include/c++/10.3.1/bits/std_function.h **** 	    _M_manager = &_My_handler::_M_manager;
 3232              		.loc 3 610 17
 3233 0034 7B68     		ldr	r3, [r7, #4]
 3234 0036 054A     		ldr	r2, .L99
 3235 0038 DA60     		str	r2, [r3, #12]
 611:/Library/DaisyToolchain/0.2.0/arm/arm-none-eabi/include/c++/10.3.1/bits/std_function.h **** 	  }
 3236              		.loc 3 611 17
 3237 003a 7B68     		ldr	r3, [r7, #4]
 3238 003c 044A     		ldr	r2, .L99+4
 3239 003e 9A60     		str	r2, [r3, #8]
 3240              	.L97:
 3241              	.LBE16:
 3242              	.LBE15:
 3243              		.loc 3 613 7
 3244 0040 7B68     		ldr	r3, [r7, #4]
 3245 0042 1846     		mov	r0, r3
 3246 0044 0C37     		adds	r7, r7, #12
 3247              		.cfi_def_cfa_offset 12
 3248 0046 BD46     		mov	sp, r7
 3249              		.cfi_def_cfa_register 13
 3250              		@ sp needed
 3251 0048 90BD     		pop	{r4, r7, pc}
 3252              	.L100:
 3253 004a 00BF     		.align	2
 3254              	.L99:
 3255 004c 00000000 		.word	_ZNSt17_Function_handlerIFvfEZN5Mixer11initTrackIOEPN5daisy9DaisySeedE7TrackIOS5_S5_S5_EUlfE
 3256 0050 00000000 		.word	_ZNSt17_Function_handlerIFvfEZN5Mixer11initTrackIOEPN5daisy9DaisySeedE7TrackIOS5_S5_S5_EUlfE
 3257              		.cfi_endproc
 3258              	.LFE6015:
 3260              		.thumb_set _ZNSt8functionIFvfEEC1IZN5Mixer11initTrackIOEPN5daisy9DaisySeedE7TrackIOS7_S7_S7_EUlfE0
 3261              		.section	.text._ZNSt8functionIFvfEEC2IZN5Mixer11initTrackIOEPN5daisy9DaisySeedE7TrackIOS7_S7_S7_EU
 3262              		.align	1
 3263              		.syntax unified
 3264              		.thumb
 3265              		.thumb_func
 3267              	_ZNSt8functionIFvfEEC2IZN5Mixer11initTrackIOEPN5daisy9DaisySeedE7TrackIOS7_S7_S7_EUlfE1_vvEET_:
 3268              	.LFB6019:
 601:/Library/DaisyToolchain/0.2.0/arm/arm-none-eabi/include/c++/10.3.1/bits/std_function.h ****       function(_Functor __f)
 3269              		.loc 3 601 7
 3270              		.cfi_startproc
 3271              		@ args = 0, pretend = 0, frame = 8
 3272              		@ frame_needed = 1, uses_anonymous_args = 0
ARM GAS  /var/folders/wz/z09yph4n0qj4t7mjxhl6ttn80000gn/T//ccxdcdyF.s 			page 79


 3273 0000 90B5     		push	{r4, r7, lr}
 3274              		.cfi_def_cfa_offset 12
 3275              		.cfi_offset 4, -12
 3276              		.cfi_offset 7, -8
 3277              		.cfi_offset 14, -4
 3278 0002 83B0     		sub	sp, sp, #12
 3279              		.cfi_def_cfa_offset 24
 3280 0004 00AF     		add	r7, sp, #0
 3281              		.cfi_def_cfa_register 7
 3282 0006 7860     		str	r0, [r7, #4]
 3283 0008 3960     		str	r1, [r7]
 3284              	.LBB17:
 603:/Library/DaisyToolchain/0.2.0/arm/arm-none-eabi/include/c++/10.3.1/bits/std_function.h ****       {
 3285              		.loc 3 603 24
 3286 000a 7B68     		ldr	r3, [r7, #4]
 3287 000c 1846     		mov	r0, r3
 3288 000e FFF7FEFF 		bl	_ZNSt14_Function_baseC2Ev
 3289              	.LBB18:
 607:/Library/DaisyToolchain/0.2.0/arm/arm-none-eabi/include/c++/10.3.1/bits/std_function.h **** 	  {
 3290              		.loc 3 607 40
 3291 0012 3B46     		mov	r3, r7
 3292 0014 1846     		mov	r0, r3
 3293 0016 FFF7FEFF 		bl	_ZNSt14_Function_base13_Base_managerIZN5Mixer11initTrackIOEPN5daisy9DaisySeedE7TrackIOS5_S5_S5_
 3294 001a 0346     		mov	r3, r0
 607:/Library/DaisyToolchain/0.2.0/arm/arm-none-eabi/include/c++/10.3.1/bits/std_function.h **** 	  {
 3295              		.loc 3 607 2
 3296 001c 002B     		cmp	r3, #0
 3297 001e 0FD0     		beq	.L102
 609:/Library/DaisyToolchain/0.2.0/arm/arm-none-eabi/include/c++/10.3.1/bits/std_function.h **** 	    _M_invoker = &_My_handler::_M_invoke;
 3298              		.loc 3 609 35
 3299 0020 7C68     		ldr	r4, [r7, #4]
 609:/Library/DaisyToolchain/0.2.0/arm/arm-none-eabi/include/c++/10.3.1/bits/std_function.h **** 	    _M_invoker = &_My_handler::_M_invoke;
 3300              		.loc 3 609 56
 3301 0022 3B46     		mov	r3, r7
 3302 0024 1846     		mov	r0, r3
 3303 0026 FFF7FEFF 		bl	_ZSt4moveIRZN5Mixer11initTrackIOEPN5daisy9DaisySeedE7TrackIOS4_S4_S4_EUlfE1_EONSt16remove_refer
 3304 002a 0346     		mov	r3, r0
 609:/Library/DaisyToolchain/0.2.0/arm/arm-none-eabi/include/c++/10.3.1/bits/std_function.h **** 	    _M_invoker = &_My_handler::_M_invoke;
 3305              		.loc 3 609 34
 3306 002c 1946     		mov	r1, r3
 3307 002e 2046     		mov	r0, r4
 3308 0030 FFF7FEFF 		bl	_ZNSt14_Function_base13_Base_managerIZN5Mixer11initTrackIOEPN5daisy9DaisySeedE7TrackIOS5_S5_S5_
 610:/Library/DaisyToolchain/0.2.0/arm/arm-none-eabi/include/c++/10.3.1/bits/std_function.h **** 	    _M_manager = &_My_handler::_M_manager;
 3309              		.loc 3 610 17
 3310 0034 7B68     		ldr	r3, [r7, #4]
 3311 0036 054A     		ldr	r2, .L104
 3312 0038 DA60     		str	r2, [r3, #12]
 611:/Library/DaisyToolchain/0.2.0/arm/arm-none-eabi/include/c++/10.3.1/bits/std_function.h **** 	  }
 3313              		.loc 3 611 17
 3314 003a 7B68     		ldr	r3, [r7, #4]
 3315 003c 044A     		ldr	r2, .L104+4
 3316 003e 9A60     		str	r2, [r3, #8]
 3317              	.L102:
 3318              	.LBE18:
 3319              	.LBE17:
 3320              		.loc 3 613 7
 3321 0040 7B68     		ldr	r3, [r7, #4]
ARM GAS  /var/folders/wz/z09yph4n0qj4t7mjxhl6ttn80000gn/T//ccxdcdyF.s 			page 80


 3322 0042 1846     		mov	r0, r3
 3323 0044 0C37     		adds	r7, r7, #12
 3324              		.cfi_def_cfa_offset 12
 3325 0046 BD46     		mov	sp, r7
 3326              		.cfi_def_cfa_register 13
 3327              		@ sp needed
 3328 0048 90BD     		pop	{r4, r7, pc}
 3329              	.L105:
 3330 004a 00BF     		.align	2
 3331              	.L104:
 3332 004c 00000000 		.word	_ZNSt17_Function_handlerIFvfEZN5Mixer11initTrackIOEPN5daisy9DaisySeedE7TrackIOS5_S5_S5_EUlfE
 3333 0050 00000000 		.word	_ZNSt17_Function_handlerIFvfEZN5Mixer11initTrackIOEPN5daisy9DaisySeedE7TrackIOS5_S5_S5_EUlfE
 3334              		.cfi_endproc
 3335              	.LFE6019:
 3337              		.thumb_set _ZNSt8functionIFvfEEC1IZN5Mixer11initTrackIOEPN5daisy9DaisySeedE7TrackIOS7_S7_S7_EUlfE1
 3338              		.section	.text._ZNSt8functionIFvfEEC2IZN5Mixer11initTrackIOEPN5daisy9DaisySeedE7TrackIOS7_S7_S7_EU
 3339              		.align	1
 3340              		.syntax unified
 3341              		.thumb
 3342              		.thumb_func
 3344              	_ZNSt8functionIFvfEEC2IZN5Mixer11initTrackIOEPN5daisy9DaisySeedE7TrackIOS7_S7_S7_EUlfE2_vvEET_:
 3345              	.LFB6023:
 601:/Library/DaisyToolchain/0.2.0/arm/arm-none-eabi/include/c++/10.3.1/bits/std_function.h ****       function(_Functor __f)
 3346              		.loc 3 601 7
 3347              		.cfi_startproc
 3348              		@ args = 0, pretend = 0, frame = 8
 3349              		@ frame_needed = 1, uses_anonymous_args = 0
 3350 0000 90B5     		push	{r4, r7, lr}
 3351              		.cfi_def_cfa_offset 12
 3352              		.cfi_offset 4, -12
 3353              		.cfi_offset 7, -8
 3354              		.cfi_offset 14, -4
 3355 0002 83B0     		sub	sp, sp, #12
 3356              		.cfi_def_cfa_offset 24
 3357 0004 00AF     		add	r7, sp, #0
 3358              		.cfi_def_cfa_register 7
 3359 0006 7860     		str	r0, [r7, #4]
 3360 0008 3960     		str	r1, [r7]
 3361              	.LBB19:
 603:/Library/DaisyToolchain/0.2.0/arm/arm-none-eabi/include/c++/10.3.1/bits/std_function.h ****       {
 3362              		.loc 3 603 24
 3363 000a 7B68     		ldr	r3, [r7, #4]
 3364 000c 1846     		mov	r0, r3
 3365 000e FFF7FEFF 		bl	_ZNSt14_Function_baseC2Ev
 3366              	.LBB20:
 607:/Library/DaisyToolchain/0.2.0/arm/arm-none-eabi/include/c++/10.3.1/bits/std_function.h **** 	  {
 3367              		.loc 3 607 40
 3368 0012 3B46     		mov	r3, r7
 3369 0014 1846     		mov	r0, r3
 3370 0016 FFF7FEFF 		bl	_ZNSt14_Function_base13_Base_managerIZN5Mixer11initTrackIOEPN5daisy9DaisySeedE7TrackIOS5_S5_S5_
 3371 001a 0346     		mov	r3, r0
 607:/Library/DaisyToolchain/0.2.0/arm/arm-none-eabi/include/c++/10.3.1/bits/std_function.h **** 	  {
 3372              		.loc 3 607 2
 3373 001c 002B     		cmp	r3, #0
 3374 001e 0FD0     		beq	.L107
 609:/Library/DaisyToolchain/0.2.0/arm/arm-none-eabi/include/c++/10.3.1/bits/std_function.h **** 	    _M_invoker = &_My_handler::_M_invoke;
 3375              		.loc 3 609 35
ARM GAS  /var/folders/wz/z09yph4n0qj4t7mjxhl6ttn80000gn/T//ccxdcdyF.s 			page 81


 3376 0020 7C68     		ldr	r4, [r7, #4]
 609:/Library/DaisyToolchain/0.2.0/arm/arm-none-eabi/include/c++/10.3.1/bits/std_function.h **** 	    _M_invoker = &_My_handler::_M_invoke;
 3377              		.loc 3 609 56
 3378 0022 3B46     		mov	r3, r7
 3379 0024 1846     		mov	r0, r3
 3380 0026 FFF7FEFF 		bl	_ZSt4moveIRZN5Mixer11initTrackIOEPN5daisy9DaisySeedE7TrackIOS4_S4_S4_EUlfE2_EONSt16remove_refer
 3381 002a 0346     		mov	r3, r0
 609:/Library/DaisyToolchain/0.2.0/arm/arm-none-eabi/include/c++/10.3.1/bits/std_function.h **** 	    _M_invoker = &_My_handler::_M_invoke;
 3382              		.loc 3 609 34
 3383 002c 1946     		mov	r1, r3
 3384 002e 2046     		mov	r0, r4
 3385 0030 FFF7FEFF 		bl	_ZNSt14_Function_base13_Base_managerIZN5Mixer11initTrackIOEPN5daisy9DaisySeedE7TrackIOS5_S5_S5_
 610:/Library/DaisyToolchain/0.2.0/arm/arm-none-eabi/include/c++/10.3.1/bits/std_function.h **** 	    _M_manager = &_My_handler::_M_manager;
 3386              		.loc 3 610 17
 3387 0034 7B68     		ldr	r3, [r7, #4]
 3388 0036 054A     		ldr	r2, .L109
 3389 0038 DA60     		str	r2, [r3, #12]
 611:/Library/DaisyToolchain/0.2.0/arm/arm-none-eabi/include/c++/10.3.1/bits/std_function.h **** 	  }
 3390              		.loc 3 611 17
 3391 003a 7B68     		ldr	r3, [r7, #4]
 3392 003c 044A     		ldr	r2, .L109+4
 3393 003e 9A60     		str	r2, [r3, #8]
 3394              	.L107:
 3395              	.LBE20:
 3396              	.LBE19:
 3397              		.loc 3 613 7
 3398 0040 7B68     		ldr	r3, [r7, #4]
 3399 0042 1846     		mov	r0, r3
 3400 0044 0C37     		adds	r7, r7, #12
 3401              		.cfi_def_cfa_offset 12
 3402 0046 BD46     		mov	sp, r7
 3403              		.cfi_def_cfa_register 13
 3404              		@ sp needed
 3405 0048 90BD     		pop	{r4, r7, pc}
 3406              	.L110:
 3407 004a 00BF     		.align	2
 3408              	.L109:
 3409 004c 00000000 		.word	_ZNSt17_Function_handlerIFvfEZN5Mixer11initTrackIOEPN5daisy9DaisySeedE7TrackIOS5_S5_S5_EUlfE
 3410 0050 00000000 		.word	_ZNSt17_Function_handlerIFvfEZN5Mixer11initTrackIOEPN5daisy9DaisySeedE7TrackIOS5_S5_S5_EUlfE
 3411              		.cfi_endproc
 3412              	.LFE6023:
 3414              		.thumb_set _ZNSt8functionIFvfEEC1IZN5Mixer11initTrackIOEPN5daisy9DaisySeedE7TrackIOS7_S7_S7_EUlfE2
 3415              		.section	.text._ZNSt8functionIFvfEEC2IZN5Mixer11initTrackIOEPN5daisy9DaisySeedE7TrackIOS7_S7_S7_EU
 3416              		.align	1
 3417              		.syntax unified
 3418              		.thumb
 3419              		.thumb_func
 3421              	_ZNSt8functionIFvfEEC2IZN5Mixer11initTrackIOEPN5daisy9DaisySeedE7TrackIOS7_S7_S7_EUlfE3_vvEET_:
 3422              	.LFB6027:
 601:/Library/DaisyToolchain/0.2.0/arm/arm-none-eabi/include/c++/10.3.1/bits/std_function.h ****       function(_Functor __f)
 3423              		.loc 3 601 7
 3424              		.cfi_startproc
 3425              		@ args = 0, pretend = 0, frame = 8
 3426              		@ frame_needed = 1, uses_anonymous_args = 0
 3427 0000 90B5     		push	{r4, r7, lr}
 3428              		.cfi_def_cfa_offset 12
 3429              		.cfi_offset 4, -12
ARM GAS  /var/folders/wz/z09yph4n0qj4t7mjxhl6ttn80000gn/T//ccxdcdyF.s 			page 82


 3430              		.cfi_offset 7, -8
 3431              		.cfi_offset 14, -4
 3432 0002 83B0     		sub	sp, sp, #12
 3433              		.cfi_def_cfa_offset 24
 3434 0004 00AF     		add	r7, sp, #0
 3435              		.cfi_def_cfa_register 7
 3436 0006 7860     		str	r0, [r7, #4]
 3437 0008 3960     		str	r1, [r7]
 3438              	.LBB21:
 603:/Library/DaisyToolchain/0.2.0/arm/arm-none-eabi/include/c++/10.3.1/bits/std_function.h ****       {
 3439              		.loc 3 603 24
 3440 000a 7B68     		ldr	r3, [r7, #4]
 3441 000c 1846     		mov	r0, r3
 3442 000e FFF7FEFF 		bl	_ZNSt14_Function_baseC2Ev
 3443              	.LBB22:
 607:/Library/DaisyToolchain/0.2.0/arm/arm-none-eabi/include/c++/10.3.1/bits/std_function.h **** 	  {
 3444              		.loc 3 607 40
 3445 0012 3B46     		mov	r3, r7
 3446 0014 1846     		mov	r0, r3
 3447 0016 FFF7FEFF 		bl	_ZNSt14_Function_base13_Base_managerIZN5Mixer11initTrackIOEPN5daisy9DaisySeedE7TrackIOS5_S5_S5_
 3448 001a 0346     		mov	r3, r0
 607:/Library/DaisyToolchain/0.2.0/arm/arm-none-eabi/include/c++/10.3.1/bits/std_function.h **** 	  {
 3449              		.loc 3 607 2
 3450 001c 002B     		cmp	r3, #0
 3451 001e 0FD0     		beq	.L112
 609:/Library/DaisyToolchain/0.2.0/arm/arm-none-eabi/include/c++/10.3.1/bits/std_function.h **** 	    _M_invoker = &_My_handler::_M_invoke;
 3452              		.loc 3 609 35
 3453 0020 7C68     		ldr	r4, [r7, #4]
 609:/Library/DaisyToolchain/0.2.0/arm/arm-none-eabi/include/c++/10.3.1/bits/std_function.h **** 	    _M_invoker = &_My_handler::_M_invoke;
 3454              		.loc 3 609 56
 3455 0022 3B46     		mov	r3, r7
 3456 0024 1846     		mov	r0, r3
 3457 0026 FFF7FEFF 		bl	_ZSt4moveIRZN5Mixer11initTrackIOEPN5daisy9DaisySeedE7TrackIOS4_S4_S4_EUlfE3_EONSt16remove_refer
 3458 002a 0346     		mov	r3, r0
 609:/Library/DaisyToolchain/0.2.0/arm/arm-none-eabi/include/c++/10.3.1/bits/std_function.h **** 	    _M_invoker = &_My_handler::_M_invoke;
 3459              		.loc 3 609 34
 3460 002c 1946     		mov	r1, r3
 3461 002e 2046     		mov	r0, r4
 3462 0030 FFF7FEFF 		bl	_ZNSt14_Function_base13_Base_managerIZN5Mixer11initTrackIOEPN5daisy9DaisySeedE7TrackIOS5_S5_S5_
 610:/Library/DaisyToolchain/0.2.0/arm/arm-none-eabi/include/c++/10.3.1/bits/std_function.h **** 	    _M_manager = &_My_handler::_M_manager;
 3463              		.loc 3 610 17
 3464 0034 7B68     		ldr	r3, [r7, #4]
 3465 0036 054A     		ldr	r2, .L114
 3466 0038 DA60     		str	r2, [r3, #12]
 611:/Library/DaisyToolchain/0.2.0/arm/arm-none-eabi/include/c++/10.3.1/bits/std_function.h **** 	  }
 3467              		.loc 3 611 17
 3468 003a 7B68     		ldr	r3, [r7, #4]
 3469 003c 044A     		ldr	r2, .L114+4
 3470 003e 9A60     		str	r2, [r3, #8]
 3471              	.L112:
 3472              	.LBE22:
 3473              	.LBE21:
 3474              		.loc 3 613 7
 3475 0040 7B68     		ldr	r3, [r7, #4]
 3476 0042 1846     		mov	r0, r3
 3477 0044 0C37     		adds	r7, r7, #12
 3478              		.cfi_def_cfa_offset 12
ARM GAS  /var/folders/wz/z09yph4n0qj4t7mjxhl6ttn80000gn/T//ccxdcdyF.s 			page 83


 3479 0046 BD46     		mov	sp, r7
 3480              		.cfi_def_cfa_register 13
 3481              		@ sp needed
 3482 0048 90BD     		pop	{r4, r7, pc}
 3483              	.L115:
 3484 004a 00BF     		.align	2
 3485              	.L114:
 3486 004c 00000000 		.word	_ZNSt17_Function_handlerIFvfEZN5Mixer11initTrackIOEPN5daisy9DaisySeedE7TrackIOS5_S5_S5_EUlfE
 3487 0050 00000000 		.word	_ZNSt17_Function_handlerIFvfEZN5Mixer11initTrackIOEPN5daisy9DaisySeedE7TrackIOS5_S5_S5_EUlfE
 3488              		.cfi_endproc
 3489              	.LFE6027:
 3491              		.thumb_set _ZNSt8functionIFvfEEC1IZN5Mixer11initTrackIOEPN5daisy9DaisySeedE7TrackIOS7_S7_S7_EUlfE3
 3492              		.section	.text._ZNSt8functionIFvfEEC2IZN5Mixer11initTrackIOEPN5daisy9DaisySeedE7TrackIOS7_S7_S7_EU
 3493              		.align	1
 3494              		.syntax unified
 3495              		.thumb
 3496              		.thumb_func
 3498              	_ZNSt8functionIFvfEEC2IZN5Mixer11initTrackIOEPN5daisy9DaisySeedE7TrackIOS7_S7_S7_EUlfE4_vvEET_:
 3499              	.LFB6031:
 601:/Library/DaisyToolchain/0.2.0/arm/arm-none-eabi/include/c++/10.3.1/bits/std_function.h ****       function(_Functor __f)
 3500              		.loc 3 601 7
 3501              		.cfi_startproc
 3502              		@ args = 0, pretend = 0, frame = 8
 3503              		@ frame_needed = 1, uses_anonymous_args = 0
 3504 0000 90B5     		push	{r4, r7, lr}
 3505              		.cfi_def_cfa_offset 12
 3506              		.cfi_offset 4, -12
 3507              		.cfi_offset 7, -8
 3508              		.cfi_offset 14, -4
 3509 0002 83B0     		sub	sp, sp, #12
 3510              		.cfi_def_cfa_offset 24
 3511 0004 00AF     		add	r7, sp, #0
 3512              		.cfi_def_cfa_register 7
 3513 0006 7860     		str	r0, [r7, #4]
 3514 0008 3960     		str	r1, [r7]
 3515              	.LBB23:
 603:/Library/DaisyToolchain/0.2.0/arm/arm-none-eabi/include/c++/10.3.1/bits/std_function.h ****       {
 3516              		.loc 3 603 24
 3517 000a 7B68     		ldr	r3, [r7, #4]
 3518 000c 1846     		mov	r0, r3
 3519 000e FFF7FEFF 		bl	_ZNSt14_Function_baseC2Ev
 3520              	.LBB24:
 607:/Library/DaisyToolchain/0.2.0/arm/arm-none-eabi/include/c++/10.3.1/bits/std_function.h **** 	  {
 3521              		.loc 3 607 40
 3522 0012 3B46     		mov	r3, r7
 3523 0014 1846     		mov	r0, r3
 3524 0016 FFF7FEFF 		bl	_ZNSt14_Function_base13_Base_managerIZN5Mixer11initTrackIOEPN5daisy9DaisySeedE7TrackIOS5_S5_S5_
 3525 001a 0346     		mov	r3, r0
 607:/Library/DaisyToolchain/0.2.0/arm/arm-none-eabi/include/c++/10.3.1/bits/std_function.h **** 	  {
 3526              		.loc 3 607 2
 3527 001c 002B     		cmp	r3, #0
 3528 001e 0FD0     		beq	.L117
 609:/Library/DaisyToolchain/0.2.0/arm/arm-none-eabi/include/c++/10.3.1/bits/std_function.h **** 	    _M_invoker = &_My_handler::_M_invoke;
 3529              		.loc 3 609 35
 3530 0020 7C68     		ldr	r4, [r7, #4]
 609:/Library/DaisyToolchain/0.2.0/arm/arm-none-eabi/include/c++/10.3.1/bits/std_function.h **** 	    _M_invoker = &_My_handler::_M_invoke;
 3531              		.loc 3 609 56
ARM GAS  /var/folders/wz/z09yph4n0qj4t7mjxhl6ttn80000gn/T//ccxdcdyF.s 			page 84


 3532 0022 3B46     		mov	r3, r7
 3533 0024 1846     		mov	r0, r3
 3534 0026 FFF7FEFF 		bl	_ZSt4moveIRZN5Mixer11initTrackIOEPN5daisy9DaisySeedE7TrackIOS4_S4_S4_EUlfE4_EONSt16remove_refer
 3535 002a 0346     		mov	r3, r0
 609:/Library/DaisyToolchain/0.2.0/arm/arm-none-eabi/include/c++/10.3.1/bits/std_function.h **** 	    _M_invoker = &_My_handler::_M_invoke;
 3536              		.loc 3 609 34
 3537 002c 1946     		mov	r1, r3
 3538 002e 2046     		mov	r0, r4
 3539 0030 FFF7FEFF 		bl	_ZNSt14_Function_base13_Base_managerIZN5Mixer11initTrackIOEPN5daisy9DaisySeedE7TrackIOS5_S5_S5_
 610:/Library/DaisyToolchain/0.2.0/arm/arm-none-eabi/include/c++/10.3.1/bits/std_function.h **** 	    _M_manager = &_My_handler::_M_manager;
 3540              		.loc 3 610 17
 3541 0034 7B68     		ldr	r3, [r7, #4]
 3542 0036 054A     		ldr	r2, .L119
 3543 0038 DA60     		str	r2, [r3, #12]
 611:/Library/DaisyToolchain/0.2.0/arm/arm-none-eabi/include/c++/10.3.1/bits/std_function.h **** 	  }
 3544              		.loc 3 611 17
 3545 003a 7B68     		ldr	r3, [r7, #4]
 3546 003c 044A     		ldr	r2, .L119+4
 3547 003e 9A60     		str	r2, [r3, #8]
 3548              	.L117:
 3549              	.LBE24:
 3550              	.LBE23:
 3551              		.loc 3 613 7
 3552 0040 7B68     		ldr	r3, [r7, #4]
 3553 0042 1846     		mov	r0, r3
 3554 0044 0C37     		adds	r7, r7, #12
 3555              		.cfi_def_cfa_offset 12
 3556 0046 BD46     		mov	sp, r7
 3557              		.cfi_def_cfa_register 13
 3558              		@ sp needed
 3559 0048 90BD     		pop	{r4, r7, pc}
 3560              	.L120:
 3561 004a 00BF     		.align	2
 3562              	.L119:
 3563 004c 00000000 		.word	_ZNSt17_Function_handlerIFvfEZN5Mixer11initTrackIOEPN5daisy9DaisySeedE7TrackIOS5_S5_S5_EUlfE
 3564 0050 00000000 		.word	_ZNSt17_Function_handlerIFvfEZN5Mixer11initTrackIOEPN5daisy9DaisySeedE7TrackIOS5_S5_S5_EUlfE
 3565              		.cfi_endproc
 3566              	.LFE6031:
 3568              		.thumb_set _ZNSt8functionIFvfEEC1IZN5Mixer11initTrackIOEPN5daisy9DaisySeedE7TrackIOS7_S7_S7_EUlfE4
 3569              		.section	.text._ZNSt8functionIFvfEEC2IZN5Mixer11initTrackIOEPN5daisy9DaisySeedE7TrackIOS7_S7_S7_EU
 3570              		.align	1
 3571              		.syntax unified
 3572              		.thumb
 3573              		.thumb_func
 3575              	_ZNSt8functionIFvfEEC2IZN5Mixer11initTrackIOEPN5daisy9DaisySeedE7TrackIOS7_S7_S7_EUlfE5_vvEET_:
 3576              	.LFB6035:
 601:/Library/DaisyToolchain/0.2.0/arm/arm-none-eabi/include/c++/10.3.1/bits/std_function.h ****       function(_Functor __f)
 3577              		.loc 3 601 7
 3578              		.cfi_startproc
 3579              		@ args = 0, pretend = 0, frame = 8
 3580              		@ frame_needed = 1, uses_anonymous_args = 0
 3581 0000 90B5     		push	{r4, r7, lr}
 3582              		.cfi_def_cfa_offset 12
 3583              		.cfi_offset 4, -12
 3584              		.cfi_offset 7, -8
 3585              		.cfi_offset 14, -4
 3586 0002 83B0     		sub	sp, sp, #12
ARM GAS  /var/folders/wz/z09yph4n0qj4t7mjxhl6ttn80000gn/T//ccxdcdyF.s 			page 85


 3587              		.cfi_def_cfa_offset 24
 3588 0004 00AF     		add	r7, sp, #0
 3589              		.cfi_def_cfa_register 7
 3590 0006 7860     		str	r0, [r7, #4]
 3591 0008 3960     		str	r1, [r7]
 3592              	.LBB25:
 603:/Library/DaisyToolchain/0.2.0/arm/arm-none-eabi/include/c++/10.3.1/bits/std_function.h ****       {
 3593              		.loc 3 603 24
 3594 000a 7B68     		ldr	r3, [r7, #4]
 3595 000c 1846     		mov	r0, r3
 3596 000e FFF7FEFF 		bl	_ZNSt14_Function_baseC2Ev
 3597              	.LBB26:
 607:/Library/DaisyToolchain/0.2.0/arm/arm-none-eabi/include/c++/10.3.1/bits/std_function.h **** 	  {
 3598              		.loc 3 607 40
 3599 0012 3B46     		mov	r3, r7
 3600 0014 1846     		mov	r0, r3
 3601 0016 FFF7FEFF 		bl	_ZNSt14_Function_base13_Base_managerIZN5Mixer11initTrackIOEPN5daisy9DaisySeedE7TrackIOS5_S5_S5_
 3602 001a 0346     		mov	r3, r0
 607:/Library/DaisyToolchain/0.2.0/arm/arm-none-eabi/include/c++/10.3.1/bits/std_function.h **** 	  {
 3603              		.loc 3 607 2
 3604 001c 002B     		cmp	r3, #0
 3605 001e 0FD0     		beq	.L122
 609:/Library/DaisyToolchain/0.2.0/arm/arm-none-eabi/include/c++/10.3.1/bits/std_function.h **** 	    _M_invoker = &_My_handler::_M_invoke;
 3606              		.loc 3 609 35
 3607 0020 7C68     		ldr	r4, [r7, #4]
 609:/Library/DaisyToolchain/0.2.0/arm/arm-none-eabi/include/c++/10.3.1/bits/std_function.h **** 	    _M_invoker = &_My_handler::_M_invoke;
 3608              		.loc 3 609 56
 3609 0022 3B46     		mov	r3, r7
 3610 0024 1846     		mov	r0, r3
 3611 0026 FFF7FEFF 		bl	_ZSt4moveIRZN5Mixer11initTrackIOEPN5daisy9DaisySeedE7TrackIOS4_S4_S4_EUlfE5_EONSt16remove_refer
 3612 002a 0346     		mov	r3, r0
 609:/Library/DaisyToolchain/0.2.0/arm/arm-none-eabi/include/c++/10.3.1/bits/std_function.h **** 	    _M_invoker = &_My_handler::_M_invoke;
 3613              		.loc 3 609 34
 3614 002c 1946     		mov	r1, r3
 3615 002e 2046     		mov	r0, r4
 3616 0030 FFF7FEFF 		bl	_ZNSt14_Function_base13_Base_managerIZN5Mixer11initTrackIOEPN5daisy9DaisySeedE7TrackIOS5_S5_S5_
 610:/Library/DaisyToolchain/0.2.0/arm/arm-none-eabi/include/c++/10.3.1/bits/std_function.h **** 	    _M_manager = &_My_handler::_M_manager;
 3617              		.loc 3 610 17
 3618 0034 7B68     		ldr	r3, [r7, #4]
 3619 0036 054A     		ldr	r2, .L124
 3620 0038 DA60     		str	r2, [r3, #12]
 611:/Library/DaisyToolchain/0.2.0/arm/arm-none-eabi/include/c++/10.3.1/bits/std_function.h **** 	  }
 3621              		.loc 3 611 17
 3622 003a 7B68     		ldr	r3, [r7, #4]
 3623 003c 044A     		ldr	r2, .L124+4
 3624 003e 9A60     		str	r2, [r3, #8]
 3625              	.L122:
 3626              	.LBE26:
 3627              	.LBE25:
 3628              		.loc 3 613 7
 3629 0040 7B68     		ldr	r3, [r7, #4]
 3630 0042 1846     		mov	r0, r3
 3631 0044 0C37     		adds	r7, r7, #12
 3632              		.cfi_def_cfa_offset 12
 3633 0046 BD46     		mov	sp, r7
 3634              		.cfi_def_cfa_register 13
 3635              		@ sp needed
ARM GAS  /var/folders/wz/z09yph4n0qj4t7mjxhl6ttn80000gn/T//ccxdcdyF.s 			page 86


 3636 0048 90BD     		pop	{r4, r7, pc}
 3637              	.L125:
 3638 004a 00BF     		.align	2
 3639              	.L124:
 3640 004c 00000000 		.word	_ZNSt17_Function_handlerIFvfEZN5Mixer11initTrackIOEPN5daisy9DaisySeedE7TrackIOS5_S5_S5_EUlfE
 3641 0050 00000000 		.word	_ZNSt17_Function_handlerIFvfEZN5Mixer11initTrackIOEPN5daisy9DaisySeedE7TrackIOS5_S5_S5_EUlfE
 3642              		.cfi_endproc
 3643              	.LFE6035:
 3645              		.thumb_set _ZNSt8functionIFvfEEC1IZN5Mixer11initTrackIOEPN5daisy9DaisySeedE7TrackIOS7_S7_S7_EUlfE5
 3646              		.section	.text._ZNSt8functionIFvfEEC2IZN5Mixer11initTrackIOEPN5daisy9DaisySeedE7TrackIOS7_S7_S7_EU
 3647              		.align	1
 3648              		.syntax unified
 3649              		.thumb
 3650              		.thumb_func
 3652              	_ZNSt8functionIFvfEEC2IZN5Mixer11initTrackIOEPN5daisy9DaisySeedE7TrackIOS7_S7_S7_EUlfE6_vvEET_:
 3653              	.LFB6039:
 601:/Library/DaisyToolchain/0.2.0/arm/arm-none-eabi/include/c++/10.3.1/bits/std_function.h ****       function(_Functor __f)
 3654              		.loc 3 601 7
 3655              		.cfi_startproc
 3656              		@ args = 0, pretend = 0, frame = 8
 3657              		@ frame_needed = 1, uses_anonymous_args = 0
 3658 0000 90B5     		push	{r4, r7, lr}
 3659              		.cfi_def_cfa_offset 12
 3660              		.cfi_offset 4, -12
 3661              		.cfi_offset 7, -8
 3662              		.cfi_offset 14, -4
 3663 0002 83B0     		sub	sp, sp, #12
 3664              		.cfi_def_cfa_offset 24
 3665 0004 00AF     		add	r7, sp, #0
 3666              		.cfi_def_cfa_register 7
 3667 0006 7860     		str	r0, [r7, #4]
 3668 0008 3960     		str	r1, [r7]
 3669              	.LBB27:
 603:/Library/DaisyToolchain/0.2.0/arm/arm-none-eabi/include/c++/10.3.1/bits/std_function.h ****       {
 3670              		.loc 3 603 24
 3671 000a 7B68     		ldr	r3, [r7, #4]
 3672 000c 1846     		mov	r0, r3
 3673 000e FFF7FEFF 		bl	_ZNSt14_Function_baseC2Ev
 3674              	.LBB28:
 607:/Library/DaisyToolchain/0.2.0/arm/arm-none-eabi/include/c++/10.3.1/bits/std_function.h **** 	  {
 3675              		.loc 3 607 40
 3676 0012 3B46     		mov	r3, r7
 3677 0014 1846     		mov	r0, r3
 3678 0016 FFF7FEFF 		bl	_ZNSt14_Function_base13_Base_managerIZN5Mixer11initTrackIOEPN5daisy9DaisySeedE7TrackIOS5_S5_S5_
 3679 001a 0346     		mov	r3, r0
 607:/Library/DaisyToolchain/0.2.0/arm/arm-none-eabi/include/c++/10.3.1/bits/std_function.h **** 	  {
 3680              		.loc 3 607 2
 3681 001c 002B     		cmp	r3, #0
 3682 001e 0FD0     		beq	.L127
 609:/Library/DaisyToolchain/0.2.0/arm/arm-none-eabi/include/c++/10.3.1/bits/std_function.h **** 	    _M_invoker = &_My_handler::_M_invoke;
 3683              		.loc 3 609 35
 3684 0020 7C68     		ldr	r4, [r7, #4]
 609:/Library/DaisyToolchain/0.2.0/arm/arm-none-eabi/include/c++/10.3.1/bits/std_function.h **** 	    _M_invoker = &_My_handler::_M_invoke;
 3685              		.loc 3 609 56
 3686 0022 3B46     		mov	r3, r7
 3687 0024 1846     		mov	r0, r3
 3688 0026 FFF7FEFF 		bl	_ZSt4moveIRZN5Mixer11initTrackIOEPN5daisy9DaisySeedE7TrackIOS4_S4_S4_EUlfE6_EONSt16remove_refer
ARM GAS  /var/folders/wz/z09yph4n0qj4t7mjxhl6ttn80000gn/T//ccxdcdyF.s 			page 87


 3689 002a 0346     		mov	r3, r0
 609:/Library/DaisyToolchain/0.2.0/arm/arm-none-eabi/include/c++/10.3.1/bits/std_function.h **** 	    _M_invoker = &_My_handler::_M_invoke;
 3690              		.loc 3 609 34
 3691 002c 1946     		mov	r1, r3
 3692 002e 2046     		mov	r0, r4
 3693 0030 FFF7FEFF 		bl	_ZNSt14_Function_base13_Base_managerIZN5Mixer11initTrackIOEPN5daisy9DaisySeedE7TrackIOS5_S5_S5_
 610:/Library/DaisyToolchain/0.2.0/arm/arm-none-eabi/include/c++/10.3.1/bits/std_function.h **** 	    _M_manager = &_My_handler::_M_manager;
 3694              		.loc 3 610 17
 3695 0034 7B68     		ldr	r3, [r7, #4]
 3696 0036 054A     		ldr	r2, .L129
 3697 0038 DA60     		str	r2, [r3, #12]
 611:/Library/DaisyToolchain/0.2.0/arm/arm-none-eabi/include/c++/10.3.1/bits/std_function.h **** 	  }
 3698              		.loc 3 611 17
 3699 003a 7B68     		ldr	r3, [r7, #4]
 3700 003c 044A     		ldr	r2, .L129+4
 3701 003e 9A60     		str	r2, [r3, #8]
 3702              	.L127:
 3703              	.LBE28:
 3704              	.LBE27:
 3705              		.loc 3 613 7
 3706 0040 7B68     		ldr	r3, [r7, #4]
 3707 0042 1846     		mov	r0, r3
 3708 0044 0C37     		adds	r7, r7, #12
 3709              		.cfi_def_cfa_offset 12
 3710 0046 BD46     		mov	sp, r7
 3711              		.cfi_def_cfa_register 13
 3712              		@ sp needed
 3713 0048 90BD     		pop	{r4, r7, pc}
 3714              	.L130:
 3715 004a 00BF     		.align	2
 3716              	.L129:
 3717 004c 00000000 		.word	_ZNSt17_Function_handlerIFvfEZN5Mixer11initTrackIOEPN5daisy9DaisySeedE7TrackIOS5_S5_S5_EUlfE
 3718 0050 00000000 		.word	_ZNSt17_Function_handlerIFvfEZN5Mixer11initTrackIOEPN5daisy9DaisySeedE7TrackIOS5_S5_S5_EUlfE
 3719              		.cfi_endproc
 3720              	.LFE6039:
 3722              		.thumb_set _ZNSt8functionIFvfEEC1IZN5Mixer11initTrackIOEPN5daisy9DaisySeedE7TrackIOS7_S7_S7_EUlfE6
 3723              		.section	.text._ZN14AudioParameterIfE13setIsSelectedEb,"axG",%progbits,_ZN14AudioParameterIfE13set
 3724              		.align	1
 3725              		.weak	_ZN14AudioParameterIfE13setIsSelectedEb
 3726              		.syntax unified
 3727              		.thumb
 3728              		.thumb_func
 3730              	_ZN14AudioParameterIfE13setIsSelectedEb:
 3731              	.LFB6041:
  41:DSP/FX/../../Parameters/AudioParameter.h ****     
  42:DSP/FX/../../Parameters/AudioParameter.h ****     inline void tick() 
  43:DSP/FX/../../Parameters/AudioParameter.h ****     {
  44:DSP/FX/../../Parameters/AudioParameter.h ****         if(!isSelected)
  45:DSP/FX/../../Parameters/AudioParameter.h ****             return;
  46:DSP/FX/../../Parameters/AudioParameter.h **** 
  47:DSP/FX/../../Parameters/AudioParameter.h ****         float newInput = hw->adc.GetFloat(channelID);
  48:DSP/FX/../../Parameters/AudioParameter.h ****         if(newInput > (input + jitter) || newInput < (input - jitter))
  49:DSP/FX/../../Parameters/AudioParameter.h ****         {
  50:DSP/FX/../../Parameters/AudioParameter.h ****             input = newInput;
  51:DSP/FX/../../Parameters/AudioParameter.h ****             processCurve();
  52:DSP/FX/../../Parameters/AudioParameter.h ****             callback(curVal);
  53:DSP/FX/../../Parameters/AudioParameter.h ****         }
ARM GAS  /var/folders/wz/z09yph4n0qj4t7mjxhl6ttn80000gn/T//ccxdcdyF.s 			page 88


  54:DSP/FX/../../Parameters/AudioParameter.h ****     }
  55:DSP/FX/../../Parameters/AudioParameter.h **** 
  56:DSP/FX/../../Parameters/AudioParameter.h ****     void processCurve()
  57:DSP/FX/../../Parameters/AudioParameter.h ****     {
  58:DSP/FX/../../Parameters/AudioParameter.h ****         switch(curve)
  59:DSP/FX/../../Parameters/AudioParameter.h ****         {
  60:DSP/FX/../../Parameters/AudioParameter.h ****             case LINEAR:
  61:DSP/FX/../../Parameters/AudioParameter.h ****                 curVal = ((input / 1.0f) * (max - min)) + min;
  62:DSP/FX/../../Parameters/AudioParameter.h ****             break;
  63:DSP/FX/../../Parameters/AudioParameter.h ****             case EXP:
  64:DSP/FX/../../Parameters/AudioParameter.h ****                 curVal = ((input * input) * (max - min)) + min;
  65:DSP/FX/../../Parameters/AudioParameter.h ****             break;
  66:DSP/FX/../../Parameters/AudioParameter.h ****         }
  67:DSP/FX/../../Parameters/AudioParameter.h ****     }
  68:DSP/FX/../../Parameters/AudioParameter.h **** 
  69:DSP/FX/../../Parameters/AudioParameter.h ****     inline void setIsSelected(bool s) { isSelected = s; }
 3732              		.loc 7 69 17
 3733              		.cfi_startproc
 3734              		@ args = 0, pretend = 0, frame = 8
 3735              		@ frame_needed = 1, uses_anonymous_args = 0
 3736              		@ link register save eliminated.
 3737 0000 80B4     		push	{r7}
 3738              		.cfi_def_cfa_offset 4
 3739              		.cfi_offset 7, -4
 3740 0002 83B0     		sub	sp, sp, #12
 3741              		.cfi_def_cfa_offset 16
 3742 0004 00AF     		add	r7, sp, #0
 3743              		.cfi_def_cfa_register 7
 3744 0006 7860     		str	r0, [r7, #4]
 3745 0008 0B46     		mov	r3, r1
 3746 000a FB70     		strb	r3, [r7, #3]
 3747              		.loc 7 69 52
 3748 000c 7B68     		ldr	r3, [r7, #4]
 3749 000e FA78     		ldrb	r2, [r7, #3]
 3750 0010 9A76     		strb	r2, [r3, #26]
 3751              		.loc 7 69 57
 3752 0012 00BF     		nop
 3753 0014 0C37     		adds	r7, r7, #12
 3754              		.cfi_def_cfa_offset 4
 3755 0016 BD46     		mov	sp, r7
 3756              		.cfi_def_cfa_register 13
 3757              		@ sp needed
 3758 0018 5DF8047B 		ldr	r7, [sp], #4
 3759              		.cfi_restore 7
 3760              		.cfi_def_cfa_offset 0
 3761 001c 7047     		bx	lr
 3762              		.cfi_endproc
 3763              	.LFE6041:
 3765              		.section	.text._ZN14AudioParameterIfE4tickEv,"axG",%progbits,_ZN14AudioParameterIfE4tickEv,comdat
 3766              		.align	1
 3767              		.weak	_ZN14AudioParameterIfE4tickEv
 3768              		.syntax unified
 3769              		.thumb
 3770              		.thumb_func
 3772              	_ZN14AudioParameterIfE4tickEv:
 3773              	.LFB6042:
  42:DSP/FX/../../Parameters/AudioParameter.h ****     {
ARM GAS  /var/folders/wz/z09yph4n0qj4t7mjxhl6ttn80000gn/T//ccxdcdyF.s 			page 89


 3774              		.loc 7 42 17
 3775              		.cfi_startproc
 3776              		@ args = 0, pretend = 0, frame = 16
 3777              		@ frame_needed = 1, uses_anonymous_args = 0
 3778 0000 80B5     		push	{r7, lr}
 3779              		.cfi_def_cfa_offset 8
 3780              		.cfi_offset 7, -8
 3781              		.cfi_offset 14, -4
 3782 0002 84B0     		sub	sp, sp, #16
 3783              		.cfi_def_cfa_offset 24
 3784 0004 00AF     		add	r7, sp, #0
 3785              		.cfi_def_cfa_register 7
 3786 0006 7860     		str	r0, [r7, #4]
  44:DSP/FX/../../Parameters/AudioParameter.h ****             return;
 3787              		.loc 7 44 13
 3788 0008 7B68     		ldr	r3, [r7, #4]
 3789 000a 9B7E     		ldrb	r3, [r3, #26]	@ zero_extendqisi2
 3790 000c 83F00103 		eor	r3, r3, #1
 3791 0010 DBB2     		uxtb	r3, r3
  44:DSP/FX/../../Parameters/AudioParameter.h ****             return;
 3792              		.loc 7 44 9
 3793 0012 002B     		cmp	r3, #0
 3794 0014 3BD1     		bne	.L137
  47:DSP/FX/../../Parameters/AudioParameter.h ****         if(newInput > (input + jitter) || newInput < (input - jitter))
 3795              		.loc 7 47 26
 3796 0016 7B68     		ldr	r3, [r7, #4]
 3797 0018 1B68     		ldr	r3, [r3]
  47:DSP/FX/../../Parameters/AudioParameter.h ****         if(newInput > (input + jitter) || newInput < (input - jitter))
 3798              		.loc 7 47 42
 3799 001a 03F11802 		add	r2, r3, #24
 3800 001e 7B68     		ldr	r3, [r7, #4]
 3801 0020 1B7E     		ldrb	r3, [r3, #24]	@ zero_extendqisi2
 3802 0022 1946     		mov	r1, r3
 3803 0024 1046     		mov	r0, r2
 3804 0026 FFF7FEFF 		bl	_ZNK5daisy9AdcHandle8GetFloatEh
 3805 002a 87ED030A 		vstr.32	s0, [r7, #12]
  48:DSP/FX/../../Parameters/AudioParameter.h ****         {
 3806              		.loc 7 48 24
 3807 002e 7B68     		ldr	r3, [r7, #4]
 3808 0030 93ED017A 		vldr.32	s14, [r3, #4]
  48:DSP/FX/../../Parameters/AudioParameter.h ****         {
 3809              		.loc 7 48 32
 3810 0034 7B68     		ldr	r3, [r7, #4]
 3811 0036 D3ED027A 		vldr.32	s15, [r3, #8]
  48:DSP/FX/../../Parameters/AudioParameter.h ****         {
 3812              		.loc 7 48 30
 3813 003a 77EE277A 		vadd.f32	s15, s14, s15
  48:DSP/FX/../../Parameters/AudioParameter.h ****         {
 3814              		.loc 7 48 9
 3815 003e 97ED037A 		vldr.32	s14, [r7, #12]
 3816 0042 B4EEE77A 		vcmpe.f32	s14, s15
 3817 0046 F1EE10FA 		vmrs	APSR_nzcv, FPSCR
 3818 004a 0EDC     		bgt	.L135
  48:DSP/FX/../../Parameters/AudioParameter.h ****         {
 3819              		.loc 7 48 55 discriminator 1
 3820 004c 7B68     		ldr	r3, [r7, #4]
 3821 004e 93ED017A 		vldr.32	s14, [r3, #4]
ARM GAS  /var/folders/wz/z09yph4n0qj4t7mjxhl6ttn80000gn/T//ccxdcdyF.s 			page 90


  48:DSP/FX/../../Parameters/AudioParameter.h ****         {
 3822              		.loc 7 48 63 discriminator 1
 3823 0052 7B68     		ldr	r3, [r7, #4]
 3824 0054 D3ED027A 		vldr.32	s15, [r3, #8]
  48:DSP/FX/../../Parameters/AudioParameter.h ****         {
 3825              		.loc 7 48 61 discriminator 1
 3826 0058 77EE677A 		vsub.f32	s15, s14, s15
  48:DSP/FX/../../Parameters/AudioParameter.h ****         {
 3827              		.loc 7 48 40 discriminator 1
 3828 005c 97ED037A 		vldr.32	s14, [r7, #12]
 3829 0060 B4EEE77A 		vcmpe.f32	s14, s15
 3830 0064 F1EE10FA 		vmrs	APSR_nzcv, FPSCR
 3831 0068 12D5     		bpl	.L132
 3832              	.L135:
  50:DSP/FX/../../Parameters/AudioParameter.h ****             processCurve();
 3833              		.loc 7 50 19
 3834 006a 7B68     		ldr	r3, [r7, #4]
 3835 006c FA68     		ldr	r2, [r7, #12]	@ float
 3836 006e 5A60     		str	r2, [r3, #4]	@ float
  51:DSP/FX/../../Parameters/AudioParameter.h ****             callback(curVal);
 3837              		.loc 7 51 25
 3838 0070 7868     		ldr	r0, [r7, #4]
 3839 0072 FFF7FEFF 		bl	_ZN14AudioParameterIfE12processCurveEv
  52:DSP/FX/../../Parameters/AudioParameter.h ****         }
 3840              		.loc 7 52 21
 3841 0076 7B68     		ldr	r3, [r7, #4]
 3842 0078 03F11C02 		add	r2, r3, #28
 3843 007c 7B68     		ldr	r3, [r7, #4]
 3844 007e D3ED037A 		vldr.32	s15, [r3, #12]
 3845 0082 B0EE670A 		vmov.f32	s0, s15
 3846 0086 1046     		mov	r0, r2
 3847 0088 FFF7FEFF 		bl	_ZNKSt8functionIFvfEEclEf
 3848 008c 00E0     		b	.L132
 3849              	.L137:
  45:DSP/FX/../../Parameters/AudioParameter.h **** 
 3850              		.loc 7 45 13
 3851 008e 00BF     		nop
 3852              	.L132:
  54:DSP/FX/../../Parameters/AudioParameter.h **** 
 3853              		.loc 7 54 5
 3854 0090 1037     		adds	r7, r7, #16
 3855              		.cfi_def_cfa_offset 8
 3856 0092 BD46     		mov	sp, r7
 3857              		.cfi_def_cfa_register 13
 3858              		@ sp needed
 3859 0094 80BD     		pop	{r7, pc}
 3860              		.cfi_endproc
 3861              	.LFE6042:
 3863              		.section	.text._ZNSt14_Function_base13_Base_managerIZN5Mixer4initEPN5daisy9DaisySeedEPPfS6_S6_S6_S
 3864              		.align	1
 3865              		.syntax unified
 3866              		.thumb
 3867              		.thumb_func
 3869              	_ZNSt14_Function_base13_Base_managerIZN5Mixer4initEPN5daisy9DaisySeedEPPfS6_S6_S6_S6_PPN7daisysp9De
 3870              	.LFB6169:
 227:/Library/DaisyToolchain/0.2.0/arm/arm-none-eabi/include/c++/10.3.1/bits/std_function.h **** 	  { return true; }
 3871              		.loc 3 227 4
ARM GAS  /var/folders/wz/z09yph4n0qj4t7mjxhl6ttn80000gn/T//ccxdcdyF.s 			page 91


 3872              		.cfi_startproc
 3873              		@ args = 0, pretend = 0, frame = 8
 3874              		@ frame_needed = 1, uses_anonymous_args = 0
 3875              		@ link register save eliminated.
 3876 0000 80B4     		push	{r7}
 3877              		.cfi_def_cfa_offset 4
 3878              		.cfi_offset 7, -4
 3879 0002 83B0     		sub	sp, sp, #12
 3880              		.cfi_def_cfa_offset 16
 3881 0004 00AF     		add	r7, sp, #0
 3882              		.cfi_def_cfa_register 7
 3883 0006 7860     		str	r0, [r7, #4]
 228:/Library/DaisyToolchain/0.2.0/arm/arm-none-eabi/include/c++/10.3.1/bits/std_function.h **** 
 3884              		.loc 3 228 13
 3885 0008 0123     		movs	r3, #1
 228:/Library/DaisyToolchain/0.2.0/arm/arm-none-eabi/include/c++/10.3.1/bits/std_function.h **** 
 3886              		.loc 3 228 19
 3887 000a 1846     		mov	r0, r3
 3888 000c 0C37     		adds	r7, r7, #12
 3889              		.cfi_def_cfa_offset 4
 3890 000e BD46     		mov	sp, r7
 3891              		.cfi_def_cfa_register 13
 3892              		@ sp needed
 3893 0010 5DF8047B 		ldr	r7, [sp], #4
 3894              		.cfi_restore 7
 3895              		.cfi_def_cfa_offset 0
 3896 0014 7047     		bx	lr
 3897              		.cfi_endproc
 3898              	.LFE6169:
 3900              		.section	.text._ZSt4moveIRZN5Mixer4initEPN5daisy9DaisySeedEPPfS5_S5_S5_S5_PPN7daisysp9DelayLineIfL
 3901              		.align	1
 3902              		.syntax unified
 3903              		.thumb
 3904              		.thumb_func
 3906              	_ZSt4moveIRZN5Mixer4initEPN5daisy9DaisySeedEPPfS5_S5_S5_S5_PPN7daisysp9DelayLineIfLj240000EEEEUlfE_
 3907              	.LFB6170:
 3908              		.file 8 "/Library/DaisyToolchain/0.2.0/arm/arm-none-eabi/include/c++/10.3.1/bits/move.h"
   1:/Library/DaisyToolchain/0.2.0/arm/arm-none-eabi/include/c++/10.3.1/bits/move.h **** // Move, forward and identity for C++11 + swap -*- C++ -*-
   2:/Library/DaisyToolchain/0.2.0/arm/arm-none-eabi/include/c++/10.3.1/bits/move.h **** 
   3:/Library/DaisyToolchain/0.2.0/arm/arm-none-eabi/include/c++/10.3.1/bits/move.h **** // Copyright (C) 2007-2020 Free Software Foundation, Inc.
   4:/Library/DaisyToolchain/0.2.0/arm/arm-none-eabi/include/c++/10.3.1/bits/move.h **** //
   5:/Library/DaisyToolchain/0.2.0/arm/arm-none-eabi/include/c++/10.3.1/bits/move.h **** // This file is part of the GNU ISO C++ Library.  This library is free
   6:/Library/DaisyToolchain/0.2.0/arm/arm-none-eabi/include/c++/10.3.1/bits/move.h **** // software; you can redistribute it and/or modify it under the
   7:/Library/DaisyToolchain/0.2.0/arm/arm-none-eabi/include/c++/10.3.1/bits/move.h **** // terms of the GNU General Public License as published by the
   8:/Library/DaisyToolchain/0.2.0/arm/arm-none-eabi/include/c++/10.3.1/bits/move.h **** // Free Software Foundation; either version 3, or (at your option)
   9:/Library/DaisyToolchain/0.2.0/arm/arm-none-eabi/include/c++/10.3.1/bits/move.h **** // any later version.
  10:/Library/DaisyToolchain/0.2.0/arm/arm-none-eabi/include/c++/10.3.1/bits/move.h **** 
  11:/Library/DaisyToolchain/0.2.0/arm/arm-none-eabi/include/c++/10.3.1/bits/move.h **** // This library is distributed in the hope that it will be useful,
  12:/Library/DaisyToolchain/0.2.0/arm/arm-none-eabi/include/c++/10.3.1/bits/move.h **** // but WITHOUT ANY WARRANTY; without even the implied warranty of
  13:/Library/DaisyToolchain/0.2.0/arm/arm-none-eabi/include/c++/10.3.1/bits/move.h **** // MERCHANTABILITY or FITNESS FOR A PARTICULAR PURPOSE.  See the
  14:/Library/DaisyToolchain/0.2.0/arm/arm-none-eabi/include/c++/10.3.1/bits/move.h **** // GNU General Public License for more details.
  15:/Library/DaisyToolchain/0.2.0/arm/arm-none-eabi/include/c++/10.3.1/bits/move.h **** 
  16:/Library/DaisyToolchain/0.2.0/arm/arm-none-eabi/include/c++/10.3.1/bits/move.h **** // Under Section 7 of GPL version 3, you are granted additional
  17:/Library/DaisyToolchain/0.2.0/arm/arm-none-eabi/include/c++/10.3.1/bits/move.h **** // permissions described in the GCC Runtime Library Exception, version
  18:/Library/DaisyToolchain/0.2.0/arm/arm-none-eabi/include/c++/10.3.1/bits/move.h **** // 3.1, as published by the Free Software Foundation.
  19:/Library/DaisyToolchain/0.2.0/arm/arm-none-eabi/include/c++/10.3.1/bits/move.h **** 
  20:/Library/DaisyToolchain/0.2.0/arm/arm-none-eabi/include/c++/10.3.1/bits/move.h **** // You should have received a copy of the GNU General Public License and
ARM GAS  /var/folders/wz/z09yph4n0qj4t7mjxhl6ttn80000gn/T//ccxdcdyF.s 			page 92


  21:/Library/DaisyToolchain/0.2.0/arm/arm-none-eabi/include/c++/10.3.1/bits/move.h **** // a copy of the GCC Runtime Library Exception along with this program;
  22:/Library/DaisyToolchain/0.2.0/arm/arm-none-eabi/include/c++/10.3.1/bits/move.h **** // see the files COPYING3 and COPYING.RUNTIME respectively.  If not, see
  23:/Library/DaisyToolchain/0.2.0/arm/arm-none-eabi/include/c++/10.3.1/bits/move.h **** // <http://www.gnu.org/licenses/>.
  24:/Library/DaisyToolchain/0.2.0/arm/arm-none-eabi/include/c++/10.3.1/bits/move.h **** 
  25:/Library/DaisyToolchain/0.2.0/arm/arm-none-eabi/include/c++/10.3.1/bits/move.h **** /** @file bits/move.h
  26:/Library/DaisyToolchain/0.2.0/arm/arm-none-eabi/include/c++/10.3.1/bits/move.h ****  *  This is an internal header file, included by other library headers.
  27:/Library/DaisyToolchain/0.2.0/arm/arm-none-eabi/include/c++/10.3.1/bits/move.h ****  *  Do not attempt to use it directly. @headername{utility}
  28:/Library/DaisyToolchain/0.2.0/arm/arm-none-eabi/include/c++/10.3.1/bits/move.h ****  */
  29:/Library/DaisyToolchain/0.2.0/arm/arm-none-eabi/include/c++/10.3.1/bits/move.h **** 
  30:/Library/DaisyToolchain/0.2.0/arm/arm-none-eabi/include/c++/10.3.1/bits/move.h **** #ifndef _MOVE_H
  31:/Library/DaisyToolchain/0.2.0/arm/arm-none-eabi/include/c++/10.3.1/bits/move.h **** #define _MOVE_H 1
  32:/Library/DaisyToolchain/0.2.0/arm/arm-none-eabi/include/c++/10.3.1/bits/move.h **** 
  33:/Library/DaisyToolchain/0.2.0/arm/arm-none-eabi/include/c++/10.3.1/bits/move.h **** #include <bits/c++config.h>
  34:/Library/DaisyToolchain/0.2.0/arm/arm-none-eabi/include/c++/10.3.1/bits/move.h **** #if __cplusplus < 201103L
  35:/Library/DaisyToolchain/0.2.0/arm/arm-none-eabi/include/c++/10.3.1/bits/move.h **** # include <bits/concept_check.h>
  36:/Library/DaisyToolchain/0.2.0/arm/arm-none-eabi/include/c++/10.3.1/bits/move.h **** #endif
  37:/Library/DaisyToolchain/0.2.0/arm/arm-none-eabi/include/c++/10.3.1/bits/move.h **** 
  38:/Library/DaisyToolchain/0.2.0/arm/arm-none-eabi/include/c++/10.3.1/bits/move.h **** namespace std _GLIBCXX_VISIBILITY(default)
  39:/Library/DaisyToolchain/0.2.0/arm/arm-none-eabi/include/c++/10.3.1/bits/move.h **** {
  40:/Library/DaisyToolchain/0.2.0/arm/arm-none-eabi/include/c++/10.3.1/bits/move.h **** _GLIBCXX_BEGIN_NAMESPACE_VERSION
  41:/Library/DaisyToolchain/0.2.0/arm/arm-none-eabi/include/c++/10.3.1/bits/move.h **** 
  42:/Library/DaisyToolchain/0.2.0/arm/arm-none-eabi/include/c++/10.3.1/bits/move.h ****   // Used, in C++03 mode too, by allocators, etc.
  43:/Library/DaisyToolchain/0.2.0/arm/arm-none-eabi/include/c++/10.3.1/bits/move.h ****   /**
  44:/Library/DaisyToolchain/0.2.0/arm/arm-none-eabi/include/c++/10.3.1/bits/move.h ****    *  @brief Same as C++11 std::addressof
  45:/Library/DaisyToolchain/0.2.0/arm/arm-none-eabi/include/c++/10.3.1/bits/move.h ****    *  @ingroup utilities
  46:/Library/DaisyToolchain/0.2.0/arm/arm-none-eabi/include/c++/10.3.1/bits/move.h ****    */
  47:/Library/DaisyToolchain/0.2.0/arm/arm-none-eabi/include/c++/10.3.1/bits/move.h ****   template<typename _Tp>
  48:/Library/DaisyToolchain/0.2.0/arm/arm-none-eabi/include/c++/10.3.1/bits/move.h ****     inline _GLIBCXX_CONSTEXPR _Tp*
  49:/Library/DaisyToolchain/0.2.0/arm/arm-none-eabi/include/c++/10.3.1/bits/move.h ****     __addressof(_Tp& __r) _GLIBCXX_NOEXCEPT
  50:/Library/DaisyToolchain/0.2.0/arm/arm-none-eabi/include/c++/10.3.1/bits/move.h ****     { return __builtin_addressof(__r); }
  51:/Library/DaisyToolchain/0.2.0/arm/arm-none-eabi/include/c++/10.3.1/bits/move.h **** 
  52:/Library/DaisyToolchain/0.2.0/arm/arm-none-eabi/include/c++/10.3.1/bits/move.h **** #if __cplusplus >= 201103L
  53:/Library/DaisyToolchain/0.2.0/arm/arm-none-eabi/include/c++/10.3.1/bits/move.h **** 
  54:/Library/DaisyToolchain/0.2.0/arm/arm-none-eabi/include/c++/10.3.1/bits/move.h **** _GLIBCXX_END_NAMESPACE_VERSION
  55:/Library/DaisyToolchain/0.2.0/arm/arm-none-eabi/include/c++/10.3.1/bits/move.h **** } // namespace
  56:/Library/DaisyToolchain/0.2.0/arm/arm-none-eabi/include/c++/10.3.1/bits/move.h **** 
  57:/Library/DaisyToolchain/0.2.0/arm/arm-none-eabi/include/c++/10.3.1/bits/move.h **** #include <type_traits> // Brings in std::declval too.
  58:/Library/DaisyToolchain/0.2.0/arm/arm-none-eabi/include/c++/10.3.1/bits/move.h **** 
  59:/Library/DaisyToolchain/0.2.0/arm/arm-none-eabi/include/c++/10.3.1/bits/move.h **** namespace std _GLIBCXX_VISIBILITY(default)
  60:/Library/DaisyToolchain/0.2.0/arm/arm-none-eabi/include/c++/10.3.1/bits/move.h **** {
  61:/Library/DaisyToolchain/0.2.0/arm/arm-none-eabi/include/c++/10.3.1/bits/move.h **** _GLIBCXX_BEGIN_NAMESPACE_VERSION
  62:/Library/DaisyToolchain/0.2.0/arm/arm-none-eabi/include/c++/10.3.1/bits/move.h **** 
  63:/Library/DaisyToolchain/0.2.0/arm/arm-none-eabi/include/c++/10.3.1/bits/move.h ****   /**
  64:/Library/DaisyToolchain/0.2.0/arm/arm-none-eabi/include/c++/10.3.1/bits/move.h ****    *  @addtogroup utilities
  65:/Library/DaisyToolchain/0.2.0/arm/arm-none-eabi/include/c++/10.3.1/bits/move.h ****    *  @{
  66:/Library/DaisyToolchain/0.2.0/arm/arm-none-eabi/include/c++/10.3.1/bits/move.h ****    */
  67:/Library/DaisyToolchain/0.2.0/arm/arm-none-eabi/include/c++/10.3.1/bits/move.h **** 
  68:/Library/DaisyToolchain/0.2.0/arm/arm-none-eabi/include/c++/10.3.1/bits/move.h ****   /**
  69:/Library/DaisyToolchain/0.2.0/arm/arm-none-eabi/include/c++/10.3.1/bits/move.h ****    *  @brief  Forward an lvalue.
  70:/Library/DaisyToolchain/0.2.0/arm/arm-none-eabi/include/c++/10.3.1/bits/move.h ****    *  @return The parameter cast to the specified type.
  71:/Library/DaisyToolchain/0.2.0/arm/arm-none-eabi/include/c++/10.3.1/bits/move.h ****    *
  72:/Library/DaisyToolchain/0.2.0/arm/arm-none-eabi/include/c++/10.3.1/bits/move.h ****    *  This function is used to implement "perfect forwarding".
  73:/Library/DaisyToolchain/0.2.0/arm/arm-none-eabi/include/c++/10.3.1/bits/move.h ****    */
  74:/Library/DaisyToolchain/0.2.0/arm/arm-none-eabi/include/c++/10.3.1/bits/move.h ****   template<typename _Tp>
  75:/Library/DaisyToolchain/0.2.0/arm/arm-none-eabi/include/c++/10.3.1/bits/move.h ****     constexpr _Tp&&
  76:/Library/DaisyToolchain/0.2.0/arm/arm-none-eabi/include/c++/10.3.1/bits/move.h ****     forward(typename std::remove_reference<_Tp>::type& __t) noexcept
  77:/Library/DaisyToolchain/0.2.0/arm/arm-none-eabi/include/c++/10.3.1/bits/move.h ****     { return static_cast<_Tp&&>(__t); }
ARM GAS  /var/folders/wz/z09yph4n0qj4t7mjxhl6ttn80000gn/T//ccxdcdyF.s 			page 93


  78:/Library/DaisyToolchain/0.2.0/arm/arm-none-eabi/include/c++/10.3.1/bits/move.h **** 
  79:/Library/DaisyToolchain/0.2.0/arm/arm-none-eabi/include/c++/10.3.1/bits/move.h ****   /**
  80:/Library/DaisyToolchain/0.2.0/arm/arm-none-eabi/include/c++/10.3.1/bits/move.h ****    *  @brief  Forward an rvalue.
  81:/Library/DaisyToolchain/0.2.0/arm/arm-none-eabi/include/c++/10.3.1/bits/move.h ****    *  @return The parameter cast to the specified type.
  82:/Library/DaisyToolchain/0.2.0/arm/arm-none-eabi/include/c++/10.3.1/bits/move.h ****    *
  83:/Library/DaisyToolchain/0.2.0/arm/arm-none-eabi/include/c++/10.3.1/bits/move.h ****    *  This function is used to implement "perfect forwarding".
  84:/Library/DaisyToolchain/0.2.0/arm/arm-none-eabi/include/c++/10.3.1/bits/move.h ****    */
  85:/Library/DaisyToolchain/0.2.0/arm/arm-none-eabi/include/c++/10.3.1/bits/move.h ****   template<typename _Tp>
  86:/Library/DaisyToolchain/0.2.0/arm/arm-none-eabi/include/c++/10.3.1/bits/move.h ****     constexpr _Tp&&
  87:/Library/DaisyToolchain/0.2.0/arm/arm-none-eabi/include/c++/10.3.1/bits/move.h ****     forward(typename std::remove_reference<_Tp>::type&& __t) noexcept
  88:/Library/DaisyToolchain/0.2.0/arm/arm-none-eabi/include/c++/10.3.1/bits/move.h ****     {
  89:/Library/DaisyToolchain/0.2.0/arm/arm-none-eabi/include/c++/10.3.1/bits/move.h ****       static_assert(!std::is_lvalue_reference<_Tp>::value, "template argument"
  90:/Library/DaisyToolchain/0.2.0/arm/arm-none-eabi/include/c++/10.3.1/bits/move.h **** 		    " substituting _Tp is an lvalue reference type");
  91:/Library/DaisyToolchain/0.2.0/arm/arm-none-eabi/include/c++/10.3.1/bits/move.h ****       return static_cast<_Tp&&>(__t);
  92:/Library/DaisyToolchain/0.2.0/arm/arm-none-eabi/include/c++/10.3.1/bits/move.h ****     }
  93:/Library/DaisyToolchain/0.2.0/arm/arm-none-eabi/include/c++/10.3.1/bits/move.h **** 
  94:/Library/DaisyToolchain/0.2.0/arm/arm-none-eabi/include/c++/10.3.1/bits/move.h ****   /**
  95:/Library/DaisyToolchain/0.2.0/arm/arm-none-eabi/include/c++/10.3.1/bits/move.h ****    *  @brief  Convert a value to an rvalue.
  96:/Library/DaisyToolchain/0.2.0/arm/arm-none-eabi/include/c++/10.3.1/bits/move.h ****    *  @param  __t  A thing of arbitrary type.
  97:/Library/DaisyToolchain/0.2.0/arm/arm-none-eabi/include/c++/10.3.1/bits/move.h ****    *  @return The parameter cast to an rvalue-reference to allow moving it.
  98:/Library/DaisyToolchain/0.2.0/arm/arm-none-eabi/include/c++/10.3.1/bits/move.h ****   */
  99:/Library/DaisyToolchain/0.2.0/arm/arm-none-eabi/include/c++/10.3.1/bits/move.h ****   template<typename _Tp>
 100:/Library/DaisyToolchain/0.2.0/arm/arm-none-eabi/include/c++/10.3.1/bits/move.h ****     constexpr typename std::remove_reference<_Tp>::type&&
 101:/Library/DaisyToolchain/0.2.0/arm/arm-none-eabi/include/c++/10.3.1/bits/move.h ****     move(_Tp&& __t) noexcept
 3909              		.loc 8 101 5
 3910              		.cfi_startproc
 3911              		@ args = 0, pretend = 0, frame = 8
 3912              		@ frame_needed = 1, uses_anonymous_args = 0
 3913              		@ link register save eliminated.
 3914 0000 80B4     		push	{r7}
 3915              		.cfi_def_cfa_offset 4
 3916              		.cfi_offset 7, -4
 3917 0002 83B0     		sub	sp, sp, #12
 3918              		.cfi_def_cfa_offset 16
 3919 0004 00AF     		add	r7, sp, #0
 3920              		.cfi_def_cfa_register 7
 3921 0006 7860     		str	r0, [r7, #4]
 102:/Library/DaisyToolchain/0.2.0/arm/arm-none-eabi/include/c++/10.3.1/bits/move.h ****     { return static_cast<typename std::remove_reference<_Tp>::type&&>(__t); }
 3922              		.loc 8 102 74
 3923 0008 7B68     		ldr	r3, [r7, #4]
 3924              		.loc 8 102 77
 3925 000a 1846     		mov	r0, r3
 3926 000c 0C37     		adds	r7, r7, #12
 3927              		.cfi_def_cfa_offset 4
 3928 000e BD46     		mov	sp, r7
 3929              		.cfi_def_cfa_register 13
 3930              		@ sp needed
 3931 0010 5DF8047B 		ldr	r7, [sp], #4
 3932              		.cfi_restore 7
 3933              		.cfi_def_cfa_offset 0
 3934 0014 7047     		bx	lr
 3935              		.cfi_endproc
 3936              	.LFE6170:
 3938              		.section	.text._ZNSt14_Function_base13_Base_managerIZN5Mixer4initEPN5daisy9DaisySeedEPPfS6_S6_S6_S
 3939              		.align	1
 3940              		.syntax unified
 3941              		.thumb
ARM GAS  /var/folders/wz/z09yph4n0qj4t7mjxhl6ttn80000gn/T//ccxdcdyF.s 			page 94


 3942              		.thumb_func
 3944              	_ZNSt14_Function_base13_Base_managerIZN5Mixer4initEPN5daisy9DaisySeedEPPfS6_S6_S6_S6_PPN7daisysp9De
 3945              	.LFB6171:
 207:/Library/DaisyToolchain/0.2.0/arm/arm-none-eabi/include/c++/10.3.1/bits/std_function.h **** 	{ _M_init_functor(__functor, std::move(__f), _Local_storage()); }
 3946              		.loc 3 207 2
 3947              		.cfi_startproc
 3948              		@ args = 0, pretend = 0, frame = 8
 3949              		@ frame_needed = 1, uses_anonymous_args = 0
 3950 0000 90B5     		push	{r4, r7, lr}
 3951              		.cfi_def_cfa_offset 12
 3952              		.cfi_offset 4, -12
 3953              		.cfi_offset 7, -8
 3954              		.cfi_offset 14, -4
 3955 0002 83B0     		sub	sp, sp, #12
 3956              		.cfi_def_cfa_offset 24
 3957 0004 00AF     		add	r7, sp, #0
 3958              		.cfi_def_cfa_register 7
 3959 0006 7860     		str	r0, [r7, #4]
 3960 0008 3960     		str	r1, [r7]
 208:/Library/DaisyToolchain/0.2.0/arm/arm-none-eabi/include/c++/10.3.1/bits/std_function.h **** 
 3961              		.loc 3 208 40
 3962 000a 3868     		ldr	r0, [r7]
 3963 000c FFF7FEFF 		bl	_ZSt4moveIRZN5Mixer4initEPN5daisy9DaisySeedEPPfS5_S5_S5_S5_PPN7daisysp9DelayLineIfLj240000EEEEU
 3964 0010 0346     		mov	r3, r0
 208:/Library/DaisyToolchain/0.2.0/arm/arm-none-eabi/include/c++/10.3.1/bits/std_function.h **** 
 3965              		.loc 3 208 19
 3966 0012 2246     		mov	r2, r4
 3967 0014 1946     		mov	r1, r3
 3968 0016 7868     		ldr	r0, [r7, #4]
 3969 0018 FFF7FEFF 		bl	_ZNSt14_Function_base13_Base_managerIZN5Mixer4initEPN5daisy9DaisySeedEPPfS6_S6_S6_S6_PPN7daisys
 208:/Library/DaisyToolchain/0.2.0/arm/arm-none-eabi/include/c++/10.3.1/bits/std_function.h **** 
 3970              		.loc 3 208 66
 3971 001c 00BF     		nop
 3972 001e 0C37     		adds	r7, r7, #12
 3973              		.cfi_def_cfa_offset 12
 3974 0020 BD46     		mov	sp, r7
 3975              		.cfi_def_cfa_register 13
 3976              		@ sp needed
 3977 0022 90BD     		pop	{r4, r7, pc}
 3978              		.cfi_endproc
 3979              	.LFE6171:
 3981              		.section	.text._ZNSt17_Function_handlerIFvfEZN5Mixer4initEPN5daisy9DaisySeedEPPfS6_S6_S6_S6_PPN7da
 3982              		.align	1
 3983              		.syntax unified
 3984              		.thumb
 3985              		.thumb_func
 3987              	_ZNSt17_Function_handlerIFvfEZN5Mixer4initEPN5daisy9DaisySeedEPPfS6_S6_S6_S6_PPN7daisysp9DelayLineI
 3988              	.LFB6172:
 289:/Library/DaisyToolchain/0.2.0/arm/arm-none-eabi/include/c++/10.3.1/bits/std_function.h ****       {
 3989              		.loc 3 289 7
 3990              		.cfi_startproc
 3991              		@ args = 0, pretend = 0, frame = 8
 3992              		@ frame_needed = 1, uses_anonymous_args = 0
 3993 0000 90B5     		push	{r4, r7, lr}
 3994              		.cfi_def_cfa_offset 12
 3995              		.cfi_offset 4, -12
 3996              		.cfi_offset 7, -8
ARM GAS  /var/folders/wz/z09yph4n0qj4t7mjxhl6ttn80000gn/T//ccxdcdyF.s 			page 95


 3997              		.cfi_offset 14, -4
 3998 0002 83B0     		sub	sp, sp, #12
 3999              		.cfi_def_cfa_offset 24
 4000 0004 00AF     		add	r7, sp, #0
 4001              		.cfi_def_cfa_register 7
 4002 0006 7860     		str	r0, [r7, #4]
 4003 0008 3960     		str	r1, [r7]
 291:/Library/DaisyToolchain/0.2.0/arm/arm-none-eabi/include/c++/10.3.1/bits/std_function.h **** 				     std::forward<_ArgTypes>(__args)...);
 4004              		.loc 3 291 53
 4005 000a 7868     		ldr	r0, [r7, #4]
 4006 000c FFF7FEFF 		bl	_ZNSt14_Function_base13_Base_managerIZN5Mixer4initEPN5daisy9DaisySeedEPPfS6_S6_S6_S6_PPN7daisys
 4007 0010 0446     		mov	r4, r0
 291:/Library/DaisyToolchain/0.2.0/arm/arm-none-eabi/include/c++/10.3.1/bits/std_function.h **** 				     std::forward<_ArgTypes>(__args)...);
 4008              		.loc 3 291 30
 4009 0012 3868     		ldr	r0, [r7]
 4010 0014 FFF7FEFF 		bl	_ZSt7forwardIfEOT_RNSt16remove_referenceIS0_E4typeE
 4011 0018 0346     		mov	r3, r0
 4012 001a 1946     		mov	r1, r3
 4013 001c 2046     		mov	r0, r4
 4014 001e FFF7FEFF 		bl	_ZSt10__invoke_rIvRZN5Mixer4initEPN5daisy9DaisySeedEPPfS5_S5_S5_S5_PPN7daisysp9DelayLineIfLj240
 292:/Library/DaisyToolchain/0.2.0/arm/arm-none-eabi/include/c++/10.3.1/bits/std_function.h ****       }
 4015              		.loc 3 292 44
 4016 0022 00BF     		nop
 293:/Library/DaisyToolchain/0.2.0/arm/arm-none-eabi/include/c++/10.3.1/bits/std_function.h ****     };
 4017              		.loc 3 293 7
 4018 0024 0C37     		adds	r7, r7, #12
 4019              		.cfi_def_cfa_offset 12
 4020 0026 BD46     		mov	sp, r7
 4021              		.cfi_def_cfa_register 13
 4022              		@ sp needed
 4023 0028 90BD     		pop	{r4, r7, pc}
 4024              		.cfi_endproc
 4025              	.LFE6172:
 4027              		.section	.text._ZNSt17_Function_handlerIFvfEZN5Mixer4initEPN5daisy9DaisySeedEPPfS6_S6_S6_S6_PPN7da
 4028              		.align	1
 4029              		.syntax unified
 4030              		.thumb
 4031              		.thumb_func
 4033              	_ZNSt17_Function_handlerIFvfEZN5Mixer4initEPN5daisy9DaisySeedEPPfS6_S6_S6_S6_PPN7daisysp9DelayLineI
 4034              	.LFB6173:
 268:/Library/DaisyToolchain/0.2.0/arm/arm-none-eabi/include/c++/10.3.1/bits/std_function.h **** 		 _Manager_operation __op)
 4035              		.loc 3 268 7
 4036              		.cfi_startproc
 4037              		@ args = 0, pretend = 0, frame = 16
 4038              		@ frame_needed = 1, uses_anonymous_args = 0
 4039 0000 90B5     		push	{r4, r7, lr}
 4040              		.cfi_def_cfa_offset 12
 4041              		.cfi_offset 4, -12
 4042              		.cfi_offset 7, -8
 4043              		.cfi_offset 14, -4
 4044 0002 85B0     		sub	sp, sp, #20
 4045              		.cfi_def_cfa_offset 32
 4046 0004 00AF     		add	r7, sp, #0
 4047              		.cfi_def_cfa_register 7
 4048 0006 F860     		str	r0, [r7, #12]
 4049 0008 B960     		str	r1, [r7, #8]
 4050 000a 1346     		mov	r3, r2
ARM GAS  /var/folders/wz/z09yph4n0qj4t7mjxhl6ttn80000gn/T//ccxdcdyF.s 			page 96


 4051 000c FB71     		strb	r3, [r7, #7]
 271:/Library/DaisyToolchain/0.2.0/arm/arm-none-eabi/include/c++/10.3.1/bits/std_function.h **** 	  {
 4052              		.loc 3 271 10
 4053 000e FB79     		ldrb	r3, [r7, #7]	@ zero_extendqisi2
 271:/Library/DaisyToolchain/0.2.0/arm/arm-none-eabi/include/c++/10.3.1/bits/std_function.h **** 	  {
 4054              		.loc 3 271 2
 4055 0010 012B     		cmp	r3, #1
 4056 0012 09D1     		bne	.L146
 279:/Library/DaisyToolchain/0.2.0/arm/arm-none-eabi/include/c++/10.3.1/bits/std_function.h **** 	    break;
 4057              		.loc 3 279 33
 4058 0014 F868     		ldr	r0, [r7, #12]
 4059 0016 FFF7FEFF 		bl	_ZNSt9_Any_data9_M_accessIPZN5Mixer4initEPN5daisy9DaisySeedEPPfS6_S6_S6_S6_PPN7daisysp9DelayLin
 4060 001a 0446     		mov	r4, r0
 279:/Library/DaisyToolchain/0.2.0/arm/arm-none-eabi/include/c++/10.3.1/bits/std_function.h **** 	    break;
 4061              		.loc 3 279 59
 4062 001c B868     		ldr	r0, [r7, #8]
 4063 001e FFF7FEFF 		bl	_ZNSt14_Function_base13_Base_managerIZN5Mixer4initEPN5daisy9DaisySeedEPPfS6_S6_S6_S6_PPN7daisys
 4064 0022 0346     		mov	r3, r0
 279:/Library/DaisyToolchain/0.2.0/arm/arm-none-eabi/include/c++/10.3.1/bits/std_function.h **** 	    break;
 4065              		.loc 3 279 36
 4066 0024 2360     		str	r3, [r4]
 280:/Library/DaisyToolchain/0.2.0/arm/arm-none-eabi/include/c++/10.3.1/bits/std_function.h **** 
 4067              		.loc 3 280 6
 4068 0026 05E0     		b	.L147
 4069              	.L146:
 283:/Library/DaisyToolchain/0.2.0/arm/arm-none-eabi/include/c++/10.3.1/bits/std_function.h **** 	  }
 4070              		.loc 3 283 23
 4071 0028 FB79     		ldrb	r3, [r7, #7]	@ zero_extendqisi2
 4072 002a 1A46     		mov	r2, r3
 4073 002c B968     		ldr	r1, [r7, #8]
 4074 002e F868     		ldr	r0, [r7, #12]
 4075 0030 FFF7FEFF 		bl	_ZNSt14_Function_base13_Base_managerIZN5Mixer4initEPN5daisy9DaisySeedEPPfS6_S6_S6_S6_PPN7daisys
 4076              	.L147:
 285:/Library/DaisyToolchain/0.2.0/arm/arm-none-eabi/include/c++/10.3.1/bits/std_function.h ****       }
 4077              		.loc 3 285 9
 4078 0034 0023     		movs	r3, #0
 286:/Library/DaisyToolchain/0.2.0/arm/arm-none-eabi/include/c++/10.3.1/bits/std_function.h **** 
 4079              		.loc 3 286 7
 4080 0036 1846     		mov	r0, r3
 4081 0038 1437     		adds	r7, r7, #20
 4082              		.cfi_def_cfa_offset 12
 4083 003a BD46     		mov	sp, r7
 4084              		.cfi_def_cfa_register 13
 4085              		@ sp needed
 4086 003c 90BD     		pop	{r4, r7, pc}
 4087              		.cfi_endproc
 4088              	.LFE6173:
 4090              		.section	.text._ZNSt8functionIFvfEE4swapERS1_,"axG",%progbits,_ZNSt8functionIFvfEE4swapERS1_,comda
 4091              		.align	1
 4092              		.weak	_ZNSt8functionIFvfEE4swapERS1_
 4093              		.syntax unified
 4094              		.thumb
 4095              		.thumb_func
 4097              	_ZNSt8functionIFvfEE4swapERS1_:
 4098              	.LFB6174:
 481:/Library/DaisyToolchain/0.2.0/arm/arm-none-eabi/include/c++/10.3.1/bits/std_function.h ****       {
 4099              		.loc 3 481 12
ARM GAS  /var/folders/wz/z09yph4n0qj4t7mjxhl6ttn80000gn/T//ccxdcdyF.s 			page 97


 4100              		.cfi_startproc
 4101              		@ args = 0, pretend = 0, frame = 8
 4102              		@ frame_needed = 1, uses_anonymous_args = 0
 4103 0000 80B5     		push	{r7, lr}
 4104              		.cfi_def_cfa_offset 8
 4105              		.cfi_offset 7, -8
 4106              		.cfi_offset 14, -4
 4107 0002 82B0     		sub	sp, sp, #8
 4108              		.cfi_def_cfa_offset 16
 4109 0004 00AF     		add	r7, sp, #0
 4110              		.cfi_def_cfa_register 7
 4111 0006 7860     		str	r0, [r7, #4]
 4112 0008 3960     		str	r1, [r7]
 483:/Library/DaisyToolchain/0.2.0/arm/arm-none-eabi/include/c++/10.3.1/bits/std_function.h **** 	std::swap(_M_manager, __x._M_manager);
 4113              		.loc 3 483 12
 4114 000a 7B68     		ldr	r3, [r7, #4]
 483:/Library/DaisyToolchain/0.2.0/arm/arm-none-eabi/include/c++/10.3.1/bits/std_function.h **** 	std::swap(_M_manager, __x._M_manager);
 4115              		.loc 3 483 28
 4116 000c 3A68     		ldr	r2, [r7]
 483:/Library/DaisyToolchain/0.2.0/arm/arm-none-eabi/include/c++/10.3.1/bits/std_function.h **** 	std::swap(_M_manager, __x._M_manager);
 4117              		.loc 3 483 11
 4118 000e 1146     		mov	r1, r2
 4119 0010 1846     		mov	r0, r3
 4120 0012 FFF7FEFF 		bl	_ZSt4swapISt9_Any_dataENSt9enable_ifIXsrSt6__and_IJSt6__not_ISt15__is_tuple_likeIT_EESt21is_mov
 484:/Library/DaisyToolchain/0.2.0/arm/arm-none-eabi/include/c++/10.3.1/bits/std_function.h **** 	std::swap(_M_invoker, __x._M_invoker);
 4121              		.loc 3 484 12
 4122 0016 7B68     		ldr	r3, [r7, #4]
 4123 0018 03F10802 		add	r2, r3, #8
 484:/Library/DaisyToolchain/0.2.0/arm/arm-none-eabi/include/c++/10.3.1/bits/std_function.h **** 	std::swap(_M_invoker, __x._M_invoker);
 4124              		.loc 3 484 28
 4125 001c 3B68     		ldr	r3, [r7]
 4126 001e 0833     		adds	r3, r3, #8
 484:/Library/DaisyToolchain/0.2.0/arm/arm-none-eabi/include/c++/10.3.1/bits/std_function.h **** 	std::swap(_M_invoker, __x._M_invoker);
 4127              		.loc 3 484 11
 4128 0020 1946     		mov	r1, r3
 4129 0022 1046     		mov	r0, r2
 4130 0024 FFF7FEFF 		bl	_ZSt4swapIPFbRSt9_Any_dataRKS0_St18_Manager_operationEENSt9enable_ifIXsrSt6__and_IJSt6__not_ISt
 485:/Library/DaisyToolchain/0.2.0/arm/arm-none-eabi/include/c++/10.3.1/bits/std_function.h ****       }
 4131              		.loc 3 485 12
 4132 0028 7B68     		ldr	r3, [r7, #4]
 4133 002a 03F10C02 		add	r2, r3, #12
 485:/Library/DaisyToolchain/0.2.0/arm/arm-none-eabi/include/c++/10.3.1/bits/std_function.h ****       }
 4134              		.loc 3 485 28
 4135 002e 3B68     		ldr	r3, [r7]
 4136 0030 0C33     		adds	r3, r3, #12
 485:/Library/DaisyToolchain/0.2.0/arm/arm-none-eabi/include/c++/10.3.1/bits/std_function.h ****       }
 4137              		.loc 3 485 11
 4138 0032 1946     		mov	r1, r3
 4139 0034 1046     		mov	r0, r2
 4140 0036 FFF7FEFF 		bl	_ZSt4swapIPFvRKSt9_Any_dataOfEENSt9enable_ifIXsrSt6__and_IJSt6__not_ISt15__is_tuple_likeIT_EESt
 486:/Library/DaisyToolchain/0.2.0/arm/arm-none-eabi/include/c++/10.3.1/bits/std_function.h **** 
 4141              		.loc 3 486 7
 4142 003a 00BF     		nop
 4143 003c 0837     		adds	r7, r7, #8
 4144              		.cfi_def_cfa_offset 8
 4145 003e BD46     		mov	sp, r7
 4146              		.cfi_def_cfa_register 13
ARM GAS  /var/folders/wz/z09yph4n0qj4t7mjxhl6ttn80000gn/T//ccxdcdyF.s 			page 98


 4147              		@ sp needed
 4148 0040 80BD     		pop	{r7, pc}
 4149              		.cfi_endproc
 4150              	.LFE6174:
 4152              		.section	.text._ZNSt8functionIFvfEEaSERKS1_,"axG",%progbits,_ZNSt8functionIFvfEEaSERKS1_,comdat
 4153              		.align	1
 4154              		.weak	_ZNSt8functionIFvfEEaSERKS1_
 4155              		.syntax unified
 4156              		.thumb
 4157              		.thumb_func
 4159              	_ZNSt8functionIFvfEEaSERKS1_:
 4160              	.LFB6176:
 396:/Library/DaisyToolchain/0.2.0/arm/arm-none-eabi/include/c++/10.3.1/bits/std_function.h ****       {
 4161              		.loc 3 396 7
 4162              		.cfi_startproc
 4163              		@ args = 0, pretend = 0, frame = 24
 4164              		@ frame_needed = 1, uses_anonymous_args = 0
 4165 0000 80B5     		push	{r7, lr}
 4166              		.cfi_def_cfa_offset 8
 4167              		.cfi_offset 7, -8
 4168              		.cfi_offset 14, -4
 4169 0002 86B0     		sub	sp, sp, #24
 4170              		.cfi_def_cfa_offset 32
 4171 0004 00AF     		add	r7, sp, #0
 4172              		.cfi_def_cfa_register 7
 4173 0006 7860     		str	r0, [r7, #4]
 4174 0008 3960     		str	r1, [r7]
 398:/Library/DaisyToolchain/0.2.0/arm/arm-none-eabi/include/c++/10.3.1/bits/std_function.h **** 	return *this;
 4175              		.loc 3 398 2
 4176 000a 07F10803 		add	r3, r7, #8
 4177 000e 3968     		ldr	r1, [r7]
 4178 0010 1846     		mov	r0, r3
 4179 0012 FFF7FEFF 		bl	_ZNSt8functionIFvfEEC1ERKS1_
 398:/Library/DaisyToolchain/0.2.0/arm/arm-none-eabi/include/c++/10.3.1/bits/std_function.h **** 	return *this;
 4180              		.loc 3 398 20
 4181 0016 07F10803 		add	r3, r7, #8
 4182 001a 7968     		ldr	r1, [r7, #4]
 4183 001c 1846     		mov	r0, r3
 4184 001e FFF7FEFF 		bl	_ZNSt8functionIFvfEE4swapERS1_
 398:/Library/DaisyToolchain/0.2.0/arm/arm-none-eabi/include/c++/10.3.1/bits/std_function.h **** 	return *this;
 4185              		.loc 3 398 2
 4186 0022 07F10803 		add	r3, r7, #8
 4187 0026 1846     		mov	r0, r3
 4188 0028 FFF7FEFF 		bl	_ZNSt8functionIFvfEED1Ev
 399:/Library/DaisyToolchain/0.2.0/arm/arm-none-eabi/include/c++/10.3.1/bits/std_function.h ****       }
 4189              		.loc 3 399 10
 4190 002c 7B68     		ldr	r3, [r7, #4]
 400:/Library/DaisyToolchain/0.2.0/arm/arm-none-eabi/include/c++/10.3.1/bits/std_function.h **** 
 4191              		.loc 3 400 7
 4192 002e 1846     		mov	r0, r3
 4193 0030 1837     		adds	r7, r7, #24
 4194              		.cfi_def_cfa_offset 8
 4195 0032 BD46     		mov	sp, r7
 4196              		.cfi_def_cfa_register 13
 4197              		@ sp needed
 4198 0034 80BD     		pop	{r7, pc}
 4199              		.cfi_endproc
ARM GAS  /var/folders/wz/z09yph4n0qj4t7mjxhl6ttn80000gn/T//ccxdcdyF.s 			page 99


 4200              	.LFE6176:
 4202              		.section	.text._ZNSt14_Function_base13_Base_managerIZN5Mixer11initTrackIOEPN5daisy9DaisySeedE7Trac
 4203              		.align	1
 4204              		.syntax unified
 4205              		.thumb
 4206              		.thumb_func
 4208              	_ZNSt14_Function_base13_Base_managerIZN5Mixer11initTrackIOEPN5daisy9DaisySeedE7TrackIOS5_S5_S5_EUlf
 4209              	.LFB6177:
 227:/Library/DaisyToolchain/0.2.0/arm/arm-none-eabi/include/c++/10.3.1/bits/std_function.h **** 	  { return true; }
 4210              		.loc 3 227 4
 4211              		.cfi_startproc
 4212              		@ args = 0, pretend = 0, frame = 8
 4213              		@ frame_needed = 1, uses_anonymous_args = 0
 4214              		@ link register save eliminated.
 4215 0000 80B4     		push	{r7}
 4216              		.cfi_def_cfa_offset 4
 4217              		.cfi_offset 7, -4
 4218 0002 83B0     		sub	sp, sp, #12
 4219              		.cfi_def_cfa_offset 16
 4220 0004 00AF     		add	r7, sp, #0
 4221              		.cfi_def_cfa_register 7
 4222 0006 7860     		str	r0, [r7, #4]
 228:/Library/DaisyToolchain/0.2.0/arm/arm-none-eabi/include/c++/10.3.1/bits/std_function.h **** 
 4223              		.loc 3 228 13
 4224 0008 0123     		movs	r3, #1
 228:/Library/DaisyToolchain/0.2.0/arm/arm-none-eabi/include/c++/10.3.1/bits/std_function.h **** 
 4225              		.loc 3 228 19
 4226 000a 1846     		mov	r0, r3
 4227 000c 0C37     		adds	r7, r7, #12
 4228              		.cfi_def_cfa_offset 4
 4229 000e BD46     		mov	sp, r7
 4230              		.cfi_def_cfa_register 13
 4231              		@ sp needed
 4232 0010 5DF8047B 		ldr	r7, [sp], #4
 4233              		.cfi_restore 7
 4234              		.cfi_def_cfa_offset 0
 4235 0014 7047     		bx	lr
 4236              		.cfi_endproc
 4237              	.LFE6177:
 4239              		.section	.text._ZSt4moveIRZN5Mixer11initTrackIOEPN5daisy9DaisySeedE7TrackIOS4_S4_S4_EUlfE_EONSt16r
 4240              		.align	1
 4241              		.syntax unified
 4242              		.thumb
 4243              		.thumb_func
 4245              	_ZSt4moveIRZN5Mixer11initTrackIOEPN5daisy9DaisySeedE7TrackIOS4_S4_S4_EUlfE_EONSt16remove_referenceI
 4246              	.LFB6178:
 101:/Library/DaisyToolchain/0.2.0/arm/arm-none-eabi/include/c++/10.3.1/bits/move.h ****     { return static_cast<typename std::remove_reference<_Tp>::type&&>(__t); }
 4247              		.loc 8 101 5
 4248              		.cfi_startproc
 4249              		@ args = 0, pretend = 0, frame = 8
 4250              		@ frame_needed = 1, uses_anonymous_args = 0
 4251              		@ link register save eliminated.
 4252 0000 80B4     		push	{r7}
 4253              		.cfi_def_cfa_offset 4
 4254              		.cfi_offset 7, -4
 4255 0002 83B0     		sub	sp, sp, #12
 4256              		.cfi_def_cfa_offset 16
ARM GAS  /var/folders/wz/z09yph4n0qj4t7mjxhl6ttn80000gn/T//ccxdcdyF.s 			page 100


 4257 0004 00AF     		add	r7, sp, #0
 4258              		.cfi_def_cfa_register 7
 4259 0006 7860     		str	r0, [r7, #4]
 4260              		.loc 8 102 74
 4261 0008 7B68     		ldr	r3, [r7, #4]
 4262              		.loc 8 102 77
 4263 000a 1846     		mov	r0, r3
 4264 000c 0C37     		adds	r7, r7, #12
 4265              		.cfi_def_cfa_offset 4
 4266 000e BD46     		mov	sp, r7
 4267              		.cfi_def_cfa_register 13
 4268              		@ sp needed
 4269 0010 5DF8047B 		ldr	r7, [sp], #4
 4270              		.cfi_restore 7
 4271              		.cfi_def_cfa_offset 0
 4272 0014 7047     		bx	lr
 4273              		.cfi_endproc
 4274              	.LFE6178:
 4276              		.section	.text._ZNSt14_Function_base13_Base_managerIZN5Mixer11initTrackIOEPN5daisy9DaisySeedE7Trac
 4277              		.align	1
 4278              		.syntax unified
 4279              		.thumb
 4280              		.thumb_func
 4282              	_ZNSt14_Function_base13_Base_managerIZN5Mixer11initTrackIOEPN5daisy9DaisySeedE7TrackIOS5_S5_S5_EUlf
 4283              	.LFB6179:
 207:/Library/DaisyToolchain/0.2.0/arm/arm-none-eabi/include/c++/10.3.1/bits/std_function.h **** 	{ _M_init_functor(__functor, std::move(__f), _Local_storage()); }
 4284              		.loc 3 207 2
 4285              		.cfi_startproc
 4286              		@ args = 0, pretend = 0, frame = 8
 4287              		@ frame_needed = 1, uses_anonymous_args = 0
 4288 0000 90B5     		push	{r4, r7, lr}
 4289              		.cfi_def_cfa_offset 12
 4290              		.cfi_offset 4, -12
 4291              		.cfi_offset 7, -8
 4292              		.cfi_offset 14, -4
 4293 0002 83B0     		sub	sp, sp, #12
 4294              		.cfi_def_cfa_offset 24
 4295 0004 00AF     		add	r7, sp, #0
 4296              		.cfi_def_cfa_register 7
 4297 0006 7860     		str	r0, [r7, #4]
 4298 0008 3960     		str	r1, [r7]
 208:/Library/DaisyToolchain/0.2.0/arm/arm-none-eabi/include/c++/10.3.1/bits/std_function.h **** 
 4299              		.loc 3 208 40
 4300 000a 3868     		ldr	r0, [r7]
 4301 000c FFF7FEFF 		bl	_ZSt4moveIRZN5Mixer11initTrackIOEPN5daisy9DaisySeedE7TrackIOS4_S4_S4_EUlfE_EONSt16remove_refere
 4302 0010 0346     		mov	r3, r0
 208:/Library/DaisyToolchain/0.2.0/arm/arm-none-eabi/include/c++/10.3.1/bits/std_function.h **** 
 4303              		.loc 3 208 19
 4304 0012 2246     		mov	r2, r4
 4305 0014 1946     		mov	r1, r3
 4306 0016 7868     		ldr	r0, [r7, #4]
 4307 0018 FFF7FEFF 		bl	_ZNSt14_Function_base13_Base_managerIZN5Mixer11initTrackIOEPN5daisy9DaisySeedE7TrackIOS5_S5_S5_
 208:/Library/DaisyToolchain/0.2.0/arm/arm-none-eabi/include/c++/10.3.1/bits/std_function.h **** 
 4308              		.loc 3 208 66
 4309 001c 00BF     		nop
 4310 001e 0C37     		adds	r7, r7, #12
 4311              		.cfi_def_cfa_offset 12
ARM GAS  /var/folders/wz/z09yph4n0qj4t7mjxhl6ttn80000gn/T//ccxdcdyF.s 			page 101


 4312 0020 BD46     		mov	sp, r7
 4313              		.cfi_def_cfa_register 13
 4314              		@ sp needed
 4315 0022 90BD     		pop	{r4, r7, pc}
 4316              		.cfi_endproc
 4317              	.LFE6179:
 4319              		.section	.text._ZNSt17_Function_handlerIFvfEZN5Mixer11initTrackIOEPN5daisy9DaisySeedE7TrackIOS5_S5
 4320              		.align	1
 4321              		.syntax unified
 4322              		.thumb
 4323              		.thumb_func
 4325              	_ZNSt17_Function_handlerIFvfEZN5Mixer11initTrackIOEPN5daisy9DaisySeedE7TrackIOS5_S5_S5_EUlfE_E9_M_i
 4326              	.LFB6180:
 289:/Library/DaisyToolchain/0.2.0/arm/arm-none-eabi/include/c++/10.3.1/bits/std_function.h ****       {
 4327              		.loc 3 289 7
 4328              		.cfi_startproc
 4329              		@ args = 0, pretend = 0, frame = 8
 4330              		@ frame_needed = 1, uses_anonymous_args = 0
 4331 0000 90B5     		push	{r4, r7, lr}
 4332              		.cfi_def_cfa_offset 12
 4333              		.cfi_offset 4, -12
 4334              		.cfi_offset 7, -8
 4335              		.cfi_offset 14, -4
 4336 0002 83B0     		sub	sp, sp, #12
 4337              		.cfi_def_cfa_offset 24
 4338 0004 00AF     		add	r7, sp, #0
 4339              		.cfi_def_cfa_register 7
 4340 0006 7860     		str	r0, [r7, #4]
 4341 0008 3960     		str	r1, [r7]
 291:/Library/DaisyToolchain/0.2.0/arm/arm-none-eabi/include/c++/10.3.1/bits/std_function.h **** 				     std::forward<_ArgTypes>(__args)...);
 4342              		.loc 3 291 53
 4343 000a 7868     		ldr	r0, [r7, #4]
 4344 000c FFF7FEFF 		bl	_ZNSt14_Function_base13_Base_managerIZN5Mixer11initTrackIOEPN5daisy9DaisySeedE7TrackIOS5_S5_S5_
 4345 0010 0446     		mov	r4, r0
 291:/Library/DaisyToolchain/0.2.0/arm/arm-none-eabi/include/c++/10.3.1/bits/std_function.h **** 				     std::forward<_ArgTypes>(__args)...);
 4346              		.loc 3 291 30
 4347 0012 3868     		ldr	r0, [r7]
 4348 0014 FFF7FEFF 		bl	_ZSt7forwardIfEOT_RNSt16remove_referenceIS0_E4typeE
 4349 0018 0346     		mov	r3, r0
 4350 001a 1946     		mov	r1, r3
 4351 001c 2046     		mov	r0, r4
 4352 001e FFF7FEFF 		bl	_ZSt10__invoke_rIvRZN5Mixer11initTrackIOEPN5daisy9DaisySeedE7TrackIOS4_S4_S4_EUlfE_JfEENSt9enab
 292:/Library/DaisyToolchain/0.2.0/arm/arm-none-eabi/include/c++/10.3.1/bits/std_function.h ****       }
 4353              		.loc 3 292 44
 4354 0022 00BF     		nop
 293:/Library/DaisyToolchain/0.2.0/arm/arm-none-eabi/include/c++/10.3.1/bits/std_function.h ****     };
 4355              		.loc 3 293 7
 4356 0024 0C37     		adds	r7, r7, #12
 4357              		.cfi_def_cfa_offset 12
 4358 0026 BD46     		mov	sp, r7
 4359              		.cfi_def_cfa_register 13
 4360              		@ sp needed
 4361 0028 90BD     		pop	{r4, r7, pc}
 4362              		.cfi_endproc
 4363              	.LFE6180:
 4365              		.section	.text._ZNSt17_Function_handlerIFvfEZN5Mixer11initTrackIOEPN5daisy9DaisySeedE7TrackIOS5_S5
 4366              		.align	1
ARM GAS  /var/folders/wz/z09yph4n0qj4t7mjxhl6ttn80000gn/T//ccxdcdyF.s 			page 102


 4367              		.syntax unified
 4368              		.thumb
 4369              		.thumb_func
 4371              	_ZNSt17_Function_handlerIFvfEZN5Mixer11initTrackIOEPN5daisy9DaisySeedE7TrackIOS5_S5_S5_EUlfE_E10_M_
 4372              	.LFB6181:
 268:/Library/DaisyToolchain/0.2.0/arm/arm-none-eabi/include/c++/10.3.1/bits/std_function.h **** 		 _Manager_operation __op)
 4373              		.loc 3 268 7
 4374              		.cfi_startproc
 4375              		@ args = 0, pretend = 0, frame = 16
 4376              		@ frame_needed = 1, uses_anonymous_args = 0
 4377 0000 90B5     		push	{r4, r7, lr}
 4378              		.cfi_def_cfa_offset 12
 4379              		.cfi_offset 4, -12
 4380              		.cfi_offset 7, -8
 4381              		.cfi_offset 14, -4
 4382 0002 85B0     		sub	sp, sp, #20
 4383              		.cfi_def_cfa_offset 32
 4384 0004 00AF     		add	r7, sp, #0
 4385              		.cfi_def_cfa_register 7
 4386 0006 F860     		str	r0, [r7, #12]
 4387 0008 B960     		str	r1, [r7, #8]
 4388 000a 1346     		mov	r3, r2
 4389 000c FB71     		strb	r3, [r7, #7]
 271:/Library/DaisyToolchain/0.2.0/arm/arm-none-eabi/include/c++/10.3.1/bits/std_function.h **** 	  {
 4390              		.loc 3 271 10
 4391 000e FB79     		ldrb	r3, [r7, #7]	@ zero_extendqisi2
 271:/Library/DaisyToolchain/0.2.0/arm/arm-none-eabi/include/c++/10.3.1/bits/std_function.h **** 	  {
 4392              		.loc 3 271 2
 4393 0010 012B     		cmp	r3, #1
 4394 0012 09D1     		bne	.L160
 279:/Library/DaisyToolchain/0.2.0/arm/arm-none-eabi/include/c++/10.3.1/bits/std_function.h **** 	    break;
 4395              		.loc 3 279 33
 4396 0014 F868     		ldr	r0, [r7, #12]
 4397 0016 FFF7FEFF 		bl	_ZNSt9_Any_data9_M_accessIPZN5Mixer11initTrackIOEPN5daisy9DaisySeedE7TrackIOS5_S5_S5_EUlfE_EERT
 4398 001a 0446     		mov	r4, r0
 279:/Library/DaisyToolchain/0.2.0/arm/arm-none-eabi/include/c++/10.3.1/bits/std_function.h **** 	    break;
 4399              		.loc 3 279 59
 4400 001c B868     		ldr	r0, [r7, #8]
 4401 001e FFF7FEFF 		bl	_ZNSt14_Function_base13_Base_managerIZN5Mixer11initTrackIOEPN5daisy9DaisySeedE7TrackIOS5_S5_S5_
 4402 0022 0346     		mov	r3, r0
 279:/Library/DaisyToolchain/0.2.0/arm/arm-none-eabi/include/c++/10.3.1/bits/std_function.h **** 	    break;
 4403              		.loc 3 279 36
 4404 0024 2360     		str	r3, [r4]
 280:/Library/DaisyToolchain/0.2.0/arm/arm-none-eabi/include/c++/10.3.1/bits/std_function.h **** 
 4405              		.loc 3 280 6
 4406 0026 05E0     		b	.L161
 4407              	.L160:
 283:/Library/DaisyToolchain/0.2.0/arm/arm-none-eabi/include/c++/10.3.1/bits/std_function.h **** 	  }
 4408              		.loc 3 283 23
 4409 0028 FB79     		ldrb	r3, [r7, #7]	@ zero_extendqisi2
 4410 002a 1A46     		mov	r2, r3
 4411 002c B968     		ldr	r1, [r7, #8]
 4412 002e F868     		ldr	r0, [r7, #12]
 4413 0030 FFF7FEFF 		bl	_ZNSt14_Function_base13_Base_managerIZN5Mixer11initTrackIOEPN5daisy9DaisySeedE7TrackIOS5_S5_S5_
 4414              	.L161:
 285:/Library/DaisyToolchain/0.2.0/arm/arm-none-eabi/include/c++/10.3.1/bits/std_function.h ****       }
 4415              		.loc 3 285 9
ARM GAS  /var/folders/wz/z09yph4n0qj4t7mjxhl6ttn80000gn/T//ccxdcdyF.s 			page 103


 4416 0034 0023     		movs	r3, #0
 286:/Library/DaisyToolchain/0.2.0/arm/arm-none-eabi/include/c++/10.3.1/bits/std_function.h **** 
 4417              		.loc 3 286 7
 4418 0036 1846     		mov	r0, r3
 4419 0038 1437     		adds	r7, r7, #20
 4420              		.cfi_def_cfa_offset 12
 4421 003a BD46     		mov	sp, r7
 4422              		.cfi_def_cfa_register 13
 4423              		@ sp needed
 4424 003c 90BD     		pop	{r4, r7, pc}
 4425              		.cfi_endproc
 4426              	.LFE6181:
 4428              		.section	.text._ZNSt14_Function_base13_Base_managerIZN5Mixer11initTrackIOEPN5daisy9DaisySeedE7Trac
 4429              		.align	1
 4430              		.syntax unified
 4431              		.thumb
 4432              		.thumb_func
 4434              	_ZNSt14_Function_base13_Base_managerIZN5Mixer11initTrackIOEPN5daisy9DaisySeedE7TrackIOS5_S5_S5_EUlf
 4435              	.LFB6182:
 227:/Library/DaisyToolchain/0.2.0/arm/arm-none-eabi/include/c++/10.3.1/bits/std_function.h **** 	  { return true; }
 4436              		.loc 3 227 4
 4437              		.cfi_startproc
 4438              		@ args = 0, pretend = 0, frame = 8
 4439              		@ frame_needed = 1, uses_anonymous_args = 0
 4440              		@ link register save eliminated.
 4441 0000 80B4     		push	{r7}
 4442              		.cfi_def_cfa_offset 4
 4443              		.cfi_offset 7, -4
 4444 0002 83B0     		sub	sp, sp, #12
 4445              		.cfi_def_cfa_offset 16
 4446 0004 00AF     		add	r7, sp, #0
 4447              		.cfi_def_cfa_register 7
 4448 0006 7860     		str	r0, [r7, #4]
 228:/Library/DaisyToolchain/0.2.0/arm/arm-none-eabi/include/c++/10.3.1/bits/std_function.h **** 
 4449              		.loc 3 228 13
 4450 0008 0123     		movs	r3, #1
 228:/Library/DaisyToolchain/0.2.0/arm/arm-none-eabi/include/c++/10.3.1/bits/std_function.h **** 
 4451              		.loc 3 228 19
 4452 000a 1846     		mov	r0, r3
 4453 000c 0C37     		adds	r7, r7, #12
 4454              		.cfi_def_cfa_offset 4
 4455 000e BD46     		mov	sp, r7
 4456              		.cfi_def_cfa_register 13
 4457              		@ sp needed
 4458 0010 5DF8047B 		ldr	r7, [sp], #4
 4459              		.cfi_restore 7
 4460              		.cfi_def_cfa_offset 0
 4461 0014 7047     		bx	lr
 4462              		.cfi_endproc
 4463              	.LFE6182:
 4465              		.section	.text._ZSt4moveIRZN5Mixer11initTrackIOEPN5daisy9DaisySeedE7TrackIOS4_S4_S4_EUlfE0_EONSt16
 4466              		.align	1
 4467              		.syntax unified
 4468              		.thumb
 4469              		.thumb_func
 4471              	_ZSt4moveIRZN5Mixer11initTrackIOEPN5daisy9DaisySeedE7TrackIOS4_S4_S4_EUlfE0_EONSt16remove_reference
 4472              	.LFB6183:
ARM GAS  /var/folders/wz/z09yph4n0qj4t7mjxhl6ttn80000gn/T//ccxdcdyF.s 			page 104


 101:/Library/DaisyToolchain/0.2.0/arm/arm-none-eabi/include/c++/10.3.1/bits/move.h ****     { return static_cast<typename std::remove_reference<_Tp>::type&&>(__t); }
 4473              		.loc 8 101 5
 4474              		.cfi_startproc
 4475              		@ args = 0, pretend = 0, frame = 8
 4476              		@ frame_needed = 1, uses_anonymous_args = 0
 4477              		@ link register save eliminated.
 4478 0000 80B4     		push	{r7}
 4479              		.cfi_def_cfa_offset 4
 4480              		.cfi_offset 7, -4
 4481 0002 83B0     		sub	sp, sp, #12
 4482              		.cfi_def_cfa_offset 16
 4483 0004 00AF     		add	r7, sp, #0
 4484              		.cfi_def_cfa_register 7
 4485 0006 7860     		str	r0, [r7, #4]
 4486              		.loc 8 102 74
 4487 0008 7B68     		ldr	r3, [r7, #4]
 4488              		.loc 8 102 77
 4489 000a 1846     		mov	r0, r3
 4490 000c 0C37     		adds	r7, r7, #12
 4491              		.cfi_def_cfa_offset 4
 4492 000e BD46     		mov	sp, r7
 4493              		.cfi_def_cfa_register 13
 4494              		@ sp needed
 4495 0010 5DF8047B 		ldr	r7, [sp], #4
 4496              		.cfi_restore 7
 4497              		.cfi_def_cfa_offset 0
 4498 0014 7047     		bx	lr
 4499              		.cfi_endproc
 4500              	.LFE6183:
 4502              		.section	.text._ZNSt14_Function_base13_Base_managerIZN5Mixer11initTrackIOEPN5daisy9DaisySeedE7Trac
 4503              		.align	1
 4504              		.syntax unified
 4505              		.thumb
 4506              		.thumb_func
 4508              	_ZNSt14_Function_base13_Base_managerIZN5Mixer11initTrackIOEPN5daisy9DaisySeedE7TrackIOS5_S5_S5_EUlf
 4509              	.LFB6184:
 207:/Library/DaisyToolchain/0.2.0/arm/arm-none-eabi/include/c++/10.3.1/bits/std_function.h **** 	{ _M_init_functor(__functor, std::move(__f), _Local_storage()); }
 4510              		.loc 3 207 2
 4511              		.cfi_startproc
 4512              		@ args = 0, pretend = 0, frame = 8
 4513              		@ frame_needed = 1, uses_anonymous_args = 0
 4514 0000 90B5     		push	{r4, r7, lr}
 4515              		.cfi_def_cfa_offset 12
 4516              		.cfi_offset 4, -12
 4517              		.cfi_offset 7, -8
 4518              		.cfi_offset 14, -4
 4519 0002 83B0     		sub	sp, sp, #12
 4520              		.cfi_def_cfa_offset 24
 4521 0004 00AF     		add	r7, sp, #0
 4522              		.cfi_def_cfa_register 7
 4523 0006 7860     		str	r0, [r7, #4]
 4524 0008 3960     		str	r1, [r7]
 208:/Library/DaisyToolchain/0.2.0/arm/arm-none-eabi/include/c++/10.3.1/bits/std_function.h **** 
 4525              		.loc 3 208 40
 4526 000a 3868     		ldr	r0, [r7]
 4527 000c FFF7FEFF 		bl	_ZSt4moveIRZN5Mixer11initTrackIOEPN5daisy9DaisySeedE7TrackIOS4_S4_S4_EUlfE0_EONSt16remove_refer
 4528 0010 0346     		mov	r3, r0
ARM GAS  /var/folders/wz/z09yph4n0qj4t7mjxhl6ttn80000gn/T//ccxdcdyF.s 			page 105


 208:/Library/DaisyToolchain/0.2.0/arm/arm-none-eabi/include/c++/10.3.1/bits/std_function.h **** 
 4529              		.loc 3 208 19
 4530 0012 2246     		mov	r2, r4
 4531 0014 1946     		mov	r1, r3
 4532 0016 7868     		ldr	r0, [r7, #4]
 4533 0018 FFF7FEFF 		bl	_ZNSt14_Function_base13_Base_managerIZN5Mixer11initTrackIOEPN5daisy9DaisySeedE7TrackIOS5_S5_S5_
 208:/Library/DaisyToolchain/0.2.0/arm/arm-none-eabi/include/c++/10.3.1/bits/std_function.h **** 
 4534              		.loc 3 208 66
 4535 001c 00BF     		nop
 4536 001e 0C37     		adds	r7, r7, #12
 4537              		.cfi_def_cfa_offset 12
 4538 0020 BD46     		mov	sp, r7
 4539              		.cfi_def_cfa_register 13
 4540              		@ sp needed
 4541 0022 90BD     		pop	{r4, r7, pc}
 4542              		.cfi_endproc
 4543              	.LFE6184:
 4545              		.section	.text._ZNSt17_Function_handlerIFvfEZN5Mixer11initTrackIOEPN5daisy9DaisySeedE7TrackIOS5_S5
 4546              		.align	1
 4547              		.syntax unified
 4548              		.thumb
 4549              		.thumb_func
 4551              	_ZNSt17_Function_handlerIFvfEZN5Mixer11initTrackIOEPN5daisy9DaisySeedE7TrackIOS5_S5_S5_EUlfE0_E9_M_
 4552              	.LFB6185:
 289:/Library/DaisyToolchain/0.2.0/arm/arm-none-eabi/include/c++/10.3.1/bits/std_function.h ****       {
 4553              		.loc 3 289 7
 4554              		.cfi_startproc
 4555              		@ args = 0, pretend = 0, frame = 8
 4556              		@ frame_needed = 1, uses_anonymous_args = 0
 4557 0000 90B5     		push	{r4, r7, lr}
 4558              		.cfi_def_cfa_offset 12
 4559              		.cfi_offset 4, -12
 4560              		.cfi_offset 7, -8
 4561              		.cfi_offset 14, -4
 4562 0002 83B0     		sub	sp, sp, #12
 4563              		.cfi_def_cfa_offset 24
 4564 0004 00AF     		add	r7, sp, #0
 4565              		.cfi_def_cfa_register 7
 4566 0006 7860     		str	r0, [r7, #4]
 4567 0008 3960     		str	r1, [r7]
 291:/Library/DaisyToolchain/0.2.0/arm/arm-none-eabi/include/c++/10.3.1/bits/std_function.h **** 				     std::forward<_ArgTypes>(__args)...);
 4568              		.loc 3 291 53
 4569 000a 7868     		ldr	r0, [r7, #4]
 4570 000c FFF7FEFF 		bl	_ZNSt14_Function_base13_Base_managerIZN5Mixer11initTrackIOEPN5daisy9DaisySeedE7TrackIOS5_S5_S5_
 4571 0010 0446     		mov	r4, r0
 291:/Library/DaisyToolchain/0.2.0/arm/arm-none-eabi/include/c++/10.3.1/bits/std_function.h **** 				     std::forward<_ArgTypes>(__args)...);
 4572              		.loc 3 291 30
 4573 0012 3868     		ldr	r0, [r7]
 4574 0014 FFF7FEFF 		bl	_ZSt7forwardIfEOT_RNSt16remove_referenceIS0_E4typeE
 4575 0018 0346     		mov	r3, r0
 4576 001a 1946     		mov	r1, r3
 4577 001c 2046     		mov	r0, r4
 4578 001e FFF7FEFF 		bl	_ZSt10__invoke_rIvRZN5Mixer11initTrackIOEPN5daisy9DaisySeedE7TrackIOS4_S4_S4_EUlfE0_JfEENSt9ena
 292:/Library/DaisyToolchain/0.2.0/arm/arm-none-eabi/include/c++/10.3.1/bits/std_function.h ****       }
 4579              		.loc 3 292 44
 4580 0022 00BF     		nop
 293:/Library/DaisyToolchain/0.2.0/arm/arm-none-eabi/include/c++/10.3.1/bits/std_function.h ****     };
ARM GAS  /var/folders/wz/z09yph4n0qj4t7mjxhl6ttn80000gn/T//ccxdcdyF.s 			page 106


 4581              		.loc 3 293 7
 4582 0024 0C37     		adds	r7, r7, #12
 4583              		.cfi_def_cfa_offset 12
 4584 0026 BD46     		mov	sp, r7
 4585              		.cfi_def_cfa_register 13
 4586              		@ sp needed
 4587 0028 90BD     		pop	{r4, r7, pc}
 4588              		.cfi_endproc
 4589              	.LFE6185:
 4591              		.section	.text._ZNSt17_Function_handlerIFvfEZN5Mixer11initTrackIOEPN5daisy9DaisySeedE7TrackIOS5_S5
 4592              		.align	1
 4593              		.syntax unified
 4594              		.thumb
 4595              		.thumb_func
 4597              	_ZNSt17_Function_handlerIFvfEZN5Mixer11initTrackIOEPN5daisy9DaisySeedE7TrackIOS5_S5_S5_EUlfE0_E10_M
 4598              	.LFB6186:
 268:/Library/DaisyToolchain/0.2.0/arm/arm-none-eabi/include/c++/10.3.1/bits/std_function.h **** 		 _Manager_operation __op)
 4599              		.loc 3 268 7
 4600              		.cfi_startproc
 4601              		@ args = 0, pretend = 0, frame = 16
 4602              		@ frame_needed = 1, uses_anonymous_args = 0
 4603 0000 90B5     		push	{r4, r7, lr}
 4604              		.cfi_def_cfa_offset 12
 4605              		.cfi_offset 4, -12
 4606              		.cfi_offset 7, -8
 4607              		.cfi_offset 14, -4
 4608 0002 85B0     		sub	sp, sp, #20
 4609              		.cfi_def_cfa_offset 32
 4610 0004 00AF     		add	r7, sp, #0
 4611              		.cfi_def_cfa_register 7
 4612 0006 F860     		str	r0, [r7, #12]
 4613 0008 B960     		str	r1, [r7, #8]
 4614 000a 1346     		mov	r3, r2
 4615 000c FB71     		strb	r3, [r7, #7]
 271:/Library/DaisyToolchain/0.2.0/arm/arm-none-eabi/include/c++/10.3.1/bits/std_function.h **** 	  {
 4616              		.loc 3 271 10
 4617 000e FB79     		ldrb	r3, [r7, #7]	@ zero_extendqisi2
 271:/Library/DaisyToolchain/0.2.0/arm/arm-none-eabi/include/c++/10.3.1/bits/std_function.h **** 	  {
 4618              		.loc 3 271 2
 4619 0010 012B     		cmp	r3, #1
 4620 0012 09D1     		bne	.L171
 279:/Library/DaisyToolchain/0.2.0/arm/arm-none-eabi/include/c++/10.3.1/bits/std_function.h **** 	    break;
 4621              		.loc 3 279 33
 4622 0014 F868     		ldr	r0, [r7, #12]
 4623 0016 FFF7FEFF 		bl	_ZNSt9_Any_data9_M_accessIPZN5Mixer11initTrackIOEPN5daisy9DaisySeedE7TrackIOS5_S5_S5_EUlfE0_EER
 4624 001a 0446     		mov	r4, r0
 279:/Library/DaisyToolchain/0.2.0/arm/arm-none-eabi/include/c++/10.3.1/bits/std_function.h **** 	    break;
 4625              		.loc 3 279 59
 4626 001c B868     		ldr	r0, [r7, #8]
 4627 001e FFF7FEFF 		bl	_ZNSt14_Function_base13_Base_managerIZN5Mixer11initTrackIOEPN5daisy9DaisySeedE7TrackIOS5_S5_S5_
 4628 0022 0346     		mov	r3, r0
 279:/Library/DaisyToolchain/0.2.0/arm/arm-none-eabi/include/c++/10.3.1/bits/std_function.h **** 	    break;
 4629              		.loc 3 279 36
 4630 0024 2360     		str	r3, [r4]
 280:/Library/DaisyToolchain/0.2.0/arm/arm-none-eabi/include/c++/10.3.1/bits/std_function.h **** 
 4631              		.loc 3 280 6
 4632 0026 05E0     		b	.L172
ARM GAS  /var/folders/wz/z09yph4n0qj4t7mjxhl6ttn80000gn/T//ccxdcdyF.s 			page 107


 4633              	.L171:
 283:/Library/DaisyToolchain/0.2.0/arm/arm-none-eabi/include/c++/10.3.1/bits/std_function.h **** 	  }
 4634              		.loc 3 283 23
 4635 0028 FB79     		ldrb	r3, [r7, #7]	@ zero_extendqisi2
 4636 002a 1A46     		mov	r2, r3
 4637 002c B968     		ldr	r1, [r7, #8]
 4638 002e F868     		ldr	r0, [r7, #12]
 4639 0030 FFF7FEFF 		bl	_ZNSt14_Function_base13_Base_managerIZN5Mixer11initTrackIOEPN5daisy9DaisySeedE7TrackIOS5_S5_S5_
 4640              	.L172:
 285:/Library/DaisyToolchain/0.2.0/arm/arm-none-eabi/include/c++/10.3.1/bits/std_function.h ****       }
 4641              		.loc 3 285 9
 4642 0034 0023     		movs	r3, #0
 286:/Library/DaisyToolchain/0.2.0/arm/arm-none-eabi/include/c++/10.3.1/bits/std_function.h **** 
 4643              		.loc 3 286 7
 4644 0036 1846     		mov	r0, r3
 4645 0038 1437     		adds	r7, r7, #20
 4646              		.cfi_def_cfa_offset 12
 4647 003a BD46     		mov	sp, r7
 4648              		.cfi_def_cfa_register 13
 4649              		@ sp needed
 4650 003c 90BD     		pop	{r4, r7, pc}
 4651              		.cfi_endproc
 4652              	.LFE6186:
 4654              		.section	.text._ZNSt14_Function_base13_Base_managerIZN5Mixer11initTrackIOEPN5daisy9DaisySeedE7Trac
 4655              		.align	1
 4656              		.syntax unified
 4657              		.thumb
 4658              		.thumb_func
 4660              	_ZNSt14_Function_base13_Base_managerIZN5Mixer11initTrackIOEPN5daisy9DaisySeedE7TrackIOS5_S5_S5_EUlf
 4661              	.LFB6187:
 227:/Library/DaisyToolchain/0.2.0/arm/arm-none-eabi/include/c++/10.3.1/bits/std_function.h **** 	  { return true; }
 4662              		.loc 3 227 4
 4663              		.cfi_startproc
 4664              		@ args = 0, pretend = 0, frame = 8
 4665              		@ frame_needed = 1, uses_anonymous_args = 0
 4666              		@ link register save eliminated.
 4667 0000 80B4     		push	{r7}
 4668              		.cfi_def_cfa_offset 4
 4669              		.cfi_offset 7, -4
 4670 0002 83B0     		sub	sp, sp, #12
 4671              		.cfi_def_cfa_offset 16
 4672 0004 00AF     		add	r7, sp, #0
 4673              		.cfi_def_cfa_register 7
 4674 0006 7860     		str	r0, [r7, #4]
 228:/Library/DaisyToolchain/0.2.0/arm/arm-none-eabi/include/c++/10.3.1/bits/std_function.h **** 
 4675              		.loc 3 228 13
 4676 0008 0123     		movs	r3, #1
 228:/Library/DaisyToolchain/0.2.0/arm/arm-none-eabi/include/c++/10.3.1/bits/std_function.h **** 
 4677              		.loc 3 228 19
 4678 000a 1846     		mov	r0, r3
 4679 000c 0C37     		adds	r7, r7, #12
 4680              		.cfi_def_cfa_offset 4
 4681 000e BD46     		mov	sp, r7
 4682              		.cfi_def_cfa_register 13
 4683              		@ sp needed
 4684 0010 5DF8047B 		ldr	r7, [sp], #4
 4685              		.cfi_restore 7
ARM GAS  /var/folders/wz/z09yph4n0qj4t7mjxhl6ttn80000gn/T//ccxdcdyF.s 			page 108


 4686              		.cfi_def_cfa_offset 0
 4687 0014 7047     		bx	lr
 4688              		.cfi_endproc
 4689              	.LFE6187:
 4691              		.section	.text._ZSt4moveIRZN5Mixer11initTrackIOEPN5daisy9DaisySeedE7TrackIOS4_S4_S4_EUlfE1_EONSt16
 4692              		.align	1
 4693              		.syntax unified
 4694              		.thumb
 4695              		.thumb_func
 4697              	_ZSt4moveIRZN5Mixer11initTrackIOEPN5daisy9DaisySeedE7TrackIOS4_S4_S4_EUlfE1_EONSt16remove_reference
 4698              	.LFB6188:
 101:/Library/DaisyToolchain/0.2.0/arm/arm-none-eabi/include/c++/10.3.1/bits/move.h ****     { return static_cast<typename std::remove_reference<_Tp>::type&&>(__t); }
 4699              		.loc 8 101 5
 4700              		.cfi_startproc
 4701              		@ args = 0, pretend = 0, frame = 8
 4702              		@ frame_needed = 1, uses_anonymous_args = 0
 4703              		@ link register save eliminated.
 4704 0000 80B4     		push	{r7}
 4705              		.cfi_def_cfa_offset 4
 4706              		.cfi_offset 7, -4
 4707 0002 83B0     		sub	sp, sp, #12
 4708              		.cfi_def_cfa_offset 16
 4709 0004 00AF     		add	r7, sp, #0
 4710              		.cfi_def_cfa_register 7
 4711 0006 7860     		str	r0, [r7, #4]
 4712              		.loc 8 102 74
 4713 0008 7B68     		ldr	r3, [r7, #4]
 4714              		.loc 8 102 77
 4715 000a 1846     		mov	r0, r3
 4716 000c 0C37     		adds	r7, r7, #12
 4717              		.cfi_def_cfa_offset 4
 4718 000e BD46     		mov	sp, r7
 4719              		.cfi_def_cfa_register 13
 4720              		@ sp needed
 4721 0010 5DF8047B 		ldr	r7, [sp], #4
 4722              		.cfi_restore 7
 4723              		.cfi_def_cfa_offset 0
 4724 0014 7047     		bx	lr
 4725              		.cfi_endproc
 4726              	.LFE6188:
 4728              		.section	.text._ZNSt14_Function_base13_Base_managerIZN5Mixer11initTrackIOEPN5daisy9DaisySeedE7Trac
 4729              		.align	1
 4730              		.syntax unified
 4731              		.thumb
 4732              		.thumb_func
 4734              	_ZNSt14_Function_base13_Base_managerIZN5Mixer11initTrackIOEPN5daisy9DaisySeedE7TrackIOS5_S5_S5_EUlf
 4735              	.LFB6189:
 207:/Library/DaisyToolchain/0.2.0/arm/arm-none-eabi/include/c++/10.3.1/bits/std_function.h **** 	{ _M_init_functor(__functor, std::move(__f), _Local_storage()); }
 4736              		.loc 3 207 2
 4737              		.cfi_startproc
 4738              		@ args = 0, pretend = 0, frame = 8
 4739              		@ frame_needed = 1, uses_anonymous_args = 0
 4740 0000 90B5     		push	{r4, r7, lr}
 4741              		.cfi_def_cfa_offset 12
 4742              		.cfi_offset 4, -12
 4743              		.cfi_offset 7, -8
 4744              		.cfi_offset 14, -4
ARM GAS  /var/folders/wz/z09yph4n0qj4t7mjxhl6ttn80000gn/T//ccxdcdyF.s 			page 109


 4745 0002 83B0     		sub	sp, sp, #12
 4746              		.cfi_def_cfa_offset 24
 4747 0004 00AF     		add	r7, sp, #0
 4748              		.cfi_def_cfa_register 7
 4749 0006 7860     		str	r0, [r7, #4]
 4750 0008 3960     		str	r1, [r7]
 208:/Library/DaisyToolchain/0.2.0/arm/arm-none-eabi/include/c++/10.3.1/bits/std_function.h **** 
 4751              		.loc 3 208 40
 4752 000a 3868     		ldr	r0, [r7]
 4753 000c FFF7FEFF 		bl	_ZSt4moveIRZN5Mixer11initTrackIOEPN5daisy9DaisySeedE7TrackIOS4_S4_S4_EUlfE1_EONSt16remove_refer
 4754 0010 0346     		mov	r3, r0
 208:/Library/DaisyToolchain/0.2.0/arm/arm-none-eabi/include/c++/10.3.1/bits/std_function.h **** 
 4755              		.loc 3 208 19
 4756 0012 2246     		mov	r2, r4
 4757 0014 1946     		mov	r1, r3
 4758 0016 7868     		ldr	r0, [r7, #4]
 4759 0018 FFF7FEFF 		bl	_ZNSt14_Function_base13_Base_managerIZN5Mixer11initTrackIOEPN5daisy9DaisySeedE7TrackIOS5_S5_S5_
 208:/Library/DaisyToolchain/0.2.0/arm/arm-none-eabi/include/c++/10.3.1/bits/std_function.h **** 
 4760              		.loc 3 208 66
 4761 001c 00BF     		nop
 4762 001e 0C37     		adds	r7, r7, #12
 4763              		.cfi_def_cfa_offset 12
 4764 0020 BD46     		mov	sp, r7
 4765              		.cfi_def_cfa_register 13
 4766              		@ sp needed
 4767 0022 90BD     		pop	{r4, r7, pc}
 4768              		.cfi_endproc
 4769              	.LFE6189:
 4771              		.section	.text._ZNSt17_Function_handlerIFvfEZN5Mixer11initTrackIOEPN5daisy9DaisySeedE7TrackIOS5_S5
 4772              		.align	1
 4773              		.syntax unified
 4774              		.thumb
 4775              		.thumb_func
 4777              	_ZNSt17_Function_handlerIFvfEZN5Mixer11initTrackIOEPN5daisy9DaisySeedE7TrackIOS5_S5_S5_EUlfE1_E9_M_
 4778              	.LFB6190:
 289:/Library/DaisyToolchain/0.2.0/arm/arm-none-eabi/include/c++/10.3.1/bits/std_function.h ****       {
 4779              		.loc 3 289 7
 4780              		.cfi_startproc
 4781              		@ args = 0, pretend = 0, frame = 8
 4782              		@ frame_needed = 1, uses_anonymous_args = 0
 4783 0000 90B5     		push	{r4, r7, lr}
 4784              		.cfi_def_cfa_offset 12
 4785              		.cfi_offset 4, -12
 4786              		.cfi_offset 7, -8
 4787              		.cfi_offset 14, -4
 4788 0002 83B0     		sub	sp, sp, #12
 4789              		.cfi_def_cfa_offset 24
 4790 0004 00AF     		add	r7, sp, #0
 4791              		.cfi_def_cfa_register 7
 4792 0006 7860     		str	r0, [r7, #4]
 4793 0008 3960     		str	r1, [r7]
 291:/Library/DaisyToolchain/0.2.0/arm/arm-none-eabi/include/c++/10.3.1/bits/std_function.h **** 				     std::forward<_ArgTypes>(__args)...);
 4794              		.loc 3 291 53
 4795 000a 7868     		ldr	r0, [r7, #4]
 4796 000c FFF7FEFF 		bl	_ZNSt14_Function_base13_Base_managerIZN5Mixer11initTrackIOEPN5daisy9DaisySeedE7TrackIOS5_S5_S5_
 4797 0010 0446     		mov	r4, r0
 291:/Library/DaisyToolchain/0.2.0/arm/arm-none-eabi/include/c++/10.3.1/bits/std_function.h **** 				     std::forward<_ArgTypes>(__args)...);
ARM GAS  /var/folders/wz/z09yph4n0qj4t7mjxhl6ttn80000gn/T//ccxdcdyF.s 			page 110


 4798              		.loc 3 291 30
 4799 0012 3868     		ldr	r0, [r7]
 4800 0014 FFF7FEFF 		bl	_ZSt7forwardIfEOT_RNSt16remove_referenceIS0_E4typeE
 4801 0018 0346     		mov	r3, r0
 4802 001a 1946     		mov	r1, r3
 4803 001c 2046     		mov	r0, r4
 4804 001e FFF7FEFF 		bl	_ZSt10__invoke_rIvRZN5Mixer11initTrackIOEPN5daisy9DaisySeedE7TrackIOS4_S4_S4_EUlfE1_JfEENSt9ena
 292:/Library/DaisyToolchain/0.2.0/arm/arm-none-eabi/include/c++/10.3.1/bits/std_function.h ****       }
 4805              		.loc 3 292 44
 4806 0022 00BF     		nop
 293:/Library/DaisyToolchain/0.2.0/arm/arm-none-eabi/include/c++/10.3.1/bits/std_function.h ****     };
 4807              		.loc 3 293 7
 4808 0024 0C37     		adds	r7, r7, #12
 4809              		.cfi_def_cfa_offset 12
 4810 0026 BD46     		mov	sp, r7
 4811              		.cfi_def_cfa_register 13
 4812              		@ sp needed
 4813 0028 90BD     		pop	{r4, r7, pc}
 4814              		.cfi_endproc
 4815              	.LFE6190:
 4817              		.section	.text._ZNSt17_Function_handlerIFvfEZN5Mixer11initTrackIOEPN5daisy9DaisySeedE7TrackIOS5_S5
 4818              		.align	1
 4819              		.syntax unified
 4820              		.thumb
 4821              		.thumb_func
 4823              	_ZNSt17_Function_handlerIFvfEZN5Mixer11initTrackIOEPN5daisy9DaisySeedE7TrackIOS5_S5_S5_EUlfE1_E10_M
 4824              	.LFB6191:
 268:/Library/DaisyToolchain/0.2.0/arm/arm-none-eabi/include/c++/10.3.1/bits/std_function.h **** 		 _Manager_operation __op)
 4825              		.loc 3 268 7
 4826              		.cfi_startproc
 4827              		@ args = 0, pretend = 0, frame = 16
 4828              		@ frame_needed = 1, uses_anonymous_args = 0
 4829 0000 90B5     		push	{r4, r7, lr}
 4830              		.cfi_def_cfa_offset 12
 4831              		.cfi_offset 4, -12
 4832              		.cfi_offset 7, -8
 4833              		.cfi_offset 14, -4
 4834 0002 85B0     		sub	sp, sp, #20
 4835              		.cfi_def_cfa_offset 32
 4836 0004 00AF     		add	r7, sp, #0
 4837              		.cfi_def_cfa_register 7
 4838 0006 F860     		str	r0, [r7, #12]
 4839 0008 B960     		str	r1, [r7, #8]
 4840 000a 1346     		mov	r3, r2
 4841 000c FB71     		strb	r3, [r7, #7]
 271:/Library/DaisyToolchain/0.2.0/arm/arm-none-eabi/include/c++/10.3.1/bits/std_function.h **** 	  {
 4842              		.loc 3 271 10
 4843 000e FB79     		ldrb	r3, [r7, #7]	@ zero_extendqisi2
 271:/Library/DaisyToolchain/0.2.0/arm/arm-none-eabi/include/c++/10.3.1/bits/std_function.h **** 	  {
 4844              		.loc 3 271 2
 4845 0010 012B     		cmp	r3, #1
 4846 0012 09D1     		bne	.L182
 279:/Library/DaisyToolchain/0.2.0/arm/arm-none-eabi/include/c++/10.3.1/bits/std_function.h **** 	    break;
 4847              		.loc 3 279 33
 4848 0014 F868     		ldr	r0, [r7, #12]
 4849 0016 FFF7FEFF 		bl	_ZNSt9_Any_data9_M_accessIPZN5Mixer11initTrackIOEPN5daisy9DaisySeedE7TrackIOS5_S5_S5_EUlfE1_EER
 4850 001a 0446     		mov	r4, r0
ARM GAS  /var/folders/wz/z09yph4n0qj4t7mjxhl6ttn80000gn/T//ccxdcdyF.s 			page 111


 279:/Library/DaisyToolchain/0.2.0/arm/arm-none-eabi/include/c++/10.3.1/bits/std_function.h **** 	    break;
 4851              		.loc 3 279 59
 4852 001c B868     		ldr	r0, [r7, #8]
 4853 001e FFF7FEFF 		bl	_ZNSt14_Function_base13_Base_managerIZN5Mixer11initTrackIOEPN5daisy9DaisySeedE7TrackIOS5_S5_S5_
 4854 0022 0346     		mov	r3, r0
 279:/Library/DaisyToolchain/0.2.0/arm/arm-none-eabi/include/c++/10.3.1/bits/std_function.h **** 	    break;
 4855              		.loc 3 279 36
 4856 0024 2360     		str	r3, [r4]
 280:/Library/DaisyToolchain/0.2.0/arm/arm-none-eabi/include/c++/10.3.1/bits/std_function.h **** 
 4857              		.loc 3 280 6
 4858 0026 05E0     		b	.L183
 4859              	.L182:
 283:/Library/DaisyToolchain/0.2.0/arm/arm-none-eabi/include/c++/10.3.1/bits/std_function.h **** 	  }
 4860              		.loc 3 283 23
 4861 0028 FB79     		ldrb	r3, [r7, #7]	@ zero_extendqisi2
 4862 002a 1A46     		mov	r2, r3
 4863 002c B968     		ldr	r1, [r7, #8]
 4864 002e F868     		ldr	r0, [r7, #12]
 4865 0030 FFF7FEFF 		bl	_ZNSt14_Function_base13_Base_managerIZN5Mixer11initTrackIOEPN5daisy9DaisySeedE7TrackIOS5_S5_S5_
 4866              	.L183:
 285:/Library/DaisyToolchain/0.2.0/arm/arm-none-eabi/include/c++/10.3.1/bits/std_function.h ****       }
 4867              		.loc 3 285 9
 4868 0034 0023     		movs	r3, #0
 286:/Library/DaisyToolchain/0.2.0/arm/arm-none-eabi/include/c++/10.3.1/bits/std_function.h **** 
 4869              		.loc 3 286 7
 4870 0036 1846     		mov	r0, r3
 4871 0038 1437     		adds	r7, r7, #20
 4872              		.cfi_def_cfa_offset 12
 4873 003a BD46     		mov	sp, r7
 4874              		.cfi_def_cfa_register 13
 4875              		@ sp needed
 4876 003c 90BD     		pop	{r4, r7, pc}
 4877              		.cfi_endproc
 4878              	.LFE6191:
 4880              		.section	.text._ZNSt14_Function_base13_Base_managerIZN5Mixer11initTrackIOEPN5daisy9DaisySeedE7Trac
 4881              		.align	1
 4882              		.syntax unified
 4883              		.thumb
 4884              		.thumb_func
 4886              	_ZNSt14_Function_base13_Base_managerIZN5Mixer11initTrackIOEPN5daisy9DaisySeedE7TrackIOS5_S5_S5_EUlf
 4887              	.LFB6192:
 227:/Library/DaisyToolchain/0.2.0/arm/arm-none-eabi/include/c++/10.3.1/bits/std_function.h **** 	  { return true; }
 4888              		.loc 3 227 4
 4889              		.cfi_startproc
 4890              		@ args = 0, pretend = 0, frame = 8
 4891              		@ frame_needed = 1, uses_anonymous_args = 0
 4892              		@ link register save eliminated.
 4893 0000 80B4     		push	{r7}
 4894              		.cfi_def_cfa_offset 4
 4895              		.cfi_offset 7, -4
 4896 0002 83B0     		sub	sp, sp, #12
 4897              		.cfi_def_cfa_offset 16
 4898 0004 00AF     		add	r7, sp, #0
 4899              		.cfi_def_cfa_register 7
 4900 0006 7860     		str	r0, [r7, #4]
 228:/Library/DaisyToolchain/0.2.0/arm/arm-none-eabi/include/c++/10.3.1/bits/std_function.h **** 
 4901              		.loc 3 228 13
ARM GAS  /var/folders/wz/z09yph4n0qj4t7mjxhl6ttn80000gn/T//ccxdcdyF.s 			page 112


 4902 0008 0123     		movs	r3, #1
 228:/Library/DaisyToolchain/0.2.0/arm/arm-none-eabi/include/c++/10.3.1/bits/std_function.h **** 
 4903              		.loc 3 228 19
 4904 000a 1846     		mov	r0, r3
 4905 000c 0C37     		adds	r7, r7, #12
 4906              		.cfi_def_cfa_offset 4
 4907 000e BD46     		mov	sp, r7
 4908              		.cfi_def_cfa_register 13
 4909              		@ sp needed
 4910 0010 5DF8047B 		ldr	r7, [sp], #4
 4911              		.cfi_restore 7
 4912              		.cfi_def_cfa_offset 0
 4913 0014 7047     		bx	lr
 4914              		.cfi_endproc
 4915              	.LFE6192:
 4917              		.section	.text._ZSt4moveIRZN5Mixer11initTrackIOEPN5daisy9DaisySeedE7TrackIOS4_S4_S4_EUlfE2_EONSt16
 4918              		.align	1
 4919              		.syntax unified
 4920              		.thumb
 4921              		.thumb_func
 4923              	_ZSt4moveIRZN5Mixer11initTrackIOEPN5daisy9DaisySeedE7TrackIOS4_S4_S4_EUlfE2_EONSt16remove_reference
 4924              	.LFB6193:
 101:/Library/DaisyToolchain/0.2.0/arm/arm-none-eabi/include/c++/10.3.1/bits/move.h ****     { return static_cast<typename std::remove_reference<_Tp>::type&&>(__t); }
 4925              		.loc 8 101 5
 4926              		.cfi_startproc
 4927              		@ args = 0, pretend = 0, frame = 8
 4928              		@ frame_needed = 1, uses_anonymous_args = 0
 4929              		@ link register save eliminated.
 4930 0000 80B4     		push	{r7}
 4931              		.cfi_def_cfa_offset 4
 4932              		.cfi_offset 7, -4
 4933 0002 83B0     		sub	sp, sp, #12
 4934              		.cfi_def_cfa_offset 16
 4935 0004 00AF     		add	r7, sp, #0
 4936              		.cfi_def_cfa_register 7
 4937 0006 7860     		str	r0, [r7, #4]
 4938              		.loc 8 102 74
 4939 0008 7B68     		ldr	r3, [r7, #4]
 4940              		.loc 8 102 77
 4941 000a 1846     		mov	r0, r3
 4942 000c 0C37     		adds	r7, r7, #12
 4943              		.cfi_def_cfa_offset 4
 4944 000e BD46     		mov	sp, r7
 4945              		.cfi_def_cfa_register 13
 4946              		@ sp needed
 4947 0010 5DF8047B 		ldr	r7, [sp], #4
 4948              		.cfi_restore 7
 4949              		.cfi_def_cfa_offset 0
 4950 0014 7047     		bx	lr
 4951              		.cfi_endproc
 4952              	.LFE6193:
 4954              		.section	.text._ZNSt14_Function_base13_Base_managerIZN5Mixer11initTrackIOEPN5daisy9DaisySeedE7Trac
 4955              		.align	1
 4956              		.syntax unified
 4957              		.thumb
 4958              		.thumb_func
 4960              	_ZNSt14_Function_base13_Base_managerIZN5Mixer11initTrackIOEPN5daisy9DaisySeedE7TrackIOS5_S5_S5_EUlf
ARM GAS  /var/folders/wz/z09yph4n0qj4t7mjxhl6ttn80000gn/T//ccxdcdyF.s 			page 113


 4961              	.LFB6194:
 207:/Library/DaisyToolchain/0.2.0/arm/arm-none-eabi/include/c++/10.3.1/bits/std_function.h **** 	{ _M_init_functor(__functor, std::move(__f), _Local_storage()); }
 4962              		.loc 3 207 2
 4963              		.cfi_startproc
 4964              		@ args = 0, pretend = 0, frame = 8
 4965              		@ frame_needed = 1, uses_anonymous_args = 0
 4966 0000 90B5     		push	{r4, r7, lr}
 4967              		.cfi_def_cfa_offset 12
 4968              		.cfi_offset 4, -12
 4969              		.cfi_offset 7, -8
 4970              		.cfi_offset 14, -4
 4971 0002 83B0     		sub	sp, sp, #12
 4972              		.cfi_def_cfa_offset 24
 4973 0004 00AF     		add	r7, sp, #0
 4974              		.cfi_def_cfa_register 7
 4975 0006 7860     		str	r0, [r7, #4]
 4976 0008 3960     		str	r1, [r7]
 208:/Library/DaisyToolchain/0.2.0/arm/arm-none-eabi/include/c++/10.3.1/bits/std_function.h **** 
 4977              		.loc 3 208 40
 4978 000a 3868     		ldr	r0, [r7]
 4979 000c FFF7FEFF 		bl	_ZSt4moveIRZN5Mixer11initTrackIOEPN5daisy9DaisySeedE7TrackIOS4_S4_S4_EUlfE2_EONSt16remove_refer
 4980 0010 0346     		mov	r3, r0
 208:/Library/DaisyToolchain/0.2.0/arm/arm-none-eabi/include/c++/10.3.1/bits/std_function.h **** 
 4981              		.loc 3 208 19
 4982 0012 2246     		mov	r2, r4
 4983 0014 1946     		mov	r1, r3
 4984 0016 7868     		ldr	r0, [r7, #4]
 4985 0018 FFF7FEFF 		bl	_ZNSt14_Function_base13_Base_managerIZN5Mixer11initTrackIOEPN5daisy9DaisySeedE7TrackIOS5_S5_S5_
 208:/Library/DaisyToolchain/0.2.0/arm/arm-none-eabi/include/c++/10.3.1/bits/std_function.h **** 
 4986              		.loc 3 208 66
 4987 001c 00BF     		nop
 4988 001e 0C37     		adds	r7, r7, #12
 4989              		.cfi_def_cfa_offset 12
 4990 0020 BD46     		mov	sp, r7
 4991              		.cfi_def_cfa_register 13
 4992              		@ sp needed
 4993 0022 90BD     		pop	{r4, r7, pc}
 4994              		.cfi_endproc
 4995              	.LFE6194:
 4997              		.section	.text._ZNSt17_Function_handlerIFvfEZN5Mixer11initTrackIOEPN5daisy9DaisySeedE7TrackIOS5_S5
 4998              		.align	1
 4999              		.syntax unified
 5000              		.thumb
 5001              		.thumb_func
 5003              	_ZNSt17_Function_handlerIFvfEZN5Mixer11initTrackIOEPN5daisy9DaisySeedE7TrackIOS5_S5_S5_EUlfE2_E9_M_
 5004              	.LFB6195:
 289:/Library/DaisyToolchain/0.2.0/arm/arm-none-eabi/include/c++/10.3.1/bits/std_function.h ****       {
 5005              		.loc 3 289 7
 5006              		.cfi_startproc
 5007              		@ args = 0, pretend = 0, frame = 8
 5008              		@ frame_needed = 1, uses_anonymous_args = 0
 5009 0000 90B5     		push	{r4, r7, lr}
 5010              		.cfi_def_cfa_offset 12
 5011              		.cfi_offset 4, -12
 5012              		.cfi_offset 7, -8
 5013              		.cfi_offset 14, -4
 5014 0002 83B0     		sub	sp, sp, #12
ARM GAS  /var/folders/wz/z09yph4n0qj4t7mjxhl6ttn80000gn/T//ccxdcdyF.s 			page 114


 5015              		.cfi_def_cfa_offset 24
 5016 0004 00AF     		add	r7, sp, #0
 5017              		.cfi_def_cfa_register 7
 5018 0006 7860     		str	r0, [r7, #4]
 5019 0008 3960     		str	r1, [r7]
 291:/Library/DaisyToolchain/0.2.0/arm/arm-none-eabi/include/c++/10.3.1/bits/std_function.h **** 				     std::forward<_ArgTypes>(__args)...);
 5020              		.loc 3 291 53
 5021 000a 7868     		ldr	r0, [r7, #4]
 5022 000c FFF7FEFF 		bl	_ZNSt14_Function_base13_Base_managerIZN5Mixer11initTrackIOEPN5daisy9DaisySeedE7TrackIOS5_S5_S5_
 5023 0010 0446     		mov	r4, r0
 291:/Library/DaisyToolchain/0.2.0/arm/arm-none-eabi/include/c++/10.3.1/bits/std_function.h **** 				     std::forward<_ArgTypes>(__args)...);
 5024              		.loc 3 291 30
 5025 0012 3868     		ldr	r0, [r7]
 5026 0014 FFF7FEFF 		bl	_ZSt7forwardIfEOT_RNSt16remove_referenceIS0_E4typeE
 5027 0018 0346     		mov	r3, r0
 5028 001a 1946     		mov	r1, r3
 5029 001c 2046     		mov	r0, r4
 5030 001e FFF7FEFF 		bl	_ZSt10__invoke_rIvRZN5Mixer11initTrackIOEPN5daisy9DaisySeedE7TrackIOS4_S4_S4_EUlfE2_JfEENSt9ena
 292:/Library/DaisyToolchain/0.2.0/arm/arm-none-eabi/include/c++/10.3.1/bits/std_function.h ****       }
 5031              		.loc 3 292 44
 5032 0022 00BF     		nop
 293:/Library/DaisyToolchain/0.2.0/arm/arm-none-eabi/include/c++/10.3.1/bits/std_function.h ****     };
 5033              		.loc 3 293 7
 5034 0024 0C37     		adds	r7, r7, #12
 5035              		.cfi_def_cfa_offset 12
 5036 0026 BD46     		mov	sp, r7
 5037              		.cfi_def_cfa_register 13
 5038              		@ sp needed
 5039 0028 90BD     		pop	{r4, r7, pc}
 5040              		.cfi_endproc
 5041              	.LFE6195:
 5043              		.section	.text._ZNSt17_Function_handlerIFvfEZN5Mixer11initTrackIOEPN5daisy9DaisySeedE7TrackIOS5_S5
 5044              		.align	1
 5045              		.syntax unified
 5046              		.thumb
 5047              		.thumb_func
 5049              	_ZNSt17_Function_handlerIFvfEZN5Mixer11initTrackIOEPN5daisy9DaisySeedE7TrackIOS5_S5_S5_EUlfE2_E10_M
 5050              	.LFB6196:
 268:/Library/DaisyToolchain/0.2.0/arm/arm-none-eabi/include/c++/10.3.1/bits/std_function.h **** 		 _Manager_operation __op)
 5051              		.loc 3 268 7
 5052              		.cfi_startproc
 5053              		@ args = 0, pretend = 0, frame = 16
 5054              		@ frame_needed = 1, uses_anonymous_args = 0
 5055 0000 90B5     		push	{r4, r7, lr}
 5056              		.cfi_def_cfa_offset 12
 5057              		.cfi_offset 4, -12
 5058              		.cfi_offset 7, -8
 5059              		.cfi_offset 14, -4
 5060 0002 85B0     		sub	sp, sp, #20
 5061              		.cfi_def_cfa_offset 32
 5062 0004 00AF     		add	r7, sp, #0
 5063              		.cfi_def_cfa_register 7
 5064 0006 F860     		str	r0, [r7, #12]
 5065 0008 B960     		str	r1, [r7, #8]
 5066 000a 1346     		mov	r3, r2
 5067 000c FB71     		strb	r3, [r7, #7]
 271:/Library/DaisyToolchain/0.2.0/arm/arm-none-eabi/include/c++/10.3.1/bits/std_function.h **** 	  {
ARM GAS  /var/folders/wz/z09yph4n0qj4t7mjxhl6ttn80000gn/T//ccxdcdyF.s 			page 115


 5068              		.loc 3 271 10
 5069 000e FB79     		ldrb	r3, [r7, #7]	@ zero_extendqisi2
 271:/Library/DaisyToolchain/0.2.0/arm/arm-none-eabi/include/c++/10.3.1/bits/std_function.h **** 	  {
 5070              		.loc 3 271 2
 5071 0010 012B     		cmp	r3, #1
 5072 0012 09D1     		bne	.L193
 279:/Library/DaisyToolchain/0.2.0/arm/arm-none-eabi/include/c++/10.3.1/bits/std_function.h **** 	    break;
 5073              		.loc 3 279 33
 5074 0014 F868     		ldr	r0, [r7, #12]
 5075 0016 FFF7FEFF 		bl	_ZNSt9_Any_data9_M_accessIPZN5Mixer11initTrackIOEPN5daisy9DaisySeedE7TrackIOS5_S5_S5_EUlfE2_EER
 5076 001a 0446     		mov	r4, r0
 279:/Library/DaisyToolchain/0.2.0/arm/arm-none-eabi/include/c++/10.3.1/bits/std_function.h **** 	    break;
 5077              		.loc 3 279 59
 5078 001c B868     		ldr	r0, [r7, #8]
 5079 001e FFF7FEFF 		bl	_ZNSt14_Function_base13_Base_managerIZN5Mixer11initTrackIOEPN5daisy9DaisySeedE7TrackIOS5_S5_S5_
 5080 0022 0346     		mov	r3, r0
 279:/Library/DaisyToolchain/0.2.0/arm/arm-none-eabi/include/c++/10.3.1/bits/std_function.h **** 	    break;
 5081              		.loc 3 279 36
 5082 0024 2360     		str	r3, [r4]
 280:/Library/DaisyToolchain/0.2.0/arm/arm-none-eabi/include/c++/10.3.1/bits/std_function.h **** 
 5083              		.loc 3 280 6
 5084 0026 05E0     		b	.L194
 5085              	.L193:
 283:/Library/DaisyToolchain/0.2.0/arm/arm-none-eabi/include/c++/10.3.1/bits/std_function.h **** 	  }
 5086              		.loc 3 283 23
 5087 0028 FB79     		ldrb	r3, [r7, #7]	@ zero_extendqisi2
 5088 002a 1A46     		mov	r2, r3
 5089 002c B968     		ldr	r1, [r7, #8]
 5090 002e F868     		ldr	r0, [r7, #12]
 5091 0030 FFF7FEFF 		bl	_ZNSt14_Function_base13_Base_managerIZN5Mixer11initTrackIOEPN5daisy9DaisySeedE7TrackIOS5_S5_S5_
 5092              	.L194:
 285:/Library/DaisyToolchain/0.2.0/arm/arm-none-eabi/include/c++/10.3.1/bits/std_function.h ****       }
 5093              		.loc 3 285 9
 5094 0034 0023     		movs	r3, #0
 286:/Library/DaisyToolchain/0.2.0/arm/arm-none-eabi/include/c++/10.3.1/bits/std_function.h **** 
 5095              		.loc 3 286 7
 5096 0036 1846     		mov	r0, r3
 5097 0038 1437     		adds	r7, r7, #20
 5098              		.cfi_def_cfa_offset 12
 5099 003a BD46     		mov	sp, r7
 5100              		.cfi_def_cfa_register 13
 5101              		@ sp needed
 5102 003c 90BD     		pop	{r4, r7, pc}
 5103              		.cfi_endproc
 5104              	.LFE6196:
 5106              		.section	.text._ZNSt14_Function_base13_Base_managerIZN5Mixer11initTrackIOEPN5daisy9DaisySeedE7Trac
 5107              		.align	1
 5108              		.syntax unified
 5109              		.thumb
 5110              		.thumb_func
 5112              	_ZNSt14_Function_base13_Base_managerIZN5Mixer11initTrackIOEPN5daisy9DaisySeedE7TrackIOS5_S5_S5_EUlf
 5113              	.LFB6197:
 227:/Library/DaisyToolchain/0.2.0/arm/arm-none-eabi/include/c++/10.3.1/bits/std_function.h **** 	  { return true; }
 5114              		.loc 3 227 4
 5115              		.cfi_startproc
 5116              		@ args = 0, pretend = 0, frame = 8
 5117              		@ frame_needed = 1, uses_anonymous_args = 0
ARM GAS  /var/folders/wz/z09yph4n0qj4t7mjxhl6ttn80000gn/T//ccxdcdyF.s 			page 116


 5118              		@ link register save eliminated.
 5119 0000 80B4     		push	{r7}
 5120              		.cfi_def_cfa_offset 4
 5121              		.cfi_offset 7, -4
 5122 0002 83B0     		sub	sp, sp, #12
 5123              		.cfi_def_cfa_offset 16
 5124 0004 00AF     		add	r7, sp, #0
 5125              		.cfi_def_cfa_register 7
 5126 0006 7860     		str	r0, [r7, #4]
 228:/Library/DaisyToolchain/0.2.0/arm/arm-none-eabi/include/c++/10.3.1/bits/std_function.h **** 
 5127              		.loc 3 228 13
 5128 0008 0123     		movs	r3, #1
 228:/Library/DaisyToolchain/0.2.0/arm/arm-none-eabi/include/c++/10.3.1/bits/std_function.h **** 
 5129              		.loc 3 228 19
 5130 000a 1846     		mov	r0, r3
 5131 000c 0C37     		adds	r7, r7, #12
 5132              		.cfi_def_cfa_offset 4
 5133 000e BD46     		mov	sp, r7
 5134              		.cfi_def_cfa_register 13
 5135              		@ sp needed
 5136 0010 5DF8047B 		ldr	r7, [sp], #4
 5137              		.cfi_restore 7
 5138              		.cfi_def_cfa_offset 0
 5139 0014 7047     		bx	lr
 5140              		.cfi_endproc
 5141              	.LFE6197:
 5143              		.section	.text._ZSt4moveIRZN5Mixer11initTrackIOEPN5daisy9DaisySeedE7TrackIOS4_S4_S4_EUlfE3_EONSt16
 5144              		.align	1
 5145              		.syntax unified
 5146              		.thumb
 5147              		.thumb_func
 5149              	_ZSt4moveIRZN5Mixer11initTrackIOEPN5daisy9DaisySeedE7TrackIOS4_S4_S4_EUlfE3_EONSt16remove_reference
 5150              	.LFB6198:
 101:/Library/DaisyToolchain/0.2.0/arm/arm-none-eabi/include/c++/10.3.1/bits/move.h ****     { return static_cast<typename std::remove_reference<_Tp>::type&&>(__t); }
 5151              		.loc 8 101 5
 5152              		.cfi_startproc
 5153              		@ args = 0, pretend = 0, frame = 8
 5154              		@ frame_needed = 1, uses_anonymous_args = 0
 5155              		@ link register save eliminated.
 5156 0000 80B4     		push	{r7}
 5157              		.cfi_def_cfa_offset 4
 5158              		.cfi_offset 7, -4
 5159 0002 83B0     		sub	sp, sp, #12
 5160              		.cfi_def_cfa_offset 16
 5161 0004 00AF     		add	r7, sp, #0
 5162              		.cfi_def_cfa_register 7
 5163 0006 7860     		str	r0, [r7, #4]
 5164              		.loc 8 102 74
 5165 0008 7B68     		ldr	r3, [r7, #4]
 5166              		.loc 8 102 77
 5167 000a 1846     		mov	r0, r3
 5168 000c 0C37     		adds	r7, r7, #12
 5169              		.cfi_def_cfa_offset 4
 5170 000e BD46     		mov	sp, r7
 5171              		.cfi_def_cfa_register 13
 5172              		@ sp needed
 5173 0010 5DF8047B 		ldr	r7, [sp], #4
ARM GAS  /var/folders/wz/z09yph4n0qj4t7mjxhl6ttn80000gn/T//ccxdcdyF.s 			page 117


 5174              		.cfi_restore 7
 5175              		.cfi_def_cfa_offset 0
 5176 0014 7047     		bx	lr
 5177              		.cfi_endproc
 5178              	.LFE6198:
 5180              		.section	.text._ZNSt14_Function_base13_Base_managerIZN5Mixer11initTrackIOEPN5daisy9DaisySeedE7Trac
 5181              		.align	1
 5182              		.syntax unified
 5183              		.thumb
 5184              		.thumb_func
 5186              	_ZNSt14_Function_base13_Base_managerIZN5Mixer11initTrackIOEPN5daisy9DaisySeedE7TrackIOS5_S5_S5_EUlf
 5187              	.LFB6199:
 207:/Library/DaisyToolchain/0.2.0/arm/arm-none-eabi/include/c++/10.3.1/bits/std_function.h **** 	{ _M_init_functor(__functor, std::move(__f), _Local_storage()); }
 5188              		.loc 3 207 2
 5189              		.cfi_startproc
 5190              		@ args = 0, pretend = 0, frame = 8
 5191              		@ frame_needed = 1, uses_anonymous_args = 0
 5192 0000 90B5     		push	{r4, r7, lr}
 5193              		.cfi_def_cfa_offset 12
 5194              		.cfi_offset 4, -12
 5195              		.cfi_offset 7, -8
 5196              		.cfi_offset 14, -4
 5197 0002 83B0     		sub	sp, sp, #12
 5198              		.cfi_def_cfa_offset 24
 5199 0004 00AF     		add	r7, sp, #0
 5200              		.cfi_def_cfa_register 7
 5201 0006 7860     		str	r0, [r7, #4]
 5202 0008 3960     		str	r1, [r7]
 208:/Library/DaisyToolchain/0.2.0/arm/arm-none-eabi/include/c++/10.3.1/bits/std_function.h **** 
 5203              		.loc 3 208 40
 5204 000a 3868     		ldr	r0, [r7]
 5205 000c FFF7FEFF 		bl	_ZSt4moveIRZN5Mixer11initTrackIOEPN5daisy9DaisySeedE7TrackIOS4_S4_S4_EUlfE3_EONSt16remove_refer
 5206 0010 0346     		mov	r3, r0
 208:/Library/DaisyToolchain/0.2.0/arm/arm-none-eabi/include/c++/10.3.1/bits/std_function.h **** 
 5207              		.loc 3 208 19
 5208 0012 2246     		mov	r2, r4
 5209 0014 1946     		mov	r1, r3
 5210 0016 7868     		ldr	r0, [r7, #4]
 5211 0018 FFF7FEFF 		bl	_ZNSt14_Function_base13_Base_managerIZN5Mixer11initTrackIOEPN5daisy9DaisySeedE7TrackIOS5_S5_S5_
 208:/Library/DaisyToolchain/0.2.0/arm/arm-none-eabi/include/c++/10.3.1/bits/std_function.h **** 
 5212              		.loc 3 208 66
 5213 001c 00BF     		nop
 5214 001e 0C37     		adds	r7, r7, #12
 5215              		.cfi_def_cfa_offset 12
 5216 0020 BD46     		mov	sp, r7
 5217              		.cfi_def_cfa_register 13
 5218              		@ sp needed
 5219 0022 90BD     		pop	{r4, r7, pc}
 5220              		.cfi_endproc
 5221              	.LFE6199:
 5223              		.section	.text._ZNSt17_Function_handlerIFvfEZN5Mixer11initTrackIOEPN5daisy9DaisySeedE7TrackIOS5_S5
 5224              		.align	1
 5225              		.syntax unified
 5226              		.thumb
 5227              		.thumb_func
 5229              	_ZNSt17_Function_handlerIFvfEZN5Mixer11initTrackIOEPN5daisy9DaisySeedE7TrackIOS5_S5_S5_EUlfE3_E9_M_
 5230              	.LFB6200:
ARM GAS  /var/folders/wz/z09yph4n0qj4t7mjxhl6ttn80000gn/T//ccxdcdyF.s 			page 118


 289:/Library/DaisyToolchain/0.2.0/arm/arm-none-eabi/include/c++/10.3.1/bits/std_function.h ****       {
 5231              		.loc 3 289 7
 5232              		.cfi_startproc
 5233              		@ args = 0, pretend = 0, frame = 8
 5234              		@ frame_needed = 1, uses_anonymous_args = 0
 5235 0000 90B5     		push	{r4, r7, lr}
 5236              		.cfi_def_cfa_offset 12
 5237              		.cfi_offset 4, -12
 5238              		.cfi_offset 7, -8
 5239              		.cfi_offset 14, -4
 5240 0002 83B0     		sub	sp, sp, #12
 5241              		.cfi_def_cfa_offset 24
 5242 0004 00AF     		add	r7, sp, #0
 5243              		.cfi_def_cfa_register 7
 5244 0006 7860     		str	r0, [r7, #4]
 5245 0008 3960     		str	r1, [r7]
 291:/Library/DaisyToolchain/0.2.0/arm/arm-none-eabi/include/c++/10.3.1/bits/std_function.h **** 				     std::forward<_ArgTypes>(__args)...);
 5246              		.loc 3 291 53
 5247 000a 7868     		ldr	r0, [r7, #4]
 5248 000c FFF7FEFF 		bl	_ZNSt14_Function_base13_Base_managerIZN5Mixer11initTrackIOEPN5daisy9DaisySeedE7TrackIOS5_S5_S5_
 5249 0010 0446     		mov	r4, r0
 291:/Library/DaisyToolchain/0.2.0/arm/arm-none-eabi/include/c++/10.3.1/bits/std_function.h **** 				     std::forward<_ArgTypes>(__args)...);
 5250              		.loc 3 291 30
 5251 0012 3868     		ldr	r0, [r7]
 5252 0014 FFF7FEFF 		bl	_ZSt7forwardIfEOT_RNSt16remove_referenceIS0_E4typeE
 5253 0018 0346     		mov	r3, r0
 5254 001a 1946     		mov	r1, r3
 5255 001c 2046     		mov	r0, r4
 5256 001e FFF7FEFF 		bl	_ZSt10__invoke_rIvRZN5Mixer11initTrackIOEPN5daisy9DaisySeedE7TrackIOS4_S4_S4_EUlfE3_JfEENSt9ena
 292:/Library/DaisyToolchain/0.2.0/arm/arm-none-eabi/include/c++/10.3.1/bits/std_function.h ****       }
 5257              		.loc 3 292 44
 5258 0022 00BF     		nop
 293:/Library/DaisyToolchain/0.2.0/arm/arm-none-eabi/include/c++/10.3.1/bits/std_function.h ****     };
 5259              		.loc 3 293 7
 5260 0024 0C37     		adds	r7, r7, #12
 5261              		.cfi_def_cfa_offset 12
 5262 0026 BD46     		mov	sp, r7
 5263              		.cfi_def_cfa_register 13
 5264              		@ sp needed
 5265 0028 90BD     		pop	{r4, r7, pc}
 5266              		.cfi_endproc
 5267              	.LFE6200:
 5269              		.section	.text._ZNSt17_Function_handlerIFvfEZN5Mixer11initTrackIOEPN5daisy9DaisySeedE7TrackIOS5_S5
 5270              		.align	1
 5271              		.syntax unified
 5272              		.thumb
 5273              		.thumb_func
 5275              	_ZNSt17_Function_handlerIFvfEZN5Mixer11initTrackIOEPN5daisy9DaisySeedE7TrackIOS5_S5_S5_EUlfE3_E10_M
 5276              	.LFB6201:
 268:/Library/DaisyToolchain/0.2.0/arm/arm-none-eabi/include/c++/10.3.1/bits/std_function.h **** 		 _Manager_operation __op)
 5277              		.loc 3 268 7
 5278              		.cfi_startproc
 5279              		@ args = 0, pretend = 0, frame = 16
 5280              		@ frame_needed = 1, uses_anonymous_args = 0
 5281 0000 90B5     		push	{r4, r7, lr}
 5282              		.cfi_def_cfa_offset 12
 5283              		.cfi_offset 4, -12
ARM GAS  /var/folders/wz/z09yph4n0qj4t7mjxhl6ttn80000gn/T//ccxdcdyF.s 			page 119


 5284              		.cfi_offset 7, -8
 5285              		.cfi_offset 14, -4
 5286 0002 85B0     		sub	sp, sp, #20
 5287              		.cfi_def_cfa_offset 32
 5288 0004 00AF     		add	r7, sp, #0
 5289              		.cfi_def_cfa_register 7
 5290 0006 F860     		str	r0, [r7, #12]
 5291 0008 B960     		str	r1, [r7, #8]
 5292 000a 1346     		mov	r3, r2
 5293 000c FB71     		strb	r3, [r7, #7]
 271:/Library/DaisyToolchain/0.2.0/arm/arm-none-eabi/include/c++/10.3.1/bits/std_function.h **** 	  {
 5294              		.loc 3 271 10
 5295 000e FB79     		ldrb	r3, [r7, #7]	@ zero_extendqisi2
 271:/Library/DaisyToolchain/0.2.0/arm/arm-none-eabi/include/c++/10.3.1/bits/std_function.h **** 	  {
 5296              		.loc 3 271 2
 5297 0010 012B     		cmp	r3, #1
 5298 0012 09D1     		bne	.L204
 279:/Library/DaisyToolchain/0.2.0/arm/arm-none-eabi/include/c++/10.3.1/bits/std_function.h **** 	    break;
 5299              		.loc 3 279 33
 5300 0014 F868     		ldr	r0, [r7, #12]
 5301 0016 FFF7FEFF 		bl	_ZNSt9_Any_data9_M_accessIPZN5Mixer11initTrackIOEPN5daisy9DaisySeedE7TrackIOS5_S5_S5_EUlfE3_EER
 5302 001a 0446     		mov	r4, r0
 279:/Library/DaisyToolchain/0.2.0/arm/arm-none-eabi/include/c++/10.3.1/bits/std_function.h **** 	    break;
 5303              		.loc 3 279 59
 5304 001c B868     		ldr	r0, [r7, #8]
 5305 001e FFF7FEFF 		bl	_ZNSt14_Function_base13_Base_managerIZN5Mixer11initTrackIOEPN5daisy9DaisySeedE7TrackIOS5_S5_S5_
 5306 0022 0346     		mov	r3, r0
 279:/Library/DaisyToolchain/0.2.0/arm/arm-none-eabi/include/c++/10.3.1/bits/std_function.h **** 	    break;
 5307              		.loc 3 279 36
 5308 0024 2360     		str	r3, [r4]
 280:/Library/DaisyToolchain/0.2.0/arm/arm-none-eabi/include/c++/10.3.1/bits/std_function.h **** 
 5309              		.loc 3 280 6
 5310 0026 05E0     		b	.L205
 5311              	.L204:
 283:/Library/DaisyToolchain/0.2.0/arm/arm-none-eabi/include/c++/10.3.1/bits/std_function.h **** 	  }
 5312              		.loc 3 283 23
 5313 0028 FB79     		ldrb	r3, [r7, #7]	@ zero_extendqisi2
 5314 002a 1A46     		mov	r2, r3
 5315 002c B968     		ldr	r1, [r7, #8]
 5316 002e F868     		ldr	r0, [r7, #12]
 5317 0030 FFF7FEFF 		bl	_ZNSt14_Function_base13_Base_managerIZN5Mixer11initTrackIOEPN5daisy9DaisySeedE7TrackIOS5_S5_S5_
 5318              	.L205:
 285:/Library/DaisyToolchain/0.2.0/arm/arm-none-eabi/include/c++/10.3.1/bits/std_function.h ****       }
 5319              		.loc 3 285 9
 5320 0034 0023     		movs	r3, #0
 286:/Library/DaisyToolchain/0.2.0/arm/arm-none-eabi/include/c++/10.3.1/bits/std_function.h **** 
 5321              		.loc 3 286 7
 5322 0036 1846     		mov	r0, r3
 5323 0038 1437     		adds	r7, r7, #20
 5324              		.cfi_def_cfa_offset 12
 5325 003a BD46     		mov	sp, r7
 5326              		.cfi_def_cfa_register 13
 5327              		@ sp needed
 5328 003c 90BD     		pop	{r4, r7, pc}
 5329              		.cfi_endproc
 5330              	.LFE6201:
 5332              		.section	.text._ZNSt14_Function_base13_Base_managerIZN5Mixer11initTrackIOEPN5daisy9DaisySeedE7Trac
ARM GAS  /var/folders/wz/z09yph4n0qj4t7mjxhl6ttn80000gn/T//ccxdcdyF.s 			page 120


 5333              		.align	1
 5334              		.syntax unified
 5335              		.thumb
 5336              		.thumb_func
 5338              	_ZNSt14_Function_base13_Base_managerIZN5Mixer11initTrackIOEPN5daisy9DaisySeedE7TrackIOS5_S5_S5_EUlf
 5339              	.LFB6202:
 227:/Library/DaisyToolchain/0.2.0/arm/arm-none-eabi/include/c++/10.3.1/bits/std_function.h **** 	  { return true; }
 5340              		.loc 3 227 4
 5341              		.cfi_startproc
 5342              		@ args = 0, pretend = 0, frame = 8
 5343              		@ frame_needed = 1, uses_anonymous_args = 0
 5344              		@ link register save eliminated.
 5345 0000 80B4     		push	{r7}
 5346              		.cfi_def_cfa_offset 4
 5347              		.cfi_offset 7, -4
 5348 0002 83B0     		sub	sp, sp, #12
 5349              		.cfi_def_cfa_offset 16
 5350 0004 00AF     		add	r7, sp, #0
 5351              		.cfi_def_cfa_register 7
 5352 0006 7860     		str	r0, [r7, #4]
 228:/Library/DaisyToolchain/0.2.0/arm/arm-none-eabi/include/c++/10.3.1/bits/std_function.h **** 
 5353              		.loc 3 228 13
 5354 0008 0123     		movs	r3, #1
 228:/Library/DaisyToolchain/0.2.0/arm/arm-none-eabi/include/c++/10.3.1/bits/std_function.h **** 
 5355              		.loc 3 228 19
 5356 000a 1846     		mov	r0, r3
 5357 000c 0C37     		adds	r7, r7, #12
 5358              		.cfi_def_cfa_offset 4
 5359 000e BD46     		mov	sp, r7
 5360              		.cfi_def_cfa_register 13
 5361              		@ sp needed
 5362 0010 5DF8047B 		ldr	r7, [sp], #4
 5363              		.cfi_restore 7
 5364              		.cfi_def_cfa_offset 0
 5365 0014 7047     		bx	lr
 5366              		.cfi_endproc
 5367              	.LFE6202:
 5369              		.section	.text._ZSt4moveIRZN5Mixer11initTrackIOEPN5daisy9DaisySeedE7TrackIOS4_S4_S4_EUlfE4_EONSt16
 5370              		.align	1
 5371              		.syntax unified
 5372              		.thumb
 5373              		.thumb_func
 5375              	_ZSt4moveIRZN5Mixer11initTrackIOEPN5daisy9DaisySeedE7TrackIOS4_S4_S4_EUlfE4_EONSt16remove_reference
 5376              	.LFB6203:
 101:/Library/DaisyToolchain/0.2.0/arm/arm-none-eabi/include/c++/10.3.1/bits/move.h ****     { return static_cast<typename std::remove_reference<_Tp>::type&&>(__t); }
 5377              		.loc 8 101 5
 5378              		.cfi_startproc
 5379              		@ args = 0, pretend = 0, frame = 8
 5380              		@ frame_needed = 1, uses_anonymous_args = 0
 5381              		@ link register save eliminated.
 5382 0000 80B4     		push	{r7}
 5383              		.cfi_def_cfa_offset 4
 5384              		.cfi_offset 7, -4
 5385 0002 83B0     		sub	sp, sp, #12
 5386              		.cfi_def_cfa_offset 16
 5387 0004 00AF     		add	r7, sp, #0
 5388              		.cfi_def_cfa_register 7
ARM GAS  /var/folders/wz/z09yph4n0qj4t7mjxhl6ttn80000gn/T//ccxdcdyF.s 			page 121


 5389 0006 7860     		str	r0, [r7, #4]
 5390              		.loc 8 102 74
 5391 0008 7B68     		ldr	r3, [r7, #4]
 5392              		.loc 8 102 77
 5393 000a 1846     		mov	r0, r3
 5394 000c 0C37     		adds	r7, r7, #12
 5395              		.cfi_def_cfa_offset 4
 5396 000e BD46     		mov	sp, r7
 5397              		.cfi_def_cfa_register 13
 5398              		@ sp needed
 5399 0010 5DF8047B 		ldr	r7, [sp], #4
 5400              		.cfi_restore 7
 5401              		.cfi_def_cfa_offset 0
 5402 0014 7047     		bx	lr
 5403              		.cfi_endproc
 5404              	.LFE6203:
 5406              		.section	.text._ZNSt14_Function_base13_Base_managerIZN5Mixer11initTrackIOEPN5daisy9DaisySeedE7Trac
 5407              		.align	1
 5408              		.syntax unified
 5409              		.thumb
 5410              		.thumb_func
 5412              	_ZNSt14_Function_base13_Base_managerIZN5Mixer11initTrackIOEPN5daisy9DaisySeedE7TrackIOS5_S5_S5_EUlf
 5413              	.LFB6204:
 207:/Library/DaisyToolchain/0.2.0/arm/arm-none-eabi/include/c++/10.3.1/bits/std_function.h **** 	{ _M_init_functor(__functor, std::move(__f), _Local_storage()); }
 5414              		.loc 3 207 2
 5415              		.cfi_startproc
 5416              		@ args = 0, pretend = 0, frame = 8
 5417              		@ frame_needed = 1, uses_anonymous_args = 0
 5418 0000 90B5     		push	{r4, r7, lr}
 5419              		.cfi_def_cfa_offset 12
 5420              		.cfi_offset 4, -12
 5421              		.cfi_offset 7, -8
 5422              		.cfi_offset 14, -4
 5423 0002 83B0     		sub	sp, sp, #12
 5424              		.cfi_def_cfa_offset 24
 5425 0004 00AF     		add	r7, sp, #0
 5426              		.cfi_def_cfa_register 7
 5427 0006 7860     		str	r0, [r7, #4]
 5428 0008 3960     		str	r1, [r7]
 208:/Library/DaisyToolchain/0.2.0/arm/arm-none-eabi/include/c++/10.3.1/bits/std_function.h **** 
 5429              		.loc 3 208 40
 5430 000a 3868     		ldr	r0, [r7]
 5431 000c FFF7FEFF 		bl	_ZSt4moveIRZN5Mixer11initTrackIOEPN5daisy9DaisySeedE7TrackIOS4_S4_S4_EUlfE4_EONSt16remove_refer
 5432 0010 0346     		mov	r3, r0
 208:/Library/DaisyToolchain/0.2.0/arm/arm-none-eabi/include/c++/10.3.1/bits/std_function.h **** 
 5433              		.loc 3 208 19
 5434 0012 2246     		mov	r2, r4
 5435 0014 1946     		mov	r1, r3
 5436 0016 7868     		ldr	r0, [r7, #4]
 5437 0018 FFF7FEFF 		bl	_ZNSt14_Function_base13_Base_managerIZN5Mixer11initTrackIOEPN5daisy9DaisySeedE7TrackIOS5_S5_S5_
 208:/Library/DaisyToolchain/0.2.0/arm/arm-none-eabi/include/c++/10.3.1/bits/std_function.h **** 
 5438              		.loc 3 208 66
 5439 001c 00BF     		nop
 5440 001e 0C37     		adds	r7, r7, #12
 5441              		.cfi_def_cfa_offset 12
 5442 0020 BD46     		mov	sp, r7
 5443              		.cfi_def_cfa_register 13
ARM GAS  /var/folders/wz/z09yph4n0qj4t7mjxhl6ttn80000gn/T//ccxdcdyF.s 			page 122


 5444              		@ sp needed
 5445 0022 90BD     		pop	{r4, r7, pc}
 5446              		.cfi_endproc
 5447              	.LFE6204:
 5449              		.section	.text._ZNSt17_Function_handlerIFvfEZN5Mixer11initTrackIOEPN5daisy9DaisySeedE7TrackIOS5_S5
 5450              		.align	1
 5451              		.syntax unified
 5452              		.thumb
 5453              		.thumb_func
 5455              	_ZNSt17_Function_handlerIFvfEZN5Mixer11initTrackIOEPN5daisy9DaisySeedE7TrackIOS5_S5_S5_EUlfE4_E9_M_
 5456              	.LFB6205:
 289:/Library/DaisyToolchain/0.2.0/arm/arm-none-eabi/include/c++/10.3.1/bits/std_function.h ****       {
 5457              		.loc 3 289 7
 5458              		.cfi_startproc
 5459              		@ args = 0, pretend = 0, frame = 8
 5460              		@ frame_needed = 1, uses_anonymous_args = 0
 5461 0000 90B5     		push	{r4, r7, lr}
 5462              		.cfi_def_cfa_offset 12
 5463              		.cfi_offset 4, -12
 5464              		.cfi_offset 7, -8
 5465              		.cfi_offset 14, -4
 5466 0002 83B0     		sub	sp, sp, #12
 5467              		.cfi_def_cfa_offset 24
 5468 0004 00AF     		add	r7, sp, #0
 5469              		.cfi_def_cfa_register 7
 5470 0006 7860     		str	r0, [r7, #4]
 5471 0008 3960     		str	r1, [r7]
 291:/Library/DaisyToolchain/0.2.0/arm/arm-none-eabi/include/c++/10.3.1/bits/std_function.h **** 				     std::forward<_ArgTypes>(__args)...);
 5472              		.loc 3 291 53
 5473 000a 7868     		ldr	r0, [r7, #4]
 5474 000c FFF7FEFF 		bl	_ZNSt14_Function_base13_Base_managerIZN5Mixer11initTrackIOEPN5daisy9DaisySeedE7TrackIOS5_S5_S5_
 5475 0010 0446     		mov	r4, r0
 291:/Library/DaisyToolchain/0.2.0/arm/arm-none-eabi/include/c++/10.3.1/bits/std_function.h **** 				     std::forward<_ArgTypes>(__args)...);
 5476              		.loc 3 291 30
 5477 0012 3868     		ldr	r0, [r7]
 5478 0014 FFF7FEFF 		bl	_ZSt7forwardIfEOT_RNSt16remove_referenceIS0_E4typeE
 5479 0018 0346     		mov	r3, r0
 5480 001a 1946     		mov	r1, r3
 5481 001c 2046     		mov	r0, r4
 5482 001e FFF7FEFF 		bl	_ZSt10__invoke_rIvRZN5Mixer11initTrackIOEPN5daisy9DaisySeedE7TrackIOS4_S4_S4_EUlfE4_JfEENSt9ena
 292:/Library/DaisyToolchain/0.2.0/arm/arm-none-eabi/include/c++/10.3.1/bits/std_function.h ****       }
 5483              		.loc 3 292 44
 5484 0022 00BF     		nop
 293:/Library/DaisyToolchain/0.2.0/arm/arm-none-eabi/include/c++/10.3.1/bits/std_function.h ****     };
 5485              		.loc 3 293 7
 5486 0024 0C37     		adds	r7, r7, #12
 5487              		.cfi_def_cfa_offset 12
 5488 0026 BD46     		mov	sp, r7
 5489              		.cfi_def_cfa_register 13
 5490              		@ sp needed
 5491 0028 90BD     		pop	{r4, r7, pc}
 5492              		.cfi_endproc
 5493              	.LFE6205:
 5495              		.section	.text._ZNSt17_Function_handlerIFvfEZN5Mixer11initTrackIOEPN5daisy9DaisySeedE7TrackIOS5_S5
 5496              		.align	1
 5497              		.syntax unified
 5498              		.thumb
ARM GAS  /var/folders/wz/z09yph4n0qj4t7mjxhl6ttn80000gn/T//ccxdcdyF.s 			page 123


 5499              		.thumb_func
 5501              	_ZNSt17_Function_handlerIFvfEZN5Mixer11initTrackIOEPN5daisy9DaisySeedE7TrackIOS5_S5_S5_EUlfE4_E10_M
 5502              	.LFB6206:
 268:/Library/DaisyToolchain/0.2.0/arm/arm-none-eabi/include/c++/10.3.1/bits/std_function.h **** 		 _Manager_operation __op)
 5503              		.loc 3 268 7
 5504              		.cfi_startproc
 5505              		@ args = 0, pretend = 0, frame = 16
 5506              		@ frame_needed = 1, uses_anonymous_args = 0
 5507 0000 90B5     		push	{r4, r7, lr}
 5508              		.cfi_def_cfa_offset 12
 5509              		.cfi_offset 4, -12
 5510              		.cfi_offset 7, -8
 5511              		.cfi_offset 14, -4
 5512 0002 85B0     		sub	sp, sp, #20
 5513              		.cfi_def_cfa_offset 32
 5514 0004 00AF     		add	r7, sp, #0
 5515              		.cfi_def_cfa_register 7
 5516 0006 F860     		str	r0, [r7, #12]
 5517 0008 B960     		str	r1, [r7, #8]
 5518 000a 1346     		mov	r3, r2
 5519 000c FB71     		strb	r3, [r7, #7]
 271:/Library/DaisyToolchain/0.2.0/arm/arm-none-eabi/include/c++/10.3.1/bits/std_function.h **** 	  {
 5520              		.loc 3 271 10
 5521 000e FB79     		ldrb	r3, [r7, #7]	@ zero_extendqisi2
 271:/Library/DaisyToolchain/0.2.0/arm/arm-none-eabi/include/c++/10.3.1/bits/std_function.h **** 	  {
 5522              		.loc 3 271 2
 5523 0010 012B     		cmp	r3, #1
 5524 0012 09D1     		bne	.L215
 279:/Library/DaisyToolchain/0.2.0/arm/arm-none-eabi/include/c++/10.3.1/bits/std_function.h **** 	    break;
 5525              		.loc 3 279 33
 5526 0014 F868     		ldr	r0, [r7, #12]
 5527 0016 FFF7FEFF 		bl	_ZNSt9_Any_data9_M_accessIPZN5Mixer11initTrackIOEPN5daisy9DaisySeedE7TrackIOS5_S5_S5_EUlfE4_EER
 5528 001a 0446     		mov	r4, r0
 279:/Library/DaisyToolchain/0.2.0/arm/arm-none-eabi/include/c++/10.3.1/bits/std_function.h **** 	    break;
 5529              		.loc 3 279 59
 5530 001c B868     		ldr	r0, [r7, #8]
 5531 001e FFF7FEFF 		bl	_ZNSt14_Function_base13_Base_managerIZN5Mixer11initTrackIOEPN5daisy9DaisySeedE7TrackIOS5_S5_S5_
 5532 0022 0346     		mov	r3, r0
 279:/Library/DaisyToolchain/0.2.0/arm/arm-none-eabi/include/c++/10.3.1/bits/std_function.h **** 	    break;
 5533              		.loc 3 279 36
 5534 0024 2360     		str	r3, [r4]
 280:/Library/DaisyToolchain/0.2.0/arm/arm-none-eabi/include/c++/10.3.1/bits/std_function.h **** 
 5535              		.loc 3 280 6
 5536 0026 05E0     		b	.L216
 5537              	.L215:
 283:/Library/DaisyToolchain/0.2.0/arm/arm-none-eabi/include/c++/10.3.1/bits/std_function.h **** 	  }
 5538              		.loc 3 283 23
 5539 0028 FB79     		ldrb	r3, [r7, #7]	@ zero_extendqisi2
 5540 002a 1A46     		mov	r2, r3
 5541 002c B968     		ldr	r1, [r7, #8]
 5542 002e F868     		ldr	r0, [r7, #12]
 5543 0030 FFF7FEFF 		bl	_ZNSt14_Function_base13_Base_managerIZN5Mixer11initTrackIOEPN5daisy9DaisySeedE7TrackIOS5_S5_S5_
 5544              	.L216:
 285:/Library/DaisyToolchain/0.2.0/arm/arm-none-eabi/include/c++/10.3.1/bits/std_function.h ****       }
 5545              		.loc 3 285 9
 5546 0034 0023     		movs	r3, #0
 286:/Library/DaisyToolchain/0.2.0/arm/arm-none-eabi/include/c++/10.3.1/bits/std_function.h **** 
ARM GAS  /var/folders/wz/z09yph4n0qj4t7mjxhl6ttn80000gn/T//ccxdcdyF.s 			page 124


 5547              		.loc 3 286 7
 5548 0036 1846     		mov	r0, r3
 5549 0038 1437     		adds	r7, r7, #20
 5550              		.cfi_def_cfa_offset 12
 5551 003a BD46     		mov	sp, r7
 5552              		.cfi_def_cfa_register 13
 5553              		@ sp needed
 5554 003c 90BD     		pop	{r4, r7, pc}
 5555              		.cfi_endproc
 5556              	.LFE6206:
 5558              		.section	.text._ZNSt14_Function_base13_Base_managerIZN5Mixer11initTrackIOEPN5daisy9DaisySeedE7Trac
 5559              		.align	1
 5560              		.syntax unified
 5561              		.thumb
 5562              		.thumb_func
 5564              	_ZNSt14_Function_base13_Base_managerIZN5Mixer11initTrackIOEPN5daisy9DaisySeedE7TrackIOS5_S5_S5_EUlf
 5565              	.LFB6207:
 227:/Library/DaisyToolchain/0.2.0/arm/arm-none-eabi/include/c++/10.3.1/bits/std_function.h **** 	  { return true; }
 5566              		.loc 3 227 4
 5567              		.cfi_startproc
 5568              		@ args = 0, pretend = 0, frame = 8
 5569              		@ frame_needed = 1, uses_anonymous_args = 0
 5570              		@ link register save eliminated.
 5571 0000 80B4     		push	{r7}
 5572              		.cfi_def_cfa_offset 4
 5573              		.cfi_offset 7, -4
 5574 0002 83B0     		sub	sp, sp, #12
 5575              		.cfi_def_cfa_offset 16
 5576 0004 00AF     		add	r7, sp, #0
 5577              		.cfi_def_cfa_register 7
 5578 0006 7860     		str	r0, [r7, #4]
 228:/Library/DaisyToolchain/0.2.0/arm/arm-none-eabi/include/c++/10.3.1/bits/std_function.h **** 
 5579              		.loc 3 228 13
 5580 0008 0123     		movs	r3, #1
 228:/Library/DaisyToolchain/0.2.0/arm/arm-none-eabi/include/c++/10.3.1/bits/std_function.h **** 
 5581              		.loc 3 228 19
 5582 000a 1846     		mov	r0, r3
 5583 000c 0C37     		adds	r7, r7, #12
 5584              		.cfi_def_cfa_offset 4
 5585 000e BD46     		mov	sp, r7
 5586              		.cfi_def_cfa_register 13
 5587              		@ sp needed
 5588 0010 5DF8047B 		ldr	r7, [sp], #4
 5589              		.cfi_restore 7
 5590              		.cfi_def_cfa_offset 0
 5591 0014 7047     		bx	lr
 5592              		.cfi_endproc
 5593              	.LFE6207:
 5595              		.section	.text._ZSt4moveIRZN5Mixer11initTrackIOEPN5daisy9DaisySeedE7TrackIOS4_S4_S4_EUlfE5_EONSt16
 5596              		.align	1
 5597              		.syntax unified
 5598              		.thumb
 5599              		.thumb_func
 5601              	_ZSt4moveIRZN5Mixer11initTrackIOEPN5daisy9DaisySeedE7TrackIOS4_S4_S4_EUlfE5_EONSt16remove_reference
 5602              	.LFB6208:
 101:/Library/DaisyToolchain/0.2.0/arm/arm-none-eabi/include/c++/10.3.1/bits/move.h ****     { return static_cast<typename std::remove_reference<_Tp>::type&&>(__t); }
 5603              		.loc 8 101 5
ARM GAS  /var/folders/wz/z09yph4n0qj4t7mjxhl6ttn80000gn/T//ccxdcdyF.s 			page 125


 5604              		.cfi_startproc
 5605              		@ args = 0, pretend = 0, frame = 8
 5606              		@ frame_needed = 1, uses_anonymous_args = 0
 5607              		@ link register save eliminated.
 5608 0000 80B4     		push	{r7}
 5609              		.cfi_def_cfa_offset 4
 5610              		.cfi_offset 7, -4
 5611 0002 83B0     		sub	sp, sp, #12
 5612              		.cfi_def_cfa_offset 16
 5613 0004 00AF     		add	r7, sp, #0
 5614              		.cfi_def_cfa_register 7
 5615 0006 7860     		str	r0, [r7, #4]
 5616              		.loc 8 102 74
 5617 0008 7B68     		ldr	r3, [r7, #4]
 5618              		.loc 8 102 77
 5619 000a 1846     		mov	r0, r3
 5620 000c 0C37     		adds	r7, r7, #12
 5621              		.cfi_def_cfa_offset 4
 5622 000e BD46     		mov	sp, r7
 5623              		.cfi_def_cfa_register 13
 5624              		@ sp needed
 5625 0010 5DF8047B 		ldr	r7, [sp], #4
 5626              		.cfi_restore 7
 5627              		.cfi_def_cfa_offset 0
 5628 0014 7047     		bx	lr
 5629              		.cfi_endproc
 5630              	.LFE6208:
 5632              		.section	.text._ZNSt14_Function_base13_Base_managerIZN5Mixer11initTrackIOEPN5daisy9DaisySeedE7Trac
 5633              		.align	1
 5634              		.syntax unified
 5635              		.thumb
 5636              		.thumb_func
 5638              	_ZNSt14_Function_base13_Base_managerIZN5Mixer11initTrackIOEPN5daisy9DaisySeedE7TrackIOS5_S5_S5_EUlf
 5639              	.LFB6209:
 207:/Library/DaisyToolchain/0.2.0/arm/arm-none-eabi/include/c++/10.3.1/bits/std_function.h **** 	{ _M_init_functor(__functor, std::move(__f), _Local_storage()); }
 5640              		.loc 3 207 2
 5641              		.cfi_startproc
 5642              		@ args = 0, pretend = 0, frame = 8
 5643              		@ frame_needed = 1, uses_anonymous_args = 0
 5644 0000 90B5     		push	{r4, r7, lr}
 5645              		.cfi_def_cfa_offset 12
 5646              		.cfi_offset 4, -12
 5647              		.cfi_offset 7, -8
 5648              		.cfi_offset 14, -4
 5649 0002 83B0     		sub	sp, sp, #12
 5650              		.cfi_def_cfa_offset 24
 5651 0004 00AF     		add	r7, sp, #0
 5652              		.cfi_def_cfa_register 7
 5653 0006 7860     		str	r0, [r7, #4]
 5654 0008 3960     		str	r1, [r7]
 208:/Library/DaisyToolchain/0.2.0/arm/arm-none-eabi/include/c++/10.3.1/bits/std_function.h **** 
 5655              		.loc 3 208 40
 5656 000a 3868     		ldr	r0, [r7]
 5657 000c FFF7FEFF 		bl	_ZSt4moveIRZN5Mixer11initTrackIOEPN5daisy9DaisySeedE7TrackIOS4_S4_S4_EUlfE5_EONSt16remove_refer
 5658 0010 0346     		mov	r3, r0
 208:/Library/DaisyToolchain/0.2.0/arm/arm-none-eabi/include/c++/10.3.1/bits/std_function.h **** 
 5659              		.loc 3 208 19
ARM GAS  /var/folders/wz/z09yph4n0qj4t7mjxhl6ttn80000gn/T//ccxdcdyF.s 			page 126


 5660 0012 2246     		mov	r2, r4
 5661 0014 1946     		mov	r1, r3
 5662 0016 7868     		ldr	r0, [r7, #4]
 5663 0018 FFF7FEFF 		bl	_ZNSt14_Function_base13_Base_managerIZN5Mixer11initTrackIOEPN5daisy9DaisySeedE7TrackIOS5_S5_S5_
 208:/Library/DaisyToolchain/0.2.0/arm/arm-none-eabi/include/c++/10.3.1/bits/std_function.h **** 
 5664              		.loc 3 208 66
 5665 001c 00BF     		nop
 5666 001e 0C37     		adds	r7, r7, #12
 5667              		.cfi_def_cfa_offset 12
 5668 0020 BD46     		mov	sp, r7
 5669              		.cfi_def_cfa_register 13
 5670              		@ sp needed
 5671 0022 90BD     		pop	{r4, r7, pc}
 5672              		.cfi_endproc
 5673              	.LFE6209:
 5675              		.section	.text._ZNSt17_Function_handlerIFvfEZN5Mixer11initTrackIOEPN5daisy9DaisySeedE7TrackIOS5_S5
 5676              		.align	1
 5677              		.syntax unified
 5678              		.thumb
 5679              		.thumb_func
 5681              	_ZNSt17_Function_handlerIFvfEZN5Mixer11initTrackIOEPN5daisy9DaisySeedE7TrackIOS5_S5_S5_EUlfE5_E9_M_
 5682              	.LFB6210:
 289:/Library/DaisyToolchain/0.2.0/arm/arm-none-eabi/include/c++/10.3.1/bits/std_function.h ****       {
 5683              		.loc 3 289 7
 5684              		.cfi_startproc
 5685              		@ args = 0, pretend = 0, frame = 8
 5686              		@ frame_needed = 1, uses_anonymous_args = 0
 5687 0000 90B5     		push	{r4, r7, lr}
 5688              		.cfi_def_cfa_offset 12
 5689              		.cfi_offset 4, -12
 5690              		.cfi_offset 7, -8
 5691              		.cfi_offset 14, -4
 5692 0002 83B0     		sub	sp, sp, #12
 5693              		.cfi_def_cfa_offset 24
 5694 0004 00AF     		add	r7, sp, #0
 5695              		.cfi_def_cfa_register 7
 5696 0006 7860     		str	r0, [r7, #4]
 5697 0008 3960     		str	r1, [r7]
 291:/Library/DaisyToolchain/0.2.0/arm/arm-none-eabi/include/c++/10.3.1/bits/std_function.h **** 				     std::forward<_ArgTypes>(__args)...);
 5698              		.loc 3 291 53
 5699 000a 7868     		ldr	r0, [r7, #4]
 5700 000c FFF7FEFF 		bl	_ZNSt14_Function_base13_Base_managerIZN5Mixer11initTrackIOEPN5daisy9DaisySeedE7TrackIOS5_S5_S5_
 5701 0010 0446     		mov	r4, r0
 291:/Library/DaisyToolchain/0.2.0/arm/arm-none-eabi/include/c++/10.3.1/bits/std_function.h **** 				     std::forward<_ArgTypes>(__args)...);
 5702              		.loc 3 291 30
 5703 0012 3868     		ldr	r0, [r7]
 5704 0014 FFF7FEFF 		bl	_ZSt7forwardIfEOT_RNSt16remove_referenceIS0_E4typeE
 5705 0018 0346     		mov	r3, r0
 5706 001a 1946     		mov	r1, r3
 5707 001c 2046     		mov	r0, r4
 5708 001e FFF7FEFF 		bl	_ZSt10__invoke_rIvRZN5Mixer11initTrackIOEPN5daisy9DaisySeedE7TrackIOS4_S4_S4_EUlfE5_JfEENSt9ena
 292:/Library/DaisyToolchain/0.2.0/arm/arm-none-eabi/include/c++/10.3.1/bits/std_function.h ****       }
 5709              		.loc 3 292 44
 5710 0022 00BF     		nop
 293:/Library/DaisyToolchain/0.2.0/arm/arm-none-eabi/include/c++/10.3.1/bits/std_function.h ****     };
 5711              		.loc 3 293 7
 5712 0024 0C37     		adds	r7, r7, #12
ARM GAS  /var/folders/wz/z09yph4n0qj4t7mjxhl6ttn80000gn/T//ccxdcdyF.s 			page 127


 5713              		.cfi_def_cfa_offset 12
 5714 0026 BD46     		mov	sp, r7
 5715              		.cfi_def_cfa_register 13
 5716              		@ sp needed
 5717 0028 90BD     		pop	{r4, r7, pc}
 5718              		.cfi_endproc
 5719              	.LFE6210:
 5721              		.section	.text._ZNSt17_Function_handlerIFvfEZN5Mixer11initTrackIOEPN5daisy9DaisySeedE7TrackIOS5_S5
 5722              		.align	1
 5723              		.syntax unified
 5724              		.thumb
 5725              		.thumb_func
 5727              	_ZNSt17_Function_handlerIFvfEZN5Mixer11initTrackIOEPN5daisy9DaisySeedE7TrackIOS5_S5_S5_EUlfE5_E10_M
 5728              	.LFB6211:
 268:/Library/DaisyToolchain/0.2.0/arm/arm-none-eabi/include/c++/10.3.1/bits/std_function.h **** 		 _Manager_operation __op)
 5729              		.loc 3 268 7
 5730              		.cfi_startproc
 5731              		@ args = 0, pretend = 0, frame = 16
 5732              		@ frame_needed = 1, uses_anonymous_args = 0
 5733 0000 90B5     		push	{r4, r7, lr}
 5734              		.cfi_def_cfa_offset 12
 5735              		.cfi_offset 4, -12
 5736              		.cfi_offset 7, -8
 5737              		.cfi_offset 14, -4
 5738 0002 85B0     		sub	sp, sp, #20
 5739              		.cfi_def_cfa_offset 32
 5740 0004 00AF     		add	r7, sp, #0
 5741              		.cfi_def_cfa_register 7
 5742 0006 F860     		str	r0, [r7, #12]
 5743 0008 B960     		str	r1, [r7, #8]
 5744 000a 1346     		mov	r3, r2
 5745 000c FB71     		strb	r3, [r7, #7]
 271:/Library/DaisyToolchain/0.2.0/arm/arm-none-eabi/include/c++/10.3.1/bits/std_function.h **** 	  {
 5746              		.loc 3 271 10
 5747 000e FB79     		ldrb	r3, [r7, #7]	@ zero_extendqisi2
 271:/Library/DaisyToolchain/0.2.0/arm/arm-none-eabi/include/c++/10.3.1/bits/std_function.h **** 	  {
 5748              		.loc 3 271 2
 5749 0010 012B     		cmp	r3, #1
 5750 0012 09D1     		bne	.L226
 279:/Library/DaisyToolchain/0.2.0/arm/arm-none-eabi/include/c++/10.3.1/bits/std_function.h **** 	    break;
 5751              		.loc 3 279 33
 5752 0014 F868     		ldr	r0, [r7, #12]
 5753 0016 FFF7FEFF 		bl	_ZNSt9_Any_data9_M_accessIPZN5Mixer11initTrackIOEPN5daisy9DaisySeedE7TrackIOS5_S5_S5_EUlfE5_EER
 5754 001a 0446     		mov	r4, r0
 279:/Library/DaisyToolchain/0.2.0/arm/arm-none-eabi/include/c++/10.3.1/bits/std_function.h **** 	    break;
 5755              		.loc 3 279 59
 5756 001c B868     		ldr	r0, [r7, #8]
 5757 001e FFF7FEFF 		bl	_ZNSt14_Function_base13_Base_managerIZN5Mixer11initTrackIOEPN5daisy9DaisySeedE7TrackIOS5_S5_S5_
 5758 0022 0346     		mov	r3, r0
 279:/Library/DaisyToolchain/0.2.0/arm/arm-none-eabi/include/c++/10.3.1/bits/std_function.h **** 	    break;
 5759              		.loc 3 279 36
 5760 0024 2360     		str	r3, [r4]
 280:/Library/DaisyToolchain/0.2.0/arm/arm-none-eabi/include/c++/10.3.1/bits/std_function.h **** 
 5761              		.loc 3 280 6
 5762 0026 05E0     		b	.L227
 5763              	.L226:
 283:/Library/DaisyToolchain/0.2.0/arm/arm-none-eabi/include/c++/10.3.1/bits/std_function.h **** 	  }
ARM GAS  /var/folders/wz/z09yph4n0qj4t7mjxhl6ttn80000gn/T//ccxdcdyF.s 			page 128


 5764              		.loc 3 283 23
 5765 0028 FB79     		ldrb	r3, [r7, #7]	@ zero_extendqisi2
 5766 002a 1A46     		mov	r2, r3
 5767 002c B968     		ldr	r1, [r7, #8]
 5768 002e F868     		ldr	r0, [r7, #12]
 5769 0030 FFF7FEFF 		bl	_ZNSt14_Function_base13_Base_managerIZN5Mixer11initTrackIOEPN5daisy9DaisySeedE7TrackIOS5_S5_S5_
 5770              	.L227:
 285:/Library/DaisyToolchain/0.2.0/arm/arm-none-eabi/include/c++/10.3.1/bits/std_function.h ****       }
 5771              		.loc 3 285 9
 5772 0034 0023     		movs	r3, #0
 286:/Library/DaisyToolchain/0.2.0/arm/arm-none-eabi/include/c++/10.3.1/bits/std_function.h **** 
 5773              		.loc 3 286 7
 5774 0036 1846     		mov	r0, r3
 5775 0038 1437     		adds	r7, r7, #20
 5776              		.cfi_def_cfa_offset 12
 5777 003a BD46     		mov	sp, r7
 5778              		.cfi_def_cfa_register 13
 5779              		@ sp needed
 5780 003c 90BD     		pop	{r4, r7, pc}
 5781              		.cfi_endproc
 5782              	.LFE6211:
 5784              		.section	.text._ZNSt14_Function_base13_Base_managerIZN5Mixer11initTrackIOEPN5daisy9DaisySeedE7Trac
 5785              		.align	1
 5786              		.syntax unified
 5787              		.thumb
 5788              		.thumb_func
 5790              	_ZNSt14_Function_base13_Base_managerIZN5Mixer11initTrackIOEPN5daisy9DaisySeedE7TrackIOS5_S5_S5_EUlf
 5791              	.LFB6212:
 227:/Library/DaisyToolchain/0.2.0/arm/arm-none-eabi/include/c++/10.3.1/bits/std_function.h **** 	  { return true; }
 5792              		.loc 3 227 4
 5793              		.cfi_startproc
 5794              		@ args = 0, pretend = 0, frame = 8
 5795              		@ frame_needed = 1, uses_anonymous_args = 0
 5796              		@ link register save eliminated.
 5797 0000 80B4     		push	{r7}
 5798              		.cfi_def_cfa_offset 4
 5799              		.cfi_offset 7, -4
 5800 0002 83B0     		sub	sp, sp, #12
 5801              		.cfi_def_cfa_offset 16
 5802 0004 00AF     		add	r7, sp, #0
 5803              		.cfi_def_cfa_register 7
 5804 0006 7860     		str	r0, [r7, #4]
 228:/Library/DaisyToolchain/0.2.0/arm/arm-none-eabi/include/c++/10.3.1/bits/std_function.h **** 
 5805              		.loc 3 228 13
 5806 0008 0123     		movs	r3, #1
 228:/Library/DaisyToolchain/0.2.0/arm/arm-none-eabi/include/c++/10.3.1/bits/std_function.h **** 
 5807              		.loc 3 228 19
 5808 000a 1846     		mov	r0, r3
 5809 000c 0C37     		adds	r7, r7, #12
 5810              		.cfi_def_cfa_offset 4
 5811 000e BD46     		mov	sp, r7
 5812              		.cfi_def_cfa_register 13
 5813              		@ sp needed
 5814 0010 5DF8047B 		ldr	r7, [sp], #4
 5815              		.cfi_restore 7
 5816              		.cfi_def_cfa_offset 0
 5817 0014 7047     		bx	lr
ARM GAS  /var/folders/wz/z09yph4n0qj4t7mjxhl6ttn80000gn/T//ccxdcdyF.s 			page 129


 5818              		.cfi_endproc
 5819              	.LFE6212:
 5821              		.section	.text._ZSt4moveIRZN5Mixer11initTrackIOEPN5daisy9DaisySeedE7TrackIOS4_S4_S4_EUlfE6_EONSt16
 5822              		.align	1
 5823              		.syntax unified
 5824              		.thumb
 5825              		.thumb_func
 5827              	_ZSt4moveIRZN5Mixer11initTrackIOEPN5daisy9DaisySeedE7TrackIOS4_S4_S4_EUlfE6_EONSt16remove_reference
 5828              	.LFB6213:
 101:/Library/DaisyToolchain/0.2.0/arm/arm-none-eabi/include/c++/10.3.1/bits/move.h ****     { return static_cast<typename std::remove_reference<_Tp>::type&&>(__t); }
 5829              		.loc 8 101 5
 5830              		.cfi_startproc
 5831              		@ args = 0, pretend = 0, frame = 8
 5832              		@ frame_needed = 1, uses_anonymous_args = 0
 5833              		@ link register save eliminated.
 5834 0000 80B4     		push	{r7}
 5835              		.cfi_def_cfa_offset 4
 5836              		.cfi_offset 7, -4
 5837 0002 83B0     		sub	sp, sp, #12
 5838              		.cfi_def_cfa_offset 16
 5839 0004 00AF     		add	r7, sp, #0
 5840              		.cfi_def_cfa_register 7
 5841 0006 7860     		str	r0, [r7, #4]
 5842              		.loc 8 102 74
 5843 0008 7B68     		ldr	r3, [r7, #4]
 5844              		.loc 8 102 77
 5845 000a 1846     		mov	r0, r3
 5846 000c 0C37     		adds	r7, r7, #12
 5847              		.cfi_def_cfa_offset 4
 5848 000e BD46     		mov	sp, r7
 5849              		.cfi_def_cfa_register 13
 5850              		@ sp needed
 5851 0010 5DF8047B 		ldr	r7, [sp], #4
 5852              		.cfi_restore 7
 5853              		.cfi_def_cfa_offset 0
 5854 0014 7047     		bx	lr
 5855              		.cfi_endproc
 5856              	.LFE6213:
 5858              		.section	.text._ZNSt14_Function_base13_Base_managerIZN5Mixer11initTrackIOEPN5daisy9DaisySeedE7Trac
 5859              		.align	1
 5860              		.syntax unified
 5861              		.thumb
 5862              		.thumb_func
 5864              	_ZNSt14_Function_base13_Base_managerIZN5Mixer11initTrackIOEPN5daisy9DaisySeedE7TrackIOS5_S5_S5_EUlf
 5865              	.LFB6214:
 207:/Library/DaisyToolchain/0.2.0/arm/arm-none-eabi/include/c++/10.3.1/bits/std_function.h **** 	{ _M_init_functor(__functor, std::move(__f), _Local_storage()); }
 5866              		.loc 3 207 2
 5867              		.cfi_startproc
 5868              		@ args = 0, pretend = 0, frame = 8
 5869              		@ frame_needed = 1, uses_anonymous_args = 0
 5870 0000 90B5     		push	{r4, r7, lr}
 5871              		.cfi_def_cfa_offset 12
 5872              		.cfi_offset 4, -12
 5873              		.cfi_offset 7, -8
 5874              		.cfi_offset 14, -4
 5875 0002 83B0     		sub	sp, sp, #12
 5876              		.cfi_def_cfa_offset 24
ARM GAS  /var/folders/wz/z09yph4n0qj4t7mjxhl6ttn80000gn/T//ccxdcdyF.s 			page 130


 5877 0004 00AF     		add	r7, sp, #0
 5878              		.cfi_def_cfa_register 7
 5879 0006 7860     		str	r0, [r7, #4]
 5880 0008 3960     		str	r1, [r7]
 208:/Library/DaisyToolchain/0.2.0/arm/arm-none-eabi/include/c++/10.3.1/bits/std_function.h **** 
 5881              		.loc 3 208 40
 5882 000a 3868     		ldr	r0, [r7]
 5883 000c FFF7FEFF 		bl	_ZSt4moveIRZN5Mixer11initTrackIOEPN5daisy9DaisySeedE7TrackIOS4_S4_S4_EUlfE6_EONSt16remove_refer
 5884 0010 0346     		mov	r3, r0
 208:/Library/DaisyToolchain/0.2.0/arm/arm-none-eabi/include/c++/10.3.1/bits/std_function.h **** 
 5885              		.loc 3 208 19
 5886 0012 2246     		mov	r2, r4
 5887 0014 1946     		mov	r1, r3
 5888 0016 7868     		ldr	r0, [r7, #4]
 5889 0018 FFF7FEFF 		bl	_ZNSt14_Function_base13_Base_managerIZN5Mixer11initTrackIOEPN5daisy9DaisySeedE7TrackIOS5_S5_S5_
 208:/Library/DaisyToolchain/0.2.0/arm/arm-none-eabi/include/c++/10.3.1/bits/std_function.h **** 
 5890              		.loc 3 208 66
 5891 001c 00BF     		nop
 5892 001e 0C37     		adds	r7, r7, #12
 5893              		.cfi_def_cfa_offset 12
 5894 0020 BD46     		mov	sp, r7
 5895              		.cfi_def_cfa_register 13
 5896              		@ sp needed
 5897 0022 90BD     		pop	{r4, r7, pc}
 5898              		.cfi_endproc
 5899              	.LFE6214:
 5901              		.section	.text._ZNSt17_Function_handlerIFvfEZN5Mixer11initTrackIOEPN5daisy9DaisySeedE7TrackIOS5_S5
 5902              		.align	1
 5903              		.syntax unified
 5904              		.thumb
 5905              		.thumb_func
 5907              	_ZNSt17_Function_handlerIFvfEZN5Mixer11initTrackIOEPN5daisy9DaisySeedE7TrackIOS5_S5_S5_EUlfE6_E9_M_
 5908              	.LFB6215:
 289:/Library/DaisyToolchain/0.2.0/arm/arm-none-eabi/include/c++/10.3.1/bits/std_function.h ****       {
 5909              		.loc 3 289 7
 5910              		.cfi_startproc
 5911              		@ args = 0, pretend = 0, frame = 8
 5912              		@ frame_needed = 1, uses_anonymous_args = 0
 5913 0000 90B5     		push	{r4, r7, lr}
 5914              		.cfi_def_cfa_offset 12
 5915              		.cfi_offset 4, -12
 5916              		.cfi_offset 7, -8
 5917              		.cfi_offset 14, -4
 5918 0002 83B0     		sub	sp, sp, #12
 5919              		.cfi_def_cfa_offset 24
 5920 0004 00AF     		add	r7, sp, #0
 5921              		.cfi_def_cfa_register 7
 5922 0006 7860     		str	r0, [r7, #4]
 5923 0008 3960     		str	r1, [r7]
 291:/Library/DaisyToolchain/0.2.0/arm/arm-none-eabi/include/c++/10.3.1/bits/std_function.h **** 				     std::forward<_ArgTypes>(__args)...);
 5924              		.loc 3 291 53
 5925 000a 7868     		ldr	r0, [r7, #4]
 5926 000c FFF7FEFF 		bl	_ZNSt14_Function_base13_Base_managerIZN5Mixer11initTrackIOEPN5daisy9DaisySeedE7TrackIOS5_S5_S5_
 5927 0010 0446     		mov	r4, r0
 291:/Library/DaisyToolchain/0.2.0/arm/arm-none-eabi/include/c++/10.3.1/bits/std_function.h **** 				     std::forward<_ArgTypes>(__args)...);
 5928              		.loc 3 291 30
 5929 0012 3868     		ldr	r0, [r7]
ARM GAS  /var/folders/wz/z09yph4n0qj4t7mjxhl6ttn80000gn/T//ccxdcdyF.s 			page 131


 5930 0014 FFF7FEFF 		bl	_ZSt7forwardIfEOT_RNSt16remove_referenceIS0_E4typeE
 5931 0018 0346     		mov	r3, r0
 5932 001a 1946     		mov	r1, r3
 5933 001c 2046     		mov	r0, r4
 5934 001e FFF7FEFF 		bl	_ZSt10__invoke_rIvRZN5Mixer11initTrackIOEPN5daisy9DaisySeedE7TrackIOS4_S4_S4_EUlfE6_JfEENSt9ena
 292:/Library/DaisyToolchain/0.2.0/arm/arm-none-eabi/include/c++/10.3.1/bits/std_function.h ****       }
 5935              		.loc 3 292 44
 5936 0022 00BF     		nop
 293:/Library/DaisyToolchain/0.2.0/arm/arm-none-eabi/include/c++/10.3.1/bits/std_function.h ****     };
 5937              		.loc 3 293 7
 5938 0024 0C37     		adds	r7, r7, #12
 5939              		.cfi_def_cfa_offset 12
 5940 0026 BD46     		mov	sp, r7
 5941              		.cfi_def_cfa_register 13
 5942              		@ sp needed
 5943 0028 90BD     		pop	{r4, r7, pc}
 5944              		.cfi_endproc
 5945              	.LFE6215:
 5947              		.section	.text._ZNSt17_Function_handlerIFvfEZN5Mixer11initTrackIOEPN5daisy9DaisySeedE7TrackIOS5_S5
 5948              		.align	1
 5949              		.syntax unified
 5950              		.thumb
 5951              		.thumb_func
 5953              	_ZNSt17_Function_handlerIFvfEZN5Mixer11initTrackIOEPN5daisy9DaisySeedE7TrackIOS5_S5_S5_EUlfE6_E10_M
 5954              	.LFB6216:
 268:/Library/DaisyToolchain/0.2.0/arm/arm-none-eabi/include/c++/10.3.1/bits/std_function.h **** 		 _Manager_operation __op)
 5955              		.loc 3 268 7
 5956              		.cfi_startproc
 5957              		@ args = 0, pretend = 0, frame = 16
 5958              		@ frame_needed = 1, uses_anonymous_args = 0
 5959 0000 90B5     		push	{r4, r7, lr}
 5960              		.cfi_def_cfa_offset 12
 5961              		.cfi_offset 4, -12
 5962              		.cfi_offset 7, -8
 5963              		.cfi_offset 14, -4
 5964 0002 85B0     		sub	sp, sp, #20
 5965              		.cfi_def_cfa_offset 32
 5966 0004 00AF     		add	r7, sp, #0
 5967              		.cfi_def_cfa_register 7
 5968 0006 F860     		str	r0, [r7, #12]
 5969 0008 B960     		str	r1, [r7, #8]
 5970 000a 1346     		mov	r3, r2
 5971 000c FB71     		strb	r3, [r7, #7]
 271:/Library/DaisyToolchain/0.2.0/arm/arm-none-eabi/include/c++/10.3.1/bits/std_function.h **** 	  {
 5972              		.loc 3 271 10
 5973 000e FB79     		ldrb	r3, [r7, #7]	@ zero_extendqisi2
 271:/Library/DaisyToolchain/0.2.0/arm/arm-none-eabi/include/c++/10.3.1/bits/std_function.h **** 	  {
 5974              		.loc 3 271 2
 5975 0010 012B     		cmp	r3, #1
 5976 0012 09D1     		bne	.L237
 279:/Library/DaisyToolchain/0.2.0/arm/arm-none-eabi/include/c++/10.3.1/bits/std_function.h **** 	    break;
 5977              		.loc 3 279 33
 5978 0014 F868     		ldr	r0, [r7, #12]
 5979 0016 FFF7FEFF 		bl	_ZNSt9_Any_data9_M_accessIPZN5Mixer11initTrackIOEPN5daisy9DaisySeedE7TrackIOS5_S5_S5_EUlfE6_EER
 5980 001a 0446     		mov	r4, r0
 279:/Library/DaisyToolchain/0.2.0/arm/arm-none-eabi/include/c++/10.3.1/bits/std_function.h **** 	    break;
 5981              		.loc 3 279 59
ARM GAS  /var/folders/wz/z09yph4n0qj4t7mjxhl6ttn80000gn/T//ccxdcdyF.s 			page 132


 5982 001c B868     		ldr	r0, [r7, #8]
 5983 001e FFF7FEFF 		bl	_ZNSt14_Function_base13_Base_managerIZN5Mixer11initTrackIOEPN5daisy9DaisySeedE7TrackIOS5_S5_S5_
 5984 0022 0346     		mov	r3, r0
 279:/Library/DaisyToolchain/0.2.0/arm/arm-none-eabi/include/c++/10.3.1/bits/std_function.h **** 	    break;
 5985              		.loc 3 279 36
 5986 0024 2360     		str	r3, [r4]
 280:/Library/DaisyToolchain/0.2.0/arm/arm-none-eabi/include/c++/10.3.1/bits/std_function.h **** 
 5987              		.loc 3 280 6
 5988 0026 05E0     		b	.L238
 5989              	.L237:
 283:/Library/DaisyToolchain/0.2.0/arm/arm-none-eabi/include/c++/10.3.1/bits/std_function.h **** 	  }
 5990              		.loc 3 283 23
 5991 0028 FB79     		ldrb	r3, [r7, #7]	@ zero_extendqisi2
 5992 002a 1A46     		mov	r2, r3
 5993 002c B968     		ldr	r1, [r7, #8]
 5994 002e F868     		ldr	r0, [r7, #12]
 5995 0030 FFF7FEFF 		bl	_ZNSt14_Function_base13_Base_managerIZN5Mixer11initTrackIOEPN5daisy9DaisySeedE7TrackIOS5_S5_S5_
 5996              	.L238:
 285:/Library/DaisyToolchain/0.2.0/arm/arm-none-eabi/include/c++/10.3.1/bits/std_function.h ****       }
 5997              		.loc 3 285 9
 5998 0034 0023     		movs	r3, #0
 286:/Library/DaisyToolchain/0.2.0/arm/arm-none-eabi/include/c++/10.3.1/bits/std_function.h **** 
 5999              		.loc 3 286 7
 6000 0036 1846     		mov	r0, r3
 6001 0038 1437     		adds	r7, r7, #20
 6002              		.cfi_def_cfa_offset 12
 6003 003a BD46     		mov	sp, r7
 6004              		.cfi_def_cfa_register 13
 6005              		@ sp needed
 6006 003c 90BD     		pop	{r4, r7, pc}
 6007              		.cfi_endproc
 6008              	.LFE6216:
 6010              		.section	.text._ZN14AudioParameterIfE12processCurveEv,"axG",%progbits,_ZN14AudioParameterIfE12proc
 6011              		.align	1
 6012              		.weak	_ZN14AudioParameterIfE12processCurveEv
 6013              		.syntax unified
 6014              		.thumb
 6015              		.thumb_func
 6017              	_ZN14AudioParameterIfE12processCurveEv:
 6018              	.LFB6217:
  56:DSP/FX/../../Parameters/AudioParameter.h ****     {
 6019              		.loc 7 56 10
 6020              		.cfi_startproc
 6021              		@ args = 0, pretend = 0, frame = 8
 6022              		@ frame_needed = 1, uses_anonymous_args = 0
 6023              		@ link register save eliminated.
 6024 0000 80B4     		push	{r7}
 6025              		.cfi_def_cfa_offset 4
 6026              		.cfi_offset 7, -4
 6027 0002 83B0     		sub	sp, sp, #12
 6028              		.cfi_def_cfa_offset 16
 6029 0004 00AF     		add	r7, sp, #0
 6030              		.cfi_def_cfa_register 7
 6031 0006 7860     		str	r0, [r7, #4]
  58:DSP/FX/../../Parameters/AudioParameter.h ****         {
 6032              		.loc 7 58 16
 6033 0008 7B68     		ldr	r3, [r7, #4]
ARM GAS  /var/folders/wz/z09yph4n0qj4t7mjxhl6ttn80000gn/T//ccxdcdyF.s 			page 133


 6034 000a 5B7E     		ldrb	r3, [r3, #25]	@ zero_extendqisi2
  58:DSP/FX/../../Parameters/AudioParameter.h ****         {
 6035              		.loc 7 58 9
 6036 000c 002B     		cmp	r3, #0
 6037 000e 02D0     		beq	.L241
 6038 0010 012B     		cmp	r3, #1
 6039 0012 16D0     		beq	.L242
  67:DSP/FX/../../Parameters/AudioParameter.h **** 
 6040              		.loc 7 67 5
 6041 0014 30E0     		b	.L244
 6042              	.L241:
  61:DSP/FX/../../Parameters/AudioParameter.h ****             break;
 6043              		.loc 7 61 28
 6044 0016 7B68     		ldr	r3, [r7, #4]
 6045 0018 93ED017A 		vldr.32	s14, [r3, #4]
  61:DSP/FX/../../Parameters/AudioParameter.h ****             break;
 6046              		.loc 7 61 45
 6047 001c 7B68     		ldr	r3, [r7, #4]
 6048 001e D3ED056A 		vldr.32	s13, [r3, #20]
  61:DSP/FX/../../Parameters/AudioParameter.h ****             break;
 6049              		.loc 7 61 51
 6050 0022 7B68     		ldr	r3, [r7, #4]
 6051 0024 D3ED047A 		vldr.32	s15, [r3, #16]
  61:DSP/FX/../../Parameters/AudioParameter.h ****             break;
 6052              		.loc 7 61 49
 6053 0028 76EEE77A 		vsub.f32	s15, s13, s15
  61:DSP/FX/../../Parameters/AudioParameter.h ****             break;
 6054              		.loc 7 61 42
 6055 002c 27EE277A 		vmul.f32	s14, s14, s15
  61:DSP/FX/../../Parameters/AudioParameter.h ****             break;
 6056              		.loc 7 61 59
 6057 0030 7B68     		ldr	r3, [r7, #4]
 6058 0032 D3ED047A 		vldr.32	s15, [r3, #16]
  61:DSP/FX/../../Parameters/AudioParameter.h ****             break;
 6059              		.loc 7 61 57
 6060 0036 77EE277A 		vadd.f32	s15, s14, s15
  61:DSP/FX/../../Parameters/AudioParameter.h ****             break;
 6061              		.loc 7 61 24
 6062 003a 7B68     		ldr	r3, [r7, #4]
 6063 003c C3ED037A 		vstr.32	s15, [r3, #12]
  62:DSP/FX/../../Parameters/AudioParameter.h ****             case EXP:
 6064              		.loc 7 62 13
 6065 0040 1AE0     		b	.L243
 6066              	.L242:
  64:DSP/FX/../../Parameters/AudioParameter.h ****             break;
 6067              		.loc 7 64 28
 6068 0042 7B68     		ldr	r3, [r7, #4]
 6069 0044 93ED017A 		vldr.32	s14, [r3, #4]
  64:DSP/FX/../../Parameters/AudioParameter.h ****             break;
 6070              		.loc 7 64 36
 6071 0048 7B68     		ldr	r3, [r7, #4]
 6072 004a D3ED017A 		vldr.32	s15, [r3, #4]
  64:DSP/FX/../../Parameters/AudioParameter.h ****             break;
 6073              		.loc 7 64 34
 6074 004e 27EE277A 		vmul.f32	s14, s14, s15
  64:DSP/FX/../../Parameters/AudioParameter.h ****             break;
 6075              		.loc 7 64 46
ARM GAS  /var/folders/wz/z09yph4n0qj4t7mjxhl6ttn80000gn/T//ccxdcdyF.s 			page 134


 6076 0052 7B68     		ldr	r3, [r7, #4]
 6077 0054 D3ED056A 		vldr.32	s13, [r3, #20]
  64:DSP/FX/../../Parameters/AudioParameter.h ****             break;
 6078              		.loc 7 64 52
 6079 0058 7B68     		ldr	r3, [r7, #4]
 6080 005a D3ED047A 		vldr.32	s15, [r3, #16]
  64:DSP/FX/../../Parameters/AudioParameter.h ****             break;
 6081              		.loc 7 64 50
 6082 005e 76EEE77A 		vsub.f32	s15, s13, s15
  64:DSP/FX/../../Parameters/AudioParameter.h ****             break;
 6083              		.loc 7 64 43
 6084 0062 27EE277A 		vmul.f32	s14, s14, s15
  64:DSP/FX/../../Parameters/AudioParameter.h ****             break;
 6085              		.loc 7 64 60
 6086 0066 7B68     		ldr	r3, [r7, #4]
 6087 0068 D3ED047A 		vldr.32	s15, [r3, #16]
  64:DSP/FX/../../Parameters/AudioParameter.h ****             break;
 6088              		.loc 7 64 58
 6089 006c 77EE277A 		vadd.f32	s15, s14, s15
  64:DSP/FX/../../Parameters/AudioParameter.h ****             break;
 6090              		.loc 7 64 24
 6091 0070 7B68     		ldr	r3, [r7, #4]
 6092 0072 C3ED037A 		vstr.32	s15, [r3, #12]
  65:DSP/FX/../../Parameters/AudioParameter.h ****         }
 6093              		.loc 7 65 13
 6094 0076 00BF     		nop
 6095              	.L243:
 6096              	.L244:
  67:DSP/FX/../../Parameters/AudioParameter.h **** 
 6097              		.loc 7 67 5
 6098 0078 00BF     		nop
 6099 007a 0C37     		adds	r7, r7, #12
 6100              		.cfi_def_cfa_offset 4
 6101 007c BD46     		mov	sp, r7
 6102              		.cfi_def_cfa_register 13
 6103              		@ sp needed
 6104 007e 5DF8047B 		ldr	r7, [sp], #4
 6105              		.cfi_restore 7
 6106              		.cfi_def_cfa_offset 0
 6107 0082 7047     		bx	lr
 6108              		.cfi_endproc
 6109              	.LFE6217:
 6111              		.section	.text._ZNKSt8functionIFvfEEclEf,"axG",%progbits,_ZNKSt8functionIFvfEEclEf,comdat
 6112              		.align	1
 6113              		.weak	_ZNKSt8functionIFvfEEclEf
 6114              		.syntax unified
 6115              		.thumb
 6116              		.thumb_func
 6118              	_ZNKSt8functionIFvfEEclEf:
 6119              	.LFB6218:
 614:/Library/DaisyToolchain/0.2.0/arm/arm-none-eabi/include/c++/10.3.1/bits/std_function.h **** 
 615:/Library/DaisyToolchain/0.2.0/arm/arm-none-eabi/include/c++/10.3.1/bits/std_function.h ****   template<typename _Res, typename... _ArgTypes>
 616:/Library/DaisyToolchain/0.2.0/arm/arm-none-eabi/include/c++/10.3.1/bits/std_function.h ****     _Res
 617:/Library/DaisyToolchain/0.2.0/arm/arm-none-eabi/include/c++/10.3.1/bits/std_function.h ****     function<_Res(_ArgTypes...)>::
 6120              		.loc 3 617 5
 6121              		.cfi_startproc
 6122              		@ args = 0, pretend = 0, frame = 8
ARM GAS  /var/folders/wz/z09yph4n0qj4t7mjxhl6ttn80000gn/T//ccxdcdyF.s 			page 135


 6123              		@ frame_needed = 1, uses_anonymous_args = 0
 6124 0000 B0B5     		push	{r4, r5, r7, lr}
 6125              		.cfi_def_cfa_offset 16
 6126              		.cfi_offset 4, -16
 6127              		.cfi_offset 5, -12
 6128              		.cfi_offset 7, -8
 6129              		.cfi_offset 14, -4
 6130 0002 82B0     		sub	sp, sp, #8
 6131              		.cfi_def_cfa_offset 24
 6132 0004 00AF     		add	r7, sp, #0
 6133              		.cfi_def_cfa_register 7
 6134 0006 7860     		str	r0, [r7, #4]
 6135 0008 87ED000A 		vstr.32	s0, [r7]
 618:/Library/DaisyToolchain/0.2.0/arm/arm-none-eabi/include/c++/10.3.1/bits/std_function.h ****     operator()(_ArgTypes... __args) const
 619:/Library/DaisyToolchain/0.2.0/arm/arm-none-eabi/include/c++/10.3.1/bits/std_function.h ****     {
 620:/Library/DaisyToolchain/0.2.0/arm/arm-none-eabi/include/c++/10.3.1/bits/std_function.h ****       if (_M_empty())
 6136              		.loc 3 620 19
 6137 000c 7B68     		ldr	r3, [r7, #4]
 6138 000e 1846     		mov	r0, r3
 6139 0010 FFF7FEFF 		bl	_ZNKSt14_Function_base8_M_emptyEv
 6140 0014 0346     		mov	r3, r0
 6141              		.loc 3 620 7
 6142 0016 002B     		cmp	r3, #0
 6143 0018 01D0     		beq	.L246
 621:/Library/DaisyToolchain/0.2.0/arm/arm-none-eabi/include/c++/10.3.1/bits/std_function.h **** 	__throw_bad_function_call();
 6144              		.loc 3 621 27
 6145 001a FFF7FEFF 		bl	_ZSt25__throw_bad_function_callv
 6146              	.L246:
 622:/Library/DaisyToolchain/0.2.0/arm/arm-none-eabi/include/c++/10.3.1/bits/std_function.h ****       return _M_invoker(_M_functor, std::forward<_ArgTypes>(__args)...);
 6147              		.loc 3 622 14
 6148 001e 7B68     		ldr	r3, [r7, #4]
 6149 0020 DC68     		ldr	r4, [r3, #12]
 6150              		.loc 3 622 25
 6151 0022 7D68     		ldr	r5, [r7, #4]
 6152              		.loc 3 622 14
 6153 0024 3B46     		mov	r3, r7
 6154 0026 1846     		mov	r0, r3
 6155 0028 FFF7FEFF 		bl	_ZSt7forwardIfEOT_RNSt16remove_referenceIS0_E4typeE
 6156 002c 0346     		mov	r3, r0
 6157 002e 1946     		mov	r1, r3
 6158 0030 2846     		mov	r0, r5
 6159 0032 A047     		blx	r4
 6160              	.LVL1:
 6161              		.loc 3 622 71
 6162 0034 00BF     		nop
 623:/Library/DaisyToolchain/0.2.0/arm/arm-none-eabi/include/c++/10.3.1/bits/std_function.h ****     }
 6163              		.loc 3 623 5
 6164 0036 0837     		adds	r7, r7, #8
 6165              		.cfi_def_cfa_offset 16
 6166 0038 BD46     		mov	sp, r7
 6167              		.cfi_def_cfa_register 13
 6168              		@ sp needed
 6169 003a B0BD     		pop	{r4, r5, r7, pc}
 6170              		.cfi_endproc
 6171              	.LFE6218:
 6173              		.section	.text._ZSt4moveIRSt9_Any_dataEONSt16remove_referenceIT_E4typeEOS3_,"axG",%progbits,_ZSt4m
 6174              		.align	1
ARM GAS  /var/folders/wz/z09yph4n0qj4t7mjxhl6ttn80000gn/T//ccxdcdyF.s 			page 136


 6175              		.weak	_ZSt4moveIRSt9_Any_dataEONSt16remove_referenceIT_E4typeEOS3_
 6176              		.syntax unified
 6177              		.thumb
 6178              		.thumb_func
 6180              	_ZSt4moveIRSt9_Any_dataEONSt16remove_referenceIT_E4typeEOS3_:
 6181              	.LFB6262:
 101:/Library/DaisyToolchain/0.2.0/arm/arm-none-eabi/include/c++/10.3.1/bits/move.h ****     { return static_cast<typename std::remove_reference<_Tp>::type&&>(__t); }
 6182              		.loc 8 101 5
 6183              		.cfi_startproc
 6184              		@ args = 0, pretend = 0, frame = 8
 6185              		@ frame_needed = 1, uses_anonymous_args = 0
 6186              		@ link register save eliminated.
 6187 0000 80B4     		push	{r7}
 6188              		.cfi_def_cfa_offset 4
 6189              		.cfi_offset 7, -4
 6190 0002 83B0     		sub	sp, sp, #12
 6191              		.cfi_def_cfa_offset 16
 6192 0004 00AF     		add	r7, sp, #0
 6193              		.cfi_def_cfa_register 7
 6194 0006 7860     		str	r0, [r7, #4]
 6195              		.loc 8 102 74
 6196 0008 7B68     		ldr	r3, [r7, #4]
 6197              		.loc 8 102 77
 6198 000a 1846     		mov	r0, r3
 6199 000c 0C37     		adds	r7, r7, #12
 6200              		.cfi_def_cfa_offset 4
 6201 000e BD46     		mov	sp, r7
 6202              		.cfi_def_cfa_register 13
 6203              		@ sp needed
 6204 0010 5DF8047B 		ldr	r7, [sp], #4
 6205              		.cfi_restore 7
 6206              		.cfi_def_cfa_offset 0
 6207 0014 7047     		bx	lr
 6208              		.cfi_endproc
 6209              	.LFE6262:
 6211              		.section	.text._ZSt4swapISt9_Any_dataENSt9enable_ifIXsrSt6__and_IJSt6__not_ISt15__is_tuple_likeIT_
 6212              		.align	1
 6213              		.weak	_ZSt4swapISt9_Any_dataENSt9enable_ifIXsrSt6__and_IJSt6__not_ISt15__is_tuple_likeIT_EESt21is_
 6214              		.syntax unified
 6215              		.thumb
 6216              		.thumb_func
 6218              	_ZSt4swapISt9_Any_dataENSt9enable_ifIXsrSt6__and_IJSt6__not_ISt15__is_tuple_likeIT_EESt21is_move_co
 6219              	.LFB6261:
 103:/Library/DaisyToolchain/0.2.0/arm/arm-none-eabi/include/c++/10.3.1/bits/move.h **** 
 104:/Library/DaisyToolchain/0.2.0/arm/arm-none-eabi/include/c++/10.3.1/bits/move.h **** 
 105:/Library/DaisyToolchain/0.2.0/arm/arm-none-eabi/include/c++/10.3.1/bits/move.h ****   template<typename _Tp>
 106:/Library/DaisyToolchain/0.2.0/arm/arm-none-eabi/include/c++/10.3.1/bits/move.h ****     struct __move_if_noexcept_cond
 107:/Library/DaisyToolchain/0.2.0/arm/arm-none-eabi/include/c++/10.3.1/bits/move.h ****     : public __and_<__not_<is_nothrow_move_constructible<_Tp>>,
 108:/Library/DaisyToolchain/0.2.0/arm/arm-none-eabi/include/c++/10.3.1/bits/move.h ****                     is_copy_constructible<_Tp>>::type { };
 109:/Library/DaisyToolchain/0.2.0/arm/arm-none-eabi/include/c++/10.3.1/bits/move.h **** 
 110:/Library/DaisyToolchain/0.2.0/arm/arm-none-eabi/include/c++/10.3.1/bits/move.h ****   /**
 111:/Library/DaisyToolchain/0.2.0/arm/arm-none-eabi/include/c++/10.3.1/bits/move.h ****    *  @brief  Conditionally convert a value to an rvalue.
 112:/Library/DaisyToolchain/0.2.0/arm/arm-none-eabi/include/c++/10.3.1/bits/move.h ****    *  @param  __x  A thing of arbitrary type.
 113:/Library/DaisyToolchain/0.2.0/arm/arm-none-eabi/include/c++/10.3.1/bits/move.h ****    *  @return The parameter, possibly cast to an rvalue-reference.
 114:/Library/DaisyToolchain/0.2.0/arm/arm-none-eabi/include/c++/10.3.1/bits/move.h ****    *
 115:/Library/DaisyToolchain/0.2.0/arm/arm-none-eabi/include/c++/10.3.1/bits/move.h ****    *  Same as std::move unless the type's move constructor could throw and the
 116:/Library/DaisyToolchain/0.2.0/arm/arm-none-eabi/include/c++/10.3.1/bits/move.h ****    *  type is copyable, in which case an lvalue-reference is returned instead.
ARM GAS  /var/folders/wz/z09yph4n0qj4t7mjxhl6ttn80000gn/T//ccxdcdyF.s 			page 137


 117:/Library/DaisyToolchain/0.2.0/arm/arm-none-eabi/include/c++/10.3.1/bits/move.h ****    */
 118:/Library/DaisyToolchain/0.2.0/arm/arm-none-eabi/include/c++/10.3.1/bits/move.h ****   template<typename _Tp>
 119:/Library/DaisyToolchain/0.2.0/arm/arm-none-eabi/include/c++/10.3.1/bits/move.h ****     constexpr typename
 120:/Library/DaisyToolchain/0.2.0/arm/arm-none-eabi/include/c++/10.3.1/bits/move.h ****     conditional<__move_if_noexcept_cond<_Tp>::value, const _Tp&, _Tp&&>::type
 121:/Library/DaisyToolchain/0.2.0/arm/arm-none-eabi/include/c++/10.3.1/bits/move.h ****     move_if_noexcept(_Tp& __x) noexcept
 122:/Library/DaisyToolchain/0.2.0/arm/arm-none-eabi/include/c++/10.3.1/bits/move.h ****     { return std::move(__x); }
 123:/Library/DaisyToolchain/0.2.0/arm/arm-none-eabi/include/c++/10.3.1/bits/move.h **** 
 124:/Library/DaisyToolchain/0.2.0/arm/arm-none-eabi/include/c++/10.3.1/bits/move.h ****   // declval, from type_traits.
 125:/Library/DaisyToolchain/0.2.0/arm/arm-none-eabi/include/c++/10.3.1/bits/move.h **** 
 126:/Library/DaisyToolchain/0.2.0/arm/arm-none-eabi/include/c++/10.3.1/bits/move.h **** #if __cplusplus > 201402L
 127:/Library/DaisyToolchain/0.2.0/arm/arm-none-eabi/include/c++/10.3.1/bits/move.h ****   // _GLIBCXX_RESOLVE_LIB_DEFECTS
 128:/Library/DaisyToolchain/0.2.0/arm/arm-none-eabi/include/c++/10.3.1/bits/move.h ****   // 2296. std::addressof should be constexpr
 129:/Library/DaisyToolchain/0.2.0/arm/arm-none-eabi/include/c++/10.3.1/bits/move.h **** # define __cpp_lib_addressof_constexpr 201603
 130:/Library/DaisyToolchain/0.2.0/arm/arm-none-eabi/include/c++/10.3.1/bits/move.h **** #endif
 131:/Library/DaisyToolchain/0.2.0/arm/arm-none-eabi/include/c++/10.3.1/bits/move.h ****   /**
 132:/Library/DaisyToolchain/0.2.0/arm/arm-none-eabi/include/c++/10.3.1/bits/move.h ****    *  @brief Returns the actual address of the object or function
 133:/Library/DaisyToolchain/0.2.0/arm/arm-none-eabi/include/c++/10.3.1/bits/move.h ****    *         referenced by r, even in the presence of an overloaded
 134:/Library/DaisyToolchain/0.2.0/arm/arm-none-eabi/include/c++/10.3.1/bits/move.h ****    *         operator&.
 135:/Library/DaisyToolchain/0.2.0/arm/arm-none-eabi/include/c++/10.3.1/bits/move.h ****    *  @param  __r  Reference to an object or function.
 136:/Library/DaisyToolchain/0.2.0/arm/arm-none-eabi/include/c++/10.3.1/bits/move.h ****    *  @return   The actual address.
 137:/Library/DaisyToolchain/0.2.0/arm/arm-none-eabi/include/c++/10.3.1/bits/move.h ****   */
 138:/Library/DaisyToolchain/0.2.0/arm/arm-none-eabi/include/c++/10.3.1/bits/move.h ****   template<typename _Tp>
 139:/Library/DaisyToolchain/0.2.0/arm/arm-none-eabi/include/c++/10.3.1/bits/move.h ****     inline _GLIBCXX17_CONSTEXPR _Tp*
 140:/Library/DaisyToolchain/0.2.0/arm/arm-none-eabi/include/c++/10.3.1/bits/move.h ****     addressof(_Tp& __r) noexcept
 141:/Library/DaisyToolchain/0.2.0/arm/arm-none-eabi/include/c++/10.3.1/bits/move.h ****     { return std::__addressof(__r); }
 142:/Library/DaisyToolchain/0.2.0/arm/arm-none-eabi/include/c++/10.3.1/bits/move.h **** 
 143:/Library/DaisyToolchain/0.2.0/arm/arm-none-eabi/include/c++/10.3.1/bits/move.h ****   // _GLIBCXX_RESOLVE_LIB_DEFECTS
 144:/Library/DaisyToolchain/0.2.0/arm/arm-none-eabi/include/c++/10.3.1/bits/move.h ****   // 2598. addressof works on temporaries
 145:/Library/DaisyToolchain/0.2.0/arm/arm-none-eabi/include/c++/10.3.1/bits/move.h ****   template<typename _Tp>
 146:/Library/DaisyToolchain/0.2.0/arm/arm-none-eabi/include/c++/10.3.1/bits/move.h ****     const _Tp* addressof(const _Tp&&) = delete;
 147:/Library/DaisyToolchain/0.2.0/arm/arm-none-eabi/include/c++/10.3.1/bits/move.h **** 
 148:/Library/DaisyToolchain/0.2.0/arm/arm-none-eabi/include/c++/10.3.1/bits/move.h ****   // C++11 version of std::exchange for internal use.
 149:/Library/DaisyToolchain/0.2.0/arm/arm-none-eabi/include/c++/10.3.1/bits/move.h ****   template <typename _Tp, typename _Up = _Tp>
 150:/Library/DaisyToolchain/0.2.0/arm/arm-none-eabi/include/c++/10.3.1/bits/move.h ****     _GLIBCXX20_CONSTEXPR
 151:/Library/DaisyToolchain/0.2.0/arm/arm-none-eabi/include/c++/10.3.1/bits/move.h ****     inline _Tp
 152:/Library/DaisyToolchain/0.2.0/arm/arm-none-eabi/include/c++/10.3.1/bits/move.h ****     __exchange(_Tp& __obj, _Up&& __new_val)
 153:/Library/DaisyToolchain/0.2.0/arm/arm-none-eabi/include/c++/10.3.1/bits/move.h ****     {
 154:/Library/DaisyToolchain/0.2.0/arm/arm-none-eabi/include/c++/10.3.1/bits/move.h ****       _Tp __old_val = std::move(__obj);
 155:/Library/DaisyToolchain/0.2.0/arm/arm-none-eabi/include/c++/10.3.1/bits/move.h ****       __obj = std::forward<_Up>(__new_val);
 156:/Library/DaisyToolchain/0.2.0/arm/arm-none-eabi/include/c++/10.3.1/bits/move.h ****       return __old_val;
 157:/Library/DaisyToolchain/0.2.0/arm/arm-none-eabi/include/c++/10.3.1/bits/move.h ****     }
 158:/Library/DaisyToolchain/0.2.0/arm/arm-none-eabi/include/c++/10.3.1/bits/move.h **** 
 159:/Library/DaisyToolchain/0.2.0/arm/arm-none-eabi/include/c++/10.3.1/bits/move.h ****   /// @} group utilities
 160:/Library/DaisyToolchain/0.2.0/arm/arm-none-eabi/include/c++/10.3.1/bits/move.h **** 
 161:/Library/DaisyToolchain/0.2.0/arm/arm-none-eabi/include/c++/10.3.1/bits/move.h **** #define _GLIBCXX_MOVE(__val) std::move(__val)
 162:/Library/DaisyToolchain/0.2.0/arm/arm-none-eabi/include/c++/10.3.1/bits/move.h **** #define _GLIBCXX_FORWARD(_Tp, __val) std::forward<_Tp>(__val)
 163:/Library/DaisyToolchain/0.2.0/arm/arm-none-eabi/include/c++/10.3.1/bits/move.h **** #else
 164:/Library/DaisyToolchain/0.2.0/arm/arm-none-eabi/include/c++/10.3.1/bits/move.h **** #define _GLIBCXX_MOVE(__val) (__val)
 165:/Library/DaisyToolchain/0.2.0/arm/arm-none-eabi/include/c++/10.3.1/bits/move.h **** #define _GLIBCXX_FORWARD(_Tp, __val) (__val)
 166:/Library/DaisyToolchain/0.2.0/arm/arm-none-eabi/include/c++/10.3.1/bits/move.h **** #endif
 167:/Library/DaisyToolchain/0.2.0/arm/arm-none-eabi/include/c++/10.3.1/bits/move.h **** 
 168:/Library/DaisyToolchain/0.2.0/arm/arm-none-eabi/include/c++/10.3.1/bits/move.h ****   /**
 169:/Library/DaisyToolchain/0.2.0/arm/arm-none-eabi/include/c++/10.3.1/bits/move.h ****    *  @addtogroup utilities
 170:/Library/DaisyToolchain/0.2.0/arm/arm-none-eabi/include/c++/10.3.1/bits/move.h ****    *  @{
 171:/Library/DaisyToolchain/0.2.0/arm/arm-none-eabi/include/c++/10.3.1/bits/move.h ****    */
 172:/Library/DaisyToolchain/0.2.0/arm/arm-none-eabi/include/c++/10.3.1/bits/move.h **** 
 173:/Library/DaisyToolchain/0.2.0/arm/arm-none-eabi/include/c++/10.3.1/bits/move.h ****   /**
ARM GAS  /var/folders/wz/z09yph4n0qj4t7mjxhl6ttn80000gn/T//ccxdcdyF.s 			page 138


 174:/Library/DaisyToolchain/0.2.0/arm/arm-none-eabi/include/c++/10.3.1/bits/move.h ****    *  @brief Swaps two values.
 175:/Library/DaisyToolchain/0.2.0/arm/arm-none-eabi/include/c++/10.3.1/bits/move.h ****    *  @param  __a  A thing of arbitrary type.
 176:/Library/DaisyToolchain/0.2.0/arm/arm-none-eabi/include/c++/10.3.1/bits/move.h ****    *  @param  __b  Another thing of arbitrary type.
 177:/Library/DaisyToolchain/0.2.0/arm/arm-none-eabi/include/c++/10.3.1/bits/move.h ****    *  @return   Nothing.
 178:/Library/DaisyToolchain/0.2.0/arm/arm-none-eabi/include/c++/10.3.1/bits/move.h ****   */
 179:/Library/DaisyToolchain/0.2.0/arm/arm-none-eabi/include/c++/10.3.1/bits/move.h ****   template<typename _Tp>
 180:/Library/DaisyToolchain/0.2.0/arm/arm-none-eabi/include/c++/10.3.1/bits/move.h ****     _GLIBCXX20_CONSTEXPR
 181:/Library/DaisyToolchain/0.2.0/arm/arm-none-eabi/include/c++/10.3.1/bits/move.h ****     inline
 182:/Library/DaisyToolchain/0.2.0/arm/arm-none-eabi/include/c++/10.3.1/bits/move.h **** #if __cplusplus >= 201103L
 183:/Library/DaisyToolchain/0.2.0/arm/arm-none-eabi/include/c++/10.3.1/bits/move.h ****     typename enable_if<__and_<__not_<__is_tuple_like<_Tp>>,
 184:/Library/DaisyToolchain/0.2.0/arm/arm-none-eabi/include/c++/10.3.1/bits/move.h **** 			      is_move_constructible<_Tp>,
 185:/Library/DaisyToolchain/0.2.0/arm/arm-none-eabi/include/c++/10.3.1/bits/move.h **** 			      is_move_assignable<_Tp>>::value>::type
 186:/Library/DaisyToolchain/0.2.0/arm/arm-none-eabi/include/c++/10.3.1/bits/move.h **** #else
 187:/Library/DaisyToolchain/0.2.0/arm/arm-none-eabi/include/c++/10.3.1/bits/move.h ****     void
 188:/Library/DaisyToolchain/0.2.0/arm/arm-none-eabi/include/c++/10.3.1/bits/move.h **** #endif
 189:/Library/DaisyToolchain/0.2.0/arm/arm-none-eabi/include/c++/10.3.1/bits/move.h ****     swap(_Tp& __a, _Tp& __b)
 6220              		.loc 8 189 5
 6221              		.cfi_startproc
 6222              		@ args = 0, pretend = 0, frame = 16
 6223              		@ frame_needed = 1, uses_anonymous_args = 0
 6224 0000 80B5     		push	{r7, lr}
 6225              		.cfi_def_cfa_offset 8
 6226              		.cfi_offset 7, -8
 6227              		.cfi_offset 14, -4
 6228 0002 84B0     		sub	sp, sp, #16
 6229              		.cfi_def_cfa_offset 24
 6230 0004 00AF     		add	r7, sp, #0
 6231              		.cfi_def_cfa_register 7
 6232 0006 7860     		str	r0, [r7, #4]
 6233 0008 3960     		str	r1, [r7]
 190:/Library/DaisyToolchain/0.2.0/arm/arm-none-eabi/include/c++/10.3.1/bits/move.h ****     _GLIBCXX_NOEXCEPT_IF(__and_<is_nothrow_move_constructible<_Tp>,
 191:/Library/DaisyToolchain/0.2.0/arm/arm-none-eabi/include/c++/10.3.1/bits/move.h **** 				is_nothrow_move_assignable<_Tp>>::value)
 192:/Library/DaisyToolchain/0.2.0/arm/arm-none-eabi/include/c++/10.3.1/bits/move.h ****     {
 193:/Library/DaisyToolchain/0.2.0/arm/arm-none-eabi/include/c++/10.3.1/bits/move.h **** #if __cplusplus < 201103L
 194:/Library/DaisyToolchain/0.2.0/arm/arm-none-eabi/include/c++/10.3.1/bits/move.h ****       // concept requirements
 195:/Library/DaisyToolchain/0.2.0/arm/arm-none-eabi/include/c++/10.3.1/bits/move.h ****       __glibcxx_function_requires(_SGIAssignableConcept<_Tp>)
 196:/Library/DaisyToolchain/0.2.0/arm/arm-none-eabi/include/c++/10.3.1/bits/move.h **** #endif
 197:/Library/DaisyToolchain/0.2.0/arm/arm-none-eabi/include/c++/10.3.1/bits/move.h ****       _Tp __tmp = _GLIBCXX_MOVE(__a);
 6234              		.loc 8 197 19
 6235 000a 7868     		ldr	r0, [r7, #4]
 6236 000c FFF7FEFF 		bl	_ZSt4moveIRSt9_Any_dataEONSt16remove_referenceIT_E4typeEOS3_
 6237 0010 0246     		mov	r2, r0
 6238              		.loc 8 197 11
 6239 0012 07F10803 		add	r3, r7, #8
 6240 0016 92E80300 		ldm	r2, {r0, r1}
 6241 001a 83E80300 		stm	r3, {r0, r1}
 198:/Library/DaisyToolchain/0.2.0/arm/arm-none-eabi/include/c++/10.3.1/bits/move.h ****       __a = _GLIBCXX_MOVE(__b);
 6242              		.loc 8 198 13
 6243 001e 3868     		ldr	r0, [r7]
 6244 0020 FFF7FEFF 		bl	_ZSt4moveIRSt9_Any_dataEONSt16remove_referenceIT_E4typeEOS3_
 6245 0024 0246     		mov	r2, r0
 6246              		.loc 8 198 7
 6247 0026 7B68     		ldr	r3, [r7, #4]
 6248 0028 92E80300 		ldm	r2, {r0, r1}
 6249 002c 83E80300 		stm	r3, {r0, r1}
 199:/Library/DaisyToolchain/0.2.0/arm/arm-none-eabi/include/c++/10.3.1/bits/move.h ****       __b = _GLIBCXX_MOVE(__tmp);
 6250              		.loc 8 199 13
ARM GAS  /var/folders/wz/z09yph4n0qj4t7mjxhl6ttn80000gn/T//ccxdcdyF.s 			page 139


 6251 0030 07F10803 		add	r3, r7, #8
 6252 0034 1846     		mov	r0, r3
 6253 0036 FFF7FEFF 		bl	_ZSt4moveIRSt9_Any_dataEONSt16remove_referenceIT_E4typeEOS3_
 6254 003a 0246     		mov	r2, r0
 6255              		.loc 8 199 7
 6256 003c 3B68     		ldr	r3, [r7]
 6257 003e 92E80300 		ldm	r2, {r0, r1}
 6258 0042 83E80300 		stm	r3, {r0, r1}
 200:/Library/DaisyToolchain/0.2.0/arm/arm-none-eabi/include/c++/10.3.1/bits/move.h ****     }
 6259              		.loc 8 200 5
 6260 0046 00BF     		nop
 6261 0048 1037     		adds	r7, r7, #16
 6262              		.cfi_def_cfa_offset 8
 6263 004a BD46     		mov	sp, r7
 6264              		.cfi_def_cfa_register 13
 6265              		@ sp needed
 6266 004c 80BD     		pop	{r7, pc}
 6267              		.cfi_endproc
 6268              	.LFE6261:
 6270              		.section	.text._ZSt4moveIRPFbRSt9_Any_dataRKS0_St18_Manager_operationEEONSt16remove_referenceIT_E4
 6271              		.align	1
 6272              		.weak	_ZSt4moveIRPFbRSt9_Any_dataRKS0_St18_Manager_operationEEONSt16remove_referenceIT_E4typeEOS9_
 6273              		.syntax unified
 6274              		.thumb
 6275              		.thumb_func
 6277              	_ZSt4moveIRPFbRSt9_Any_dataRKS0_St18_Manager_operationEEONSt16remove_referenceIT_E4typeEOS9_:
 6278              	.LFB6264:
 101:/Library/DaisyToolchain/0.2.0/arm/arm-none-eabi/include/c++/10.3.1/bits/move.h ****     { return static_cast<typename std::remove_reference<_Tp>::type&&>(__t); }
 6279              		.loc 8 101 5
 6280              		.cfi_startproc
 6281              		@ args = 0, pretend = 0, frame = 8
 6282              		@ frame_needed = 1, uses_anonymous_args = 0
 6283              		@ link register save eliminated.
 6284 0000 80B4     		push	{r7}
 6285              		.cfi_def_cfa_offset 4
 6286              		.cfi_offset 7, -4
 6287 0002 83B0     		sub	sp, sp, #12
 6288              		.cfi_def_cfa_offset 16
 6289 0004 00AF     		add	r7, sp, #0
 6290              		.cfi_def_cfa_register 7
 6291 0006 7860     		str	r0, [r7, #4]
 102:/Library/DaisyToolchain/0.2.0/arm/arm-none-eabi/include/c++/10.3.1/bits/move.h **** 
 6292              		.loc 8 102 74
 6293 0008 7B68     		ldr	r3, [r7, #4]
 102:/Library/DaisyToolchain/0.2.0/arm/arm-none-eabi/include/c++/10.3.1/bits/move.h **** 
 6294              		.loc 8 102 77
 6295 000a 1846     		mov	r0, r3
 6296 000c 0C37     		adds	r7, r7, #12
 6297              		.cfi_def_cfa_offset 4
 6298 000e BD46     		mov	sp, r7
 6299              		.cfi_def_cfa_register 13
 6300              		@ sp needed
 6301 0010 5DF8047B 		ldr	r7, [sp], #4
 6302              		.cfi_restore 7
 6303              		.cfi_def_cfa_offset 0
 6304 0014 7047     		bx	lr
 6305              		.cfi_endproc
ARM GAS  /var/folders/wz/z09yph4n0qj4t7mjxhl6ttn80000gn/T//ccxdcdyF.s 			page 140


 6306              	.LFE6264:
 6308              		.section	.text._ZSt4swapIPFbRSt9_Any_dataRKS0_St18_Manager_operationEENSt9enable_ifIXsrSt6__and_IJ
 6309              		.align	1
 6310              		.weak	_ZSt4swapIPFbRSt9_Any_dataRKS0_St18_Manager_operationEENSt9enable_ifIXsrSt6__and_IJSt6__not_
 6311              		.syntax unified
 6312              		.thumb
 6313              		.thumb_func
 6315              	_ZSt4swapIPFbRSt9_Any_dataRKS0_St18_Manager_operationEENSt9enable_ifIXsrSt6__and_IJSt6__not_ISt15__
 6316              	.LFB6263:
 189:/Library/DaisyToolchain/0.2.0/arm/arm-none-eabi/include/c++/10.3.1/bits/move.h ****     _GLIBCXX_NOEXCEPT_IF(__and_<is_nothrow_move_constructible<_Tp>,
 6317              		.loc 8 189 5
 6318              		.cfi_startproc
 6319              		@ args = 0, pretend = 0, frame = 16
 6320              		@ frame_needed = 1, uses_anonymous_args = 0
 6321 0000 80B5     		push	{r7, lr}
 6322              		.cfi_def_cfa_offset 8
 6323              		.cfi_offset 7, -8
 6324              		.cfi_offset 14, -4
 6325 0002 84B0     		sub	sp, sp, #16
 6326              		.cfi_def_cfa_offset 24
 6327 0004 00AF     		add	r7, sp, #0
 6328              		.cfi_def_cfa_register 7
 6329 0006 7860     		str	r0, [r7, #4]
 6330 0008 3960     		str	r1, [r7]
 197:/Library/DaisyToolchain/0.2.0/arm/arm-none-eabi/include/c++/10.3.1/bits/move.h ****       __a = _GLIBCXX_MOVE(__b);
 6331              		.loc 8 197 19
 6332 000a 7868     		ldr	r0, [r7, #4]
 6333 000c FFF7FEFF 		bl	_ZSt4moveIRPFbRSt9_Any_dataRKS0_St18_Manager_operationEEONSt16remove_referenceIT_E4typeEOS9_
 6334 0010 0346     		mov	r3, r0
 197:/Library/DaisyToolchain/0.2.0/arm/arm-none-eabi/include/c++/10.3.1/bits/move.h ****       __a = _GLIBCXX_MOVE(__b);
 6335              		.loc 8 197 11
 6336 0012 1B68     		ldr	r3, [r3]
 6337 0014 FB60     		str	r3, [r7, #12]
 198:/Library/DaisyToolchain/0.2.0/arm/arm-none-eabi/include/c++/10.3.1/bits/move.h ****       __b = _GLIBCXX_MOVE(__tmp);
 6338              		.loc 8 198 13
 6339 0016 3868     		ldr	r0, [r7]
 6340 0018 FFF7FEFF 		bl	_ZSt4moveIRPFbRSt9_Any_dataRKS0_St18_Manager_operationEEONSt16remove_referenceIT_E4typeEOS9_
 6341 001c 0346     		mov	r3, r0
 198:/Library/DaisyToolchain/0.2.0/arm/arm-none-eabi/include/c++/10.3.1/bits/move.h ****       __b = _GLIBCXX_MOVE(__tmp);
 6342              		.loc 8 198 11
 6343 001e 1A68     		ldr	r2, [r3]
 6344 0020 7B68     		ldr	r3, [r7, #4]
 6345 0022 1A60     		str	r2, [r3]
 199:/Library/DaisyToolchain/0.2.0/arm/arm-none-eabi/include/c++/10.3.1/bits/move.h ****     }
 6346              		.loc 8 199 13
 6347 0024 07F10C03 		add	r3, r7, #12
 6348 0028 1846     		mov	r0, r3
 6349 002a FFF7FEFF 		bl	_ZSt4moveIRPFbRSt9_Any_dataRKS0_St18_Manager_operationEEONSt16remove_referenceIT_E4typeEOS9_
 6350 002e 0346     		mov	r3, r0
 199:/Library/DaisyToolchain/0.2.0/arm/arm-none-eabi/include/c++/10.3.1/bits/move.h ****     }
 6351              		.loc 8 199 11
 6352 0030 1A68     		ldr	r2, [r3]
 6353 0032 3B68     		ldr	r3, [r7]
 6354 0034 1A60     		str	r2, [r3]
 6355              		.loc 8 200 5
 6356 0036 00BF     		nop
 6357 0038 1037     		adds	r7, r7, #16
ARM GAS  /var/folders/wz/z09yph4n0qj4t7mjxhl6ttn80000gn/T//ccxdcdyF.s 			page 141


 6358              		.cfi_def_cfa_offset 8
 6359 003a BD46     		mov	sp, r7
 6360              		.cfi_def_cfa_register 13
 6361              		@ sp needed
 6362 003c 80BD     		pop	{r7, pc}
 6363              		.cfi_endproc
 6364              	.LFE6263:
 6366              		.section	.text._ZNSt14_Function_base13_Base_managerIZN5Mixer4initEPN5daisy9DaisySeedEPPfS6_S6_S6_S
 6367              		.align	1
 6368              		.syntax unified
 6369              		.thumb
 6370              		.thumb_func
 6372              	_ZNSt14_Function_base13_Base_managerIZN5Mixer4initEPN5daisy9DaisySeedEPPfS6_S6_S6_S6_PPN7daisysp9De
 6373              	.LFB6267:
 232:/Library/DaisyToolchain/0.2.0/arm/arm-none-eabi/include/c++/10.3.1/bits/std_function.h **** 	{ ::new (__functor._M_access()) _Functor(std::move(__f)); }
 6374              		.loc 3 232 2
 6375              		.cfi_startproc
 6376              		@ args = 0, pretend = 0, frame = 16
 6377              		@ frame_needed = 1, uses_anonymous_args = 0
 6378 0000 90B5     		push	{r4, r7, lr}
 6379              		.cfi_def_cfa_offset 12
 6380              		.cfi_offset 4, -12
 6381              		.cfi_offset 7, -8
 6382              		.cfi_offset 14, -4
 6383 0002 85B0     		sub	sp, sp, #20
 6384              		.cfi_def_cfa_offset 32
 6385 0004 00AF     		add	r7, sp, #0
 6386              		.cfi_def_cfa_register 7
 6387 0006 F860     		str	r0, [r7, #12]
 6388 0008 B960     		str	r1, [r7, #8]
 6389 000a 3A71     		strb	r2, [r7, #4]
 233:/Library/DaisyToolchain/0.2.0/arm/arm-none-eabi/include/c++/10.3.1/bits/std_function.h **** 
 6390              		.loc 3 233 52
 6391 000c B868     		ldr	r0, [r7, #8]
 6392 000e FFF7FEFF 		bl	_ZSt4moveIRZN5Mixer4initEPN5daisy9DaisySeedEPPfS5_S5_S5_S5_PPN7daisysp9DelayLineIfLj240000EEEEU
 6393 0012 0446     		mov	r4, r0
 233:/Library/DaisyToolchain/0.2.0/arm/arm-none-eabi/include/c++/10.3.1/bits/std_function.h **** 
 6394              		.loc 3 233 30
 6395 0014 F868     		ldr	r0, [r7, #12]
 6396 0016 FFF7FEFF 		bl	_ZNSt9_Any_data9_M_accessEv
 6397 001a 0346     		mov	r3, r0
 233:/Library/DaisyToolchain/0.2.0/arm/arm-none-eabi/include/c++/10.3.1/bits/std_function.h **** 
 6398              		.loc 3 233 4
 6399 001c 1946     		mov	r1, r3
 6400 001e 0420     		movs	r0, #4
 6401 0020 FFF7FEFF 		bl	_ZnwjPv
 6402 0024 0246     		mov	r2, r0
 6403 0026 2368     		ldr	r3, [r4]
 6404 0028 1360     		str	r3, [r2]
 233:/Library/DaisyToolchain/0.2.0/arm/arm-none-eabi/include/c++/10.3.1/bits/std_function.h **** 
 6405              		.loc 3 233 60
 6406 002a 00BF     		nop
 6407 002c 1437     		adds	r7, r7, #20
 6408              		.cfi_def_cfa_offset 12
 6409 002e BD46     		mov	sp, r7
 6410              		.cfi_def_cfa_register 13
 6411              		@ sp needed
ARM GAS  /var/folders/wz/z09yph4n0qj4t7mjxhl6ttn80000gn/T//ccxdcdyF.s 			page 142


 6412 0030 90BD     		pop	{r4, r7, pc}
 6413              		.cfi_endproc
 6414              	.LFE6267:
 6416              		.section	.text._ZNSt14_Function_base13_Base_managerIZN5Mixer4initEPN5daisy9DaisySeedEPPfS6_S6_S6_S
 6417              		.align	1
 6418              		.syntax unified
 6419              		.thumb
 6420              		.thumb_func
 6422              	_ZNSt14_Function_base13_Base_managerIZN5Mixer4initEPN5daisy9DaisySeedEPPfS6_S6_S6_S6_PPN7daisysp9De
 6423              	.LFB6268:
 136:/Library/DaisyToolchain/0.2.0/arm/arm-none-eabi/include/c++/10.3.1/bits/std_function.h **** 	{
 6424              		.loc 3 136 2
 6425              		.cfi_startproc
 6426              		@ args = 0, pretend = 0, frame = 16
 6427              		@ frame_needed = 1, uses_anonymous_args = 0
 6428 0000 80B5     		push	{r7, lr}
 6429              		.cfi_def_cfa_offset 8
 6430              		.cfi_offset 7, -8
 6431              		.cfi_offset 14, -4
 6432 0002 84B0     		sub	sp, sp, #16
 6433              		.cfi_def_cfa_offset 24
 6434 0004 00AF     		add	r7, sp, #0
 6435              		.cfi_def_cfa_register 7
 6436 0006 7860     		str	r0, [r7, #4]
 6437              	.LBB29:
 6438              	.LBB30:
 140:/Library/DaisyToolchain/0.2.0/arm/arm-none-eabi/include/c++/10.3.1/bits/std_function.h **** 	      return const_cast<_Functor*>(std::__addressof(__f));
 6439              		.loc 3 140 58
 6440 0008 7868     		ldr	r0, [r7, #4]
 6441 000a FFF7FEFF 		bl	_ZNKSt9_Any_data9_M_accessIZN5Mixer4initEPN5daisy9DaisySeedEPPfS6_S6_S6_S6_PPN7daisysp9DelayLin
 6442 000e F860     		str	r0, [r7, #12]
 141:/Library/DaisyToolchain/0.2.0/arm/arm-none-eabi/include/c++/10.3.1/bits/std_function.h **** 	    }
 6443              		.loc 3 141 53
 6444 0010 F868     		ldr	r0, [r7, #12]
 6445 0012 FFF7FEFF 		bl	_ZSt11__addressofIKZN5Mixer4initEPN5daisy9DaisySeedEPPfS5_S5_S5_S5_PPN7daisysp9DelayLineIfLj240
 6446 0016 0346     		mov	r3, r0
 141:/Library/DaisyToolchain/0.2.0/arm/arm-none-eabi/include/c++/10.3.1/bits/std_function.h **** 	    }
 6447              		.loc 3 141 58
 6448 0018 00BF     		nop
 6449              	.LBE30:
 6450              	.LBE29:
 145:/Library/DaisyToolchain/0.2.0/arm/arm-none-eabi/include/c++/10.3.1/bits/std_function.h **** 
 6451              		.loc 3 145 2
 6452 001a 1846     		mov	r0, r3
 6453 001c 1037     		adds	r7, r7, #16
 6454              		.cfi_def_cfa_offset 8
 6455 001e BD46     		mov	sp, r7
 6456              		.cfi_def_cfa_register 13
 6457              		@ sp needed
 6458 0020 80BD     		pop	{r7, pc}
 6459              		.cfi_endproc
 6460              	.LFE6268:
 6462              		.section	.text._ZSt7forwardIfEOT_RNSt16remove_referenceIS0_E4typeE,"axG",%progbits,_ZSt7forwardIfE
 6463              		.align	1
 6464              		.weak	_ZSt7forwardIfEOT_RNSt16remove_referenceIS0_E4typeE
 6465              		.syntax unified
 6466              		.thumb
ARM GAS  /var/folders/wz/z09yph4n0qj4t7mjxhl6ttn80000gn/T//ccxdcdyF.s 			page 143


 6467              		.thumb_func
 6469              	_ZSt7forwardIfEOT_RNSt16remove_referenceIS0_E4typeE:
 6470              	.LFB6269:
  76:/Library/DaisyToolchain/0.2.0/arm/arm-none-eabi/include/c++/10.3.1/bits/move.h ****     { return static_cast<_Tp&&>(__t); }
 6471              		.loc 8 76 5
 6472              		.cfi_startproc
 6473              		@ args = 0, pretend = 0, frame = 8
 6474              		@ frame_needed = 1, uses_anonymous_args = 0
 6475              		@ link register save eliminated.
 6476 0000 80B4     		push	{r7}
 6477              		.cfi_def_cfa_offset 4
 6478              		.cfi_offset 7, -4
 6479 0002 83B0     		sub	sp, sp, #12
 6480              		.cfi_def_cfa_offset 16
 6481 0004 00AF     		add	r7, sp, #0
 6482              		.cfi_def_cfa_register 7
 6483 0006 7860     		str	r0, [r7, #4]
  77:/Library/DaisyToolchain/0.2.0/arm/arm-none-eabi/include/c++/10.3.1/bits/move.h **** 
 6484              		.loc 8 77 36
 6485 0008 7B68     		ldr	r3, [r7, #4]
  77:/Library/DaisyToolchain/0.2.0/arm/arm-none-eabi/include/c++/10.3.1/bits/move.h **** 
 6486              		.loc 8 77 39
 6487 000a 1846     		mov	r0, r3
 6488 000c 0C37     		adds	r7, r7, #12
 6489              		.cfi_def_cfa_offset 4
 6490 000e BD46     		mov	sp, r7
 6491              		.cfi_def_cfa_register 13
 6492              		@ sp needed
 6493 0010 5DF8047B 		ldr	r7, [sp], #4
 6494              		.cfi_restore 7
 6495              		.cfi_def_cfa_offset 0
 6496 0014 7047     		bx	lr
 6497              		.cfi_endproc
 6498              	.LFE6269:
 6500              		.section	.text._ZSt10__invoke_rIvRZN5Mixer4initEPN5daisy9DaisySeedEPPfS5_S5_S5_S5_PPN7daisysp9Dela
 6501              		.align	1
 6502              		.syntax unified
 6503              		.thumb
 6504              		.thumb_func
 6506              	_ZSt10__invoke_rIvRZN5Mixer4initEPN5daisy9DaisySeedEPPfS5_S5_S5_S5_PPN7daisysp9DelayLineIfLj240000E
 6507              	.LFB6270:
 6508              		.file 9 "/Library/DaisyToolchain/0.2.0/arm/arm-none-eabi/include/c++/10.3.1/bits/invoke.h"
   1:/Library/DaisyToolchain/0.2.0/arm/arm-none-eabi/include/c++/10.3.1/bits/invoke.h **** // Implementation of INVOKE -*- C++ -*-
   2:/Library/DaisyToolchain/0.2.0/arm/arm-none-eabi/include/c++/10.3.1/bits/invoke.h **** 
   3:/Library/DaisyToolchain/0.2.0/arm/arm-none-eabi/include/c++/10.3.1/bits/invoke.h **** // Copyright (C) 2016-2020 Free Software Foundation, Inc.
   4:/Library/DaisyToolchain/0.2.0/arm/arm-none-eabi/include/c++/10.3.1/bits/invoke.h **** //
   5:/Library/DaisyToolchain/0.2.0/arm/arm-none-eabi/include/c++/10.3.1/bits/invoke.h **** // This file is part of the GNU ISO C++ Library.  This library is free
   6:/Library/DaisyToolchain/0.2.0/arm/arm-none-eabi/include/c++/10.3.1/bits/invoke.h **** // software; you can redistribute it and/or modify it under the
   7:/Library/DaisyToolchain/0.2.0/arm/arm-none-eabi/include/c++/10.3.1/bits/invoke.h **** // terms of the GNU General Public License as published by the
   8:/Library/DaisyToolchain/0.2.0/arm/arm-none-eabi/include/c++/10.3.1/bits/invoke.h **** // Free Software Foundation; either version 3, or (at your option)
   9:/Library/DaisyToolchain/0.2.0/arm/arm-none-eabi/include/c++/10.3.1/bits/invoke.h **** // any later version.
  10:/Library/DaisyToolchain/0.2.0/arm/arm-none-eabi/include/c++/10.3.1/bits/invoke.h **** 
  11:/Library/DaisyToolchain/0.2.0/arm/arm-none-eabi/include/c++/10.3.1/bits/invoke.h **** // This library is distributed in the hope that it will be useful,
  12:/Library/DaisyToolchain/0.2.0/arm/arm-none-eabi/include/c++/10.3.1/bits/invoke.h **** // but WITHOUT ANY WARRANTY; without even the implied warranty of
  13:/Library/DaisyToolchain/0.2.0/arm/arm-none-eabi/include/c++/10.3.1/bits/invoke.h **** // MERCHANTABILITY or FITNESS FOR A PARTICULAR PURPOSE.  See the
  14:/Library/DaisyToolchain/0.2.0/arm/arm-none-eabi/include/c++/10.3.1/bits/invoke.h **** // GNU General Public License for more details.
  15:/Library/DaisyToolchain/0.2.0/arm/arm-none-eabi/include/c++/10.3.1/bits/invoke.h **** 
ARM GAS  /var/folders/wz/z09yph4n0qj4t7mjxhl6ttn80000gn/T//ccxdcdyF.s 			page 144


  16:/Library/DaisyToolchain/0.2.0/arm/arm-none-eabi/include/c++/10.3.1/bits/invoke.h **** // Under Section 7 of GPL version 3, you are granted additional
  17:/Library/DaisyToolchain/0.2.0/arm/arm-none-eabi/include/c++/10.3.1/bits/invoke.h **** // permissions described in the GCC Runtime Library Exception, version
  18:/Library/DaisyToolchain/0.2.0/arm/arm-none-eabi/include/c++/10.3.1/bits/invoke.h **** // 3.1, as published by the Free Software Foundation.
  19:/Library/DaisyToolchain/0.2.0/arm/arm-none-eabi/include/c++/10.3.1/bits/invoke.h **** 
  20:/Library/DaisyToolchain/0.2.0/arm/arm-none-eabi/include/c++/10.3.1/bits/invoke.h **** // You should have received a copy of the GNU General Public License and
  21:/Library/DaisyToolchain/0.2.0/arm/arm-none-eabi/include/c++/10.3.1/bits/invoke.h **** // a copy of the GCC Runtime Library Exception along with this program;
  22:/Library/DaisyToolchain/0.2.0/arm/arm-none-eabi/include/c++/10.3.1/bits/invoke.h **** // see the files COPYING3 and COPYING.RUNTIME respectively.  If not, see
  23:/Library/DaisyToolchain/0.2.0/arm/arm-none-eabi/include/c++/10.3.1/bits/invoke.h **** // <http://www.gnu.org/licenses/>.
  24:/Library/DaisyToolchain/0.2.0/arm/arm-none-eabi/include/c++/10.3.1/bits/invoke.h **** 
  25:/Library/DaisyToolchain/0.2.0/arm/arm-none-eabi/include/c++/10.3.1/bits/invoke.h **** /** @file include/bits/invoke.h
  26:/Library/DaisyToolchain/0.2.0/arm/arm-none-eabi/include/c++/10.3.1/bits/invoke.h ****  *  This is an internal header file, included by other library headers.
  27:/Library/DaisyToolchain/0.2.0/arm/arm-none-eabi/include/c++/10.3.1/bits/invoke.h ****  *  Do not attempt to use it directly. @headername{functional}
  28:/Library/DaisyToolchain/0.2.0/arm/arm-none-eabi/include/c++/10.3.1/bits/invoke.h ****  */
  29:/Library/DaisyToolchain/0.2.0/arm/arm-none-eabi/include/c++/10.3.1/bits/invoke.h **** 
  30:/Library/DaisyToolchain/0.2.0/arm/arm-none-eabi/include/c++/10.3.1/bits/invoke.h **** #ifndef _GLIBCXX_INVOKE_H
  31:/Library/DaisyToolchain/0.2.0/arm/arm-none-eabi/include/c++/10.3.1/bits/invoke.h **** #define _GLIBCXX_INVOKE_H 1
  32:/Library/DaisyToolchain/0.2.0/arm/arm-none-eabi/include/c++/10.3.1/bits/invoke.h **** 
  33:/Library/DaisyToolchain/0.2.0/arm/arm-none-eabi/include/c++/10.3.1/bits/invoke.h **** #pragma GCC system_header
  34:/Library/DaisyToolchain/0.2.0/arm/arm-none-eabi/include/c++/10.3.1/bits/invoke.h **** 
  35:/Library/DaisyToolchain/0.2.0/arm/arm-none-eabi/include/c++/10.3.1/bits/invoke.h **** #if __cplusplus < 201103L
  36:/Library/DaisyToolchain/0.2.0/arm/arm-none-eabi/include/c++/10.3.1/bits/invoke.h **** # include <bits/c++0x_warning.h>
  37:/Library/DaisyToolchain/0.2.0/arm/arm-none-eabi/include/c++/10.3.1/bits/invoke.h **** #else
  38:/Library/DaisyToolchain/0.2.0/arm/arm-none-eabi/include/c++/10.3.1/bits/invoke.h **** 
  39:/Library/DaisyToolchain/0.2.0/arm/arm-none-eabi/include/c++/10.3.1/bits/invoke.h **** #include <type_traits>
  40:/Library/DaisyToolchain/0.2.0/arm/arm-none-eabi/include/c++/10.3.1/bits/invoke.h **** 
  41:/Library/DaisyToolchain/0.2.0/arm/arm-none-eabi/include/c++/10.3.1/bits/invoke.h **** namespace std _GLIBCXX_VISIBILITY(default)
  42:/Library/DaisyToolchain/0.2.0/arm/arm-none-eabi/include/c++/10.3.1/bits/invoke.h **** {
  43:/Library/DaisyToolchain/0.2.0/arm/arm-none-eabi/include/c++/10.3.1/bits/invoke.h **** _GLIBCXX_BEGIN_NAMESPACE_VERSION
  44:/Library/DaisyToolchain/0.2.0/arm/arm-none-eabi/include/c++/10.3.1/bits/invoke.h **** 
  45:/Library/DaisyToolchain/0.2.0/arm/arm-none-eabi/include/c++/10.3.1/bits/invoke.h ****   /**
  46:/Library/DaisyToolchain/0.2.0/arm/arm-none-eabi/include/c++/10.3.1/bits/invoke.h ****    *  @addtogroup utilities
  47:/Library/DaisyToolchain/0.2.0/arm/arm-none-eabi/include/c++/10.3.1/bits/invoke.h ****    *  @{
  48:/Library/DaisyToolchain/0.2.0/arm/arm-none-eabi/include/c++/10.3.1/bits/invoke.h ****    */
  49:/Library/DaisyToolchain/0.2.0/arm/arm-none-eabi/include/c++/10.3.1/bits/invoke.h **** 
  50:/Library/DaisyToolchain/0.2.0/arm/arm-none-eabi/include/c++/10.3.1/bits/invoke.h ****   // Used by __invoke_impl instead of std::forward<_Tp> so that a
  51:/Library/DaisyToolchain/0.2.0/arm/arm-none-eabi/include/c++/10.3.1/bits/invoke.h ****   // reference_wrapper is converted to an lvalue-reference.
  52:/Library/DaisyToolchain/0.2.0/arm/arm-none-eabi/include/c++/10.3.1/bits/invoke.h ****   template<typename _Tp, typename _Up = typename __inv_unwrap<_Tp>::type>
  53:/Library/DaisyToolchain/0.2.0/arm/arm-none-eabi/include/c++/10.3.1/bits/invoke.h ****     constexpr _Up&&
  54:/Library/DaisyToolchain/0.2.0/arm/arm-none-eabi/include/c++/10.3.1/bits/invoke.h ****     __invfwd(typename remove_reference<_Tp>::type& __t) noexcept
  55:/Library/DaisyToolchain/0.2.0/arm/arm-none-eabi/include/c++/10.3.1/bits/invoke.h ****     { return static_cast<_Up&&>(__t); }
  56:/Library/DaisyToolchain/0.2.0/arm/arm-none-eabi/include/c++/10.3.1/bits/invoke.h **** 
  57:/Library/DaisyToolchain/0.2.0/arm/arm-none-eabi/include/c++/10.3.1/bits/invoke.h ****   template<typename _Res, typename _Fn, typename... _Args>
  58:/Library/DaisyToolchain/0.2.0/arm/arm-none-eabi/include/c++/10.3.1/bits/invoke.h ****     constexpr _Res
  59:/Library/DaisyToolchain/0.2.0/arm/arm-none-eabi/include/c++/10.3.1/bits/invoke.h ****     __invoke_impl(__invoke_other, _Fn&& __f, _Args&&... __args)
  60:/Library/DaisyToolchain/0.2.0/arm/arm-none-eabi/include/c++/10.3.1/bits/invoke.h ****     { return std::forward<_Fn>(__f)(std::forward<_Args>(__args)...); }
  61:/Library/DaisyToolchain/0.2.0/arm/arm-none-eabi/include/c++/10.3.1/bits/invoke.h **** 
  62:/Library/DaisyToolchain/0.2.0/arm/arm-none-eabi/include/c++/10.3.1/bits/invoke.h ****   template<typename _Res, typename _MemFun, typename _Tp, typename... _Args>
  63:/Library/DaisyToolchain/0.2.0/arm/arm-none-eabi/include/c++/10.3.1/bits/invoke.h ****     constexpr _Res
  64:/Library/DaisyToolchain/0.2.0/arm/arm-none-eabi/include/c++/10.3.1/bits/invoke.h ****     __invoke_impl(__invoke_memfun_ref, _MemFun&& __f, _Tp&& __t,
  65:/Library/DaisyToolchain/0.2.0/arm/arm-none-eabi/include/c++/10.3.1/bits/invoke.h **** 		  _Args&&... __args)
  66:/Library/DaisyToolchain/0.2.0/arm/arm-none-eabi/include/c++/10.3.1/bits/invoke.h ****     { return (__invfwd<_Tp>(__t).*__f)(std::forward<_Args>(__args)...); }
  67:/Library/DaisyToolchain/0.2.0/arm/arm-none-eabi/include/c++/10.3.1/bits/invoke.h **** 
  68:/Library/DaisyToolchain/0.2.0/arm/arm-none-eabi/include/c++/10.3.1/bits/invoke.h ****   template<typename _Res, typename _MemFun, typename _Tp, typename... _Args>
  69:/Library/DaisyToolchain/0.2.0/arm/arm-none-eabi/include/c++/10.3.1/bits/invoke.h ****     constexpr _Res
  70:/Library/DaisyToolchain/0.2.0/arm/arm-none-eabi/include/c++/10.3.1/bits/invoke.h ****     __invoke_impl(__invoke_memfun_deref, _MemFun&& __f, _Tp&& __t,
  71:/Library/DaisyToolchain/0.2.0/arm/arm-none-eabi/include/c++/10.3.1/bits/invoke.h **** 		  _Args&&... __args)
  72:/Library/DaisyToolchain/0.2.0/arm/arm-none-eabi/include/c++/10.3.1/bits/invoke.h ****     {
ARM GAS  /var/folders/wz/z09yph4n0qj4t7mjxhl6ttn80000gn/T//ccxdcdyF.s 			page 145


  73:/Library/DaisyToolchain/0.2.0/arm/arm-none-eabi/include/c++/10.3.1/bits/invoke.h ****       return ((*std::forward<_Tp>(__t)).*__f)(std::forward<_Args>(__args)...);
  74:/Library/DaisyToolchain/0.2.0/arm/arm-none-eabi/include/c++/10.3.1/bits/invoke.h ****     }
  75:/Library/DaisyToolchain/0.2.0/arm/arm-none-eabi/include/c++/10.3.1/bits/invoke.h **** 
  76:/Library/DaisyToolchain/0.2.0/arm/arm-none-eabi/include/c++/10.3.1/bits/invoke.h ****   template<typename _Res, typename _MemPtr, typename _Tp>
  77:/Library/DaisyToolchain/0.2.0/arm/arm-none-eabi/include/c++/10.3.1/bits/invoke.h ****     constexpr _Res
  78:/Library/DaisyToolchain/0.2.0/arm/arm-none-eabi/include/c++/10.3.1/bits/invoke.h ****     __invoke_impl(__invoke_memobj_ref, _MemPtr&& __f, _Tp&& __t)
  79:/Library/DaisyToolchain/0.2.0/arm/arm-none-eabi/include/c++/10.3.1/bits/invoke.h ****     { return __invfwd<_Tp>(__t).*__f; }
  80:/Library/DaisyToolchain/0.2.0/arm/arm-none-eabi/include/c++/10.3.1/bits/invoke.h **** 
  81:/Library/DaisyToolchain/0.2.0/arm/arm-none-eabi/include/c++/10.3.1/bits/invoke.h ****   template<typename _Res, typename _MemPtr, typename _Tp>
  82:/Library/DaisyToolchain/0.2.0/arm/arm-none-eabi/include/c++/10.3.1/bits/invoke.h ****     constexpr _Res
  83:/Library/DaisyToolchain/0.2.0/arm/arm-none-eabi/include/c++/10.3.1/bits/invoke.h ****     __invoke_impl(__invoke_memobj_deref, _MemPtr&& __f, _Tp&& __t)
  84:/Library/DaisyToolchain/0.2.0/arm/arm-none-eabi/include/c++/10.3.1/bits/invoke.h ****     { return (*std::forward<_Tp>(__t)).*__f; }
  85:/Library/DaisyToolchain/0.2.0/arm/arm-none-eabi/include/c++/10.3.1/bits/invoke.h **** 
  86:/Library/DaisyToolchain/0.2.0/arm/arm-none-eabi/include/c++/10.3.1/bits/invoke.h ****   /// Invoke a callable object.
  87:/Library/DaisyToolchain/0.2.0/arm/arm-none-eabi/include/c++/10.3.1/bits/invoke.h ****   template<typename _Callable, typename... _Args>
  88:/Library/DaisyToolchain/0.2.0/arm/arm-none-eabi/include/c++/10.3.1/bits/invoke.h ****     constexpr typename __invoke_result<_Callable, _Args...>::type
  89:/Library/DaisyToolchain/0.2.0/arm/arm-none-eabi/include/c++/10.3.1/bits/invoke.h ****     __invoke(_Callable&& __fn, _Args&&... __args)
  90:/Library/DaisyToolchain/0.2.0/arm/arm-none-eabi/include/c++/10.3.1/bits/invoke.h ****     noexcept(__is_nothrow_invocable<_Callable, _Args...>::value)
  91:/Library/DaisyToolchain/0.2.0/arm/arm-none-eabi/include/c++/10.3.1/bits/invoke.h ****     {
  92:/Library/DaisyToolchain/0.2.0/arm/arm-none-eabi/include/c++/10.3.1/bits/invoke.h ****       using __result = __invoke_result<_Callable, _Args...>;
  93:/Library/DaisyToolchain/0.2.0/arm/arm-none-eabi/include/c++/10.3.1/bits/invoke.h ****       using __type = typename __result::type;
  94:/Library/DaisyToolchain/0.2.0/arm/arm-none-eabi/include/c++/10.3.1/bits/invoke.h ****       using __tag = typename __result::__invoke_type;
  95:/Library/DaisyToolchain/0.2.0/arm/arm-none-eabi/include/c++/10.3.1/bits/invoke.h ****       return std::__invoke_impl<__type>(__tag{}, std::forward<_Callable>(__fn),
  96:/Library/DaisyToolchain/0.2.0/arm/arm-none-eabi/include/c++/10.3.1/bits/invoke.h **** 					std::forward<_Args>(__args)...);
  97:/Library/DaisyToolchain/0.2.0/arm/arm-none-eabi/include/c++/10.3.1/bits/invoke.h ****     }
  98:/Library/DaisyToolchain/0.2.0/arm/arm-none-eabi/include/c++/10.3.1/bits/invoke.h **** 
  99:/Library/DaisyToolchain/0.2.0/arm/arm-none-eabi/include/c++/10.3.1/bits/invoke.h **** #if __cplusplus >= 201703L
 100:/Library/DaisyToolchain/0.2.0/arm/arm-none-eabi/include/c++/10.3.1/bits/invoke.h ****   // INVOKE<R>: Invoke a callable object and convert the result to R.
 101:/Library/DaisyToolchain/0.2.0/arm/arm-none-eabi/include/c++/10.3.1/bits/invoke.h ****   template<typename _Res, typename _Callable, typename... _Args>
 102:/Library/DaisyToolchain/0.2.0/arm/arm-none-eabi/include/c++/10.3.1/bits/invoke.h ****     constexpr enable_if_t<is_invocable_r_v<_Res, _Callable, _Args...>, _Res>
 103:/Library/DaisyToolchain/0.2.0/arm/arm-none-eabi/include/c++/10.3.1/bits/invoke.h ****     __invoke_r(_Callable&& __fn, _Args&&... __args)
 104:/Library/DaisyToolchain/0.2.0/arm/arm-none-eabi/include/c++/10.3.1/bits/invoke.h ****     noexcept(is_nothrow_invocable_r_v<_Res, _Callable, _Args...>)
 105:/Library/DaisyToolchain/0.2.0/arm/arm-none-eabi/include/c++/10.3.1/bits/invoke.h ****     {
 106:/Library/DaisyToolchain/0.2.0/arm/arm-none-eabi/include/c++/10.3.1/bits/invoke.h ****       using __result = __invoke_result<_Callable, _Args...>;
 107:/Library/DaisyToolchain/0.2.0/arm/arm-none-eabi/include/c++/10.3.1/bits/invoke.h ****       using __type = typename __result::type;
 108:/Library/DaisyToolchain/0.2.0/arm/arm-none-eabi/include/c++/10.3.1/bits/invoke.h ****       using __tag = typename __result::__invoke_type;
 109:/Library/DaisyToolchain/0.2.0/arm/arm-none-eabi/include/c++/10.3.1/bits/invoke.h ****       if constexpr (is_void_v<_Res>)
 110:/Library/DaisyToolchain/0.2.0/arm/arm-none-eabi/include/c++/10.3.1/bits/invoke.h **** 	std::__invoke_impl<__type>(__tag{}, std::forward<_Callable>(__fn),
 111:/Library/DaisyToolchain/0.2.0/arm/arm-none-eabi/include/c++/10.3.1/bits/invoke.h **** 					std::forward<_Args>(__args)...);
 112:/Library/DaisyToolchain/0.2.0/arm/arm-none-eabi/include/c++/10.3.1/bits/invoke.h ****       else
 113:/Library/DaisyToolchain/0.2.0/arm/arm-none-eabi/include/c++/10.3.1/bits/invoke.h **** 	return std::__invoke_impl<__type>(__tag{},
 114:/Library/DaisyToolchain/0.2.0/arm/arm-none-eabi/include/c++/10.3.1/bits/invoke.h **** 					  std::forward<_Callable>(__fn),
 115:/Library/DaisyToolchain/0.2.0/arm/arm-none-eabi/include/c++/10.3.1/bits/invoke.h **** 					  std::forward<_Args>(__args)...);
 116:/Library/DaisyToolchain/0.2.0/arm/arm-none-eabi/include/c++/10.3.1/bits/invoke.h ****     }
 117:/Library/DaisyToolchain/0.2.0/arm/arm-none-eabi/include/c++/10.3.1/bits/invoke.h **** #else // C++11
 118:/Library/DaisyToolchain/0.2.0/arm/arm-none-eabi/include/c++/10.3.1/bits/invoke.h ****   template<typename _Res, typename _Callable, typename... _Args>
 119:/Library/DaisyToolchain/0.2.0/arm/arm-none-eabi/include/c++/10.3.1/bits/invoke.h ****     using __can_invoke_as_void = __enable_if_t<
 120:/Library/DaisyToolchain/0.2.0/arm/arm-none-eabi/include/c++/10.3.1/bits/invoke.h ****       __and_<is_void<_Res>, __is_invocable<_Callable, _Args...>>::value,
 121:/Library/DaisyToolchain/0.2.0/arm/arm-none-eabi/include/c++/10.3.1/bits/invoke.h ****       _Res
 122:/Library/DaisyToolchain/0.2.0/arm/arm-none-eabi/include/c++/10.3.1/bits/invoke.h ****     >;
 123:/Library/DaisyToolchain/0.2.0/arm/arm-none-eabi/include/c++/10.3.1/bits/invoke.h **** 
 124:/Library/DaisyToolchain/0.2.0/arm/arm-none-eabi/include/c++/10.3.1/bits/invoke.h ****   template<typename _Res, typename _Callable, typename... _Args>
 125:/Library/DaisyToolchain/0.2.0/arm/arm-none-eabi/include/c++/10.3.1/bits/invoke.h ****     using __can_invoke_as_nonvoid = __enable_if_t<
 126:/Library/DaisyToolchain/0.2.0/arm/arm-none-eabi/include/c++/10.3.1/bits/invoke.h ****       __and_<__not_<is_void<_Res>>,
 127:/Library/DaisyToolchain/0.2.0/arm/arm-none-eabi/include/c++/10.3.1/bits/invoke.h **** 	     is_convertible<typename __invoke_result<_Callable, _Args...>::type,
 128:/Library/DaisyToolchain/0.2.0/arm/arm-none-eabi/include/c++/10.3.1/bits/invoke.h **** 			    _Res>
 129:/Library/DaisyToolchain/0.2.0/arm/arm-none-eabi/include/c++/10.3.1/bits/invoke.h ****       >::value,
ARM GAS  /var/folders/wz/z09yph4n0qj4t7mjxhl6ttn80000gn/T//ccxdcdyF.s 			page 146


 130:/Library/DaisyToolchain/0.2.0/arm/arm-none-eabi/include/c++/10.3.1/bits/invoke.h ****       _Res
 131:/Library/DaisyToolchain/0.2.0/arm/arm-none-eabi/include/c++/10.3.1/bits/invoke.h ****     >;
 132:/Library/DaisyToolchain/0.2.0/arm/arm-none-eabi/include/c++/10.3.1/bits/invoke.h **** 
 133:/Library/DaisyToolchain/0.2.0/arm/arm-none-eabi/include/c++/10.3.1/bits/invoke.h ****   // INVOKE<R>: Invoke a callable object and convert the result to R.
 134:/Library/DaisyToolchain/0.2.0/arm/arm-none-eabi/include/c++/10.3.1/bits/invoke.h ****   template<typename _Res, typename _Callable, typename... _Args>
 135:/Library/DaisyToolchain/0.2.0/arm/arm-none-eabi/include/c++/10.3.1/bits/invoke.h ****     constexpr __can_invoke_as_nonvoid<_Res, _Callable, _Args...>
 136:/Library/DaisyToolchain/0.2.0/arm/arm-none-eabi/include/c++/10.3.1/bits/invoke.h ****     __invoke_r(_Callable&& __fn, _Args&&... __args)
 137:/Library/DaisyToolchain/0.2.0/arm/arm-none-eabi/include/c++/10.3.1/bits/invoke.h ****     {
 138:/Library/DaisyToolchain/0.2.0/arm/arm-none-eabi/include/c++/10.3.1/bits/invoke.h ****       using __result = __invoke_result<_Callable, _Args...>;
 139:/Library/DaisyToolchain/0.2.0/arm/arm-none-eabi/include/c++/10.3.1/bits/invoke.h ****       using __type = typename __result::type;
 140:/Library/DaisyToolchain/0.2.0/arm/arm-none-eabi/include/c++/10.3.1/bits/invoke.h ****       using __tag = typename __result::__invoke_type;
 141:/Library/DaisyToolchain/0.2.0/arm/arm-none-eabi/include/c++/10.3.1/bits/invoke.h ****       return std::__invoke_impl<__type>(__tag{}, std::forward<_Callable>(__fn),
 142:/Library/DaisyToolchain/0.2.0/arm/arm-none-eabi/include/c++/10.3.1/bits/invoke.h **** 					std::forward<_Args>(__args)...);
 143:/Library/DaisyToolchain/0.2.0/arm/arm-none-eabi/include/c++/10.3.1/bits/invoke.h ****     }
 144:/Library/DaisyToolchain/0.2.0/arm/arm-none-eabi/include/c++/10.3.1/bits/invoke.h **** 
 145:/Library/DaisyToolchain/0.2.0/arm/arm-none-eabi/include/c++/10.3.1/bits/invoke.h ****   // INVOKE<R> when R is cv void
 146:/Library/DaisyToolchain/0.2.0/arm/arm-none-eabi/include/c++/10.3.1/bits/invoke.h ****   template<typename _Res, typename _Callable, typename... _Args>
 147:/Library/DaisyToolchain/0.2.0/arm/arm-none-eabi/include/c++/10.3.1/bits/invoke.h ****     _GLIBCXX14_CONSTEXPR __can_invoke_as_void<_Res, _Callable, _Args...>
 148:/Library/DaisyToolchain/0.2.0/arm/arm-none-eabi/include/c++/10.3.1/bits/invoke.h ****     __invoke_r(_Callable&& __fn, _Args&&... __args)
 6509              		.loc 9 148 5
 6510              		.cfi_startproc
 6511              		@ args = 0, pretend = 0, frame = 8
 6512              		@ frame_needed = 1, uses_anonymous_args = 0
 6513 0000 B0B5     		push	{r4, r5, r7, lr}
 6514              		.cfi_def_cfa_offset 16
 6515              		.cfi_offset 4, -16
 6516              		.cfi_offset 5, -12
 6517              		.cfi_offset 7, -8
 6518              		.cfi_offset 14, -4
 6519 0002 82B0     		sub	sp, sp, #8
 6520              		.cfi_def_cfa_offset 24
 6521 0004 00AF     		add	r7, sp, #0
 6522              		.cfi_def_cfa_register 7
 6523 0006 7860     		str	r0, [r7, #4]
 6524 0008 3960     		str	r1, [r7]
 149:/Library/DaisyToolchain/0.2.0/arm/arm-none-eabi/include/c++/10.3.1/bits/invoke.h ****     {
 150:/Library/DaisyToolchain/0.2.0/arm/arm-none-eabi/include/c++/10.3.1/bits/invoke.h ****       using __result = __invoke_result<_Callable, _Args...>;
 151:/Library/DaisyToolchain/0.2.0/arm/arm-none-eabi/include/c++/10.3.1/bits/invoke.h ****       using __type = typename __result::type;
 152:/Library/DaisyToolchain/0.2.0/arm/arm-none-eabi/include/c++/10.3.1/bits/invoke.h ****       using __tag = typename __result::__invoke_type;
 153:/Library/DaisyToolchain/0.2.0/arm/arm-none-eabi/include/c++/10.3.1/bits/invoke.h ****       std::__invoke_impl<__type>(__tag{}, std::forward<_Callable>(__fn),
 6525              		.loc 9 153 33
 6526 000a 7868     		ldr	r0, [r7, #4]
 6527 000c FFF7FEFF 		bl	_ZSt7forwardIRZN5Mixer4initEPN5daisy9DaisySeedEPPfS5_S5_S5_S5_PPN7daisysp9DelayLineIfLj240000EE
 6528 0010 0446     		mov	r4, r0
 6529 0012 3868     		ldr	r0, [r7]
 6530 0014 FFF7FEFF 		bl	_ZSt7forwardIfEOT_RNSt16remove_referenceIS0_E4typeE
 6531 0018 0346     		mov	r3, r0
 6532 001a 1A46     		mov	r2, r3
 6533 001c 2146     		mov	r1, r4
 6534 001e 2846     		mov	r0, r5
 6535 0020 FFF7FEFF 		bl	_ZSt13__invoke_implIvRZN5Mixer4initEPN5daisy9DaisySeedEPPfS5_S5_S5_S5_PPN7daisysp9DelayLineIfLj
 154:/Library/DaisyToolchain/0.2.0/arm/arm-none-eabi/include/c++/10.3.1/bits/invoke.h **** 				 std::forward<_Args>(__args)...);
 155:/Library/DaisyToolchain/0.2.0/arm/arm-none-eabi/include/c++/10.3.1/bits/invoke.h ****     }
 6536              		.loc 9 155 5
 6537 0024 00BF     		nop
 6538 0026 0837     		adds	r7, r7, #8
 6539              		.cfi_def_cfa_offset 16
ARM GAS  /var/folders/wz/z09yph4n0qj4t7mjxhl6ttn80000gn/T//ccxdcdyF.s 			page 147


 6540 0028 BD46     		mov	sp, r7
 6541              		.cfi_def_cfa_register 13
 6542              		@ sp needed
 6543 002a B0BD     		pop	{r4, r5, r7, pc}
 6544              		.cfi_endproc
 6545              	.LFE6270:
 6547              		.section	.text._ZNSt9_Any_data9_M_accessIPZN5Mixer4initEPN5daisy9DaisySeedEPPfS6_S6_S6_S6_PPN7dais
 6548              		.align	1
 6549              		.syntax unified
 6550              		.thumb
 6551              		.thumb_func
 6553              	_ZNSt9_Any_data9_M_accessIPZN5Mixer4initEPN5daisy9DaisySeedEPPfS6_S6_S6_S6_PPN7daisysp9DelayLineIfL
 6554              	.LFB6271:
  92:/Library/DaisyToolchain/0.2.0/arm/arm-none-eabi/include/c++/10.3.1/bits/std_function.h ****       { return *static_cast<_Tp*>(_M_access()); }
 6555              		.loc 3 92 7
 6556              		.cfi_startproc
 6557              		@ args = 0, pretend = 0, frame = 8
 6558              		@ frame_needed = 1, uses_anonymous_args = 0
 6559 0000 80B5     		push	{r7, lr}
 6560              		.cfi_def_cfa_offset 8
 6561              		.cfi_offset 7, -8
 6562              		.cfi_offset 14, -4
 6563 0002 82B0     		sub	sp, sp, #8
 6564              		.cfi_def_cfa_offset 16
 6565 0004 00AF     		add	r7, sp, #0
 6566              		.cfi_def_cfa_register 7
 6567 0006 7860     		str	r0, [r7, #4]
  93:/Library/DaisyToolchain/0.2.0/arm/arm-none-eabi/include/c++/10.3.1/bits/std_function.h **** 
 6568              		.loc 3 93 44
 6569 0008 7868     		ldr	r0, [r7, #4]
 6570 000a FFF7FEFF 		bl	_ZNSt9_Any_data9_M_accessEv
 6571 000e 0346     		mov	r3, r0
  93:/Library/DaisyToolchain/0.2.0/arm/arm-none-eabi/include/c++/10.3.1/bits/std_function.h **** 
 6572              		.loc 3 93 49
 6573 0010 1846     		mov	r0, r3
 6574 0012 0837     		adds	r7, r7, #8
 6575              		.cfi_def_cfa_offset 8
 6576 0014 BD46     		mov	sp, r7
 6577              		.cfi_def_cfa_register 13
 6578              		@ sp needed
 6579 0016 80BD     		pop	{r7, pc}
 6580              		.cfi_endproc
 6581              	.LFE6271:
 6583              		.section	.text._ZNSt14_Function_base13_Base_managerIZN5Mixer4initEPN5daisy9DaisySeedEPPfS6_S6_S6_S
 6584              		.align	1
 6585              		.syntax unified
 6586              		.thumb
 6587              		.thumb_func
 6589              	_ZNSt14_Function_base13_Base_managerIZN5Mixer4initEPN5daisy9DaisySeedEPPfS6_S6_S6_S6_PPN7daisysp9De
 6590              	.LFB6272:
 181:/Library/DaisyToolchain/0.2.0/arm/arm-none-eabi/include/c++/10.3.1/bits/std_function.h **** 		   _Manager_operation __op)
 6591              		.loc 3 181 2
 6592              		.cfi_startproc
 6593              		@ args = 0, pretend = 0, frame = 16
 6594              		@ frame_needed = 1, uses_anonymous_args = 0
 6595 0000 B0B5     		push	{r4, r5, r7, lr}
 6596              		.cfi_def_cfa_offset 16
ARM GAS  /var/folders/wz/z09yph4n0qj4t7mjxhl6ttn80000gn/T//ccxdcdyF.s 			page 148


 6597              		.cfi_offset 4, -16
 6598              		.cfi_offset 5, -12
 6599              		.cfi_offset 7, -8
 6600              		.cfi_offset 14, -4
 6601 0002 84B0     		sub	sp, sp, #16
 6602              		.cfi_def_cfa_offset 32
 6603 0004 00AF     		add	r7, sp, #0
 6604              		.cfi_def_cfa_register 7
 6605 0006 F860     		str	r0, [r7, #12]
 6606 0008 B960     		str	r1, [r7, #8]
 6607 000a 1346     		mov	r3, r2
 6608 000c FB71     		strb	r3, [r7, #7]
 184:/Library/DaisyToolchain/0.2.0/arm/arm-none-eabi/include/c++/10.3.1/bits/std_function.h **** 	    {
 6609              		.loc 3 184 12
 6610 000e FB79     		ldrb	r3, [r7, #7]	@ zero_extendqisi2
 184:/Library/DaisyToolchain/0.2.0/arm/arm-none-eabi/include/c++/10.3.1/bits/std_function.h **** 	    {
 6611              		.loc 3 184 4
 6612 0010 032B     		cmp	r3, #3
 6613 0012 16D0     		beq	.L263
 6614 0014 032B     		cmp	r3, #3
 6615 0016 19DC     		bgt	.L264
 6616 0018 012B     		cmp	r3, #1
 6617 001a 02D0     		beq	.L265
 6618 001c 022B     		cmp	r3, #2
 6619 001e 0AD0     		beq	.L266
 6620 0020 14E0     		b	.L264
 6621              	.L265:
 192:/Library/DaisyToolchain/0.2.0/arm/arm-none-eabi/include/c++/10.3.1/bits/std_function.h **** 	      break;
 6622              		.loc 3 192 35
 6623 0022 F868     		ldr	r0, [r7, #12]
 6624 0024 FFF7FEFF 		bl	_ZNSt9_Any_data9_M_accessIPZN5Mixer4initEPN5daisy9DaisySeedEPPfS6_S6_S6_S6_PPN7daisysp9DelayLin
 6625 0028 0446     		mov	r4, r0
 192:/Library/DaisyToolchain/0.2.0/arm/arm-none-eabi/include/c++/10.3.1/bits/std_function.h **** 	      break;
 6626              		.loc 3 192 54
 6627 002a B868     		ldr	r0, [r7, #8]
 6628 002c FFF7FEFF 		bl	_ZNSt14_Function_base13_Base_managerIZN5Mixer4initEPN5daisy9DaisySeedEPPfS6_S6_S6_S6_PPN7daisys
 6629 0030 0346     		mov	r3, r0
 192:/Library/DaisyToolchain/0.2.0/arm/arm-none-eabi/include/c++/10.3.1/bits/std_function.h **** 	      break;
 6630              		.loc 3 192 38
 6631 0032 2360     		str	r3, [r4]
 193:/Library/DaisyToolchain/0.2.0/arm/arm-none-eabi/include/c++/10.3.1/bits/std_function.h **** 
 6632              		.loc 3 193 8
 6633 0034 0AE0     		b	.L264
 6634              	.L266:
 196:/Library/DaisyToolchain/0.2.0/arm/arm-none-eabi/include/c++/10.3.1/bits/std_function.h **** 	      break;
 6635              		.loc 3 196 16
 6636 0036 2A46     		mov	r2, r5
 6637 0038 B968     		ldr	r1, [r7, #8]
 6638 003a F868     		ldr	r0, [r7, #12]
 6639 003c FFF7FEFF 		bl	_ZNSt14_Function_base13_Base_managerIZN5Mixer4initEPN5daisy9DaisySeedEPPfS6_S6_S6_S6_PPN7daisys
 197:/Library/DaisyToolchain/0.2.0/arm/arm-none-eabi/include/c++/10.3.1/bits/std_function.h **** 
 6640              		.loc 3 197 8
 6641 0040 04E0     		b	.L264
 6642              	.L263:
 200:/Library/DaisyToolchain/0.2.0/arm/arm-none-eabi/include/c++/10.3.1/bits/std_function.h **** 	      break;
 6643              		.loc 3 200 18
 6644 0042 2146     		mov	r1, r4
ARM GAS  /var/folders/wz/z09yph4n0qj4t7mjxhl6ttn80000gn/T//ccxdcdyF.s 			page 149


 6645 0044 F868     		ldr	r0, [r7, #12]
 6646 0046 FFF7FEFF 		bl	_ZNSt14_Function_base13_Base_managerIZN5Mixer4initEPN5daisy9DaisySeedEPPfS6_S6_S6_S6_PPN7daisys
 201:/Library/DaisyToolchain/0.2.0/arm/arm-none-eabi/include/c++/10.3.1/bits/std_function.h **** 	    }
 6647              		.loc 3 201 8
 6648 004a 00BF     		nop
 6649              	.L264:
 203:/Library/DaisyToolchain/0.2.0/arm/arm-none-eabi/include/c++/10.3.1/bits/std_function.h **** 	}
 6650              		.loc 3 203 11
 6651 004c 0023     		movs	r3, #0
 204:/Library/DaisyToolchain/0.2.0/arm/arm-none-eabi/include/c++/10.3.1/bits/std_function.h **** 
 6652              		.loc 3 204 2
 6653 004e 1846     		mov	r0, r3
 6654 0050 1037     		adds	r7, r7, #16
 6655              		.cfi_def_cfa_offset 16
 6656 0052 BD46     		mov	sp, r7
 6657              		.cfi_def_cfa_register 13
 6658              		@ sp needed
 6659 0054 B0BD     		pop	{r4, r5, r7, pc}
 6660              		.cfi_endproc
 6661              	.LFE6272:
 6663              		.section	.text._ZSt4moveIRPFvRKSt9_Any_dataOfEEONSt16remove_referenceIT_E4typeEOS8_,"axG",%progbit
 6664              		.align	1
 6665              		.weak	_ZSt4moveIRPFvRKSt9_Any_dataOfEEONSt16remove_referenceIT_E4typeEOS8_
 6666              		.syntax unified
 6667              		.thumb
 6668              		.thumb_func
 6670              	_ZSt4moveIRPFvRKSt9_Any_dataOfEEONSt16remove_referenceIT_E4typeEOS8_:
 6671              	.LFB6274:
 101:/Library/DaisyToolchain/0.2.0/arm/arm-none-eabi/include/c++/10.3.1/bits/move.h ****     { return static_cast<typename std::remove_reference<_Tp>::type&&>(__t); }
 6672              		.loc 8 101 5
 6673              		.cfi_startproc
 6674              		@ args = 0, pretend = 0, frame = 8
 6675              		@ frame_needed = 1, uses_anonymous_args = 0
 6676              		@ link register save eliminated.
 6677 0000 80B4     		push	{r7}
 6678              		.cfi_def_cfa_offset 4
 6679              		.cfi_offset 7, -4
 6680 0002 83B0     		sub	sp, sp, #12
 6681              		.cfi_def_cfa_offset 16
 6682 0004 00AF     		add	r7, sp, #0
 6683              		.cfi_def_cfa_register 7
 6684 0006 7860     		str	r0, [r7, #4]
 102:/Library/DaisyToolchain/0.2.0/arm/arm-none-eabi/include/c++/10.3.1/bits/move.h **** 
 6685              		.loc 8 102 74
 6686 0008 7B68     		ldr	r3, [r7, #4]
 102:/Library/DaisyToolchain/0.2.0/arm/arm-none-eabi/include/c++/10.3.1/bits/move.h **** 
 6687              		.loc 8 102 77
 6688 000a 1846     		mov	r0, r3
 6689 000c 0C37     		adds	r7, r7, #12
 6690              		.cfi_def_cfa_offset 4
 6691 000e BD46     		mov	sp, r7
 6692              		.cfi_def_cfa_register 13
 6693              		@ sp needed
 6694 0010 5DF8047B 		ldr	r7, [sp], #4
 6695              		.cfi_restore 7
 6696              		.cfi_def_cfa_offset 0
 6697 0014 7047     		bx	lr
ARM GAS  /var/folders/wz/z09yph4n0qj4t7mjxhl6ttn80000gn/T//ccxdcdyF.s 			page 150


 6698              		.cfi_endproc
 6699              	.LFE6274:
 6701              		.section	.text._ZSt4swapIPFvRKSt9_Any_dataOfEENSt9enable_ifIXsrSt6__and_IJSt6__not_ISt15__is_tuple
 6702              		.align	1
 6703              		.weak	_ZSt4swapIPFvRKSt9_Any_dataOfEENSt9enable_ifIXsrSt6__and_IJSt6__not_ISt15__is_tuple_likeIT_E
 6704              		.syntax unified
 6705              		.thumb
 6706              		.thumb_func
 6708              	_ZSt4swapIPFvRKSt9_Any_dataOfEENSt9enable_ifIXsrSt6__and_IJSt6__not_ISt15__is_tuple_likeIT_EESt21is
 6709              	.LFB6273:
 189:/Library/DaisyToolchain/0.2.0/arm/arm-none-eabi/include/c++/10.3.1/bits/move.h ****     _GLIBCXX_NOEXCEPT_IF(__and_<is_nothrow_move_constructible<_Tp>,
 6710              		.loc 8 189 5
 6711              		.cfi_startproc
 6712              		@ args = 0, pretend = 0, frame = 16
 6713              		@ frame_needed = 1, uses_anonymous_args = 0
 6714 0000 80B5     		push	{r7, lr}
 6715              		.cfi_def_cfa_offset 8
 6716              		.cfi_offset 7, -8
 6717              		.cfi_offset 14, -4
 6718 0002 84B0     		sub	sp, sp, #16
 6719              		.cfi_def_cfa_offset 24
 6720 0004 00AF     		add	r7, sp, #0
 6721              		.cfi_def_cfa_register 7
 6722 0006 7860     		str	r0, [r7, #4]
 6723 0008 3960     		str	r1, [r7]
 197:/Library/DaisyToolchain/0.2.0/arm/arm-none-eabi/include/c++/10.3.1/bits/move.h ****       __a = _GLIBCXX_MOVE(__b);
 6724              		.loc 8 197 19
 6725 000a 7868     		ldr	r0, [r7, #4]
 6726 000c FFF7FEFF 		bl	_ZSt4moveIRPFvRKSt9_Any_dataOfEEONSt16remove_referenceIT_E4typeEOS8_
 6727 0010 0346     		mov	r3, r0
 197:/Library/DaisyToolchain/0.2.0/arm/arm-none-eabi/include/c++/10.3.1/bits/move.h ****       __a = _GLIBCXX_MOVE(__b);
 6728              		.loc 8 197 11
 6729 0012 1B68     		ldr	r3, [r3]
 6730 0014 FB60     		str	r3, [r7, #12]
 198:/Library/DaisyToolchain/0.2.0/arm/arm-none-eabi/include/c++/10.3.1/bits/move.h ****       __b = _GLIBCXX_MOVE(__tmp);
 6731              		.loc 8 198 13
 6732 0016 3868     		ldr	r0, [r7]
 6733 0018 FFF7FEFF 		bl	_ZSt4moveIRPFvRKSt9_Any_dataOfEEONSt16remove_referenceIT_E4typeEOS8_
 6734 001c 0346     		mov	r3, r0
 198:/Library/DaisyToolchain/0.2.0/arm/arm-none-eabi/include/c++/10.3.1/bits/move.h ****       __b = _GLIBCXX_MOVE(__tmp);
 6735              		.loc 8 198 11
 6736 001e 1A68     		ldr	r2, [r3]
 6737 0020 7B68     		ldr	r3, [r7, #4]
 6738 0022 1A60     		str	r2, [r3]
 199:/Library/DaisyToolchain/0.2.0/arm/arm-none-eabi/include/c++/10.3.1/bits/move.h ****     }
 6739              		.loc 8 199 13
 6740 0024 07F10C03 		add	r3, r7, #12
 6741 0028 1846     		mov	r0, r3
 6742 002a FFF7FEFF 		bl	_ZSt4moveIRPFvRKSt9_Any_dataOfEEONSt16remove_referenceIT_E4typeEOS8_
 6743 002e 0346     		mov	r3, r0
 199:/Library/DaisyToolchain/0.2.0/arm/arm-none-eabi/include/c++/10.3.1/bits/move.h ****     }
 6744              		.loc 8 199 11
 6745 0030 1A68     		ldr	r2, [r3]
 6746 0032 3B68     		ldr	r3, [r7]
 6747 0034 1A60     		str	r2, [r3]
 6748              		.loc 8 200 5
 6749 0036 00BF     		nop
ARM GAS  /var/folders/wz/z09yph4n0qj4t7mjxhl6ttn80000gn/T//ccxdcdyF.s 			page 151


 6750 0038 1037     		adds	r7, r7, #16
 6751              		.cfi_def_cfa_offset 8
 6752 003a BD46     		mov	sp, r7
 6753              		.cfi_def_cfa_register 13
 6754              		@ sp needed
 6755 003c 80BD     		pop	{r7, pc}
 6756              		.cfi_endproc
 6757              	.LFE6273:
 6759              		.section	.text._ZNSt8functionIFvfEEC2ERKS1_,"axG",%progbits,_ZNSt8functionIFvfEEC5ERKS1_,comdat
 6760              		.align	1
 6761              		.weak	_ZNSt8functionIFvfEEC2ERKS1_
 6762              		.syntax unified
 6763              		.thumb
 6764              		.thumb_func
 6766              	_ZNSt8functionIFvfEEC2ERKS1_:
 6767              	.LFB6276:
 587:/Library/DaisyToolchain/0.2.0/arm/arm-none-eabi/include/c++/10.3.1/bits/std_function.h ****     function(const function& __x)
 6768              		.loc 3 587 5
 6769              		.cfi_startproc
 6770              		@ args = 0, pretend = 0, frame = 8
 6771              		@ frame_needed = 1, uses_anonymous_args = 0
 6772 0000 80B5     		push	{r7, lr}
 6773              		.cfi_def_cfa_offset 8
 6774              		.cfi_offset 7, -8
 6775              		.cfi_offset 14, -4
 6776 0002 82B0     		sub	sp, sp, #8
 6777              		.cfi_def_cfa_offset 16
 6778 0004 00AF     		add	r7, sp, #0
 6779              		.cfi_def_cfa_register 7
 6780 0006 7860     		str	r0, [r7, #4]
 6781 0008 3960     		str	r1, [r7]
 6782              	.LBB31:
 589:/Library/DaisyToolchain/0.2.0/arm/arm-none-eabi/include/c++/10.3.1/bits/std_function.h ****     {
 6783              		.loc 3 589 22
 6784 000a 7B68     		ldr	r3, [r7, #4]
 6785 000c 1846     		mov	r0, r3
 6786 000e FFF7FEFF 		bl	_ZNSt14_Function_baseC2Ev
 591:/Library/DaisyToolchain/0.2.0/arm/arm-none-eabi/include/c++/10.3.1/bits/std_function.h **** 	{
 6787              		.loc 3 591 11
 6788 0012 3868     		ldr	r0, [r7]
 6789 0014 FFF7FEFF 		bl	_ZNKSt8functionIFvfEEcvbEv
 6790 0018 0346     		mov	r3, r0
 591:/Library/DaisyToolchain/0.2.0/arm/arm-none-eabi/include/c++/10.3.1/bits/std_function.h **** 	{
 6791              		.loc 3 591 7
 6792 001a 002B     		cmp	r3, #0
 6793 001c 0DD0     		beq	.L272
 593:/Library/DaisyToolchain/0.2.0/arm/arm-none-eabi/include/c++/10.3.1/bits/std_function.h **** 	  _M_invoker = __x._M_invoker;
 6794              		.loc 3 593 8
 6795 001e 3B68     		ldr	r3, [r7]
 6796 0020 9B68     		ldr	r3, [r3, #8]
 593:/Library/DaisyToolchain/0.2.0/arm/arm-none-eabi/include/c++/10.3.1/bits/std_function.h **** 	  _M_invoker = __x._M_invoker;
 6797              		.loc 3 593 19
 6798 0022 7868     		ldr	r0, [r7, #4]
 593:/Library/DaisyToolchain/0.2.0/arm/arm-none-eabi/include/c++/10.3.1/bits/std_function.h **** 	  _M_invoker = __x._M_invoker;
 6799              		.loc 3 593 35
 6800 0024 3968     		ldr	r1, [r7]
 593:/Library/DaisyToolchain/0.2.0/arm/arm-none-eabi/include/c++/10.3.1/bits/std_function.h **** 	  _M_invoker = __x._M_invoker;
ARM GAS  /var/folders/wz/z09yph4n0qj4t7mjxhl6ttn80000gn/T//ccxdcdyF.s 			page 152


 6801              		.loc 3 593 8
 6802 0026 0222     		movs	r2, #2
 6803 0028 9847     		blx	r3
 6804              	.LVL2:
 594:/Library/DaisyToolchain/0.2.0/arm/arm-none-eabi/include/c++/10.3.1/bits/std_function.h **** 	  _M_manager = __x._M_manager;
 6805              		.loc 3 594 21
 6806 002a 3B68     		ldr	r3, [r7]
 6807 002c DA68     		ldr	r2, [r3, #12]
 594:/Library/DaisyToolchain/0.2.0/arm/arm-none-eabi/include/c++/10.3.1/bits/std_function.h **** 	  _M_manager = __x._M_manager;
 6808              		.loc 3 594 15
 6809 002e 7B68     		ldr	r3, [r7, #4]
 6810 0030 DA60     		str	r2, [r3, #12]
 595:/Library/DaisyToolchain/0.2.0/arm/arm-none-eabi/include/c++/10.3.1/bits/std_function.h **** 	}
 6811              		.loc 3 595 21
 6812 0032 3B68     		ldr	r3, [r7]
 6813 0034 9A68     		ldr	r2, [r3, #8]
 595:/Library/DaisyToolchain/0.2.0/arm/arm-none-eabi/include/c++/10.3.1/bits/std_function.h **** 	}
 6814              		.loc 3 595 15
 6815 0036 7B68     		ldr	r3, [r7, #4]
 6816 0038 9A60     		str	r2, [r3, #8]
 6817              	.L272:
 6818              	.LBE31:
 597:/Library/DaisyToolchain/0.2.0/arm/arm-none-eabi/include/c++/10.3.1/bits/std_function.h **** 
 6819              		.loc 3 597 5
 6820 003a 7B68     		ldr	r3, [r7, #4]
 6821 003c 1846     		mov	r0, r3
 6822 003e 0837     		adds	r7, r7, #8
 6823              		.cfi_def_cfa_offset 8
 6824 0040 BD46     		mov	sp, r7
 6825              		.cfi_def_cfa_register 13
 6826              		@ sp needed
 6827 0042 80BD     		pop	{r7, pc}
 6828              		.cfi_endproc
 6829              	.LFE6276:
 6831              		.weak	_ZNSt8functionIFvfEEC1ERKS1_
 6832              		.thumb_set _ZNSt8functionIFvfEEC1ERKS1_,_ZNSt8functionIFvfEEC2ERKS1_
 6833              		.section	.text._ZNSt14_Function_base13_Base_managerIZN5Mixer11initTrackIOEPN5daisy9DaisySeedE7Trac
 6834              		.align	1
 6835              		.syntax unified
 6836              		.thumb
 6837              		.thumb_func
 6839              	_ZNSt14_Function_base13_Base_managerIZN5Mixer11initTrackIOEPN5daisy9DaisySeedE7TrackIOS5_S5_S5_EUlf
 6840              	.LFB6278:
 232:/Library/DaisyToolchain/0.2.0/arm/arm-none-eabi/include/c++/10.3.1/bits/std_function.h **** 	{ ::new (__functor._M_access()) _Functor(std::move(__f)); }
 6841              		.loc 3 232 2
 6842              		.cfi_startproc
 6843              		@ args = 0, pretend = 0, frame = 16
 6844              		@ frame_needed = 1, uses_anonymous_args = 0
 6845 0000 90B5     		push	{r4, r7, lr}
 6846              		.cfi_def_cfa_offset 12
 6847              		.cfi_offset 4, -12
 6848              		.cfi_offset 7, -8
 6849              		.cfi_offset 14, -4
 6850 0002 85B0     		sub	sp, sp, #20
 6851              		.cfi_def_cfa_offset 32
 6852 0004 00AF     		add	r7, sp, #0
 6853              		.cfi_def_cfa_register 7
ARM GAS  /var/folders/wz/z09yph4n0qj4t7mjxhl6ttn80000gn/T//ccxdcdyF.s 			page 153


 6854 0006 F860     		str	r0, [r7, #12]
 6855 0008 B960     		str	r1, [r7, #8]
 6856 000a 3A71     		strb	r2, [r7, #4]
 233:/Library/DaisyToolchain/0.2.0/arm/arm-none-eabi/include/c++/10.3.1/bits/std_function.h **** 
 6857              		.loc 3 233 52
 6858 000c B868     		ldr	r0, [r7, #8]
 6859 000e FFF7FEFF 		bl	_ZSt4moveIRZN5Mixer11initTrackIOEPN5daisy9DaisySeedE7TrackIOS4_S4_S4_EUlfE_EONSt16remove_refere
 6860 0012 0446     		mov	r4, r0
 233:/Library/DaisyToolchain/0.2.0/arm/arm-none-eabi/include/c++/10.3.1/bits/std_function.h **** 
 6861              		.loc 3 233 30
 6862 0014 F868     		ldr	r0, [r7, #12]
 6863 0016 FFF7FEFF 		bl	_ZNSt9_Any_data9_M_accessEv
 6864 001a 0346     		mov	r3, r0
 233:/Library/DaisyToolchain/0.2.0/arm/arm-none-eabi/include/c++/10.3.1/bits/std_function.h **** 
 6865              		.loc 3 233 4
 6866 001c 1946     		mov	r1, r3
 6867 001e 0420     		movs	r0, #4
 6868 0020 FFF7FEFF 		bl	_ZnwjPv
 6869 0024 0246     		mov	r2, r0
 6870 0026 2368     		ldr	r3, [r4]
 6871 0028 1360     		str	r3, [r2]
 233:/Library/DaisyToolchain/0.2.0/arm/arm-none-eabi/include/c++/10.3.1/bits/std_function.h **** 
 6872              		.loc 3 233 60
 6873 002a 00BF     		nop
 6874 002c 1437     		adds	r7, r7, #20
 6875              		.cfi_def_cfa_offset 12
 6876 002e BD46     		mov	sp, r7
 6877              		.cfi_def_cfa_register 13
 6878              		@ sp needed
 6879 0030 90BD     		pop	{r4, r7, pc}
 6880              		.cfi_endproc
 6881              	.LFE6278:
 6883              		.section	.text._ZNSt14_Function_base13_Base_managerIZN5Mixer11initTrackIOEPN5daisy9DaisySeedE7Trac
 6884              		.align	1
 6885              		.syntax unified
 6886              		.thumb
 6887              		.thumb_func
 6889              	_ZNSt14_Function_base13_Base_managerIZN5Mixer11initTrackIOEPN5daisy9DaisySeedE7TrackIOS5_S5_S5_EUlf
 6890              	.LFB6279:
 136:/Library/DaisyToolchain/0.2.0/arm/arm-none-eabi/include/c++/10.3.1/bits/std_function.h **** 	{
 6891              		.loc 3 136 2
 6892              		.cfi_startproc
 6893              		@ args = 0, pretend = 0, frame = 16
 6894              		@ frame_needed = 1, uses_anonymous_args = 0
 6895 0000 80B5     		push	{r7, lr}
 6896              		.cfi_def_cfa_offset 8
 6897              		.cfi_offset 7, -8
 6898              		.cfi_offset 14, -4
 6899 0002 84B0     		sub	sp, sp, #16
 6900              		.cfi_def_cfa_offset 24
 6901 0004 00AF     		add	r7, sp, #0
 6902              		.cfi_def_cfa_register 7
 6903 0006 7860     		str	r0, [r7, #4]
 6904              	.LBB32:
 6905              	.LBB33:
 140:/Library/DaisyToolchain/0.2.0/arm/arm-none-eabi/include/c++/10.3.1/bits/std_function.h **** 	      return const_cast<_Functor*>(std::__addressof(__f));
 6906              		.loc 3 140 58
ARM GAS  /var/folders/wz/z09yph4n0qj4t7mjxhl6ttn80000gn/T//ccxdcdyF.s 			page 154


 6907 0008 7868     		ldr	r0, [r7, #4]
 6908 000a FFF7FEFF 		bl	_ZNKSt9_Any_data9_M_accessIZN5Mixer11initTrackIOEPN5daisy9DaisySeedE7TrackIOS5_S5_S5_EUlfE_EERK
 6909 000e F860     		str	r0, [r7, #12]
 141:/Library/DaisyToolchain/0.2.0/arm/arm-none-eabi/include/c++/10.3.1/bits/std_function.h **** 	    }
 6910              		.loc 3 141 53
 6911 0010 F868     		ldr	r0, [r7, #12]
 6912 0012 FFF7FEFF 		bl	_ZSt11__addressofIKZN5Mixer11initTrackIOEPN5daisy9DaisySeedE7TrackIOS4_S4_S4_EUlfE_EPT_RS7_
 6913 0016 0346     		mov	r3, r0
 141:/Library/DaisyToolchain/0.2.0/arm/arm-none-eabi/include/c++/10.3.1/bits/std_function.h **** 	    }
 6914              		.loc 3 141 58
 6915 0018 00BF     		nop
 6916              	.LBE33:
 6917              	.LBE32:
 145:/Library/DaisyToolchain/0.2.0/arm/arm-none-eabi/include/c++/10.3.1/bits/std_function.h **** 
 6918              		.loc 3 145 2
 6919 001a 1846     		mov	r0, r3
 6920 001c 1037     		adds	r7, r7, #16
 6921              		.cfi_def_cfa_offset 8
 6922 001e BD46     		mov	sp, r7
 6923              		.cfi_def_cfa_register 13
 6924              		@ sp needed
 6925 0020 80BD     		pop	{r7, pc}
 6926              		.cfi_endproc
 6927              	.LFE6279:
 6929              		.section	.text._ZSt10__invoke_rIvRZN5Mixer11initTrackIOEPN5daisy9DaisySeedE7TrackIOS4_S4_S4_EUlfE_
 6930              		.align	1
 6931              		.syntax unified
 6932              		.thumb
 6933              		.thumb_func
 6935              	_ZSt10__invoke_rIvRZN5Mixer11initTrackIOEPN5daisy9DaisySeedE7TrackIOS4_S4_S4_EUlfE_JfEENSt9enable_i
 6936              	.LFB6280:
 148:/Library/DaisyToolchain/0.2.0/arm/arm-none-eabi/include/c++/10.3.1/bits/invoke.h ****     {
 6937              		.loc 9 148 5
 6938              		.cfi_startproc
 6939              		@ args = 0, pretend = 0, frame = 8
 6940              		@ frame_needed = 1, uses_anonymous_args = 0
 6941 0000 B0B5     		push	{r4, r5, r7, lr}
 6942              		.cfi_def_cfa_offset 16
 6943              		.cfi_offset 4, -16
 6944              		.cfi_offset 5, -12
 6945              		.cfi_offset 7, -8
 6946              		.cfi_offset 14, -4
 6947 0002 82B0     		sub	sp, sp, #8
 6948              		.cfi_def_cfa_offset 24
 6949 0004 00AF     		add	r7, sp, #0
 6950              		.cfi_def_cfa_register 7
 6951 0006 7860     		str	r0, [r7, #4]
 6952 0008 3960     		str	r1, [r7]
 153:/Library/DaisyToolchain/0.2.0/arm/arm-none-eabi/include/c++/10.3.1/bits/invoke.h **** 				 std::forward<_Args>(__args)...);
 6953              		.loc 9 153 33
 6954 000a 7868     		ldr	r0, [r7, #4]
 6955 000c FFF7FEFF 		bl	_ZSt7forwardIRZN5Mixer11initTrackIOEPN5daisy9DaisySeedE7TrackIOS4_S4_S4_EUlfE_EOT_RNSt16remove_
 6956 0010 0446     		mov	r4, r0
 6957 0012 3868     		ldr	r0, [r7]
 6958 0014 FFF7FEFF 		bl	_ZSt7forwardIfEOT_RNSt16remove_referenceIS0_E4typeE
 6959 0018 0346     		mov	r3, r0
 6960 001a 1A46     		mov	r2, r3
ARM GAS  /var/folders/wz/z09yph4n0qj4t7mjxhl6ttn80000gn/T//ccxdcdyF.s 			page 155


 6961 001c 2146     		mov	r1, r4
 6962 001e 2846     		mov	r0, r5
 6963 0020 FFF7FEFF 		bl	_ZSt13__invoke_implIvRZN5Mixer11initTrackIOEPN5daisy9DaisySeedE7TrackIOS4_S4_S4_EUlfE_JfEET_St1
 6964              		.loc 9 155 5
 6965 0024 00BF     		nop
 6966 0026 0837     		adds	r7, r7, #8
 6967              		.cfi_def_cfa_offset 16
 6968 0028 BD46     		mov	sp, r7
 6969              		.cfi_def_cfa_register 13
 6970              		@ sp needed
 6971 002a B0BD     		pop	{r4, r5, r7, pc}
 6972              		.cfi_endproc
 6973              	.LFE6280:
 6975              		.section	.text._ZNSt9_Any_data9_M_accessIPZN5Mixer11initTrackIOEPN5daisy9DaisySeedE7TrackIOS5_S5_S
 6976              		.align	1
 6977              		.syntax unified
 6978              		.thumb
 6979              		.thumb_func
 6981              	_ZNSt9_Any_data9_M_accessIPZN5Mixer11initTrackIOEPN5daisy9DaisySeedE7TrackIOS5_S5_S5_EUlfE_EERT_v:
 6982              	.LFB6281:
  92:/Library/DaisyToolchain/0.2.0/arm/arm-none-eabi/include/c++/10.3.1/bits/std_function.h ****       { return *static_cast<_Tp*>(_M_access()); }
 6983              		.loc 3 92 7
 6984              		.cfi_startproc
 6985              		@ args = 0, pretend = 0, frame = 8
 6986              		@ frame_needed = 1, uses_anonymous_args = 0
 6987 0000 80B5     		push	{r7, lr}
 6988              		.cfi_def_cfa_offset 8
 6989              		.cfi_offset 7, -8
 6990              		.cfi_offset 14, -4
 6991 0002 82B0     		sub	sp, sp, #8
 6992              		.cfi_def_cfa_offset 16
 6993 0004 00AF     		add	r7, sp, #0
 6994              		.cfi_def_cfa_register 7
 6995 0006 7860     		str	r0, [r7, #4]
  93:/Library/DaisyToolchain/0.2.0/arm/arm-none-eabi/include/c++/10.3.1/bits/std_function.h **** 
 6996              		.loc 3 93 44
 6997 0008 7868     		ldr	r0, [r7, #4]
 6998 000a FFF7FEFF 		bl	_ZNSt9_Any_data9_M_accessEv
 6999 000e 0346     		mov	r3, r0
  93:/Library/DaisyToolchain/0.2.0/arm/arm-none-eabi/include/c++/10.3.1/bits/std_function.h **** 
 7000              		.loc 3 93 49
 7001 0010 1846     		mov	r0, r3
 7002 0012 0837     		adds	r7, r7, #8
 7003              		.cfi_def_cfa_offset 8
 7004 0014 BD46     		mov	sp, r7
 7005              		.cfi_def_cfa_register 13
 7006              		@ sp needed
 7007 0016 80BD     		pop	{r7, pc}
 7008              		.cfi_endproc
 7009              	.LFE6281:
 7011              		.section	.text._ZNSt14_Function_base13_Base_managerIZN5Mixer11initTrackIOEPN5daisy9DaisySeedE7Trac
 7012              		.align	1
 7013              		.syntax unified
 7014              		.thumb
 7015              		.thumb_func
 7017              	_ZNSt14_Function_base13_Base_managerIZN5Mixer11initTrackIOEPN5daisy9DaisySeedE7TrackIOS5_S5_S5_EUlf
 7018              	.LFB6282:
ARM GAS  /var/folders/wz/z09yph4n0qj4t7mjxhl6ttn80000gn/T//ccxdcdyF.s 			page 156


 181:/Library/DaisyToolchain/0.2.0/arm/arm-none-eabi/include/c++/10.3.1/bits/std_function.h **** 		   _Manager_operation __op)
 7019              		.loc 3 181 2
 7020              		.cfi_startproc
 7021              		@ args = 0, pretend = 0, frame = 16
 7022              		@ frame_needed = 1, uses_anonymous_args = 0
 7023 0000 B0B5     		push	{r4, r5, r7, lr}
 7024              		.cfi_def_cfa_offset 16
 7025              		.cfi_offset 4, -16
 7026              		.cfi_offset 5, -12
 7027              		.cfi_offset 7, -8
 7028              		.cfi_offset 14, -4
 7029 0002 84B0     		sub	sp, sp, #16
 7030              		.cfi_def_cfa_offset 32
 7031 0004 00AF     		add	r7, sp, #0
 7032              		.cfi_def_cfa_register 7
 7033 0006 F860     		str	r0, [r7, #12]
 7034 0008 B960     		str	r1, [r7, #8]
 7035 000a 1346     		mov	r3, r2
 7036 000c FB71     		strb	r3, [r7, #7]
 184:/Library/DaisyToolchain/0.2.0/arm/arm-none-eabi/include/c++/10.3.1/bits/std_function.h **** 	    {
 7037              		.loc 3 184 12
 7038 000e FB79     		ldrb	r3, [r7, #7]	@ zero_extendqisi2
 184:/Library/DaisyToolchain/0.2.0/arm/arm-none-eabi/include/c++/10.3.1/bits/std_function.h **** 	    {
 7039              		.loc 3 184 4
 7040 0010 032B     		cmp	r3, #3
 7041 0012 16D0     		beq	.L281
 7042 0014 032B     		cmp	r3, #3
 7043 0016 19DC     		bgt	.L282
 7044 0018 012B     		cmp	r3, #1
 7045 001a 02D0     		beq	.L283
 7046 001c 022B     		cmp	r3, #2
 7047 001e 0AD0     		beq	.L284
 7048 0020 14E0     		b	.L282
 7049              	.L283:
 192:/Library/DaisyToolchain/0.2.0/arm/arm-none-eabi/include/c++/10.3.1/bits/std_function.h **** 	      break;
 7050              		.loc 3 192 35
 7051 0022 F868     		ldr	r0, [r7, #12]
 7052 0024 FFF7FEFF 		bl	_ZNSt9_Any_data9_M_accessIPZN5Mixer11initTrackIOEPN5daisy9DaisySeedE7TrackIOS5_S5_S5_EUlfE_EERT
 7053 0028 0446     		mov	r4, r0
 192:/Library/DaisyToolchain/0.2.0/arm/arm-none-eabi/include/c++/10.3.1/bits/std_function.h **** 	      break;
 7054              		.loc 3 192 54
 7055 002a B868     		ldr	r0, [r7, #8]
 7056 002c FFF7FEFF 		bl	_ZNSt14_Function_base13_Base_managerIZN5Mixer11initTrackIOEPN5daisy9DaisySeedE7TrackIOS5_S5_S5_
 7057 0030 0346     		mov	r3, r0
 192:/Library/DaisyToolchain/0.2.0/arm/arm-none-eabi/include/c++/10.3.1/bits/std_function.h **** 	      break;
 7058              		.loc 3 192 38
 7059 0032 2360     		str	r3, [r4]
 193:/Library/DaisyToolchain/0.2.0/arm/arm-none-eabi/include/c++/10.3.1/bits/std_function.h **** 
 7060              		.loc 3 193 8
 7061 0034 0AE0     		b	.L282
 7062              	.L284:
 196:/Library/DaisyToolchain/0.2.0/arm/arm-none-eabi/include/c++/10.3.1/bits/std_function.h **** 	      break;
 7063              		.loc 3 196 16
 7064 0036 2A46     		mov	r2, r5
 7065 0038 B968     		ldr	r1, [r7, #8]
 7066 003a F868     		ldr	r0, [r7, #12]
 7067 003c FFF7FEFF 		bl	_ZNSt14_Function_base13_Base_managerIZN5Mixer11initTrackIOEPN5daisy9DaisySeedE7TrackIOS5_S5_S5_
ARM GAS  /var/folders/wz/z09yph4n0qj4t7mjxhl6ttn80000gn/T//ccxdcdyF.s 			page 157


 197:/Library/DaisyToolchain/0.2.0/arm/arm-none-eabi/include/c++/10.3.1/bits/std_function.h **** 
 7068              		.loc 3 197 8
 7069 0040 04E0     		b	.L282
 7070              	.L281:
 200:/Library/DaisyToolchain/0.2.0/arm/arm-none-eabi/include/c++/10.3.1/bits/std_function.h **** 	      break;
 7071              		.loc 3 200 18
 7072 0042 2146     		mov	r1, r4
 7073 0044 F868     		ldr	r0, [r7, #12]
 7074 0046 FFF7FEFF 		bl	_ZNSt14_Function_base13_Base_managerIZN5Mixer11initTrackIOEPN5daisy9DaisySeedE7TrackIOS5_S5_S5_
 201:/Library/DaisyToolchain/0.2.0/arm/arm-none-eabi/include/c++/10.3.1/bits/std_function.h **** 	    }
 7075              		.loc 3 201 8
 7076 004a 00BF     		nop
 7077              	.L282:
 203:/Library/DaisyToolchain/0.2.0/arm/arm-none-eabi/include/c++/10.3.1/bits/std_function.h **** 	}
 7078              		.loc 3 203 11
 7079 004c 0023     		movs	r3, #0
 204:/Library/DaisyToolchain/0.2.0/arm/arm-none-eabi/include/c++/10.3.1/bits/std_function.h **** 
 7080              		.loc 3 204 2
 7081 004e 1846     		mov	r0, r3
 7082 0050 1037     		adds	r7, r7, #16
 7083              		.cfi_def_cfa_offset 16
 7084 0052 BD46     		mov	sp, r7
 7085              		.cfi_def_cfa_register 13
 7086              		@ sp needed
 7087 0054 B0BD     		pop	{r4, r5, r7, pc}
 7088              		.cfi_endproc
 7089              	.LFE6282:
 7091              		.section	.text._ZNSt14_Function_base13_Base_managerIZN5Mixer11initTrackIOEPN5daisy9DaisySeedE7Trac
 7092              		.align	1
 7093              		.syntax unified
 7094              		.thumb
 7095              		.thumb_func
 7097              	_ZNSt14_Function_base13_Base_managerIZN5Mixer11initTrackIOEPN5daisy9DaisySeedE7TrackIOS5_S5_S5_EUlf
 7098              	.LFB6283:
 232:/Library/DaisyToolchain/0.2.0/arm/arm-none-eabi/include/c++/10.3.1/bits/std_function.h **** 	{ ::new (__functor._M_access()) _Functor(std::move(__f)); }
 7099              		.loc 3 232 2
 7100              		.cfi_startproc
 7101              		@ args = 0, pretend = 0, frame = 16
 7102              		@ frame_needed = 1, uses_anonymous_args = 0
 7103 0000 90B5     		push	{r4, r7, lr}
 7104              		.cfi_def_cfa_offset 12
 7105              		.cfi_offset 4, -12
 7106              		.cfi_offset 7, -8
 7107              		.cfi_offset 14, -4
 7108 0002 85B0     		sub	sp, sp, #20
 7109              		.cfi_def_cfa_offset 32
 7110 0004 00AF     		add	r7, sp, #0
 7111              		.cfi_def_cfa_register 7
 7112 0006 F860     		str	r0, [r7, #12]
 7113 0008 B960     		str	r1, [r7, #8]
 7114 000a 3A71     		strb	r2, [r7, #4]
 233:/Library/DaisyToolchain/0.2.0/arm/arm-none-eabi/include/c++/10.3.1/bits/std_function.h **** 
 7115              		.loc 3 233 52
 7116 000c B868     		ldr	r0, [r7, #8]
 7117 000e FFF7FEFF 		bl	_ZSt4moveIRZN5Mixer11initTrackIOEPN5daisy9DaisySeedE7TrackIOS4_S4_S4_EUlfE0_EONSt16remove_refer
 7118 0012 0446     		mov	r4, r0
 233:/Library/DaisyToolchain/0.2.0/arm/arm-none-eabi/include/c++/10.3.1/bits/std_function.h **** 
ARM GAS  /var/folders/wz/z09yph4n0qj4t7mjxhl6ttn80000gn/T//ccxdcdyF.s 			page 158


 7119              		.loc 3 233 30
 7120 0014 F868     		ldr	r0, [r7, #12]
 7121 0016 FFF7FEFF 		bl	_ZNSt9_Any_data9_M_accessEv
 7122 001a 0346     		mov	r3, r0
 233:/Library/DaisyToolchain/0.2.0/arm/arm-none-eabi/include/c++/10.3.1/bits/std_function.h **** 
 7123              		.loc 3 233 4
 7124 001c 1946     		mov	r1, r3
 7125 001e 0420     		movs	r0, #4
 7126 0020 FFF7FEFF 		bl	_ZnwjPv
 7127 0024 0246     		mov	r2, r0
 7128 0026 2368     		ldr	r3, [r4]
 7129 0028 1360     		str	r3, [r2]
 233:/Library/DaisyToolchain/0.2.0/arm/arm-none-eabi/include/c++/10.3.1/bits/std_function.h **** 
 7130              		.loc 3 233 60
 7131 002a 00BF     		nop
 7132 002c 1437     		adds	r7, r7, #20
 7133              		.cfi_def_cfa_offset 12
 7134 002e BD46     		mov	sp, r7
 7135              		.cfi_def_cfa_register 13
 7136              		@ sp needed
 7137 0030 90BD     		pop	{r4, r7, pc}
 7138              		.cfi_endproc
 7139              	.LFE6283:
 7141              		.section	.text._ZNSt14_Function_base13_Base_managerIZN5Mixer11initTrackIOEPN5daisy9DaisySeedE7Trac
 7142              		.align	1
 7143              		.syntax unified
 7144              		.thumb
 7145              		.thumb_func
 7147              	_ZNSt14_Function_base13_Base_managerIZN5Mixer11initTrackIOEPN5daisy9DaisySeedE7TrackIOS5_S5_S5_EUlf
 7148              	.LFB6284:
 136:/Library/DaisyToolchain/0.2.0/arm/arm-none-eabi/include/c++/10.3.1/bits/std_function.h **** 	{
 7149              		.loc 3 136 2
 7150              		.cfi_startproc
 7151              		@ args = 0, pretend = 0, frame = 16
 7152              		@ frame_needed = 1, uses_anonymous_args = 0
 7153 0000 80B5     		push	{r7, lr}
 7154              		.cfi_def_cfa_offset 8
 7155              		.cfi_offset 7, -8
 7156              		.cfi_offset 14, -4
 7157 0002 84B0     		sub	sp, sp, #16
 7158              		.cfi_def_cfa_offset 24
 7159 0004 00AF     		add	r7, sp, #0
 7160              		.cfi_def_cfa_register 7
 7161 0006 7860     		str	r0, [r7, #4]
 7162              	.LBB34:
 7163              	.LBB35:
 140:/Library/DaisyToolchain/0.2.0/arm/arm-none-eabi/include/c++/10.3.1/bits/std_function.h **** 	      return const_cast<_Functor*>(std::__addressof(__f));
 7164              		.loc 3 140 58
 7165 0008 7868     		ldr	r0, [r7, #4]
 7166 000a FFF7FEFF 		bl	_ZNKSt9_Any_data9_M_accessIZN5Mixer11initTrackIOEPN5daisy9DaisySeedE7TrackIOS5_S5_S5_EUlfE0_EER
 7167 000e F860     		str	r0, [r7, #12]
 141:/Library/DaisyToolchain/0.2.0/arm/arm-none-eabi/include/c++/10.3.1/bits/std_function.h **** 	    }
 7168              		.loc 3 141 53
 7169 0010 F868     		ldr	r0, [r7, #12]
 7170 0012 FFF7FEFF 		bl	_ZSt11__addressofIKZN5Mixer11initTrackIOEPN5daisy9DaisySeedE7TrackIOS4_S4_S4_EUlfE0_EPT_RS7_
 7171 0016 0346     		mov	r3, r0
 141:/Library/DaisyToolchain/0.2.0/arm/arm-none-eabi/include/c++/10.3.1/bits/std_function.h **** 	    }
ARM GAS  /var/folders/wz/z09yph4n0qj4t7mjxhl6ttn80000gn/T//ccxdcdyF.s 			page 159


 7172              		.loc 3 141 58
 7173 0018 00BF     		nop
 7174              	.LBE35:
 7175              	.LBE34:
 145:/Library/DaisyToolchain/0.2.0/arm/arm-none-eabi/include/c++/10.3.1/bits/std_function.h **** 
 7176              		.loc 3 145 2
 7177 001a 1846     		mov	r0, r3
 7178 001c 1037     		adds	r7, r7, #16
 7179              		.cfi_def_cfa_offset 8
 7180 001e BD46     		mov	sp, r7
 7181              		.cfi_def_cfa_register 13
 7182              		@ sp needed
 7183 0020 80BD     		pop	{r7, pc}
 7184              		.cfi_endproc
 7185              	.LFE6284:
 7187              		.section	.text._ZSt10__invoke_rIvRZN5Mixer11initTrackIOEPN5daisy9DaisySeedE7TrackIOS4_S4_S4_EUlfE0
 7188              		.align	1
 7189              		.syntax unified
 7190              		.thumb
 7191              		.thumb_func
 7193              	_ZSt10__invoke_rIvRZN5Mixer11initTrackIOEPN5daisy9DaisySeedE7TrackIOS4_S4_S4_EUlfE0_JfEENSt9enable_
 7194              	.LFB6285:
 148:/Library/DaisyToolchain/0.2.0/arm/arm-none-eabi/include/c++/10.3.1/bits/invoke.h ****     {
 7195              		.loc 9 148 5
 7196              		.cfi_startproc
 7197              		@ args = 0, pretend = 0, frame = 8
 7198              		@ frame_needed = 1, uses_anonymous_args = 0
 7199 0000 B0B5     		push	{r4, r5, r7, lr}
 7200              		.cfi_def_cfa_offset 16
 7201              		.cfi_offset 4, -16
 7202              		.cfi_offset 5, -12
 7203              		.cfi_offset 7, -8
 7204              		.cfi_offset 14, -4
 7205 0002 82B0     		sub	sp, sp, #8
 7206              		.cfi_def_cfa_offset 24
 7207 0004 00AF     		add	r7, sp, #0
 7208              		.cfi_def_cfa_register 7
 7209 0006 7860     		str	r0, [r7, #4]
 7210 0008 3960     		str	r1, [r7]
 153:/Library/DaisyToolchain/0.2.0/arm/arm-none-eabi/include/c++/10.3.1/bits/invoke.h **** 				 std::forward<_Args>(__args)...);
 7211              		.loc 9 153 33
 7212 000a 7868     		ldr	r0, [r7, #4]
 7213 000c FFF7FEFF 		bl	_ZSt7forwardIRZN5Mixer11initTrackIOEPN5daisy9DaisySeedE7TrackIOS4_S4_S4_EUlfE0_EOT_RNSt16remove
 7214 0010 0446     		mov	r4, r0
 7215 0012 3868     		ldr	r0, [r7]
 7216 0014 FFF7FEFF 		bl	_ZSt7forwardIfEOT_RNSt16remove_referenceIS0_E4typeE
 7217 0018 0346     		mov	r3, r0
 7218 001a 1A46     		mov	r2, r3
 7219 001c 2146     		mov	r1, r4
 7220 001e 2846     		mov	r0, r5
 7221 0020 FFF7FEFF 		bl	_ZSt13__invoke_implIvRZN5Mixer11initTrackIOEPN5daisy9DaisySeedE7TrackIOS4_S4_S4_EUlfE0_JfEET_St
 7222              		.loc 9 155 5
 7223 0024 00BF     		nop
 7224 0026 0837     		adds	r7, r7, #8
 7225              		.cfi_def_cfa_offset 16
 7226 0028 BD46     		mov	sp, r7
 7227              		.cfi_def_cfa_register 13
ARM GAS  /var/folders/wz/z09yph4n0qj4t7mjxhl6ttn80000gn/T//ccxdcdyF.s 			page 160


 7228              		@ sp needed
 7229 002a B0BD     		pop	{r4, r5, r7, pc}
 7230              		.cfi_endproc
 7231              	.LFE6285:
 7233              		.section	.text._ZNSt9_Any_data9_M_accessIPZN5Mixer11initTrackIOEPN5daisy9DaisySeedE7TrackIOS5_S5_S
 7234              		.align	1
 7235              		.syntax unified
 7236              		.thumb
 7237              		.thumb_func
 7239              	_ZNSt9_Any_data9_M_accessIPZN5Mixer11initTrackIOEPN5daisy9DaisySeedE7TrackIOS5_S5_S5_EUlfE0_EERT_v:
 7240              	.LFB6286:
  92:/Library/DaisyToolchain/0.2.0/arm/arm-none-eabi/include/c++/10.3.1/bits/std_function.h ****       { return *static_cast<_Tp*>(_M_access()); }
 7241              		.loc 3 92 7
 7242              		.cfi_startproc
 7243              		@ args = 0, pretend = 0, frame = 8
 7244              		@ frame_needed = 1, uses_anonymous_args = 0
 7245 0000 80B5     		push	{r7, lr}
 7246              		.cfi_def_cfa_offset 8
 7247              		.cfi_offset 7, -8
 7248              		.cfi_offset 14, -4
 7249 0002 82B0     		sub	sp, sp, #8
 7250              		.cfi_def_cfa_offset 16
 7251 0004 00AF     		add	r7, sp, #0
 7252              		.cfi_def_cfa_register 7
 7253 0006 7860     		str	r0, [r7, #4]
  93:/Library/DaisyToolchain/0.2.0/arm/arm-none-eabi/include/c++/10.3.1/bits/std_function.h **** 
 7254              		.loc 3 93 44
 7255 0008 7868     		ldr	r0, [r7, #4]
 7256 000a FFF7FEFF 		bl	_ZNSt9_Any_data9_M_accessEv
 7257 000e 0346     		mov	r3, r0
  93:/Library/DaisyToolchain/0.2.0/arm/arm-none-eabi/include/c++/10.3.1/bits/std_function.h **** 
 7258              		.loc 3 93 49
 7259 0010 1846     		mov	r0, r3
 7260 0012 0837     		adds	r7, r7, #8
 7261              		.cfi_def_cfa_offset 8
 7262 0014 BD46     		mov	sp, r7
 7263              		.cfi_def_cfa_register 13
 7264              		@ sp needed
 7265 0016 80BD     		pop	{r7, pc}
 7266              		.cfi_endproc
 7267              	.LFE6286:
 7269              		.section	.text._ZNSt14_Function_base13_Base_managerIZN5Mixer11initTrackIOEPN5daisy9DaisySeedE7Trac
 7270              		.align	1
 7271              		.syntax unified
 7272              		.thumb
 7273              		.thumb_func
 7275              	_ZNSt14_Function_base13_Base_managerIZN5Mixer11initTrackIOEPN5daisy9DaisySeedE7TrackIOS5_S5_S5_EUlf
 7276              	.LFB6287:
 181:/Library/DaisyToolchain/0.2.0/arm/arm-none-eabi/include/c++/10.3.1/bits/std_function.h **** 		   _Manager_operation __op)
 7277              		.loc 3 181 2
 7278              		.cfi_startproc
 7279              		@ args = 0, pretend = 0, frame = 16
 7280              		@ frame_needed = 1, uses_anonymous_args = 0
 7281 0000 B0B5     		push	{r4, r5, r7, lr}
 7282              		.cfi_def_cfa_offset 16
 7283              		.cfi_offset 4, -16
 7284              		.cfi_offset 5, -12
ARM GAS  /var/folders/wz/z09yph4n0qj4t7mjxhl6ttn80000gn/T//ccxdcdyF.s 			page 161


 7285              		.cfi_offset 7, -8
 7286              		.cfi_offset 14, -4
 7287 0002 84B0     		sub	sp, sp, #16
 7288              		.cfi_def_cfa_offset 32
 7289 0004 00AF     		add	r7, sp, #0
 7290              		.cfi_def_cfa_register 7
 7291 0006 F860     		str	r0, [r7, #12]
 7292 0008 B960     		str	r1, [r7, #8]
 7293 000a 1346     		mov	r3, r2
 7294 000c FB71     		strb	r3, [r7, #7]
 184:/Library/DaisyToolchain/0.2.0/arm/arm-none-eabi/include/c++/10.3.1/bits/std_function.h **** 	    {
 7295              		.loc 3 184 12
 7296 000e FB79     		ldrb	r3, [r7, #7]	@ zero_extendqisi2
 184:/Library/DaisyToolchain/0.2.0/arm/arm-none-eabi/include/c++/10.3.1/bits/std_function.h **** 	    {
 7297              		.loc 3 184 4
 7298 0010 032B     		cmp	r3, #3
 7299 0012 16D0     		beq	.L293
 7300 0014 032B     		cmp	r3, #3
 7301 0016 19DC     		bgt	.L294
 7302 0018 012B     		cmp	r3, #1
 7303 001a 02D0     		beq	.L295
 7304 001c 022B     		cmp	r3, #2
 7305 001e 0AD0     		beq	.L296
 7306 0020 14E0     		b	.L294
 7307              	.L295:
 192:/Library/DaisyToolchain/0.2.0/arm/arm-none-eabi/include/c++/10.3.1/bits/std_function.h **** 	      break;
 7308              		.loc 3 192 35
 7309 0022 F868     		ldr	r0, [r7, #12]
 7310 0024 FFF7FEFF 		bl	_ZNSt9_Any_data9_M_accessIPZN5Mixer11initTrackIOEPN5daisy9DaisySeedE7TrackIOS5_S5_S5_EUlfE0_EER
 7311 0028 0446     		mov	r4, r0
 192:/Library/DaisyToolchain/0.2.0/arm/arm-none-eabi/include/c++/10.3.1/bits/std_function.h **** 	      break;
 7312              		.loc 3 192 54
 7313 002a B868     		ldr	r0, [r7, #8]
 7314 002c FFF7FEFF 		bl	_ZNSt14_Function_base13_Base_managerIZN5Mixer11initTrackIOEPN5daisy9DaisySeedE7TrackIOS5_S5_S5_
 7315 0030 0346     		mov	r3, r0
 192:/Library/DaisyToolchain/0.2.0/arm/arm-none-eabi/include/c++/10.3.1/bits/std_function.h **** 	      break;
 7316              		.loc 3 192 38
 7317 0032 2360     		str	r3, [r4]
 193:/Library/DaisyToolchain/0.2.0/arm/arm-none-eabi/include/c++/10.3.1/bits/std_function.h **** 
 7318              		.loc 3 193 8
 7319 0034 0AE0     		b	.L294
 7320              	.L296:
 196:/Library/DaisyToolchain/0.2.0/arm/arm-none-eabi/include/c++/10.3.1/bits/std_function.h **** 	      break;
 7321              		.loc 3 196 16
 7322 0036 2A46     		mov	r2, r5
 7323 0038 B968     		ldr	r1, [r7, #8]
 7324 003a F868     		ldr	r0, [r7, #12]
 7325 003c FFF7FEFF 		bl	_ZNSt14_Function_base13_Base_managerIZN5Mixer11initTrackIOEPN5daisy9DaisySeedE7TrackIOS5_S5_S5_
 197:/Library/DaisyToolchain/0.2.0/arm/arm-none-eabi/include/c++/10.3.1/bits/std_function.h **** 
 7326              		.loc 3 197 8
 7327 0040 04E0     		b	.L294
 7328              	.L293:
 200:/Library/DaisyToolchain/0.2.0/arm/arm-none-eabi/include/c++/10.3.1/bits/std_function.h **** 	      break;
 7329              		.loc 3 200 18
 7330 0042 2146     		mov	r1, r4
 7331 0044 F868     		ldr	r0, [r7, #12]
 7332 0046 FFF7FEFF 		bl	_ZNSt14_Function_base13_Base_managerIZN5Mixer11initTrackIOEPN5daisy9DaisySeedE7TrackIOS5_S5_S5_
ARM GAS  /var/folders/wz/z09yph4n0qj4t7mjxhl6ttn80000gn/T//ccxdcdyF.s 			page 162


 201:/Library/DaisyToolchain/0.2.0/arm/arm-none-eabi/include/c++/10.3.1/bits/std_function.h **** 	    }
 7333              		.loc 3 201 8
 7334 004a 00BF     		nop
 7335              	.L294:
 203:/Library/DaisyToolchain/0.2.0/arm/arm-none-eabi/include/c++/10.3.1/bits/std_function.h **** 	}
 7336              		.loc 3 203 11
 7337 004c 0023     		movs	r3, #0
 204:/Library/DaisyToolchain/0.2.0/arm/arm-none-eabi/include/c++/10.3.1/bits/std_function.h **** 
 7338              		.loc 3 204 2
 7339 004e 1846     		mov	r0, r3
 7340 0050 1037     		adds	r7, r7, #16
 7341              		.cfi_def_cfa_offset 16
 7342 0052 BD46     		mov	sp, r7
 7343              		.cfi_def_cfa_register 13
 7344              		@ sp needed
 7345 0054 B0BD     		pop	{r4, r5, r7, pc}
 7346              		.cfi_endproc
 7347              	.LFE6287:
 7349              		.section	.text._ZNSt14_Function_base13_Base_managerIZN5Mixer11initTrackIOEPN5daisy9DaisySeedE7Trac
 7350              		.align	1
 7351              		.syntax unified
 7352              		.thumb
 7353              		.thumb_func
 7355              	_ZNSt14_Function_base13_Base_managerIZN5Mixer11initTrackIOEPN5daisy9DaisySeedE7TrackIOS5_S5_S5_EUlf
 7356              	.LFB6288:
 232:/Library/DaisyToolchain/0.2.0/arm/arm-none-eabi/include/c++/10.3.1/bits/std_function.h **** 	{ ::new (__functor._M_access()) _Functor(std::move(__f)); }
 7357              		.loc 3 232 2
 7358              		.cfi_startproc
 7359              		@ args = 0, pretend = 0, frame = 16
 7360              		@ frame_needed = 1, uses_anonymous_args = 0
 7361 0000 90B5     		push	{r4, r7, lr}
 7362              		.cfi_def_cfa_offset 12
 7363              		.cfi_offset 4, -12
 7364              		.cfi_offset 7, -8
 7365              		.cfi_offset 14, -4
 7366 0002 85B0     		sub	sp, sp, #20
 7367              		.cfi_def_cfa_offset 32
 7368 0004 00AF     		add	r7, sp, #0
 7369              		.cfi_def_cfa_register 7
 7370 0006 F860     		str	r0, [r7, #12]
 7371 0008 B960     		str	r1, [r7, #8]
 7372 000a 3A71     		strb	r2, [r7, #4]
 233:/Library/DaisyToolchain/0.2.0/arm/arm-none-eabi/include/c++/10.3.1/bits/std_function.h **** 
 7373              		.loc 3 233 52
 7374 000c B868     		ldr	r0, [r7, #8]
 7375 000e FFF7FEFF 		bl	_ZSt4moveIRZN5Mixer11initTrackIOEPN5daisy9DaisySeedE7TrackIOS4_S4_S4_EUlfE1_EONSt16remove_refer
 7376 0012 0446     		mov	r4, r0
 233:/Library/DaisyToolchain/0.2.0/arm/arm-none-eabi/include/c++/10.3.1/bits/std_function.h **** 
 7377              		.loc 3 233 30
 7378 0014 F868     		ldr	r0, [r7, #12]
 7379 0016 FFF7FEFF 		bl	_ZNSt9_Any_data9_M_accessEv
 7380 001a 0346     		mov	r3, r0
 233:/Library/DaisyToolchain/0.2.0/arm/arm-none-eabi/include/c++/10.3.1/bits/std_function.h **** 
 7381              		.loc 3 233 4
 7382 001c 1946     		mov	r1, r3
 7383 001e 0420     		movs	r0, #4
 7384 0020 FFF7FEFF 		bl	_ZnwjPv
ARM GAS  /var/folders/wz/z09yph4n0qj4t7mjxhl6ttn80000gn/T//ccxdcdyF.s 			page 163


 7385 0024 0246     		mov	r2, r0
 7386 0026 2368     		ldr	r3, [r4]
 7387 0028 1360     		str	r3, [r2]
 233:/Library/DaisyToolchain/0.2.0/arm/arm-none-eabi/include/c++/10.3.1/bits/std_function.h **** 
 7388              		.loc 3 233 60
 7389 002a 00BF     		nop
 7390 002c 1437     		adds	r7, r7, #20
 7391              		.cfi_def_cfa_offset 12
 7392 002e BD46     		mov	sp, r7
 7393              		.cfi_def_cfa_register 13
 7394              		@ sp needed
 7395 0030 90BD     		pop	{r4, r7, pc}
 7396              		.cfi_endproc
 7397              	.LFE6288:
 7399              		.section	.text._ZNSt14_Function_base13_Base_managerIZN5Mixer11initTrackIOEPN5daisy9DaisySeedE7Trac
 7400              		.align	1
 7401              		.syntax unified
 7402              		.thumb
 7403              		.thumb_func
 7405              	_ZNSt14_Function_base13_Base_managerIZN5Mixer11initTrackIOEPN5daisy9DaisySeedE7TrackIOS5_S5_S5_EUlf
 7406              	.LFB6289:
 136:/Library/DaisyToolchain/0.2.0/arm/arm-none-eabi/include/c++/10.3.1/bits/std_function.h **** 	{
 7407              		.loc 3 136 2
 7408              		.cfi_startproc
 7409              		@ args = 0, pretend = 0, frame = 16
 7410              		@ frame_needed = 1, uses_anonymous_args = 0
 7411 0000 80B5     		push	{r7, lr}
 7412              		.cfi_def_cfa_offset 8
 7413              		.cfi_offset 7, -8
 7414              		.cfi_offset 14, -4
 7415 0002 84B0     		sub	sp, sp, #16
 7416              		.cfi_def_cfa_offset 24
 7417 0004 00AF     		add	r7, sp, #0
 7418              		.cfi_def_cfa_register 7
 7419 0006 7860     		str	r0, [r7, #4]
 7420              	.LBB36:
 7421              	.LBB37:
 140:/Library/DaisyToolchain/0.2.0/arm/arm-none-eabi/include/c++/10.3.1/bits/std_function.h **** 	      return const_cast<_Functor*>(std::__addressof(__f));
 7422              		.loc 3 140 58
 7423 0008 7868     		ldr	r0, [r7, #4]
 7424 000a FFF7FEFF 		bl	_ZNKSt9_Any_data9_M_accessIZN5Mixer11initTrackIOEPN5daisy9DaisySeedE7TrackIOS5_S5_S5_EUlfE1_EER
 7425 000e F860     		str	r0, [r7, #12]
 141:/Library/DaisyToolchain/0.2.0/arm/arm-none-eabi/include/c++/10.3.1/bits/std_function.h **** 	    }
 7426              		.loc 3 141 53
 7427 0010 F868     		ldr	r0, [r7, #12]
 7428 0012 FFF7FEFF 		bl	_ZSt11__addressofIKZN5Mixer11initTrackIOEPN5daisy9DaisySeedE7TrackIOS4_S4_S4_EUlfE1_EPT_RS7_
 7429 0016 0346     		mov	r3, r0
 141:/Library/DaisyToolchain/0.2.0/arm/arm-none-eabi/include/c++/10.3.1/bits/std_function.h **** 	    }
 7430              		.loc 3 141 58
 7431 0018 00BF     		nop
 7432              	.LBE37:
 7433              	.LBE36:
 145:/Library/DaisyToolchain/0.2.0/arm/arm-none-eabi/include/c++/10.3.1/bits/std_function.h **** 
 7434              		.loc 3 145 2
 7435 001a 1846     		mov	r0, r3
 7436 001c 1037     		adds	r7, r7, #16
 7437              		.cfi_def_cfa_offset 8
ARM GAS  /var/folders/wz/z09yph4n0qj4t7mjxhl6ttn80000gn/T//ccxdcdyF.s 			page 164


 7438 001e BD46     		mov	sp, r7
 7439              		.cfi_def_cfa_register 13
 7440              		@ sp needed
 7441 0020 80BD     		pop	{r7, pc}
 7442              		.cfi_endproc
 7443              	.LFE6289:
 7445              		.section	.text._ZSt10__invoke_rIvRZN5Mixer11initTrackIOEPN5daisy9DaisySeedE7TrackIOS4_S4_S4_EUlfE1
 7446              		.align	1
 7447              		.syntax unified
 7448              		.thumb
 7449              		.thumb_func
 7451              	_ZSt10__invoke_rIvRZN5Mixer11initTrackIOEPN5daisy9DaisySeedE7TrackIOS4_S4_S4_EUlfE1_JfEENSt9enable_
 7452              	.LFB6290:
 148:/Library/DaisyToolchain/0.2.0/arm/arm-none-eabi/include/c++/10.3.1/bits/invoke.h ****     {
 7453              		.loc 9 148 5
 7454              		.cfi_startproc
 7455              		@ args = 0, pretend = 0, frame = 8
 7456              		@ frame_needed = 1, uses_anonymous_args = 0
 7457 0000 B0B5     		push	{r4, r5, r7, lr}
 7458              		.cfi_def_cfa_offset 16
 7459              		.cfi_offset 4, -16
 7460              		.cfi_offset 5, -12
 7461              		.cfi_offset 7, -8
 7462              		.cfi_offset 14, -4
 7463 0002 82B0     		sub	sp, sp, #8
 7464              		.cfi_def_cfa_offset 24
 7465 0004 00AF     		add	r7, sp, #0
 7466              		.cfi_def_cfa_register 7
 7467 0006 7860     		str	r0, [r7, #4]
 7468 0008 3960     		str	r1, [r7]
 153:/Library/DaisyToolchain/0.2.0/arm/arm-none-eabi/include/c++/10.3.1/bits/invoke.h **** 				 std::forward<_Args>(__args)...);
 7469              		.loc 9 153 33
 7470 000a 7868     		ldr	r0, [r7, #4]
 7471 000c FFF7FEFF 		bl	_ZSt7forwardIRZN5Mixer11initTrackIOEPN5daisy9DaisySeedE7TrackIOS4_S4_S4_EUlfE1_EOT_RNSt16remove
 7472 0010 0446     		mov	r4, r0
 7473 0012 3868     		ldr	r0, [r7]
 7474 0014 FFF7FEFF 		bl	_ZSt7forwardIfEOT_RNSt16remove_referenceIS0_E4typeE
 7475 0018 0346     		mov	r3, r0
 7476 001a 1A46     		mov	r2, r3
 7477 001c 2146     		mov	r1, r4
 7478 001e 2846     		mov	r0, r5
 7479 0020 FFF7FEFF 		bl	_ZSt13__invoke_implIvRZN5Mixer11initTrackIOEPN5daisy9DaisySeedE7TrackIOS4_S4_S4_EUlfE1_JfEET_St
 7480              		.loc 9 155 5
 7481 0024 00BF     		nop
 7482 0026 0837     		adds	r7, r7, #8
 7483              		.cfi_def_cfa_offset 16
 7484 0028 BD46     		mov	sp, r7
 7485              		.cfi_def_cfa_register 13
 7486              		@ sp needed
 7487 002a B0BD     		pop	{r4, r5, r7, pc}
 7488              		.cfi_endproc
 7489              	.LFE6290:
 7491              		.section	.text._ZNSt9_Any_data9_M_accessIPZN5Mixer11initTrackIOEPN5daisy9DaisySeedE7TrackIOS5_S5_S
 7492              		.align	1
 7493              		.syntax unified
 7494              		.thumb
 7495              		.thumb_func
ARM GAS  /var/folders/wz/z09yph4n0qj4t7mjxhl6ttn80000gn/T//ccxdcdyF.s 			page 165


 7497              	_ZNSt9_Any_data9_M_accessIPZN5Mixer11initTrackIOEPN5daisy9DaisySeedE7TrackIOS5_S5_S5_EUlfE1_EERT_v:
 7498              	.LFB6291:
  92:/Library/DaisyToolchain/0.2.0/arm/arm-none-eabi/include/c++/10.3.1/bits/std_function.h ****       { return *static_cast<_Tp*>(_M_access()); }
 7499              		.loc 3 92 7
 7500              		.cfi_startproc
 7501              		@ args = 0, pretend = 0, frame = 8
 7502              		@ frame_needed = 1, uses_anonymous_args = 0
 7503 0000 80B5     		push	{r7, lr}
 7504              		.cfi_def_cfa_offset 8
 7505              		.cfi_offset 7, -8
 7506              		.cfi_offset 14, -4
 7507 0002 82B0     		sub	sp, sp, #8
 7508              		.cfi_def_cfa_offset 16
 7509 0004 00AF     		add	r7, sp, #0
 7510              		.cfi_def_cfa_register 7
 7511 0006 7860     		str	r0, [r7, #4]
  93:/Library/DaisyToolchain/0.2.0/arm/arm-none-eabi/include/c++/10.3.1/bits/std_function.h **** 
 7512              		.loc 3 93 44
 7513 0008 7868     		ldr	r0, [r7, #4]
 7514 000a FFF7FEFF 		bl	_ZNSt9_Any_data9_M_accessEv
 7515 000e 0346     		mov	r3, r0
  93:/Library/DaisyToolchain/0.2.0/arm/arm-none-eabi/include/c++/10.3.1/bits/std_function.h **** 
 7516              		.loc 3 93 49
 7517 0010 1846     		mov	r0, r3
 7518 0012 0837     		adds	r7, r7, #8
 7519              		.cfi_def_cfa_offset 8
 7520 0014 BD46     		mov	sp, r7
 7521              		.cfi_def_cfa_register 13
 7522              		@ sp needed
 7523 0016 80BD     		pop	{r7, pc}
 7524              		.cfi_endproc
 7525              	.LFE6291:
 7527              		.section	.text._ZNSt14_Function_base13_Base_managerIZN5Mixer11initTrackIOEPN5daisy9DaisySeedE7Trac
 7528              		.align	1
 7529              		.syntax unified
 7530              		.thumb
 7531              		.thumb_func
 7533              	_ZNSt14_Function_base13_Base_managerIZN5Mixer11initTrackIOEPN5daisy9DaisySeedE7TrackIOS5_S5_S5_EUlf
 7534              	.LFB6292:
 181:/Library/DaisyToolchain/0.2.0/arm/arm-none-eabi/include/c++/10.3.1/bits/std_function.h **** 		   _Manager_operation __op)
 7535              		.loc 3 181 2
 7536              		.cfi_startproc
 7537              		@ args = 0, pretend = 0, frame = 16
 7538              		@ frame_needed = 1, uses_anonymous_args = 0
 7539 0000 B0B5     		push	{r4, r5, r7, lr}
 7540              		.cfi_def_cfa_offset 16
 7541              		.cfi_offset 4, -16
 7542              		.cfi_offset 5, -12
 7543              		.cfi_offset 7, -8
 7544              		.cfi_offset 14, -4
 7545 0002 84B0     		sub	sp, sp, #16
 7546              		.cfi_def_cfa_offset 32
 7547 0004 00AF     		add	r7, sp, #0
 7548              		.cfi_def_cfa_register 7
 7549 0006 F860     		str	r0, [r7, #12]
 7550 0008 B960     		str	r1, [r7, #8]
 7551 000a 1346     		mov	r3, r2
ARM GAS  /var/folders/wz/z09yph4n0qj4t7mjxhl6ttn80000gn/T//ccxdcdyF.s 			page 166


 7552 000c FB71     		strb	r3, [r7, #7]
 184:/Library/DaisyToolchain/0.2.0/arm/arm-none-eabi/include/c++/10.3.1/bits/std_function.h **** 	    {
 7553              		.loc 3 184 12
 7554 000e FB79     		ldrb	r3, [r7, #7]	@ zero_extendqisi2
 184:/Library/DaisyToolchain/0.2.0/arm/arm-none-eabi/include/c++/10.3.1/bits/std_function.h **** 	    {
 7555              		.loc 3 184 4
 7556 0010 032B     		cmp	r3, #3
 7557 0012 16D0     		beq	.L305
 7558 0014 032B     		cmp	r3, #3
 7559 0016 19DC     		bgt	.L306
 7560 0018 012B     		cmp	r3, #1
 7561 001a 02D0     		beq	.L307
 7562 001c 022B     		cmp	r3, #2
 7563 001e 0AD0     		beq	.L308
 7564 0020 14E0     		b	.L306
 7565              	.L307:
 192:/Library/DaisyToolchain/0.2.0/arm/arm-none-eabi/include/c++/10.3.1/bits/std_function.h **** 	      break;
 7566              		.loc 3 192 35
 7567 0022 F868     		ldr	r0, [r7, #12]
 7568 0024 FFF7FEFF 		bl	_ZNSt9_Any_data9_M_accessIPZN5Mixer11initTrackIOEPN5daisy9DaisySeedE7TrackIOS5_S5_S5_EUlfE1_EER
 7569 0028 0446     		mov	r4, r0
 192:/Library/DaisyToolchain/0.2.0/arm/arm-none-eabi/include/c++/10.3.1/bits/std_function.h **** 	      break;
 7570              		.loc 3 192 54
 7571 002a B868     		ldr	r0, [r7, #8]
 7572 002c FFF7FEFF 		bl	_ZNSt14_Function_base13_Base_managerIZN5Mixer11initTrackIOEPN5daisy9DaisySeedE7TrackIOS5_S5_S5_
 7573 0030 0346     		mov	r3, r0
 192:/Library/DaisyToolchain/0.2.0/arm/arm-none-eabi/include/c++/10.3.1/bits/std_function.h **** 	      break;
 7574              		.loc 3 192 38
 7575 0032 2360     		str	r3, [r4]
 193:/Library/DaisyToolchain/0.2.0/arm/arm-none-eabi/include/c++/10.3.1/bits/std_function.h **** 
 7576              		.loc 3 193 8
 7577 0034 0AE0     		b	.L306
 7578              	.L308:
 196:/Library/DaisyToolchain/0.2.0/arm/arm-none-eabi/include/c++/10.3.1/bits/std_function.h **** 	      break;
 7579              		.loc 3 196 16
 7580 0036 2A46     		mov	r2, r5
 7581 0038 B968     		ldr	r1, [r7, #8]
 7582 003a F868     		ldr	r0, [r7, #12]
 7583 003c FFF7FEFF 		bl	_ZNSt14_Function_base13_Base_managerIZN5Mixer11initTrackIOEPN5daisy9DaisySeedE7TrackIOS5_S5_S5_
 197:/Library/DaisyToolchain/0.2.0/arm/arm-none-eabi/include/c++/10.3.1/bits/std_function.h **** 
 7584              		.loc 3 197 8
 7585 0040 04E0     		b	.L306
 7586              	.L305:
 200:/Library/DaisyToolchain/0.2.0/arm/arm-none-eabi/include/c++/10.3.1/bits/std_function.h **** 	      break;
 7587              		.loc 3 200 18
 7588 0042 2146     		mov	r1, r4
 7589 0044 F868     		ldr	r0, [r7, #12]
 7590 0046 FFF7FEFF 		bl	_ZNSt14_Function_base13_Base_managerIZN5Mixer11initTrackIOEPN5daisy9DaisySeedE7TrackIOS5_S5_S5_
 201:/Library/DaisyToolchain/0.2.0/arm/arm-none-eabi/include/c++/10.3.1/bits/std_function.h **** 	    }
 7591              		.loc 3 201 8
 7592 004a 00BF     		nop
 7593              	.L306:
 203:/Library/DaisyToolchain/0.2.0/arm/arm-none-eabi/include/c++/10.3.1/bits/std_function.h **** 	}
 7594              		.loc 3 203 11
 7595 004c 0023     		movs	r3, #0
 204:/Library/DaisyToolchain/0.2.0/arm/arm-none-eabi/include/c++/10.3.1/bits/std_function.h **** 
 7596              		.loc 3 204 2
ARM GAS  /var/folders/wz/z09yph4n0qj4t7mjxhl6ttn80000gn/T//ccxdcdyF.s 			page 167


 7597 004e 1846     		mov	r0, r3
 7598 0050 1037     		adds	r7, r7, #16
 7599              		.cfi_def_cfa_offset 16
 7600 0052 BD46     		mov	sp, r7
 7601              		.cfi_def_cfa_register 13
 7602              		@ sp needed
 7603 0054 B0BD     		pop	{r4, r5, r7, pc}
 7604              		.cfi_endproc
 7605              	.LFE6292:
 7607              		.section	.text._ZNSt14_Function_base13_Base_managerIZN5Mixer11initTrackIOEPN5daisy9DaisySeedE7Trac
 7608              		.align	1
 7609              		.syntax unified
 7610              		.thumb
 7611              		.thumb_func
 7613              	_ZNSt14_Function_base13_Base_managerIZN5Mixer11initTrackIOEPN5daisy9DaisySeedE7TrackIOS5_S5_S5_EUlf
 7614              	.LFB6293:
 232:/Library/DaisyToolchain/0.2.0/arm/arm-none-eabi/include/c++/10.3.1/bits/std_function.h **** 	{ ::new (__functor._M_access()) _Functor(std::move(__f)); }
 7615              		.loc 3 232 2
 7616              		.cfi_startproc
 7617              		@ args = 0, pretend = 0, frame = 16
 7618              		@ frame_needed = 1, uses_anonymous_args = 0
 7619 0000 90B5     		push	{r4, r7, lr}
 7620              		.cfi_def_cfa_offset 12
 7621              		.cfi_offset 4, -12
 7622              		.cfi_offset 7, -8
 7623              		.cfi_offset 14, -4
 7624 0002 85B0     		sub	sp, sp, #20
 7625              		.cfi_def_cfa_offset 32
 7626 0004 00AF     		add	r7, sp, #0
 7627              		.cfi_def_cfa_register 7
 7628 0006 F860     		str	r0, [r7, #12]
 7629 0008 B960     		str	r1, [r7, #8]
 7630 000a 3A71     		strb	r2, [r7, #4]
 233:/Library/DaisyToolchain/0.2.0/arm/arm-none-eabi/include/c++/10.3.1/bits/std_function.h **** 
 7631              		.loc 3 233 52
 7632 000c B868     		ldr	r0, [r7, #8]
 7633 000e FFF7FEFF 		bl	_ZSt4moveIRZN5Mixer11initTrackIOEPN5daisy9DaisySeedE7TrackIOS4_S4_S4_EUlfE2_EONSt16remove_refer
 7634 0012 0446     		mov	r4, r0
 233:/Library/DaisyToolchain/0.2.0/arm/arm-none-eabi/include/c++/10.3.1/bits/std_function.h **** 
 7635              		.loc 3 233 30
 7636 0014 F868     		ldr	r0, [r7, #12]
 7637 0016 FFF7FEFF 		bl	_ZNSt9_Any_data9_M_accessEv
 7638 001a 0346     		mov	r3, r0
 233:/Library/DaisyToolchain/0.2.0/arm/arm-none-eabi/include/c++/10.3.1/bits/std_function.h **** 
 7639              		.loc 3 233 4
 7640 001c 1946     		mov	r1, r3
 7641 001e 0420     		movs	r0, #4
 7642 0020 FFF7FEFF 		bl	_ZnwjPv
 7643 0024 0246     		mov	r2, r0
 7644 0026 2368     		ldr	r3, [r4]
 7645 0028 1360     		str	r3, [r2]
 233:/Library/DaisyToolchain/0.2.0/arm/arm-none-eabi/include/c++/10.3.1/bits/std_function.h **** 
 7646              		.loc 3 233 60
 7647 002a 00BF     		nop
 7648 002c 1437     		adds	r7, r7, #20
 7649              		.cfi_def_cfa_offset 12
 7650 002e BD46     		mov	sp, r7
ARM GAS  /var/folders/wz/z09yph4n0qj4t7mjxhl6ttn80000gn/T//ccxdcdyF.s 			page 168


 7651              		.cfi_def_cfa_register 13
 7652              		@ sp needed
 7653 0030 90BD     		pop	{r4, r7, pc}
 7654              		.cfi_endproc
 7655              	.LFE6293:
 7657              		.section	.text._ZNSt14_Function_base13_Base_managerIZN5Mixer11initTrackIOEPN5daisy9DaisySeedE7Trac
 7658              		.align	1
 7659              		.syntax unified
 7660              		.thumb
 7661              		.thumb_func
 7663              	_ZNSt14_Function_base13_Base_managerIZN5Mixer11initTrackIOEPN5daisy9DaisySeedE7TrackIOS5_S5_S5_EUlf
 7664              	.LFB6294:
 136:/Library/DaisyToolchain/0.2.0/arm/arm-none-eabi/include/c++/10.3.1/bits/std_function.h **** 	{
 7665              		.loc 3 136 2
 7666              		.cfi_startproc
 7667              		@ args = 0, pretend = 0, frame = 16
 7668              		@ frame_needed = 1, uses_anonymous_args = 0
 7669 0000 80B5     		push	{r7, lr}
 7670              		.cfi_def_cfa_offset 8
 7671              		.cfi_offset 7, -8
 7672              		.cfi_offset 14, -4
 7673 0002 84B0     		sub	sp, sp, #16
 7674              		.cfi_def_cfa_offset 24
 7675 0004 00AF     		add	r7, sp, #0
 7676              		.cfi_def_cfa_register 7
 7677 0006 7860     		str	r0, [r7, #4]
 7678              	.LBB38:
 7679              	.LBB39:
 140:/Library/DaisyToolchain/0.2.0/arm/arm-none-eabi/include/c++/10.3.1/bits/std_function.h **** 	      return const_cast<_Functor*>(std::__addressof(__f));
 7680              		.loc 3 140 58
 7681 0008 7868     		ldr	r0, [r7, #4]
 7682 000a FFF7FEFF 		bl	_ZNKSt9_Any_data9_M_accessIZN5Mixer11initTrackIOEPN5daisy9DaisySeedE7TrackIOS5_S5_S5_EUlfE2_EER
 7683 000e F860     		str	r0, [r7, #12]
 141:/Library/DaisyToolchain/0.2.0/arm/arm-none-eabi/include/c++/10.3.1/bits/std_function.h **** 	    }
 7684              		.loc 3 141 53
 7685 0010 F868     		ldr	r0, [r7, #12]
 7686 0012 FFF7FEFF 		bl	_ZSt11__addressofIKZN5Mixer11initTrackIOEPN5daisy9DaisySeedE7TrackIOS4_S4_S4_EUlfE2_EPT_RS7_
 7687 0016 0346     		mov	r3, r0
 141:/Library/DaisyToolchain/0.2.0/arm/arm-none-eabi/include/c++/10.3.1/bits/std_function.h **** 	    }
 7688              		.loc 3 141 58
 7689 0018 00BF     		nop
 7690              	.LBE39:
 7691              	.LBE38:
 145:/Library/DaisyToolchain/0.2.0/arm/arm-none-eabi/include/c++/10.3.1/bits/std_function.h **** 
 7692              		.loc 3 145 2
 7693 001a 1846     		mov	r0, r3
 7694 001c 1037     		adds	r7, r7, #16
 7695              		.cfi_def_cfa_offset 8
 7696 001e BD46     		mov	sp, r7
 7697              		.cfi_def_cfa_register 13
 7698              		@ sp needed
 7699 0020 80BD     		pop	{r7, pc}
 7700              		.cfi_endproc
 7701              	.LFE6294:
 7703              		.section	.text._ZSt10__invoke_rIvRZN5Mixer11initTrackIOEPN5daisy9DaisySeedE7TrackIOS4_S4_S4_EUlfE2
 7704              		.align	1
 7705              		.syntax unified
ARM GAS  /var/folders/wz/z09yph4n0qj4t7mjxhl6ttn80000gn/T//ccxdcdyF.s 			page 169


 7706              		.thumb
 7707              		.thumb_func
 7709              	_ZSt10__invoke_rIvRZN5Mixer11initTrackIOEPN5daisy9DaisySeedE7TrackIOS4_S4_S4_EUlfE2_JfEENSt9enable_
 7710              	.LFB6295:
 148:/Library/DaisyToolchain/0.2.0/arm/arm-none-eabi/include/c++/10.3.1/bits/invoke.h ****     {
 7711              		.loc 9 148 5
 7712              		.cfi_startproc
 7713              		@ args = 0, pretend = 0, frame = 8
 7714              		@ frame_needed = 1, uses_anonymous_args = 0
 7715 0000 B0B5     		push	{r4, r5, r7, lr}
 7716              		.cfi_def_cfa_offset 16
 7717              		.cfi_offset 4, -16
 7718              		.cfi_offset 5, -12
 7719              		.cfi_offset 7, -8
 7720              		.cfi_offset 14, -4
 7721 0002 82B0     		sub	sp, sp, #8
 7722              		.cfi_def_cfa_offset 24
 7723 0004 00AF     		add	r7, sp, #0
 7724              		.cfi_def_cfa_register 7
 7725 0006 7860     		str	r0, [r7, #4]
 7726 0008 3960     		str	r1, [r7]
 153:/Library/DaisyToolchain/0.2.0/arm/arm-none-eabi/include/c++/10.3.1/bits/invoke.h **** 				 std::forward<_Args>(__args)...);
 7727              		.loc 9 153 33
 7728 000a 7868     		ldr	r0, [r7, #4]
 7729 000c FFF7FEFF 		bl	_ZSt7forwardIRZN5Mixer11initTrackIOEPN5daisy9DaisySeedE7TrackIOS4_S4_S4_EUlfE2_EOT_RNSt16remove
 7730 0010 0446     		mov	r4, r0
 7731 0012 3868     		ldr	r0, [r7]
 7732 0014 FFF7FEFF 		bl	_ZSt7forwardIfEOT_RNSt16remove_referenceIS0_E4typeE
 7733 0018 0346     		mov	r3, r0
 7734 001a 1A46     		mov	r2, r3
 7735 001c 2146     		mov	r1, r4
 7736 001e 2846     		mov	r0, r5
 7737 0020 FFF7FEFF 		bl	_ZSt13__invoke_implIvRZN5Mixer11initTrackIOEPN5daisy9DaisySeedE7TrackIOS4_S4_S4_EUlfE2_JfEET_St
 7738              		.loc 9 155 5
 7739 0024 00BF     		nop
 7740 0026 0837     		adds	r7, r7, #8
 7741              		.cfi_def_cfa_offset 16
 7742 0028 BD46     		mov	sp, r7
 7743              		.cfi_def_cfa_register 13
 7744              		@ sp needed
 7745 002a B0BD     		pop	{r4, r5, r7, pc}
 7746              		.cfi_endproc
 7747              	.LFE6295:
 7749              		.section	.text._ZNSt9_Any_data9_M_accessIPZN5Mixer11initTrackIOEPN5daisy9DaisySeedE7TrackIOS5_S5_S
 7750              		.align	1
 7751              		.syntax unified
 7752              		.thumb
 7753              		.thumb_func
 7755              	_ZNSt9_Any_data9_M_accessIPZN5Mixer11initTrackIOEPN5daisy9DaisySeedE7TrackIOS5_S5_S5_EUlfE2_EERT_v:
 7756              	.LFB6296:
  92:/Library/DaisyToolchain/0.2.0/arm/arm-none-eabi/include/c++/10.3.1/bits/std_function.h ****       { return *static_cast<_Tp*>(_M_access()); }
 7757              		.loc 3 92 7
 7758              		.cfi_startproc
 7759              		@ args = 0, pretend = 0, frame = 8
 7760              		@ frame_needed = 1, uses_anonymous_args = 0
 7761 0000 80B5     		push	{r7, lr}
 7762              		.cfi_def_cfa_offset 8
ARM GAS  /var/folders/wz/z09yph4n0qj4t7mjxhl6ttn80000gn/T//ccxdcdyF.s 			page 170


 7763              		.cfi_offset 7, -8
 7764              		.cfi_offset 14, -4
 7765 0002 82B0     		sub	sp, sp, #8
 7766              		.cfi_def_cfa_offset 16
 7767 0004 00AF     		add	r7, sp, #0
 7768              		.cfi_def_cfa_register 7
 7769 0006 7860     		str	r0, [r7, #4]
  93:/Library/DaisyToolchain/0.2.0/arm/arm-none-eabi/include/c++/10.3.1/bits/std_function.h **** 
 7770              		.loc 3 93 44
 7771 0008 7868     		ldr	r0, [r7, #4]
 7772 000a FFF7FEFF 		bl	_ZNSt9_Any_data9_M_accessEv
 7773 000e 0346     		mov	r3, r0
  93:/Library/DaisyToolchain/0.2.0/arm/arm-none-eabi/include/c++/10.3.1/bits/std_function.h **** 
 7774              		.loc 3 93 49
 7775 0010 1846     		mov	r0, r3
 7776 0012 0837     		adds	r7, r7, #8
 7777              		.cfi_def_cfa_offset 8
 7778 0014 BD46     		mov	sp, r7
 7779              		.cfi_def_cfa_register 13
 7780              		@ sp needed
 7781 0016 80BD     		pop	{r7, pc}
 7782              		.cfi_endproc
 7783              	.LFE6296:
 7785              		.section	.text._ZNSt14_Function_base13_Base_managerIZN5Mixer11initTrackIOEPN5daisy9DaisySeedE7Trac
 7786              		.align	1
 7787              		.syntax unified
 7788              		.thumb
 7789              		.thumb_func
 7791              	_ZNSt14_Function_base13_Base_managerIZN5Mixer11initTrackIOEPN5daisy9DaisySeedE7TrackIOS5_S5_S5_EUlf
 7792              	.LFB6297:
 181:/Library/DaisyToolchain/0.2.0/arm/arm-none-eabi/include/c++/10.3.1/bits/std_function.h **** 		   _Manager_operation __op)
 7793              		.loc 3 181 2
 7794              		.cfi_startproc
 7795              		@ args = 0, pretend = 0, frame = 16
 7796              		@ frame_needed = 1, uses_anonymous_args = 0
 7797 0000 B0B5     		push	{r4, r5, r7, lr}
 7798              		.cfi_def_cfa_offset 16
 7799              		.cfi_offset 4, -16
 7800              		.cfi_offset 5, -12
 7801              		.cfi_offset 7, -8
 7802              		.cfi_offset 14, -4
 7803 0002 84B0     		sub	sp, sp, #16
 7804              		.cfi_def_cfa_offset 32
 7805 0004 00AF     		add	r7, sp, #0
 7806              		.cfi_def_cfa_register 7
 7807 0006 F860     		str	r0, [r7, #12]
 7808 0008 B960     		str	r1, [r7, #8]
 7809 000a 1346     		mov	r3, r2
 7810 000c FB71     		strb	r3, [r7, #7]
 184:/Library/DaisyToolchain/0.2.0/arm/arm-none-eabi/include/c++/10.3.1/bits/std_function.h **** 	    {
 7811              		.loc 3 184 12
 7812 000e FB79     		ldrb	r3, [r7, #7]	@ zero_extendqisi2
 184:/Library/DaisyToolchain/0.2.0/arm/arm-none-eabi/include/c++/10.3.1/bits/std_function.h **** 	    {
 7813              		.loc 3 184 4
 7814 0010 032B     		cmp	r3, #3
 7815 0012 16D0     		beq	.L317
 7816 0014 032B     		cmp	r3, #3
ARM GAS  /var/folders/wz/z09yph4n0qj4t7mjxhl6ttn80000gn/T//ccxdcdyF.s 			page 171


 7817 0016 19DC     		bgt	.L318
 7818 0018 012B     		cmp	r3, #1
 7819 001a 02D0     		beq	.L319
 7820 001c 022B     		cmp	r3, #2
 7821 001e 0AD0     		beq	.L320
 7822 0020 14E0     		b	.L318
 7823              	.L319:
 192:/Library/DaisyToolchain/0.2.0/arm/arm-none-eabi/include/c++/10.3.1/bits/std_function.h **** 	      break;
 7824              		.loc 3 192 35
 7825 0022 F868     		ldr	r0, [r7, #12]
 7826 0024 FFF7FEFF 		bl	_ZNSt9_Any_data9_M_accessIPZN5Mixer11initTrackIOEPN5daisy9DaisySeedE7TrackIOS5_S5_S5_EUlfE2_EER
 7827 0028 0446     		mov	r4, r0
 192:/Library/DaisyToolchain/0.2.0/arm/arm-none-eabi/include/c++/10.3.1/bits/std_function.h **** 	      break;
 7828              		.loc 3 192 54
 7829 002a B868     		ldr	r0, [r7, #8]
 7830 002c FFF7FEFF 		bl	_ZNSt14_Function_base13_Base_managerIZN5Mixer11initTrackIOEPN5daisy9DaisySeedE7TrackIOS5_S5_S5_
 7831 0030 0346     		mov	r3, r0
 192:/Library/DaisyToolchain/0.2.0/arm/arm-none-eabi/include/c++/10.3.1/bits/std_function.h **** 	      break;
 7832              		.loc 3 192 38
 7833 0032 2360     		str	r3, [r4]
 193:/Library/DaisyToolchain/0.2.0/arm/arm-none-eabi/include/c++/10.3.1/bits/std_function.h **** 
 7834              		.loc 3 193 8
 7835 0034 0AE0     		b	.L318
 7836              	.L320:
 196:/Library/DaisyToolchain/0.2.0/arm/arm-none-eabi/include/c++/10.3.1/bits/std_function.h **** 	      break;
 7837              		.loc 3 196 16
 7838 0036 2A46     		mov	r2, r5
 7839 0038 B968     		ldr	r1, [r7, #8]
 7840 003a F868     		ldr	r0, [r7, #12]
 7841 003c FFF7FEFF 		bl	_ZNSt14_Function_base13_Base_managerIZN5Mixer11initTrackIOEPN5daisy9DaisySeedE7TrackIOS5_S5_S5_
 197:/Library/DaisyToolchain/0.2.0/arm/arm-none-eabi/include/c++/10.3.1/bits/std_function.h **** 
 7842              		.loc 3 197 8
 7843 0040 04E0     		b	.L318
 7844              	.L317:
 200:/Library/DaisyToolchain/0.2.0/arm/arm-none-eabi/include/c++/10.3.1/bits/std_function.h **** 	      break;
 7845              		.loc 3 200 18
 7846 0042 2146     		mov	r1, r4
 7847 0044 F868     		ldr	r0, [r7, #12]
 7848 0046 FFF7FEFF 		bl	_ZNSt14_Function_base13_Base_managerIZN5Mixer11initTrackIOEPN5daisy9DaisySeedE7TrackIOS5_S5_S5_
 201:/Library/DaisyToolchain/0.2.0/arm/arm-none-eabi/include/c++/10.3.1/bits/std_function.h **** 	    }
 7849              		.loc 3 201 8
 7850 004a 00BF     		nop
 7851              	.L318:
 203:/Library/DaisyToolchain/0.2.0/arm/arm-none-eabi/include/c++/10.3.1/bits/std_function.h **** 	}
 7852              		.loc 3 203 11
 7853 004c 0023     		movs	r3, #0
 204:/Library/DaisyToolchain/0.2.0/arm/arm-none-eabi/include/c++/10.3.1/bits/std_function.h **** 
 7854              		.loc 3 204 2
 7855 004e 1846     		mov	r0, r3
 7856 0050 1037     		adds	r7, r7, #16
 7857              		.cfi_def_cfa_offset 16
 7858 0052 BD46     		mov	sp, r7
 7859              		.cfi_def_cfa_register 13
 7860              		@ sp needed
 7861 0054 B0BD     		pop	{r4, r5, r7, pc}
 7862              		.cfi_endproc
 7863              	.LFE6297:
ARM GAS  /var/folders/wz/z09yph4n0qj4t7mjxhl6ttn80000gn/T//ccxdcdyF.s 			page 172


 7865              		.section	.text._ZNSt14_Function_base13_Base_managerIZN5Mixer11initTrackIOEPN5daisy9DaisySeedE7Trac
 7866              		.align	1
 7867              		.syntax unified
 7868              		.thumb
 7869              		.thumb_func
 7871              	_ZNSt14_Function_base13_Base_managerIZN5Mixer11initTrackIOEPN5daisy9DaisySeedE7TrackIOS5_S5_S5_EUlf
 7872              	.LFB6298:
 232:/Library/DaisyToolchain/0.2.0/arm/arm-none-eabi/include/c++/10.3.1/bits/std_function.h **** 	{ ::new (__functor._M_access()) _Functor(std::move(__f)); }
 7873              		.loc 3 232 2
 7874              		.cfi_startproc
 7875              		@ args = 0, pretend = 0, frame = 16
 7876              		@ frame_needed = 1, uses_anonymous_args = 0
 7877 0000 90B5     		push	{r4, r7, lr}
 7878              		.cfi_def_cfa_offset 12
 7879              		.cfi_offset 4, -12
 7880              		.cfi_offset 7, -8
 7881              		.cfi_offset 14, -4
 7882 0002 85B0     		sub	sp, sp, #20
 7883              		.cfi_def_cfa_offset 32
 7884 0004 00AF     		add	r7, sp, #0
 7885              		.cfi_def_cfa_register 7
 7886 0006 F860     		str	r0, [r7, #12]
 7887 0008 B960     		str	r1, [r7, #8]
 7888 000a 3A71     		strb	r2, [r7, #4]
 233:/Library/DaisyToolchain/0.2.0/arm/arm-none-eabi/include/c++/10.3.1/bits/std_function.h **** 
 7889              		.loc 3 233 52
 7890 000c B868     		ldr	r0, [r7, #8]
 7891 000e FFF7FEFF 		bl	_ZSt4moveIRZN5Mixer11initTrackIOEPN5daisy9DaisySeedE7TrackIOS4_S4_S4_EUlfE3_EONSt16remove_refer
 7892 0012 0446     		mov	r4, r0
 233:/Library/DaisyToolchain/0.2.0/arm/arm-none-eabi/include/c++/10.3.1/bits/std_function.h **** 
 7893              		.loc 3 233 30
 7894 0014 F868     		ldr	r0, [r7, #12]
 7895 0016 FFF7FEFF 		bl	_ZNSt9_Any_data9_M_accessEv
 7896 001a 0346     		mov	r3, r0
 233:/Library/DaisyToolchain/0.2.0/arm/arm-none-eabi/include/c++/10.3.1/bits/std_function.h **** 
 7897              		.loc 3 233 4
 7898 001c 1946     		mov	r1, r3
 7899 001e 0420     		movs	r0, #4
 7900 0020 FFF7FEFF 		bl	_ZnwjPv
 7901 0024 0246     		mov	r2, r0
 7902 0026 2368     		ldr	r3, [r4]
 7903 0028 1360     		str	r3, [r2]
 233:/Library/DaisyToolchain/0.2.0/arm/arm-none-eabi/include/c++/10.3.1/bits/std_function.h **** 
 7904              		.loc 3 233 60
 7905 002a 00BF     		nop
 7906 002c 1437     		adds	r7, r7, #20
 7907              		.cfi_def_cfa_offset 12
 7908 002e BD46     		mov	sp, r7
 7909              		.cfi_def_cfa_register 13
 7910              		@ sp needed
 7911 0030 90BD     		pop	{r4, r7, pc}
 7912              		.cfi_endproc
 7913              	.LFE6298:
 7915              		.section	.text._ZNSt14_Function_base13_Base_managerIZN5Mixer11initTrackIOEPN5daisy9DaisySeedE7Trac
 7916              		.align	1
 7917              		.syntax unified
 7918              		.thumb
ARM GAS  /var/folders/wz/z09yph4n0qj4t7mjxhl6ttn80000gn/T//ccxdcdyF.s 			page 173


 7919              		.thumb_func
 7921              	_ZNSt14_Function_base13_Base_managerIZN5Mixer11initTrackIOEPN5daisy9DaisySeedE7TrackIOS5_S5_S5_EUlf
 7922              	.LFB6299:
 136:/Library/DaisyToolchain/0.2.0/arm/arm-none-eabi/include/c++/10.3.1/bits/std_function.h **** 	{
 7923              		.loc 3 136 2
 7924              		.cfi_startproc
 7925              		@ args = 0, pretend = 0, frame = 16
 7926              		@ frame_needed = 1, uses_anonymous_args = 0
 7927 0000 80B5     		push	{r7, lr}
 7928              		.cfi_def_cfa_offset 8
 7929              		.cfi_offset 7, -8
 7930              		.cfi_offset 14, -4
 7931 0002 84B0     		sub	sp, sp, #16
 7932              		.cfi_def_cfa_offset 24
 7933 0004 00AF     		add	r7, sp, #0
 7934              		.cfi_def_cfa_register 7
 7935 0006 7860     		str	r0, [r7, #4]
 7936              	.LBB40:
 7937              	.LBB41:
 140:/Library/DaisyToolchain/0.2.0/arm/arm-none-eabi/include/c++/10.3.1/bits/std_function.h **** 	      return const_cast<_Functor*>(std::__addressof(__f));
 7938              		.loc 3 140 58
 7939 0008 7868     		ldr	r0, [r7, #4]
 7940 000a FFF7FEFF 		bl	_ZNKSt9_Any_data9_M_accessIZN5Mixer11initTrackIOEPN5daisy9DaisySeedE7TrackIOS5_S5_S5_EUlfE3_EER
 7941 000e F860     		str	r0, [r7, #12]
 141:/Library/DaisyToolchain/0.2.0/arm/arm-none-eabi/include/c++/10.3.1/bits/std_function.h **** 	    }
 7942              		.loc 3 141 53
 7943 0010 F868     		ldr	r0, [r7, #12]
 7944 0012 FFF7FEFF 		bl	_ZSt11__addressofIKZN5Mixer11initTrackIOEPN5daisy9DaisySeedE7TrackIOS4_S4_S4_EUlfE3_EPT_RS7_
 7945 0016 0346     		mov	r3, r0
 141:/Library/DaisyToolchain/0.2.0/arm/arm-none-eabi/include/c++/10.3.1/bits/std_function.h **** 	    }
 7946              		.loc 3 141 58
 7947 0018 00BF     		nop
 7948              	.LBE41:
 7949              	.LBE40:
 145:/Library/DaisyToolchain/0.2.0/arm/arm-none-eabi/include/c++/10.3.1/bits/std_function.h **** 
 7950              		.loc 3 145 2
 7951 001a 1846     		mov	r0, r3
 7952 001c 1037     		adds	r7, r7, #16
 7953              		.cfi_def_cfa_offset 8
 7954 001e BD46     		mov	sp, r7
 7955              		.cfi_def_cfa_register 13
 7956              		@ sp needed
 7957 0020 80BD     		pop	{r7, pc}
 7958              		.cfi_endproc
 7959              	.LFE6299:
 7961              		.section	.text._ZSt10__invoke_rIvRZN5Mixer11initTrackIOEPN5daisy9DaisySeedE7TrackIOS4_S4_S4_EUlfE3
 7962              		.align	1
 7963              		.syntax unified
 7964              		.thumb
 7965              		.thumb_func
 7967              	_ZSt10__invoke_rIvRZN5Mixer11initTrackIOEPN5daisy9DaisySeedE7TrackIOS4_S4_S4_EUlfE3_JfEENSt9enable_
 7968              	.LFB6300:
 148:/Library/DaisyToolchain/0.2.0/arm/arm-none-eabi/include/c++/10.3.1/bits/invoke.h ****     {
 7969              		.loc 9 148 5
 7970              		.cfi_startproc
 7971              		@ args = 0, pretend = 0, frame = 8
 7972              		@ frame_needed = 1, uses_anonymous_args = 0
ARM GAS  /var/folders/wz/z09yph4n0qj4t7mjxhl6ttn80000gn/T//ccxdcdyF.s 			page 174


 7973 0000 B0B5     		push	{r4, r5, r7, lr}
 7974              		.cfi_def_cfa_offset 16
 7975              		.cfi_offset 4, -16
 7976              		.cfi_offset 5, -12
 7977              		.cfi_offset 7, -8
 7978              		.cfi_offset 14, -4
 7979 0002 82B0     		sub	sp, sp, #8
 7980              		.cfi_def_cfa_offset 24
 7981 0004 00AF     		add	r7, sp, #0
 7982              		.cfi_def_cfa_register 7
 7983 0006 7860     		str	r0, [r7, #4]
 7984 0008 3960     		str	r1, [r7]
 153:/Library/DaisyToolchain/0.2.0/arm/arm-none-eabi/include/c++/10.3.1/bits/invoke.h **** 				 std::forward<_Args>(__args)...);
 7985              		.loc 9 153 33
 7986 000a 7868     		ldr	r0, [r7, #4]
 7987 000c FFF7FEFF 		bl	_ZSt7forwardIRZN5Mixer11initTrackIOEPN5daisy9DaisySeedE7TrackIOS4_S4_S4_EUlfE3_EOT_RNSt16remove
 7988 0010 0446     		mov	r4, r0
 7989 0012 3868     		ldr	r0, [r7]
 7990 0014 FFF7FEFF 		bl	_ZSt7forwardIfEOT_RNSt16remove_referenceIS0_E4typeE
 7991 0018 0346     		mov	r3, r0
 7992 001a 1A46     		mov	r2, r3
 7993 001c 2146     		mov	r1, r4
 7994 001e 2846     		mov	r0, r5
 7995 0020 FFF7FEFF 		bl	_ZSt13__invoke_implIvRZN5Mixer11initTrackIOEPN5daisy9DaisySeedE7TrackIOS4_S4_S4_EUlfE3_JfEET_St
 7996              		.loc 9 155 5
 7997 0024 00BF     		nop
 7998 0026 0837     		adds	r7, r7, #8
 7999              		.cfi_def_cfa_offset 16
 8000 0028 BD46     		mov	sp, r7
 8001              		.cfi_def_cfa_register 13
 8002              		@ sp needed
 8003 002a B0BD     		pop	{r4, r5, r7, pc}
 8004              		.cfi_endproc
 8005              	.LFE6300:
 8007              		.section	.text._ZNSt9_Any_data9_M_accessIPZN5Mixer11initTrackIOEPN5daisy9DaisySeedE7TrackIOS5_S5_S
 8008              		.align	1
 8009              		.syntax unified
 8010              		.thumb
 8011              		.thumb_func
 8013              	_ZNSt9_Any_data9_M_accessIPZN5Mixer11initTrackIOEPN5daisy9DaisySeedE7TrackIOS5_S5_S5_EUlfE3_EERT_v:
 8014              	.LFB6301:
  92:/Library/DaisyToolchain/0.2.0/arm/arm-none-eabi/include/c++/10.3.1/bits/std_function.h ****       { return *static_cast<_Tp*>(_M_access()); }
 8015              		.loc 3 92 7
 8016              		.cfi_startproc
 8017              		@ args = 0, pretend = 0, frame = 8
 8018              		@ frame_needed = 1, uses_anonymous_args = 0
 8019 0000 80B5     		push	{r7, lr}
 8020              		.cfi_def_cfa_offset 8
 8021              		.cfi_offset 7, -8
 8022              		.cfi_offset 14, -4
 8023 0002 82B0     		sub	sp, sp, #8
 8024              		.cfi_def_cfa_offset 16
 8025 0004 00AF     		add	r7, sp, #0
 8026              		.cfi_def_cfa_register 7
 8027 0006 7860     		str	r0, [r7, #4]
  93:/Library/DaisyToolchain/0.2.0/arm/arm-none-eabi/include/c++/10.3.1/bits/std_function.h **** 
 8028              		.loc 3 93 44
ARM GAS  /var/folders/wz/z09yph4n0qj4t7mjxhl6ttn80000gn/T//ccxdcdyF.s 			page 175


 8029 0008 7868     		ldr	r0, [r7, #4]
 8030 000a FFF7FEFF 		bl	_ZNSt9_Any_data9_M_accessEv
 8031 000e 0346     		mov	r3, r0
  93:/Library/DaisyToolchain/0.2.0/arm/arm-none-eabi/include/c++/10.3.1/bits/std_function.h **** 
 8032              		.loc 3 93 49
 8033 0010 1846     		mov	r0, r3
 8034 0012 0837     		adds	r7, r7, #8
 8035              		.cfi_def_cfa_offset 8
 8036 0014 BD46     		mov	sp, r7
 8037              		.cfi_def_cfa_register 13
 8038              		@ sp needed
 8039 0016 80BD     		pop	{r7, pc}
 8040              		.cfi_endproc
 8041              	.LFE6301:
 8043              		.section	.text._ZNSt14_Function_base13_Base_managerIZN5Mixer11initTrackIOEPN5daisy9DaisySeedE7Trac
 8044              		.align	1
 8045              		.syntax unified
 8046              		.thumb
 8047              		.thumb_func
 8049              	_ZNSt14_Function_base13_Base_managerIZN5Mixer11initTrackIOEPN5daisy9DaisySeedE7TrackIOS5_S5_S5_EUlf
 8050              	.LFB6302:
 181:/Library/DaisyToolchain/0.2.0/arm/arm-none-eabi/include/c++/10.3.1/bits/std_function.h **** 		   _Manager_operation __op)
 8051              		.loc 3 181 2
 8052              		.cfi_startproc
 8053              		@ args = 0, pretend = 0, frame = 16
 8054              		@ frame_needed = 1, uses_anonymous_args = 0
 8055 0000 B0B5     		push	{r4, r5, r7, lr}
 8056              		.cfi_def_cfa_offset 16
 8057              		.cfi_offset 4, -16
 8058              		.cfi_offset 5, -12
 8059              		.cfi_offset 7, -8
 8060              		.cfi_offset 14, -4
 8061 0002 84B0     		sub	sp, sp, #16
 8062              		.cfi_def_cfa_offset 32
 8063 0004 00AF     		add	r7, sp, #0
 8064              		.cfi_def_cfa_register 7
 8065 0006 F860     		str	r0, [r7, #12]
 8066 0008 B960     		str	r1, [r7, #8]
 8067 000a 1346     		mov	r3, r2
 8068 000c FB71     		strb	r3, [r7, #7]
 184:/Library/DaisyToolchain/0.2.0/arm/arm-none-eabi/include/c++/10.3.1/bits/std_function.h **** 	    {
 8069              		.loc 3 184 12
 8070 000e FB79     		ldrb	r3, [r7, #7]	@ zero_extendqisi2
 184:/Library/DaisyToolchain/0.2.0/arm/arm-none-eabi/include/c++/10.3.1/bits/std_function.h **** 	    {
 8071              		.loc 3 184 4
 8072 0010 032B     		cmp	r3, #3
 8073 0012 16D0     		beq	.L329
 8074 0014 032B     		cmp	r3, #3
 8075 0016 19DC     		bgt	.L330
 8076 0018 012B     		cmp	r3, #1
 8077 001a 02D0     		beq	.L331
 8078 001c 022B     		cmp	r3, #2
 8079 001e 0AD0     		beq	.L332
 8080 0020 14E0     		b	.L330
 8081              	.L331:
 192:/Library/DaisyToolchain/0.2.0/arm/arm-none-eabi/include/c++/10.3.1/bits/std_function.h **** 	      break;
 8082              		.loc 3 192 35
ARM GAS  /var/folders/wz/z09yph4n0qj4t7mjxhl6ttn80000gn/T//ccxdcdyF.s 			page 176


 8083 0022 F868     		ldr	r0, [r7, #12]
 8084 0024 FFF7FEFF 		bl	_ZNSt9_Any_data9_M_accessIPZN5Mixer11initTrackIOEPN5daisy9DaisySeedE7TrackIOS5_S5_S5_EUlfE3_EER
 8085 0028 0446     		mov	r4, r0
 192:/Library/DaisyToolchain/0.2.0/arm/arm-none-eabi/include/c++/10.3.1/bits/std_function.h **** 	      break;
 8086              		.loc 3 192 54
 8087 002a B868     		ldr	r0, [r7, #8]
 8088 002c FFF7FEFF 		bl	_ZNSt14_Function_base13_Base_managerIZN5Mixer11initTrackIOEPN5daisy9DaisySeedE7TrackIOS5_S5_S5_
 8089 0030 0346     		mov	r3, r0
 192:/Library/DaisyToolchain/0.2.0/arm/arm-none-eabi/include/c++/10.3.1/bits/std_function.h **** 	      break;
 8090              		.loc 3 192 38
 8091 0032 2360     		str	r3, [r4]
 193:/Library/DaisyToolchain/0.2.0/arm/arm-none-eabi/include/c++/10.3.1/bits/std_function.h **** 
 8092              		.loc 3 193 8
 8093 0034 0AE0     		b	.L330
 8094              	.L332:
 196:/Library/DaisyToolchain/0.2.0/arm/arm-none-eabi/include/c++/10.3.1/bits/std_function.h **** 	      break;
 8095              		.loc 3 196 16
 8096 0036 2A46     		mov	r2, r5
 8097 0038 B968     		ldr	r1, [r7, #8]
 8098 003a F868     		ldr	r0, [r7, #12]
 8099 003c FFF7FEFF 		bl	_ZNSt14_Function_base13_Base_managerIZN5Mixer11initTrackIOEPN5daisy9DaisySeedE7TrackIOS5_S5_S5_
 197:/Library/DaisyToolchain/0.2.0/arm/arm-none-eabi/include/c++/10.3.1/bits/std_function.h **** 
 8100              		.loc 3 197 8
 8101 0040 04E0     		b	.L330
 8102              	.L329:
 200:/Library/DaisyToolchain/0.2.0/arm/arm-none-eabi/include/c++/10.3.1/bits/std_function.h **** 	      break;
 8103              		.loc 3 200 18
 8104 0042 2146     		mov	r1, r4
 8105 0044 F868     		ldr	r0, [r7, #12]
 8106 0046 FFF7FEFF 		bl	_ZNSt14_Function_base13_Base_managerIZN5Mixer11initTrackIOEPN5daisy9DaisySeedE7TrackIOS5_S5_S5_
 201:/Library/DaisyToolchain/0.2.0/arm/arm-none-eabi/include/c++/10.3.1/bits/std_function.h **** 	    }
 8107              		.loc 3 201 8
 8108 004a 00BF     		nop
 8109              	.L330:
 203:/Library/DaisyToolchain/0.2.0/arm/arm-none-eabi/include/c++/10.3.1/bits/std_function.h **** 	}
 8110              		.loc 3 203 11
 8111 004c 0023     		movs	r3, #0
 204:/Library/DaisyToolchain/0.2.0/arm/arm-none-eabi/include/c++/10.3.1/bits/std_function.h **** 
 8112              		.loc 3 204 2
 8113 004e 1846     		mov	r0, r3
 8114 0050 1037     		adds	r7, r7, #16
 8115              		.cfi_def_cfa_offset 16
 8116 0052 BD46     		mov	sp, r7
 8117              		.cfi_def_cfa_register 13
 8118              		@ sp needed
 8119 0054 B0BD     		pop	{r4, r5, r7, pc}
 8120              		.cfi_endproc
 8121              	.LFE6302:
 8123              		.section	.text._ZNSt14_Function_base13_Base_managerIZN5Mixer11initTrackIOEPN5daisy9DaisySeedE7Trac
 8124              		.align	1
 8125              		.syntax unified
 8126              		.thumb
 8127              		.thumb_func
 8129              	_ZNSt14_Function_base13_Base_managerIZN5Mixer11initTrackIOEPN5daisy9DaisySeedE7TrackIOS5_S5_S5_EUlf
 8130              	.LFB6303:
 232:/Library/DaisyToolchain/0.2.0/arm/arm-none-eabi/include/c++/10.3.1/bits/std_function.h **** 	{ ::new (__functor._M_access()) _Functor(std::move(__f)); }
 8131              		.loc 3 232 2
ARM GAS  /var/folders/wz/z09yph4n0qj4t7mjxhl6ttn80000gn/T//ccxdcdyF.s 			page 177


 8132              		.cfi_startproc
 8133              		@ args = 0, pretend = 0, frame = 16
 8134              		@ frame_needed = 1, uses_anonymous_args = 0
 8135 0000 90B5     		push	{r4, r7, lr}
 8136              		.cfi_def_cfa_offset 12
 8137              		.cfi_offset 4, -12
 8138              		.cfi_offset 7, -8
 8139              		.cfi_offset 14, -4
 8140 0002 85B0     		sub	sp, sp, #20
 8141              		.cfi_def_cfa_offset 32
 8142 0004 00AF     		add	r7, sp, #0
 8143              		.cfi_def_cfa_register 7
 8144 0006 F860     		str	r0, [r7, #12]
 8145 0008 B960     		str	r1, [r7, #8]
 8146 000a 3A71     		strb	r2, [r7, #4]
 233:/Library/DaisyToolchain/0.2.0/arm/arm-none-eabi/include/c++/10.3.1/bits/std_function.h **** 
 8147              		.loc 3 233 52
 8148 000c B868     		ldr	r0, [r7, #8]
 8149 000e FFF7FEFF 		bl	_ZSt4moveIRZN5Mixer11initTrackIOEPN5daisy9DaisySeedE7TrackIOS4_S4_S4_EUlfE4_EONSt16remove_refer
 8150 0012 0446     		mov	r4, r0
 233:/Library/DaisyToolchain/0.2.0/arm/arm-none-eabi/include/c++/10.3.1/bits/std_function.h **** 
 8151              		.loc 3 233 30
 8152 0014 F868     		ldr	r0, [r7, #12]
 8153 0016 FFF7FEFF 		bl	_ZNSt9_Any_data9_M_accessEv
 8154 001a 0346     		mov	r3, r0
 233:/Library/DaisyToolchain/0.2.0/arm/arm-none-eabi/include/c++/10.3.1/bits/std_function.h **** 
 8155              		.loc 3 233 4
 8156 001c 1946     		mov	r1, r3
 8157 001e 0420     		movs	r0, #4
 8158 0020 FFF7FEFF 		bl	_ZnwjPv
 8159 0024 0246     		mov	r2, r0
 8160 0026 2368     		ldr	r3, [r4]
 8161 0028 1360     		str	r3, [r2]
 233:/Library/DaisyToolchain/0.2.0/arm/arm-none-eabi/include/c++/10.3.1/bits/std_function.h **** 
 8162              		.loc 3 233 60
 8163 002a 00BF     		nop
 8164 002c 1437     		adds	r7, r7, #20
 8165              		.cfi_def_cfa_offset 12
 8166 002e BD46     		mov	sp, r7
 8167              		.cfi_def_cfa_register 13
 8168              		@ sp needed
 8169 0030 90BD     		pop	{r4, r7, pc}
 8170              		.cfi_endproc
 8171              	.LFE6303:
 8173              		.section	.text._ZNSt14_Function_base13_Base_managerIZN5Mixer11initTrackIOEPN5daisy9DaisySeedE7Trac
 8174              		.align	1
 8175              		.syntax unified
 8176              		.thumb
 8177              		.thumb_func
 8179              	_ZNSt14_Function_base13_Base_managerIZN5Mixer11initTrackIOEPN5daisy9DaisySeedE7TrackIOS5_S5_S5_EUlf
 8180              	.LFB6304:
 136:/Library/DaisyToolchain/0.2.0/arm/arm-none-eabi/include/c++/10.3.1/bits/std_function.h **** 	{
 8181              		.loc 3 136 2
 8182              		.cfi_startproc
 8183              		@ args = 0, pretend = 0, frame = 16
 8184              		@ frame_needed = 1, uses_anonymous_args = 0
 8185 0000 80B5     		push	{r7, lr}
ARM GAS  /var/folders/wz/z09yph4n0qj4t7mjxhl6ttn80000gn/T//ccxdcdyF.s 			page 178


 8186              		.cfi_def_cfa_offset 8
 8187              		.cfi_offset 7, -8
 8188              		.cfi_offset 14, -4
 8189 0002 84B0     		sub	sp, sp, #16
 8190              		.cfi_def_cfa_offset 24
 8191 0004 00AF     		add	r7, sp, #0
 8192              		.cfi_def_cfa_register 7
 8193 0006 7860     		str	r0, [r7, #4]
 8194              	.LBB42:
 8195              	.LBB43:
 140:/Library/DaisyToolchain/0.2.0/arm/arm-none-eabi/include/c++/10.3.1/bits/std_function.h **** 	      return const_cast<_Functor*>(std::__addressof(__f));
 8196              		.loc 3 140 58
 8197 0008 7868     		ldr	r0, [r7, #4]
 8198 000a FFF7FEFF 		bl	_ZNKSt9_Any_data9_M_accessIZN5Mixer11initTrackIOEPN5daisy9DaisySeedE7TrackIOS5_S5_S5_EUlfE4_EER
 8199 000e F860     		str	r0, [r7, #12]
 141:/Library/DaisyToolchain/0.2.0/arm/arm-none-eabi/include/c++/10.3.1/bits/std_function.h **** 	    }
 8200              		.loc 3 141 53
 8201 0010 F868     		ldr	r0, [r7, #12]
 8202 0012 FFF7FEFF 		bl	_ZSt11__addressofIKZN5Mixer11initTrackIOEPN5daisy9DaisySeedE7TrackIOS4_S4_S4_EUlfE4_EPT_RS7_
 8203 0016 0346     		mov	r3, r0
 141:/Library/DaisyToolchain/0.2.0/arm/arm-none-eabi/include/c++/10.3.1/bits/std_function.h **** 	    }
 8204              		.loc 3 141 58
 8205 0018 00BF     		nop
 8206              	.LBE43:
 8207              	.LBE42:
 145:/Library/DaisyToolchain/0.2.0/arm/arm-none-eabi/include/c++/10.3.1/bits/std_function.h **** 
 8208              		.loc 3 145 2
 8209 001a 1846     		mov	r0, r3
 8210 001c 1037     		adds	r7, r7, #16
 8211              		.cfi_def_cfa_offset 8
 8212 001e BD46     		mov	sp, r7
 8213              		.cfi_def_cfa_register 13
 8214              		@ sp needed
 8215 0020 80BD     		pop	{r7, pc}
 8216              		.cfi_endproc
 8217              	.LFE6304:
 8219              		.section	.text._ZSt10__invoke_rIvRZN5Mixer11initTrackIOEPN5daisy9DaisySeedE7TrackIOS4_S4_S4_EUlfE4
 8220              		.align	1
 8221              		.syntax unified
 8222              		.thumb
 8223              		.thumb_func
 8225              	_ZSt10__invoke_rIvRZN5Mixer11initTrackIOEPN5daisy9DaisySeedE7TrackIOS4_S4_S4_EUlfE4_JfEENSt9enable_
 8226              	.LFB6305:
 148:/Library/DaisyToolchain/0.2.0/arm/arm-none-eabi/include/c++/10.3.1/bits/invoke.h ****     {
 8227              		.loc 9 148 5
 8228              		.cfi_startproc
 8229              		@ args = 0, pretend = 0, frame = 8
 8230              		@ frame_needed = 1, uses_anonymous_args = 0
 8231 0000 B0B5     		push	{r4, r5, r7, lr}
 8232              		.cfi_def_cfa_offset 16
 8233              		.cfi_offset 4, -16
 8234              		.cfi_offset 5, -12
 8235              		.cfi_offset 7, -8
 8236              		.cfi_offset 14, -4
 8237 0002 82B0     		sub	sp, sp, #8
 8238              		.cfi_def_cfa_offset 24
 8239 0004 00AF     		add	r7, sp, #0
ARM GAS  /var/folders/wz/z09yph4n0qj4t7mjxhl6ttn80000gn/T//ccxdcdyF.s 			page 179


 8240              		.cfi_def_cfa_register 7
 8241 0006 7860     		str	r0, [r7, #4]
 8242 0008 3960     		str	r1, [r7]
 153:/Library/DaisyToolchain/0.2.0/arm/arm-none-eabi/include/c++/10.3.1/bits/invoke.h **** 				 std::forward<_Args>(__args)...);
 8243              		.loc 9 153 33
 8244 000a 7868     		ldr	r0, [r7, #4]
 8245 000c FFF7FEFF 		bl	_ZSt7forwardIRZN5Mixer11initTrackIOEPN5daisy9DaisySeedE7TrackIOS4_S4_S4_EUlfE4_EOT_RNSt16remove
 8246 0010 0446     		mov	r4, r0
 8247 0012 3868     		ldr	r0, [r7]
 8248 0014 FFF7FEFF 		bl	_ZSt7forwardIfEOT_RNSt16remove_referenceIS0_E4typeE
 8249 0018 0346     		mov	r3, r0
 8250 001a 1A46     		mov	r2, r3
 8251 001c 2146     		mov	r1, r4
 8252 001e 2846     		mov	r0, r5
 8253 0020 FFF7FEFF 		bl	_ZSt13__invoke_implIvRZN5Mixer11initTrackIOEPN5daisy9DaisySeedE7TrackIOS4_S4_S4_EUlfE4_JfEET_St
 8254              		.loc 9 155 5
 8255 0024 00BF     		nop
 8256 0026 0837     		adds	r7, r7, #8
 8257              		.cfi_def_cfa_offset 16
 8258 0028 BD46     		mov	sp, r7
 8259              		.cfi_def_cfa_register 13
 8260              		@ sp needed
 8261 002a B0BD     		pop	{r4, r5, r7, pc}
 8262              		.cfi_endproc
 8263              	.LFE6305:
 8265              		.section	.text._ZNSt9_Any_data9_M_accessIPZN5Mixer11initTrackIOEPN5daisy9DaisySeedE7TrackIOS5_S5_S
 8266              		.align	1
 8267              		.syntax unified
 8268              		.thumb
 8269              		.thumb_func
 8271              	_ZNSt9_Any_data9_M_accessIPZN5Mixer11initTrackIOEPN5daisy9DaisySeedE7TrackIOS5_S5_S5_EUlfE4_EERT_v:
 8272              	.LFB6306:
  92:/Library/DaisyToolchain/0.2.0/arm/arm-none-eabi/include/c++/10.3.1/bits/std_function.h ****       { return *static_cast<_Tp*>(_M_access()); }
 8273              		.loc 3 92 7
 8274              		.cfi_startproc
 8275              		@ args = 0, pretend = 0, frame = 8
 8276              		@ frame_needed = 1, uses_anonymous_args = 0
 8277 0000 80B5     		push	{r7, lr}
 8278              		.cfi_def_cfa_offset 8
 8279              		.cfi_offset 7, -8
 8280              		.cfi_offset 14, -4
 8281 0002 82B0     		sub	sp, sp, #8
 8282              		.cfi_def_cfa_offset 16
 8283 0004 00AF     		add	r7, sp, #0
 8284              		.cfi_def_cfa_register 7
 8285 0006 7860     		str	r0, [r7, #4]
  93:/Library/DaisyToolchain/0.2.0/arm/arm-none-eabi/include/c++/10.3.1/bits/std_function.h **** 
 8286              		.loc 3 93 44
 8287 0008 7868     		ldr	r0, [r7, #4]
 8288 000a FFF7FEFF 		bl	_ZNSt9_Any_data9_M_accessEv
 8289 000e 0346     		mov	r3, r0
  93:/Library/DaisyToolchain/0.2.0/arm/arm-none-eabi/include/c++/10.3.1/bits/std_function.h **** 
 8290              		.loc 3 93 49
 8291 0010 1846     		mov	r0, r3
 8292 0012 0837     		adds	r7, r7, #8
 8293              		.cfi_def_cfa_offset 8
 8294 0014 BD46     		mov	sp, r7
ARM GAS  /var/folders/wz/z09yph4n0qj4t7mjxhl6ttn80000gn/T//ccxdcdyF.s 			page 180


 8295              		.cfi_def_cfa_register 13
 8296              		@ sp needed
 8297 0016 80BD     		pop	{r7, pc}
 8298              		.cfi_endproc
 8299              	.LFE6306:
 8301              		.section	.text._ZNSt14_Function_base13_Base_managerIZN5Mixer11initTrackIOEPN5daisy9DaisySeedE7Trac
 8302              		.align	1
 8303              		.syntax unified
 8304              		.thumb
 8305              		.thumb_func
 8307              	_ZNSt14_Function_base13_Base_managerIZN5Mixer11initTrackIOEPN5daisy9DaisySeedE7TrackIOS5_S5_S5_EUlf
 8308              	.LFB6307:
 181:/Library/DaisyToolchain/0.2.0/arm/arm-none-eabi/include/c++/10.3.1/bits/std_function.h **** 		   _Manager_operation __op)
 8309              		.loc 3 181 2
 8310              		.cfi_startproc
 8311              		@ args = 0, pretend = 0, frame = 16
 8312              		@ frame_needed = 1, uses_anonymous_args = 0
 8313 0000 B0B5     		push	{r4, r5, r7, lr}
 8314              		.cfi_def_cfa_offset 16
 8315              		.cfi_offset 4, -16
 8316              		.cfi_offset 5, -12
 8317              		.cfi_offset 7, -8
 8318              		.cfi_offset 14, -4
 8319 0002 84B0     		sub	sp, sp, #16
 8320              		.cfi_def_cfa_offset 32
 8321 0004 00AF     		add	r7, sp, #0
 8322              		.cfi_def_cfa_register 7
 8323 0006 F860     		str	r0, [r7, #12]
 8324 0008 B960     		str	r1, [r7, #8]
 8325 000a 1346     		mov	r3, r2
 8326 000c FB71     		strb	r3, [r7, #7]
 184:/Library/DaisyToolchain/0.2.0/arm/arm-none-eabi/include/c++/10.3.1/bits/std_function.h **** 	    {
 8327              		.loc 3 184 12
 8328 000e FB79     		ldrb	r3, [r7, #7]	@ zero_extendqisi2
 184:/Library/DaisyToolchain/0.2.0/arm/arm-none-eabi/include/c++/10.3.1/bits/std_function.h **** 	    {
 8329              		.loc 3 184 4
 8330 0010 032B     		cmp	r3, #3
 8331 0012 16D0     		beq	.L341
 8332 0014 032B     		cmp	r3, #3
 8333 0016 19DC     		bgt	.L342
 8334 0018 012B     		cmp	r3, #1
 8335 001a 02D0     		beq	.L343
 8336 001c 022B     		cmp	r3, #2
 8337 001e 0AD0     		beq	.L344
 8338 0020 14E0     		b	.L342
 8339              	.L343:
 192:/Library/DaisyToolchain/0.2.0/arm/arm-none-eabi/include/c++/10.3.1/bits/std_function.h **** 	      break;
 8340              		.loc 3 192 35
 8341 0022 F868     		ldr	r0, [r7, #12]
 8342 0024 FFF7FEFF 		bl	_ZNSt9_Any_data9_M_accessIPZN5Mixer11initTrackIOEPN5daisy9DaisySeedE7TrackIOS5_S5_S5_EUlfE4_EER
 8343 0028 0446     		mov	r4, r0
 192:/Library/DaisyToolchain/0.2.0/arm/arm-none-eabi/include/c++/10.3.1/bits/std_function.h **** 	      break;
 8344              		.loc 3 192 54
 8345 002a B868     		ldr	r0, [r7, #8]
 8346 002c FFF7FEFF 		bl	_ZNSt14_Function_base13_Base_managerIZN5Mixer11initTrackIOEPN5daisy9DaisySeedE7TrackIOS5_S5_S5_
 8347 0030 0346     		mov	r3, r0
 192:/Library/DaisyToolchain/0.2.0/arm/arm-none-eabi/include/c++/10.3.1/bits/std_function.h **** 	      break;
ARM GAS  /var/folders/wz/z09yph4n0qj4t7mjxhl6ttn80000gn/T//ccxdcdyF.s 			page 181


 8348              		.loc 3 192 38
 8349 0032 2360     		str	r3, [r4]
 193:/Library/DaisyToolchain/0.2.0/arm/arm-none-eabi/include/c++/10.3.1/bits/std_function.h **** 
 8350              		.loc 3 193 8
 8351 0034 0AE0     		b	.L342
 8352              	.L344:
 196:/Library/DaisyToolchain/0.2.0/arm/arm-none-eabi/include/c++/10.3.1/bits/std_function.h **** 	      break;
 8353              		.loc 3 196 16
 8354 0036 2A46     		mov	r2, r5
 8355 0038 B968     		ldr	r1, [r7, #8]
 8356 003a F868     		ldr	r0, [r7, #12]
 8357 003c FFF7FEFF 		bl	_ZNSt14_Function_base13_Base_managerIZN5Mixer11initTrackIOEPN5daisy9DaisySeedE7TrackIOS5_S5_S5_
 197:/Library/DaisyToolchain/0.2.0/arm/arm-none-eabi/include/c++/10.3.1/bits/std_function.h **** 
 8358              		.loc 3 197 8
 8359 0040 04E0     		b	.L342
 8360              	.L341:
 200:/Library/DaisyToolchain/0.2.0/arm/arm-none-eabi/include/c++/10.3.1/bits/std_function.h **** 	      break;
 8361              		.loc 3 200 18
 8362 0042 2146     		mov	r1, r4
 8363 0044 F868     		ldr	r0, [r7, #12]
 8364 0046 FFF7FEFF 		bl	_ZNSt14_Function_base13_Base_managerIZN5Mixer11initTrackIOEPN5daisy9DaisySeedE7TrackIOS5_S5_S5_
 201:/Library/DaisyToolchain/0.2.0/arm/arm-none-eabi/include/c++/10.3.1/bits/std_function.h **** 	    }
 8365              		.loc 3 201 8
 8366 004a 00BF     		nop
 8367              	.L342:
 203:/Library/DaisyToolchain/0.2.0/arm/arm-none-eabi/include/c++/10.3.1/bits/std_function.h **** 	}
 8368              		.loc 3 203 11
 8369 004c 0023     		movs	r3, #0
 204:/Library/DaisyToolchain/0.2.0/arm/arm-none-eabi/include/c++/10.3.1/bits/std_function.h **** 
 8370              		.loc 3 204 2
 8371 004e 1846     		mov	r0, r3
 8372 0050 1037     		adds	r7, r7, #16
 8373              		.cfi_def_cfa_offset 16
 8374 0052 BD46     		mov	sp, r7
 8375              		.cfi_def_cfa_register 13
 8376              		@ sp needed
 8377 0054 B0BD     		pop	{r4, r5, r7, pc}
 8378              		.cfi_endproc
 8379              	.LFE6307:
 8381              		.section	.text._ZNSt14_Function_base13_Base_managerIZN5Mixer11initTrackIOEPN5daisy9DaisySeedE7Trac
 8382              		.align	1
 8383              		.syntax unified
 8384              		.thumb
 8385              		.thumb_func
 8387              	_ZNSt14_Function_base13_Base_managerIZN5Mixer11initTrackIOEPN5daisy9DaisySeedE7TrackIOS5_S5_S5_EUlf
 8388              	.LFB6308:
 232:/Library/DaisyToolchain/0.2.0/arm/arm-none-eabi/include/c++/10.3.1/bits/std_function.h **** 	{ ::new (__functor._M_access()) _Functor(std::move(__f)); }
 8389              		.loc 3 232 2
 8390              		.cfi_startproc
 8391              		@ args = 0, pretend = 0, frame = 16
 8392              		@ frame_needed = 1, uses_anonymous_args = 0
 8393 0000 90B5     		push	{r4, r7, lr}
 8394              		.cfi_def_cfa_offset 12
 8395              		.cfi_offset 4, -12
 8396              		.cfi_offset 7, -8
 8397              		.cfi_offset 14, -4
 8398 0002 85B0     		sub	sp, sp, #20
ARM GAS  /var/folders/wz/z09yph4n0qj4t7mjxhl6ttn80000gn/T//ccxdcdyF.s 			page 182


 8399              		.cfi_def_cfa_offset 32
 8400 0004 00AF     		add	r7, sp, #0
 8401              		.cfi_def_cfa_register 7
 8402 0006 F860     		str	r0, [r7, #12]
 8403 0008 B960     		str	r1, [r7, #8]
 8404 000a 3A71     		strb	r2, [r7, #4]
 233:/Library/DaisyToolchain/0.2.0/arm/arm-none-eabi/include/c++/10.3.1/bits/std_function.h **** 
 8405              		.loc 3 233 52
 8406 000c B868     		ldr	r0, [r7, #8]
 8407 000e FFF7FEFF 		bl	_ZSt4moveIRZN5Mixer11initTrackIOEPN5daisy9DaisySeedE7TrackIOS4_S4_S4_EUlfE5_EONSt16remove_refer
 8408 0012 0446     		mov	r4, r0
 233:/Library/DaisyToolchain/0.2.0/arm/arm-none-eabi/include/c++/10.3.1/bits/std_function.h **** 
 8409              		.loc 3 233 30
 8410 0014 F868     		ldr	r0, [r7, #12]
 8411 0016 FFF7FEFF 		bl	_ZNSt9_Any_data9_M_accessEv
 8412 001a 0346     		mov	r3, r0
 233:/Library/DaisyToolchain/0.2.0/arm/arm-none-eabi/include/c++/10.3.1/bits/std_function.h **** 
 8413              		.loc 3 233 4
 8414 001c 1946     		mov	r1, r3
 8415 001e 0420     		movs	r0, #4
 8416 0020 FFF7FEFF 		bl	_ZnwjPv
 8417 0024 0246     		mov	r2, r0
 8418 0026 2368     		ldr	r3, [r4]
 8419 0028 1360     		str	r3, [r2]
 233:/Library/DaisyToolchain/0.2.0/arm/arm-none-eabi/include/c++/10.3.1/bits/std_function.h **** 
 8420              		.loc 3 233 60
 8421 002a 00BF     		nop
 8422 002c 1437     		adds	r7, r7, #20
 8423              		.cfi_def_cfa_offset 12
 8424 002e BD46     		mov	sp, r7
 8425              		.cfi_def_cfa_register 13
 8426              		@ sp needed
 8427 0030 90BD     		pop	{r4, r7, pc}
 8428              		.cfi_endproc
 8429              	.LFE6308:
 8431              		.section	.text._ZNSt14_Function_base13_Base_managerIZN5Mixer11initTrackIOEPN5daisy9DaisySeedE7Trac
 8432              		.align	1
 8433              		.syntax unified
 8434              		.thumb
 8435              		.thumb_func
 8437              	_ZNSt14_Function_base13_Base_managerIZN5Mixer11initTrackIOEPN5daisy9DaisySeedE7TrackIOS5_S5_S5_EUlf
 8438              	.LFB6309:
 136:/Library/DaisyToolchain/0.2.0/arm/arm-none-eabi/include/c++/10.3.1/bits/std_function.h **** 	{
 8439              		.loc 3 136 2
 8440              		.cfi_startproc
 8441              		@ args = 0, pretend = 0, frame = 16
 8442              		@ frame_needed = 1, uses_anonymous_args = 0
 8443 0000 80B5     		push	{r7, lr}
 8444              		.cfi_def_cfa_offset 8
 8445              		.cfi_offset 7, -8
 8446              		.cfi_offset 14, -4
 8447 0002 84B0     		sub	sp, sp, #16
 8448              		.cfi_def_cfa_offset 24
 8449 0004 00AF     		add	r7, sp, #0
 8450              		.cfi_def_cfa_register 7
 8451 0006 7860     		str	r0, [r7, #4]
 8452              	.LBB44:
ARM GAS  /var/folders/wz/z09yph4n0qj4t7mjxhl6ttn80000gn/T//ccxdcdyF.s 			page 183


 8453              	.LBB45:
 140:/Library/DaisyToolchain/0.2.0/arm/arm-none-eabi/include/c++/10.3.1/bits/std_function.h **** 	      return const_cast<_Functor*>(std::__addressof(__f));
 8454              		.loc 3 140 58
 8455 0008 7868     		ldr	r0, [r7, #4]
 8456 000a FFF7FEFF 		bl	_ZNKSt9_Any_data9_M_accessIZN5Mixer11initTrackIOEPN5daisy9DaisySeedE7TrackIOS5_S5_S5_EUlfE5_EER
 8457 000e F860     		str	r0, [r7, #12]
 141:/Library/DaisyToolchain/0.2.0/arm/arm-none-eabi/include/c++/10.3.1/bits/std_function.h **** 	    }
 8458              		.loc 3 141 53
 8459 0010 F868     		ldr	r0, [r7, #12]
 8460 0012 FFF7FEFF 		bl	_ZSt11__addressofIKZN5Mixer11initTrackIOEPN5daisy9DaisySeedE7TrackIOS4_S4_S4_EUlfE5_EPT_RS7_
 8461 0016 0346     		mov	r3, r0
 141:/Library/DaisyToolchain/0.2.0/arm/arm-none-eabi/include/c++/10.3.1/bits/std_function.h **** 	    }
 8462              		.loc 3 141 58
 8463 0018 00BF     		nop
 8464              	.LBE45:
 8465              	.LBE44:
 145:/Library/DaisyToolchain/0.2.0/arm/arm-none-eabi/include/c++/10.3.1/bits/std_function.h **** 
 8466              		.loc 3 145 2
 8467 001a 1846     		mov	r0, r3
 8468 001c 1037     		adds	r7, r7, #16
 8469              		.cfi_def_cfa_offset 8
 8470 001e BD46     		mov	sp, r7
 8471              		.cfi_def_cfa_register 13
 8472              		@ sp needed
 8473 0020 80BD     		pop	{r7, pc}
 8474              		.cfi_endproc
 8475              	.LFE6309:
 8477              		.section	.text._ZSt10__invoke_rIvRZN5Mixer11initTrackIOEPN5daisy9DaisySeedE7TrackIOS4_S4_S4_EUlfE5
 8478              		.align	1
 8479              		.syntax unified
 8480              		.thumb
 8481              		.thumb_func
 8483              	_ZSt10__invoke_rIvRZN5Mixer11initTrackIOEPN5daisy9DaisySeedE7TrackIOS4_S4_S4_EUlfE5_JfEENSt9enable_
 8484              	.LFB6310:
 148:/Library/DaisyToolchain/0.2.0/arm/arm-none-eabi/include/c++/10.3.1/bits/invoke.h ****     {
 8485              		.loc 9 148 5
 8486              		.cfi_startproc
 8487              		@ args = 0, pretend = 0, frame = 8
 8488              		@ frame_needed = 1, uses_anonymous_args = 0
 8489 0000 B0B5     		push	{r4, r5, r7, lr}
 8490              		.cfi_def_cfa_offset 16
 8491              		.cfi_offset 4, -16
 8492              		.cfi_offset 5, -12
 8493              		.cfi_offset 7, -8
 8494              		.cfi_offset 14, -4
 8495 0002 82B0     		sub	sp, sp, #8
 8496              		.cfi_def_cfa_offset 24
 8497 0004 00AF     		add	r7, sp, #0
 8498              		.cfi_def_cfa_register 7
 8499 0006 7860     		str	r0, [r7, #4]
 8500 0008 3960     		str	r1, [r7]
 153:/Library/DaisyToolchain/0.2.0/arm/arm-none-eabi/include/c++/10.3.1/bits/invoke.h **** 				 std::forward<_Args>(__args)...);
 8501              		.loc 9 153 33
 8502 000a 7868     		ldr	r0, [r7, #4]
 8503 000c FFF7FEFF 		bl	_ZSt7forwardIRZN5Mixer11initTrackIOEPN5daisy9DaisySeedE7TrackIOS4_S4_S4_EUlfE5_EOT_RNSt16remove
 8504 0010 0446     		mov	r4, r0
 8505 0012 3868     		ldr	r0, [r7]
ARM GAS  /var/folders/wz/z09yph4n0qj4t7mjxhl6ttn80000gn/T//ccxdcdyF.s 			page 184


 8506 0014 FFF7FEFF 		bl	_ZSt7forwardIfEOT_RNSt16remove_referenceIS0_E4typeE
 8507 0018 0346     		mov	r3, r0
 8508 001a 1A46     		mov	r2, r3
 8509 001c 2146     		mov	r1, r4
 8510 001e 2846     		mov	r0, r5
 8511 0020 FFF7FEFF 		bl	_ZSt13__invoke_implIvRZN5Mixer11initTrackIOEPN5daisy9DaisySeedE7TrackIOS4_S4_S4_EUlfE5_JfEET_St
 8512              		.loc 9 155 5
 8513 0024 00BF     		nop
 8514 0026 0837     		adds	r7, r7, #8
 8515              		.cfi_def_cfa_offset 16
 8516 0028 BD46     		mov	sp, r7
 8517              		.cfi_def_cfa_register 13
 8518              		@ sp needed
 8519 002a B0BD     		pop	{r4, r5, r7, pc}
 8520              		.cfi_endproc
 8521              	.LFE6310:
 8523              		.section	.text._ZNSt9_Any_data9_M_accessIPZN5Mixer11initTrackIOEPN5daisy9DaisySeedE7TrackIOS5_S5_S
 8524              		.align	1
 8525              		.syntax unified
 8526              		.thumb
 8527              		.thumb_func
 8529              	_ZNSt9_Any_data9_M_accessIPZN5Mixer11initTrackIOEPN5daisy9DaisySeedE7TrackIOS5_S5_S5_EUlfE5_EERT_v:
 8530              	.LFB6311:
  92:/Library/DaisyToolchain/0.2.0/arm/arm-none-eabi/include/c++/10.3.1/bits/std_function.h ****       { return *static_cast<_Tp*>(_M_access()); }
 8531              		.loc 3 92 7
 8532              		.cfi_startproc
 8533              		@ args = 0, pretend = 0, frame = 8
 8534              		@ frame_needed = 1, uses_anonymous_args = 0
 8535 0000 80B5     		push	{r7, lr}
 8536              		.cfi_def_cfa_offset 8
 8537              		.cfi_offset 7, -8
 8538              		.cfi_offset 14, -4
 8539 0002 82B0     		sub	sp, sp, #8
 8540              		.cfi_def_cfa_offset 16
 8541 0004 00AF     		add	r7, sp, #0
 8542              		.cfi_def_cfa_register 7
 8543 0006 7860     		str	r0, [r7, #4]
  93:/Library/DaisyToolchain/0.2.0/arm/arm-none-eabi/include/c++/10.3.1/bits/std_function.h **** 
 8544              		.loc 3 93 44
 8545 0008 7868     		ldr	r0, [r7, #4]
 8546 000a FFF7FEFF 		bl	_ZNSt9_Any_data9_M_accessEv
 8547 000e 0346     		mov	r3, r0
  93:/Library/DaisyToolchain/0.2.0/arm/arm-none-eabi/include/c++/10.3.1/bits/std_function.h **** 
 8548              		.loc 3 93 49
 8549 0010 1846     		mov	r0, r3
 8550 0012 0837     		adds	r7, r7, #8
 8551              		.cfi_def_cfa_offset 8
 8552 0014 BD46     		mov	sp, r7
 8553              		.cfi_def_cfa_register 13
 8554              		@ sp needed
 8555 0016 80BD     		pop	{r7, pc}
 8556              		.cfi_endproc
 8557              	.LFE6311:
 8559              		.section	.text._ZNSt14_Function_base13_Base_managerIZN5Mixer11initTrackIOEPN5daisy9DaisySeedE7Trac
 8560              		.align	1
 8561              		.syntax unified
 8562              		.thumb
ARM GAS  /var/folders/wz/z09yph4n0qj4t7mjxhl6ttn80000gn/T//ccxdcdyF.s 			page 185


 8563              		.thumb_func
 8565              	_ZNSt14_Function_base13_Base_managerIZN5Mixer11initTrackIOEPN5daisy9DaisySeedE7TrackIOS5_S5_S5_EUlf
 8566              	.LFB6312:
 181:/Library/DaisyToolchain/0.2.0/arm/arm-none-eabi/include/c++/10.3.1/bits/std_function.h **** 		   _Manager_operation __op)
 8567              		.loc 3 181 2
 8568              		.cfi_startproc
 8569              		@ args = 0, pretend = 0, frame = 16
 8570              		@ frame_needed = 1, uses_anonymous_args = 0
 8571 0000 B0B5     		push	{r4, r5, r7, lr}
 8572              		.cfi_def_cfa_offset 16
 8573              		.cfi_offset 4, -16
 8574              		.cfi_offset 5, -12
 8575              		.cfi_offset 7, -8
 8576              		.cfi_offset 14, -4
 8577 0002 84B0     		sub	sp, sp, #16
 8578              		.cfi_def_cfa_offset 32
 8579 0004 00AF     		add	r7, sp, #0
 8580              		.cfi_def_cfa_register 7
 8581 0006 F860     		str	r0, [r7, #12]
 8582 0008 B960     		str	r1, [r7, #8]
 8583 000a 1346     		mov	r3, r2
 8584 000c FB71     		strb	r3, [r7, #7]
 184:/Library/DaisyToolchain/0.2.0/arm/arm-none-eabi/include/c++/10.3.1/bits/std_function.h **** 	    {
 8585              		.loc 3 184 12
 8586 000e FB79     		ldrb	r3, [r7, #7]	@ zero_extendqisi2
 184:/Library/DaisyToolchain/0.2.0/arm/arm-none-eabi/include/c++/10.3.1/bits/std_function.h **** 	    {
 8587              		.loc 3 184 4
 8588 0010 032B     		cmp	r3, #3
 8589 0012 16D0     		beq	.L353
 8590 0014 032B     		cmp	r3, #3
 8591 0016 19DC     		bgt	.L354
 8592 0018 012B     		cmp	r3, #1
 8593 001a 02D0     		beq	.L355
 8594 001c 022B     		cmp	r3, #2
 8595 001e 0AD0     		beq	.L356
 8596 0020 14E0     		b	.L354
 8597              	.L355:
 192:/Library/DaisyToolchain/0.2.0/arm/arm-none-eabi/include/c++/10.3.1/bits/std_function.h **** 	      break;
 8598              		.loc 3 192 35
 8599 0022 F868     		ldr	r0, [r7, #12]
 8600 0024 FFF7FEFF 		bl	_ZNSt9_Any_data9_M_accessIPZN5Mixer11initTrackIOEPN5daisy9DaisySeedE7TrackIOS5_S5_S5_EUlfE5_EER
 8601 0028 0446     		mov	r4, r0
 192:/Library/DaisyToolchain/0.2.0/arm/arm-none-eabi/include/c++/10.3.1/bits/std_function.h **** 	      break;
 8602              		.loc 3 192 54
 8603 002a B868     		ldr	r0, [r7, #8]
 8604 002c FFF7FEFF 		bl	_ZNSt14_Function_base13_Base_managerIZN5Mixer11initTrackIOEPN5daisy9DaisySeedE7TrackIOS5_S5_S5_
 8605 0030 0346     		mov	r3, r0
 192:/Library/DaisyToolchain/0.2.0/arm/arm-none-eabi/include/c++/10.3.1/bits/std_function.h **** 	      break;
 8606              		.loc 3 192 38
 8607 0032 2360     		str	r3, [r4]
 193:/Library/DaisyToolchain/0.2.0/arm/arm-none-eabi/include/c++/10.3.1/bits/std_function.h **** 
 8608              		.loc 3 193 8
 8609 0034 0AE0     		b	.L354
 8610              	.L356:
 196:/Library/DaisyToolchain/0.2.0/arm/arm-none-eabi/include/c++/10.3.1/bits/std_function.h **** 	      break;
 8611              		.loc 3 196 16
 8612 0036 2A46     		mov	r2, r5
ARM GAS  /var/folders/wz/z09yph4n0qj4t7mjxhl6ttn80000gn/T//ccxdcdyF.s 			page 186


 8613 0038 B968     		ldr	r1, [r7, #8]
 8614 003a F868     		ldr	r0, [r7, #12]
 8615 003c FFF7FEFF 		bl	_ZNSt14_Function_base13_Base_managerIZN5Mixer11initTrackIOEPN5daisy9DaisySeedE7TrackIOS5_S5_S5_
 197:/Library/DaisyToolchain/0.2.0/arm/arm-none-eabi/include/c++/10.3.1/bits/std_function.h **** 
 8616              		.loc 3 197 8
 8617 0040 04E0     		b	.L354
 8618              	.L353:
 200:/Library/DaisyToolchain/0.2.0/arm/arm-none-eabi/include/c++/10.3.1/bits/std_function.h **** 	      break;
 8619              		.loc 3 200 18
 8620 0042 2146     		mov	r1, r4
 8621 0044 F868     		ldr	r0, [r7, #12]
 8622 0046 FFF7FEFF 		bl	_ZNSt14_Function_base13_Base_managerIZN5Mixer11initTrackIOEPN5daisy9DaisySeedE7TrackIOS5_S5_S5_
 201:/Library/DaisyToolchain/0.2.0/arm/arm-none-eabi/include/c++/10.3.1/bits/std_function.h **** 	    }
 8623              		.loc 3 201 8
 8624 004a 00BF     		nop
 8625              	.L354:
 203:/Library/DaisyToolchain/0.2.0/arm/arm-none-eabi/include/c++/10.3.1/bits/std_function.h **** 	}
 8626              		.loc 3 203 11
 8627 004c 0023     		movs	r3, #0
 204:/Library/DaisyToolchain/0.2.0/arm/arm-none-eabi/include/c++/10.3.1/bits/std_function.h **** 
 8628              		.loc 3 204 2
 8629 004e 1846     		mov	r0, r3
 8630 0050 1037     		adds	r7, r7, #16
 8631              		.cfi_def_cfa_offset 16
 8632 0052 BD46     		mov	sp, r7
 8633              		.cfi_def_cfa_register 13
 8634              		@ sp needed
 8635 0054 B0BD     		pop	{r4, r5, r7, pc}
 8636              		.cfi_endproc
 8637              	.LFE6312:
 8639              		.section	.text._ZNSt14_Function_base13_Base_managerIZN5Mixer11initTrackIOEPN5daisy9DaisySeedE7Trac
 8640              		.align	1
 8641              		.syntax unified
 8642              		.thumb
 8643              		.thumb_func
 8645              	_ZNSt14_Function_base13_Base_managerIZN5Mixer11initTrackIOEPN5daisy9DaisySeedE7TrackIOS5_S5_S5_EUlf
 8646              	.LFB6313:
 232:/Library/DaisyToolchain/0.2.0/arm/arm-none-eabi/include/c++/10.3.1/bits/std_function.h **** 	{ ::new (__functor._M_access()) _Functor(std::move(__f)); }
 8647              		.loc 3 232 2
 8648              		.cfi_startproc
 8649              		@ args = 0, pretend = 0, frame = 16
 8650              		@ frame_needed = 1, uses_anonymous_args = 0
 8651 0000 90B5     		push	{r4, r7, lr}
 8652              		.cfi_def_cfa_offset 12
 8653              		.cfi_offset 4, -12
 8654              		.cfi_offset 7, -8
 8655              		.cfi_offset 14, -4
 8656 0002 85B0     		sub	sp, sp, #20
 8657              		.cfi_def_cfa_offset 32
 8658 0004 00AF     		add	r7, sp, #0
 8659              		.cfi_def_cfa_register 7
 8660 0006 F860     		str	r0, [r7, #12]
 8661 0008 B960     		str	r1, [r7, #8]
 8662 000a 3A71     		strb	r2, [r7, #4]
 233:/Library/DaisyToolchain/0.2.0/arm/arm-none-eabi/include/c++/10.3.1/bits/std_function.h **** 
 8663              		.loc 3 233 52
 8664 000c B868     		ldr	r0, [r7, #8]
ARM GAS  /var/folders/wz/z09yph4n0qj4t7mjxhl6ttn80000gn/T//ccxdcdyF.s 			page 187


 8665 000e FFF7FEFF 		bl	_ZSt4moveIRZN5Mixer11initTrackIOEPN5daisy9DaisySeedE7TrackIOS4_S4_S4_EUlfE6_EONSt16remove_refer
 8666 0012 0446     		mov	r4, r0
 233:/Library/DaisyToolchain/0.2.0/arm/arm-none-eabi/include/c++/10.3.1/bits/std_function.h **** 
 8667              		.loc 3 233 30
 8668 0014 F868     		ldr	r0, [r7, #12]
 8669 0016 FFF7FEFF 		bl	_ZNSt9_Any_data9_M_accessEv
 8670 001a 0346     		mov	r3, r0
 233:/Library/DaisyToolchain/0.2.0/arm/arm-none-eabi/include/c++/10.3.1/bits/std_function.h **** 
 8671              		.loc 3 233 4
 8672 001c 1946     		mov	r1, r3
 8673 001e 0420     		movs	r0, #4
 8674 0020 FFF7FEFF 		bl	_ZnwjPv
 8675 0024 0246     		mov	r2, r0
 8676 0026 2368     		ldr	r3, [r4]
 8677 0028 1360     		str	r3, [r2]
 233:/Library/DaisyToolchain/0.2.0/arm/arm-none-eabi/include/c++/10.3.1/bits/std_function.h **** 
 8678              		.loc 3 233 60
 8679 002a 00BF     		nop
 8680 002c 1437     		adds	r7, r7, #20
 8681              		.cfi_def_cfa_offset 12
 8682 002e BD46     		mov	sp, r7
 8683              		.cfi_def_cfa_register 13
 8684              		@ sp needed
 8685 0030 90BD     		pop	{r4, r7, pc}
 8686              		.cfi_endproc
 8687              	.LFE6313:
 8689              		.section	.text._ZNSt14_Function_base13_Base_managerIZN5Mixer11initTrackIOEPN5daisy9DaisySeedE7Trac
 8690              		.align	1
 8691              		.syntax unified
 8692              		.thumb
 8693              		.thumb_func
 8695              	_ZNSt14_Function_base13_Base_managerIZN5Mixer11initTrackIOEPN5daisy9DaisySeedE7TrackIOS5_S5_S5_EUlf
 8696              	.LFB6314:
 136:/Library/DaisyToolchain/0.2.0/arm/arm-none-eabi/include/c++/10.3.1/bits/std_function.h **** 	{
 8697              		.loc 3 136 2
 8698              		.cfi_startproc
 8699              		@ args = 0, pretend = 0, frame = 16
 8700              		@ frame_needed = 1, uses_anonymous_args = 0
 8701 0000 80B5     		push	{r7, lr}
 8702              		.cfi_def_cfa_offset 8
 8703              		.cfi_offset 7, -8
 8704              		.cfi_offset 14, -4
 8705 0002 84B0     		sub	sp, sp, #16
 8706              		.cfi_def_cfa_offset 24
 8707 0004 00AF     		add	r7, sp, #0
 8708              		.cfi_def_cfa_register 7
 8709 0006 7860     		str	r0, [r7, #4]
 8710              	.LBB46:
 8711              	.LBB47:
 140:/Library/DaisyToolchain/0.2.0/arm/arm-none-eabi/include/c++/10.3.1/bits/std_function.h **** 	      return const_cast<_Functor*>(std::__addressof(__f));
 8712              		.loc 3 140 58
 8713 0008 7868     		ldr	r0, [r7, #4]
 8714 000a FFF7FEFF 		bl	_ZNKSt9_Any_data9_M_accessIZN5Mixer11initTrackIOEPN5daisy9DaisySeedE7TrackIOS5_S5_S5_EUlfE6_EER
 8715 000e F860     		str	r0, [r7, #12]
 141:/Library/DaisyToolchain/0.2.0/arm/arm-none-eabi/include/c++/10.3.1/bits/std_function.h **** 	    }
 8716              		.loc 3 141 53
 8717 0010 F868     		ldr	r0, [r7, #12]
ARM GAS  /var/folders/wz/z09yph4n0qj4t7mjxhl6ttn80000gn/T//ccxdcdyF.s 			page 188


 8718 0012 FFF7FEFF 		bl	_ZSt11__addressofIKZN5Mixer11initTrackIOEPN5daisy9DaisySeedE7TrackIOS4_S4_S4_EUlfE6_EPT_RS7_
 8719 0016 0346     		mov	r3, r0
 141:/Library/DaisyToolchain/0.2.0/arm/arm-none-eabi/include/c++/10.3.1/bits/std_function.h **** 	    }
 8720              		.loc 3 141 58
 8721 0018 00BF     		nop
 8722              	.LBE47:
 8723              	.LBE46:
 145:/Library/DaisyToolchain/0.2.0/arm/arm-none-eabi/include/c++/10.3.1/bits/std_function.h **** 
 8724              		.loc 3 145 2
 8725 001a 1846     		mov	r0, r3
 8726 001c 1037     		adds	r7, r7, #16
 8727              		.cfi_def_cfa_offset 8
 8728 001e BD46     		mov	sp, r7
 8729              		.cfi_def_cfa_register 13
 8730              		@ sp needed
 8731 0020 80BD     		pop	{r7, pc}
 8732              		.cfi_endproc
 8733              	.LFE6314:
 8735              		.section	.text._ZSt10__invoke_rIvRZN5Mixer11initTrackIOEPN5daisy9DaisySeedE7TrackIOS4_S4_S4_EUlfE6
 8736              		.align	1
 8737              		.syntax unified
 8738              		.thumb
 8739              		.thumb_func
 8741              	_ZSt10__invoke_rIvRZN5Mixer11initTrackIOEPN5daisy9DaisySeedE7TrackIOS4_S4_S4_EUlfE6_JfEENSt9enable_
 8742              	.LFB6315:
 148:/Library/DaisyToolchain/0.2.0/arm/arm-none-eabi/include/c++/10.3.1/bits/invoke.h ****     {
 8743              		.loc 9 148 5
 8744              		.cfi_startproc
 8745              		@ args = 0, pretend = 0, frame = 8
 8746              		@ frame_needed = 1, uses_anonymous_args = 0
 8747 0000 B0B5     		push	{r4, r5, r7, lr}
 8748              		.cfi_def_cfa_offset 16
 8749              		.cfi_offset 4, -16
 8750              		.cfi_offset 5, -12
 8751              		.cfi_offset 7, -8
 8752              		.cfi_offset 14, -4
 8753 0002 82B0     		sub	sp, sp, #8
 8754              		.cfi_def_cfa_offset 24
 8755 0004 00AF     		add	r7, sp, #0
 8756              		.cfi_def_cfa_register 7
 8757 0006 7860     		str	r0, [r7, #4]
 8758 0008 3960     		str	r1, [r7]
 153:/Library/DaisyToolchain/0.2.0/arm/arm-none-eabi/include/c++/10.3.1/bits/invoke.h **** 				 std::forward<_Args>(__args)...);
 8759              		.loc 9 153 33
 8760 000a 7868     		ldr	r0, [r7, #4]
 8761 000c FFF7FEFF 		bl	_ZSt7forwardIRZN5Mixer11initTrackIOEPN5daisy9DaisySeedE7TrackIOS4_S4_S4_EUlfE6_EOT_RNSt16remove
 8762 0010 0446     		mov	r4, r0
 8763 0012 3868     		ldr	r0, [r7]
 8764 0014 FFF7FEFF 		bl	_ZSt7forwardIfEOT_RNSt16remove_referenceIS0_E4typeE
 8765 0018 0346     		mov	r3, r0
 8766 001a 1A46     		mov	r2, r3
 8767 001c 2146     		mov	r1, r4
 8768 001e 2846     		mov	r0, r5
 8769 0020 FFF7FEFF 		bl	_ZSt13__invoke_implIvRZN5Mixer11initTrackIOEPN5daisy9DaisySeedE7TrackIOS4_S4_S4_EUlfE6_JfEET_St
 8770              		.loc 9 155 5
 8771 0024 00BF     		nop
 8772 0026 0837     		adds	r7, r7, #8
ARM GAS  /var/folders/wz/z09yph4n0qj4t7mjxhl6ttn80000gn/T//ccxdcdyF.s 			page 189


 8773              		.cfi_def_cfa_offset 16
 8774 0028 BD46     		mov	sp, r7
 8775              		.cfi_def_cfa_register 13
 8776              		@ sp needed
 8777 002a B0BD     		pop	{r4, r5, r7, pc}
 8778              		.cfi_endproc
 8779              	.LFE6315:
 8781              		.section	.text._ZNSt9_Any_data9_M_accessIPZN5Mixer11initTrackIOEPN5daisy9DaisySeedE7TrackIOS5_S5_S
 8782              		.align	1
 8783              		.syntax unified
 8784              		.thumb
 8785              		.thumb_func
 8787              	_ZNSt9_Any_data9_M_accessIPZN5Mixer11initTrackIOEPN5daisy9DaisySeedE7TrackIOS5_S5_S5_EUlfE6_EERT_v:
 8788              	.LFB6316:
  92:/Library/DaisyToolchain/0.2.0/arm/arm-none-eabi/include/c++/10.3.1/bits/std_function.h ****       { return *static_cast<_Tp*>(_M_access()); }
 8789              		.loc 3 92 7
 8790              		.cfi_startproc
 8791              		@ args = 0, pretend = 0, frame = 8
 8792              		@ frame_needed = 1, uses_anonymous_args = 0
 8793 0000 80B5     		push	{r7, lr}
 8794              		.cfi_def_cfa_offset 8
 8795              		.cfi_offset 7, -8
 8796              		.cfi_offset 14, -4
 8797 0002 82B0     		sub	sp, sp, #8
 8798              		.cfi_def_cfa_offset 16
 8799 0004 00AF     		add	r7, sp, #0
 8800              		.cfi_def_cfa_register 7
 8801 0006 7860     		str	r0, [r7, #4]
  93:/Library/DaisyToolchain/0.2.0/arm/arm-none-eabi/include/c++/10.3.1/bits/std_function.h **** 
 8802              		.loc 3 93 44
 8803 0008 7868     		ldr	r0, [r7, #4]
 8804 000a FFF7FEFF 		bl	_ZNSt9_Any_data9_M_accessEv
 8805 000e 0346     		mov	r3, r0
  93:/Library/DaisyToolchain/0.2.0/arm/arm-none-eabi/include/c++/10.3.1/bits/std_function.h **** 
 8806              		.loc 3 93 49
 8807 0010 1846     		mov	r0, r3
 8808 0012 0837     		adds	r7, r7, #8
 8809              		.cfi_def_cfa_offset 8
 8810 0014 BD46     		mov	sp, r7
 8811              		.cfi_def_cfa_register 13
 8812              		@ sp needed
 8813 0016 80BD     		pop	{r7, pc}
 8814              		.cfi_endproc
 8815              	.LFE6316:
 8817              		.section	.text._ZNSt14_Function_base13_Base_managerIZN5Mixer11initTrackIOEPN5daisy9DaisySeedE7Trac
 8818              		.align	1
 8819              		.syntax unified
 8820              		.thumb
 8821              		.thumb_func
 8823              	_ZNSt14_Function_base13_Base_managerIZN5Mixer11initTrackIOEPN5daisy9DaisySeedE7TrackIOS5_S5_S5_EUlf
 8824              	.LFB6317:
 181:/Library/DaisyToolchain/0.2.0/arm/arm-none-eabi/include/c++/10.3.1/bits/std_function.h **** 		   _Manager_operation __op)
 8825              		.loc 3 181 2
 8826              		.cfi_startproc
 8827              		@ args = 0, pretend = 0, frame = 16
 8828              		@ frame_needed = 1, uses_anonymous_args = 0
 8829 0000 B0B5     		push	{r4, r5, r7, lr}
ARM GAS  /var/folders/wz/z09yph4n0qj4t7mjxhl6ttn80000gn/T//ccxdcdyF.s 			page 190


 8830              		.cfi_def_cfa_offset 16
 8831              		.cfi_offset 4, -16
 8832              		.cfi_offset 5, -12
 8833              		.cfi_offset 7, -8
 8834              		.cfi_offset 14, -4
 8835 0002 84B0     		sub	sp, sp, #16
 8836              		.cfi_def_cfa_offset 32
 8837 0004 00AF     		add	r7, sp, #0
 8838              		.cfi_def_cfa_register 7
 8839 0006 F860     		str	r0, [r7, #12]
 8840 0008 B960     		str	r1, [r7, #8]
 8841 000a 1346     		mov	r3, r2
 8842 000c FB71     		strb	r3, [r7, #7]
 184:/Library/DaisyToolchain/0.2.0/arm/arm-none-eabi/include/c++/10.3.1/bits/std_function.h **** 	    {
 8843              		.loc 3 184 12
 8844 000e FB79     		ldrb	r3, [r7, #7]	@ zero_extendqisi2
 184:/Library/DaisyToolchain/0.2.0/arm/arm-none-eabi/include/c++/10.3.1/bits/std_function.h **** 	    {
 8845              		.loc 3 184 4
 8846 0010 032B     		cmp	r3, #3
 8847 0012 16D0     		beq	.L365
 8848 0014 032B     		cmp	r3, #3
 8849 0016 19DC     		bgt	.L366
 8850 0018 012B     		cmp	r3, #1
 8851 001a 02D0     		beq	.L367
 8852 001c 022B     		cmp	r3, #2
 8853 001e 0AD0     		beq	.L368
 8854 0020 14E0     		b	.L366
 8855              	.L367:
 192:/Library/DaisyToolchain/0.2.0/arm/arm-none-eabi/include/c++/10.3.1/bits/std_function.h **** 	      break;
 8856              		.loc 3 192 35
 8857 0022 F868     		ldr	r0, [r7, #12]
 8858 0024 FFF7FEFF 		bl	_ZNSt9_Any_data9_M_accessIPZN5Mixer11initTrackIOEPN5daisy9DaisySeedE7TrackIOS5_S5_S5_EUlfE6_EER
 8859 0028 0446     		mov	r4, r0
 192:/Library/DaisyToolchain/0.2.0/arm/arm-none-eabi/include/c++/10.3.1/bits/std_function.h **** 	      break;
 8860              		.loc 3 192 54
 8861 002a B868     		ldr	r0, [r7, #8]
 8862 002c FFF7FEFF 		bl	_ZNSt14_Function_base13_Base_managerIZN5Mixer11initTrackIOEPN5daisy9DaisySeedE7TrackIOS5_S5_S5_
 8863 0030 0346     		mov	r3, r0
 192:/Library/DaisyToolchain/0.2.0/arm/arm-none-eabi/include/c++/10.3.1/bits/std_function.h **** 	      break;
 8864              		.loc 3 192 38
 8865 0032 2360     		str	r3, [r4]
 193:/Library/DaisyToolchain/0.2.0/arm/arm-none-eabi/include/c++/10.3.1/bits/std_function.h **** 
 8866              		.loc 3 193 8
 8867 0034 0AE0     		b	.L366
 8868              	.L368:
 196:/Library/DaisyToolchain/0.2.0/arm/arm-none-eabi/include/c++/10.3.1/bits/std_function.h **** 	      break;
 8869              		.loc 3 196 16
 8870 0036 2A46     		mov	r2, r5
 8871 0038 B968     		ldr	r1, [r7, #8]
 8872 003a F868     		ldr	r0, [r7, #12]
 8873 003c FFF7FEFF 		bl	_ZNSt14_Function_base13_Base_managerIZN5Mixer11initTrackIOEPN5daisy9DaisySeedE7TrackIOS5_S5_S5_
 197:/Library/DaisyToolchain/0.2.0/arm/arm-none-eabi/include/c++/10.3.1/bits/std_function.h **** 
 8874              		.loc 3 197 8
 8875 0040 04E0     		b	.L366
 8876              	.L365:
 200:/Library/DaisyToolchain/0.2.0/arm/arm-none-eabi/include/c++/10.3.1/bits/std_function.h **** 	      break;
 8877              		.loc 3 200 18
ARM GAS  /var/folders/wz/z09yph4n0qj4t7mjxhl6ttn80000gn/T//ccxdcdyF.s 			page 191


 8878 0042 2146     		mov	r1, r4
 8879 0044 F868     		ldr	r0, [r7, #12]
 8880 0046 FFF7FEFF 		bl	_ZNSt14_Function_base13_Base_managerIZN5Mixer11initTrackIOEPN5daisy9DaisySeedE7TrackIOS5_S5_S5_
 201:/Library/DaisyToolchain/0.2.0/arm/arm-none-eabi/include/c++/10.3.1/bits/std_function.h **** 	    }
 8881              		.loc 3 201 8
 8882 004a 00BF     		nop
 8883              	.L366:
 203:/Library/DaisyToolchain/0.2.0/arm/arm-none-eabi/include/c++/10.3.1/bits/std_function.h **** 	}
 8884              		.loc 3 203 11
 8885 004c 0023     		movs	r3, #0
 204:/Library/DaisyToolchain/0.2.0/arm/arm-none-eabi/include/c++/10.3.1/bits/std_function.h **** 
 8886              		.loc 3 204 2
 8887 004e 1846     		mov	r0, r3
 8888 0050 1037     		adds	r7, r7, #16
 8889              		.cfi_def_cfa_offset 16
 8890 0052 BD46     		mov	sp, r7
 8891              		.cfi_def_cfa_register 13
 8892              		@ sp needed
 8893 0054 B0BD     		pop	{r4, r5, r7, pc}
 8894              		.cfi_endproc
 8895              	.LFE6317:
 8897              		.section	.text._ZNKSt9_Any_data9_M_accessIZN5Mixer4initEPN5daisy9DaisySeedEPPfS6_S6_S6_S6_PPN7dais
 8898              		.align	1
 8899              		.syntax unified
 8900              		.thumb
 8901              		.thumb_func
 8903              	_ZNKSt9_Any_data9_M_accessIZN5Mixer4initEPN5daisy9DaisySeedEPPfS6_S6_S6_S6_PPN7daisysp9DelayLineIfL
 8904              	.LFB6352:
  97:/Library/DaisyToolchain/0.2.0/arm/arm-none-eabi/include/c++/10.3.1/bits/std_function.h ****       { return *static_cast<const _Tp*>(_M_access()); }
 8905              		.loc 3 97 7
 8906              		.cfi_startproc
 8907              		@ args = 0, pretend = 0, frame = 8
 8908              		@ frame_needed = 1, uses_anonymous_args = 0
 8909 0000 80B5     		push	{r7, lr}
 8910              		.cfi_def_cfa_offset 8
 8911              		.cfi_offset 7, -8
 8912              		.cfi_offset 14, -4
 8913 0002 82B0     		sub	sp, sp, #8
 8914              		.cfi_def_cfa_offset 16
 8915 0004 00AF     		add	r7, sp, #0
 8916              		.cfi_def_cfa_register 7
 8917 0006 7860     		str	r0, [r7, #4]
  98:/Library/DaisyToolchain/0.2.0/arm/arm-none-eabi/include/c++/10.3.1/bits/std_function.h **** 
 8918              		.loc 3 98 50
 8919 0008 7868     		ldr	r0, [r7, #4]
 8920 000a FFF7FEFF 		bl	_ZNKSt9_Any_data9_M_accessEv
 8921 000e 0346     		mov	r3, r0
  98:/Library/DaisyToolchain/0.2.0/arm/arm-none-eabi/include/c++/10.3.1/bits/std_function.h **** 
 8922              		.loc 3 98 55
 8923 0010 1846     		mov	r0, r3
 8924 0012 0837     		adds	r7, r7, #8
 8925              		.cfi_def_cfa_offset 8
 8926 0014 BD46     		mov	sp, r7
 8927              		.cfi_def_cfa_register 13
 8928              		@ sp needed
 8929 0016 80BD     		pop	{r7, pc}
 8930              		.cfi_endproc
ARM GAS  /var/folders/wz/z09yph4n0qj4t7mjxhl6ttn80000gn/T//ccxdcdyF.s 			page 192


 8931              	.LFE6352:
 8933              		.section	.text._ZSt11__addressofIKZN5Mixer4initEPN5daisy9DaisySeedEPPfS5_S5_S5_S5_PPN7daisysp9Dela
 8934              		.align	1
 8935              		.syntax unified
 8936              		.thumb
 8937              		.thumb_func
 8939              	_ZSt11__addressofIKZN5Mixer4initEPN5daisy9DaisySeedEPPfS5_S5_S5_S5_PPN7daisysp9DelayLineIfLj240000E
 8940              	.LFB6353:
  49:/Library/DaisyToolchain/0.2.0/arm/arm-none-eabi/include/c++/10.3.1/bits/move.h ****     { return __builtin_addressof(__r); }
 8941              		.loc 8 49 5
 8942              		.cfi_startproc
 8943              		@ args = 0, pretend = 0, frame = 8
 8944              		@ frame_needed = 1, uses_anonymous_args = 0
 8945              		@ link register save eliminated.
 8946 0000 80B4     		push	{r7}
 8947              		.cfi_def_cfa_offset 4
 8948              		.cfi_offset 7, -4
 8949 0002 83B0     		sub	sp, sp, #12
 8950              		.cfi_def_cfa_offset 16
 8951 0004 00AF     		add	r7, sp, #0
 8952              		.cfi_def_cfa_register 7
 8953 0006 7860     		str	r0, [r7, #4]
  50:/Library/DaisyToolchain/0.2.0/arm/arm-none-eabi/include/c++/10.3.1/bits/move.h **** 
 8954              		.loc 8 50 37
 8955 0008 7B68     		ldr	r3, [r7, #4]
  50:/Library/DaisyToolchain/0.2.0/arm/arm-none-eabi/include/c++/10.3.1/bits/move.h **** 
 8956              		.loc 8 50 40
 8957 000a 1846     		mov	r0, r3
 8958 000c 0C37     		adds	r7, r7, #12
 8959              		.cfi_def_cfa_offset 4
 8960 000e BD46     		mov	sp, r7
 8961              		.cfi_def_cfa_register 13
 8962              		@ sp needed
 8963 0010 5DF8047B 		ldr	r7, [sp], #4
 8964              		.cfi_restore 7
 8965              		.cfi_def_cfa_offset 0
 8966 0014 7047     		bx	lr
 8967              		.cfi_endproc
 8968              	.LFE6353:
 8970              		.section	.text._ZSt7forwardIRZN5Mixer4initEPN5daisy9DaisySeedEPPfS5_S5_S5_S5_PPN7daisysp9DelayLine
 8971              		.align	1
 8972              		.syntax unified
 8973              		.thumb
 8974              		.thumb_func
 8976              	_ZSt7forwardIRZN5Mixer4initEPN5daisy9DaisySeedEPPfS5_S5_S5_S5_PPN7daisysp9DelayLineIfLj240000EEEEUl
 8977              	.LFB6355:
  76:/Library/DaisyToolchain/0.2.0/arm/arm-none-eabi/include/c++/10.3.1/bits/move.h ****     { return static_cast<_Tp&&>(__t); }
 8978              		.loc 8 76 5
 8979              		.cfi_startproc
 8980              		@ args = 0, pretend = 0, frame = 8
 8981              		@ frame_needed = 1, uses_anonymous_args = 0
 8982              		@ link register save eliminated.
 8983 0000 80B4     		push	{r7}
 8984              		.cfi_def_cfa_offset 4
 8985              		.cfi_offset 7, -4
 8986 0002 83B0     		sub	sp, sp, #12
 8987              		.cfi_def_cfa_offset 16
ARM GAS  /var/folders/wz/z09yph4n0qj4t7mjxhl6ttn80000gn/T//ccxdcdyF.s 			page 193


 8988 0004 00AF     		add	r7, sp, #0
 8989              		.cfi_def_cfa_register 7
 8990 0006 7860     		str	r0, [r7, #4]
  77:/Library/DaisyToolchain/0.2.0/arm/arm-none-eabi/include/c++/10.3.1/bits/move.h **** 
 8991              		.loc 8 77 36
 8992 0008 7B68     		ldr	r3, [r7, #4]
  77:/Library/DaisyToolchain/0.2.0/arm/arm-none-eabi/include/c++/10.3.1/bits/move.h **** 
 8993              		.loc 8 77 39
 8994 000a 1846     		mov	r0, r3
 8995 000c 0C37     		adds	r7, r7, #12
 8996              		.cfi_def_cfa_offset 4
 8997 000e BD46     		mov	sp, r7
 8998              		.cfi_def_cfa_register 13
 8999              		@ sp needed
 9000 0010 5DF8047B 		ldr	r7, [sp], #4
 9001              		.cfi_restore 7
 9002              		.cfi_def_cfa_offset 0
 9003 0014 7047     		bx	lr
 9004              		.cfi_endproc
 9005              	.LFE6355:
 9007              		.section	.text._ZSt13__invoke_implIvRZN5Mixer4initEPN5daisy9DaisySeedEPPfS5_S5_S5_S5_PPN7daisysp9D
 9008              		.align	1
 9009              		.syntax unified
 9010              		.thumb
 9011              		.thumb_func
 9013              	_ZSt13__invoke_implIvRZN5Mixer4initEPN5daisy9DaisySeedEPPfS5_S5_S5_S5_PPN7daisysp9DelayLineIfLj2400
 9014              	.LFB6356:
  59:/Library/DaisyToolchain/0.2.0/arm/arm-none-eabi/include/c++/10.3.1/bits/invoke.h ****     { return std::forward<_Fn>(__f)(std::forward<_Args>(__args)...); }
 9015              		.loc 9 59 5
 9016              		.cfi_startproc
 9017              		@ args = 0, pretend = 0, frame = 16
 9018              		@ frame_needed = 1, uses_anonymous_args = 0
 9019 0000 90B5     		push	{r4, r7, lr}
 9020              		.cfi_def_cfa_offset 12
 9021              		.cfi_offset 4, -12
 9022              		.cfi_offset 7, -8
 9023              		.cfi_offset 14, -4
 9024 0002 85B0     		sub	sp, sp, #20
 9025              		.cfi_def_cfa_offset 32
 9026 0004 00AF     		add	r7, sp, #0
 9027              		.cfi_def_cfa_register 7
 9028 0006 3873     		strb	r0, [r7, #12]
 9029 0008 B960     		str	r1, [r7, #8]
 9030 000a 7A60     		str	r2, [r7, #4]
  60:/Library/DaisyToolchain/0.2.0/arm/arm-none-eabi/include/c++/10.3.1/bits/invoke.h **** 
 9031              		.loc 9 60 31
 9032 000c B868     		ldr	r0, [r7, #8]
 9033 000e FFF7FEFF 		bl	_ZSt7forwardIRZN5Mixer4initEPN5daisy9DaisySeedEPPfS5_S5_S5_S5_PPN7daisysp9DelayLineIfLj240000EE
 9034 0012 0446     		mov	r4, r0
  60:/Library/DaisyToolchain/0.2.0/arm/arm-none-eabi/include/c++/10.3.1/bits/invoke.h **** 
 9035              		.loc 9 60 56
 9036 0014 7868     		ldr	r0, [r7, #4]
 9037 0016 FFF7FEFF 		bl	_ZSt7forwardIfEOT_RNSt16remove_referenceIS0_E4typeE
 9038 001a 0346     		mov	r3, r0
  60:/Library/DaisyToolchain/0.2.0/arm/arm-none-eabi/include/c++/10.3.1/bits/invoke.h **** 
 9039              		.loc 9 60 36
 9040 001c D3ED007A 		vldr.32	s15, [r3]
ARM GAS  /var/folders/wz/z09yph4n0qj4t7mjxhl6ttn80000gn/T//ccxdcdyF.s 			page 194


 9041 0020 B0EE670A 		vmov.f32	s0, s15
 9042 0024 2046     		mov	r0, r4
 9043 0026 FFF7FEFF 		bl	_ZZN5Mixer4initEPN5daisy9DaisySeedEPPfS4_S4_S4_S4_PPN7daisysp9DelayLineIfLj240000EEEENKUlfE_clE
  60:/Library/DaisyToolchain/0.2.0/arm/arm-none-eabi/include/c++/10.3.1/bits/invoke.h **** 
 9044              		.loc 9 60 67
 9045 002a 00BF     		nop
  60:/Library/DaisyToolchain/0.2.0/arm/arm-none-eabi/include/c++/10.3.1/bits/invoke.h **** 
 9046              		.loc 9 60 70
 9047 002c 1437     		adds	r7, r7, #20
 9048              		.cfi_def_cfa_offset 12
 9049 002e BD46     		mov	sp, r7
 9050              		.cfi_def_cfa_register 13
 9051              		@ sp needed
 9052 0030 90BD     		pop	{r4, r7, pc}
 9053              		.cfi_endproc
 9054              	.LFE6356:
 9056              		.section	.text._ZNSt14_Function_base13_Base_managerIZN5Mixer4initEPN5daisy9DaisySeedEPPfS6_S6_S6_S
 9057              		.align	1
 9058              		.syntax unified
 9059              		.thumb
 9060              		.thumb_func
 9062              	_ZNSt14_Function_base13_Base_managerIZN5Mixer4initEPN5daisy9DaisySeedEPPfS6_S6_S6_S6_PPN7daisysp9De
 9063              	.LFB6357:
 150:/Library/DaisyToolchain/0.2.0/arm/arm-none-eabi/include/c++/10.3.1/bits/std_function.h **** 	{
 9064              		.loc 3 150 2
 9065              		.cfi_startproc
 9066              		@ args = 0, pretend = 0, frame = 16
 9067              		@ frame_needed = 1, uses_anonymous_args = 0
 9068 0000 90B5     		push	{r4, r7, lr}
 9069              		.cfi_def_cfa_offset 12
 9070              		.cfi_offset 4, -12
 9071              		.cfi_offset 7, -8
 9072              		.cfi_offset 14, -4
 9073 0002 85B0     		sub	sp, sp, #20
 9074              		.cfi_def_cfa_offset 32
 9075 0004 00AF     		add	r7, sp, #0
 9076              		.cfi_def_cfa_register 7
 9077 0006 F860     		str	r0, [r7, #12]
 9078 0008 B960     		str	r1, [r7, #8]
 9079 000a 3A71     		strb	r2, [r7, #4]
 152:/Library/DaisyToolchain/0.2.0/arm/arm-none-eabi/include/c++/10.3.1/bits/std_function.h **** 	}
 9080              		.loc 3 152 68
 9081 000c B868     		ldr	r0, [r7, #8]
 9082 000e FFF7FEFF 		bl	_ZNKSt9_Any_data9_M_accessIZN5Mixer4initEPN5daisy9DaisySeedEPPfS6_S6_S6_S6_PPN7daisysp9DelayLin
 9083 0012 0446     		mov	r4, r0
 152:/Library/DaisyToolchain/0.2.0/arm/arm-none-eabi/include/c++/10.3.1/bits/std_function.h **** 	}
 9084              		.loc 3 152 27
 9085 0014 F868     		ldr	r0, [r7, #12]
 9086 0016 FFF7FEFF 		bl	_ZNSt9_Any_data9_M_accessEv
 9087 001a 0346     		mov	r3, r0
 152:/Library/DaisyToolchain/0.2.0/arm/arm-none-eabi/include/c++/10.3.1/bits/std_function.h **** 	}
 9088              		.loc 3 152 4
 9089 001c 1946     		mov	r1, r3
 9090 001e 0420     		movs	r0, #4
 9091 0020 FFF7FEFF 		bl	_ZnwjPv
 9092 0024 0246     		mov	r2, r0
 9093 0026 2368     		ldr	r3, [r4]
ARM GAS  /var/folders/wz/z09yph4n0qj4t7mjxhl6ttn80000gn/T//ccxdcdyF.s 			page 195


 9094 0028 1360     		str	r3, [r2]
 153:/Library/DaisyToolchain/0.2.0/arm/arm-none-eabi/include/c++/10.3.1/bits/std_function.h **** 
 9095              		.loc 3 153 2
 9096 002a 00BF     		nop
 9097 002c 1437     		adds	r7, r7, #20
 9098              		.cfi_def_cfa_offset 12
 9099 002e BD46     		mov	sp, r7
 9100              		.cfi_def_cfa_register 13
 9101              		@ sp needed
 9102 0030 90BD     		pop	{r4, r7, pc}
 9103              		.cfi_endproc
 9104              	.LFE6357:
 9106              		.section	.text._ZNSt14_Function_base13_Base_managerIZN5Mixer4initEPN5daisy9DaisySeedEPPfS6_S6_S6_S
 9107              		.align	1
 9108              		.syntax unified
 9109              		.thumb
 9110              		.thumb_func
 9112              	_ZNSt14_Function_base13_Base_managerIZN5Mixer4initEPN5daisy9DaisySeedEPPfS6_S6_S6_S6_PPN7daisysp9De
 9113              	.LFB6358:
 167:/Library/DaisyToolchain/0.2.0/arm/arm-none-eabi/include/c++/10.3.1/bits/std_function.h **** 	{
 9114              		.loc 3 167 2
 9115              		.cfi_startproc
 9116              		@ args = 0, pretend = 0, frame = 8
 9117              		@ frame_needed = 1, uses_anonymous_args = 0
 9118 0000 80B5     		push	{r7, lr}
 9119              		.cfi_def_cfa_offset 8
 9120              		.cfi_offset 7, -8
 9121              		.cfi_offset 14, -4
 9122 0002 82B0     		sub	sp, sp, #8
 9123              		.cfi_def_cfa_offset 16
 9124 0004 00AF     		add	r7, sp, #0
 9125              		.cfi_def_cfa_register 7
 9126 0006 7860     		str	r0, [r7, #4]
 9127 0008 3970     		strb	r1, [r7]
 169:/Library/DaisyToolchain/0.2.0/arm/arm-none-eabi/include/c++/10.3.1/bits/std_function.h **** 	}
 9128              		.loc 3 169 32
 9129 000a 7868     		ldr	r0, [r7, #4]
 9130 000c FFF7FEFF 		bl	_ZNSt9_Any_data9_M_accessIZN5Mixer4initEPN5daisy9DaisySeedEPPfS6_S6_S6_S6_PPN7daisysp9DelayLine
 170:/Library/DaisyToolchain/0.2.0/arm/arm-none-eabi/include/c++/10.3.1/bits/std_function.h **** 
 9131              		.loc 3 170 2
 9132 0010 00BF     		nop
 9133 0012 0837     		adds	r7, r7, #8
 9134              		.cfi_def_cfa_offset 8
 9135 0014 BD46     		mov	sp, r7
 9136              		.cfi_def_cfa_register 13
 9137              		@ sp needed
 9138 0016 80BD     		pop	{r7, pc}
 9139              		.cfi_endproc
 9140              	.LFE6358:
 9142              		.section	.text._ZNKSt8functionIFvfEEcvbEv,"axG",%progbits,_ZNKSt8functionIFvfEEcvbEv,comdat
 9143              		.align	1
 9144              		.weak	_ZNKSt8functionIFvfEEcvbEv
 9145              		.syntax unified
 9146              		.thumb
 9147              		.thumb_func
 9149              	_ZNKSt8functionIFvfEEcvbEv:
 9150              	.LFB6359:
ARM GAS  /var/folders/wz/z09yph4n0qj4t7mjxhl6ttn80000gn/T//ccxdcdyF.s 			page 196


 498:/Library/DaisyToolchain/0.2.0/arm/arm-none-eabi/include/c++/10.3.1/bits/std_function.h ****       { return !_M_empty(); }
 9151              		.loc 3 498 16
 9152              		.cfi_startproc
 9153              		@ args = 0, pretend = 0, frame = 8
 9154              		@ frame_needed = 1, uses_anonymous_args = 0
 9155 0000 80B5     		push	{r7, lr}
 9156              		.cfi_def_cfa_offset 8
 9157              		.cfi_offset 7, -8
 9158              		.cfi_offset 14, -4
 9159 0002 82B0     		sub	sp, sp, #8
 9160              		.cfi_def_cfa_offset 16
 9161 0004 00AF     		add	r7, sp, #0
 9162              		.cfi_def_cfa_register 7
 9163 0006 7860     		str	r0, [r7, #4]
 499:/Library/DaisyToolchain/0.2.0/arm/arm-none-eabi/include/c++/10.3.1/bits/std_function.h **** 
 9164              		.loc 3 499 25
 9165 0008 7B68     		ldr	r3, [r7, #4]
 9166 000a 1846     		mov	r0, r3
 9167 000c FFF7FEFF 		bl	_ZNKSt14_Function_base8_M_emptyEv
 9168 0010 0346     		mov	r3, r0
 499:/Library/DaisyToolchain/0.2.0/arm/arm-none-eabi/include/c++/10.3.1/bits/std_function.h **** 
 9169              		.loc 3 499 26
 9170 0012 83F00103 		eor	r3, r3, #1
 9171 0016 DBB2     		uxtb	r3, r3
 499:/Library/DaisyToolchain/0.2.0/arm/arm-none-eabi/include/c++/10.3.1/bits/std_function.h **** 
 9172              		.loc 3 499 29
 9173 0018 1846     		mov	r0, r3
 9174 001a 0837     		adds	r7, r7, #8
 9175              		.cfi_def_cfa_offset 8
 9176 001c BD46     		mov	sp, r7
 9177              		.cfi_def_cfa_register 13
 9178              		@ sp needed
 9179 001e 80BD     		pop	{r7, pc}
 9180              		.cfi_endproc
 9181              	.LFE6359:
 9183              		.section	.text._ZNKSt9_Any_data9_M_accessIZN5Mixer11initTrackIOEPN5daisy9DaisySeedE7TrackIOS5_S5_S
 9184              		.align	1
 9185              		.syntax unified
 9186              		.thumb
 9187              		.thumb_func
 9189              	_ZNKSt9_Any_data9_M_accessIZN5Mixer11initTrackIOEPN5daisy9DaisySeedE7TrackIOS5_S5_S5_EUlfE_EERKT_v:
 9190              	.LFB6360:
  97:/Library/DaisyToolchain/0.2.0/arm/arm-none-eabi/include/c++/10.3.1/bits/std_function.h ****       { return *static_cast<const _Tp*>(_M_access()); }
 9191              		.loc 3 97 7
 9192              		.cfi_startproc
 9193              		@ args = 0, pretend = 0, frame = 8
 9194              		@ frame_needed = 1, uses_anonymous_args = 0
 9195 0000 80B5     		push	{r7, lr}
 9196              		.cfi_def_cfa_offset 8
 9197              		.cfi_offset 7, -8
 9198              		.cfi_offset 14, -4
 9199 0002 82B0     		sub	sp, sp, #8
 9200              		.cfi_def_cfa_offset 16
 9201 0004 00AF     		add	r7, sp, #0
 9202              		.cfi_def_cfa_register 7
 9203 0006 7860     		str	r0, [r7, #4]
  98:/Library/DaisyToolchain/0.2.0/arm/arm-none-eabi/include/c++/10.3.1/bits/std_function.h **** 
ARM GAS  /var/folders/wz/z09yph4n0qj4t7mjxhl6ttn80000gn/T//ccxdcdyF.s 			page 197


 9204              		.loc 3 98 50
 9205 0008 7868     		ldr	r0, [r7, #4]
 9206 000a FFF7FEFF 		bl	_ZNKSt9_Any_data9_M_accessEv
 9207 000e 0346     		mov	r3, r0
  98:/Library/DaisyToolchain/0.2.0/arm/arm-none-eabi/include/c++/10.3.1/bits/std_function.h **** 
 9208              		.loc 3 98 55
 9209 0010 1846     		mov	r0, r3
 9210 0012 0837     		adds	r7, r7, #8
 9211              		.cfi_def_cfa_offset 8
 9212 0014 BD46     		mov	sp, r7
 9213              		.cfi_def_cfa_register 13
 9214              		@ sp needed
 9215 0016 80BD     		pop	{r7, pc}
 9216              		.cfi_endproc
 9217              	.LFE6360:
 9219              		.section	.text._ZSt11__addressofIKZN5Mixer11initTrackIOEPN5daisy9DaisySeedE7TrackIOS4_S4_S4_EUlfE_
 9220              		.align	1
 9221              		.syntax unified
 9222              		.thumb
 9223              		.thumb_func
 9225              	_ZSt11__addressofIKZN5Mixer11initTrackIOEPN5daisy9DaisySeedE7TrackIOS4_S4_S4_EUlfE_EPT_RS7_:
 9226              	.LFB6361:
  49:/Library/DaisyToolchain/0.2.0/arm/arm-none-eabi/include/c++/10.3.1/bits/move.h ****     { return __builtin_addressof(__r); }
 9227              		.loc 8 49 5
 9228              		.cfi_startproc
 9229              		@ args = 0, pretend = 0, frame = 8
 9230              		@ frame_needed = 1, uses_anonymous_args = 0
 9231              		@ link register save eliminated.
 9232 0000 80B4     		push	{r7}
 9233              		.cfi_def_cfa_offset 4
 9234              		.cfi_offset 7, -4
 9235 0002 83B0     		sub	sp, sp, #12
 9236              		.cfi_def_cfa_offset 16
 9237 0004 00AF     		add	r7, sp, #0
 9238              		.cfi_def_cfa_register 7
 9239 0006 7860     		str	r0, [r7, #4]
  50:/Library/DaisyToolchain/0.2.0/arm/arm-none-eabi/include/c++/10.3.1/bits/move.h **** 
 9240              		.loc 8 50 37
 9241 0008 7B68     		ldr	r3, [r7, #4]
  50:/Library/DaisyToolchain/0.2.0/arm/arm-none-eabi/include/c++/10.3.1/bits/move.h **** 
 9242              		.loc 8 50 40
 9243 000a 1846     		mov	r0, r3
 9244 000c 0C37     		adds	r7, r7, #12
 9245              		.cfi_def_cfa_offset 4
 9246 000e BD46     		mov	sp, r7
 9247              		.cfi_def_cfa_register 13
 9248              		@ sp needed
 9249 0010 5DF8047B 		ldr	r7, [sp], #4
 9250              		.cfi_restore 7
 9251              		.cfi_def_cfa_offset 0
 9252 0014 7047     		bx	lr
 9253              		.cfi_endproc
 9254              	.LFE6361:
 9256              		.section	.text._ZSt7forwardIRZN5Mixer11initTrackIOEPN5daisy9DaisySeedE7TrackIOS4_S4_S4_EUlfE_EOT_R
 9257              		.align	1
 9258              		.syntax unified
 9259              		.thumb
ARM GAS  /var/folders/wz/z09yph4n0qj4t7mjxhl6ttn80000gn/T//ccxdcdyF.s 			page 198


 9260              		.thumb_func
 9262              	_ZSt7forwardIRZN5Mixer11initTrackIOEPN5daisy9DaisySeedE7TrackIOS4_S4_S4_EUlfE_EOT_RNSt16remove_refe
 9263              	.LFB6363:
  76:/Library/DaisyToolchain/0.2.0/arm/arm-none-eabi/include/c++/10.3.1/bits/move.h ****     { return static_cast<_Tp&&>(__t); }
 9264              		.loc 8 76 5
 9265              		.cfi_startproc
 9266              		@ args = 0, pretend = 0, frame = 8
 9267              		@ frame_needed = 1, uses_anonymous_args = 0
 9268              		@ link register save eliminated.
 9269 0000 80B4     		push	{r7}
 9270              		.cfi_def_cfa_offset 4
 9271              		.cfi_offset 7, -4
 9272 0002 83B0     		sub	sp, sp, #12
 9273              		.cfi_def_cfa_offset 16
 9274 0004 00AF     		add	r7, sp, #0
 9275              		.cfi_def_cfa_register 7
 9276 0006 7860     		str	r0, [r7, #4]
  77:/Library/DaisyToolchain/0.2.0/arm/arm-none-eabi/include/c++/10.3.1/bits/move.h **** 
 9277              		.loc 8 77 36
 9278 0008 7B68     		ldr	r3, [r7, #4]
  77:/Library/DaisyToolchain/0.2.0/arm/arm-none-eabi/include/c++/10.3.1/bits/move.h **** 
 9279              		.loc 8 77 39
 9280 000a 1846     		mov	r0, r3
 9281 000c 0C37     		adds	r7, r7, #12
 9282              		.cfi_def_cfa_offset 4
 9283 000e BD46     		mov	sp, r7
 9284              		.cfi_def_cfa_register 13
 9285              		@ sp needed
 9286 0010 5DF8047B 		ldr	r7, [sp], #4
 9287              		.cfi_restore 7
 9288              		.cfi_def_cfa_offset 0
 9289 0014 7047     		bx	lr
 9290              		.cfi_endproc
 9291              	.LFE6363:
 9293              		.section	.text._ZSt13__invoke_implIvRZN5Mixer11initTrackIOEPN5daisy9DaisySeedE7TrackIOS4_S4_S4_EUl
 9294              		.align	1
 9295              		.syntax unified
 9296              		.thumb
 9297              		.thumb_func
 9299              	_ZSt13__invoke_implIvRZN5Mixer11initTrackIOEPN5daisy9DaisySeedE7TrackIOS4_S4_S4_EUlfE_JfEET_St14__i
 9300              	.LFB6364:
  59:/Library/DaisyToolchain/0.2.0/arm/arm-none-eabi/include/c++/10.3.1/bits/invoke.h ****     { return std::forward<_Fn>(__f)(std::forward<_Args>(__args)...); }
 9301              		.loc 9 59 5
 9302              		.cfi_startproc
 9303              		@ args = 0, pretend = 0, frame = 16
 9304              		@ frame_needed = 1, uses_anonymous_args = 0
 9305 0000 90B5     		push	{r4, r7, lr}
 9306              		.cfi_def_cfa_offset 12
 9307              		.cfi_offset 4, -12
 9308              		.cfi_offset 7, -8
 9309              		.cfi_offset 14, -4
 9310 0002 85B0     		sub	sp, sp, #20
 9311              		.cfi_def_cfa_offset 32
 9312 0004 00AF     		add	r7, sp, #0
 9313              		.cfi_def_cfa_register 7
 9314 0006 3873     		strb	r0, [r7, #12]
 9315 0008 B960     		str	r1, [r7, #8]
ARM GAS  /var/folders/wz/z09yph4n0qj4t7mjxhl6ttn80000gn/T//ccxdcdyF.s 			page 199


 9316 000a 7A60     		str	r2, [r7, #4]
  60:/Library/DaisyToolchain/0.2.0/arm/arm-none-eabi/include/c++/10.3.1/bits/invoke.h **** 
 9317              		.loc 9 60 31
 9318 000c B868     		ldr	r0, [r7, #8]
 9319 000e FFF7FEFF 		bl	_ZSt7forwardIRZN5Mixer11initTrackIOEPN5daisy9DaisySeedE7TrackIOS4_S4_S4_EUlfE_EOT_RNSt16remove_
 9320 0012 0446     		mov	r4, r0
  60:/Library/DaisyToolchain/0.2.0/arm/arm-none-eabi/include/c++/10.3.1/bits/invoke.h **** 
 9321              		.loc 9 60 56
 9322 0014 7868     		ldr	r0, [r7, #4]
 9323 0016 FFF7FEFF 		bl	_ZSt7forwardIfEOT_RNSt16remove_referenceIS0_E4typeE
 9324 001a 0346     		mov	r3, r0
  60:/Library/DaisyToolchain/0.2.0/arm/arm-none-eabi/include/c++/10.3.1/bits/invoke.h **** 
 9325              		.loc 9 60 36
 9326 001c D3ED007A 		vldr.32	s15, [r3]
 9327 0020 B0EE670A 		vmov.f32	s0, s15
 9328 0024 2046     		mov	r0, r4
 9329 0026 FFF7FEFF 		bl	_ZZN5Mixer11initTrackIOEPN5daisy9DaisySeedE7TrackIOS3_S3_S3_ENKUlfE_clEf
  60:/Library/DaisyToolchain/0.2.0/arm/arm-none-eabi/include/c++/10.3.1/bits/invoke.h **** 
 9330              		.loc 9 60 67
 9331 002a 00BF     		nop
  60:/Library/DaisyToolchain/0.2.0/arm/arm-none-eabi/include/c++/10.3.1/bits/invoke.h **** 
 9332              		.loc 9 60 70
 9333 002c 1437     		adds	r7, r7, #20
 9334              		.cfi_def_cfa_offset 12
 9335 002e BD46     		mov	sp, r7
 9336              		.cfi_def_cfa_register 13
 9337              		@ sp needed
 9338 0030 90BD     		pop	{r4, r7, pc}
 9339              		.cfi_endproc
 9340              	.LFE6364:
 9342              		.section	.text._ZNSt14_Function_base13_Base_managerIZN5Mixer11initTrackIOEPN5daisy9DaisySeedE7Trac
 9343              		.align	1
 9344              		.syntax unified
 9345              		.thumb
 9346              		.thumb_func
 9348              	_ZNSt14_Function_base13_Base_managerIZN5Mixer11initTrackIOEPN5daisy9DaisySeedE7TrackIOS5_S5_S5_EUlf
 9349              	.LFB6365:
 150:/Library/DaisyToolchain/0.2.0/arm/arm-none-eabi/include/c++/10.3.1/bits/std_function.h **** 	{
 9350              		.loc 3 150 2
 9351              		.cfi_startproc
 9352              		@ args = 0, pretend = 0, frame = 16
 9353              		@ frame_needed = 1, uses_anonymous_args = 0
 9354 0000 90B5     		push	{r4, r7, lr}
 9355              		.cfi_def_cfa_offset 12
 9356              		.cfi_offset 4, -12
 9357              		.cfi_offset 7, -8
 9358              		.cfi_offset 14, -4
 9359 0002 85B0     		sub	sp, sp, #20
 9360              		.cfi_def_cfa_offset 32
 9361 0004 00AF     		add	r7, sp, #0
 9362              		.cfi_def_cfa_register 7
 9363 0006 F860     		str	r0, [r7, #12]
 9364 0008 B960     		str	r1, [r7, #8]
 9365 000a 3A71     		strb	r2, [r7, #4]
 152:/Library/DaisyToolchain/0.2.0/arm/arm-none-eabi/include/c++/10.3.1/bits/std_function.h **** 	}
 9366              		.loc 3 152 68
 9367 000c B868     		ldr	r0, [r7, #8]
ARM GAS  /var/folders/wz/z09yph4n0qj4t7mjxhl6ttn80000gn/T//ccxdcdyF.s 			page 200


 9368 000e FFF7FEFF 		bl	_ZNKSt9_Any_data9_M_accessIZN5Mixer11initTrackIOEPN5daisy9DaisySeedE7TrackIOS5_S5_S5_EUlfE_EERK
 9369 0012 0446     		mov	r4, r0
 152:/Library/DaisyToolchain/0.2.0/arm/arm-none-eabi/include/c++/10.3.1/bits/std_function.h **** 	}
 9370              		.loc 3 152 27
 9371 0014 F868     		ldr	r0, [r7, #12]
 9372 0016 FFF7FEFF 		bl	_ZNSt9_Any_data9_M_accessEv
 9373 001a 0346     		mov	r3, r0
 152:/Library/DaisyToolchain/0.2.0/arm/arm-none-eabi/include/c++/10.3.1/bits/std_function.h **** 	}
 9374              		.loc 3 152 4
 9375 001c 1946     		mov	r1, r3
 9376 001e 0420     		movs	r0, #4
 9377 0020 FFF7FEFF 		bl	_ZnwjPv
 9378 0024 0246     		mov	r2, r0
 9379 0026 2368     		ldr	r3, [r4]
 9380 0028 1360     		str	r3, [r2]
 153:/Library/DaisyToolchain/0.2.0/arm/arm-none-eabi/include/c++/10.3.1/bits/std_function.h **** 
 9381              		.loc 3 153 2
 9382 002a 00BF     		nop
 9383 002c 1437     		adds	r7, r7, #20
 9384              		.cfi_def_cfa_offset 12
 9385 002e BD46     		mov	sp, r7
 9386              		.cfi_def_cfa_register 13
 9387              		@ sp needed
 9388 0030 90BD     		pop	{r4, r7, pc}
 9389              		.cfi_endproc
 9390              	.LFE6365:
 9392              		.section	.text._ZNSt14_Function_base13_Base_managerIZN5Mixer11initTrackIOEPN5daisy9DaisySeedE7Trac
 9393              		.align	1
 9394              		.syntax unified
 9395              		.thumb
 9396              		.thumb_func
 9398              	_ZNSt14_Function_base13_Base_managerIZN5Mixer11initTrackIOEPN5daisy9DaisySeedE7TrackIOS5_S5_S5_EUlf
 9399              	.LFB6366:
 167:/Library/DaisyToolchain/0.2.0/arm/arm-none-eabi/include/c++/10.3.1/bits/std_function.h **** 	{
 9400              		.loc 3 167 2
 9401              		.cfi_startproc
 9402              		@ args = 0, pretend = 0, frame = 8
 9403              		@ frame_needed = 1, uses_anonymous_args = 0
 9404 0000 80B5     		push	{r7, lr}
 9405              		.cfi_def_cfa_offset 8
 9406              		.cfi_offset 7, -8
 9407              		.cfi_offset 14, -4
 9408 0002 82B0     		sub	sp, sp, #8
 9409              		.cfi_def_cfa_offset 16
 9410 0004 00AF     		add	r7, sp, #0
 9411              		.cfi_def_cfa_register 7
 9412 0006 7860     		str	r0, [r7, #4]
 9413 0008 3970     		strb	r1, [r7]
 169:/Library/DaisyToolchain/0.2.0/arm/arm-none-eabi/include/c++/10.3.1/bits/std_function.h **** 	}
 9414              		.loc 3 169 32
 9415 000a 7868     		ldr	r0, [r7, #4]
 9416 000c FFF7FEFF 		bl	_ZNSt9_Any_data9_M_accessIZN5Mixer11initTrackIOEPN5daisy9DaisySeedE7TrackIOS5_S5_S5_EUlfE_EERT_
 170:/Library/DaisyToolchain/0.2.0/arm/arm-none-eabi/include/c++/10.3.1/bits/std_function.h **** 
 9417              		.loc 3 170 2
 9418 0010 00BF     		nop
 9419 0012 0837     		adds	r7, r7, #8
 9420              		.cfi_def_cfa_offset 8
ARM GAS  /var/folders/wz/z09yph4n0qj4t7mjxhl6ttn80000gn/T//ccxdcdyF.s 			page 201


 9421 0014 BD46     		mov	sp, r7
 9422              		.cfi_def_cfa_register 13
 9423              		@ sp needed
 9424 0016 80BD     		pop	{r7, pc}
 9425              		.cfi_endproc
 9426              	.LFE6366:
 9428              		.section	.text._ZNKSt9_Any_data9_M_accessIZN5Mixer11initTrackIOEPN5daisy9DaisySeedE7TrackIOS5_S5_S
 9429              		.align	1
 9430              		.syntax unified
 9431              		.thumb
 9432              		.thumb_func
 9434              	_ZNKSt9_Any_data9_M_accessIZN5Mixer11initTrackIOEPN5daisy9DaisySeedE7TrackIOS5_S5_S5_EUlfE0_EERKT_v
 9435              	.LFB6367:
  97:/Library/DaisyToolchain/0.2.0/arm/arm-none-eabi/include/c++/10.3.1/bits/std_function.h ****       { return *static_cast<const _Tp*>(_M_access()); }
 9436              		.loc 3 97 7
 9437              		.cfi_startproc
 9438              		@ args = 0, pretend = 0, frame = 8
 9439              		@ frame_needed = 1, uses_anonymous_args = 0
 9440 0000 80B5     		push	{r7, lr}
 9441              		.cfi_def_cfa_offset 8
 9442              		.cfi_offset 7, -8
 9443              		.cfi_offset 14, -4
 9444 0002 82B0     		sub	sp, sp, #8
 9445              		.cfi_def_cfa_offset 16
 9446 0004 00AF     		add	r7, sp, #0
 9447              		.cfi_def_cfa_register 7
 9448 0006 7860     		str	r0, [r7, #4]
  98:/Library/DaisyToolchain/0.2.0/arm/arm-none-eabi/include/c++/10.3.1/bits/std_function.h **** 
 9449              		.loc 3 98 50
 9450 0008 7868     		ldr	r0, [r7, #4]
 9451 000a FFF7FEFF 		bl	_ZNKSt9_Any_data9_M_accessEv
 9452 000e 0346     		mov	r3, r0
  98:/Library/DaisyToolchain/0.2.0/arm/arm-none-eabi/include/c++/10.3.1/bits/std_function.h **** 
 9453              		.loc 3 98 55
 9454 0010 1846     		mov	r0, r3
 9455 0012 0837     		adds	r7, r7, #8
 9456              		.cfi_def_cfa_offset 8
 9457 0014 BD46     		mov	sp, r7
 9458              		.cfi_def_cfa_register 13
 9459              		@ sp needed
 9460 0016 80BD     		pop	{r7, pc}
 9461              		.cfi_endproc
 9462              	.LFE6367:
 9464              		.section	.text._ZSt11__addressofIKZN5Mixer11initTrackIOEPN5daisy9DaisySeedE7TrackIOS4_S4_S4_EUlfE0
 9465              		.align	1
 9466              		.syntax unified
 9467              		.thumb
 9468              		.thumb_func
 9470              	_ZSt11__addressofIKZN5Mixer11initTrackIOEPN5daisy9DaisySeedE7TrackIOS4_S4_S4_EUlfE0_EPT_RS7_:
 9471              	.LFB6368:
  49:/Library/DaisyToolchain/0.2.0/arm/arm-none-eabi/include/c++/10.3.1/bits/move.h ****     { return __builtin_addressof(__r); }
 9472              		.loc 8 49 5
 9473              		.cfi_startproc
 9474              		@ args = 0, pretend = 0, frame = 8
 9475              		@ frame_needed = 1, uses_anonymous_args = 0
 9476              		@ link register save eliminated.
 9477 0000 80B4     		push	{r7}
ARM GAS  /var/folders/wz/z09yph4n0qj4t7mjxhl6ttn80000gn/T//ccxdcdyF.s 			page 202


 9478              		.cfi_def_cfa_offset 4
 9479              		.cfi_offset 7, -4
 9480 0002 83B0     		sub	sp, sp, #12
 9481              		.cfi_def_cfa_offset 16
 9482 0004 00AF     		add	r7, sp, #0
 9483              		.cfi_def_cfa_register 7
 9484 0006 7860     		str	r0, [r7, #4]
  50:/Library/DaisyToolchain/0.2.0/arm/arm-none-eabi/include/c++/10.3.1/bits/move.h **** 
 9485              		.loc 8 50 37
 9486 0008 7B68     		ldr	r3, [r7, #4]
  50:/Library/DaisyToolchain/0.2.0/arm/arm-none-eabi/include/c++/10.3.1/bits/move.h **** 
 9487              		.loc 8 50 40
 9488 000a 1846     		mov	r0, r3
 9489 000c 0C37     		adds	r7, r7, #12
 9490              		.cfi_def_cfa_offset 4
 9491 000e BD46     		mov	sp, r7
 9492              		.cfi_def_cfa_register 13
 9493              		@ sp needed
 9494 0010 5DF8047B 		ldr	r7, [sp], #4
 9495              		.cfi_restore 7
 9496              		.cfi_def_cfa_offset 0
 9497 0014 7047     		bx	lr
 9498              		.cfi_endproc
 9499              	.LFE6368:
 9501              		.section	.text._ZSt7forwardIRZN5Mixer11initTrackIOEPN5daisy9DaisySeedE7TrackIOS4_S4_S4_EUlfE0_EOT_
 9502              		.align	1
 9503              		.syntax unified
 9504              		.thumb
 9505              		.thumb_func
 9507              	_ZSt7forwardIRZN5Mixer11initTrackIOEPN5daisy9DaisySeedE7TrackIOS4_S4_S4_EUlfE0_EOT_RNSt16remove_ref
 9508              	.LFB6370:
  76:/Library/DaisyToolchain/0.2.0/arm/arm-none-eabi/include/c++/10.3.1/bits/move.h ****     { return static_cast<_Tp&&>(__t); }
 9509              		.loc 8 76 5
 9510              		.cfi_startproc
 9511              		@ args = 0, pretend = 0, frame = 8
 9512              		@ frame_needed = 1, uses_anonymous_args = 0
 9513              		@ link register save eliminated.
 9514 0000 80B4     		push	{r7}
 9515              		.cfi_def_cfa_offset 4
 9516              		.cfi_offset 7, -4
 9517 0002 83B0     		sub	sp, sp, #12
 9518              		.cfi_def_cfa_offset 16
 9519 0004 00AF     		add	r7, sp, #0
 9520              		.cfi_def_cfa_register 7
 9521 0006 7860     		str	r0, [r7, #4]
  77:/Library/DaisyToolchain/0.2.0/arm/arm-none-eabi/include/c++/10.3.1/bits/move.h **** 
 9522              		.loc 8 77 36
 9523 0008 7B68     		ldr	r3, [r7, #4]
  77:/Library/DaisyToolchain/0.2.0/arm/arm-none-eabi/include/c++/10.3.1/bits/move.h **** 
 9524              		.loc 8 77 39
 9525 000a 1846     		mov	r0, r3
 9526 000c 0C37     		adds	r7, r7, #12
 9527              		.cfi_def_cfa_offset 4
 9528 000e BD46     		mov	sp, r7
 9529              		.cfi_def_cfa_register 13
 9530              		@ sp needed
 9531 0010 5DF8047B 		ldr	r7, [sp], #4
ARM GAS  /var/folders/wz/z09yph4n0qj4t7mjxhl6ttn80000gn/T//ccxdcdyF.s 			page 203


 9532              		.cfi_restore 7
 9533              		.cfi_def_cfa_offset 0
 9534 0014 7047     		bx	lr
 9535              		.cfi_endproc
 9536              	.LFE6370:
 9538              		.section	.text._ZSt13__invoke_implIvRZN5Mixer11initTrackIOEPN5daisy9DaisySeedE7TrackIOS4_S4_S4_EUl
 9539              		.align	1
 9540              		.syntax unified
 9541              		.thumb
 9542              		.thumb_func
 9544              	_ZSt13__invoke_implIvRZN5Mixer11initTrackIOEPN5daisy9DaisySeedE7TrackIOS4_S4_S4_EUlfE0_JfEET_St14__
 9545              	.LFB6371:
  59:/Library/DaisyToolchain/0.2.0/arm/arm-none-eabi/include/c++/10.3.1/bits/invoke.h ****     { return std::forward<_Fn>(__f)(std::forward<_Args>(__args)...); }
 9546              		.loc 9 59 5
 9547              		.cfi_startproc
 9548              		@ args = 0, pretend = 0, frame = 16
 9549              		@ frame_needed = 1, uses_anonymous_args = 0
 9550 0000 90B5     		push	{r4, r7, lr}
 9551              		.cfi_def_cfa_offset 12
 9552              		.cfi_offset 4, -12
 9553              		.cfi_offset 7, -8
 9554              		.cfi_offset 14, -4
 9555 0002 85B0     		sub	sp, sp, #20
 9556              		.cfi_def_cfa_offset 32
 9557 0004 00AF     		add	r7, sp, #0
 9558              		.cfi_def_cfa_register 7
 9559 0006 3873     		strb	r0, [r7, #12]
 9560 0008 B960     		str	r1, [r7, #8]
 9561 000a 7A60     		str	r2, [r7, #4]
  60:/Library/DaisyToolchain/0.2.0/arm/arm-none-eabi/include/c++/10.3.1/bits/invoke.h **** 
 9562              		.loc 9 60 31
 9563 000c B868     		ldr	r0, [r7, #8]
 9564 000e FFF7FEFF 		bl	_ZSt7forwardIRZN5Mixer11initTrackIOEPN5daisy9DaisySeedE7TrackIOS4_S4_S4_EUlfE0_EOT_RNSt16remove
 9565 0012 0446     		mov	r4, r0
  60:/Library/DaisyToolchain/0.2.0/arm/arm-none-eabi/include/c++/10.3.1/bits/invoke.h **** 
 9566              		.loc 9 60 56
 9567 0014 7868     		ldr	r0, [r7, #4]
 9568 0016 FFF7FEFF 		bl	_ZSt7forwardIfEOT_RNSt16remove_referenceIS0_E4typeE
 9569 001a 0346     		mov	r3, r0
  60:/Library/DaisyToolchain/0.2.0/arm/arm-none-eabi/include/c++/10.3.1/bits/invoke.h **** 
 9570              		.loc 9 60 36
 9571 001c D3ED007A 		vldr.32	s15, [r3]
 9572 0020 B0EE670A 		vmov.f32	s0, s15
 9573 0024 2046     		mov	r0, r4
 9574 0026 FFF7FEFF 		bl	_ZZN5Mixer11initTrackIOEPN5daisy9DaisySeedE7TrackIOS3_S3_S3_ENKUlfE0_clEf
  60:/Library/DaisyToolchain/0.2.0/arm/arm-none-eabi/include/c++/10.3.1/bits/invoke.h **** 
 9575              		.loc 9 60 67
 9576 002a 00BF     		nop
  60:/Library/DaisyToolchain/0.2.0/arm/arm-none-eabi/include/c++/10.3.1/bits/invoke.h **** 
 9577              		.loc 9 60 70
 9578 002c 1437     		adds	r7, r7, #20
 9579              		.cfi_def_cfa_offset 12
 9580 002e BD46     		mov	sp, r7
 9581              		.cfi_def_cfa_register 13
 9582              		@ sp needed
 9583 0030 90BD     		pop	{r4, r7, pc}
 9584              		.cfi_endproc
ARM GAS  /var/folders/wz/z09yph4n0qj4t7mjxhl6ttn80000gn/T//ccxdcdyF.s 			page 204


 9585              	.LFE6371:
 9587              		.section	.text._ZNSt14_Function_base13_Base_managerIZN5Mixer11initTrackIOEPN5daisy9DaisySeedE7Trac
 9588              		.align	1
 9589              		.syntax unified
 9590              		.thumb
 9591              		.thumb_func
 9593              	_ZNSt14_Function_base13_Base_managerIZN5Mixer11initTrackIOEPN5daisy9DaisySeedE7TrackIOS5_S5_S5_EUlf
 9594              	.LFB6372:
 150:/Library/DaisyToolchain/0.2.0/arm/arm-none-eabi/include/c++/10.3.1/bits/std_function.h **** 	{
 9595              		.loc 3 150 2
 9596              		.cfi_startproc
 9597              		@ args = 0, pretend = 0, frame = 16
 9598              		@ frame_needed = 1, uses_anonymous_args = 0
 9599 0000 90B5     		push	{r4, r7, lr}
 9600              		.cfi_def_cfa_offset 12
 9601              		.cfi_offset 4, -12
 9602              		.cfi_offset 7, -8
 9603              		.cfi_offset 14, -4
 9604 0002 85B0     		sub	sp, sp, #20
 9605              		.cfi_def_cfa_offset 32
 9606 0004 00AF     		add	r7, sp, #0
 9607              		.cfi_def_cfa_register 7
 9608 0006 F860     		str	r0, [r7, #12]
 9609 0008 B960     		str	r1, [r7, #8]
 9610 000a 3A71     		strb	r2, [r7, #4]
 152:/Library/DaisyToolchain/0.2.0/arm/arm-none-eabi/include/c++/10.3.1/bits/std_function.h **** 	}
 9611              		.loc 3 152 68
 9612 000c B868     		ldr	r0, [r7, #8]
 9613 000e FFF7FEFF 		bl	_ZNKSt9_Any_data9_M_accessIZN5Mixer11initTrackIOEPN5daisy9DaisySeedE7TrackIOS5_S5_S5_EUlfE0_EER
 9614 0012 0446     		mov	r4, r0
 152:/Library/DaisyToolchain/0.2.0/arm/arm-none-eabi/include/c++/10.3.1/bits/std_function.h **** 	}
 9615              		.loc 3 152 27
 9616 0014 F868     		ldr	r0, [r7, #12]
 9617 0016 FFF7FEFF 		bl	_ZNSt9_Any_data9_M_accessEv
 9618 001a 0346     		mov	r3, r0
 152:/Library/DaisyToolchain/0.2.0/arm/arm-none-eabi/include/c++/10.3.1/bits/std_function.h **** 	}
 9619              		.loc 3 152 4
 9620 001c 1946     		mov	r1, r3
 9621 001e 0420     		movs	r0, #4
 9622 0020 FFF7FEFF 		bl	_ZnwjPv
 9623 0024 0246     		mov	r2, r0
 9624 0026 2368     		ldr	r3, [r4]
 9625 0028 1360     		str	r3, [r2]
 153:/Library/DaisyToolchain/0.2.0/arm/arm-none-eabi/include/c++/10.3.1/bits/std_function.h **** 
 9626              		.loc 3 153 2
 9627 002a 00BF     		nop
 9628 002c 1437     		adds	r7, r7, #20
 9629              		.cfi_def_cfa_offset 12
 9630 002e BD46     		mov	sp, r7
 9631              		.cfi_def_cfa_register 13
 9632              		@ sp needed
 9633 0030 90BD     		pop	{r4, r7, pc}
 9634              		.cfi_endproc
 9635              	.LFE6372:
 9637              		.section	.text._ZNSt14_Function_base13_Base_managerIZN5Mixer11initTrackIOEPN5daisy9DaisySeedE7Trac
 9638              		.align	1
 9639              		.syntax unified
ARM GAS  /var/folders/wz/z09yph4n0qj4t7mjxhl6ttn80000gn/T//ccxdcdyF.s 			page 205


 9640              		.thumb
 9641              		.thumb_func
 9643              	_ZNSt14_Function_base13_Base_managerIZN5Mixer11initTrackIOEPN5daisy9DaisySeedE7TrackIOS5_S5_S5_EUlf
 9644              	.LFB6373:
 167:/Library/DaisyToolchain/0.2.0/arm/arm-none-eabi/include/c++/10.3.1/bits/std_function.h **** 	{
 9645              		.loc 3 167 2
 9646              		.cfi_startproc
 9647              		@ args = 0, pretend = 0, frame = 8
 9648              		@ frame_needed = 1, uses_anonymous_args = 0
 9649 0000 80B5     		push	{r7, lr}
 9650              		.cfi_def_cfa_offset 8
 9651              		.cfi_offset 7, -8
 9652              		.cfi_offset 14, -4
 9653 0002 82B0     		sub	sp, sp, #8
 9654              		.cfi_def_cfa_offset 16
 9655 0004 00AF     		add	r7, sp, #0
 9656              		.cfi_def_cfa_register 7
 9657 0006 7860     		str	r0, [r7, #4]
 9658 0008 3970     		strb	r1, [r7]
 169:/Library/DaisyToolchain/0.2.0/arm/arm-none-eabi/include/c++/10.3.1/bits/std_function.h **** 	}
 9659              		.loc 3 169 32
 9660 000a 7868     		ldr	r0, [r7, #4]
 9661 000c FFF7FEFF 		bl	_ZNSt9_Any_data9_M_accessIZN5Mixer11initTrackIOEPN5daisy9DaisySeedE7TrackIOS5_S5_S5_EUlfE0_EERT
 170:/Library/DaisyToolchain/0.2.0/arm/arm-none-eabi/include/c++/10.3.1/bits/std_function.h **** 
 9662              		.loc 3 170 2
 9663 0010 00BF     		nop
 9664 0012 0837     		adds	r7, r7, #8
 9665              		.cfi_def_cfa_offset 8
 9666 0014 BD46     		mov	sp, r7
 9667              		.cfi_def_cfa_register 13
 9668              		@ sp needed
 9669 0016 80BD     		pop	{r7, pc}
 9670              		.cfi_endproc
 9671              	.LFE6373:
 9673              		.section	.text._ZNKSt9_Any_data9_M_accessIZN5Mixer11initTrackIOEPN5daisy9DaisySeedE7TrackIOS5_S5_S
 9674              		.align	1
 9675              		.syntax unified
 9676              		.thumb
 9677              		.thumb_func
 9679              	_ZNKSt9_Any_data9_M_accessIZN5Mixer11initTrackIOEPN5daisy9DaisySeedE7TrackIOS5_S5_S5_EUlfE1_EERKT_v
 9680              	.LFB6374:
  97:/Library/DaisyToolchain/0.2.0/arm/arm-none-eabi/include/c++/10.3.1/bits/std_function.h ****       { return *static_cast<const _Tp*>(_M_access()); }
 9681              		.loc 3 97 7
 9682              		.cfi_startproc
 9683              		@ args = 0, pretend = 0, frame = 8
 9684              		@ frame_needed = 1, uses_anonymous_args = 0
 9685 0000 80B5     		push	{r7, lr}
 9686              		.cfi_def_cfa_offset 8
 9687              		.cfi_offset 7, -8
 9688              		.cfi_offset 14, -4
 9689 0002 82B0     		sub	sp, sp, #8
 9690              		.cfi_def_cfa_offset 16
 9691 0004 00AF     		add	r7, sp, #0
 9692              		.cfi_def_cfa_register 7
 9693 0006 7860     		str	r0, [r7, #4]
  98:/Library/DaisyToolchain/0.2.0/arm/arm-none-eabi/include/c++/10.3.1/bits/std_function.h **** 
 9694              		.loc 3 98 50
ARM GAS  /var/folders/wz/z09yph4n0qj4t7mjxhl6ttn80000gn/T//ccxdcdyF.s 			page 206


 9695 0008 7868     		ldr	r0, [r7, #4]
 9696 000a FFF7FEFF 		bl	_ZNKSt9_Any_data9_M_accessEv
 9697 000e 0346     		mov	r3, r0
  98:/Library/DaisyToolchain/0.2.0/arm/arm-none-eabi/include/c++/10.3.1/bits/std_function.h **** 
 9698              		.loc 3 98 55
 9699 0010 1846     		mov	r0, r3
 9700 0012 0837     		adds	r7, r7, #8
 9701              		.cfi_def_cfa_offset 8
 9702 0014 BD46     		mov	sp, r7
 9703              		.cfi_def_cfa_register 13
 9704              		@ sp needed
 9705 0016 80BD     		pop	{r7, pc}
 9706              		.cfi_endproc
 9707              	.LFE6374:
 9709              		.section	.text._ZSt11__addressofIKZN5Mixer11initTrackIOEPN5daisy9DaisySeedE7TrackIOS4_S4_S4_EUlfE1
 9710              		.align	1
 9711              		.syntax unified
 9712              		.thumb
 9713              		.thumb_func
 9715              	_ZSt11__addressofIKZN5Mixer11initTrackIOEPN5daisy9DaisySeedE7TrackIOS4_S4_S4_EUlfE1_EPT_RS7_:
 9716              	.LFB6375:
  49:/Library/DaisyToolchain/0.2.0/arm/arm-none-eabi/include/c++/10.3.1/bits/move.h ****     { return __builtin_addressof(__r); }
 9717              		.loc 8 49 5
 9718              		.cfi_startproc
 9719              		@ args = 0, pretend = 0, frame = 8
 9720              		@ frame_needed = 1, uses_anonymous_args = 0
 9721              		@ link register save eliminated.
 9722 0000 80B4     		push	{r7}
 9723              		.cfi_def_cfa_offset 4
 9724              		.cfi_offset 7, -4
 9725 0002 83B0     		sub	sp, sp, #12
 9726              		.cfi_def_cfa_offset 16
 9727 0004 00AF     		add	r7, sp, #0
 9728              		.cfi_def_cfa_register 7
 9729 0006 7860     		str	r0, [r7, #4]
  50:/Library/DaisyToolchain/0.2.0/arm/arm-none-eabi/include/c++/10.3.1/bits/move.h **** 
 9730              		.loc 8 50 37
 9731 0008 7B68     		ldr	r3, [r7, #4]
  50:/Library/DaisyToolchain/0.2.0/arm/arm-none-eabi/include/c++/10.3.1/bits/move.h **** 
 9732              		.loc 8 50 40
 9733 000a 1846     		mov	r0, r3
 9734 000c 0C37     		adds	r7, r7, #12
 9735              		.cfi_def_cfa_offset 4
 9736 000e BD46     		mov	sp, r7
 9737              		.cfi_def_cfa_register 13
 9738              		@ sp needed
 9739 0010 5DF8047B 		ldr	r7, [sp], #4
 9740              		.cfi_restore 7
 9741              		.cfi_def_cfa_offset 0
 9742 0014 7047     		bx	lr
 9743              		.cfi_endproc
 9744              	.LFE6375:
 9746              		.section	.text._ZSt7forwardIRZN5Mixer11initTrackIOEPN5daisy9DaisySeedE7TrackIOS4_S4_S4_EUlfE1_EOT_
 9747              		.align	1
 9748              		.syntax unified
 9749              		.thumb
 9750              		.thumb_func
ARM GAS  /var/folders/wz/z09yph4n0qj4t7mjxhl6ttn80000gn/T//ccxdcdyF.s 			page 207


 9752              	_ZSt7forwardIRZN5Mixer11initTrackIOEPN5daisy9DaisySeedE7TrackIOS4_S4_S4_EUlfE1_EOT_RNSt16remove_ref
 9753              	.LFB6377:
  76:/Library/DaisyToolchain/0.2.0/arm/arm-none-eabi/include/c++/10.3.1/bits/move.h ****     { return static_cast<_Tp&&>(__t); }
 9754              		.loc 8 76 5
 9755              		.cfi_startproc
 9756              		@ args = 0, pretend = 0, frame = 8
 9757              		@ frame_needed = 1, uses_anonymous_args = 0
 9758              		@ link register save eliminated.
 9759 0000 80B4     		push	{r7}
 9760              		.cfi_def_cfa_offset 4
 9761              		.cfi_offset 7, -4
 9762 0002 83B0     		sub	sp, sp, #12
 9763              		.cfi_def_cfa_offset 16
 9764 0004 00AF     		add	r7, sp, #0
 9765              		.cfi_def_cfa_register 7
 9766 0006 7860     		str	r0, [r7, #4]
  77:/Library/DaisyToolchain/0.2.0/arm/arm-none-eabi/include/c++/10.3.1/bits/move.h **** 
 9767              		.loc 8 77 36
 9768 0008 7B68     		ldr	r3, [r7, #4]
  77:/Library/DaisyToolchain/0.2.0/arm/arm-none-eabi/include/c++/10.3.1/bits/move.h **** 
 9769              		.loc 8 77 39
 9770 000a 1846     		mov	r0, r3
 9771 000c 0C37     		adds	r7, r7, #12
 9772              		.cfi_def_cfa_offset 4
 9773 000e BD46     		mov	sp, r7
 9774              		.cfi_def_cfa_register 13
 9775              		@ sp needed
 9776 0010 5DF8047B 		ldr	r7, [sp], #4
 9777              		.cfi_restore 7
 9778              		.cfi_def_cfa_offset 0
 9779 0014 7047     		bx	lr
 9780              		.cfi_endproc
 9781              	.LFE6377:
 9783              		.section	.text._ZSt13__invoke_implIvRZN5Mixer11initTrackIOEPN5daisy9DaisySeedE7TrackIOS4_S4_S4_EUl
 9784              		.align	1
 9785              		.syntax unified
 9786              		.thumb
 9787              		.thumb_func
 9789              	_ZSt13__invoke_implIvRZN5Mixer11initTrackIOEPN5daisy9DaisySeedE7TrackIOS4_S4_S4_EUlfE1_JfEET_St14__
 9790              	.LFB6378:
  59:/Library/DaisyToolchain/0.2.0/arm/arm-none-eabi/include/c++/10.3.1/bits/invoke.h ****     { return std::forward<_Fn>(__f)(std::forward<_Args>(__args)...); }
 9791              		.loc 9 59 5
 9792              		.cfi_startproc
 9793              		@ args = 0, pretend = 0, frame = 16
 9794              		@ frame_needed = 1, uses_anonymous_args = 0
 9795 0000 90B5     		push	{r4, r7, lr}
 9796              		.cfi_def_cfa_offset 12
 9797              		.cfi_offset 4, -12
 9798              		.cfi_offset 7, -8
 9799              		.cfi_offset 14, -4
 9800 0002 85B0     		sub	sp, sp, #20
 9801              		.cfi_def_cfa_offset 32
 9802 0004 00AF     		add	r7, sp, #0
 9803              		.cfi_def_cfa_register 7
 9804 0006 3873     		strb	r0, [r7, #12]
 9805 0008 B960     		str	r1, [r7, #8]
 9806 000a 7A60     		str	r2, [r7, #4]
ARM GAS  /var/folders/wz/z09yph4n0qj4t7mjxhl6ttn80000gn/T//ccxdcdyF.s 			page 208


  60:/Library/DaisyToolchain/0.2.0/arm/arm-none-eabi/include/c++/10.3.1/bits/invoke.h **** 
 9807              		.loc 9 60 31
 9808 000c B868     		ldr	r0, [r7, #8]
 9809 000e FFF7FEFF 		bl	_ZSt7forwardIRZN5Mixer11initTrackIOEPN5daisy9DaisySeedE7TrackIOS4_S4_S4_EUlfE1_EOT_RNSt16remove
 9810 0012 0446     		mov	r4, r0
  60:/Library/DaisyToolchain/0.2.0/arm/arm-none-eabi/include/c++/10.3.1/bits/invoke.h **** 
 9811              		.loc 9 60 56
 9812 0014 7868     		ldr	r0, [r7, #4]
 9813 0016 FFF7FEFF 		bl	_ZSt7forwardIfEOT_RNSt16remove_referenceIS0_E4typeE
 9814 001a 0346     		mov	r3, r0
  60:/Library/DaisyToolchain/0.2.0/arm/arm-none-eabi/include/c++/10.3.1/bits/invoke.h **** 
 9815              		.loc 9 60 36
 9816 001c D3ED007A 		vldr.32	s15, [r3]
 9817 0020 B0EE670A 		vmov.f32	s0, s15
 9818 0024 2046     		mov	r0, r4
 9819 0026 FFF7FEFF 		bl	_ZZN5Mixer11initTrackIOEPN5daisy9DaisySeedE7TrackIOS3_S3_S3_ENKUlfE1_clEf
  60:/Library/DaisyToolchain/0.2.0/arm/arm-none-eabi/include/c++/10.3.1/bits/invoke.h **** 
 9820              		.loc 9 60 67
 9821 002a 00BF     		nop
  60:/Library/DaisyToolchain/0.2.0/arm/arm-none-eabi/include/c++/10.3.1/bits/invoke.h **** 
 9822              		.loc 9 60 70
 9823 002c 1437     		adds	r7, r7, #20
 9824              		.cfi_def_cfa_offset 12
 9825 002e BD46     		mov	sp, r7
 9826              		.cfi_def_cfa_register 13
 9827              		@ sp needed
 9828 0030 90BD     		pop	{r4, r7, pc}
 9829              		.cfi_endproc
 9830              	.LFE6378:
 9832              		.section	.text._ZNSt14_Function_base13_Base_managerIZN5Mixer11initTrackIOEPN5daisy9DaisySeedE7Trac
 9833              		.align	1
 9834              		.syntax unified
 9835              		.thumb
 9836              		.thumb_func
 9838              	_ZNSt14_Function_base13_Base_managerIZN5Mixer11initTrackIOEPN5daisy9DaisySeedE7TrackIOS5_S5_S5_EUlf
 9839              	.LFB6379:
 150:/Library/DaisyToolchain/0.2.0/arm/arm-none-eabi/include/c++/10.3.1/bits/std_function.h **** 	{
 9840              		.loc 3 150 2
 9841              		.cfi_startproc
 9842              		@ args = 0, pretend = 0, frame = 16
 9843              		@ frame_needed = 1, uses_anonymous_args = 0
 9844 0000 90B5     		push	{r4, r7, lr}
 9845              		.cfi_def_cfa_offset 12
 9846              		.cfi_offset 4, -12
 9847              		.cfi_offset 7, -8
 9848              		.cfi_offset 14, -4
 9849 0002 85B0     		sub	sp, sp, #20
 9850              		.cfi_def_cfa_offset 32
 9851 0004 00AF     		add	r7, sp, #0
 9852              		.cfi_def_cfa_register 7
 9853 0006 F860     		str	r0, [r7, #12]
 9854 0008 B960     		str	r1, [r7, #8]
 9855 000a 3A71     		strb	r2, [r7, #4]
 152:/Library/DaisyToolchain/0.2.0/arm/arm-none-eabi/include/c++/10.3.1/bits/std_function.h **** 	}
 9856              		.loc 3 152 68
 9857 000c B868     		ldr	r0, [r7, #8]
 9858 000e FFF7FEFF 		bl	_ZNKSt9_Any_data9_M_accessIZN5Mixer11initTrackIOEPN5daisy9DaisySeedE7TrackIOS5_S5_S5_EUlfE1_EER
ARM GAS  /var/folders/wz/z09yph4n0qj4t7mjxhl6ttn80000gn/T//ccxdcdyF.s 			page 209


 9859 0012 0446     		mov	r4, r0
 152:/Library/DaisyToolchain/0.2.0/arm/arm-none-eabi/include/c++/10.3.1/bits/std_function.h **** 	}
 9860              		.loc 3 152 27
 9861 0014 F868     		ldr	r0, [r7, #12]
 9862 0016 FFF7FEFF 		bl	_ZNSt9_Any_data9_M_accessEv
 9863 001a 0346     		mov	r3, r0
 152:/Library/DaisyToolchain/0.2.0/arm/arm-none-eabi/include/c++/10.3.1/bits/std_function.h **** 	}
 9864              		.loc 3 152 4
 9865 001c 1946     		mov	r1, r3
 9866 001e 0420     		movs	r0, #4
 9867 0020 FFF7FEFF 		bl	_ZnwjPv
 9868 0024 0246     		mov	r2, r0
 9869 0026 2368     		ldr	r3, [r4]
 9870 0028 1360     		str	r3, [r2]
 153:/Library/DaisyToolchain/0.2.0/arm/arm-none-eabi/include/c++/10.3.1/bits/std_function.h **** 
 9871              		.loc 3 153 2
 9872 002a 00BF     		nop
 9873 002c 1437     		adds	r7, r7, #20
 9874              		.cfi_def_cfa_offset 12
 9875 002e BD46     		mov	sp, r7
 9876              		.cfi_def_cfa_register 13
 9877              		@ sp needed
 9878 0030 90BD     		pop	{r4, r7, pc}
 9879              		.cfi_endproc
 9880              	.LFE6379:
 9882              		.section	.text._ZNSt14_Function_base13_Base_managerIZN5Mixer11initTrackIOEPN5daisy9DaisySeedE7Trac
 9883              		.align	1
 9884              		.syntax unified
 9885              		.thumb
 9886              		.thumb_func
 9888              	_ZNSt14_Function_base13_Base_managerIZN5Mixer11initTrackIOEPN5daisy9DaisySeedE7TrackIOS5_S5_S5_EUlf
 9889              	.LFB6380:
 167:/Library/DaisyToolchain/0.2.0/arm/arm-none-eabi/include/c++/10.3.1/bits/std_function.h **** 	{
 9890              		.loc 3 167 2
 9891              		.cfi_startproc
 9892              		@ args = 0, pretend = 0, frame = 8
 9893              		@ frame_needed = 1, uses_anonymous_args = 0
 9894 0000 80B5     		push	{r7, lr}
 9895              		.cfi_def_cfa_offset 8
 9896              		.cfi_offset 7, -8
 9897              		.cfi_offset 14, -4
 9898 0002 82B0     		sub	sp, sp, #8
 9899              		.cfi_def_cfa_offset 16
 9900 0004 00AF     		add	r7, sp, #0
 9901              		.cfi_def_cfa_register 7
 9902 0006 7860     		str	r0, [r7, #4]
 9903 0008 3970     		strb	r1, [r7]
 169:/Library/DaisyToolchain/0.2.0/arm/arm-none-eabi/include/c++/10.3.1/bits/std_function.h **** 	}
 9904              		.loc 3 169 32
 9905 000a 7868     		ldr	r0, [r7, #4]
 9906 000c FFF7FEFF 		bl	_ZNSt9_Any_data9_M_accessIZN5Mixer11initTrackIOEPN5daisy9DaisySeedE7TrackIOS5_S5_S5_EUlfE1_EERT
 170:/Library/DaisyToolchain/0.2.0/arm/arm-none-eabi/include/c++/10.3.1/bits/std_function.h **** 
 9907              		.loc 3 170 2
 9908 0010 00BF     		nop
 9909 0012 0837     		adds	r7, r7, #8
 9910              		.cfi_def_cfa_offset 8
 9911 0014 BD46     		mov	sp, r7
ARM GAS  /var/folders/wz/z09yph4n0qj4t7mjxhl6ttn80000gn/T//ccxdcdyF.s 			page 210


 9912              		.cfi_def_cfa_register 13
 9913              		@ sp needed
 9914 0016 80BD     		pop	{r7, pc}
 9915              		.cfi_endproc
 9916              	.LFE6380:
 9918              		.section	.text._ZNKSt9_Any_data9_M_accessIZN5Mixer11initTrackIOEPN5daisy9DaisySeedE7TrackIOS5_S5_S
 9919              		.align	1
 9920              		.syntax unified
 9921              		.thumb
 9922              		.thumb_func
 9924              	_ZNKSt9_Any_data9_M_accessIZN5Mixer11initTrackIOEPN5daisy9DaisySeedE7TrackIOS5_S5_S5_EUlfE2_EERKT_v
 9925              	.LFB6381:
  97:/Library/DaisyToolchain/0.2.0/arm/arm-none-eabi/include/c++/10.3.1/bits/std_function.h ****       { return *static_cast<const _Tp*>(_M_access()); }
 9926              		.loc 3 97 7
 9927              		.cfi_startproc
 9928              		@ args = 0, pretend = 0, frame = 8
 9929              		@ frame_needed = 1, uses_anonymous_args = 0
 9930 0000 80B5     		push	{r7, lr}
 9931              		.cfi_def_cfa_offset 8
 9932              		.cfi_offset 7, -8
 9933              		.cfi_offset 14, -4
 9934 0002 82B0     		sub	sp, sp, #8
 9935              		.cfi_def_cfa_offset 16
 9936 0004 00AF     		add	r7, sp, #0
 9937              		.cfi_def_cfa_register 7
 9938 0006 7860     		str	r0, [r7, #4]
  98:/Library/DaisyToolchain/0.2.0/arm/arm-none-eabi/include/c++/10.3.1/bits/std_function.h **** 
 9939              		.loc 3 98 50
 9940 0008 7868     		ldr	r0, [r7, #4]
 9941 000a FFF7FEFF 		bl	_ZNKSt9_Any_data9_M_accessEv
 9942 000e 0346     		mov	r3, r0
  98:/Library/DaisyToolchain/0.2.0/arm/arm-none-eabi/include/c++/10.3.1/bits/std_function.h **** 
 9943              		.loc 3 98 55
 9944 0010 1846     		mov	r0, r3
 9945 0012 0837     		adds	r7, r7, #8
 9946              		.cfi_def_cfa_offset 8
 9947 0014 BD46     		mov	sp, r7
 9948              		.cfi_def_cfa_register 13
 9949              		@ sp needed
 9950 0016 80BD     		pop	{r7, pc}
 9951              		.cfi_endproc
 9952              	.LFE6381:
 9954              		.section	.text._ZSt11__addressofIKZN5Mixer11initTrackIOEPN5daisy9DaisySeedE7TrackIOS4_S4_S4_EUlfE2
 9955              		.align	1
 9956              		.syntax unified
 9957              		.thumb
 9958              		.thumb_func
 9960              	_ZSt11__addressofIKZN5Mixer11initTrackIOEPN5daisy9DaisySeedE7TrackIOS4_S4_S4_EUlfE2_EPT_RS7_:
 9961              	.LFB6382:
  49:/Library/DaisyToolchain/0.2.0/arm/arm-none-eabi/include/c++/10.3.1/bits/move.h ****     { return __builtin_addressof(__r); }
 9962              		.loc 8 49 5
 9963              		.cfi_startproc
 9964              		@ args = 0, pretend = 0, frame = 8
 9965              		@ frame_needed = 1, uses_anonymous_args = 0
 9966              		@ link register save eliminated.
 9967 0000 80B4     		push	{r7}
 9968              		.cfi_def_cfa_offset 4
ARM GAS  /var/folders/wz/z09yph4n0qj4t7mjxhl6ttn80000gn/T//ccxdcdyF.s 			page 211


 9969              		.cfi_offset 7, -4
 9970 0002 83B0     		sub	sp, sp, #12
 9971              		.cfi_def_cfa_offset 16
 9972 0004 00AF     		add	r7, sp, #0
 9973              		.cfi_def_cfa_register 7
 9974 0006 7860     		str	r0, [r7, #4]
  50:/Library/DaisyToolchain/0.2.0/arm/arm-none-eabi/include/c++/10.3.1/bits/move.h **** 
 9975              		.loc 8 50 37
 9976 0008 7B68     		ldr	r3, [r7, #4]
  50:/Library/DaisyToolchain/0.2.0/arm/arm-none-eabi/include/c++/10.3.1/bits/move.h **** 
 9977              		.loc 8 50 40
 9978 000a 1846     		mov	r0, r3
 9979 000c 0C37     		adds	r7, r7, #12
 9980              		.cfi_def_cfa_offset 4
 9981 000e BD46     		mov	sp, r7
 9982              		.cfi_def_cfa_register 13
 9983              		@ sp needed
 9984 0010 5DF8047B 		ldr	r7, [sp], #4
 9985              		.cfi_restore 7
 9986              		.cfi_def_cfa_offset 0
 9987 0014 7047     		bx	lr
 9988              		.cfi_endproc
 9989              	.LFE6382:
 9991              		.section	.text._ZSt7forwardIRZN5Mixer11initTrackIOEPN5daisy9DaisySeedE7TrackIOS4_S4_S4_EUlfE2_EOT_
 9992              		.align	1
 9993              		.syntax unified
 9994              		.thumb
 9995              		.thumb_func
 9997              	_ZSt7forwardIRZN5Mixer11initTrackIOEPN5daisy9DaisySeedE7TrackIOS4_S4_S4_EUlfE2_EOT_RNSt16remove_ref
 9998              	.LFB6384:
  76:/Library/DaisyToolchain/0.2.0/arm/arm-none-eabi/include/c++/10.3.1/bits/move.h ****     { return static_cast<_Tp&&>(__t); }
 9999              		.loc 8 76 5
 10000              		.cfi_startproc
 10001              		@ args = 0, pretend = 0, frame = 8
 10002              		@ frame_needed = 1, uses_anonymous_args = 0
 10003              		@ link register save eliminated.
 10004 0000 80B4     		push	{r7}
 10005              		.cfi_def_cfa_offset 4
 10006              		.cfi_offset 7, -4
 10007 0002 83B0     		sub	sp, sp, #12
 10008              		.cfi_def_cfa_offset 16
 10009 0004 00AF     		add	r7, sp, #0
 10010              		.cfi_def_cfa_register 7
 10011 0006 7860     		str	r0, [r7, #4]
  77:/Library/DaisyToolchain/0.2.0/arm/arm-none-eabi/include/c++/10.3.1/bits/move.h **** 
 10012              		.loc 8 77 36
 10013 0008 7B68     		ldr	r3, [r7, #4]
  77:/Library/DaisyToolchain/0.2.0/arm/arm-none-eabi/include/c++/10.3.1/bits/move.h **** 
 10014              		.loc 8 77 39
 10015 000a 1846     		mov	r0, r3
 10016 000c 0C37     		adds	r7, r7, #12
 10017              		.cfi_def_cfa_offset 4
 10018 000e BD46     		mov	sp, r7
 10019              		.cfi_def_cfa_register 13
 10020              		@ sp needed
 10021 0010 5DF8047B 		ldr	r7, [sp], #4
 10022              		.cfi_restore 7
ARM GAS  /var/folders/wz/z09yph4n0qj4t7mjxhl6ttn80000gn/T//ccxdcdyF.s 			page 212


 10023              		.cfi_def_cfa_offset 0
 10024 0014 7047     		bx	lr
 10025              		.cfi_endproc
 10026              	.LFE6384:
 10028              		.section	.text._ZSt13__invoke_implIvRZN5Mixer11initTrackIOEPN5daisy9DaisySeedE7TrackIOS4_S4_S4_EUl
 10029              		.align	1
 10030              		.syntax unified
 10031              		.thumb
 10032              		.thumb_func
 10034              	_ZSt13__invoke_implIvRZN5Mixer11initTrackIOEPN5daisy9DaisySeedE7TrackIOS4_S4_S4_EUlfE2_JfEET_St14__
 10035              	.LFB6385:
  59:/Library/DaisyToolchain/0.2.0/arm/arm-none-eabi/include/c++/10.3.1/bits/invoke.h ****     { return std::forward<_Fn>(__f)(std::forward<_Args>(__args)...); }
 10036              		.loc 9 59 5
 10037              		.cfi_startproc
 10038              		@ args = 0, pretend = 0, frame = 16
 10039              		@ frame_needed = 1, uses_anonymous_args = 0
 10040 0000 90B5     		push	{r4, r7, lr}
 10041              		.cfi_def_cfa_offset 12
 10042              		.cfi_offset 4, -12
 10043              		.cfi_offset 7, -8
 10044              		.cfi_offset 14, -4
 10045 0002 85B0     		sub	sp, sp, #20
 10046              		.cfi_def_cfa_offset 32
 10047 0004 00AF     		add	r7, sp, #0
 10048              		.cfi_def_cfa_register 7
 10049 0006 3873     		strb	r0, [r7, #12]
 10050 0008 B960     		str	r1, [r7, #8]
 10051 000a 7A60     		str	r2, [r7, #4]
  60:/Library/DaisyToolchain/0.2.0/arm/arm-none-eabi/include/c++/10.3.1/bits/invoke.h **** 
 10052              		.loc 9 60 31
 10053 000c B868     		ldr	r0, [r7, #8]
 10054 000e FFF7FEFF 		bl	_ZSt7forwardIRZN5Mixer11initTrackIOEPN5daisy9DaisySeedE7TrackIOS4_S4_S4_EUlfE2_EOT_RNSt16remove
 10055 0012 0446     		mov	r4, r0
  60:/Library/DaisyToolchain/0.2.0/arm/arm-none-eabi/include/c++/10.3.1/bits/invoke.h **** 
 10056              		.loc 9 60 56
 10057 0014 7868     		ldr	r0, [r7, #4]
 10058 0016 FFF7FEFF 		bl	_ZSt7forwardIfEOT_RNSt16remove_referenceIS0_E4typeE
 10059 001a 0346     		mov	r3, r0
  60:/Library/DaisyToolchain/0.2.0/arm/arm-none-eabi/include/c++/10.3.1/bits/invoke.h **** 
 10060              		.loc 9 60 36
 10061 001c D3ED007A 		vldr.32	s15, [r3]
 10062 0020 B0EE670A 		vmov.f32	s0, s15
 10063 0024 2046     		mov	r0, r4
 10064 0026 FFF7FEFF 		bl	_ZZN5Mixer11initTrackIOEPN5daisy9DaisySeedE7TrackIOS3_S3_S3_ENKUlfE2_clEf
  60:/Library/DaisyToolchain/0.2.0/arm/arm-none-eabi/include/c++/10.3.1/bits/invoke.h **** 
 10065              		.loc 9 60 67
 10066 002a 00BF     		nop
  60:/Library/DaisyToolchain/0.2.0/arm/arm-none-eabi/include/c++/10.3.1/bits/invoke.h **** 
 10067              		.loc 9 60 70
 10068 002c 1437     		adds	r7, r7, #20
 10069              		.cfi_def_cfa_offset 12
 10070 002e BD46     		mov	sp, r7
 10071              		.cfi_def_cfa_register 13
 10072              		@ sp needed
 10073 0030 90BD     		pop	{r4, r7, pc}
 10074              		.cfi_endproc
 10075              	.LFE6385:
ARM GAS  /var/folders/wz/z09yph4n0qj4t7mjxhl6ttn80000gn/T//ccxdcdyF.s 			page 213


 10077              		.section	.text._ZNSt14_Function_base13_Base_managerIZN5Mixer11initTrackIOEPN5daisy9DaisySeedE7Trac
 10078              		.align	1
 10079              		.syntax unified
 10080              		.thumb
 10081              		.thumb_func
 10083              	_ZNSt14_Function_base13_Base_managerIZN5Mixer11initTrackIOEPN5daisy9DaisySeedE7TrackIOS5_S5_S5_EUlf
 10084              	.LFB6386:
 150:/Library/DaisyToolchain/0.2.0/arm/arm-none-eabi/include/c++/10.3.1/bits/std_function.h **** 	{
 10085              		.loc 3 150 2
 10086              		.cfi_startproc
 10087              		@ args = 0, pretend = 0, frame = 16
 10088              		@ frame_needed = 1, uses_anonymous_args = 0
 10089 0000 90B5     		push	{r4, r7, lr}
 10090              		.cfi_def_cfa_offset 12
 10091              		.cfi_offset 4, -12
 10092              		.cfi_offset 7, -8
 10093              		.cfi_offset 14, -4
 10094 0002 85B0     		sub	sp, sp, #20
 10095              		.cfi_def_cfa_offset 32
 10096 0004 00AF     		add	r7, sp, #0
 10097              		.cfi_def_cfa_register 7
 10098 0006 F860     		str	r0, [r7, #12]
 10099 0008 B960     		str	r1, [r7, #8]
 10100 000a 3A71     		strb	r2, [r7, #4]
 152:/Library/DaisyToolchain/0.2.0/arm/arm-none-eabi/include/c++/10.3.1/bits/std_function.h **** 	}
 10101              		.loc 3 152 68
 10102 000c B868     		ldr	r0, [r7, #8]
 10103 000e FFF7FEFF 		bl	_ZNKSt9_Any_data9_M_accessIZN5Mixer11initTrackIOEPN5daisy9DaisySeedE7TrackIOS5_S5_S5_EUlfE2_EER
 10104 0012 0446     		mov	r4, r0
 152:/Library/DaisyToolchain/0.2.0/arm/arm-none-eabi/include/c++/10.3.1/bits/std_function.h **** 	}
 10105              		.loc 3 152 27
 10106 0014 F868     		ldr	r0, [r7, #12]
 10107 0016 FFF7FEFF 		bl	_ZNSt9_Any_data9_M_accessEv
 10108 001a 0346     		mov	r3, r0
 152:/Library/DaisyToolchain/0.2.0/arm/arm-none-eabi/include/c++/10.3.1/bits/std_function.h **** 	}
 10109              		.loc 3 152 4
 10110 001c 1946     		mov	r1, r3
 10111 001e 0420     		movs	r0, #4
 10112 0020 FFF7FEFF 		bl	_ZnwjPv
 10113 0024 0246     		mov	r2, r0
 10114 0026 2368     		ldr	r3, [r4]
 10115 0028 1360     		str	r3, [r2]
 153:/Library/DaisyToolchain/0.2.0/arm/arm-none-eabi/include/c++/10.3.1/bits/std_function.h **** 
 10116              		.loc 3 153 2
 10117 002a 00BF     		nop
 10118 002c 1437     		adds	r7, r7, #20
 10119              		.cfi_def_cfa_offset 12
 10120 002e BD46     		mov	sp, r7
 10121              		.cfi_def_cfa_register 13
 10122              		@ sp needed
 10123 0030 90BD     		pop	{r4, r7, pc}
 10124              		.cfi_endproc
 10125              	.LFE6386:
 10127              		.section	.text._ZNSt14_Function_base13_Base_managerIZN5Mixer11initTrackIOEPN5daisy9DaisySeedE7Trac
 10128              		.align	1
 10129              		.syntax unified
 10130              		.thumb
ARM GAS  /var/folders/wz/z09yph4n0qj4t7mjxhl6ttn80000gn/T//ccxdcdyF.s 			page 214


 10131              		.thumb_func
 10133              	_ZNSt14_Function_base13_Base_managerIZN5Mixer11initTrackIOEPN5daisy9DaisySeedE7TrackIOS5_S5_S5_EUlf
 10134              	.LFB6387:
 167:/Library/DaisyToolchain/0.2.0/arm/arm-none-eabi/include/c++/10.3.1/bits/std_function.h **** 	{
 10135              		.loc 3 167 2
 10136              		.cfi_startproc
 10137              		@ args = 0, pretend = 0, frame = 8
 10138              		@ frame_needed = 1, uses_anonymous_args = 0
 10139 0000 80B5     		push	{r7, lr}
 10140              		.cfi_def_cfa_offset 8
 10141              		.cfi_offset 7, -8
 10142              		.cfi_offset 14, -4
 10143 0002 82B0     		sub	sp, sp, #8
 10144              		.cfi_def_cfa_offset 16
 10145 0004 00AF     		add	r7, sp, #0
 10146              		.cfi_def_cfa_register 7
 10147 0006 7860     		str	r0, [r7, #4]
 10148 0008 3970     		strb	r1, [r7]
 169:/Library/DaisyToolchain/0.2.0/arm/arm-none-eabi/include/c++/10.3.1/bits/std_function.h **** 	}
 10149              		.loc 3 169 32
 10150 000a 7868     		ldr	r0, [r7, #4]
 10151 000c FFF7FEFF 		bl	_ZNSt9_Any_data9_M_accessIZN5Mixer11initTrackIOEPN5daisy9DaisySeedE7TrackIOS5_S5_S5_EUlfE2_EERT
 170:/Library/DaisyToolchain/0.2.0/arm/arm-none-eabi/include/c++/10.3.1/bits/std_function.h **** 
 10152              		.loc 3 170 2
 10153 0010 00BF     		nop
 10154 0012 0837     		adds	r7, r7, #8
 10155              		.cfi_def_cfa_offset 8
 10156 0014 BD46     		mov	sp, r7
 10157              		.cfi_def_cfa_register 13
 10158              		@ sp needed
 10159 0016 80BD     		pop	{r7, pc}
 10160              		.cfi_endproc
 10161              	.LFE6387:
 10163              		.section	.text._ZNKSt9_Any_data9_M_accessIZN5Mixer11initTrackIOEPN5daisy9DaisySeedE7TrackIOS5_S5_S
 10164              		.align	1
 10165              		.syntax unified
 10166              		.thumb
 10167              		.thumb_func
 10169              	_ZNKSt9_Any_data9_M_accessIZN5Mixer11initTrackIOEPN5daisy9DaisySeedE7TrackIOS5_S5_S5_EUlfE3_EERKT_v
 10170              	.LFB6388:
  97:/Library/DaisyToolchain/0.2.0/arm/arm-none-eabi/include/c++/10.3.1/bits/std_function.h ****       { return *static_cast<const _Tp*>(_M_access()); }
 10171              		.loc 3 97 7
 10172              		.cfi_startproc
 10173              		@ args = 0, pretend = 0, frame = 8
 10174              		@ frame_needed = 1, uses_anonymous_args = 0
 10175 0000 80B5     		push	{r7, lr}
 10176              		.cfi_def_cfa_offset 8
 10177              		.cfi_offset 7, -8
 10178              		.cfi_offset 14, -4
 10179 0002 82B0     		sub	sp, sp, #8
 10180              		.cfi_def_cfa_offset 16
 10181 0004 00AF     		add	r7, sp, #0
 10182              		.cfi_def_cfa_register 7
 10183 0006 7860     		str	r0, [r7, #4]
  98:/Library/DaisyToolchain/0.2.0/arm/arm-none-eabi/include/c++/10.3.1/bits/std_function.h **** 
 10184              		.loc 3 98 50
 10185 0008 7868     		ldr	r0, [r7, #4]
ARM GAS  /var/folders/wz/z09yph4n0qj4t7mjxhl6ttn80000gn/T//ccxdcdyF.s 			page 215


 10186 000a FFF7FEFF 		bl	_ZNKSt9_Any_data9_M_accessEv
 10187 000e 0346     		mov	r3, r0
  98:/Library/DaisyToolchain/0.2.0/arm/arm-none-eabi/include/c++/10.3.1/bits/std_function.h **** 
 10188              		.loc 3 98 55
 10189 0010 1846     		mov	r0, r3
 10190 0012 0837     		adds	r7, r7, #8
 10191              		.cfi_def_cfa_offset 8
 10192 0014 BD46     		mov	sp, r7
 10193              		.cfi_def_cfa_register 13
 10194              		@ sp needed
 10195 0016 80BD     		pop	{r7, pc}
 10196              		.cfi_endproc
 10197              	.LFE6388:
 10199              		.section	.text._ZSt11__addressofIKZN5Mixer11initTrackIOEPN5daisy9DaisySeedE7TrackIOS4_S4_S4_EUlfE3
 10200              		.align	1
 10201              		.syntax unified
 10202              		.thumb
 10203              		.thumb_func
 10205              	_ZSt11__addressofIKZN5Mixer11initTrackIOEPN5daisy9DaisySeedE7TrackIOS4_S4_S4_EUlfE3_EPT_RS7_:
 10206              	.LFB6389:
  49:/Library/DaisyToolchain/0.2.0/arm/arm-none-eabi/include/c++/10.3.1/bits/move.h ****     { return __builtin_addressof(__r); }
 10207              		.loc 8 49 5
 10208              		.cfi_startproc
 10209              		@ args = 0, pretend = 0, frame = 8
 10210              		@ frame_needed = 1, uses_anonymous_args = 0
 10211              		@ link register save eliminated.
 10212 0000 80B4     		push	{r7}
 10213              		.cfi_def_cfa_offset 4
 10214              		.cfi_offset 7, -4
 10215 0002 83B0     		sub	sp, sp, #12
 10216              		.cfi_def_cfa_offset 16
 10217 0004 00AF     		add	r7, sp, #0
 10218              		.cfi_def_cfa_register 7
 10219 0006 7860     		str	r0, [r7, #4]
  50:/Library/DaisyToolchain/0.2.0/arm/arm-none-eabi/include/c++/10.3.1/bits/move.h **** 
 10220              		.loc 8 50 37
 10221 0008 7B68     		ldr	r3, [r7, #4]
  50:/Library/DaisyToolchain/0.2.0/arm/arm-none-eabi/include/c++/10.3.1/bits/move.h **** 
 10222              		.loc 8 50 40
 10223 000a 1846     		mov	r0, r3
 10224 000c 0C37     		adds	r7, r7, #12
 10225              		.cfi_def_cfa_offset 4
 10226 000e BD46     		mov	sp, r7
 10227              		.cfi_def_cfa_register 13
 10228              		@ sp needed
 10229 0010 5DF8047B 		ldr	r7, [sp], #4
 10230              		.cfi_restore 7
 10231              		.cfi_def_cfa_offset 0
 10232 0014 7047     		bx	lr
 10233              		.cfi_endproc
 10234              	.LFE6389:
 10236              		.section	.text._ZSt7forwardIRZN5Mixer11initTrackIOEPN5daisy9DaisySeedE7TrackIOS4_S4_S4_EUlfE3_EOT_
 10237              		.align	1
 10238              		.syntax unified
 10239              		.thumb
 10240              		.thumb_func
 10242              	_ZSt7forwardIRZN5Mixer11initTrackIOEPN5daisy9DaisySeedE7TrackIOS4_S4_S4_EUlfE3_EOT_RNSt16remove_ref
ARM GAS  /var/folders/wz/z09yph4n0qj4t7mjxhl6ttn80000gn/T//ccxdcdyF.s 			page 216


 10243              	.LFB6391:
  76:/Library/DaisyToolchain/0.2.0/arm/arm-none-eabi/include/c++/10.3.1/bits/move.h ****     { return static_cast<_Tp&&>(__t); }
 10244              		.loc 8 76 5
 10245              		.cfi_startproc
 10246              		@ args = 0, pretend = 0, frame = 8
 10247              		@ frame_needed = 1, uses_anonymous_args = 0
 10248              		@ link register save eliminated.
 10249 0000 80B4     		push	{r7}
 10250              		.cfi_def_cfa_offset 4
 10251              		.cfi_offset 7, -4
 10252 0002 83B0     		sub	sp, sp, #12
 10253              		.cfi_def_cfa_offset 16
 10254 0004 00AF     		add	r7, sp, #0
 10255              		.cfi_def_cfa_register 7
 10256 0006 7860     		str	r0, [r7, #4]
  77:/Library/DaisyToolchain/0.2.0/arm/arm-none-eabi/include/c++/10.3.1/bits/move.h **** 
 10257              		.loc 8 77 36
 10258 0008 7B68     		ldr	r3, [r7, #4]
  77:/Library/DaisyToolchain/0.2.0/arm/arm-none-eabi/include/c++/10.3.1/bits/move.h **** 
 10259              		.loc 8 77 39
 10260 000a 1846     		mov	r0, r3
 10261 000c 0C37     		adds	r7, r7, #12
 10262              		.cfi_def_cfa_offset 4
 10263 000e BD46     		mov	sp, r7
 10264              		.cfi_def_cfa_register 13
 10265              		@ sp needed
 10266 0010 5DF8047B 		ldr	r7, [sp], #4
 10267              		.cfi_restore 7
 10268              		.cfi_def_cfa_offset 0
 10269 0014 7047     		bx	lr
 10270              		.cfi_endproc
 10271              	.LFE6391:
 10273              		.section	.text._ZSt13__invoke_implIvRZN5Mixer11initTrackIOEPN5daisy9DaisySeedE7TrackIOS4_S4_S4_EUl
 10274              		.align	1
 10275              		.syntax unified
 10276              		.thumb
 10277              		.thumb_func
 10279              	_ZSt13__invoke_implIvRZN5Mixer11initTrackIOEPN5daisy9DaisySeedE7TrackIOS4_S4_S4_EUlfE3_JfEET_St14__
 10280              	.LFB6392:
  59:/Library/DaisyToolchain/0.2.0/arm/arm-none-eabi/include/c++/10.3.1/bits/invoke.h ****     { return std::forward<_Fn>(__f)(std::forward<_Args>(__args)...); }
 10281              		.loc 9 59 5
 10282              		.cfi_startproc
 10283              		@ args = 0, pretend = 0, frame = 16
 10284              		@ frame_needed = 1, uses_anonymous_args = 0
 10285 0000 90B5     		push	{r4, r7, lr}
 10286              		.cfi_def_cfa_offset 12
 10287              		.cfi_offset 4, -12
 10288              		.cfi_offset 7, -8
 10289              		.cfi_offset 14, -4
 10290 0002 85B0     		sub	sp, sp, #20
 10291              		.cfi_def_cfa_offset 32
 10292 0004 00AF     		add	r7, sp, #0
 10293              		.cfi_def_cfa_register 7
 10294 0006 3873     		strb	r0, [r7, #12]
 10295 0008 B960     		str	r1, [r7, #8]
 10296 000a 7A60     		str	r2, [r7, #4]
  60:/Library/DaisyToolchain/0.2.0/arm/arm-none-eabi/include/c++/10.3.1/bits/invoke.h **** 
ARM GAS  /var/folders/wz/z09yph4n0qj4t7mjxhl6ttn80000gn/T//ccxdcdyF.s 			page 217


 10297              		.loc 9 60 31
 10298 000c B868     		ldr	r0, [r7, #8]
 10299 000e FFF7FEFF 		bl	_ZSt7forwardIRZN5Mixer11initTrackIOEPN5daisy9DaisySeedE7TrackIOS4_S4_S4_EUlfE3_EOT_RNSt16remove
 10300 0012 0446     		mov	r4, r0
  60:/Library/DaisyToolchain/0.2.0/arm/arm-none-eabi/include/c++/10.3.1/bits/invoke.h **** 
 10301              		.loc 9 60 56
 10302 0014 7868     		ldr	r0, [r7, #4]
 10303 0016 FFF7FEFF 		bl	_ZSt7forwardIfEOT_RNSt16remove_referenceIS0_E4typeE
 10304 001a 0346     		mov	r3, r0
  60:/Library/DaisyToolchain/0.2.0/arm/arm-none-eabi/include/c++/10.3.1/bits/invoke.h **** 
 10305              		.loc 9 60 36
 10306 001c D3ED007A 		vldr.32	s15, [r3]
 10307 0020 B0EE670A 		vmov.f32	s0, s15
 10308 0024 2046     		mov	r0, r4
 10309 0026 FFF7FEFF 		bl	_ZZN5Mixer11initTrackIOEPN5daisy9DaisySeedE7TrackIOS3_S3_S3_ENKUlfE3_clEf
  60:/Library/DaisyToolchain/0.2.0/arm/arm-none-eabi/include/c++/10.3.1/bits/invoke.h **** 
 10310              		.loc 9 60 67
 10311 002a 00BF     		nop
  60:/Library/DaisyToolchain/0.2.0/arm/arm-none-eabi/include/c++/10.3.1/bits/invoke.h **** 
 10312              		.loc 9 60 70
 10313 002c 1437     		adds	r7, r7, #20
 10314              		.cfi_def_cfa_offset 12
 10315 002e BD46     		mov	sp, r7
 10316              		.cfi_def_cfa_register 13
 10317              		@ sp needed
 10318 0030 90BD     		pop	{r4, r7, pc}
 10319              		.cfi_endproc
 10320              	.LFE6392:
 10322              		.section	.text._ZNSt14_Function_base13_Base_managerIZN5Mixer11initTrackIOEPN5daisy9DaisySeedE7Trac
 10323              		.align	1
 10324              		.syntax unified
 10325              		.thumb
 10326              		.thumb_func
 10328              	_ZNSt14_Function_base13_Base_managerIZN5Mixer11initTrackIOEPN5daisy9DaisySeedE7TrackIOS5_S5_S5_EUlf
 10329              	.LFB6393:
 150:/Library/DaisyToolchain/0.2.0/arm/arm-none-eabi/include/c++/10.3.1/bits/std_function.h **** 	{
 10330              		.loc 3 150 2
 10331              		.cfi_startproc
 10332              		@ args = 0, pretend = 0, frame = 16
 10333              		@ frame_needed = 1, uses_anonymous_args = 0
 10334 0000 90B5     		push	{r4, r7, lr}
 10335              		.cfi_def_cfa_offset 12
 10336              		.cfi_offset 4, -12
 10337              		.cfi_offset 7, -8
 10338              		.cfi_offset 14, -4
 10339 0002 85B0     		sub	sp, sp, #20
 10340              		.cfi_def_cfa_offset 32
 10341 0004 00AF     		add	r7, sp, #0
 10342              		.cfi_def_cfa_register 7
 10343 0006 F860     		str	r0, [r7, #12]
 10344 0008 B960     		str	r1, [r7, #8]
 10345 000a 3A71     		strb	r2, [r7, #4]
 152:/Library/DaisyToolchain/0.2.0/arm/arm-none-eabi/include/c++/10.3.1/bits/std_function.h **** 	}
 10346              		.loc 3 152 68
 10347 000c B868     		ldr	r0, [r7, #8]
 10348 000e FFF7FEFF 		bl	_ZNKSt9_Any_data9_M_accessIZN5Mixer11initTrackIOEPN5daisy9DaisySeedE7TrackIOS5_S5_S5_EUlfE3_EER
 10349 0012 0446     		mov	r4, r0
ARM GAS  /var/folders/wz/z09yph4n0qj4t7mjxhl6ttn80000gn/T//ccxdcdyF.s 			page 218


 152:/Library/DaisyToolchain/0.2.0/arm/arm-none-eabi/include/c++/10.3.1/bits/std_function.h **** 	}
 10350              		.loc 3 152 27
 10351 0014 F868     		ldr	r0, [r7, #12]
 10352 0016 FFF7FEFF 		bl	_ZNSt9_Any_data9_M_accessEv
 10353 001a 0346     		mov	r3, r0
 152:/Library/DaisyToolchain/0.2.0/arm/arm-none-eabi/include/c++/10.3.1/bits/std_function.h **** 	}
 10354              		.loc 3 152 4
 10355 001c 1946     		mov	r1, r3
 10356 001e 0420     		movs	r0, #4
 10357 0020 FFF7FEFF 		bl	_ZnwjPv
 10358 0024 0246     		mov	r2, r0
 10359 0026 2368     		ldr	r3, [r4]
 10360 0028 1360     		str	r3, [r2]
 153:/Library/DaisyToolchain/0.2.0/arm/arm-none-eabi/include/c++/10.3.1/bits/std_function.h **** 
 10361              		.loc 3 153 2
 10362 002a 00BF     		nop
 10363 002c 1437     		adds	r7, r7, #20
 10364              		.cfi_def_cfa_offset 12
 10365 002e BD46     		mov	sp, r7
 10366              		.cfi_def_cfa_register 13
 10367              		@ sp needed
 10368 0030 90BD     		pop	{r4, r7, pc}
 10369              		.cfi_endproc
 10370              	.LFE6393:
 10372              		.section	.text._ZNSt14_Function_base13_Base_managerIZN5Mixer11initTrackIOEPN5daisy9DaisySeedE7Trac
 10373              		.align	1
 10374              		.syntax unified
 10375              		.thumb
 10376              		.thumb_func
 10378              	_ZNSt14_Function_base13_Base_managerIZN5Mixer11initTrackIOEPN5daisy9DaisySeedE7TrackIOS5_S5_S5_EUlf
 10379              	.LFB6394:
 167:/Library/DaisyToolchain/0.2.0/arm/arm-none-eabi/include/c++/10.3.1/bits/std_function.h **** 	{
 10380              		.loc 3 167 2
 10381              		.cfi_startproc
 10382              		@ args = 0, pretend = 0, frame = 8
 10383              		@ frame_needed = 1, uses_anonymous_args = 0
 10384 0000 80B5     		push	{r7, lr}
 10385              		.cfi_def_cfa_offset 8
 10386              		.cfi_offset 7, -8
 10387              		.cfi_offset 14, -4
 10388 0002 82B0     		sub	sp, sp, #8
 10389              		.cfi_def_cfa_offset 16
 10390 0004 00AF     		add	r7, sp, #0
 10391              		.cfi_def_cfa_register 7
 10392 0006 7860     		str	r0, [r7, #4]
 10393 0008 3970     		strb	r1, [r7]
 169:/Library/DaisyToolchain/0.2.0/arm/arm-none-eabi/include/c++/10.3.1/bits/std_function.h **** 	}
 10394              		.loc 3 169 32
 10395 000a 7868     		ldr	r0, [r7, #4]
 10396 000c FFF7FEFF 		bl	_ZNSt9_Any_data9_M_accessIZN5Mixer11initTrackIOEPN5daisy9DaisySeedE7TrackIOS5_S5_S5_EUlfE3_EERT
 170:/Library/DaisyToolchain/0.2.0/arm/arm-none-eabi/include/c++/10.3.1/bits/std_function.h **** 
 10397              		.loc 3 170 2
 10398 0010 00BF     		nop
 10399 0012 0837     		adds	r7, r7, #8
 10400              		.cfi_def_cfa_offset 8
 10401 0014 BD46     		mov	sp, r7
 10402              		.cfi_def_cfa_register 13
ARM GAS  /var/folders/wz/z09yph4n0qj4t7mjxhl6ttn80000gn/T//ccxdcdyF.s 			page 219


 10403              		@ sp needed
 10404 0016 80BD     		pop	{r7, pc}
 10405              		.cfi_endproc
 10406              	.LFE6394:
 10408              		.section	.text._ZNKSt9_Any_data9_M_accessIZN5Mixer11initTrackIOEPN5daisy9DaisySeedE7TrackIOS5_S5_S
 10409              		.align	1
 10410              		.syntax unified
 10411              		.thumb
 10412              		.thumb_func
 10414              	_ZNKSt9_Any_data9_M_accessIZN5Mixer11initTrackIOEPN5daisy9DaisySeedE7TrackIOS5_S5_S5_EUlfE4_EERKT_v
 10415              	.LFB6395:
  97:/Library/DaisyToolchain/0.2.0/arm/arm-none-eabi/include/c++/10.3.1/bits/std_function.h ****       { return *static_cast<const _Tp*>(_M_access()); }
 10416              		.loc 3 97 7
 10417              		.cfi_startproc
 10418              		@ args = 0, pretend = 0, frame = 8
 10419              		@ frame_needed = 1, uses_anonymous_args = 0
 10420 0000 80B5     		push	{r7, lr}
 10421              		.cfi_def_cfa_offset 8
 10422              		.cfi_offset 7, -8
 10423              		.cfi_offset 14, -4
 10424 0002 82B0     		sub	sp, sp, #8
 10425              		.cfi_def_cfa_offset 16
 10426 0004 00AF     		add	r7, sp, #0
 10427              		.cfi_def_cfa_register 7
 10428 0006 7860     		str	r0, [r7, #4]
  98:/Library/DaisyToolchain/0.2.0/arm/arm-none-eabi/include/c++/10.3.1/bits/std_function.h **** 
 10429              		.loc 3 98 50
 10430 0008 7868     		ldr	r0, [r7, #4]
 10431 000a FFF7FEFF 		bl	_ZNKSt9_Any_data9_M_accessEv
 10432 000e 0346     		mov	r3, r0
  98:/Library/DaisyToolchain/0.2.0/arm/arm-none-eabi/include/c++/10.3.1/bits/std_function.h **** 
 10433              		.loc 3 98 55
 10434 0010 1846     		mov	r0, r3
 10435 0012 0837     		adds	r7, r7, #8
 10436              		.cfi_def_cfa_offset 8
 10437 0014 BD46     		mov	sp, r7
 10438              		.cfi_def_cfa_register 13
 10439              		@ sp needed
 10440 0016 80BD     		pop	{r7, pc}
 10441              		.cfi_endproc
 10442              	.LFE6395:
 10444              		.section	.text._ZSt11__addressofIKZN5Mixer11initTrackIOEPN5daisy9DaisySeedE7TrackIOS4_S4_S4_EUlfE4
 10445              		.align	1
 10446              		.syntax unified
 10447              		.thumb
 10448              		.thumb_func
 10450              	_ZSt11__addressofIKZN5Mixer11initTrackIOEPN5daisy9DaisySeedE7TrackIOS4_S4_S4_EUlfE4_EPT_RS7_:
 10451              	.LFB6396:
  49:/Library/DaisyToolchain/0.2.0/arm/arm-none-eabi/include/c++/10.3.1/bits/move.h ****     { return __builtin_addressof(__r); }
 10452              		.loc 8 49 5
 10453              		.cfi_startproc
 10454              		@ args = 0, pretend = 0, frame = 8
 10455              		@ frame_needed = 1, uses_anonymous_args = 0
 10456              		@ link register save eliminated.
 10457 0000 80B4     		push	{r7}
 10458              		.cfi_def_cfa_offset 4
 10459              		.cfi_offset 7, -4
ARM GAS  /var/folders/wz/z09yph4n0qj4t7mjxhl6ttn80000gn/T//ccxdcdyF.s 			page 220


 10460 0002 83B0     		sub	sp, sp, #12
 10461              		.cfi_def_cfa_offset 16
 10462 0004 00AF     		add	r7, sp, #0
 10463              		.cfi_def_cfa_register 7
 10464 0006 7860     		str	r0, [r7, #4]
  50:/Library/DaisyToolchain/0.2.0/arm/arm-none-eabi/include/c++/10.3.1/bits/move.h **** 
 10465              		.loc 8 50 37
 10466 0008 7B68     		ldr	r3, [r7, #4]
  50:/Library/DaisyToolchain/0.2.0/arm/arm-none-eabi/include/c++/10.3.1/bits/move.h **** 
 10467              		.loc 8 50 40
 10468 000a 1846     		mov	r0, r3
 10469 000c 0C37     		adds	r7, r7, #12
 10470              		.cfi_def_cfa_offset 4
 10471 000e BD46     		mov	sp, r7
 10472              		.cfi_def_cfa_register 13
 10473              		@ sp needed
 10474 0010 5DF8047B 		ldr	r7, [sp], #4
 10475              		.cfi_restore 7
 10476              		.cfi_def_cfa_offset 0
 10477 0014 7047     		bx	lr
 10478              		.cfi_endproc
 10479              	.LFE6396:
 10481              		.section	.text._ZSt7forwardIRZN5Mixer11initTrackIOEPN5daisy9DaisySeedE7TrackIOS4_S4_S4_EUlfE4_EOT_
 10482              		.align	1
 10483              		.syntax unified
 10484              		.thumb
 10485              		.thumb_func
 10487              	_ZSt7forwardIRZN5Mixer11initTrackIOEPN5daisy9DaisySeedE7TrackIOS4_S4_S4_EUlfE4_EOT_RNSt16remove_ref
 10488              	.LFB6398:
  76:/Library/DaisyToolchain/0.2.0/arm/arm-none-eabi/include/c++/10.3.1/bits/move.h ****     { return static_cast<_Tp&&>(__t); }
 10489              		.loc 8 76 5
 10490              		.cfi_startproc
 10491              		@ args = 0, pretend = 0, frame = 8
 10492              		@ frame_needed = 1, uses_anonymous_args = 0
 10493              		@ link register save eliminated.
 10494 0000 80B4     		push	{r7}
 10495              		.cfi_def_cfa_offset 4
 10496              		.cfi_offset 7, -4
 10497 0002 83B0     		sub	sp, sp, #12
 10498              		.cfi_def_cfa_offset 16
 10499 0004 00AF     		add	r7, sp, #0
 10500              		.cfi_def_cfa_register 7
 10501 0006 7860     		str	r0, [r7, #4]
  77:/Library/DaisyToolchain/0.2.0/arm/arm-none-eabi/include/c++/10.3.1/bits/move.h **** 
 10502              		.loc 8 77 36
 10503 0008 7B68     		ldr	r3, [r7, #4]
  77:/Library/DaisyToolchain/0.2.0/arm/arm-none-eabi/include/c++/10.3.1/bits/move.h **** 
 10504              		.loc 8 77 39
 10505 000a 1846     		mov	r0, r3
 10506 000c 0C37     		adds	r7, r7, #12
 10507              		.cfi_def_cfa_offset 4
 10508 000e BD46     		mov	sp, r7
 10509              		.cfi_def_cfa_register 13
 10510              		@ sp needed
 10511 0010 5DF8047B 		ldr	r7, [sp], #4
 10512              		.cfi_restore 7
 10513              		.cfi_def_cfa_offset 0
ARM GAS  /var/folders/wz/z09yph4n0qj4t7mjxhl6ttn80000gn/T//ccxdcdyF.s 			page 221


 10514 0014 7047     		bx	lr
 10515              		.cfi_endproc
 10516              	.LFE6398:
 10518              		.section	.text._ZSt13__invoke_implIvRZN5Mixer11initTrackIOEPN5daisy9DaisySeedE7TrackIOS4_S4_S4_EUl
 10519              		.align	1
 10520              		.syntax unified
 10521              		.thumb
 10522              		.thumb_func
 10524              	_ZSt13__invoke_implIvRZN5Mixer11initTrackIOEPN5daisy9DaisySeedE7TrackIOS4_S4_S4_EUlfE4_JfEET_St14__
 10525              	.LFB6399:
  59:/Library/DaisyToolchain/0.2.0/arm/arm-none-eabi/include/c++/10.3.1/bits/invoke.h ****     { return std::forward<_Fn>(__f)(std::forward<_Args>(__args)...); }
 10526              		.loc 9 59 5
 10527              		.cfi_startproc
 10528              		@ args = 0, pretend = 0, frame = 16
 10529              		@ frame_needed = 1, uses_anonymous_args = 0
 10530 0000 90B5     		push	{r4, r7, lr}
 10531              		.cfi_def_cfa_offset 12
 10532              		.cfi_offset 4, -12
 10533              		.cfi_offset 7, -8
 10534              		.cfi_offset 14, -4
 10535 0002 85B0     		sub	sp, sp, #20
 10536              		.cfi_def_cfa_offset 32
 10537 0004 00AF     		add	r7, sp, #0
 10538              		.cfi_def_cfa_register 7
 10539 0006 3873     		strb	r0, [r7, #12]
 10540 0008 B960     		str	r1, [r7, #8]
 10541 000a 7A60     		str	r2, [r7, #4]
  60:/Library/DaisyToolchain/0.2.0/arm/arm-none-eabi/include/c++/10.3.1/bits/invoke.h **** 
 10542              		.loc 9 60 31
 10543 000c B868     		ldr	r0, [r7, #8]
 10544 000e FFF7FEFF 		bl	_ZSt7forwardIRZN5Mixer11initTrackIOEPN5daisy9DaisySeedE7TrackIOS4_S4_S4_EUlfE4_EOT_RNSt16remove
 10545 0012 0446     		mov	r4, r0
  60:/Library/DaisyToolchain/0.2.0/arm/arm-none-eabi/include/c++/10.3.1/bits/invoke.h **** 
 10546              		.loc 9 60 56
 10547 0014 7868     		ldr	r0, [r7, #4]
 10548 0016 FFF7FEFF 		bl	_ZSt7forwardIfEOT_RNSt16remove_referenceIS0_E4typeE
 10549 001a 0346     		mov	r3, r0
  60:/Library/DaisyToolchain/0.2.0/arm/arm-none-eabi/include/c++/10.3.1/bits/invoke.h **** 
 10550              		.loc 9 60 36
 10551 001c D3ED007A 		vldr.32	s15, [r3]
 10552 0020 B0EE670A 		vmov.f32	s0, s15
 10553 0024 2046     		mov	r0, r4
 10554 0026 FFF7FEFF 		bl	_ZZN5Mixer11initTrackIOEPN5daisy9DaisySeedE7TrackIOS3_S3_S3_ENKUlfE4_clEf
  60:/Library/DaisyToolchain/0.2.0/arm/arm-none-eabi/include/c++/10.3.1/bits/invoke.h **** 
 10555              		.loc 9 60 67
 10556 002a 00BF     		nop
  60:/Library/DaisyToolchain/0.2.0/arm/arm-none-eabi/include/c++/10.3.1/bits/invoke.h **** 
 10557              		.loc 9 60 70
 10558 002c 1437     		adds	r7, r7, #20
 10559              		.cfi_def_cfa_offset 12
 10560 002e BD46     		mov	sp, r7
 10561              		.cfi_def_cfa_register 13
 10562              		@ sp needed
 10563 0030 90BD     		pop	{r4, r7, pc}
 10564              		.cfi_endproc
 10565              	.LFE6399:
 10567              		.section	.text._ZNSt14_Function_base13_Base_managerIZN5Mixer11initTrackIOEPN5daisy9DaisySeedE7Trac
ARM GAS  /var/folders/wz/z09yph4n0qj4t7mjxhl6ttn80000gn/T//ccxdcdyF.s 			page 222


 10568              		.align	1
 10569              		.syntax unified
 10570              		.thumb
 10571              		.thumb_func
 10573              	_ZNSt14_Function_base13_Base_managerIZN5Mixer11initTrackIOEPN5daisy9DaisySeedE7TrackIOS5_S5_S5_EUlf
 10574              	.LFB6400:
 150:/Library/DaisyToolchain/0.2.0/arm/arm-none-eabi/include/c++/10.3.1/bits/std_function.h **** 	{
 10575              		.loc 3 150 2
 10576              		.cfi_startproc
 10577              		@ args = 0, pretend = 0, frame = 16
 10578              		@ frame_needed = 1, uses_anonymous_args = 0
 10579 0000 90B5     		push	{r4, r7, lr}
 10580              		.cfi_def_cfa_offset 12
 10581              		.cfi_offset 4, -12
 10582              		.cfi_offset 7, -8
 10583              		.cfi_offset 14, -4
 10584 0002 85B0     		sub	sp, sp, #20
 10585              		.cfi_def_cfa_offset 32
 10586 0004 00AF     		add	r7, sp, #0
 10587              		.cfi_def_cfa_register 7
 10588 0006 F860     		str	r0, [r7, #12]
 10589 0008 B960     		str	r1, [r7, #8]
 10590 000a 3A71     		strb	r2, [r7, #4]
 152:/Library/DaisyToolchain/0.2.0/arm/arm-none-eabi/include/c++/10.3.1/bits/std_function.h **** 	}
 10591              		.loc 3 152 68
 10592 000c B868     		ldr	r0, [r7, #8]
 10593 000e FFF7FEFF 		bl	_ZNKSt9_Any_data9_M_accessIZN5Mixer11initTrackIOEPN5daisy9DaisySeedE7TrackIOS5_S5_S5_EUlfE4_EER
 10594 0012 0446     		mov	r4, r0
 152:/Library/DaisyToolchain/0.2.0/arm/arm-none-eabi/include/c++/10.3.1/bits/std_function.h **** 	}
 10595              		.loc 3 152 27
 10596 0014 F868     		ldr	r0, [r7, #12]
 10597 0016 FFF7FEFF 		bl	_ZNSt9_Any_data9_M_accessEv
 10598 001a 0346     		mov	r3, r0
 152:/Library/DaisyToolchain/0.2.0/arm/arm-none-eabi/include/c++/10.3.1/bits/std_function.h **** 	}
 10599              		.loc 3 152 4
 10600 001c 1946     		mov	r1, r3
 10601 001e 0420     		movs	r0, #4
 10602 0020 FFF7FEFF 		bl	_ZnwjPv
 10603 0024 0246     		mov	r2, r0
 10604 0026 2368     		ldr	r3, [r4]
 10605 0028 1360     		str	r3, [r2]
 153:/Library/DaisyToolchain/0.2.0/arm/arm-none-eabi/include/c++/10.3.1/bits/std_function.h **** 
 10606              		.loc 3 153 2
 10607 002a 00BF     		nop
 10608 002c 1437     		adds	r7, r7, #20
 10609              		.cfi_def_cfa_offset 12
 10610 002e BD46     		mov	sp, r7
 10611              		.cfi_def_cfa_register 13
 10612              		@ sp needed
 10613 0030 90BD     		pop	{r4, r7, pc}
 10614              		.cfi_endproc
 10615              	.LFE6400:
 10617              		.section	.text._ZNSt14_Function_base13_Base_managerIZN5Mixer11initTrackIOEPN5daisy9DaisySeedE7Trac
 10618              		.align	1
 10619              		.syntax unified
 10620              		.thumb
 10621              		.thumb_func
ARM GAS  /var/folders/wz/z09yph4n0qj4t7mjxhl6ttn80000gn/T//ccxdcdyF.s 			page 223


 10623              	_ZNSt14_Function_base13_Base_managerIZN5Mixer11initTrackIOEPN5daisy9DaisySeedE7TrackIOS5_S5_S5_EUlf
 10624              	.LFB6401:
 167:/Library/DaisyToolchain/0.2.0/arm/arm-none-eabi/include/c++/10.3.1/bits/std_function.h **** 	{
 10625              		.loc 3 167 2
 10626              		.cfi_startproc
 10627              		@ args = 0, pretend = 0, frame = 8
 10628              		@ frame_needed = 1, uses_anonymous_args = 0
 10629 0000 80B5     		push	{r7, lr}
 10630              		.cfi_def_cfa_offset 8
 10631              		.cfi_offset 7, -8
 10632              		.cfi_offset 14, -4
 10633 0002 82B0     		sub	sp, sp, #8
 10634              		.cfi_def_cfa_offset 16
 10635 0004 00AF     		add	r7, sp, #0
 10636              		.cfi_def_cfa_register 7
 10637 0006 7860     		str	r0, [r7, #4]
 10638 0008 3970     		strb	r1, [r7]
 169:/Library/DaisyToolchain/0.2.0/arm/arm-none-eabi/include/c++/10.3.1/bits/std_function.h **** 	}
 10639              		.loc 3 169 32
 10640 000a 7868     		ldr	r0, [r7, #4]
 10641 000c FFF7FEFF 		bl	_ZNSt9_Any_data9_M_accessIZN5Mixer11initTrackIOEPN5daisy9DaisySeedE7TrackIOS5_S5_S5_EUlfE4_EERT
 170:/Library/DaisyToolchain/0.2.0/arm/arm-none-eabi/include/c++/10.3.1/bits/std_function.h **** 
 10642              		.loc 3 170 2
 10643 0010 00BF     		nop
 10644 0012 0837     		adds	r7, r7, #8
 10645              		.cfi_def_cfa_offset 8
 10646 0014 BD46     		mov	sp, r7
 10647              		.cfi_def_cfa_register 13
 10648              		@ sp needed
 10649 0016 80BD     		pop	{r7, pc}
 10650              		.cfi_endproc
 10651              	.LFE6401:
 10653              		.section	.text._ZNKSt9_Any_data9_M_accessIZN5Mixer11initTrackIOEPN5daisy9DaisySeedE7TrackIOS5_S5_S
 10654              		.align	1
 10655              		.syntax unified
 10656              		.thumb
 10657              		.thumb_func
 10659              	_ZNKSt9_Any_data9_M_accessIZN5Mixer11initTrackIOEPN5daisy9DaisySeedE7TrackIOS5_S5_S5_EUlfE5_EERKT_v
 10660              	.LFB6402:
  97:/Library/DaisyToolchain/0.2.0/arm/arm-none-eabi/include/c++/10.3.1/bits/std_function.h ****       { return *static_cast<const _Tp*>(_M_access()); }
 10661              		.loc 3 97 7
 10662              		.cfi_startproc
 10663              		@ args = 0, pretend = 0, frame = 8
 10664              		@ frame_needed = 1, uses_anonymous_args = 0
 10665 0000 80B5     		push	{r7, lr}
 10666              		.cfi_def_cfa_offset 8
 10667              		.cfi_offset 7, -8
 10668              		.cfi_offset 14, -4
 10669 0002 82B0     		sub	sp, sp, #8
 10670              		.cfi_def_cfa_offset 16
 10671 0004 00AF     		add	r7, sp, #0
 10672              		.cfi_def_cfa_register 7
 10673 0006 7860     		str	r0, [r7, #4]
  98:/Library/DaisyToolchain/0.2.0/arm/arm-none-eabi/include/c++/10.3.1/bits/std_function.h **** 
 10674              		.loc 3 98 50
 10675 0008 7868     		ldr	r0, [r7, #4]
 10676 000a FFF7FEFF 		bl	_ZNKSt9_Any_data9_M_accessEv
ARM GAS  /var/folders/wz/z09yph4n0qj4t7mjxhl6ttn80000gn/T//ccxdcdyF.s 			page 224


 10677 000e 0346     		mov	r3, r0
  98:/Library/DaisyToolchain/0.2.0/arm/arm-none-eabi/include/c++/10.3.1/bits/std_function.h **** 
 10678              		.loc 3 98 55
 10679 0010 1846     		mov	r0, r3
 10680 0012 0837     		adds	r7, r7, #8
 10681              		.cfi_def_cfa_offset 8
 10682 0014 BD46     		mov	sp, r7
 10683              		.cfi_def_cfa_register 13
 10684              		@ sp needed
 10685 0016 80BD     		pop	{r7, pc}
 10686              		.cfi_endproc
 10687              	.LFE6402:
 10689              		.section	.text._ZSt11__addressofIKZN5Mixer11initTrackIOEPN5daisy9DaisySeedE7TrackIOS4_S4_S4_EUlfE5
 10690              		.align	1
 10691              		.syntax unified
 10692              		.thumb
 10693              		.thumb_func
 10695              	_ZSt11__addressofIKZN5Mixer11initTrackIOEPN5daisy9DaisySeedE7TrackIOS4_S4_S4_EUlfE5_EPT_RS7_:
 10696              	.LFB6403:
  49:/Library/DaisyToolchain/0.2.0/arm/arm-none-eabi/include/c++/10.3.1/bits/move.h ****     { return __builtin_addressof(__r); }
 10697              		.loc 8 49 5
 10698              		.cfi_startproc
 10699              		@ args = 0, pretend = 0, frame = 8
 10700              		@ frame_needed = 1, uses_anonymous_args = 0
 10701              		@ link register save eliminated.
 10702 0000 80B4     		push	{r7}
 10703              		.cfi_def_cfa_offset 4
 10704              		.cfi_offset 7, -4
 10705 0002 83B0     		sub	sp, sp, #12
 10706              		.cfi_def_cfa_offset 16
 10707 0004 00AF     		add	r7, sp, #0
 10708              		.cfi_def_cfa_register 7
 10709 0006 7860     		str	r0, [r7, #4]
  50:/Library/DaisyToolchain/0.2.0/arm/arm-none-eabi/include/c++/10.3.1/bits/move.h **** 
 10710              		.loc 8 50 37
 10711 0008 7B68     		ldr	r3, [r7, #4]
  50:/Library/DaisyToolchain/0.2.0/arm/arm-none-eabi/include/c++/10.3.1/bits/move.h **** 
 10712              		.loc 8 50 40
 10713 000a 1846     		mov	r0, r3
 10714 000c 0C37     		adds	r7, r7, #12
 10715              		.cfi_def_cfa_offset 4
 10716 000e BD46     		mov	sp, r7
 10717              		.cfi_def_cfa_register 13
 10718              		@ sp needed
 10719 0010 5DF8047B 		ldr	r7, [sp], #4
 10720              		.cfi_restore 7
 10721              		.cfi_def_cfa_offset 0
 10722 0014 7047     		bx	lr
 10723              		.cfi_endproc
 10724              	.LFE6403:
 10726              		.section	.text._ZSt7forwardIRZN5Mixer11initTrackIOEPN5daisy9DaisySeedE7TrackIOS4_S4_S4_EUlfE5_EOT_
 10727              		.align	1
 10728              		.syntax unified
 10729              		.thumb
 10730              		.thumb_func
 10732              	_ZSt7forwardIRZN5Mixer11initTrackIOEPN5daisy9DaisySeedE7TrackIOS4_S4_S4_EUlfE5_EOT_RNSt16remove_ref
 10733              	.LFB6405:
ARM GAS  /var/folders/wz/z09yph4n0qj4t7mjxhl6ttn80000gn/T//ccxdcdyF.s 			page 225


  76:/Library/DaisyToolchain/0.2.0/arm/arm-none-eabi/include/c++/10.3.1/bits/move.h ****     { return static_cast<_Tp&&>(__t); }
 10734              		.loc 8 76 5
 10735              		.cfi_startproc
 10736              		@ args = 0, pretend = 0, frame = 8
 10737              		@ frame_needed = 1, uses_anonymous_args = 0
 10738              		@ link register save eliminated.
 10739 0000 80B4     		push	{r7}
 10740              		.cfi_def_cfa_offset 4
 10741              		.cfi_offset 7, -4
 10742 0002 83B0     		sub	sp, sp, #12
 10743              		.cfi_def_cfa_offset 16
 10744 0004 00AF     		add	r7, sp, #0
 10745              		.cfi_def_cfa_register 7
 10746 0006 7860     		str	r0, [r7, #4]
  77:/Library/DaisyToolchain/0.2.0/arm/arm-none-eabi/include/c++/10.3.1/bits/move.h **** 
 10747              		.loc 8 77 36
 10748 0008 7B68     		ldr	r3, [r7, #4]
  77:/Library/DaisyToolchain/0.2.0/arm/arm-none-eabi/include/c++/10.3.1/bits/move.h **** 
 10749              		.loc 8 77 39
 10750 000a 1846     		mov	r0, r3
 10751 000c 0C37     		adds	r7, r7, #12
 10752              		.cfi_def_cfa_offset 4
 10753 000e BD46     		mov	sp, r7
 10754              		.cfi_def_cfa_register 13
 10755              		@ sp needed
 10756 0010 5DF8047B 		ldr	r7, [sp], #4
 10757              		.cfi_restore 7
 10758              		.cfi_def_cfa_offset 0
 10759 0014 7047     		bx	lr
 10760              		.cfi_endproc
 10761              	.LFE6405:
 10763              		.section	.text._ZSt13__invoke_implIvRZN5Mixer11initTrackIOEPN5daisy9DaisySeedE7TrackIOS4_S4_S4_EUl
 10764              		.align	1
 10765              		.syntax unified
 10766              		.thumb
 10767              		.thumb_func
 10769              	_ZSt13__invoke_implIvRZN5Mixer11initTrackIOEPN5daisy9DaisySeedE7TrackIOS4_S4_S4_EUlfE5_JfEET_St14__
 10770              	.LFB6406:
  59:/Library/DaisyToolchain/0.2.0/arm/arm-none-eabi/include/c++/10.3.1/bits/invoke.h ****     { return std::forward<_Fn>(__f)(std::forward<_Args>(__args)...); }
 10771              		.loc 9 59 5
 10772              		.cfi_startproc
 10773              		@ args = 0, pretend = 0, frame = 16
 10774              		@ frame_needed = 1, uses_anonymous_args = 0
 10775 0000 90B5     		push	{r4, r7, lr}
 10776              		.cfi_def_cfa_offset 12
 10777              		.cfi_offset 4, -12
 10778              		.cfi_offset 7, -8
 10779              		.cfi_offset 14, -4
 10780 0002 85B0     		sub	sp, sp, #20
 10781              		.cfi_def_cfa_offset 32
 10782 0004 00AF     		add	r7, sp, #0
 10783              		.cfi_def_cfa_register 7
 10784 0006 3873     		strb	r0, [r7, #12]
 10785 0008 B960     		str	r1, [r7, #8]
 10786 000a 7A60     		str	r2, [r7, #4]
  60:/Library/DaisyToolchain/0.2.0/arm/arm-none-eabi/include/c++/10.3.1/bits/invoke.h **** 
 10787              		.loc 9 60 31
ARM GAS  /var/folders/wz/z09yph4n0qj4t7mjxhl6ttn80000gn/T//ccxdcdyF.s 			page 226


 10788 000c B868     		ldr	r0, [r7, #8]
 10789 000e FFF7FEFF 		bl	_ZSt7forwardIRZN5Mixer11initTrackIOEPN5daisy9DaisySeedE7TrackIOS4_S4_S4_EUlfE5_EOT_RNSt16remove
 10790 0012 0446     		mov	r4, r0
  60:/Library/DaisyToolchain/0.2.0/arm/arm-none-eabi/include/c++/10.3.1/bits/invoke.h **** 
 10791              		.loc 9 60 56
 10792 0014 7868     		ldr	r0, [r7, #4]
 10793 0016 FFF7FEFF 		bl	_ZSt7forwardIfEOT_RNSt16remove_referenceIS0_E4typeE
 10794 001a 0346     		mov	r3, r0
  60:/Library/DaisyToolchain/0.2.0/arm/arm-none-eabi/include/c++/10.3.1/bits/invoke.h **** 
 10795              		.loc 9 60 36
 10796 001c D3ED007A 		vldr.32	s15, [r3]
 10797 0020 B0EE670A 		vmov.f32	s0, s15
 10798 0024 2046     		mov	r0, r4
 10799 0026 FFF7FEFF 		bl	_ZZN5Mixer11initTrackIOEPN5daisy9DaisySeedE7TrackIOS3_S3_S3_ENKUlfE5_clEf
  60:/Library/DaisyToolchain/0.2.0/arm/arm-none-eabi/include/c++/10.3.1/bits/invoke.h **** 
 10800              		.loc 9 60 67
 10801 002a 00BF     		nop
  60:/Library/DaisyToolchain/0.2.0/arm/arm-none-eabi/include/c++/10.3.1/bits/invoke.h **** 
 10802              		.loc 9 60 70
 10803 002c 1437     		adds	r7, r7, #20
 10804              		.cfi_def_cfa_offset 12
 10805 002e BD46     		mov	sp, r7
 10806              		.cfi_def_cfa_register 13
 10807              		@ sp needed
 10808 0030 90BD     		pop	{r4, r7, pc}
 10809              		.cfi_endproc
 10810              	.LFE6406:
 10812              		.section	.text._ZNSt14_Function_base13_Base_managerIZN5Mixer11initTrackIOEPN5daisy9DaisySeedE7Trac
 10813              		.align	1
 10814              		.syntax unified
 10815              		.thumb
 10816              		.thumb_func
 10818              	_ZNSt14_Function_base13_Base_managerIZN5Mixer11initTrackIOEPN5daisy9DaisySeedE7TrackIOS5_S5_S5_EUlf
 10819              	.LFB6407:
 150:/Library/DaisyToolchain/0.2.0/arm/arm-none-eabi/include/c++/10.3.1/bits/std_function.h **** 	{
 10820              		.loc 3 150 2
 10821              		.cfi_startproc
 10822              		@ args = 0, pretend = 0, frame = 16
 10823              		@ frame_needed = 1, uses_anonymous_args = 0
 10824 0000 90B5     		push	{r4, r7, lr}
 10825              		.cfi_def_cfa_offset 12
 10826              		.cfi_offset 4, -12
 10827              		.cfi_offset 7, -8
 10828              		.cfi_offset 14, -4
 10829 0002 85B0     		sub	sp, sp, #20
 10830              		.cfi_def_cfa_offset 32
 10831 0004 00AF     		add	r7, sp, #0
 10832              		.cfi_def_cfa_register 7
 10833 0006 F860     		str	r0, [r7, #12]
 10834 0008 B960     		str	r1, [r7, #8]
 10835 000a 3A71     		strb	r2, [r7, #4]
 152:/Library/DaisyToolchain/0.2.0/arm/arm-none-eabi/include/c++/10.3.1/bits/std_function.h **** 	}
 10836              		.loc 3 152 68
 10837 000c B868     		ldr	r0, [r7, #8]
 10838 000e FFF7FEFF 		bl	_ZNKSt9_Any_data9_M_accessIZN5Mixer11initTrackIOEPN5daisy9DaisySeedE7TrackIOS5_S5_S5_EUlfE5_EER
 10839 0012 0446     		mov	r4, r0
 152:/Library/DaisyToolchain/0.2.0/arm/arm-none-eabi/include/c++/10.3.1/bits/std_function.h **** 	}
ARM GAS  /var/folders/wz/z09yph4n0qj4t7mjxhl6ttn80000gn/T//ccxdcdyF.s 			page 227


 10840              		.loc 3 152 27
 10841 0014 F868     		ldr	r0, [r7, #12]
 10842 0016 FFF7FEFF 		bl	_ZNSt9_Any_data9_M_accessEv
 10843 001a 0346     		mov	r3, r0
 152:/Library/DaisyToolchain/0.2.0/arm/arm-none-eabi/include/c++/10.3.1/bits/std_function.h **** 	}
 10844              		.loc 3 152 4
 10845 001c 1946     		mov	r1, r3
 10846 001e 0420     		movs	r0, #4
 10847 0020 FFF7FEFF 		bl	_ZnwjPv
 10848 0024 0246     		mov	r2, r0
 10849 0026 2368     		ldr	r3, [r4]
 10850 0028 1360     		str	r3, [r2]
 153:/Library/DaisyToolchain/0.2.0/arm/arm-none-eabi/include/c++/10.3.1/bits/std_function.h **** 
 10851              		.loc 3 153 2
 10852 002a 00BF     		nop
 10853 002c 1437     		adds	r7, r7, #20
 10854              		.cfi_def_cfa_offset 12
 10855 002e BD46     		mov	sp, r7
 10856              		.cfi_def_cfa_register 13
 10857              		@ sp needed
 10858 0030 90BD     		pop	{r4, r7, pc}
 10859              		.cfi_endproc
 10860              	.LFE6407:
 10862              		.section	.text._ZNSt14_Function_base13_Base_managerIZN5Mixer11initTrackIOEPN5daisy9DaisySeedE7Trac
 10863              		.align	1
 10864              		.syntax unified
 10865              		.thumb
 10866              		.thumb_func
 10868              	_ZNSt14_Function_base13_Base_managerIZN5Mixer11initTrackIOEPN5daisy9DaisySeedE7TrackIOS5_S5_S5_EUlf
 10869              	.LFB6408:
 167:/Library/DaisyToolchain/0.2.0/arm/arm-none-eabi/include/c++/10.3.1/bits/std_function.h **** 	{
 10870              		.loc 3 167 2
 10871              		.cfi_startproc
 10872              		@ args = 0, pretend = 0, frame = 8
 10873              		@ frame_needed = 1, uses_anonymous_args = 0
 10874 0000 80B5     		push	{r7, lr}
 10875              		.cfi_def_cfa_offset 8
 10876              		.cfi_offset 7, -8
 10877              		.cfi_offset 14, -4
 10878 0002 82B0     		sub	sp, sp, #8
 10879              		.cfi_def_cfa_offset 16
 10880 0004 00AF     		add	r7, sp, #0
 10881              		.cfi_def_cfa_register 7
 10882 0006 7860     		str	r0, [r7, #4]
 10883 0008 3970     		strb	r1, [r7]
 169:/Library/DaisyToolchain/0.2.0/arm/arm-none-eabi/include/c++/10.3.1/bits/std_function.h **** 	}
 10884              		.loc 3 169 32
 10885 000a 7868     		ldr	r0, [r7, #4]
 10886 000c FFF7FEFF 		bl	_ZNSt9_Any_data9_M_accessIZN5Mixer11initTrackIOEPN5daisy9DaisySeedE7TrackIOS5_S5_S5_EUlfE5_EERT
 170:/Library/DaisyToolchain/0.2.0/arm/arm-none-eabi/include/c++/10.3.1/bits/std_function.h **** 
 10887              		.loc 3 170 2
 10888 0010 00BF     		nop
 10889 0012 0837     		adds	r7, r7, #8
 10890              		.cfi_def_cfa_offset 8
 10891 0014 BD46     		mov	sp, r7
 10892              		.cfi_def_cfa_register 13
 10893              		@ sp needed
ARM GAS  /var/folders/wz/z09yph4n0qj4t7mjxhl6ttn80000gn/T//ccxdcdyF.s 			page 228


 10894 0016 80BD     		pop	{r7, pc}
 10895              		.cfi_endproc
 10896              	.LFE6408:
 10898              		.section	.text._ZNKSt9_Any_data9_M_accessIZN5Mixer11initTrackIOEPN5daisy9DaisySeedE7TrackIOS5_S5_S
 10899              		.align	1
 10900              		.syntax unified
 10901              		.thumb
 10902              		.thumb_func
 10904              	_ZNKSt9_Any_data9_M_accessIZN5Mixer11initTrackIOEPN5daisy9DaisySeedE7TrackIOS5_S5_S5_EUlfE6_EERKT_v
 10905              	.LFB6409:
  97:/Library/DaisyToolchain/0.2.0/arm/arm-none-eabi/include/c++/10.3.1/bits/std_function.h ****       { return *static_cast<const _Tp*>(_M_access()); }
 10906              		.loc 3 97 7
 10907              		.cfi_startproc
 10908              		@ args = 0, pretend = 0, frame = 8
 10909              		@ frame_needed = 1, uses_anonymous_args = 0
 10910 0000 80B5     		push	{r7, lr}
 10911              		.cfi_def_cfa_offset 8
 10912              		.cfi_offset 7, -8
 10913              		.cfi_offset 14, -4
 10914 0002 82B0     		sub	sp, sp, #8
 10915              		.cfi_def_cfa_offset 16
 10916 0004 00AF     		add	r7, sp, #0
 10917              		.cfi_def_cfa_register 7
 10918 0006 7860     		str	r0, [r7, #4]
  98:/Library/DaisyToolchain/0.2.0/arm/arm-none-eabi/include/c++/10.3.1/bits/std_function.h **** 
 10919              		.loc 3 98 50
 10920 0008 7868     		ldr	r0, [r7, #4]
 10921 000a FFF7FEFF 		bl	_ZNKSt9_Any_data9_M_accessEv
 10922 000e 0346     		mov	r3, r0
  98:/Library/DaisyToolchain/0.2.0/arm/arm-none-eabi/include/c++/10.3.1/bits/std_function.h **** 
 10923              		.loc 3 98 55
 10924 0010 1846     		mov	r0, r3
 10925 0012 0837     		adds	r7, r7, #8
 10926              		.cfi_def_cfa_offset 8
 10927 0014 BD46     		mov	sp, r7
 10928              		.cfi_def_cfa_register 13
 10929              		@ sp needed
 10930 0016 80BD     		pop	{r7, pc}
 10931              		.cfi_endproc
 10932              	.LFE6409:
 10934              		.section	.text._ZSt11__addressofIKZN5Mixer11initTrackIOEPN5daisy9DaisySeedE7TrackIOS4_S4_S4_EUlfE6
 10935              		.align	1
 10936              		.syntax unified
 10937              		.thumb
 10938              		.thumb_func
 10940              	_ZSt11__addressofIKZN5Mixer11initTrackIOEPN5daisy9DaisySeedE7TrackIOS4_S4_S4_EUlfE6_EPT_RS7_:
 10941              	.LFB6410:
  49:/Library/DaisyToolchain/0.2.0/arm/arm-none-eabi/include/c++/10.3.1/bits/move.h ****     { return __builtin_addressof(__r); }
 10942              		.loc 8 49 5
 10943              		.cfi_startproc
 10944              		@ args = 0, pretend = 0, frame = 8
 10945              		@ frame_needed = 1, uses_anonymous_args = 0
 10946              		@ link register save eliminated.
 10947 0000 80B4     		push	{r7}
 10948              		.cfi_def_cfa_offset 4
 10949              		.cfi_offset 7, -4
 10950 0002 83B0     		sub	sp, sp, #12
ARM GAS  /var/folders/wz/z09yph4n0qj4t7mjxhl6ttn80000gn/T//ccxdcdyF.s 			page 229


 10951              		.cfi_def_cfa_offset 16
 10952 0004 00AF     		add	r7, sp, #0
 10953              		.cfi_def_cfa_register 7
 10954 0006 7860     		str	r0, [r7, #4]
  50:/Library/DaisyToolchain/0.2.0/arm/arm-none-eabi/include/c++/10.3.1/bits/move.h **** 
 10955              		.loc 8 50 37
 10956 0008 7B68     		ldr	r3, [r7, #4]
  50:/Library/DaisyToolchain/0.2.0/arm/arm-none-eabi/include/c++/10.3.1/bits/move.h **** 
 10957              		.loc 8 50 40
 10958 000a 1846     		mov	r0, r3
 10959 000c 0C37     		adds	r7, r7, #12
 10960              		.cfi_def_cfa_offset 4
 10961 000e BD46     		mov	sp, r7
 10962              		.cfi_def_cfa_register 13
 10963              		@ sp needed
 10964 0010 5DF8047B 		ldr	r7, [sp], #4
 10965              		.cfi_restore 7
 10966              		.cfi_def_cfa_offset 0
 10967 0014 7047     		bx	lr
 10968              		.cfi_endproc
 10969              	.LFE6410:
 10971              		.section	.text._ZSt7forwardIRZN5Mixer11initTrackIOEPN5daisy9DaisySeedE7TrackIOS4_S4_S4_EUlfE6_EOT_
 10972              		.align	1
 10973              		.syntax unified
 10974              		.thumb
 10975              		.thumb_func
 10977              	_ZSt7forwardIRZN5Mixer11initTrackIOEPN5daisy9DaisySeedE7TrackIOS4_S4_S4_EUlfE6_EOT_RNSt16remove_ref
 10978              	.LFB6412:
  76:/Library/DaisyToolchain/0.2.0/arm/arm-none-eabi/include/c++/10.3.1/bits/move.h ****     { return static_cast<_Tp&&>(__t); }
 10979              		.loc 8 76 5
 10980              		.cfi_startproc
 10981              		@ args = 0, pretend = 0, frame = 8
 10982              		@ frame_needed = 1, uses_anonymous_args = 0
 10983              		@ link register save eliminated.
 10984 0000 80B4     		push	{r7}
 10985              		.cfi_def_cfa_offset 4
 10986              		.cfi_offset 7, -4
 10987 0002 83B0     		sub	sp, sp, #12
 10988              		.cfi_def_cfa_offset 16
 10989 0004 00AF     		add	r7, sp, #0
 10990              		.cfi_def_cfa_register 7
 10991 0006 7860     		str	r0, [r7, #4]
  77:/Library/DaisyToolchain/0.2.0/arm/arm-none-eabi/include/c++/10.3.1/bits/move.h **** 
 10992              		.loc 8 77 36
 10993 0008 7B68     		ldr	r3, [r7, #4]
  77:/Library/DaisyToolchain/0.2.0/arm/arm-none-eabi/include/c++/10.3.1/bits/move.h **** 
 10994              		.loc 8 77 39
 10995 000a 1846     		mov	r0, r3
 10996 000c 0C37     		adds	r7, r7, #12
 10997              		.cfi_def_cfa_offset 4
 10998 000e BD46     		mov	sp, r7
 10999              		.cfi_def_cfa_register 13
 11000              		@ sp needed
 11001 0010 5DF8047B 		ldr	r7, [sp], #4
 11002              		.cfi_restore 7
 11003              		.cfi_def_cfa_offset 0
 11004 0014 7047     		bx	lr
ARM GAS  /var/folders/wz/z09yph4n0qj4t7mjxhl6ttn80000gn/T//ccxdcdyF.s 			page 230


 11005              		.cfi_endproc
 11006              	.LFE6412:
 11008              		.section	.text._ZSt13__invoke_implIvRZN5Mixer11initTrackIOEPN5daisy9DaisySeedE7TrackIOS4_S4_S4_EUl
 11009              		.align	1
 11010              		.syntax unified
 11011              		.thumb
 11012              		.thumb_func
 11014              	_ZSt13__invoke_implIvRZN5Mixer11initTrackIOEPN5daisy9DaisySeedE7TrackIOS4_S4_S4_EUlfE6_JfEET_St14__
 11015              	.LFB6413:
  59:/Library/DaisyToolchain/0.2.0/arm/arm-none-eabi/include/c++/10.3.1/bits/invoke.h ****     { return std::forward<_Fn>(__f)(std::forward<_Args>(__args)...); }
 11016              		.loc 9 59 5
 11017              		.cfi_startproc
 11018              		@ args = 0, pretend = 0, frame = 16
 11019              		@ frame_needed = 1, uses_anonymous_args = 0
 11020 0000 90B5     		push	{r4, r7, lr}
 11021              		.cfi_def_cfa_offset 12
 11022              		.cfi_offset 4, -12
 11023              		.cfi_offset 7, -8
 11024              		.cfi_offset 14, -4
 11025 0002 85B0     		sub	sp, sp, #20
 11026              		.cfi_def_cfa_offset 32
 11027 0004 00AF     		add	r7, sp, #0
 11028              		.cfi_def_cfa_register 7
 11029 0006 3873     		strb	r0, [r7, #12]
 11030 0008 B960     		str	r1, [r7, #8]
 11031 000a 7A60     		str	r2, [r7, #4]
  60:/Library/DaisyToolchain/0.2.0/arm/arm-none-eabi/include/c++/10.3.1/bits/invoke.h **** 
 11032              		.loc 9 60 31
 11033 000c B868     		ldr	r0, [r7, #8]
 11034 000e FFF7FEFF 		bl	_ZSt7forwardIRZN5Mixer11initTrackIOEPN5daisy9DaisySeedE7TrackIOS4_S4_S4_EUlfE6_EOT_RNSt16remove
 11035 0012 0446     		mov	r4, r0
  60:/Library/DaisyToolchain/0.2.0/arm/arm-none-eabi/include/c++/10.3.1/bits/invoke.h **** 
 11036              		.loc 9 60 56
 11037 0014 7868     		ldr	r0, [r7, #4]
 11038 0016 FFF7FEFF 		bl	_ZSt7forwardIfEOT_RNSt16remove_referenceIS0_E4typeE
 11039 001a 0346     		mov	r3, r0
  60:/Library/DaisyToolchain/0.2.0/arm/arm-none-eabi/include/c++/10.3.1/bits/invoke.h **** 
 11040              		.loc 9 60 36
 11041 001c D3ED007A 		vldr.32	s15, [r3]
 11042 0020 B0EE670A 		vmov.f32	s0, s15
 11043 0024 2046     		mov	r0, r4
 11044 0026 FFF7FEFF 		bl	_ZZN5Mixer11initTrackIOEPN5daisy9DaisySeedE7TrackIOS3_S3_S3_ENKUlfE6_clEf
  60:/Library/DaisyToolchain/0.2.0/arm/arm-none-eabi/include/c++/10.3.1/bits/invoke.h **** 
 11045              		.loc 9 60 67
 11046 002a 00BF     		nop
  60:/Library/DaisyToolchain/0.2.0/arm/arm-none-eabi/include/c++/10.3.1/bits/invoke.h **** 
 11047              		.loc 9 60 70
 11048 002c 1437     		adds	r7, r7, #20
 11049              		.cfi_def_cfa_offset 12
 11050 002e BD46     		mov	sp, r7
 11051              		.cfi_def_cfa_register 13
 11052              		@ sp needed
 11053 0030 90BD     		pop	{r4, r7, pc}
 11054              		.cfi_endproc
 11055              	.LFE6413:
 11057              		.section	.text._ZNSt14_Function_base13_Base_managerIZN5Mixer11initTrackIOEPN5daisy9DaisySeedE7Trac
 11058              		.align	1
ARM GAS  /var/folders/wz/z09yph4n0qj4t7mjxhl6ttn80000gn/T//ccxdcdyF.s 			page 231


 11059              		.syntax unified
 11060              		.thumb
 11061              		.thumb_func
 11063              	_ZNSt14_Function_base13_Base_managerIZN5Mixer11initTrackIOEPN5daisy9DaisySeedE7TrackIOS5_S5_S5_EUlf
 11064              	.LFB6414:
 150:/Library/DaisyToolchain/0.2.0/arm/arm-none-eabi/include/c++/10.3.1/bits/std_function.h **** 	{
 11065              		.loc 3 150 2
 11066              		.cfi_startproc
 11067              		@ args = 0, pretend = 0, frame = 16
 11068              		@ frame_needed = 1, uses_anonymous_args = 0
 11069 0000 90B5     		push	{r4, r7, lr}
 11070              		.cfi_def_cfa_offset 12
 11071              		.cfi_offset 4, -12
 11072              		.cfi_offset 7, -8
 11073              		.cfi_offset 14, -4
 11074 0002 85B0     		sub	sp, sp, #20
 11075              		.cfi_def_cfa_offset 32
 11076 0004 00AF     		add	r7, sp, #0
 11077              		.cfi_def_cfa_register 7
 11078 0006 F860     		str	r0, [r7, #12]
 11079 0008 B960     		str	r1, [r7, #8]
 11080 000a 3A71     		strb	r2, [r7, #4]
 152:/Library/DaisyToolchain/0.2.0/arm/arm-none-eabi/include/c++/10.3.1/bits/std_function.h **** 	}
 11081              		.loc 3 152 68
 11082 000c B868     		ldr	r0, [r7, #8]
 11083 000e FFF7FEFF 		bl	_ZNKSt9_Any_data9_M_accessIZN5Mixer11initTrackIOEPN5daisy9DaisySeedE7TrackIOS5_S5_S5_EUlfE6_EER
 11084 0012 0446     		mov	r4, r0
 152:/Library/DaisyToolchain/0.2.0/arm/arm-none-eabi/include/c++/10.3.1/bits/std_function.h **** 	}
 11085              		.loc 3 152 27
 11086 0014 F868     		ldr	r0, [r7, #12]
 11087 0016 FFF7FEFF 		bl	_ZNSt9_Any_data9_M_accessEv
 11088 001a 0346     		mov	r3, r0
 152:/Library/DaisyToolchain/0.2.0/arm/arm-none-eabi/include/c++/10.3.1/bits/std_function.h **** 	}
 11089              		.loc 3 152 4
 11090 001c 1946     		mov	r1, r3
 11091 001e 0420     		movs	r0, #4
 11092 0020 FFF7FEFF 		bl	_ZnwjPv
 11093 0024 0246     		mov	r2, r0
 11094 0026 2368     		ldr	r3, [r4]
 11095 0028 1360     		str	r3, [r2]
 153:/Library/DaisyToolchain/0.2.0/arm/arm-none-eabi/include/c++/10.3.1/bits/std_function.h **** 
 11096              		.loc 3 153 2
 11097 002a 00BF     		nop
 11098 002c 1437     		adds	r7, r7, #20
 11099              		.cfi_def_cfa_offset 12
 11100 002e BD46     		mov	sp, r7
 11101              		.cfi_def_cfa_register 13
 11102              		@ sp needed
 11103 0030 90BD     		pop	{r4, r7, pc}
 11104              		.cfi_endproc
 11105              	.LFE6414:
 11107              		.section	.text._ZNSt14_Function_base13_Base_managerIZN5Mixer11initTrackIOEPN5daisy9DaisySeedE7Trac
 11108              		.align	1
 11109              		.syntax unified
 11110              		.thumb
 11111              		.thumb_func
 11113              	_ZNSt14_Function_base13_Base_managerIZN5Mixer11initTrackIOEPN5daisy9DaisySeedE7TrackIOS5_S5_S5_EUlf
ARM GAS  /var/folders/wz/z09yph4n0qj4t7mjxhl6ttn80000gn/T//ccxdcdyF.s 			page 232


 11114              	.LFB6415:
 167:/Library/DaisyToolchain/0.2.0/arm/arm-none-eabi/include/c++/10.3.1/bits/std_function.h **** 	{
 11115              		.loc 3 167 2
 11116              		.cfi_startproc
 11117              		@ args = 0, pretend = 0, frame = 8
 11118              		@ frame_needed = 1, uses_anonymous_args = 0
 11119 0000 80B5     		push	{r7, lr}
 11120              		.cfi_def_cfa_offset 8
 11121              		.cfi_offset 7, -8
 11122              		.cfi_offset 14, -4
 11123 0002 82B0     		sub	sp, sp, #8
 11124              		.cfi_def_cfa_offset 16
 11125 0004 00AF     		add	r7, sp, #0
 11126              		.cfi_def_cfa_register 7
 11127 0006 7860     		str	r0, [r7, #4]
 11128 0008 3970     		strb	r1, [r7]
 169:/Library/DaisyToolchain/0.2.0/arm/arm-none-eabi/include/c++/10.3.1/bits/std_function.h **** 	}
 11129              		.loc 3 169 32
 11130 000a 7868     		ldr	r0, [r7, #4]
 11131 000c FFF7FEFF 		bl	_ZNSt9_Any_data9_M_accessIZN5Mixer11initTrackIOEPN5daisy9DaisySeedE7TrackIOS5_S5_S5_EUlfE6_EERT
 170:/Library/DaisyToolchain/0.2.0/arm/arm-none-eabi/include/c++/10.3.1/bits/std_function.h **** 
 11132              		.loc 3 170 2
 11133 0010 00BF     		nop
 11134 0012 0837     		adds	r7, r7, #8
 11135              		.cfi_def_cfa_offset 8
 11136 0014 BD46     		mov	sp, r7
 11137              		.cfi_def_cfa_register 13
 11138              		@ sp needed
 11139 0016 80BD     		pop	{r7, pc}
 11140              		.cfi_endproc
 11141              	.LFE6415:
 11143              		.section	.text._ZNSt9_Any_data9_M_accessIZN5Mixer4initEPN5daisy9DaisySeedEPPfS6_S6_S6_S6_PPN7daisy
 11144              		.align	1
 11145              		.syntax unified
 11146              		.thumb
 11147              		.thumb_func
 11149              	_ZNSt9_Any_data9_M_accessIZN5Mixer4initEPN5daisy9DaisySeedEPPfS6_S6_S6_S6_PPN7daisysp9DelayLineIfLj
 11150              	.LFB6441:
  92:/Library/DaisyToolchain/0.2.0/arm/arm-none-eabi/include/c++/10.3.1/bits/std_function.h ****       { return *static_cast<_Tp*>(_M_access()); }
 11151              		.loc 3 92 7
 11152              		.cfi_startproc
 11153              		@ args = 0, pretend = 0, frame = 8
 11154              		@ frame_needed = 1, uses_anonymous_args = 0
 11155 0000 80B5     		push	{r7, lr}
 11156              		.cfi_def_cfa_offset 8
 11157              		.cfi_offset 7, -8
 11158              		.cfi_offset 14, -4
 11159 0002 82B0     		sub	sp, sp, #8
 11160              		.cfi_def_cfa_offset 16
 11161 0004 00AF     		add	r7, sp, #0
 11162              		.cfi_def_cfa_register 7
 11163 0006 7860     		str	r0, [r7, #4]
  93:/Library/DaisyToolchain/0.2.0/arm/arm-none-eabi/include/c++/10.3.1/bits/std_function.h **** 
 11164              		.loc 3 93 44
 11165 0008 7868     		ldr	r0, [r7, #4]
 11166 000a FFF7FEFF 		bl	_ZNSt9_Any_data9_M_accessEv
 11167 000e 0346     		mov	r3, r0
ARM GAS  /var/folders/wz/z09yph4n0qj4t7mjxhl6ttn80000gn/T//ccxdcdyF.s 			page 233


  93:/Library/DaisyToolchain/0.2.0/arm/arm-none-eabi/include/c++/10.3.1/bits/std_function.h **** 
 11168              		.loc 3 93 49
 11169 0010 1846     		mov	r0, r3
 11170 0012 0837     		adds	r7, r7, #8
 11171              		.cfi_def_cfa_offset 8
 11172 0014 BD46     		mov	sp, r7
 11173              		.cfi_def_cfa_register 13
 11174              		@ sp needed
 11175 0016 80BD     		pop	{r7, pc}
 11176              		.cfi_endproc
 11177              	.LFE6441:
 11179              		.section	.text._ZNSt9_Any_data9_M_accessIZN5Mixer11initTrackIOEPN5daisy9DaisySeedE7TrackIOS5_S5_S5
 11180              		.align	1
 11181              		.syntax unified
 11182              		.thumb
 11183              		.thumb_func
 11185              	_ZNSt9_Any_data9_M_accessIZN5Mixer11initTrackIOEPN5daisy9DaisySeedE7TrackIOS5_S5_S5_EUlfE_EERT_v:
 11186              	.LFB6442:
  92:/Library/DaisyToolchain/0.2.0/arm/arm-none-eabi/include/c++/10.3.1/bits/std_function.h ****       { return *static_cast<_Tp*>(_M_access()); }
 11187              		.loc 3 92 7
 11188              		.cfi_startproc
 11189              		@ args = 0, pretend = 0, frame = 8
 11190              		@ frame_needed = 1, uses_anonymous_args = 0
 11191 0000 80B5     		push	{r7, lr}
 11192              		.cfi_def_cfa_offset 8
 11193              		.cfi_offset 7, -8
 11194              		.cfi_offset 14, -4
 11195 0002 82B0     		sub	sp, sp, #8
 11196              		.cfi_def_cfa_offset 16
 11197 0004 00AF     		add	r7, sp, #0
 11198              		.cfi_def_cfa_register 7
 11199 0006 7860     		str	r0, [r7, #4]
  93:/Library/DaisyToolchain/0.2.0/arm/arm-none-eabi/include/c++/10.3.1/bits/std_function.h **** 
 11200              		.loc 3 93 44
 11201 0008 7868     		ldr	r0, [r7, #4]
 11202 000a FFF7FEFF 		bl	_ZNSt9_Any_data9_M_accessEv
 11203 000e 0346     		mov	r3, r0
  93:/Library/DaisyToolchain/0.2.0/arm/arm-none-eabi/include/c++/10.3.1/bits/std_function.h **** 
 11204              		.loc 3 93 49
 11205 0010 1846     		mov	r0, r3
 11206 0012 0837     		adds	r7, r7, #8
 11207              		.cfi_def_cfa_offset 8
 11208 0014 BD46     		mov	sp, r7
 11209              		.cfi_def_cfa_register 13
 11210              		@ sp needed
 11211 0016 80BD     		pop	{r7, pc}
 11212              		.cfi_endproc
 11213              	.LFE6442:
 11215              		.section	.text._ZNSt9_Any_data9_M_accessIZN5Mixer11initTrackIOEPN5daisy9DaisySeedE7TrackIOS5_S5_S5
 11216              		.align	1
 11217              		.syntax unified
 11218              		.thumb
 11219              		.thumb_func
 11221              	_ZNSt9_Any_data9_M_accessIZN5Mixer11initTrackIOEPN5daisy9DaisySeedE7TrackIOS5_S5_S5_EUlfE0_EERT_v:
 11222              	.LFB6443:
  92:/Library/DaisyToolchain/0.2.0/arm/arm-none-eabi/include/c++/10.3.1/bits/std_function.h ****       { return *static_cast<_Tp*>(_M_access()); }
 11223              		.loc 3 92 7
ARM GAS  /var/folders/wz/z09yph4n0qj4t7mjxhl6ttn80000gn/T//ccxdcdyF.s 			page 234


 11224              		.cfi_startproc
 11225              		@ args = 0, pretend = 0, frame = 8
 11226              		@ frame_needed = 1, uses_anonymous_args = 0
 11227 0000 80B5     		push	{r7, lr}
 11228              		.cfi_def_cfa_offset 8
 11229              		.cfi_offset 7, -8
 11230              		.cfi_offset 14, -4
 11231 0002 82B0     		sub	sp, sp, #8
 11232              		.cfi_def_cfa_offset 16
 11233 0004 00AF     		add	r7, sp, #0
 11234              		.cfi_def_cfa_register 7
 11235 0006 7860     		str	r0, [r7, #4]
  93:/Library/DaisyToolchain/0.2.0/arm/arm-none-eabi/include/c++/10.3.1/bits/std_function.h **** 
 11236              		.loc 3 93 44
 11237 0008 7868     		ldr	r0, [r7, #4]
 11238 000a FFF7FEFF 		bl	_ZNSt9_Any_data9_M_accessEv
 11239 000e 0346     		mov	r3, r0
  93:/Library/DaisyToolchain/0.2.0/arm/arm-none-eabi/include/c++/10.3.1/bits/std_function.h **** 
 11240              		.loc 3 93 49
 11241 0010 1846     		mov	r0, r3
 11242 0012 0837     		adds	r7, r7, #8
 11243              		.cfi_def_cfa_offset 8
 11244 0014 BD46     		mov	sp, r7
 11245              		.cfi_def_cfa_register 13
 11246              		@ sp needed
 11247 0016 80BD     		pop	{r7, pc}
 11248              		.cfi_endproc
 11249              	.LFE6443:
 11251              		.section	.text._ZNSt9_Any_data9_M_accessIZN5Mixer11initTrackIOEPN5daisy9DaisySeedE7TrackIOS5_S5_S5
 11252              		.align	1
 11253              		.syntax unified
 11254              		.thumb
 11255              		.thumb_func
 11257              	_ZNSt9_Any_data9_M_accessIZN5Mixer11initTrackIOEPN5daisy9DaisySeedE7TrackIOS5_S5_S5_EUlfE1_EERT_v:
 11258              	.LFB6444:
  92:/Library/DaisyToolchain/0.2.0/arm/arm-none-eabi/include/c++/10.3.1/bits/std_function.h ****       { return *static_cast<_Tp*>(_M_access()); }
 11259              		.loc 3 92 7
 11260              		.cfi_startproc
 11261              		@ args = 0, pretend = 0, frame = 8
 11262              		@ frame_needed = 1, uses_anonymous_args = 0
 11263 0000 80B5     		push	{r7, lr}
 11264              		.cfi_def_cfa_offset 8
 11265              		.cfi_offset 7, -8
 11266              		.cfi_offset 14, -4
 11267 0002 82B0     		sub	sp, sp, #8
 11268              		.cfi_def_cfa_offset 16
 11269 0004 00AF     		add	r7, sp, #0
 11270              		.cfi_def_cfa_register 7
 11271 0006 7860     		str	r0, [r7, #4]
  93:/Library/DaisyToolchain/0.2.0/arm/arm-none-eabi/include/c++/10.3.1/bits/std_function.h **** 
 11272              		.loc 3 93 44
 11273 0008 7868     		ldr	r0, [r7, #4]
 11274 000a FFF7FEFF 		bl	_ZNSt9_Any_data9_M_accessEv
 11275 000e 0346     		mov	r3, r0
  93:/Library/DaisyToolchain/0.2.0/arm/arm-none-eabi/include/c++/10.3.1/bits/std_function.h **** 
 11276              		.loc 3 93 49
 11277 0010 1846     		mov	r0, r3
ARM GAS  /var/folders/wz/z09yph4n0qj4t7mjxhl6ttn80000gn/T//ccxdcdyF.s 			page 235


 11278 0012 0837     		adds	r7, r7, #8
 11279              		.cfi_def_cfa_offset 8
 11280 0014 BD46     		mov	sp, r7
 11281              		.cfi_def_cfa_register 13
 11282              		@ sp needed
 11283 0016 80BD     		pop	{r7, pc}
 11284              		.cfi_endproc
 11285              	.LFE6444:
 11287              		.section	.text._ZNSt9_Any_data9_M_accessIZN5Mixer11initTrackIOEPN5daisy9DaisySeedE7TrackIOS5_S5_S5
 11288              		.align	1
 11289              		.syntax unified
 11290              		.thumb
 11291              		.thumb_func
 11293              	_ZNSt9_Any_data9_M_accessIZN5Mixer11initTrackIOEPN5daisy9DaisySeedE7TrackIOS5_S5_S5_EUlfE2_EERT_v:
 11294              	.LFB6445:
  92:/Library/DaisyToolchain/0.2.0/arm/arm-none-eabi/include/c++/10.3.1/bits/std_function.h ****       { return *static_cast<_Tp*>(_M_access()); }
 11295              		.loc 3 92 7
 11296              		.cfi_startproc
 11297              		@ args = 0, pretend = 0, frame = 8
 11298              		@ frame_needed = 1, uses_anonymous_args = 0
 11299 0000 80B5     		push	{r7, lr}
 11300              		.cfi_def_cfa_offset 8
 11301              		.cfi_offset 7, -8
 11302              		.cfi_offset 14, -4
 11303 0002 82B0     		sub	sp, sp, #8
 11304              		.cfi_def_cfa_offset 16
 11305 0004 00AF     		add	r7, sp, #0
 11306              		.cfi_def_cfa_register 7
 11307 0006 7860     		str	r0, [r7, #4]
  93:/Library/DaisyToolchain/0.2.0/arm/arm-none-eabi/include/c++/10.3.1/bits/std_function.h **** 
 11308              		.loc 3 93 44
 11309 0008 7868     		ldr	r0, [r7, #4]
 11310 000a FFF7FEFF 		bl	_ZNSt9_Any_data9_M_accessEv
 11311 000e 0346     		mov	r3, r0
  93:/Library/DaisyToolchain/0.2.0/arm/arm-none-eabi/include/c++/10.3.1/bits/std_function.h **** 
 11312              		.loc 3 93 49
 11313 0010 1846     		mov	r0, r3
 11314 0012 0837     		adds	r7, r7, #8
 11315              		.cfi_def_cfa_offset 8
 11316 0014 BD46     		mov	sp, r7
 11317              		.cfi_def_cfa_register 13
 11318              		@ sp needed
 11319 0016 80BD     		pop	{r7, pc}
 11320              		.cfi_endproc
 11321              	.LFE6445:
 11323              		.section	.text._ZNSt9_Any_data9_M_accessIZN5Mixer11initTrackIOEPN5daisy9DaisySeedE7TrackIOS5_S5_S5
 11324              		.align	1
 11325              		.syntax unified
 11326              		.thumb
 11327              		.thumb_func
 11329              	_ZNSt9_Any_data9_M_accessIZN5Mixer11initTrackIOEPN5daisy9DaisySeedE7TrackIOS5_S5_S5_EUlfE3_EERT_v:
 11330              	.LFB6446:
  92:/Library/DaisyToolchain/0.2.0/arm/arm-none-eabi/include/c++/10.3.1/bits/std_function.h ****       { return *static_cast<_Tp*>(_M_access()); }
 11331              		.loc 3 92 7
 11332              		.cfi_startproc
 11333              		@ args = 0, pretend = 0, frame = 8
 11334              		@ frame_needed = 1, uses_anonymous_args = 0
ARM GAS  /var/folders/wz/z09yph4n0qj4t7mjxhl6ttn80000gn/T//ccxdcdyF.s 			page 236


 11335 0000 80B5     		push	{r7, lr}
 11336              		.cfi_def_cfa_offset 8
 11337              		.cfi_offset 7, -8
 11338              		.cfi_offset 14, -4
 11339 0002 82B0     		sub	sp, sp, #8
 11340              		.cfi_def_cfa_offset 16
 11341 0004 00AF     		add	r7, sp, #0
 11342              		.cfi_def_cfa_register 7
 11343 0006 7860     		str	r0, [r7, #4]
  93:/Library/DaisyToolchain/0.2.0/arm/arm-none-eabi/include/c++/10.3.1/bits/std_function.h **** 
 11344              		.loc 3 93 44
 11345 0008 7868     		ldr	r0, [r7, #4]
 11346 000a FFF7FEFF 		bl	_ZNSt9_Any_data9_M_accessEv
 11347 000e 0346     		mov	r3, r0
  93:/Library/DaisyToolchain/0.2.0/arm/arm-none-eabi/include/c++/10.3.1/bits/std_function.h **** 
 11348              		.loc 3 93 49
 11349 0010 1846     		mov	r0, r3
 11350 0012 0837     		adds	r7, r7, #8
 11351              		.cfi_def_cfa_offset 8
 11352 0014 BD46     		mov	sp, r7
 11353              		.cfi_def_cfa_register 13
 11354              		@ sp needed
 11355 0016 80BD     		pop	{r7, pc}
 11356              		.cfi_endproc
 11357              	.LFE6446:
 11359              		.section	.text._ZNSt9_Any_data9_M_accessIZN5Mixer11initTrackIOEPN5daisy9DaisySeedE7TrackIOS5_S5_S5
 11360              		.align	1
 11361              		.syntax unified
 11362              		.thumb
 11363              		.thumb_func
 11365              	_ZNSt9_Any_data9_M_accessIZN5Mixer11initTrackIOEPN5daisy9DaisySeedE7TrackIOS5_S5_S5_EUlfE4_EERT_v:
 11366              	.LFB6447:
  92:/Library/DaisyToolchain/0.2.0/arm/arm-none-eabi/include/c++/10.3.1/bits/std_function.h ****       { return *static_cast<_Tp*>(_M_access()); }
 11367              		.loc 3 92 7
 11368              		.cfi_startproc
 11369              		@ args = 0, pretend = 0, frame = 8
 11370              		@ frame_needed = 1, uses_anonymous_args = 0
 11371 0000 80B5     		push	{r7, lr}
 11372              		.cfi_def_cfa_offset 8
 11373              		.cfi_offset 7, -8
 11374              		.cfi_offset 14, -4
 11375 0002 82B0     		sub	sp, sp, #8
 11376              		.cfi_def_cfa_offset 16
 11377 0004 00AF     		add	r7, sp, #0
 11378              		.cfi_def_cfa_register 7
 11379 0006 7860     		str	r0, [r7, #4]
  93:/Library/DaisyToolchain/0.2.0/arm/arm-none-eabi/include/c++/10.3.1/bits/std_function.h **** 
 11380              		.loc 3 93 44
 11381 0008 7868     		ldr	r0, [r7, #4]
 11382 000a FFF7FEFF 		bl	_ZNSt9_Any_data9_M_accessEv
 11383 000e 0346     		mov	r3, r0
  93:/Library/DaisyToolchain/0.2.0/arm/arm-none-eabi/include/c++/10.3.1/bits/std_function.h **** 
 11384              		.loc 3 93 49
 11385 0010 1846     		mov	r0, r3
 11386 0012 0837     		adds	r7, r7, #8
 11387              		.cfi_def_cfa_offset 8
 11388 0014 BD46     		mov	sp, r7
ARM GAS  /var/folders/wz/z09yph4n0qj4t7mjxhl6ttn80000gn/T//ccxdcdyF.s 			page 237


 11389              		.cfi_def_cfa_register 13
 11390              		@ sp needed
 11391 0016 80BD     		pop	{r7, pc}
 11392              		.cfi_endproc
 11393              	.LFE6447:
 11395              		.section	.text._ZNSt9_Any_data9_M_accessIZN5Mixer11initTrackIOEPN5daisy9DaisySeedE7TrackIOS5_S5_S5
 11396              		.align	1
 11397              		.syntax unified
 11398              		.thumb
 11399              		.thumb_func
 11401              	_ZNSt9_Any_data9_M_accessIZN5Mixer11initTrackIOEPN5daisy9DaisySeedE7TrackIOS5_S5_S5_EUlfE5_EERT_v:
 11402              	.LFB6448:
  92:/Library/DaisyToolchain/0.2.0/arm/arm-none-eabi/include/c++/10.3.1/bits/std_function.h ****       { return *static_cast<_Tp*>(_M_access()); }
 11403              		.loc 3 92 7
 11404              		.cfi_startproc
 11405              		@ args = 0, pretend = 0, frame = 8
 11406              		@ frame_needed = 1, uses_anonymous_args = 0
 11407 0000 80B5     		push	{r7, lr}
 11408              		.cfi_def_cfa_offset 8
 11409              		.cfi_offset 7, -8
 11410              		.cfi_offset 14, -4
 11411 0002 82B0     		sub	sp, sp, #8
 11412              		.cfi_def_cfa_offset 16
 11413 0004 00AF     		add	r7, sp, #0
 11414              		.cfi_def_cfa_register 7
 11415 0006 7860     		str	r0, [r7, #4]
  93:/Library/DaisyToolchain/0.2.0/arm/arm-none-eabi/include/c++/10.3.1/bits/std_function.h **** 
 11416              		.loc 3 93 44
 11417 0008 7868     		ldr	r0, [r7, #4]
 11418 000a FFF7FEFF 		bl	_ZNSt9_Any_data9_M_accessEv
 11419 000e 0346     		mov	r3, r0
  93:/Library/DaisyToolchain/0.2.0/arm/arm-none-eabi/include/c++/10.3.1/bits/std_function.h **** 
 11420              		.loc 3 93 49
 11421 0010 1846     		mov	r0, r3
 11422 0012 0837     		adds	r7, r7, #8
 11423              		.cfi_def_cfa_offset 8
 11424 0014 BD46     		mov	sp, r7
 11425              		.cfi_def_cfa_register 13
 11426              		@ sp needed
 11427 0016 80BD     		pop	{r7, pc}
 11428              		.cfi_endproc
 11429              	.LFE6448:
 11431              		.section	.text._ZNSt9_Any_data9_M_accessIZN5Mixer11initTrackIOEPN5daisy9DaisySeedE7TrackIOS5_S5_S5
 11432              		.align	1
 11433              		.syntax unified
 11434              		.thumb
 11435              		.thumb_func
 11437              	_ZNSt9_Any_data9_M_accessIZN5Mixer11initTrackIOEPN5daisy9DaisySeedE7TrackIOS5_S5_S5_EUlfE6_EERT_v:
 11438              	.LFB6449:
  92:/Library/DaisyToolchain/0.2.0/arm/arm-none-eabi/include/c++/10.3.1/bits/std_function.h ****       { return *static_cast<_Tp*>(_M_access()); }
 11439              		.loc 3 92 7
 11440              		.cfi_startproc
 11441              		@ args = 0, pretend = 0, frame = 8
 11442              		@ frame_needed = 1, uses_anonymous_args = 0
 11443 0000 80B5     		push	{r7, lr}
 11444              		.cfi_def_cfa_offset 8
 11445              		.cfi_offset 7, -8
ARM GAS  /var/folders/wz/z09yph4n0qj4t7mjxhl6ttn80000gn/T//ccxdcdyF.s 			page 238


 11446              		.cfi_offset 14, -4
 11447 0002 82B0     		sub	sp, sp, #8
 11448              		.cfi_def_cfa_offset 16
 11449 0004 00AF     		add	r7, sp, #0
 11450              		.cfi_def_cfa_register 7
 11451 0006 7860     		str	r0, [r7, #4]
  93:/Library/DaisyToolchain/0.2.0/arm/arm-none-eabi/include/c++/10.3.1/bits/std_function.h **** 
 11452              		.loc 3 93 44
 11453 0008 7868     		ldr	r0, [r7, #4]
 11454 000a FFF7FEFF 		bl	_ZNSt9_Any_data9_M_accessEv
 11455 000e 0346     		mov	r3, r0
  93:/Library/DaisyToolchain/0.2.0/arm/arm-none-eabi/include/c++/10.3.1/bits/std_function.h **** 
 11456              		.loc 3 93 49
 11457 0010 1846     		mov	r0, r3
 11458 0012 0837     		adds	r7, r7, #8
 11459              		.cfi_def_cfa_offset 8
 11460 0014 BD46     		mov	sp, r7
 11461              		.cfi_def_cfa_register 13
 11462              		@ sp needed
 11463 0016 80BD     		pop	{r7, pc}
 11464              		.cfi_endproc
 11465              	.LFE6449:
 11467              		.text
 11468              	.Letext0:
 11469              		.file 10 "/Library/DaisyToolchain/0.2.0/arm/arm-none-eabi/include/machine/_default_types.h"
 11470              		.file 11 "/Library/DaisyToolchain/0.2.0/arm/arm-none-eabi/include/sys/_stdint.h"
 11471              		.file 12 "/Library/DaisyToolchain/0.2.0/arm/arm-none-eabi/include/stdint.h"
 11472              		.file 13 "/Library/DaisyToolchain/0.2.0/arm/lib/gcc/arm-none-eabi/10.3.1/include/stddef.h"
 11473              		.file 14 "/Library/DaisyToolchain/0.2.0/arm/arm-none-eabi/include/c++/10.3.1/bits/cpp_type_traits.
 11474              		.file 15 "/Library/DaisyToolchain/0.2.0/arm/arm-none-eabi/include/c++/10.3.1/cmath"
 11475              		.file 16 "/Library/DaisyToolchain/0.2.0/arm/arm-none-eabi/include/c++/10.3.1/bits/std_abs.h"
 11476              		.file 17 "/Library/DaisyToolchain/0.2.0/arm/arm-none-eabi/include/c++/10.3.1/cstdlib"
 11477              		.file 18 "/Library/DaisyToolchain/0.2.0/arm/arm-none-eabi/include/c++/10.3.1/cstdint"
 11478              		.file 19 "/Library/DaisyToolchain/0.2.0/arm/arm-none-eabi/include/c++/10.3.1/type_traits"
 11479              		.file 20 "/Library/DaisyToolchain/0.2.0/arm/arm-none-eabi/include/c++/10.3.1/arm-none-eabi/thumb/v
 11480              		.file 21 "/Library/DaisyToolchain/0.2.0/arm/arm-none-eabi/include/c++/10.3.1/bits/stl_pair.h"
 11481              		.file 22 "/Library/DaisyToolchain/0.2.0/arm/arm-none-eabi/include/c++/10.3.1/debug/debug.h"
 11482              		.file 23 "/Library/DaisyToolchain/0.2.0/arm/arm-none-eabi/include/c++/10.3.1/bits/algorithmfwd.h"
 11483              		.file 24 "/Library/DaisyToolchain/0.2.0/arm/arm-none-eabi/include/c++/10.3.1/bits/exception_ptr.h"
 11484              		.file 25 "/Library/DaisyToolchain/0.2.0/arm/arm-none-eabi/include/c++/10.3.1/cstdarg"
 11485              		.file 26 "/Library/DaisyToolchain/0.2.0/arm/arm-none-eabi/include/c++/10.3.1/cstdio"
 11486              		.file 27 "/Library/DaisyToolchain/0.2.0/arm/arm-none-eabi/include/c++/10.3.1/cstring"
 11487              		.file 28 "/Library/DaisyToolchain/0.2.0/arm/arm-none-eabi/include/c++/10.3.1/cwchar"
 11488              		.file 29 "/Library/DaisyToolchain/0.2.0/arm/arm-none-eabi/include/c++/10.3.1/clocale"
 11489              		.file 30 "/Library/DaisyToolchain/0.2.0/arm/arm-none-eabi/include/c++/10.3.1/bits/basic_string.h"
 11490              		.file 31 "/Library/DaisyToolchain/0.2.0/arm/arm-none-eabi/include/c++/10.3.1/bits/stl_iterator.h"
 11491              		.file 32 "/Library/DaisyToolchain/0.2.0/arm/arm-none-eabi/include/c++/10.3.1/bits/uses_allocator.h
 11492              		.file 33 "/Library/DaisyToolchain/0.2.0/arm/arm-none-eabi/include/c++/10.3.1/tuple"
 11493              		.file 34 "/Library/DaisyToolchain/0.2.0/arm/arm-none-eabi/include/c++/10.3.1/functional"
 11494              		.file 35 "/Library/DaisyToolchain/0.2.0/arm/arm-none-eabi/include/c++/10.3.1/bits/shared_ptr_base.
 11495              		.file 36 "/Library/DaisyToolchain/0.2.0/arm/arm-none-eabi/include/c++/10.3.1/bits/refwrap.h"
 11496              		.file 37 "/Library/DaisyToolchain/0.2.0/arm/arm-none-eabi/include/c++/10.3.1/bits/stl_function.h"
 11497              		.file 38 "/Library/DaisyToolchain/0.2.0/arm/arm-none-eabi/include/c++/10.3.1/bits/predefined_ops.h
 11498              		.file 39 "/Library/DaisyToolchain/0.2.0/arm/arm-none-eabi/include/c++/10.3.1/ext/concurrence.h"
 11499              		.file 40 "/Library/DaisyToolchain/0.2.0/arm/arm-none-eabi/include/sys/_types.h"
 11500              		.file 41 "/Library/DaisyToolchain/0.2.0/arm/arm-none-eabi/include/sys/reent.h"
 11501              		.file 42 "/Library/DaisyToolchain/0.2.0/arm/arm-none-eabi/include/sys/lock.h"
ARM GAS  /var/folders/wz/z09yph4n0qj4t7mjxhl6ttn80000gn/T//ccxdcdyF.s 			page 239


 11502              		.file 43 "/Library/DaisyToolchain/0.2.0/arm/arm-none-eabi/include/math.h"
 11503              		.file 44 "/Library/DaisyToolchain/0.2.0/arm/arm-none-eabi/include/stdlib.h"
 11504              		.file 45 "/Library/DaisyToolchain/0.2.0/arm/arm-none-eabi/include/c++/10.3.1/math.h"
 11505              		.file 46 "/Library/DaisyToolchain/0.2.0/arm/arm-none-eabi/include/c++/10.3.1/stdlib.h"
 11506              		.file 47 "../../../libDaisy//src/daisy_core.h"
 11507              		.file 48 "../../../libDaisy//src/per/tim.h"
 11508              		.file 49 "../../../libDaisy//src/sys/system.h"
 11509              		.file 50 "../../../libDaisy//src/per/qspi.h"
 11510              		.file 51 "../../../libDaisy//src/per/dac.h"
 11511              		.file 52 "../../../libDaisy//src/per/sai.h"
 11512              		.file 53 "../../../libDaisy//src/hid/audio.h"
 11513              		.file 54 "../../../libDaisy//src/per/adc.h"
 11514              		.file 55 "../../../libDaisy//src/hid/usb.h"
 11515              		.file 56 "../../../libDaisy//src/hid/switch.h"
 11516              		.file 57 "../../../libDaisy//src/util/wav_format.h"
 11517              		.file 58 "../../../libDaisy//src/dev/max11300.h"
 11518              		.file 59 "../../../libDaisy//src/daisy_seed.h"
 11519              		.file 60 "../../../libDaisy//src/per/gpio.h"
 11520              		.file 61 "../../../libDaisy//src/dev/sdram.h"
 11521              		.file 62 "/Library/DaisyToolchain/0.2.0/arm/lib/gcc/arm-none-eabi/10.3.1/include/stdarg.h"
 11522              		.file 63 "/Library/DaisyToolchain/0.2.0/arm/arm-none-eabi/include/stdio.h"
 11523              		.file 64 "/Library/DaisyToolchain/0.2.0/arm/arm-none-eabi/include/string.h"
 11524              		.file 65 "../../../DaisySP//Source/Control/adenv.h"
 11525              		.file 66 "../../../DaisySP//Source/Utility/dsp.h"
 11526              		.file 67 "../../../DaisySP//Source/Utility/delayline.h"
 11527              		.file 68 "/Library/DaisyToolchain/0.2.0/arm/arm-none-eabi/include/wchar.h"
 11528              		.file 69 "/Library/DaisyToolchain/0.2.0/arm/arm-none-eabi/include/locale.h"
 11529              		.file 70 "DSP/FX/../../Parameters/../Utils/Helpers.h"
 11530              		.file 71 "DSP/FX/../../Parameters/BinaryParameter.h"
 11531              		.file 72 "DSP/FX/Waveshaper.h"
 11532              		.file 73 "DSP/FX/Delay.h"
 11533              		.file 74 "../../../libDaisy//src/dev/sr_595.h"
 11534              		.file 75 "<built-in>"
ARM GAS  /var/folders/wz/z09yph4n0qj4t7mjxhl6ttn80000gn/T//ccxdcdyF.s 			page 240


DEFINED SYMBOLS
                            *ABS*:0000000000000000 Mixer.cpp
/var/folders/wz/z09yph4n0qj4t7mjxhl6ttn80000gn/T//ccxdcdyF.s:19     .rodata._ZStL19piecewise_construct:0000000000000000 $d
/var/folders/wz/z09yph4n0qj4t7mjxhl6ttn80000gn/T//ccxdcdyF.s:22     .rodata._ZStL19piecewise_construct:0000000000000000 _ZStL19piecewise_construct
/var/folders/wz/z09yph4n0qj4t7mjxhl6ttn80000gn/T//ccxdcdyF.s:25     .text._ZnwjPv:0000000000000000 $t
/var/folders/wz/z09yph4n0qj4t7mjxhl6ttn80000gn/T//ccxdcdyF.s:31     .text._ZnwjPv:0000000000000000 _ZnwjPv
/var/folders/wz/z09yph4n0qj4t7mjxhl6ttn80000gn/T//ccxdcdyF.s:65     .rodata._ZN5daisyL15kWavFileChunkIdE:0000000000000000 $d
/var/folders/wz/z09yph4n0qj4t7mjxhl6ttn80000gn/T//ccxdcdyF.s:68     .rodata._ZN5daisyL15kWavFileChunkIdE:0000000000000000 _ZN5daisyL15kWavFileChunkIdE
/var/folders/wz/z09yph4n0qj4t7mjxhl6ttn80000gn/T//ccxdcdyF.s:71     .rodata._ZN5daisyL14kWavFileWaveIdE:0000000000000000 $d
/var/folders/wz/z09yph4n0qj4t7mjxhl6ttn80000gn/T//ccxdcdyF.s:74     .rodata._ZN5daisyL14kWavFileWaveIdE:0000000000000000 _ZN5daisyL14kWavFileWaveIdE
/var/folders/wz/z09yph4n0qj4t7mjxhl6ttn80000gn/T//ccxdcdyF.s:77     .rodata._ZN5daisyL19kWavFileSubChunk1IdE:0000000000000000 $d
/var/folders/wz/z09yph4n0qj4t7mjxhl6ttn80000gn/T//ccxdcdyF.s:80     .rodata._ZN5daisyL19kWavFileSubChunk1IdE:0000000000000000 _ZN5daisyL19kWavFileSubChunk1IdE
/var/folders/wz/z09yph4n0qj4t7mjxhl6ttn80000gn/T//ccxdcdyF.s:83     .rodata._ZN5daisyL19kWavFileSubChunk2IdE:0000000000000000 $d
/var/folders/wz/z09yph4n0qj4t7mjxhl6ttn80000gn/T//ccxdcdyF.s:86     .rodata._ZN5daisyL19kWavFileSubChunk2IdE:0000000000000000 _ZN5daisyL19kWavFileSubChunk2IdE
/var/folders/wz/z09yph4n0qj4t7mjxhl6ttn80000gn/T//ccxdcdyF.s:89     .rodata._ZL19kMaxSr595DaisyChain:0000000000000000 $d
/var/folders/wz/z09yph4n0qj4t7mjxhl6ttn80000gn/T//ccxdcdyF.s:92     .rodata._ZL19kMaxSr595DaisyChain:0000000000000000 _ZL19kMaxSr595DaisyChain
/var/folders/wz/z09yph4n0qj4t7mjxhl6ttn80000gn/T//ccxdcdyF.s:95     .rodata._ZN5daisy4seedL2D0E:0000000000000000 $d
/var/folders/wz/z09yph4n0qj4t7mjxhl6ttn80000gn/T//ccxdcdyF.s:98     .rodata._ZN5daisy4seedL2D0E:0000000000000000 _ZN5daisy4seedL2D0E
/var/folders/wz/z09yph4n0qj4t7mjxhl6ttn80000gn/T//ccxdcdyF.s:102    .rodata._ZN5daisy4seedL2D1E:0000000000000000 $d
/var/folders/wz/z09yph4n0qj4t7mjxhl6ttn80000gn/T//ccxdcdyF.s:105    .rodata._ZN5daisy4seedL2D1E:0000000000000000 _ZN5daisy4seedL2D1E
/var/folders/wz/z09yph4n0qj4t7mjxhl6ttn80000gn/T//ccxdcdyF.s:109    .rodata._ZN5daisy4seedL2D2E:0000000000000000 $d
/var/folders/wz/z09yph4n0qj4t7mjxhl6ttn80000gn/T//ccxdcdyF.s:112    .rodata._ZN5daisy4seedL2D2E:0000000000000000 _ZN5daisy4seedL2D2E
/var/folders/wz/z09yph4n0qj4t7mjxhl6ttn80000gn/T//ccxdcdyF.s:116    .rodata._ZN5daisy4seedL2D3E:0000000000000000 $d
/var/folders/wz/z09yph4n0qj4t7mjxhl6ttn80000gn/T//ccxdcdyF.s:119    .rodata._ZN5daisy4seedL2D3E:0000000000000000 _ZN5daisy4seedL2D3E
/var/folders/wz/z09yph4n0qj4t7mjxhl6ttn80000gn/T//ccxdcdyF.s:123    .rodata._ZN5daisy4seedL2D4E:0000000000000000 $d
/var/folders/wz/z09yph4n0qj4t7mjxhl6ttn80000gn/T//ccxdcdyF.s:126    .rodata._ZN5daisy4seedL2D4E:0000000000000000 _ZN5daisy4seedL2D4E
/var/folders/wz/z09yph4n0qj4t7mjxhl6ttn80000gn/T//ccxdcdyF.s:130    .rodata._ZN5daisy4seedL2D5E:0000000000000000 $d
/var/folders/wz/z09yph4n0qj4t7mjxhl6ttn80000gn/T//ccxdcdyF.s:133    .rodata._ZN5daisy4seedL2D5E:0000000000000000 _ZN5daisy4seedL2D5E
/var/folders/wz/z09yph4n0qj4t7mjxhl6ttn80000gn/T//ccxdcdyF.s:137    .rodata._ZN5daisy4seedL2D6E:0000000000000000 $d
/var/folders/wz/z09yph4n0qj4t7mjxhl6ttn80000gn/T//ccxdcdyF.s:140    .rodata._ZN5daisy4seedL2D6E:0000000000000000 _ZN5daisy4seedL2D6E
/var/folders/wz/z09yph4n0qj4t7mjxhl6ttn80000gn/T//ccxdcdyF.s:144    .rodata._ZN5daisy4seedL2D7E:0000000000000000 $d
/var/folders/wz/z09yph4n0qj4t7mjxhl6ttn80000gn/T//ccxdcdyF.s:147    .rodata._ZN5daisy4seedL2D7E:0000000000000000 _ZN5daisy4seedL2D7E
/var/folders/wz/z09yph4n0qj4t7mjxhl6ttn80000gn/T//ccxdcdyF.s:151    .rodata._ZN5daisy4seedL2D8E:0000000000000000 $d
/var/folders/wz/z09yph4n0qj4t7mjxhl6ttn80000gn/T//ccxdcdyF.s:154    .rodata._ZN5daisy4seedL2D8E:0000000000000000 _ZN5daisy4seedL2D8E
/var/folders/wz/z09yph4n0qj4t7mjxhl6ttn80000gn/T//ccxdcdyF.s:158    .rodata._ZN5daisy4seedL2D9E:0000000000000000 $d
/var/folders/wz/z09yph4n0qj4t7mjxhl6ttn80000gn/T//ccxdcdyF.s:161    .rodata._ZN5daisy4seedL2D9E:0000000000000000 _ZN5daisy4seedL2D9E
/var/folders/wz/z09yph4n0qj4t7mjxhl6ttn80000gn/T//ccxdcdyF.s:165    .rodata._ZN5daisy4seedL3D10E:0000000000000000 $d
/var/folders/wz/z09yph4n0qj4t7mjxhl6ttn80000gn/T//ccxdcdyF.s:168    .rodata._ZN5daisy4seedL3D10E:0000000000000000 _ZN5daisy4seedL3D10E
/var/folders/wz/z09yph4n0qj4t7mjxhl6ttn80000gn/T//ccxdcdyF.s:172    .rodata._ZN5daisy4seedL3D11E:0000000000000000 $d
/var/folders/wz/z09yph4n0qj4t7mjxhl6ttn80000gn/T//ccxdcdyF.s:175    .rodata._ZN5daisy4seedL3D11E:0000000000000000 _ZN5daisy4seedL3D11E
/var/folders/wz/z09yph4n0qj4t7mjxhl6ttn80000gn/T//ccxdcdyF.s:179    .rodata._ZN5daisy4seedL3D12E:0000000000000000 $d
/var/folders/wz/z09yph4n0qj4t7mjxhl6ttn80000gn/T//ccxdcdyF.s:182    .rodata._ZN5daisy4seedL3D12E:0000000000000000 _ZN5daisy4seedL3D12E
/var/folders/wz/z09yph4n0qj4t7mjxhl6ttn80000gn/T//ccxdcdyF.s:186    .rodata._ZN5daisy4seedL3D13E:0000000000000000 $d
/var/folders/wz/z09yph4n0qj4t7mjxhl6ttn80000gn/T//ccxdcdyF.s:189    .rodata._ZN5daisy4seedL3D13E:0000000000000000 _ZN5daisy4seedL3D13E
/var/folders/wz/z09yph4n0qj4t7mjxhl6ttn80000gn/T//ccxdcdyF.s:193    .rodata._ZN5daisy4seedL3D14E:0000000000000000 $d
/var/folders/wz/z09yph4n0qj4t7mjxhl6ttn80000gn/T//ccxdcdyF.s:196    .rodata._ZN5daisy4seedL3D14E:0000000000000000 _ZN5daisy4seedL3D14E
/var/folders/wz/z09yph4n0qj4t7mjxhl6ttn80000gn/T//ccxdcdyF.s:200    .rodata._ZN5daisy4seedL3D15E:0000000000000000 $d
/var/folders/wz/z09yph4n0qj4t7mjxhl6ttn80000gn/T//ccxdcdyF.s:203    .rodata._ZN5daisy4seedL3D15E:0000000000000000 _ZN5daisy4seedL3D15E
/var/folders/wz/z09yph4n0qj4t7mjxhl6ttn80000gn/T//ccxdcdyF.s:207    .rodata._ZN5daisy4seedL3D16E:0000000000000000 $d
/var/folders/wz/z09yph4n0qj4t7mjxhl6ttn80000gn/T//ccxdcdyF.s:210    .rodata._ZN5daisy4seedL3D16E:0000000000000000 _ZN5daisy4seedL3D16E
/var/folders/wz/z09yph4n0qj4t7mjxhl6ttn80000gn/T//ccxdcdyF.s:214    .rodata._ZN5daisy4seedL3D17E:0000000000000000 $d
/var/folders/wz/z09yph4n0qj4t7mjxhl6ttn80000gn/T//ccxdcdyF.s:217    .rodata._ZN5daisy4seedL3D17E:0000000000000000 _ZN5daisy4seedL3D17E
/var/folders/wz/z09yph4n0qj4t7mjxhl6ttn80000gn/T//ccxdcdyF.s:221    .rodata._ZN5daisy4seedL3D18E:0000000000000000 $d
/var/folders/wz/z09yph4n0qj4t7mjxhl6ttn80000gn/T//ccxdcdyF.s:224    .rodata._ZN5daisy4seedL3D18E:0000000000000000 _ZN5daisy4seedL3D18E
/var/folders/wz/z09yph4n0qj4t7mjxhl6ttn80000gn/T//ccxdcdyF.s:228    .rodata._ZN5daisy4seedL3D19E:0000000000000000 $d
/var/folders/wz/z09yph4n0qj4t7mjxhl6ttn80000gn/T//ccxdcdyF.s:231    .rodata._ZN5daisy4seedL3D19E:0000000000000000 _ZN5daisy4seedL3D19E
/var/folders/wz/z09yph4n0qj4t7mjxhl6ttn80000gn/T//ccxdcdyF.s:235    .rodata._ZN5daisy4seedL3D20E:0000000000000000 $d
ARM GAS  /var/folders/wz/z09yph4n0qj4t7mjxhl6ttn80000gn/T//ccxdcdyF.s 			page 241


/var/folders/wz/z09yph4n0qj4t7mjxhl6ttn80000gn/T//ccxdcdyF.s:238    .rodata._ZN5daisy4seedL3D20E:0000000000000000 _ZN5daisy4seedL3D20E
/var/folders/wz/z09yph4n0qj4t7mjxhl6ttn80000gn/T//ccxdcdyF.s:242    .rodata._ZN5daisy4seedL3D21E:0000000000000000 $d
/var/folders/wz/z09yph4n0qj4t7mjxhl6ttn80000gn/T//ccxdcdyF.s:245    .rodata._ZN5daisy4seedL3D21E:0000000000000000 _ZN5daisy4seedL3D21E
/var/folders/wz/z09yph4n0qj4t7mjxhl6ttn80000gn/T//ccxdcdyF.s:249    .rodata._ZN5daisy4seedL3D22E:0000000000000000 $d
/var/folders/wz/z09yph4n0qj4t7mjxhl6ttn80000gn/T//ccxdcdyF.s:252    .rodata._ZN5daisy4seedL3D22E:0000000000000000 _ZN5daisy4seedL3D22E
/var/folders/wz/z09yph4n0qj4t7mjxhl6ttn80000gn/T//ccxdcdyF.s:256    .rodata._ZN5daisy4seedL3D23E:0000000000000000 $d
/var/folders/wz/z09yph4n0qj4t7mjxhl6ttn80000gn/T//ccxdcdyF.s:259    .rodata._ZN5daisy4seedL3D23E:0000000000000000 _ZN5daisy4seedL3D23E
/var/folders/wz/z09yph4n0qj4t7mjxhl6ttn80000gn/T//ccxdcdyF.s:263    .rodata._ZN5daisy4seedL3D24E:0000000000000000 $d
/var/folders/wz/z09yph4n0qj4t7mjxhl6ttn80000gn/T//ccxdcdyF.s:266    .rodata._ZN5daisy4seedL3D24E:0000000000000000 _ZN5daisy4seedL3D24E
/var/folders/wz/z09yph4n0qj4t7mjxhl6ttn80000gn/T//ccxdcdyF.s:270    .rodata._ZN5daisy4seedL3D25E:0000000000000000 $d
/var/folders/wz/z09yph4n0qj4t7mjxhl6ttn80000gn/T//ccxdcdyF.s:273    .rodata._ZN5daisy4seedL3D25E:0000000000000000 _ZN5daisy4seedL3D25E
/var/folders/wz/z09yph4n0qj4t7mjxhl6ttn80000gn/T//ccxdcdyF.s:276    .rodata._ZN5daisy4seedL3D26E:0000000000000000 $d
/var/folders/wz/z09yph4n0qj4t7mjxhl6ttn80000gn/T//ccxdcdyF.s:279    .rodata._ZN5daisy4seedL3D26E:0000000000000000 _ZN5daisy4seedL3D26E
/var/folders/wz/z09yph4n0qj4t7mjxhl6ttn80000gn/T//ccxdcdyF.s:283    .rodata._ZN5daisy4seedL3D27E:0000000000000000 $d
/var/folders/wz/z09yph4n0qj4t7mjxhl6ttn80000gn/T//ccxdcdyF.s:286    .rodata._ZN5daisy4seedL3D27E:0000000000000000 _ZN5daisy4seedL3D27E
/var/folders/wz/z09yph4n0qj4t7mjxhl6ttn80000gn/T//ccxdcdyF.s:290    .rodata._ZN5daisy4seedL3D28E:0000000000000000 $d
/var/folders/wz/z09yph4n0qj4t7mjxhl6ttn80000gn/T//ccxdcdyF.s:293    .rodata._ZN5daisy4seedL3D28E:0000000000000000 _ZN5daisy4seedL3D28E
/var/folders/wz/z09yph4n0qj4t7mjxhl6ttn80000gn/T//ccxdcdyF.s:297    .rodata._ZN5daisy4seedL3D29E:0000000000000000 $d
/var/folders/wz/z09yph4n0qj4t7mjxhl6ttn80000gn/T//ccxdcdyF.s:300    .rodata._ZN5daisy4seedL3D29E:0000000000000000 _ZN5daisy4seedL3D29E
/var/folders/wz/z09yph4n0qj4t7mjxhl6ttn80000gn/T//ccxdcdyF.s:304    .rodata._ZN5daisy4seedL3D30E:0000000000000000 $d
/var/folders/wz/z09yph4n0qj4t7mjxhl6ttn80000gn/T//ccxdcdyF.s:307    .rodata._ZN5daisy4seedL3D30E:0000000000000000 _ZN5daisy4seedL3D30E
/var/folders/wz/z09yph4n0qj4t7mjxhl6ttn80000gn/T//ccxdcdyF.s:311    .rodata._ZN5daisy4seedL2A0E:0000000000000000 $d
/var/folders/wz/z09yph4n0qj4t7mjxhl6ttn80000gn/T//ccxdcdyF.s:314    .rodata._ZN5daisy4seedL2A0E:0000000000000000 _ZN5daisy4seedL2A0E
/var/folders/wz/z09yph4n0qj4t7mjxhl6ttn80000gn/T//ccxdcdyF.s:318    .rodata._ZN5daisy4seedL2A1E:0000000000000000 $d
/var/folders/wz/z09yph4n0qj4t7mjxhl6ttn80000gn/T//ccxdcdyF.s:321    .rodata._ZN5daisy4seedL2A1E:0000000000000000 _ZN5daisy4seedL2A1E
/var/folders/wz/z09yph4n0qj4t7mjxhl6ttn80000gn/T//ccxdcdyF.s:325    .rodata._ZN5daisy4seedL2A2E:0000000000000000 $d
/var/folders/wz/z09yph4n0qj4t7mjxhl6ttn80000gn/T//ccxdcdyF.s:328    .rodata._ZN5daisy4seedL2A2E:0000000000000000 _ZN5daisy4seedL2A2E
/var/folders/wz/z09yph4n0qj4t7mjxhl6ttn80000gn/T//ccxdcdyF.s:332    .rodata._ZN5daisy4seedL2A3E:0000000000000000 $d
/var/folders/wz/z09yph4n0qj4t7mjxhl6ttn80000gn/T//ccxdcdyF.s:335    .rodata._ZN5daisy4seedL2A3E:0000000000000000 _ZN5daisy4seedL2A3E
/var/folders/wz/z09yph4n0qj4t7mjxhl6ttn80000gn/T//ccxdcdyF.s:339    .rodata._ZN5daisy4seedL2A4E:0000000000000000 $d
/var/folders/wz/z09yph4n0qj4t7mjxhl6ttn80000gn/T//ccxdcdyF.s:342    .rodata._ZN5daisy4seedL2A4E:0000000000000000 _ZN5daisy4seedL2A4E
/var/folders/wz/z09yph4n0qj4t7mjxhl6ttn80000gn/T//ccxdcdyF.s:346    .rodata._ZN5daisy4seedL2A5E:0000000000000000 $d
/var/folders/wz/z09yph4n0qj4t7mjxhl6ttn80000gn/T//ccxdcdyF.s:349    .rodata._ZN5daisy4seedL2A5E:0000000000000000 _ZN5daisy4seedL2A5E
/var/folders/wz/z09yph4n0qj4t7mjxhl6ttn80000gn/T//ccxdcdyF.s:353    .rodata._ZN5daisy4seedL2A6E:0000000000000000 $d
/var/folders/wz/z09yph4n0qj4t7mjxhl6ttn80000gn/T//ccxdcdyF.s:356    .rodata._ZN5daisy4seedL2A6E:0000000000000000 _ZN5daisy4seedL2A6E
/var/folders/wz/z09yph4n0qj4t7mjxhl6ttn80000gn/T//ccxdcdyF.s:360    .rodata._ZN5daisy4seedL2A7E:0000000000000000 $d
/var/folders/wz/z09yph4n0qj4t7mjxhl6ttn80000gn/T//ccxdcdyF.s:363    .rodata._ZN5daisy4seedL2A7E:0000000000000000 _ZN5daisy4seedL2A7E
/var/folders/wz/z09yph4n0qj4t7mjxhl6ttn80000gn/T//ccxdcdyF.s:367    .rodata._ZN5daisy4seedL2A8E:0000000000000000 $d
/var/folders/wz/z09yph4n0qj4t7mjxhl6ttn80000gn/T//ccxdcdyF.s:370    .rodata._ZN5daisy4seedL2A8E:0000000000000000 _ZN5daisy4seedL2A8E
/var/folders/wz/z09yph4n0qj4t7mjxhl6ttn80000gn/T//ccxdcdyF.s:374    .rodata._ZN5daisy4seedL2A9E:0000000000000000 $d
/var/folders/wz/z09yph4n0qj4t7mjxhl6ttn80000gn/T//ccxdcdyF.s:377    .rodata._ZN5daisy4seedL2A9E:0000000000000000 _ZN5daisy4seedL2A9E
/var/folders/wz/z09yph4n0qj4t7mjxhl6ttn80000gn/T//ccxdcdyF.s:381    .rodata._ZN5daisy4seedL3A10E:0000000000000000 $d
/var/folders/wz/z09yph4n0qj4t7mjxhl6ttn80000gn/T//ccxdcdyF.s:384    .rodata._ZN5daisy4seedL3A10E:0000000000000000 _ZN5daisy4seedL3A10E
/var/folders/wz/z09yph4n0qj4t7mjxhl6ttn80000gn/T//ccxdcdyF.s:387    .rodata._ZN5daisy4seedL3A11E:0000000000000000 $d
/var/folders/wz/z09yph4n0qj4t7mjxhl6ttn80000gn/T//ccxdcdyF.s:390    .rodata._ZN5daisy4seedL3A11E:0000000000000000 _ZN5daisy4seedL3A11E
/var/folders/wz/z09yph4n0qj4t7mjxhl6ttn80000gn/T//ccxdcdyF.s:394    .rodata._ZN5daisy4seedL3D31E:0000000000000000 $d
/var/folders/wz/z09yph4n0qj4t7mjxhl6ttn80000gn/T//ccxdcdyF.s:397    .rodata._ZN5daisy4seedL3D31E:0000000000000000 _ZN5daisy4seedL3D31E
/var/folders/wz/z09yph4n0qj4t7mjxhl6ttn80000gn/T//ccxdcdyF.s:401    .rodata._ZN5daisy4seedL3D32E:0000000000000000 $d
/var/folders/wz/z09yph4n0qj4t7mjxhl6ttn80000gn/T//ccxdcdyF.s:404    .rodata._ZN5daisy4seedL3D32E:0000000000000000 _ZN5daisy4seedL3D32E
/var/folders/wz/z09yph4n0qj4t7mjxhl6ttn80000gn/T//ccxdcdyF.s:408    .rodata._ZN5daisy4seedL3A12E:0000000000000000 $d
/var/folders/wz/z09yph4n0qj4t7mjxhl6ttn80000gn/T//ccxdcdyF.s:411    .rodata._ZN5daisy4seedL3A12E:0000000000000000 _ZN5daisy4seedL3A12E
/var/folders/wz/z09yph4n0qj4t7mjxhl6ttn80000gn/T//ccxdcdyF.s:415    .rodata._ZN5daisy4seedL3A13E:0000000000000000 $d
/var/folders/wz/z09yph4n0qj4t7mjxhl6ttn80000gn/T//ccxdcdyF.s:418    .rodata._ZN5daisy4seedL3A13E:0000000000000000 _ZN5daisy4seedL3A13E
/var/folders/wz/z09yph4n0qj4t7mjxhl6ttn80000gn/T//ccxdcdyF.s:422    .text._ZL20__gthread_key_deletei:0000000000000000 $t
/var/folders/wz/z09yph4n0qj4t7mjxhl6ttn80000gn/T//ccxdcdyF.s:427    .text._ZL20__gthread_key_deletei:0000000000000000 _ZL20__gthread_key_deletei
/var/folders/wz/z09yph4n0qj4t7mjxhl6ttn80000gn/T//ccxdcdyF.s:460    .rodata._ZN7daisyspL9kRandFracE:0000000000000000 $d
/var/folders/wz/z09yph4n0qj4t7mjxhl6ttn80000gn/T//ccxdcdyF.s:463    .rodata._ZN7daisyspL9kRandFracE:0000000000000000 _ZN7daisyspL9kRandFracE
ARM GAS  /var/folders/wz/z09yph4n0qj4t7mjxhl6ttn80000gn/T//ccxdcdyF.s 			page 242


/var/folders/wz/z09yph4n0qj4t7mjxhl6ttn80000gn/T//ccxdcdyF.s:466    .rodata._ZN7daisyspL11kOneTwelfthE:0000000000000000 $d
/var/folders/wz/z09yph4n0qj4t7mjxhl6ttn80000gn/T//ccxdcdyF.s:469    .rodata._ZN7daisyspL11kOneTwelfthE:0000000000000000 _ZN7daisyspL11kOneTwelfthE
/var/folders/wz/z09yph4n0qj4t7mjxhl6ttn80000gn/T//ccxdcdyF.s:472    .rodata._ZStL13allocator_arg:0000000000000000 $d
/var/folders/wz/z09yph4n0qj4t7mjxhl6ttn80000gn/T//ccxdcdyF.s:475    .rodata._ZStL13allocator_arg:0000000000000000 _ZStL13allocator_arg
/var/folders/wz/z09yph4n0qj4t7mjxhl6ttn80000gn/T//ccxdcdyF.s:478    .rodata._ZStL6ignore:0000000000000000 $d
/var/folders/wz/z09yph4n0qj4t7mjxhl6ttn80000gn/T//ccxdcdyF.s:481    .rodata._ZStL6ignore:0000000000000000 _ZStL6ignore
/var/folders/wz/z09yph4n0qj4t7mjxhl6ttn80000gn/T//ccxdcdyF.s:484    .text._ZNSt9_Any_data9_M_accessEv:0000000000000000 $t
/var/folders/wz/z09yph4n0qj4t7mjxhl6ttn80000gn/T//ccxdcdyF.s:490    .text._ZNSt9_Any_data9_M_accessEv:0000000000000000 _ZNSt9_Any_data9_M_accessEv
/var/folders/wz/z09yph4n0qj4t7mjxhl6ttn80000gn/T//ccxdcdyF.s:523    .text._ZNKSt9_Any_data9_M_accessEv:0000000000000000 $t
/var/folders/wz/z09yph4n0qj4t7mjxhl6ttn80000gn/T//ccxdcdyF.s:529    .text._ZNKSt9_Any_data9_M_accessEv:0000000000000000 _ZNKSt9_Any_data9_M_accessEv
/var/folders/wz/z09yph4n0qj4t7mjxhl6ttn80000gn/T//ccxdcdyF.s:561    .text._ZNSt14_Function_baseC2Ev:0000000000000000 $t
/var/folders/wz/z09yph4n0qj4t7mjxhl6ttn80000gn/T//ccxdcdyF.s:567    .text._ZNSt14_Function_baseC2Ev:0000000000000000 _ZNSt14_Function_baseC2Ev
/var/folders/wz/z09yph4n0qj4t7mjxhl6ttn80000gn/T//ccxdcdyF.s:567    .text._ZNSt14_Function_baseC2Ev:0000000000000000 _ZNSt14_Function_baseC1Ev
/var/folders/wz/z09yph4n0qj4t7mjxhl6ttn80000gn/T//ccxdcdyF.s:606    .text._ZNSt14_Function_baseD2Ev:0000000000000000 $t
/var/folders/wz/z09yph4n0qj4t7mjxhl6ttn80000gn/T//ccxdcdyF.s:612    .text._ZNSt14_Function_baseD2Ev:0000000000000000 _ZNSt14_Function_baseD2Ev
/var/folders/wz/z09yph4n0qj4t7mjxhl6ttn80000gn/T//ccxdcdyF.s:612    .text._ZNSt14_Function_baseD2Ev:0000000000000000 _ZNSt14_Function_baseD1Ev
/var/folders/wz/z09yph4n0qj4t7mjxhl6ttn80000gn/T//ccxdcdyF.s:662    .text._ZNKSt14_Function_base8_M_emptyEv:0000000000000000 $t
/var/folders/wz/z09yph4n0qj4t7mjxhl6ttn80000gn/T//ccxdcdyF.s:668    .text._ZNKSt14_Function_base8_M_emptyEv:0000000000000000 _ZNKSt14_Function_base8_M_emptyEv
/var/folders/wz/z09yph4n0qj4t7mjxhl6ttn80000gn/T//ccxdcdyF.s:708    .rodata._ZN9__gnu_cxxL21__default_lock_policyE:0000000000000000 _ZN9__gnu_cxxL21__default_lock_policyE
/var/folders/wz/z09yph4n0qj4t7mjxhl6ttn80000gn/T//ccxdcdyF.s:709    .rodata._ZN9__gnu_cxxL21__default_lock_policyE:0000000000000000 $d
/var/folders/wz/z09yph4n0qj4t7mjxhl6ttn80000gn/T//ccxdcdyF.s:711    .text._ZN5Track8getStateEv:0000000000000000 $t
/var/folders/wz/z09yph4n0qj4t7mjxhl6ttn80000gn/T//ccxdcdyF.s:717    .text._ZN5Track8getStateEv:0000000000000000 _ZN5Track8getStateEv
/var/folders/wz/z09yph4n0qj4t7mjxhl6ttn80000gn/T//ccxdcdyF.s:751    .text._ZN5Mixer12setTrack1PanEf:0000000000000000 $t
/var/folders/wz/z09yph4n0qj4t7mjxhl6ttn80000gn/T//ccxdcdyF.s:757    .text._ZN5Mixer12setTrack1PanEf:0000000000000000 _ZN5Mixer12setTrack1PanEf
/var/folders/wz/z09yph4n0qj4t7mjxhl6ttn80000gn/T//ccxdcdyF.s:793    .text._ZN5Mixer12setTrack2PanEf:0000000000000000 $t
/var/folders/wz/z09yph4n0qj4t7mjxhl6ttn80000gn/T//ccxdcdyF.s:799    .text._ZN5Mixer12setTrack2PanEf:0000000000000000 _ZN5Mixer12setTrack2PanEf
/var/folders/wz/z09yph4n0qj4t7mjxhl6ttn80000gn/T//ccxdcdyF.s:835    .text._ZN5Mixer12setTrack3PanEf:0000000000000000 $t
/var/folders/wz/z09yph4n0qj4t7mjxhl6ttn80000gn/T//ccxdcdyF.s:841    .text._ZN5Mixer12setTrack3PanEf:0000000000000000 _ZN5Mixer12setTrack3PanEf
/var/folders/wz/z09yph4n0qj4t7mjxhl6ttn80000gn/T//ccxdcdyF.s:877    .text._ZN5Mixer12setTrack4PanEf:0000000000000000 $t
/var/folders/wz/z09yph4n0qj4t7mjxhl6ttn80000gn/T//ccxdcdyF.s:883    .text._ZN5Mixer12setTrack4PanEf:0000000000000000 _ZN5Mixer12setTrack4PanEf
/var/folders/wz/z09yph4n0qj4t7mjxhl6ttn80000gn/T//ccxdcdyF.s:919    .text._ZN5Mixer13setTrack1GainEf:0000000000000000 $t
/var/folders/wz/z09yph4n0qj4t7mjxhl6ttn80000gn/T//ccxdcdyF.s:925    .text._ZN5Mixer13setTrack1GainEf:0000000000000000 _ZN5Mixer13setTrack1GainEf
/var/folders/wz/z09yph4n0qj4t7mjxhl6ttn80000gn/T//ccxdcdyF.s:960    .text._ZN5Mixer13setTrack2GainEf:0000000000000000 $t
/var/folders/wz/z09yph4n0qj4t7mjxhl6ttn80000gn/T//ccxdcdyF.s:966    .text._ZN5Mixer13setTrack2GainEf:0000000000000000 _ZN5Mixer13setTrack2GainEf
/var/folders/wz/z09yph4n0qj4t7mjxhl6ttn80000gn/T//ccxdcdyF.s:1002   .text._ZN5Mixer13setTrack3GainEf:0000000000000000 $t
/var/folders/wz/z09yph4n0qj4t7mjxhl6ttn80000gn/T//ccxdcdyF.s:1008   .text._ZN5Mixer13setTrack3GainEf:0000000000000000 _ZN5Mixer13setTrack3GainEf
/var/folders/wz/z09yph4n0qj4t7mjxhl6ttn80000gn/T//ccxdcdyF.s:1044   .text._ZN5Mixer13setTrack4GainEf:0000000000000000 $t
/var/folders/wz/z09yph4n0qj4t7mjxhl6ttn80000gn/T//ccxdcdyF.s:1050   .text._ZN5Mixer13setTrack4GainEf:0000000000000000 _ZN5Mixer13setTrack4GainEf
/var/folders/wz/z09yph4n0qj4t7mjxhl6ttn80000gn/T//ccxdcdyF.s:1086   .text._ZN5Mixer15setMasterVolumeEf:0000000000000000 $t
/var/folders/wz/z09yph4n0qj4t7mjxhl6ttn80000gn/T//ccxdcdyF.s:1092   .text._ZN5Mixer15setMasterVolumeEf:0000000000000000 _ZN5Mixer15setMasterVolumeEf
/var/folders/wz/z09yph4n0qj4t7mjxhl6ttn80000gn/T//ccxdcdyF.s:1128   .text._ZN5Mixer12MixerChannel9getCurValEij:0000000000000000 $t
/var/folders/wz/z09yph4n0qj4t7mjxhl6ttn80000gn/T//ccxdcdyF.s:1134   .text._ZN5Mixer12MixerChannel9getCurValEij:0000000000000000 _ZN5Mixer12MixerChannel9getCurValEij
/var/folders/wz/z09yph4n0qj4t7mjxhl6ttn80000gn/T//ccxdcdyF.s:1209   .text._ZN5Mixer12MixerChannel9getCurValEij:0000000000000070 $d
/var/folders/wz/z09yph4n0qj4t7mjxhl6ttn80000gn/T//ccxdcdyF.s:1216   .text._ZZN5Mixer4initEPN5daisy9DaisySeedEPPfS4_S4_S4_S4_PPN7daisysp9DelayLineIfLj240000EEEENKUlfE_clEf:0000000000000000 $t
/var/folders/wz/z09yph4n0qj4t7mjxhl6ttn80000gn/T//ccxdcdyF.s:1221   .text._ZZN5Mixer4initEPN5daisy9DaisySeedEPPfS4_S4_S4_S4_PPN7daisysp9DelayLineIfLj240000EEEENKUlfE_clEf:0000000000000000 _ZZN5Mixer4initEPN5daisy9DaisySeedEPPfS4_S4_S4_S4_PPN7daisysp9DelayLineIfLj240000EEEENKUlfE_clEf
/var/folders/wz/z09yph4n0qj4t7mjxhl6ttn80000gn/T//ccxdcdyF.s:1257   .text._ZNSt8functionIFvfEED2Ev:0000000000000000 $t
/var/folders/wz/z09yph4n0qj4t7mjxhl6ttn80000gn/T//ccxdcdyF.s:1263   .text._ZNSt8functionIFvfEED2Ev:0000000000000000 _ZNSt8functionIFvfEED2Ev
/var/folders/wz/z09yph4n0qj4t7mjxhl6ttn80000gn/T//ccxdcdyF.s:1263   .text._ZNSt8functionIFvfEED2Ev:0000000000000000 _ZNSt8functionIFvfEED1Ev
/var/folders/wz/z09yph4n0qj4t7mjxhl6ttn80000gn/T//ccxdcdyF.s:1298   .text._ZN5Mixer4initEPN5daisy9DaisySeedEPPfS4_S4_S4_S4_PPN7daisysp9DelayLineIfLj240000EEE:0000000000000000 $t
/var/folders/wz/z09yph4n0qj4t7mjxhl6ttn80000gn/T//ccxdcdyF.s:1304   .text._ZN5Mixer4initEPN5daisy9DaisySeedEPPfS4_S4_S4_S4_PPN7daisysp9DelayLineIfLj240000EEE:0000000000000000 _ZN5Mixer4initEPN5daisy9DaisySeedEPPfS4_S4_S4_S4_PPN7daisysp9DelayLineIfLj240000EEE
/var/folders/wz/z09yph4n0qj4t7mjxhl6ttn80000gn/T//ccxdcdyF.s:2948   .text._ZNSt8functionIFvfEEC2IZN5Mixer4initEPN5daisy9DaisySeedEPPfS8_S8_S8_S8_PPN7daisysp9DelayLineIfLj240000EEEEUlfE_vvEET_:0000000000000000 _ZNSt8functionIFvfEEC1IZN5Mixer4initEPN5daisy9DaisySeedEPPfS8_S8_S8_S8_PPN7daisysp9DelayLineIfLj240000EEEEUlfE_vvEET_
/var/folders/wz/z09yph4n0qj4t7mjxhl6ttn80000gn/T//ccxdcdyF.s:3026   .text._ZN14AudioParameterIfE4initEPN5daisy9DaisySeedEff9CurveTypehSt8functionIFvfEE:0000000000000000 _ZN14AudioParameterIfE4initEPN5daisy9DaisySeedEff9CurveTypehSt8functionIFvfEE
/var/folders/wz/z09yph4n0qj4t7mjxhl6ttn80000gn/T//ccxdcdyF.s:1453   .text._ZN5Mixer4initEPN5daisy9DaisySeedEPPfS4_S4_S4_S4_PPN7daisysp9DelayLineIfLj240000EEE:00000000000000f8 $d
/var/folders/wz/z09yph4n0qj4t7mjxhl6ttn80000gn/T//ccxdcdyF.s:1459   .text._ZN5Mixer15initMixChannelsEPPfS1_S1_S1_:0000000000000000 $t
/var/folders/wz/z09yph4n0qj4t7mjxhl6ttn80000gn/T//ccxdcdyF.s:1465   .text._ZN5Mixer15initMixChannelsEPPfS1_S1_S1_:0000000000000000 _ZN5Mixer15initMixChannelsEPPfS1_S1_S1_
/var/folders/wz/z09yph4n0qj4t7mjxhl6ttn80000gn/T//ccxdcdyF.s:1562   .text._ZZN5Mixer11initTrackIOEPN5daisy9DaisySeedE7TrackIOS3_S3_S3_ENKUlfE_clEf:0000000000000000 $t
/var/folders/wz/z09yph4n0qj4t7mjxhl6ttn80000gn/T//ccxdcdyF.s:1567   .text._ZZN5Mixer11initTrackIOEPN5daisy9DaisySeedE7TrackIOS3_S3_S3_ENKUlfE_clEf:0000000000000000 _ZZN5Mixer11initTrackIOEPN5daisy9DaisySeedE7TrackIOS3_S3_S3_ENKUlfE_clEf
ARM GAS  /var/folders/wz/z09yph4n0qj4t7mjxhl6ttn80000gn/T//ccxdcdyF.s 			page 243


/var/folders/wz/z09yph4n0qj4t7mjxhl6ttn80000gn/T//ccxdcdyF.s:1602   .text._ZZN5Mixer11initTrackIOEPN5daisy9DaisySeedE7TrackIOS3_S3_S3_ENKUlfE0_clEf:0000000000000000 $t
/var/folders/wz/z09yph4n0qj4t7mjxhl6ttn80000gn/T//ccxdcdyF.s:1607   .text._ZZN5Mixer11initTrackIOEPN5daisy9DaisySeedE7TrackIOS3_S3_S3_ENKUlfE0_clEf:0000000000000000 _ZZN5Mixer11initTrackIOEPN5daisy9DaisySeedE7TrackIOS3_S3_S3_ENKUlfE0_clEf
/var/folders/wz/z09yph4n0qj4t7mjxhl6ttn80000gn/T//ccxdcdyF.s:1642   .text._ZZN5Mixer11initTrackIOEPN5daisy9DaisySeedE7TrackIOS3_S3_S3_ENKUlfE1_clEf:0000000000000000 $t
/var/folders/wz/z09yph4n0qj4t7mjxhl6ttn80000gn/T//ccxdcdyF.s:1647   .text._ZZN5Mixer11initTrackIOEPN5daisy9DaisySeedE7TrackIOS3_S3_S3_ENKUlfE1_clEf:0000000000000000 _ZZN5Mixer11initTrackIOEPN5daisy9DaisySeedE7TrackIOS3_S3_S3_ENKUlfE1_clEf
/var/folders/wz/z09yph4n0qj4t7mjxhl6ttn80000gn/T//ccxdcdyF.s:1682   .text._ZZN5Mixer11initTrackIOEPN5daisy9DaisySeedE7TrackIOS3_S3_S3_ENKUlfE2_clEf:0000000000000000 $t
/var/folders/wz/z09yph4n0qj4t7mjxhl6ttn80000gn/T//ccxdcdyF.s:1687   .text._ZZN5Mixer11initTrackIOEPN5daisy9DaisySeedE7TrackIOS3_S3_S3_ENKUlfE2_clEf:0000000000000000 _ZZN5Mixer11initTrackIOEPN5daisy9DaisySeedE7TrackIOS3_S3_S3_ENKUlfE2_clEf
/var/folders/wz/z09yph4n0qj4t7mjxhl6ttn80000gn/T//ccxdcdyF.s:1722   .text._ZZN5Mixer11initTrackIOEPN5daisy9DaisySeedE7TrackIOS3_S3_S3_ENKUlfE3_clEf:0000000000000000 $t
/var/folders/wz/z09yph4n0qj4t7mjxhl6ttn80000gn/T//ccxdcdyF.s:1727   .text._ZZN5Mixer11initTrackIOEPN5daisy9DaisySeedE7TrackIOS3_S3_S3_ENKUlfE3_clEf:0000000000000000 _ZZN5Mixer11initTrackIOEPN5daisy9DaisySeedE7TrackIOS3_S3_S3_ENKUlfE3_clEf
/var/folders/wz/z09yph4n0qj4t7mjxhl6ttn80000gn/T//ccxdcdyF.s:1762   .text._ZZN5Mixer11initTrackIOEPN5daisy9DaisySeedE7TrackIOS3_S3_S3_ENKUlfE4_clEf:0000000000000000 $t
/var/folders/wz/z09yph4n0qj4t7mjxhl6ttn80000gn/T//ccxdcdyF.s:1767   .text._ZZN5Mixer11initTrackIOEPN5daisy9DaisySeedE7TrackIOS3_S3_S3_ENKUlfE4_clEf:0000000000000000 _ZZN5Mixer11initTrackIOEPN5daisy9DaisySeedE7TrackIOS3_S3_S3_ENKUlfE4_clEf
/var/folders/wz/z09yph4n0qj4t7mjxhl6ttn80000gn/T//ccxdcdyF.s:1802   .text._ZZN5Mixer11initTrackIOEPN5daisy9DaisySeedE7TrackIOS3_S3_S3_ENKUlfE5_clEf:0000000000000000 $t
/var/folders/wz/z09yph4n0qj4t7mjxhl6ttn80000gn/T//ccxdcdyF.s:1807   .text._ZZN5Mixer11initTrackIOEPN5daisy9DaisySeedE7TrackIOS3_S3_S3_ENKUlfE5_clEf:0000000000000000 _ZZN5Mixer11initTrackIOEPN5daisy9DaisySeedE7TrackIOS3_S3_S3_ENKUlfE5_clEf
/var/folders/wz/z09yph4n0qj4t7mjxhl6ttn80000gn/T//ccxdcdyF.s:1842   .text._ZZN5Mixer11initTrackIOEPN5daisy9DaisySeedE7TrackIOS3_S3_S3_ENKUlfE6_clEf:0000000000000000 $t
/var/folders/wz/z09yph4n0qj4t7mjxhl6ttn80000gn/T//ccxdcdyF.s:1847   .text._ZZN5Mixer11initTrackIOEPN5daisy9DaisySeedE7TrackIOS3_S3_S3_ENKUlfE6_clEf:0000000000000000 _ZZN5Mixer11initTrackIOEPN5daisy9DaisySeedE7TrackIOS3_S3_S3_ENKUlfE6_clEf
/var/folders/wz/z09yph4n0qj4t7mjxhl6ttn80000gn/T//ccxdcdyF.s:1882   .text._ZN5Mixer11initTrackIOEPN5daisy9DaisySeedE7TrackIOS3_S3_S3_:0000000000000000 $t
/var/folders/wz/z09yph4n0qj4t7mjxhl6ttn80000gn/T//ccxdcdyF.s:1888   .text._ZN5Mixer11initTrackIOEPN5daisy9DaisySeedE7TrackIOS3_S3_S3_:0000000000000000 _ZN5Mixer11initTrackIOEPN5daisy9DaisySeedE7TrackIOS3_S3_S3_
/var/folders/wz/z09yph4n0qj4t7mjxhl6ttn80000gn/T//ccxdcdyF.s:3113   .text._ZNSt8functionIFvfEEC2IZN5Mixer11initTrackIOEPN5daisy9DaisySeedE7TrackIOS7_S7_S7_EUlfE_vvEET_:0000000000000000 _ZNSt8functionIFvfEEC1IZN5Mixer11initTrackIOEPN5daisy9DaisySeedE7TrackIOS7_S7_S7_EUlfE_vvEET_
/var/folders/wz/z09yph4n0qj4t7mjxhl6ttn80000gn/T//ccxdcdyF.s:3190   .text._ZNSt8functionIFvfEEC2IZN5Mixer11initTrackIOEPN5daisy9DaisySeedE7TrackIOS7_S7_S7_EUlfE0_vvEET_:0000000000000000 _ZNSt8functionIFvfEEC1IZN5Mixer11initTrackIOEPN5daisy9DaisySeedE7TrackIOS7_S7_S7_EUlfE0_vvEET_
/var/folders/wz/z09yph4n0qj4t7mjxhl6ttn80000gn/T//ccxdcdyF.s:3267   .text._ZNSt8functionIFvfEEC2IZN5Mixer11initTrackIOEPN5daisy9DaisySeedE7TrackIOS7_S7_S7_EUlfE1_vvEET_:0000000000000000 _ZNSt8functionIFvfEEC1IZN5Mixer11initTrackIOEPN5daisy9DaisySeedE7TrackIOS7_S7_S7_EUlfE1_vvEET_
/var/folders/wz/z09yph4n0qj4t7mjxhl6ttn80000gn/T//ccxdcdyF.s:3344   .text._ZNSt8functionIFvfEEC2IZN5Mixer11initTrackIOEPN5daisy9DaisySeedE7TrackIOS7_S7_S7_EUlfE2_vvEET_:0000000000000000 _ZNSt8functionIFvfEEC1IZN5Mixer11initTrackIOEPN5daisy9DaisySeedE7TrackIOS7_S7_S7_EUlfE2_vvEET_
/var/folders/wz/z09yph4n0qj4t7mjxhl6ttn80000gn/T//ccxdcdyF.s:3421   .text._ZNSt8functionIFvfEEC2IZN5Mixer11initTrackIOEPN5daisy9DaisySeedE7TrackIOS7_S7_S7_EUlfE3_vvEET_:0000000000000000 _ZNSt8functionIFvfEEC1IZN5Mixer11initTrackIOEPN5daisy9DaisySeedE7TrackIOS7_S7_S7_EUlfE3_vvEET_
/var/folders/wz/z09yph4n0qj4t7mjxhl6ttn80000gn/T//ccxdcdyF.s:3498   .text._ZNSt8functionIFvfEEC2IZN5Mixer11initTrackIOEPN5daisy9DaisySeedE7TrackIOS7_S7_S7_EUlfE4_vvEET_:0000000000000000 _ZNSt8functionIFvfEEC1IZN5Mixer11initTrackIOEPN5daisy9DaisySeedE7TrackIOS7_S7_S7_EUlfE4_vvEET_
/var/folders/wz/z09yph4n0qj4t7mjxhl6ttn80000gn/T//ccxdcdyF.s:3575   .text._ZNSt8functionIFvfEEC2IZN5Mixer11initTrackIOEPN5daisy9DaisySeedE7TrackIOS7_S7_S7_EUlfE5_vvEET_:0000000000000000 _ZNSt8functionIFvfEEC1IZN5Mixer11initTrackIOEPN5daisy9DaisySeedE7TrackIOS7_S7_S7_EUlfE5_vvEET_
/var/folders/wz/z09yph4n0qj4t7mjxhl6ttn80000gn/T//ccxdcdyF.s:3652   .text._ZNSt8functionIFvfEEC2IZN5Mixer11initTrackIOEPN5daisy9DaisySeedE7TrackIOS7_S7_S7_EUlfE6_vvEET_:0000000000000000 _ZNSt8functionIFvfEEC1IZN5Mixer11initTrackIOEPN5daisy9DaisySeedE7TrackIOS7_S7_S7_EUlfE6_vvEET_
/var/folders/wz/z09yph4n0qj4t7mjxhl6ttn80000gn/T//ccxdcdyF.s:3730   .text._ZN14AudioParameterIfE13setIsSelectedEb:0000000000000000 _ZN14AudioParameterIfE13setIsSelectedEb
/var/folders/wz/z09yph4n0qj4t7mjxhl6ttn80000gn/T//ccxdcdyF.s:2121   .text._ZN5Mixer11initTrackIOEPN5daisy9DaisySeedE7TrackIOS3_S3_S3_:0000000000000238 $d
/var/folders/wz/z09yph4n0qj4t7mjxhl6ttn80000gn/T//ccxdcdyF.s:2126   .text._ZN5Mixer4tickEv:0000000000000000 $t
/var/folders/wz/z09yph4n0qj4t7mjxhl6ttn80000gn/T//ccxdcdyF.s:2132   .text._ZN5Mixer4tickEv:0000000000000000 _ZN5Mixer4tickEv
/var/folders/wz/z09yph4n0qj4t7mjxhl6ttn80000gn/T//ccxdcdyF.s:3772   .text._ZN14AudioParameterIfE4tickEv:0000000000000000 _ZN14AudioParameterIfE4tickEv
/var/folders/wz/z09yph4n0qj4t7mjxhl6ttn80000gn/T//ccxdcdyF.s:2223   .text._ZN5Mixer7prepareEv:0000000000000000 $t
/var/folders/wz/z09yph4n0qj4t7mjxhl6ttn80000gn/T//ccxdcdyF.s:2229   .text._ZN5Mixer7prepareEv:0000000000000000 _ZN5Mixer7prepareEv
/var/folders/wz/z09yph4n0qj4t7mjxhl6ttn80000gn/T//ccxdcdyF.s:2259   .text._ZN5Mixer17processInputBlockEPKfS1_j:0000000000000000 $t
/var/folders/wz/z09yph4n0qj4t7mjxhl6ttn80000gn/T//ccxdcdyF.s:2265   .text._ZN5Mixer17processInputBlockEPKfS1_j:0000000000000000 _ZN5Mixer17processInputBlockEPKfS1_j
/var/folders/wz/z09yph4n0qj4t7mjxhl6ttn80000gn/T//ccxdcdyF.s:2322   .text._ZN5Mixer11panChannelsEj:0000000000000000 $t
/var/folders/wz/z09yph4n0qj4t7mjxhl6ttn80000gn/T//ccxdcdyF.s:2328   .text._ZN5Mixer11panChannelsEj:0000000000000000 _ZN5Mixer11panChannelsEj
/var/folders/wz/z09yph4n0qj4t7mjxhl6ttn80000gn/T//ccxdcdyF.s:2709   .text._ZN5Mixer12panMixBufferEPPffj:0000000000000000 _ZN5Mixer12panMixBufferEPPffj
/var/folders/wz/z09yph4n0qj4t7mjxhl6ttn80000gn/T//ccxdcdyF.s:2399   .text._ZN5Mixer9mixOutputEj:0000000000000000 $t
/var/folders/wz/z09yph4n0qj4t7mjxhl6ttn80000gn/T//ccxdcdyF.s:2405   .text._ZN5Mixer9mixOutputEj:0000000000000000 _ZN5Mixer9mixOutputEj
/var/folders/wz/z09yph4n0qj4t7mjxhl6ttn80000gn/T//ccxdcdyF.s:2810   .text._ZN5Mixer9setMixDivEv:0000000000000000 _ZN5Mixer9setMixDivEv
/var/folders/wz/z09yph4n0qj4t7mjxhl6ttn80000gn/T//ccxdcdyF.s:2569   .text._ZN5Mixer18processOutputBlockEPfS0_j:0000000000000000 $t
/var/folders/wz/z09yph4n0qj4t7mjxhl6ttn80000gn/T//ccxdcdyF.s:2575   .text._ZN5Mixer18processOutputBlockEPfS0_j:0000000000000000 _ZN5Mixer18processOutputBlockEPfS0_j
/var/folders/wz/z09yph4n0qj4t7mjxhl6ttn80000gn/T//ccxdcdyF.s:2703   .text._ZN5Mixer12panMixBufferEPPffj:0000000000000000 $t
/var/folders/wz/z09yph4n0qj4t7mjxhl6ttn80000gn/T//ccxdcdyF.s:2804   .text._ZN5Mixer9setMixDivEv:0000000000000000 $t
/var/folders/wz/z09yph4n0qj4t7mjxhl6ttn80000gn/T//ccxdcdyF.s:2943   .text._ZNSt8functionIFvfEEC2IZN5Mixer4initEPN5daisy9DaisySeedEPPfS8_S8_S8_S8_PPN7daisysp9DelayLineIfLj240000EEEEUlfE_vvEET_:0000000000000000 $t
/var/folders/wz/z09yph4n0qj4t7mjxhl6ttn80000gn/T//ccxdcdyF.s:2948   .text._ZNSt8functionIFvfEEC2IZN5Mixer4initEPN5daisy9DaisySeedEPPfS8_S8_S8_S8_PPN7daisysp9DelayLineIfLj240000EEEEUlfE_vvEET_:0000000000000000 _ZNSt8functionIFvfEEC2IZN5Mixer4initEPN5daisy9DaisySeedEPPfS8_S8_S8_S8_PPN7daisysp9DelayLineIfLj240000EEEEUlfE_vvEET_
/var/folders/wz/z09yph4n0qj4t7mjxhl6ttn80000gn/T//ccxdcdyF.s:3869   .text._ZNSt14_Function_base13_Base_managerIZN5Mixer4initEPN5daisy9DaisySeedEPPfS6_S6_S6_S6_PPN7daisysp9DelayLineIfLj240000EEEEUlfE_E21_M_not_empty_functionISC_EEbRKT_:0000000000000000 _ZNSt14_Function_base13_Base_managerIZN5Mixer4initEPN5daisy9DaisySeedEPPfS6_S6_S6_S6_PPN7daisysp9DelayLineIfLj240000EEEEUlfE_E21_M_not_empty_functionISC_EEbRKT_
/var/folders/wz/z09yph4n0qj4t7mjxhl6ttn80000gn/T//ccxdcdyF.s:3906   .text._ZSt4moveIRZN5Mixer4initEPN5daisy9DaisySeedEPPfS5_S5_S5_S5_PPN7daisysp9DelayLineIfLj240000EEEEUlfE_EONSt16remove_referenceIT_E4typeEOSE_:0000000000000000 _ZSt4moveIRZN5Mixer4initEPN5daisy9DaisySeedEPPfS5_S5_S5_S5_PPN7daisysp9DelayLineIfLj240000EEEEUlfE_EONSt16remove_referenceIT_E4typeEOSE_
/var/folders/wz/z09yph4n0qj4t7mjxhl6ttn80000gn/T//ccxdcdyF.s:3944   .text._ZNSt14_Function_base13_Base_managerIZN5Mixer4initEPN5daisy9DaisySeedEPPfS6_S6_S6_S6_PPN7daisysp9DelayLineIfLj240000EEEEUlfE_E15_M_init_functorERSt9_Any_dataOSC_:0000000000000000 _ZNSt14_Function_base13_Base_managerIZN5Mixer4initEPN5daisy9DaisySeedEPPfS6_S6_S6_S6_PPN7daisysp9DelayLineIfLj240000EEEEUlfE_E15_M_init_functorERSt9_Any_dataOSC_
/var/folders/wz/z09yph4n0qj4t7mjxhl6ttn80000gn/T//ccxdcdyF.s:3013   .text._ZNSt8functionIFvfEEC2IZN5Mixer4initEPN5daisy9DaisySeedEPPfS8_S8_S8_S8_PPN7daisysp9DelayLineIfLj240000EEEEUlfE_vvEET_:000000000000004c $d
/var/folders/wz/z09yph4n0qj4t7mjxhl6ttn80000gn/T//ccxdcdyF.s:3987   .text._ZNSt17_Function_handlerIFvfEZN5Mixer4initEPN5daisy9DaisySeedEPPfS6_S6_S6_S6_PPN7daisysp9DelayLineIfLj240000EEEEUlfE_E9_M_invokeERKSt9_Any_dataOf:0000000000000000 _ZNSt17_Function_handlerIFvfEZN5Mixer4initEPN5daisy9DaisySeedEPPfS6_S6_S6_S6_PPN7daisysp9DelayLineIfLj240000EEEEUlfE_E9_M_invokeERKSt9_Any_dataOf
/var/folders/wz/z09yph4n0qj4t7mjxhl6ttn80000gn/T//ccxdcdyF.s:4033   .text._ZNSt17_Function_handlerIFvfEZN5Mixer4initEPN5daisy9DaisySeedEPPfS6_S6_S6_S6_PPN7daisysp9DelayLineIfLj240000EEEEUlfE_E10_M_managerERSt9_Any_dataRKSE_St18_Manager_operation:0000000000000000 _ZNSt17_Function_handlerIFvfEZN5Mixer4initEPN5daisy9DaisySeedEPPfS6_S6_S6_S6_PPN7daisysp9DelayLineIfLj240000EEEEUlfE_E10_M_managerERSt9_Any_dataRKSE_St18_Manager_operation
/var/folders/wz/z09yph4n0qj4t7mjxhl6ttn80000gn/T//ccxdcdyF.s:3020   .text._ZN14AudioParameterIfE4initEPN5daisy9DaisySeedEff9CurveTypehSt8functionIFvfEE:0000000000000000 $t
/var/folders/wz/z09yph4n0qj4t7mjxhl6ttn80000gn/T//ccxdcdyF.s:4159   .text._ZNSt8functionIFvfEEaSERKS1_:0000000000000000 _ZNSt8functionIFvfEEaSERKS1_
/var/folders/wz/z09yph4n0qj4t7mjxhl6ttn80000gn/T//ccxdcdyF.s:3108   .text._ZNSt8functionIFvfEEC2IZN5Mixer11initTrackIOEPN5daisy9DaisySeedE7TrackIOS7_S7_S7_EUlfE_vvEET_:0000000000000000 $t
/var/folders/wz/z09yph4n0qj4t7mjxhl6ttn80000gn/T//ccxdcdyF.s:3113   .text._ZNSt8functionIFvfEEC2IZN5Mixer11initTrackIOEPN5daisy9DaisySeedE7TrackIOS7_S7_S7_EUlfE_vvEET_:0000000000000000 _ZNSt8functionIFvfEEC2IZN5Mixer11initTrackIOEPN5daisy9DaisySeedE7TrackIOS7_S7_S7_EUlfE_vvEET_
/var/folders/wz/z09yph4n0qj4t7mjxhl6ttn80000gn/T//ccxdcdyF.s:4208   .text._ZNSt14_Function_base13_Base_managerIZN5Mixer11initTrackIOEPN5daisy9DaisySeedE7TrackIOS5_S5_S5_EUlfE_E21_M_not_empty_functionIS6_EEbRKT_:0000000000000000 _ZNSt14_Function_base13_Base_managerIZN5Mixer11initTrackIOEPN5daisy9DaisySeedE7TrackIOS5_S5_S5_EUlfE_E21_M_not_empty_functionIS6_EEbRKT_
/var/folders/wz/z09yph4n0qj4t7mjxhl6ttn80000gn/T//ccxdcdyF.s:4245   .text._ZSt4moveIRZN5Mixer11initTrackIOEPN5daisy9DaisySeedE7TrackIOS4_S4_S4_EUlfE_EONSt16remove_referenceIT_E4typeEOS8_:0000000000000000 _ZSt4moveIRZN5Mixer11initTrackIOEPN5daisy9DaisySeedE7TrackIOS4_S4_S4_EUlfE_EONSt16remove_referenceIT_E4typeEOS8_
ARM GAS  /var/folders/wz/z09yph4n0qj4t7mjxhl6ttn80000gn/T//ccxdcdyF.s 			page 244


/var/folders/wz/z09yph4n0qj4t7mjxhl6ttn80000gn/T//ccxdcdyF.s:4282   .text._ZNSt14_Function_base13_Base_managerIZN5Mixer11initTrackIOEPN5daisy9DaisySeedE7TrackIOS5_S5_S5_EUlfE_E15_M_init_functorERSt9_Any_dataOS6_:0000000000000000 _ZNSt14_Function_base13_Base_managerIZN5Mixer11initTrackIOEPN5daisy9DaisySeedE7TrackIOS5_S5_S5_EUlfE_E15_M_init_functorERSt9_Any_dataOS6_
/var/folders/wz/z09yph4n0qj4t7mjxhl6ttn80000gn/T//ccxdcdyF.s:3178   .text._ZNSt8functionIFvfEEC2IZN5Mixer11initTrackIOEPN5daisy9DaisySeedE7TrackIOS7_S7_S7_EUlfE_vvEET_:000000000000004c $d
/var/folders/wz/z09yph4n0qj4t7mjxhl6ttn80000gn/T//ccxdcdyF.s:4325   .text._ZNSt17_Function_handlerIFvfEZN5Mixer11initTrackIOEPN5daisy9DaisySeedE7TrackIOS5_S5_S5_EUlfE_E9_M_invokeERKSt9_Any_dataOf:0000000000000000 _ZNSt17_Function_handlerIFvfEZN5Mixer11initTrackIOEPN5daisy9DaisySeedE7TrackIOS5_S5_S5_EUlfE_E9_M_invokeERKSt9_Any_dataOf
/var/folders/wz/z09yph4n0qj4t7mjxhl6ttn80000gn/T//ccxdcdyF.s:4371   .text._ZNSt17_Function_handlerIFvfEZN5Mixer11initTrackIOEPN5daisy9DaisySeedE7TrackIOS5_S5_S5_EUlfE_E10_M_managerERSt9_Any_dataRKS8_St18_Manager_operation:0000000000000000 _ZNSt17_Function_handlerIFvfEZN5Mixer11initTrackIOEPN5daisy9DaisySeedE7TrackIOS5_S5_S5_EUlfE_E10_M_managerERSt9_Any_dataRKS8_St18_Manager_operation
/var/folders/wz/z09yph4n0qj4t7mjxhl6ttn80000gn/T//ccxdcdyF.s:3185   .text._ZNSt8functionIFvfEEC2IZN5Mixer11initTrackIOEPN5daisy9DaisySeedE7TrackIOS7_S7_S7_EUlfE0_vvEET_:0000000000000000 $t
/var/folders/wz/z09yph4n0qj4t7mjxhl6ttn80000gn/T//ccxdcdyF.s:3190   .text._ZNSt8functionIFvfEEC2IZN5Mixer11initTrackIOEPN5daisy9DaisySeedE7TrackIOS7_S7_S7_EUlfE0_vvEET_:0000000000000000 _ZNSt8functionIFvfEEC2IZN5Mixer11initTrackIOEPN5daisy9DaisySeedE7TrackIOS7_S7_S7_EUlfE0_vvEET_
/var/folders/wz/z09yph4n0qj4t7mjxhl6ttn80000gn/T//ccxdcdyF.s:4434   .text._ZNSt14_Function_base13_Base_managerIZN5Mixer11initTrackIOEPN5daisy9DaisySeedE7TrackIOS5_S5_S5_EUlfE0_E21_M_not_empty_functionIS6_EEbRKT_:0000000000000000 _ZNSt14_Function_base13_Base_managerIZN5Mixer11initTrackIOEPN5daisy9DaisySeedE7TrackIOS5_S5_S5_EUlfE0_E21_M_not_empty_functionIS6_EEbRKT_
/var/folders/wz/z09yph4n0qj4t7mjxhl6ttn80000gn/T//ccxdcdyF.s:4471   .text._ZSt4moveIRZN5Mixer11initTrackIOEPN5daisy9DaisySeedE7TrackIOS4_S4_S4_EUlfE0_EONSt16remove_referenceIT_E4typeEOS8_:0000000000000000 _ZSt4moveIRZN5Mixer11initTrackIOEPN5daisy9DaisySeedE7TrackIOS4_S4_S4_EUlfE0_EONSt16remove_referenceIT_E4typeEOS8_
/var/folders/wz/z09yph4n0qj4t7mjxhl6ttn80000gn/T//ccxdcdyF.s:4508   .text._ZNSt14_Function_base13_Base_managerIZN5Mixer11initTrackIOEPN5daisy9DaisySeedE7TrackIOS5_S5_S5_EUlfE0_E15_M_init_functorERSt9_Any_dataOS6_:0000000000000000 _ZNSt14_Function_base13_Base_managerIZN5Mixer11initTrackIOEPN5daisy9DaisySeedE7TrackIOS5_S5_S5_EUlfE0_E15_M_init_functorERSt9_Any_dataOS6_
/var/folders/wz/z09yph4n0qj4t7mjxhl6ttn80000gn/T//ccxdcdyF.s:3255   .text._ZNSt8functionIFvfEEC2IZN5Mixer11initTrackIOEPN5daisy9DaisySeedE7TrackIOS7_S7_S7_EUlfE0_vvEET_:000000000000004c $d
/var/folders/wz/z09yph4n0qj4t7mjxhl6ttn80000gn/T//ccxdcdyF.s:4551   .text._ZNSt17_Function_handlerIFvfEZN5Mixer11initTrackIOEPN5daisy9DaisySeedE7TrackIOS5_S5_S5_EUlfE0_E9_M_invokeERKSt9_Any_dataOf:0000000000000000 _ZNSt17_Function_handlerIFvfEZN5Mixer11initTrackIOEPN5daisy9DaisySeedE7TrackIOS5_S5_S5_EUlfE0_E9_M_invokeERKSt9_Any_dataOf
/var/folders/wz/z09yph4n0qj4t7mjxhl6ttn80000gn/T//ccxdcdyF.s:4597   .text._ZNSt17_Function_handlerIFvfEZN5Mixer11initTrackIOEPN5daisy9DaisySeedE7TrackIOS5_S5_S5_EUlfE0_E10_M_managerERSt9_Any_dataRKS8_St18_Manager_operation:0000000000000000 _ZNSt17_Function_handlerIFvfEZN5Mixer11initTrackIOEPN5daisy9DaisySeedE7TrackIOS5_S5_S5_EUlfE0_E10_M_managerERSt9_Any_dataRKS8_St18_Manager_operation
/var/folders/wz/z09yph4n0qj4t7mjxhl6ttn80000gn/T//ccxdcdyF.s:3262   .text._ZNSt8functionIFvfEEC2IZN5Mixer11initTrackIOEPN5daisy9DaisySeedE7TrackIOS7_S7_S7_EUlfE1_vvEET_:0000000000000000 $t
/var/folders/wz/z09yph4n0qj4t7mjxhl6ttn80000gn/T//ccxdcdyF.s:3267   .text._ZNSt8functionIFvfEEC2IZN5Mixer11initTrackIOEPN5daisy9DaisySeedE7TrackIOS7_S7_S7_EUlfE1_vvEET_:0000000000000000 _ZNSt8functionIFvfEEC2IZN5Mixer11initTrackIOEPN5daisy9DaisySeedE7TrackIOS7_S7_S7_EUlfE1_vvEET_
/var/folders/wz/z09yph4n0qj4t7mjxhl6ttn80000gn/T//ccxdcdyF.s:4660   .text._ZNSt14_Function_base13_Base_managerIZN5Mixer11initTrackIOEPN5daisy9DaisySeedE7TrackIOS5_S5_S5_EUlfE1_E21_M_not_empty_functionIS6_EEbRKT_:0000000000000000 _ZNSt14_Function_base13_Base_managerIZN5Mixer11initTrackIOEPN5daisy9DaisySeedE7TrackIOS5_S5_S5_EUlfE1_E21_M_not_empty_functionIS6_EEbRKT_
/var/folders/wz/z09yph4n0qj4t7mjxhl6ttn80000gn/T//ccxdcdyF.s:4697   .text._ZSt4moveIRZN5Mixer11initTrackIOEPN5daisy9DaisySeedE7TrackIOS4_S4_S4_EUlfE1_EONSt16remove_referenceIT_E4typeEOS8_:0000000000000000 _ZSt4moveIRZN5Mixer11initTrackIOEPN5daisy9DaisySeedE7TrackIOS4_S4_S4_EUlfE1_EONSt16remove_referenceIT_E4typeEOS8_
/var/folders/wz/z09yph4n0qj4t7mjxhl6ttn80000gn/T//ccxdcdyF.s:4734   .text._ZNSt14_Function_base13_Base_managerIZN5Mixer11initTrackIOEPN5daisy9DaisySeedE7TrackIOS5_S5_S5_EUlfE1_E15_M_init_functorERSt9_Any_dataOS6_:0000000000000000 _ZNSt14_Function_base13_Base_managerIZN5Mixer11initTrackIOEPN5daisy9DaisySeedE7TrackIOS5_S5_S5_EUlfE1_E15_M_init_functorERSt9_Any_dataOS6_
/var/folders/wz/z09yph4n0qj4t7mjxhl6ttn80000gn/T//ccxdcdyF.s:3332   .text._ZNSt8functionIFvfEEC2IZN5Mixer11initTrackIOEPN5daisy9DaisySeedE7TrackIOS7_S7_S7_EUlfE1_vvEET_:000000000000004c $d
/var/folders/wz/z09yph4n0qj4t7mjxhl6ttn80000gn/T//ccxdcdyF.s:4777   .text._ZNSt17_Function_handlerIFvfEZN5Mixer11initTrackIOEPN5daisy9DaisySeedE7TrackIOS5_S5_S5_EUlfE1_E9_M_invokeERKSt9_Any_dataOf:0000000000000000 _ZNSt17_Function_handlerIFvfEZN5Mixer11initTrackIOEPN5daisy9DaisySeedE7TrackIOS5_S5_S5_EUlfE1_E9_M_invokeERKSt9_Any_dataOf
/var/folders/wz/z09yph4n0qj4t7mjxhl6ttn80000gn/T//ccxdcdyF.s:4823   .text._ZNSt17_Function_handlerIFvfEZN5Mixer11initTrackIOEPN5daisy9DaisySeedE7TrackIOS5_S5_S5_EUlfE1_E10_M_managerERSt9_Any_dataRKS8_St18_Manager_operation:0000000000000000 _ZNSt17_Function_handlerIFvfEZN5Mixer11initTrackIOEPN5daisy9DaisySeedE7TrackIOS5_S5_S5_EUlfE1_E10_M_managerERSt9_Any_dataRKS8_St18_Manager_operation
/var/folders/wz/z09yph4n0qj4t7mjxhl6ttn80000gn/T//ccxdcdyF.s:3339   .text._ZNSt8functionIFvfEEC2IZN5Mixer11initTrackIOEPN5daisy9DaisySeedE7TrackIOS7_S7_S7_EUlfE2_vvEET_:0000000000000000 $t
/var/folders/wz/z09yph4n0qj4t7mjxhl6ttn80000gn/T//ccxdcdyF.s:3344   .text._ZNSt8functionIFvfEEC2IZN5Mixer11initTrackIOEPN5daisy9DaisySeedE7TrackIOS7_S7_S7_EUlfE2_vvEET_:0000000000000000 _ZNSt8functionIFvfEEC2IZN5Mixer11initTrackIOEPN5daisy9DaisySeedE7TrackIOS7_S7_S7_EUlfE2_vvEET_
/var/folders/wz/z09yph4n0qj4t7mjxhl6ttn80000gn/T//ccxdcdyF.s:4886   .text._ZNSt14_Function_base13_Base_managerIZN5Mixer11initTrackIOEPN5daisy9DaisySeedE7TrackIOS5_S5_S5_EUlfE2_E21_M_not_empty_functionIS6_EEbRKT_:0000000000000000 _ZNSt14_Function_base13_Base_managerIZN5Mixer11initTrackIOEPN5daisy9DaisySeedE7TrackIOS5_S5_S5_EUlfE2_E21_M_not_empty_functionIS6_EEbRKT_
/var/folders/wz/z09yph4n0qj4t7mjxhl6ttn80000gn/T//ccxdcdyF.s:4923   .text._ZSt4moveIRZN5Mixer11initTrackIOEPN5daisy9DaisySeedE7TrackIOS4_S4_S4_EUlfE2_EONSt16remove_referenceIT_E4typeEOS8_:0000000000000000 _ZSt4moveIRZN5Mixer11initTrackIOEPN5daisy9DaisySeedE7TrackIOS4_S4_S4_EUlfE2_EONSt16remove_referenceIT_E4typeEOS8_
/var/folders/wz/z09yph4n0qj4t7mjxhl6ttn80000gn/T//ccxdcdyF.s:4960   .text._ZNSt14_Function_base13_Base_managerIZN5Mixer11initTrackIOEPN5daisy9DaisySeedE7TrackIOS5_S5_S5_EUlfE2_E15_M_init_functorERSt9_Any_dataOS6_:0000000000000000 _ZNSt14_Function_base13_Base_managerIZN5Mixer11initTrackIOEPN5daisy9DaisySeedE7TrackIOS5_S5_S5_EUlfE2_E15_M_init_functorERSt9_Any_dataOS6_
/var/folders/wz/z09yph4n0qj4t7mjxhl6ttn80000gn/T//ccxdcdyF.s:3409   .text._ZNSt8functionIFvfEEC2IZN5Mixer11initTrackIOEPN5daisy9DaisySeedE7TrackIOS7_S7_S7_EUlfE2_vvEET_:000000000000004c $d
/var/folders/wz/z09yph4n0qj4t7mjxhl6ttn80000gn/T//ccxdcdyF.s:5003   .text._ZNSt17_Function_handlerIFvfEZN5Mixer11initTrackIOEPN5daisy9DaisySeedE7TrackIOS5_S5_S5_EUlfE2_E9_M_invokeERKSt9_Any_dataOf:0000000000000000 _ZNSt17_Function_handlerIFvfEZN5Mixer11initTrackIOEPN5daisy9DaisySeedE7TrackIOS5_S5_S5_EUlfE2_E9_M_invokeERKSt9_Any_dataOf
/var/folders/wz/z09yph4n0qj4t7mjxhl6ttn80000gn/T//ccxdcdyF.s:5049   .text._ZNSt17_Function_handlerIFvfEZN5Mixer11initTrackIOEPN5daisy9DaisySeedE7TrackIOS5_S5_S5_EUlfE2_E10_M_managerERSt9_Any_dataRKS8_St18_Manager_operation:0000000000000000 _ZNSt17_Function_handlerIFvfEZN5Mixer11initTrackIOEPN5daisy9DaisySeedE7TrackIOS5_S5_S5_EUlfE2_E10_M_managerERSt9_Any_dataRKS8_St18_Manager_operation
/var/folders/wz/z09yph4n0qj4t7mjxhl6ttn80000gn/T//ccxdcdyF.s:3416   .text._ZNSt8functionIFvfEEC2IZN5Mixer11initTrackIOEPN5daisy9DaisySeedE7TrackIOS7_S7_S7_EUlfE3_vvEET_:0000000000000000 $t
/var/folders/wz/z09yph4n0qj4t7mjxhl6ttn80000gn/T//ccxdcdyF.s:3421   .text._ZNSt8functionIFvfEEC2IZN5Mixer11initTrackIOEPN5daisy9DaisySeedE7TrackIOS7_S7_S7_EUlfE3_vvEET_:0000000000000000 _ZNSt8functionIFvfEEC2IZN5Mixer11initTrackIOEPN5daisy9DaisySeedE7TrackIOS7_S7_S7_EUlfE3_vvEET_
/var/folders/wz/z09yph4n0qj4t7mjxhl6ttn80000gn/T//ccxdcdyF.s:5112   .text._ZNSt14_Function_base13_Base_managerIZN5Mixer11initTrackIOEPN5daisy9DaisySeedE7TrackIOS5_S5_S5_EUlfE3_E21_M_not_empty_functionIS6_EEbRKT_:0000000000000000 _ZNSt14_Function_base13_Base_managerIZN5Mixer11initTrackIOEPN5daisy9DaisySeedE7TrackIOS5_S5_S5_EUlfE3_E21_M_not_empty_functionIS6_EEbRKT_
/var/folders/wz/z09yph4n0qj4t7mjxhl6ttn80000gn/T//ccxdcdyF.s:5149   .text._ZSt4moveIRZN5Mixer11initTrackIOEPN5daisy9DaisySeedE7TrackIOS4_S4_S4_EUlfE3_EONSt16remove_referenceIT_E4typeEOS8_:0000000000000000 _ZSt4moveIRZN5Mixer11initTrackIOEPN5daisy9DaisySeedE7TrackIOS4_S4_S4_EUlfE3_EONSt16remove_referenceIT_E4typeEOS8_
/var/folders/wz/z09yph4n0qj4t7mjxhl6ttn80000gn/T//ccxdcdyF.s:5186   .text._ZNSt14_Function_base13_Base_managerIZN5Mixer11initTrackIOEPN5daisy9DaisySeedE7TrackIOS5_S5_S5_EUlfE3_E15_M_init_functorERSt9_Any_dataOS6_:0000000000000000 _ZNSt14_Function_base13_Base_managerIZN5Mixer11initTrackIOEPN5daisy9DaisySeedE7TrackIOS5_S5_S5_EUlfE3_E15_M_init_functorERSt9_Any_dataOS6_
/var/folders/wz/z09yph4n0qj4t7mjxhl6ttn80000gn/T//ccxdcdyF.s:3486   .text._ZNSt8functionIFvfEEC2IZN5Mixer11initTrackIOEPN5daisy9DaisySeedE7TrackIOS7_S7_S7_EUlfE3_vvEET_:000000000000004c $d
/var/folders/wz/z09yph4n0qj4t7mjxhl6ttn80000gn/T//ccxdcdyF.s:5229   .text._ZNSt17_Function_handlerIFvfEZN5Mixer11initTrackIOEPN5daisy9DaisySeedE7TrackIOS5_S5_S5_EUlfE3_E9_M_invokeERKSt9_Any_dataOf:0000000000000000 _ZNSt17_Function_handlerIFvfEZN5Mixer11initTrackIOEPN5daisy9DaisySeedE7TrackIOS5_S5_S5_EUlfE3_E9_M_invokeERKSt9_Any_dataOf
/var/folders/wz/z09yph4n0qj4t7mjxhl6ttn80000gn/T//ccxdcdyF.s:5275   .text._ZNSt17_Function_handlerIFvfEZN5Mixer11initTrackIOEPN5daisy9DaisySeedE7TrackIOS5_S5_S5_EUlfE3_E10_M_managerERSt9_Any_dataRKS8_St18_Manager_operation:0000000000000000 _ZNSt17_Function_handlerIFvfEZN5Mixer11initTrackIOEPN5daisy9DaisySeedE7TrackIOS5_S5_S5_EUlfE3_E10_M_managerERSt9_Any_dataRKS8_St18_Manager_operation
/var/folders/wz/z09yph4n0qj4t7mjxhl6ttn80000gn/T//ccxdcdyF.s:3493   .text._ZNSt8functionIFvfEEC2IZN5Mixer11initTrackIOEPN5daisy9DaisySeedE7TrackIOS7_S7_S7_EUlfE4_vvEET_:0000000000000000 $t
/var/folders/wz/z09yph4n0qj4t7mjxhl6ttn80000gn/T//ccxdcdyF.s:3498   .text._ZNSt8functionIFvfEEC2IZN5Mixer11initTrackIOEPN5daisy9DaisySeedE7TrackIOS7_S7_S7_EUlfE4_vvEET_:0000000000000000 _ZNSt8functionIFvfEEC2IZN5Mixer11initTrackIOEPN5daisy9DaisySeedE7TrackIOS7_S7_S7_EUlfE4_vvEET_
/var/folders/wz/z09yph4n0qj4t7mjxhl6ttn80000gn/T//ccxdcdyF.s:5338   .text._ZNSt14_Function_base13_Base_managerIZN5Mixer11initTrackIOEPN5daisy9DaisySeedE7TrackIOS5_S5_S5_EUlfE4_E21_M_not_empty_functionIS6_EEbRKT_:0000000000000000 _ZNSt14_Function_base13_Base_managerIZN5Mixer11initTrackIOEPN5daisy9DaisySeedE7TrackIOS5_S5_S5_EUlfE4_E21_M_not_empty_functionIS6_EEbRKT_
/var/folders/wz/z09yph4n0qj4t7mjxhl6ttn80000gn/T//ccxdcdyF.s:5375   .text._ZSt4moveIRZN5Mixer11initTrackIOEPN5daisy9DaisySeedE7TrackIOS4_S4_S4_EUlfE4_EONSt16remove_referenceIT_E4typeEOS8_:0000000000000000 _ZSt4moveIRZN5Mixer11initTrackIOEPN5daisy9DaisySeedE7TrackIOS4_S4_S4_EUlfE4_EONSt16remove_referenceIT_E4typeEOS8_
/var/folders/wz/z09yph4n0qj4t7mjxhl6ttn80000gn/T//ccxdcdyF.s:5412   .text._ZNSt14_Function_base13_Base_managerIZN5Mixer11initTrackIOEPN5daisy9DaisySeedE7TrackIOS5_S5_S5_EUlfE4_E15_M_init_functorERSt9_Any_dataOS6_:0000000000000000 _ZNSt14_Function_base13_Base_managerIZN5Mixer11initTrackIOEPN5daisy9DaisySeedE7TrackIOS5_S5_S5_EUlfE4_E15_M_init_functorERSt9_Any_dataOS6_
/var/folders/wz/z09yph4n0qj4t7mjxhl6ttn80000gn/T//ccxdcdyF.s:3563   .text._ZNSt8functionIFvfEEC2IZN5Mixer11initTrackIOEPN5daisy9DaisySeedE7TrackIOS7_S7_S7_EUlfE4_vvEET_:000000000000004c $d
/var/folders/wz/z09yph4n0qj4t7mjxhl6ttn80000gn/T//ccxdcdyF.s:5455   .text._ZNSt17_Function_handlerIFvfEZN5Mixer11initTrackIOEPN5daisy9DaisySeedE7TrackIOS5_S5_S5_EUlfE4_E9_M_invokeERKSt9_Any_dataOf:0000000000000000 _ZNSt17_Function_handlerIFvfEZN5Mixer11initTrackIOEPN5daisy9DaisySeedE7TrackIOS5_S5_S5_EUlfE4_E9_M_invokeERKSt9_Any_dataOf
/var/folders/wz/z09yph4n0qj4t7mjxhl6ttn80000gn/T//ccxdcdyF.s:5501   .text._ZNSt17_Function_handlerIFvfEZN5Mixer11initTrackIOEPN5daisy9DaisySeedE7TrackIOS5_S5_S5_EUlfE4_E10_M_managerERSt9_Any_dataRKS8_St18_Manager_operation:0000000000000000 _ZNSt17_Function_handlerIFvfEZN5Mixer11initTrackIOEPN5daisy9DaisySeedE7TrackIOS5_S5_S5_EUlfE4_E10_M_managerERSt9_Any_dataRKS8_St18_Manager_operation
/var/folders/wz/z09yph4n0qj4t7mjxhl6ttn80000gn/T//ccxdcdyF.s:3570   .text._ZNSt8functionIFvfEEC2IZN5Mixer11initTrackIOEPN5daisy9DaisySeedE7TrackIOS7_S7_S7_EUlfE5_vvEET_:0000000000000000 $t
/var/folders/wz/z09yph4n0qj4t7mjxhl6ttn80000gn/T//ccxdcdyF.s:3575   .text._ZNSt8functionIFvfEEC2IZN5Mixer11initTrackIOEPN5daisy9DaisySeedE7TrackIOS7_S7_S7_EUlfE5_vvEET_:0000000000000000 _ZNSt8functionIFvfEEC2IZN5Mixer11initTrackIOEPN5daisy9DaisySeedE7TrackIOS7_S7_S7_EUlfE5_vvEET_
/var/folders/wz/z09yph4n0qj4t7mjxhl6ttn80000gn/T//ccxdcdyF.s:5564   .text._ZNSt14_Function_base13_Base_managerIZN5Mixer11initTrackIOEPN5daisy9DaisySeedE7TrackIOS5_S5_S5_EUlfE5_E21_M_not_empty_functionIS6_EEbRKT_:0000000000000000 _ZNSt14_Function_base13_Base_managerIZN5Mixer11initTrackIOEPN5daisy9DaisySeedE7TrackIOS5_S5_S5_EUlfE5_E21_M_not_empty_functionIS6_EEbRKT_
/var/folders/wz/z09yph4n0qj4t7mjxhl6ttn80000gn/T//ccxdcdyF.s:5601   .text._ZSt4moveIRZN5Mixer11initTrackIOEPN5daisy9DaisySeedE7TrackIOS4_S4_S4_EUlfE5_EONSt16remove_referenceIT_E4typeEOS8_:0000000000000000 _ZSt4moveIRZN5Mixer11initTrackIOEPN5daisy9DaisySeedE7TrackIOS4_S4_S4_EUlfE5_EONSt16remove_referenceIT_E4typeEOS8_
/var/folders/wz/z09yph4n0qj4t7mjxhl6ttn80000gn/T//ccxdcdyF.s:5638   .text._ZNSt14_Function_base13_Base_managerIZN5Mixer11initTrackIOEPN5daisy9DaisySeedE7TrackIOS5_S5_S5_EUlfE5_E15_M_init_functorERSt9_Any_dataOS6_:0000000000000000 _ZNSt14_Function_base13_Base_managerIZN5Mixer11initTrackIOEPN5daisy9DaisySeedE7TrackIOS5_S5_S5_EUlfE5_E15_M_init_functorERSt9_Any_dataOS6_
/var/folders/wz/z09yph4n0qj4t7mjxhl6ttn80000gn/T//ccxdcdyF.s:3640   .text._ZNSt8functionIFvfEEC2IZN5Mixer11initTrackIOEPN5daisy9DaisySeedE7TrackIOS7_S7_S7_EUlfE5_vvEET_:000000000000004c $d
/var/folders/wz/z09yph4n0qj4t7mjxhl6ttn80000gn/T//ccxdcdyF.s:5681   .text._ZNSt17_Function_handlerIFvfEZN5Mixer11initTrackIOEPN5daisy9DaisySeedE7TrackIOS5_S5_S5_EUlfE5_E9_M_invokeERKSt9_Any_dataOf:0000000000000000 _ZNSt17_Function_handlerIFvfEZN5Mixer11initTrackIOEPN5daisy9DaisySeedE7TrackIOS5_S5_S5_EUlfE5_E9_M_invokeERKSt9_Any_dataOf
/var/folders/wz/z09yph4n0qj4t7mjxhl6ttn80000gn/T//ccxdcdyF.s:5727   .text._ZNSt17_Function_handlerIFvfEZN5Mixer11initTrackIOEPN5daisy9DaisySeedE7TrackIOS5_S5_S5_EUlfE5_E10_M_managerERSt9_Any_dataRKS8_St18_Manager_operation:0000000000000000 _ZNSt17_Function_handlerIFvfEZN5Mixer11initTrackIOEPN5daisy9DaisySeedE7TrackIOS5_S5_S5_EUlfE5_E10_M_managerERSt9_Any_dataRKS8_St18_Manager_operation
/var/folders/wz/z09yph4n0qj4t7mjxhl6ttn80000gn/T//ccxdcdyF.s:3647   .text._ZNSt8functionIFvfEEC2IZN5Mixer11initTrackIOEPN5daisy9DaisySeedE7TrackIOS7_S7_S7_EUlfE6_vvEET_:0000000000000000 $t
/var/folders/wz/z09yph4n0qj4t7mjxhl6ttn80000gn/T//ccxdcdyF.s:3652   .text._ZNSt8functionIFvfEEC2IZN5Mixer11initTrackIOEPN5daisy9DaisySeedE7TrackIOS7_S7_S7_EUlfE6_vvEET_:0000000000000000 _ZNSt8functionIFvfEEC2IZN5Mixer11initTrackIOEPN5daisy9DaisySeedE7TrackIOS7_S7_S7_EUlfE6_vvEET_
/var/folders/wz/z09yph4n0qj4t7mjxhl6ttn80000gn/T//ccxdcdyF.s:5790   .text._ZNSt14_Function_base13_Base_managerIZN5Mixer11initTrackIOEPN5daisy9DaisySeedE7TrackIOS5_S5_S5_EUlfE6_E21_M_not_empty_functionIS6_EEbRKT_:0000000000000000 _ZNSt14_Function_base13_Base_managerIZN5Mixer11initTrackIOEPN5daisy9DaisySeedE7TrackIOS5_S5_S5_EUlfE6_E21_M_not_empty_functionIS6_EEbRKT_
/var/folders/wz/z09yph4n0qj4t7mjxhl6ttn80000gn/T//ccxdcdyF.s:5827   .text._ZSt4moveIRZN5Mixer11initTrackIOEPN5daisy9DaisySeedE7TrackIOS4_S4_S4_EUlfE6_EONSt16remove_referenceIT_E4typeEOS8_:0000000000000000 _ZSt4moveIRZN5Mixer11initTrackIOEPN5daisy9DaisySeedE7TrackIOS4_S4_S4_EUlfE6_EONSt16remove_referenceIT_E4typeEOS8_
/var/folders/wz/z09yph4n0qj4t7mjxhl6ttn80000gn/T//ccxdcdyF.s:5864   .text._ZNSt14_Function_base13_Base_managerIZN5Mixer11initTrackIOEPN5daisy9DaisySeedE7TrackIOS5_S5_S5_EUlfE6_E15_M_init_functorERSt9_Any_dataOS6_:0000000000000000 _ZNSt14_Function_base13_Base_managerIZN5Mixer11initTrackIOEPN5daisy9DaisySeedE7TrackIOS5_S5_S5_EUlfE6_E15_M_init_functorERSt9_Any_dataOS6_
ARM GAS  /var/folders/wz/z09yph4n0qj4t7mjxhl6ttn80000gn/T//ccxdcdyF.s 			page 245


/var/folders/wz/z09yph4n0qj4t7mjxhl6ttn80000gn/T//ccxdcdyF.s:3717   .text._ZNSt8functionIFvfEEC2IZN5Mixer11initTrackIOEPN5daisy9DaisySeedE7TrackIOS7_S7_S7_EUlfE6_vvEET_:000000000000004c $d
/var/folders/wz/z09yph4n0qj4t7mjxhl6ttn80000gn/T//ccxdcdyF.s:5907   .text._ZNSt17_Function_handlerIFvfEZN5Mixer11initTrackIOEPN5daisy9DaisySeedE7TrackIOS5_S5_S5_EUlfE6_E9_M_invokeERKSt9_Any_dataOf:0000000000000000 _ZNSt17_Function_handlerIFvfEZN5Mixer11initTrackIOEPN5daisy9DaisySeedE7TrackIOS5_S5_S5_EUlfE6_E9_M_invokeERKSt9_Any_dataOf
/var/folders/wz/z09yph4n0qj4t7mjxhl6ttn80000gn/T//ccxdcdyF.s:5953   .text._ZNSt17_Function_handlerIFvfEZN5Mixer11initTrackIOEPN5daisy9DaisySeedE7TrackIOS5_S5_S5_EUlfE6_E10_M_managerERSt9_Any_dataRKS8_St18_Manager_operation:0000000000000000 _ZNSt17_Function_handlerIFvfEZN5Mixer11initTrackIOEPN5daisy9DaisySeedE7TrackIOS5_S5_S5_EUlfE6_E10_M_managerERSt9_Any_dataRKS8_St18_Manager_operation
/var/folders/wz/z09yph4n0qj4t7mjxhl6ttn80000gn/T//ccxdcdyF.s:3724   .text._ZN14AudioParameterIfE13setIsSelectedEb:0000000000000000 $t
/var/folders/wz/z09yph4n0qj4t7mjxhl6ttn80000gn/T//ccxdcdyF.s:3766   .text._ZN14AudioParameterIfE4tickEv:0000000000000000 $t
/var/folders/wz/z09yph4n0qj4t7mjxhl6ttn80000gn/T//ccxdcdyF.s:6017   .text._ZN14AudioParameterIfE12processCurveEv:0000000000000000 _ZN14AudioParameterIfE12processCurveEv
/var/folders/wz/z09yph4n0qj4t7mjxhl6ttn80000gn/T//ccxdcdyF.s:6118   .text._ZNKSt8functionIFvfEEclEf:0000000000000000 _ZNKSt8functionIFvfEEclEf
/var/folders/wz/z09yph4n0qj4t7mjxhl6ttn80000gn/T//ccxdcdyF.s:3864   .text._ZNSt14_Function_base13_Base_managerIZN5Mixer4initEPN5daisy9DaisySeedEPPfS6_S6_S6_S6_PPN7daisysp9DelayLineIfLj240000EEEEUlfE_E21_M_not_empty_functionISC_EEbRKT_:0000000000000000 $t
/var/folders/wz/z09yph4n0qj4t7mjxhl6ttn80000gn/T//ccxdcdyF.s:3901   .text._ZSt4moveIRZN5Mixer4initEPN5daisy9DaisySeedEPPfS5_S5_S5_S5_PPN7daisysp9DelayLineIfLj240000EEEEUlfE_EONSt16remove_referenceIT_E4typeEOSE_:0000000000000000 $t
/var/folders/wz/z09yph4n0qj4t7mjxhl6ttn80000gn/T//ccxdcdyF.s:3939   .text._ZNSt14_Function_base13_Base_managerIZN5Mixer4initEPN5daisy9DaisySeedEPPfS6_S6_S6_S6_PPN7daisysp9DelayLineIfLj240000EEEEUlfE_E15_M_init_functorERSt9_Any_dataOSC_:0000000000000000 $t
/var/folders/wz/z09yph4n0qj4t7mjxhl6ttn80000gn/T//ccxdcdyF.s:6372   .text._ZNSt14_Function_base13_Base_managerIZN5Mixer4initEPN5daisy9DaisySeedEPPfS6_S6_S6_S6_PPN7daisysp9DelayLineIfLj240000EEEEUlfE_E15_M_init_functorERSt9_Any_dataOSC_St17integral_constantIbLb1EE:0000000000000000 _ZNSt14_Function_base13_Base_managerIZN5Mixer4initEPN5daisy9DaisySeedEPPfS6_S6_S6_S6_PPN7daisysp9DelayLineIfLj240000EEEEUlfE_E15_M_init_functorERSt9_Any_dataOSC_St17integral_constantIbLb1EE
/var/folders/wz/z09yph4n0qj4t7mjxhl6ttn80000gn/T//ccxdcdyF.s:3982   .text._ZNSt17_Function_handlerIFvfEZN5Mixer4initEPN5daisy9DaisySeedEPPfS6_S6_S6_S6_PPN7daisysp9DelayLineIfLj240000EEEEUlfE_E9_M_invokeERKSt9_Any_dataOf:0000000000000000 $t
/var/folders/wz/z09yph4n0qj4t7mjxhl6ttn80000gn/T//ccxdcdyF.s:6422   .text._ZNSt14_Function_base13_Base_managerIZN5Mixer4initEPN5daisy9DaisySeedEPPfS6_S6_S6_S6_PPN7daisysp9DelayLineIfLj240000EEEEUlfE_E14_M_get_pointerERKSt9_Any_data:0000000000000000 _ZNSt14_Function_base13_Base_managerIZN5Mixer4initEPN5daisy9DaisySeedEPPfS6_S6_S6_S6_PPN7daisysp9DelayLineIfLj240000EEEEUlfE_E14_M_get_pointerERKSt9_Any_data
/var/folders/wz/z09yph4n0qj4t7mjxhl6ttn80000gn/T//ccxdcdyF.s:6469   .text._ZSt7forwardIfEOT_RNSt16remove_referenceIS0_E4typeE:0000000000000000 _ZSt7forwardIfEOT_RNSt16remove_referenceIS0_E4typeE
/var/folders/wz/z09yph4n0qj4t7mjxhl6ttn80000gn/T//ccxdcdyF.s:6506   .text._ZSt10__invoke_rIvRZN5Mixer4initEPN5daisy9DaisySeedEPPfS5_S5_S5_S5_PPN7daisysp9DelayLineIfLj240000EEEEUlfE_JfEENSt9enable_ifIXsrSt6__and_IJSt7is_voidIT_ESt14__is_invocableIT0_JDpT1_EEEE5valueESG_E4typeEOSJ_DpOSK_:0000000000000000 _ZSt10__invoke_rIvRZN5Mixer4initEPN5daisy9DaisySeedEPPfS5_S5_S5_S5_PPN7daisysp9DelayLineIfLj240000EEEEUlfE_JfEENSt9enable_ifIXsrSt6__and_IJSt7is_voidIT_ESt14__is_invocableIT0_JDpT1_EEEE5valueESG_E4typeEOSJ_DpOSK_
/var/folders/wz/z09yph4n0qj4t7mjxhl6ttn80000gn/T//ccxdcdyF.s:4028   .text._ZNSt17_Function_handlerIFvfEZN5Mixer4initEPN5daisy9DaisySeedEPPfS6_S6_S6_S6_PPN7daisysp9DelayLineIfLj240000EEEEUlfE_E10_M_managerERSt9_Any_dataRKSE_St18_Manager_operation:0000000000000000 $t
/var/folders/wz/z09yph4n0qj4t7mjxhl6ttn80000gn/T//ccxdcdyF.s:6553   .text._ZNSt9_Any_data9_M_accessIPZN5Mixer4initEPN5daisy9DaisySeedEPPfS6_S6_S6_S6_PPN7daisysp9DelayLineIfLj240000EEEEUlfE_EERT_v:0000000000000000 _ZNSt9_Any_data9_M_accessIPZN5Mixer4initEPN5daisy9DaisySeedEPPfS6_S6_S6_S6_PPN7daisysp9DelayLineIfLj240000EEEEUlfE_EERT_v
/var/folders/wz/z09yph4n0qj4t7mjxhl6ttn80000gn/T//ccxdcdyF.s:6589   .text._ZNSt14_Function_base13_Base_managerIZN5Mixer4initEPN5daisy9DaisySeedEPPfS6_S6_S6_S6_PPN7daisysp9DelayLineIfLj240000EEEEUlfE_E10_M_managerERSt9_Any_dataRKSE_St18_Manager_operation:0000000000000000 _ZNSt14_Function_base13_Base_managerIZN5Mixer4initEPN5daisy9DaisySeedEPPfS6_S6_S6_S6_PPN7daisysp9DelayLineIfLj240000EEEEUlfE_E10_M_managerERSt9_Any_dataRKSE_St18_Manager_operation
/var/folders/wz/z09yph4n0qj4t7mjxhl6ttn80000gn/T//ccxdcdyF.s:4091   .text._ZNSt8functionIFvfEE4swapERS1_:0000000000000000 $t
/var/folders/wz/z09yph4n0qj4t7mjxhl6ttn80000gn/T//ccxdcdyF.s:4097   .text._ZNSt8functionIFvfEE4swapERS1_:0000000000000000 _ZNSt8functionIFvfEE4swapERS1_
/var/folders/wz/z09yph4n0qj4t7mjxhl6ttn80000gn/T//ccxdcdyF.s:6218   .text._ZSt4swapISt9_Any_dataENSt9enable_ifIXsrSt6__and_IJSt6__not_ISt15__is_tuple_likeIT_EESt21is_move_constructibleIS5_ESt18is_move_assignableIS5_EEE5valueEvE4typeERS5_SF_:0000000000000000 _ZSt4swapISt9_Any_dataENSt9enable_ifIXsrSt6__and_IJSt6__not_ISt15__is_tuple_likeIT_EESt21is_move_constructibleIS5_ESt18is_move_assignableIS5_EEE5valueEvE4typeERS5_SF_
/var/folders/wz/z09yph4n0qj4t7mjxhl6ttn80000gn/T//ccxdcdyF.s:6315   .text._ZSt4swapIPFbRSt9_Any_dataRKS0_St18_Manager_operationEENSt9enable_ifIXsrSt6__and_IJSt6__not_ISt15__is_tuple_likeIT_EESt21is_move_constructibleISB_ESt18is_move_assignableISB_EEE5valueEvE4typeERSB_SL_:0000000000000000 _ZSt4swapIPFbRSt9_Any_dataRKS0_St18_Manager_operationEENSt9enable_ifIXsrSt6__and_IJSt6__not_ISt15__is_tuple_likeIT_EESt21is_move_constructibleISB_ESt18is_move_assignableISB_EEE5valueEvE4typeERSB_SL_
/var/folders/wz/z09yph4n0qj4t7mjxhl6ttn80000gn/T//ccxdcdyF.s:6708   .text._ZSt4swapIPFvRKSt9_Any_dataOfEENSt9enable_ifIXsrSt6__and_IJSt6__not_ISt15__is_tuple_likeIT_EESt21is_move_constructibleISA_ESt18is_move_assignableISA_EEE5valueEvE4typeERSA_SK_:0000000000000000 _ZSt4swapIPFvRKSt9_Any_dataOfEENSt9enable_ifIXsrSt6__and_IJSt6__not_ISt15__is_tuple_likeIT_EESt21is_move_constructibleISA_ESt18is_move_assignableISA_EEE5valueEvE4typeERSA_SK_
/var/folders/wz/z09yph4n0qj4t7mjxhl6ttn80000gn/T//ccxdcdyF.s:4153   .text._ZNSt8functionIFvfEEaSERKS1_:0000000000000000 $t
/var/folders/wz/z09yph4n0qj4t7mjxhl6ttn80000gn/T//ccxdcdyF.s:6766   .text._ZNSt8functionIFvfEEC2ERKS1_:0000000000000000 _ZNSt8functionIFvfEEC1ERKS1_
/var/folders/wz/z09yph4n0qj4t7mjxhl6ttn80000gn/T//ccxdcdyF.s:4203   .text._ZNSt14_Function_base13_Base_managerIZN5Mixer11initTrackIOEPN5daisy9DaisySeedE7TrackIOS5_S5_S5_EUlfE_E21_M_not_empty_functionIS6_EEbRKT_:0000000000000000 $t
/var/folders/wz/z09yph4n0qj4t7mjxhl6ttn80000gn/T//ccxdcdyF.s:4240   .text._ZSt4moveIRZN5Mixer11initTrackIOEPN5daisy9DaisySeedE7TrackIOS4_S4_S4_EUlfE_EONSt16remove_referenceIT_E4typeEOS8_:0000000000000000 $t
/var/folders/wz/z09yph4n0qj4t7mjxhl6ttn80000gn/T//ccxdcdyF.s:4277   .text._ZNSt14_Function_base13_Base_managerIZN5Mixer11initTrackIOEPN5daisy9DaisySeedE7TrackIOS5_S5_S5_EUlfE_E15_M_init_functorERSt9_Any_dataOS6_:0000000000000000 $t
/var/folders/wz/z09yph4n0qj4t7mjxhl6ttn80000gn/T//ccxdcdyF.s:6839   .text._ZNSt14_Function_base13_Base_managerIZN5Mixer11initTrackIOEPN5daisy9DaisySeedE7TrackIOS5_S5_S5_EUlfE_E15_M_init_functorERSt9_Any_dataOS6_St17integral_constantIbLb1EE:0000000000000000 _ZNSt14_Function_base13_Base_managerIZN5Mixer11initTrackIOEPN5daisy9DaisySeedE7TrackIOS5_S5_S5_EUlfE_E15_M_init_functorERSt9_Any_dataOS6_St17integral_constantIbLb1EE
/var/folders/wz/z09yph4n0qj4t7mjxhl6ttn80000gn/T//ccxdcdyF.s:4320   .text._ZNSt17_Function_handlerIFvfEZN5Mixer11initTrackIOEPN5daisy9DaisySeedE7TrackIOS5_S5_S5_EUlfE_E9_M_invokeERKSt9_Any_dataOf:0000000000000000 $t
/var/folders/wz/z09yph4n0qj4t7mjxhl6ttn80000gn/T//ccxdcdyF.s:6889   .text._ZNSt14_Function_base13_Base_managerIZN5Mixer11initTrackIOEPN5daisy9DaisySeedE7TrackIOS5_S5_S5_EUlfE_E14_M_get_pointerERKSt9_Any_data:0000000000000000 _ZNSt14_Function_base13_Base_managerIZN5Mixer11initTrackIOEPN5daisy9DaisySeedE7TrackIOS5_S5_S5_EUlfE_E14_M_get_pointerERKSt9_Any_data
/var/folders/wz/z09yph4n0qj4t7mjxhl6ttn80000gn/T//ccxdcdyF.s:6935   .text._ZSt10__invoke_rIvRZN5Mixer11initTrackIOEPN5daisy9DaisySeedE7TrackIOS4_S4_S4_EUlfE_JfEENSt9enable_ifIXsrSt6__and_IJSt7is_voidIT_ESt14__is_invocableIT0_JDpT1_EEEE5valueESA_E4typeEOSD_DpOSE_:0000000000000000 _ZSt10__invoke_rIvRZN5Mixer11initTrackIOEPN5daisy9DaisySeedE7TrackIOS4_S4_S4_EUlfE_JfEENSt9enable_ifIXsrSt6__and_IJSt7is_voidIT_ESt14__is_invocableIT0_JDpT1_EEEE5valueESA_E4typeEOSD_DpOSE_
/var/folders/wz/z09yph4n0qj4t7mjxhl6ttn80000gn/T//ccxdcdyF.s:4366   .text._ZNSt17_Function_handlerIFvfEZN5Mixer11initTrackIOEPN5daisy9DaisySeedE7TrackIOS5_S5_S5_EUlfE_E10_M_managerERSt9_Any_dataRKS8_St18_Manager_operation:0000000000000000 $t
/var/folders/wz/z09yph4n0qj4t7mjxhl6ttn80000gn/T//ccxdcdyF.s:6981   .text._ZNSt9_Any_data9_M_accessIPZN5Mixer11initTrackIOEPN5daisy9DaisySeedE7TrackIOS5_S5_S5_EUlfE_EERT_v:0000000000000000 _ZNSt9_Any_data9_M_accessIPZN5Mixer11initTrackIOEPN5daisy9DaisySeedE7TrackIOS5_S5_S5_EUlfE_EERT_v
/var/folders/wz/z09yph4n0qj4t7mjxhl6ttn80000gn/T//ccxdcdyF.s:7017   .text._ZNSt14_Function_base13_Base_managerIZN5Mixer11initTrackIOEPN5daisy9DaisySeedE7TrackIOS5_S5_S5_EUlfE_E10_M_managerERSt9_Any_dataRKS8_St18_Manager_operation:0000000000000000 _ZNSt14_Function_base13_Base_managerIZN5Mixer11initTrackIOEPN5daisy9DaisySeedE7TrackIOS5_S5_S5_EUlfE_E10_M_managerERSt9_Any_dataRKS8_St18_Manager_operation
/var/folders/wz/z09yph4n0qj4t7mjxhl6ttn80000gn/T//ccxdcdyF.s:4429   .text._ZNSt14_Function_base13_Base_managerIZN5Mixer11initTrackIOEPN5daisy9DaisySeedE7TrackIOS5_S5_S5_EUlfE0_E21_M_not_empty_functionIS6_EEbRKT_:0000000000000000 $t
/var/folders/wz/z09yph4n0qj4t7mjxhl6ttn80000gn/T//ccxdcdyF.s:4466   .text._ZSt4moveIRZN5Mixer11initTrackIOEPN5daisy9DaisySeedE7TrackIOS4_S4_S4_EUlfE0_EONSt16remove_referenceIT_E4typeEOS8_:0000000000000000 $t
/var/folders/wz/z09yph4n0qj4t7mjxhl6ttn80000gn/T//ccxdcdyF.s:4503   .text._ZNSt14_Function_base13_Base_managerIZN5Mixer11initTrackIOEPN5daisy9DaisySeedE7TrackIOS5_S5_S5_EUlfE0_E15_M_init_functorERSt9_Any_dataOS6_:0000000000000000 $t
/var/folders/wz/z09yph4n0qj4t7mjxhl6ttn80000gn/T//ccxdcdyF.s:7097   .text._ZNSt14_Function_base13_Base_managerIZN5Mixer11initTrackIOEPN5daisy9DaisySeedE7TrackIOS5_S5_S5_EUlfE0_E15_M_init_functorERSt9_Any_dataOS6_St17integral_constantIbLb1EE:0000000000000000 _ZNSt14_Function_base13_Base_managerIZN5Mixer11initTrackIOEPN5daisy9DaisySeedE7TrackIOS5_S5_S5_EUlfE0_E15_M_init_functorERSt9_Any_dataOS6_St17integral_constantIbLb1EE
/var/folders/wz/z09yph4n0qj4t7mjxhl6ttn80000gn/T//ccxdcdyF.s:4546   .text._ZNSt17_Function_handlerIFvfEZN5Mixer11initTrackIOEPN5daisy9DaisySeedE7TrackIOS5_S5_S5_EUlfE0_E9_M_invokeERKSt9_Any_dataOf:0000000000000000 $t
/var/folders/wz/z09yph4n0qj4t7mjxhl6ttn80000gn/T//ccxdcdyF.s:7147   .text._ZNSt14_Function_base13_Base_managerIZN5Mixer11initTrackIOEPN5daisy9DaisySeedE7TrackIOS5_S5_S5_EUlfE0_E14_M_get_pointerERKSt9_Any_data:0000000000000000 _ZNSt14_Function_base13_Base_managerIZN5Mixer11initTrackIOEPN5daisy9DaisySeedE7TrackIOS5_S5_S5_EUlfE0_E14_M_get_pointerERKSt9_Any_data
/var/folders/wz/z09yph4n0qj4t7mjxhl6ttn80000gn/T//ccxdcdyF.s:7193   .text._ZSt10__invoke_rIvRZN5Mixer11initTrackIOEPN5daisy9DaisySeedE7TrackIOS4_S4_S4_EUlfE0_JfEENSt9enable_ifIXsrSt6__and_IJSt7is_voidIT_ESt14__is_invocableIT0_JDpT1_EEEE5valueESA_E4typeEOSD_DpOSE_:0000000000000000 _ZSt10__invoke_rIvRZN5Mixer11initTrackIOEPN5daisy9DaisySeedE7TrackIOS4_S4_S4_EUlfE0_JfEENSt9enable_ifIXsrSt6__and_IJSt7is_voidIT_ESt14__is_invocableIT0_JDpT1_EEEE5valueESA_E4typeEOSD_DpOSE_
/var/folders/wz/z09yph4n0qj4t7mjxhl6ttn80000gn/T//ccxdcdyF.s:4592   .text._ZNSt17_Function_handlerIFvfEZN5Mixer11initTrackIOEPN5daisy9DaisySeedE7TrackIOS5_S5_S5_EUlfE0_E10_M_managerERSt9_Any_dataRKS8_St18_Manager_operation:0000000000000000 $t
/var/folders/wz/z09yph4n0qj4t7mjxhl6ttn80000gn/T//ccxdcdyF.s:7239   .text._ZNSt9_Any_data9_M_accessIPZN5Mixer11initTrackIOEPN5daisy9DaisySeedE7TrackIOS5_S5_S5_EUlfE0_EERT_v:0000000000000000 _ZNSt9_Any_data9_M_accessIPZN5Mixer11initTrackIOEPN5daisy9DaisySeedE7TrackIOS5_S5_S5_EUlfE0_EERT_v
/var/folders/wz/z09yph4n0qj4t7mjxhl6ttn80000gn/T//ccxdcdyF.s:7275   .text._ZNSt14_Function_base13_Base_managerIZN5Mixer11initTrackIOEPN5daisy9DaisySeedE7TrackIOS5_S5_S5_EUlfE0_E10_M_managerERSt9_Any_dataRKS8_St18_Manager_operation:0000000000000000 _ZNSt14_Function_base13_Base_managerIZN5Mixer11initTrackIOEPN5daisy9DaisySeedE7TrackIOS5_S5_S5_EUlfE0_E10_M_managerERSt9_Any_dataRKS8_St18_Manager_operation
/var/folders/wz/z09yph4n0qj4t7mjxhl6ttn80000gn/T//ccxdcdyF.s:4655   .text._ZNSt14_Function_base13_Base_managerIZN5Mixer11initTrackIOEPN5daisy9DaisySeedE7TrackIOS5_S5_S5_EUlfE1_E21_M_not_empty_functionIS6_EEbRKT_:0000000000000000 $t
/var/folders/wz/z09yph4n0qj4t7mjxhl6ttn80000gn/T//ccxdcdyF.s:4692   .text._ZSt4moveIRZN5Mixer11initTrackIOEPN5daisy9DaisySeedE7TrackIOS4_S4_S4_EUlfE1_EONSt16remove_referenceIT_E4typeEOS8_:0000000000000000 $t
/var/folders/wz/z09yph4n0qj4t7mjxhl6ttn80000gn/T//ccxdcdyF.s:4729   .text._ZNSt14_Function_base13_Base_managerIZN5Mixer11initTrackIOEPN5daisy9DaisySeedE7TrackIOS5_S5_S5_EUlfE1_E15_M_init_functorERSt9_Any_dataOS6_:0000000000000000 $t
/var/folders/wz/z09yph4n0qj4t7mjxhl6ttn80000gn/T//ccxdcdyF.s:7355   .text._ZNSt14_Function_base13_Base_managerIZN5Mixer11initTrackIOEPN5daisy9DaisySeedE7TrackIOS5_S5_S5_EUlfE1_E15_M_init_functorERSt9_Any_dataOS6_St17integral_constantIbLb1EE:0000000000000000 _ZNSt14_Function_base13_Base_managerIZN5Mixer11initTrackIOEPN5daisy9DaisySeedE7TrackIOS5_S5_S5_EUlfE1_E15_M_init_functorERSt9_Any_dataOS6_St17integral_constantIbLb1EE
/var/folders/wz/z09yph4n0qj4t7mjxhl6ttn80000gn/T//ccxdcdyF.s:4772   .text._ZNSt17_Function_handlerIFvfEZN5Mixer11initTrackIOEPN5daisy9DaisySeedE7TrackIOS5_S5_S5_EUlfE1_E9_M_invokeERKSt9_Any_dataOf:0000000000000000 $t
/var/folders/wz/z09yph4n0qj4t7mjxhl6ttn80000gn/T//ccxdcdyF.s:7405   .text._ZNSt14_Function_base13_Base_managerIZN5Mixer11initTrackIOEPN5daisy9DaisySeedE7TrackIOS5_S5_S5_EUlfE1_E14_M_get_pointerERKSt9_Any_data:0000000000000000 _ZNSt14_Function_base13_Base_managerIZN5Mixer11initTrackIOEPN5daisy9DaisySeedE7TrackIOS5_S5_S5_EUlfE1_E14_M_get_pointerERKSt9_Any_data
/var/folders/wz/z09yph4n0qj4t7mjxhl6ttn80000gn/T//ccxdcdyF.s:7451   .text._ZSt10__invoke_rIvRZN5Mixer11initTrackIOEPN5daisy9DaisySeedE7TrackIOS4_S4_S4_EUlfE1_JfEENSt9enable_ifIXsrSt6__and_IJSt7is_voidIT_ESt14__is_invocableIT0_JDpT1_EEEE5valueESA_E4typeEOSD_DpOSE_:0000000000000000 _ZSt10__invoke_rIvRZN5Mixer11initTrackIOEPN5daisy9DaisySeedE7TrackIOS4_S4_S4_EUlfE1_JfEENSt9enable_ifIXsrSt6__and_IJSt7is_voidIT_ESt14__is_invocableIT0_JDpT1_EEEE5valueESA_E4typeEOSD_DpOSE_
/var/folders/wz/z09yph4n0qj4t7mjxhl6ttn80000gn/T//ccxdcdyF.s:4818   .text._ZNSt17_Function_handlerIFvfEZN5Mixer11initTrackIOEPN5daisy9DaisySeedE7TrackIOS5_S5_S5_EUlfE1_E10_M_managerERSt9_Any_dataRKS8_St18_Manager_operation:0000000000000000 $t
/var/folders/wz/z09yph4n0qj4t7mjxhl6ttn80000gn/T//ccxdcdyF.s:7497   .text._ZNSt9_Any_data9_M_accessIPZN5Mixer11initTrackIOEPN5daisy9DaisySeedE7TrackIOS5_S5_S5_EUlfE1_EERT_v:0000000000000000 _ZNSt9_Any_data9_M_accessIPZN5Mixer11initTrackIOEPN5daisy9DaisySeedE7TrackIOS5_S5_S5_EUlfE1_EERT_v
/var/folders/wz/z09yph4n0qj4t7mjxhl6ttn80000gn/T//ccxdcdyF.s:7533   .text._ZNSt14_Function_base13_Base_managerIZN5Mixer11initTrackIOEPN5daisy9DaisySeedE7TrackIOS5_S5_S5_EUlfE1_E10_M_managerERSt9_Any_dataRKS8_St18_Manager_operation:0000000000000000 _ZNSt14_Function_base13_Base_managerIZN5Mixer11initTrackIOEPN5daisy9DaisySeedE7TrackIOS5_S5_S5_EUlfE1_E10_M_managerERSt9_Any_dataRKS8_St18_Manager_operation
/var/folders/wz/z09yph4n0qj4t7mjxhl6ttn80000gn/T//ccxdcdyF.s:4881   .text._ZNSt14_Function_base13_Base_managerIZN5Mixer11initTrackIOEPN5daisy9DaisySeedE7TrackIOS5_S5_S5_EUlfE2_E21_M_not_empty_functionIS6_EEbRKT_:0000000000000000 $t
/var/folders/wz/z09yph4n0qj4t7mjxhl6ttn80000gn/T//ccxdcdyF.s:4918   .text._ZSt4moveIRZN5Mixer11initTrackIOEPN5daisy9DaisySeedE7TrackIOS4_S4_S4_EUlfE2_EONSt16remove_referenceIT_E4typeEOS8_:0000000000000000 $t
ARM GAS  /var/folders/wz/z09yph4n0qj4t7mjxhl6ttn80000gn/T//ccxdcdyF.s 			page 246


/var/folders/wz/z09yph4n0qj4t7mjxhl6ttn80000gn/T//ccxdcdyF.s:4955   .text._ZNSt14_Function_base13_Base_managerIZN5Mixer11initTrackIOEPN5daisy9DaisySeedE7TrackIOS5_S5_S5_EUlfE2_E15_M_init_functorERSt9_Any_dataOS6_:0000000000000000 $t
/var/folders/wz/z09yph4n0qj4t7mjxhl6ttn80000gn/T//ccxdcdyF.s:7613   .text._ZNSt14_Function_base13_Base_managerIZN5Mixer11initTrackIOEPN5daisy9DaisySeedE7TrackIOS5_S5_S5_EUlfE2_E15_M_init_functorERSt9_Any_dataOS6_St17integral_constantIbLb1EE:0000000000000000 _ZNSt14_Function_base13_Base_managerIZN5Mixer11initTrackIOEPN5daisy9DaisySeedE7TrackIOS5_S5_S5_EUlfE2_E15_M_init_functorERSt9_Any_dataOS6_St17integral_constantIbLb1EE
/var/folders/wz/z09yph4n0qj4t7mjxhl6ttn80000gn/T//ccxdcdyF.s:4998   .text._ZNSt17_Function_handlerIFvfEZN5Mixer11initTrackIOEPN5daisy9DaisySeedE7TrackIOS5_S5_S5_EUlfE2_E9_M_invokeERKSt9_Any_dataOf:0000000000000000 $t
/var/folders/wz/z09yph4n0qj4t7mjxhl6ttn80000gn/T//ccxdcdyF.s:7663   .text._ZNSt14_Function_base13_Base_managerIZN5Mixer11initTrackIOEPN5daisy9DaisySeedE7TrackIOS5_S5_S5_EUlfE2_E14_M_get_pointerERKSt9_Any_data:0000000000000000 _ZNSt14_Function_base13_Base_managerIZN5Mixer11initTrackIOEPN5daisy9DaisySeedE7TrackIOS5_S5_S5_EUlfE2_E14_M_get_pointerERKSt9_Any_data
/var/folders/wz/z09yph4n0qj4t7mjxhl6ttn80000gn/T//ccxdcdyF.s:7709   .text._ZSt10__invoke_rIvRZN5Mixer11initTrackIOEPN5daisy9DaisySeedE7TrackIOS4_S4_S4_EUlfE2_JfEENSt9enable_ifIXsrSt6__and_IJSt7is_voidIT_ESt14__is_invocableIT0_JDpT1_EEEE5valueESA_E4typeEOSD_DpOSE_:0000000000000000 _ZSt10__invoke_rIvRZN5Mixer11initTrackIOEPN5daisy9DaisySeedE7TrackIOS4_S4_S4_EUlfE2_JfEENSt9enable_ifIXsrSt6__and_IJSt7is_voidIT_ESt14__is_invocableIT0_JDpT1_EEEE5valueESA_E4typeEOSD_DpOSE_
/var/folders/wz/z09yph4n0qj4t7mjxhl6ttn80000gn/T//ccxdcdyF.s:5044   .text._ZNSt17_Function_handlerIFvfEZN5Mixer11initTrackIOEPN5daisy9DaisySeedE7TrackIOS5_S5_S5_EUlfE2_E10_M_managerERSt9_Any_dataRKS8_St18_Manager_operation:0000000000000000 $t
/var/folders/wz/z09yph4n0qj4t7mjxhl6ttn80000gn/T//ccxdcdyF.s:7755   .text._ZNSt9_Any_data9_M_accessIPZN5Mixer11initTrackIOEPN5daisy9DaisySeedE7TrackIOS5_S5_S5_EUlfE2_EERT_v:0000000000000000 _ZNSt9_Any_data9_M_accessIPZN5Mixer11initTrackIOEPN5daisy9DaisySeedE7TrackIOS5_S5_S5_EUlfE2_EERT_v
/var/folders/wz/z09yph4n0qj4t7mjxhl6ttn80000gn/T//ccxdcdyF.s:7791   .text._ZNSt14_Function_base13_Base_managerIZN5Mixer11initTrackIOEPN5daisy9DaisySeedE7TrackIOS5_S5_S5_EUlfE2_E10_M_managerERSt9_Any_dataRKS8_St18_Manager_operation:0000000000000000 _ZNSt14_Function_base13_Base_managerIZN5Mixer11initTrackIOEPN5daisy9DaisySeedE7TrackIOS5_S5_S5_EUlfE2_E10_M_managerERSt9_Any_dataRKS8_St18_Manager_operation
/var/folders/wz/z09yph4n0qj4t7mjxhl6ttn80000gn/T//ccxdcdyF.s:5107   .text._ZNSt14_Function_base13_Base_managerIZN5Mixer11initTrackIOEPN5daisy9DaisySeedE7TrackIOS5_S5_S5_EUlfE3_E21_M_not_empty_functionIS6_EEbRKT_:0000000000000000 $t
/var/folders/wz/z09yph4n0qj4t7mjxhl6ttn80000gn/T//ccxdcdyF.s:5144   .text._ZSt4moveIRZN5Mixer11initTrackIOEPN5daisy9DaisySeedE7TrackIOS4_S4_S4_EUlfE3_EONSt16remove_referenceIT_E4typeEOS8_:0000000000000000 $t
/var/folders/wz/z09yph4n0qj4t7mjxhl6ttn80000gn/T//ccxdcdyF.s:5181   .text._ZNSt14_Function_base13_Base_managerIZN5Mixer11initTrackIOEPN5daisy9DaisySeedE7TrackIOS5_S5_S5_EUlfE3_E15_M_init_functorERSt9_Any_dataOS6_:0000000000000000 $t
/var/folders/wz/z09yph4n0qj4t7mjxhl6ttn80000gn/T//ccxdcdyF.s:7871   .text._ZNSt14_Function_base13_Base_managerIZN5Mixer11initTrackIOEPN5daisy9DaisySeedE7TrackIOS5_S5_S5_EUlfE3_E15_M_init_functorERSt9_Any_dataOS6_St17integral_constantIbLb1EE:0000000000000000 _ZNSt14_Function_base13_Base_managerIZN5Mixer11initTrackIOEPN5daisy9DaisySeedE7TrackIOS5_S5_S5_EUlfE3_E15_M_init_functorERSt9_Any_dataOS6_St17integral_constantIbLb1EE
/var/folders/wz/z09yph4n0qj4t7mjxhl6ttn80000gn/T//ccxdcdyF.s:5224   .text._ZNSt17_Function_handlerIFvfEZN5Mixer11initTrackIOEPN5daisy9DaisySeedE7TrackIOS5_S5_S5_EUlfE3_E9_M_invokeERKSt9_Any_dataOf:0000000000000000 $t
/var/folders/wz/z09yph4n0qj4t7mjxhl6ttn80000gn/T//ccxdcdyF.s:7921   .text._ZNSt14_Function_base13_Base_managerIZN5Mixer11initTrackIOEPN5daisy9DaisySeedE7TrackIOS5_S5_S5_EUlfE3_E14_M_get_pointerERKSt9_Any_data:0000000000000000 _ZNSt14_Function_base13_Base_managerIZN5Mixer11initTrackIOEPN5daisy9DaisySeedE7TrackIOS5_S5_S5_EUlfE3_E14_M_get_pointerERKSt9_Any_data
/var/folders/wz/z09yph4n0qj4t7mjxhl6ttn80000gn/T//ccxdcdyF.s:7967   .text._ZSt10__invoke_rIvRZN5Mixer11initTrackIOEPN5daisy9DaisySeedE7TrackIOS4_S4_S4_EUlfE3_JfEENSt9enable_ifIXsrSt6__and_IJSt7is_voidIT_ESt14__is_invocableIT0_JDpT1_EEEE5valueESA_E4typeEOSD_DpOSE_:0000000000000000 _ZSt10__invoke_rIvRZN5Mixer11initTrackIOEPN5daisy9DaisySeedE7TrackIOS4_S4_S4_EUlfE3_JfEENSt9enable_ifIXsrSt6__and_IJSt7is_voidIT_ESt14__is_invocableIT0_JDpT1_EEEE5valueESA_E4typeEOSD_DpOSE_
/var/folders/wz/z09yph4n0qj4t7mjxhl6ttn80000gn/T//ccxdcdyF.s:5270   .text._ZNSt17_Function_handlerIFvfEZN5Mixer11initTrackIOEPN5daisy9DaisySeedE7TrackIOS5_S5_S5_EUlfE3_E10_M_managerERSt9_Any_dataRKS8_St18_Manager_operation:0000000000000000 $t
/var/folders/wz/z09yph4n0qj4t7mjxhl6ttn80000gn/T//ccxdcdyF.s:8013   .text._ZNSt9_Any_data9_M_accessIPZN5Mixer11initTrackIOEPN5daisy9DaisySeedE7TrackIOS5_S5_S5_EUlfE3_EERT_v:0000000000000000 _ZNSt9_Any_data9_M_accessIPZN5Mixer11initTrackIOEPN5daisy9DaisySeedE7TrackIOS5_S5_S5_EUlfE3_EERT_v
/var/folders/wz/z09yph4n0qj4t7mjxhl6ttn80000gn/T//ccxdcdyF.s:8049   .text._ZNSt14_Function_base13_Base_managerIZN5Mixer11initTrackIOEPN5daisy9DaisySeedE7TrackIOS5_S5_S5_EUlfE3_E10_M_managerERSt9_Any_dataRKS8_St18_Manager_operation:0000000000000000 _ZNSt14_Function_base13_Base_managerIZN5Mixer11initTrackIOEPN5daisy9DaisySeedE7TrackIOS5_S5_S5_EUlfE3_E10_M_managerERSt9_Any_dataRKS8_St18_Manager_operation
/var/folders/wz/z09yph4n0qj4t7mjxhl6ttn80000gn/T//ccxdcdyF.s:5333   .text._ZNSt14_Function_base13_Base_managerIZN5Mixer11initTrackIOEPN5daisy9DaisySeedE7TrackIOS5_S5_S5_EUlfE4_E21_M_not_empty_functionIS6_EEbRKT_:0000000000000000 $t
/var/folders/wz/z09yph4n0qj4t7mjxhl6ttn80000gn/T//ccxdcdyF.s:5370   .text._ZSt4moveIRZN5Mixer11initTrackIOEPN5daisy9DaisySeedE7TrackIOS4_S4_S4_EUlfE4_EONSt16remove_referenceIT_E4typeEOS8_:0000000000000000 $t
/var/folders/wz/z09yph4n0qj4t7mjxhl6ttn80000gn/T//ccxdcdyF.s:5407   .text._ZNSt14_Function_base13_Base_managerIZN5Mixer11initTrackIOEPN5daisy9DaisySeedE7TrackIOS5_S5_S5_EUlfE4_E15_M_init_functorERSt9_Any_dataOS6_:0000000000000000 $t
/var/folders/wz/z09yph4n0qj4t7mjxhl6ttn80000gn/T//ccxdcdyF.s:8129   .text._ZNSt14_Function_base13_Base_managerIZN5Mixer11initTrackIOEPN5daisy9DaisySeedE7TrackIOS5_S5_S5_EUlfE4_E15_M_init_functorERSt9_Any_dataOS6_St17integral_constantIbLb1EE:0000000000000000 _ZNSt14_Function_base13_Base_managerIZN5Mixer11initTrackIOEPN5daisy9DaisySeedE7TrackIOS5_S5_S5_EUlfE4_E15_M_init_functorERSt9_Any_dataOS6_St17integral_constantIbLb1EE
/var/folders/wz/z09yph4n0qj4t7mjxhl6ttn80000gn/T//ccxdcdyF.s:5450   .text._ZNSt17_Function_handlerIFvfEZN5Mixer11initTrackIOEPN5daisy9DaisySeedE7TrackIOS5_S5_S5_EUlfE4_E9_M_invokeERKSt9_Any_dataOf:0000000000000000 $t
/var/folders/wz/z09yph4n0qj4t7mjxhl6ttn80000gn/T//ccxdcdyF.s:8179   .text._ZNSt14_Function_base13_Base_managerIZN5Mixer11initTrackIOEPN5daisy9DaisySeedE7TrackIOS5_S5_S5_EUlfE4_E14_M_get_pointerERKSt9_Any_data:0000000000000000 _ZNSt14_Function_base13_Base_managerIZN5Mixer11initTrackIOEPN5daisy9DaisySeedE7TrackIOS5_S5_S5_EUlfE4_E14_M_get_pointerERKSt9_Any_data
/var/folders/wz/z09yph4n0qj4t7mjxhl6ttn80000gn/T//ccxdcdyF.s:8225   .text._ZSt10__invoke_rIvRZN5Mixer11initTrackIOEPN5daisy9DaisySeedE7TrackIOS4_S4_S4_EUlfE4_JfEENSt9enable_ifIXsrSt6__and_IJSt7is_voidIT_ESt14__is_invocableIT0_JDpT1_EEEE5valueESA_E4typeEOSD_DpOSE_:0000000000000000 _ZSt10__invoke_rIvRZN5Mixer11initTrackIOEPN5daisy9DaisySeedE7TrackIOS4_S4_S4_EUlfE4_JfEENSt9enable_ifIXsrSt6__and_IJSt7is_voidIT_ESt14__is_invocableIT0_JDpT1_EEEE5valueESA_E4typeEOSD_DpOSE_
/var/folders/wz/z09yph4n0qj4t7mjxhl6ttn80000gn/T//ccxdcdyF.s:5496   .text._ZNSt17_Function_handlerIFvfEZN5Mixer11initTrackIOEPN5daisy9DaisySeedE7TrackIOS5_S5_S5_EUlfE4_E10_M_managerERSt9_Any_dataRKS8_St18_Manager_operation:0000000000000000 $t
/var/folders/wz/z09yph4n0qj4t7mjxhl6ttn80000gn/T//ccxdcdyF.s:8271   .text._ZNSt9_Any_data9_M_accessIPZN5Mixer11initTrackIOEPN5daisy9DaisySeedE7TrackIOS5_S5_S5_EUlfE4_EERT_v:0000000000000000 _ZNSt9_Any_data9_M_accessIPZN5Mixer11initTrackIOEPN5daisy9DaisySeedE7TrackIOS5_S5_S5_EUlfE4_EERT_v
/var/folders/wz/z09yph4n0qj4t7mjxhl6ttn80000gn/T//ccxdcdyF.s:8307   .text._ZNSt14_Function_base13_Base_managerIZN5Mixer11initTrackIOEPN5daisy9DaisySeedE7TrackIOS5_S5_S5_EUlfE4_E10_M_managerERSt9_Any_dataRKS8_St18_Manager_operation:0000000000000000 _ZNSt14_Function_base13_Base_managerIZN5Mixer11initTrackIOEPN5daisy9DaisySeedE7TrackIOS5_S5_S5_EUlfE4_E10_M_managerERSt9_Any_dataRKS8_St18_Manager_operation
/var/folders/wz/z09yph4n0qj4t7mjxhl6ttn80000gn/T//ccxdcdyF.s:5559   .text._ZNSt14_Function_base13_Base_managerIZN5Mixer11initTrackIOEPN5daisy9DaisySeedE7TrackIOS5_S5_S5_EUlfE5_E21_M_not_empty_functionIS6_EEbRKT_:0000000000000000 $t
/var/folders/wz/z09yph4n0qj4t7mjxhl6ttn80000gn/T//ccxdcdyF.s:5596   .text._ZSt4moveIRZN5Mixer11initTrackIOEPN5daisy9DaisySeedE7TrackIOS4_S4_S4_EUlfE5_EONSt16remove_referenceIT_E4typeEOS8_:0000000000000000 $t
/var/folders/wz/z09yph4n0qj4t7mjxhl6ttn80000gn/T//ccxdcdyF.s:5633   .text._ZNSt14_Function_base13_Base_managerIZN5Mixer11initTrackIOEPN5daisy9DaisySeedE7TrackIOS5_S5_S5_EUlfE5_E15_M_init_functorERSt9_Any_dataOS6_:0000000000000000 $t
/var/folders/wz/z09yph4n0qj4t7mjxhl6ttn80000gn/T//ccxdcdyF.s:8387   .text._ZNSt14_Function_base13_Base_managerIZN5Mixer11initTrackIOEPN5daisy9DaisySeedE7TrackIOS5_S5_S5_EUlfE5_E15_M_init_functorERSt9_Any_dataOS6_St17integral_constantIbLb1EE:0000000000000000 _ZNSt14_Function_base13_Base_managerIZN5Mixer11initTrackIOEPN5daisy9DaisySeedE7TrackIOS5_S5_S5_EUlfE5_E15_M_init_functorERSt9_Any_dataOS6_St17integral_constantIbLb1EE
/var/folders/wz/z09yph4n0qj4t7mjxhl6ttn80000gn/T//ccxdcdyF.s:5676   .text._ZNSt17_Function_handlerIFvfEZN5Mixer11initTrackIOEPN5daisy9DaisySeedE7TrackIOS5_S5_S5_EUlfE5_E9_M_invokeERKSt9_Any_dataOf:0000000000000000 $t
/var/folders/wz/z09yph4n0qj4t7mjxhl6ttn80000gn/T//ccxdcdyF.s:8437   .text._ZNSt14_Function_base13_Base_managerIZN5Mixer11initTrackIOEPN5daisy9DaisySeedE7TrackIOS5_S5_S5_EUlfE5_E14_M_get_pointerERKSt9_Any_data:0000000000000000 _ZNSt14_Function_base13_Base_managerIZN5Mixer11initTrackIOEPN5daisy9DaisySeedE7TrackIOS5_S5_S5_EUlfE5_E14_M_get_pointerERKSt9_Any_data
/var/folders/wz/z09yph4n0qj4t7mjxhl6ttn80000gn/T//ccxdcdyF.s:8483   .text._ZSt10__invoke_rIvRZN5Mixer11initTrackIOEPN5daisy9DaisySeedE7TrackIOS4_S4_S4_EUlfE5_JfEENSt9enable_ifIXsrSt6__and_IJSt7is_voidIT_ESt14__is_invocableIT0_JDpT1_EEEE5valueESA_E4typeEOSD_DpOSE_:0000000000000000 _ZSt10__invoke_rIvRZN5Mixer11initTrackIOEPN5daisy9DaisySeedE7TrackIOS4_S4_S4_EUlfE5_JfEENSt9enable_ifIXsrSt6__and_IJSt7is_voidIT_ESt14__is_invocableIT0_JDpT1_EEEE5valueESA_E4typeEOSD_DpOSE_
/var/folders/wz/z09yph4n0qj4t7mjxhl6ttn80000gn/T//ccxdcdyF.s:5722   .text._ZNSt17_Function_handlerIFvfEZN5Mixer11initTrackIOEPN5daisy9DaisySeedE7TrackIOS5_S5_S5_EUlfE5_E10_M_managerERSt9_Any_dataRKS8_St18_Manager_operation:0000000000000000 $t
/var/folders/wz/z09yph4n0qj4t7mjxhl6ttn80000gn/T//ccxdcdyF.s:8529   .text._ZNSt9_Any_data9_M_accessIPZN5Mixer11initTrackIOEPN5daisy9DaisySeedE7TrackIOS5_S5_S5_EUlfE5_EERT_v:0000000000000000 _ZNSt9_Any_data9_M_accessIPZN5Mixer11initTrackIOEPN5daisy9DaisySeedE7TrackIOS5_S5_S5_EUlfE5_EERT_v
/var/folders/wz/z09yph4n0qj4t7mjxhl6ttn80000gn/T//ccxdcdyF.s:8565   .text._ZNSt14_Function_base13_Base_managerIZN5Mixer11initTrackIOEPN5daisy9DaisySeedE7TrackIOS5_S5_S5_EUlfE5_E10_M_managerERSt9_Any_dataRKS8_St18_Manager_operation:0000000000000000 _ZNSt14_Function_base13_Base_managerIZN5Mixer11initTrackIOEPN5daisy9DaisySeedE7TrackIOS5_S5_S5_EUlfE5_E10_M_managerERSt9_Any_dataRKS8_St18_Manager_operation
/var/folders/wz/z09yph4n0qj4t7mjxhl6ttn80000gn/T//ccxdcdyF.s:5785   .text._ZNSt14_Function_base13_Base_managerIZN5Mixer11initTrackIOEPN5daisy9DaisySeedE7TrackIOS5_S5_S5_EUlfE6_E21_M_not_empty_functionIS6_EEbRKT_:0000000000000000 $t
/var/folders/wz/z09yph4n0qj4t7mjxhl6ttn80000gn/T//ccxdcdyF.s:5822   .text._ZSt4moveIRZN5Mixer11initTrackIOEPN5daisy9DaisySeedE7TrackIOS4_S4_S4_EUlfE6_EONSt16remove_referenceIT_E4typeEOS8_:0000000000000000 $t
/var/folders/wz/z09yph4n0qj4t7mjxhl6ttn80000gn/T//ccxdcdyF.s:5859   .text._ZNSt14_Function_base13_Base_managerIZN5Mixer11initTrackIOEPN5daisy9DaisySeedE7TrackIOS5_S5_S5_EUlfE6_E15_M_init_functorERSt9_Any_dataOS6_:0000000000000000 $t
/var/folders/wz/z09yph4n0qj4t7mjxhl6ttn80000gn/T//ccxdcdyF.s:8645   .text._ZNSt14_Function_base13_Base_managerIZN5Mixer11initTrackIOEPN5daisy9DaisySeedE7TrackIOS5_S5_S5_EUlfE6_E15_M_init_functorERSt9_Any_dataOS6_St17integral_constantIbLb1EE:0000000000000000 _ZNSt14_Function_base13_Base_managerIZN5Mixer11initTrackIOEPN5daisy9DaisySeedE7TrackIOS5_S5_S5_EUlfE6_E15_M_init_functorERSt9_Any_dataOS6_St17integral_constantIbLb1EE
/var/folders/wz/z09yph4n0qj4t7mjxhl6ttn80000gn/T//ccxdcdyF.s:5902   .text._ZNSt17_Function_handlerIFvfEZN5Mixer11initTrackIOEPN5daisy9DaisySeedE7TrackIOS5_S5_S5_EUlfE6_E9_M_invokeERKSt9_Any_dataOf:0000000000000000 $t
/var/folders/wz/z09yph4n0qj4t7mjxhl6ttn80000gn/T//ccxdcdyF.s:8695   .text._ZNSt14_Function_base13_Base_managerIZN5Mixer11initTrackIOEPN5daisy9DaisySeedE7TrackIOS5_S5_S5_EUlfE6_E14_M_get_pointerERKSt9_Any_data:0000000000000000 _ZNSt14_Function_base13_Base_managerIZN5Mixer11initTrackIOEPN5daisy9DaisySeedE7TrackIOS5_S5_S5_EUlfE6_E14_M_get_pointerERKSt9_Any_data
/var/folders/wz/z09yph4n0qj4t7mjxhl6ttn80000gn/T//ccxdcdyF.s:8741   .text._ZSt10__invoke_rIvRZN5Mixer11initTrackIOEPN5daisy9DaisySeedE7TrackIOS4_S4_S4_EUlfE6_JfEENSt9enable_ifIXsrSt6__and_IJSt7is_voidIT_ESt14__is_invocableIT0_JDpT1_EEEE5valueESA_E4typeEOSD_DpOSE_:0000000000000000 _ZSt10__invoke_rIvRZN5Mixer11initTrackIOEPN5daisy9DaisySeedE7TrackIOS4_S4_S4_EUlfE6_JfEENSt9enable_ifIXsrSt6__and_IJSt7is_voidIT_ESt14__is_invocableIT0_JDpT1_EEEE5valueESA_E4typeEOSD_DpOSE_
/var/folders/wz/z09yph4n0qj4t7mjxhl6ttn80000gn/T//ccxdcdyF.s:5948   .text._ZNSt17_Function_handlerIFvfEZN5Mixer11initTrackIOEPN5daisy9DaisySeedE7TrackIOS5_S5_S5_EUlfE6_E10_M_managerERSt9_Any_dataRKS8_St18_Manager_operation:0000000000000000 $t
/var/folders/wz/z09yph4n0qj4t7mjxhl6ttn80000gn/T//ccxdcdyF.s:8787   .text._ZNSt9_Any_data9_M_accessIPZN5Mixer11initTrackIOEPN5daisy9DaisySeedE7TrackIOS5_S5_S5_EUlfE6_EERT_v:0000000000000000 _ZNSt9_Any_data9_M_accessIPZN5Mixer11initTrackIOEPN5daisy9DaisySeedE7TrackIOS5_S5_S5_EUlfE6_EERT_v
/var/folders/wz/z09yph4n0qj4t7mjxhl6ttn80000gn/T//ccxdcdyF.s:8823   .text._ZNSt14_Function_base13_Base_managerIZN5Mixer11initTrackIOEPN5daisy9DaisySeedE7TrackIOS5_S5_S5_EUlfE6_E10_M_managerERSt9_Any_dataRKS8_St18_Manager_operation:0000000000000000 _ZNSt14_Function_base13_Base_managerIZN5Mixer11initTrackIOEPN5daisy9DaisySeedE7TrackIOS5_S5_S5_EUlfE6_E10_M_managerERSt9_Any_dataRKS8_St18_Manager_operation
/var/folders/wz/z09yph4n0qj4t7mjxhl6ttn80000gn/T//ccxdcdyF.s:6011   .text._ZN14AudioParameterIfE12processCurveEv:0000000000000000 $t
/var/folders/wz/z09yph4n0qj4t7mjxhl6ttn80000gn/T//ccxdcdyF.s:6112   .text._ZNKSt8functionIFvfEEclEf:0000000000000000 $t
/var/folders/wz/z09yph4n0qj4t7mjxhl6ttn80000gn/T//ccxdcdyF.s:6174   .text._ZSt4moveIRSt9_Any_dataEONSt16remove_referenceIT_E4typeEOS3_:0000000000000000 $t
/var/folders/wz/z09yph4n0qj4t7mjxhl6ttn80000gn/T//ccxdcdyF.s:6180   .text._ZSt4moveIRSt9_Any_dataEONSt16remove_referenceIT_E4typeEOS3_:0000000000000000 _ZSt4moveIRSt9_Any_dataEONSt16remove_referenceIT_E4typeEOS3_
/var/folders/wz/z09yph4n0qj4t7mjxhl6ttn80000gn/T//ccxdcdyF.s:6212   .text._ZSt4swapISt9_Any_dataENSt9enable_ifIXsrSt6__and_IJSt6__not_ISt15__is_tuple_likeIT_EESt21is_move_constructibleIS5_ESt18is_move_assignableIS5_EEE5valueEvE4typeERS5_SF_:0000000000000000 $t
/var/folders/wz/z09yph4n0qj4t7mjxhl6ttn80000gn/T//ccxdcdyF.s:6271   .text._ZSt4moveIRPFbRSt9_Any_dataRKS0_St18_Manager_operationEEONSt16remove_referenceIT_E4typeEOS9_:0000000000000000 $t
/var/folders/wz/z09yph4n0qj4t7mjxhl6ttn80000gn/T//ccxdcdyF.s:6277   .text._ZSt4moveIRPFbRSt9_Any_dataRKS0_St18_Manager_operationEEONSt16remove_referenceIT_E4typeEOS9_:0000000000000000 _ZSt4moveIRPFbRSt9_Any_dataRKS0_St18_Manager_operationEEONSt16remove_referenceIT_E4typeEOS9_
/var/folders/wz/z09yph4n0qj4t7mjxhl6ttn80000gn/T//ccxdcdyF.s:6309   .text._ZSt4swapIPFbRSt9_Any_dataRKS0_St18_Manager_operationEENSt9enable_ifIXsrSt6__and_IJSt6__not_ISt15__is_tuple_likeIT_EESt21is_move_constructibleISB_ESt18is_move_assignableISB_EEE5valueEvE4typeERSB_SL_:0000000000000000 $t
/var/folders/wz/z09yph4n0qj4t7mjxhl6ttn80000gn/T//ccxdcdyF.s:6367   .text._ZNSt14_Function_base13_Base_managerIZN5Mixer4initEPN5daisy9DaisySeedEPPfS6_S6_S6_S6_PPN7daisysp9DelayLineIfLj240000EEEEUlfE_E15_M_init_functorERSt9_Any_dataOSC_St17integral_constantIbLb1EE:0000000000000000 $t
ARM GAS  /var/folders/wz/z09yph4n0qj4t7mjxhl6ttn80000gn/T//ccxdcdyF.s 			page 247


/var/folders/wz/z09yph4n0qj4t7mjxhl6ttn80000gn/T//ccxdcdyF.s:6417   .text._ZNSt14_Function_base13_Base_managerIZN5Mixer4initEPN5daisy9DaisySeedEPPfS6_S6_S6_S6_PPN7daisysp9DelayLineIfLj240000EEEEUlfE_E14_M_get_pointerERKSt9_Any_data:0000000000000000 $t
/var/folders/wz/z09yph4n0qj4t7mjxhl6ttn80000gn/T//ccxdcdyF.s:8903   .text._ZNKSt9_Any_data9_M_accessIZN5Mixer4initEPN5daisy9DaisySeedEPPfS6_S6_S6_S6_PPN7daisysp9DelayLineIfLj240000EEEEUlfE_EERKT_v:0000000000000000 _ZNKSt9_Any_data9_M_accessIZN5Mixer4initEPN5daisy9DaisySeedEPPfS6_S6_S6_S6_PPN7daisysp9DelayLineIfLj240000EEEEUlfE_EERKT_v
/var/folders/wz/z09yph4n0qj4t7mjxhl6ttn80000gn/T//ccxdcdyF.s:8939   .text._ZSt11__addressofIKZN5Mixer4initEPN5daisy9DaisySeedEPPfS5_S5_S5_S5_PPN7daisysp9DelayLineIfLj240000EEEEUlfE_EPT_RSD_:0000000000000000 _ZSt11__addressofIKZN5Mixer4initEPN5daisy9DaisySeedEPPfS5_S5_S5_S5_PPN7daisysp9DelayLineIfLj240000EEEEUlfE_EPT_RSD_
/var/folders/wz/z09yph4n0qj4t7mjxhl6ttn80000gn/T//ccxdcdyF.s:6463   .text._ZSt7forwardIfEOT_RNSt16remove_referenceIS0_E4typeE:0000000000000000 $t
/var/folders/wz/z09yph4n0qj4t7mjxhl6ttn80000gn/T//ccxdcdyF.s:6501   .text._ZSt10__invoke_rIvRZN5Mixer4initEPN5daisy9DaisySeedEPPfS5_S5_S5_S5_PPN7daisysp9DelayLineIfLj240000EEEEUlfE_JfEENSt9enable_ifIXsrSt6__and_IJSt7is_voidIT_ESt14__is_invocableIT0_JDpT1_EEEE5valueESG_E4typeEOSJ_DpOSK_:0000000000000000 $t
/var/folders/wz/z09yph4n0qj4t7mjxhl6ttn80000gn/T//ccxdcdyF.s:8976   .text._ZSt7forwardIRZN5Mixer4initEPN5daisy9DaisySeedEPPfS5_S5_S5_S5_PPN7daisysp9DelayLineIfLj240000EEEEUlfE_EOT_RNSt16remove_referenceISD_E4typeE:0000000000000000 _ZSt7forwardIRZN5Mixer4initEPN5daisy9DaisySeedEPPfS5_S5_S5_S5_PPN7daisysp9DelayLineIfLj240000EEEEUlfE_EOT_RNSt16remove_referenceISD_E4typeE
/var/folders/wz/z09yph4n0qj4t7mjxhl6ttn80000gn/T//ccxdcdyF.s:9013   .text._ZSt13__invoke_implIvRZN5Mixer4initEPN5daisy9DaisySeedEPPfS5_S5_S5_S5_PPN7daisysp9DelayLineIfLj240000EEEEUlfE_JfEET_St14__invoke_otherOT0_DpOT1_:0000000000000000 _ZSt13__invoke_implIvRZN5Mixer4initEPN5daisy9DaisySeedEPPfS5_S5_S5_S5_PPN7daisysp9DelayLineIfLj240000EEEEUlfE_JfEET_St14__invoke_otherOT0_DpOT1_
/var/folders/wz/z09yph4n0qj4t7mjxhl6ttn80000gn/T//ccxdcdyF.s:6548   .text._ZNSt9_Any_data9_M_accessIPZN5Mixer4initEPN5daisy9DaisySeedEPPfS6_S6_S6_S6_PPN7daisysp9DelayLineIfLj240000EEEEUlfE_EERT_v:0000000000000000 $t
/var/folders/wz/z09yph4n0qj4t7mjxhl6ttn80000gn/T//ccxdcdyF.s:6584   .text._ZNSt14_Function_base13_Base_managerIZN5Mixer4initEPN5daisy9DaisySeedEPPfS6_S6_S6_S6_PPN7daisysp9DelayLineIfLj240000EEEEUlfE_E10_M_managerERSt9_Any_dataRKSE_St18_Manager_operation:0000000000000000 $t
/var/folders/wz/z09yph4n0qj4t7mjxhl6ttn80000gn/T//ccxdcdyF.s:9062   .text._ZNSt14_Function_base13_Base_managerIZN5Mixer4initEPN5daisy9DaisySeedEPPfS6_S6_S6_S6_PPN7daisysp9DelayLineIfLj240000EEEEUlfE_E8_M_cloneERSt9_Any_dataRKSE_St17integral_constantIbLb1EE:0000000000000000 _ZNSt14_Function_base13_Base_managerIZN5Mixer4initEPN5daisy9DaisySeedEPPfS6_S6_S6_S6_PPN7daisysp9DelayLineIfLj240000EEEEUlfE_E8_M_cloneERSt9_Any_dataRKSE_St17integral_constantIbLb1EE
/var/folders/wz/z09yph4n0qj4t7mjxhl6ttn80000gn/T//ccxdcdyF.s:9112   .text._ZNSt14_Function_base13_Base_managerIZN5Mixer4initEPN5daisy9DaisySeedEPPfS6_S6_S6_S6_PPN7daisysp9DelayLineIfLj240000EEEEUlfE_E10_M_destroyERSt9_Any_dataSt17integral_constantIbLb1EE:0000000000000000 _ZNSt14_Function_base13_Base_managerIZN5Mixer4initEPN5daisy9DaisySeedEPPfS6_S6_S6_S6_PPN7daisysp9DelayLineIfLj240000EEEEUlfE_E10_M_destroyERSt9_Any_dataSt17integral_constantIbLb1EE
/var/folders/wz/z09yph4n0qj4t7mjxhl6ttn80000gn/T//ccxdcdyF.s:6664   .text._ZSt4moveIRPFvRKSt9_Any_dataOfEEONSt16remove_referenceIT_E4typeEOS8_:0000000000000000 $t
/var/folders/wz/z09yph4n0qj4t7mjxhl6ttn80000gn/T//ccxdcdyF.s:6670   .text._ZSt4moveIRPFvRKSt9_Any_dataOfEEONSt16remove_referenceIT_E4typeEOS8_:0000000000000000 _ZSt4moveIRPFvRKSt9_Any_dataOfEEONSt16remove_referenceIT_E4typeEOS8_
/var/folders/wz/z09yph4n0qj4t7mjxhl6ttn80000gn/T//ccxdcdyF.s:6702   .text._ZSt4swapIPFvRKSt9_Any_dataOfEENSt9enable_ifIXsrSt6__and_IJSt6__not_ISt15__is_tuple_likeIT_EESt21is_move_constructibleISA_ESt18is_move_assignableISA_EEE5valueEvE4typeERSA_SK_:0000000000000000 $t
/var/folders/wz/z09yph4n0qj4t7mjxhl6ttn80000gn/T//ccxdcdyF.s:6760   .text._ZNSt8functionIFvfEEC2ERKS1_:0000000000000000 $t
/var/folders/wz/z09yph4n0qj4t7mjxhl6ttn80000gn/T//ccxdcdyF.s:6766   .text._ZNSt8functionIFvfEEC2ERKS1_:0000000000000000 _ZNSt8functionIFvfEEC2ERKS1_
/var/folders/wz/z09yph4n0qj4t7mjxhl6ttn80000gn/T//ccxdcdyF.s:9149   .text._ZNKSt8functionIFvfEEcvbEv:0000000000000000 _ZNKSt8functionIFvfEEcvbEv
/var/folders/wz/z09yph4n0qj4t7mjxhl6ttn80000gn/T//ccxdcdyF.s:6834   .text._ZNSt14_Function_base13_Base_managerIZN5Mixer11initTrackIOEPN5daisy9DaisySeedE7TrackIOS5_S5_S5_EUlfE_E15_M_init_functorERSt9_Any_dataOS6_St17integral_constantIbLb1EE:0000000000000000 $t
/var/folders/wz/z09yph4n0qj4t7mjxhl6ttn80000gn/T//ccxdcdyF.s:6884   .text._ZNSt14_Function_base13_Base_managerIZN5Mixer11initTrackIOEPN5daisy9DaisySeedE7TrackIOS5_S5_S5_EUlfE_E14_M_get_pointerERKSt9_Any_data:0000000000000000 $t
/var/folders/wz/z09yph4n0qj4t7mjxhl6ttn80000gn/T//ccxdcdyF.s:9189   .text._ZNKSt9_Any_data9_M_accessIZN5Mixer11initTrackIOEPN5daisy9DaisySeedE7TrackIOS5_S5_S5_EUlfE_EERKT_v:0000000000000000 _ZNKSt9_Any_data9_M_accessIZN5Mixer11initTrackIOEPN5daisy9DaisySeedE7TrackIOS5_S5_S5_EUlfE_EERKT_v
/var/folders/wz/z09yph4n0qj4t7mjxhl6ttn80000gn/T//ccxdcdyF.s:9225   .text._ZSt11__addressofIKZN5Mixer11initTrackIOEPN5daisy9DaisySeedE7TrackIOS4_S4_S4_EUlfE_EPT_RS7_:0000000000000000 _ZSt11__addressofIKZN5Mixer11initTrackIOEPN5daisy9DaisySeedE7TrackIOS4_S4_S4_EUlfE_EPT_RS7_
/var/folders/wz/z09yph4n0qj4t7mjxhl6ttn80000gn/T//ccxdcdyF.s:6930   .text._ZSt10__invoke_rIvRZN5Mixer11initTrackIOEPN5daisy9DaisySeedE7TrackIOS4_S4_S4_EUlfE_JfEENSt9enable_ifIXsrSt6__and_IJSt7is_voidIT_ESt14__is_invocableIT0_JDpT1_EEEE5valueESA_E4typeEOSD_DpOSE_:0000000000000000 $t
/var/folders/wz/z09yph4n0qj4t7mjxhl6ttn80000gn/T//ccxdcdyF.s:9262   .text._ZSt7forwardIRZN5Mixer11initTrackIOEPN5daisy9DaisySeedE7TrackIOS4_S4_S4_EUlfE_EOT_RNSt16remove_referenceIS7_E4typeE:0000000000000000 _ZSt7forwardIRZN5Mixer11initTrackIOEPN5daisy9DaisySeedE7TrackIOS4_S4_S4_EUlfE_EOT_RNSt16remove_referenceIS7_E4typeE
/var/folders/wz/z09yph4n0qj4t7mjxhl6ttn80000gn/T//ccxdcdyF.s:9299   .text._ZSt13__invoke_implIvRZN5Mixer11initTrackIOEPN5daisy9DaisySeedE7TrackIOS4_S4_S4_EUlfE_JfEET_St14__invoke_otherOT0_DpOT1_:0000000000000000 _ZSt13__invoke_implIvRZN5Mixer11initTrackIOEPN5daisy9DaisySeedE7TrackIOS4_S4_S4_EUlfE_JfEET_St14__invoke_otherOT0_DpOT1_
/var/folders/wz/z09yph4n0qj4t7mjxhl6ttn80000gn/T//ccxdcdyF.s:6976   .text._ZNSt9_Any_data9_M_accessIPZN5Mixer11initTrackIOEPN5daisy9DaisySeedE7TrackIOS5_S5_S5_EUlfE_EERT_v:0000000000000000 $t
/var/folders/wz/z09yph4n0qj4t7mjxhl6ttn80000gn/T//ccxdcdyF.s:7012   .text._ZNSt14_Function_base13_Base_managerIZN5Mixer11initTrackIOEPN5daisy9DaisySeedE7TrackIOS5_S5_S5_EUlfE_E10_M_managerERSt9_Any_dataRKS8_St18_Manager_operation:0000000000000000 $t
/var/folders/wz/z09yph4n0qj4t7mjxhl6ttn80000gn/T//ccxdcdyF.s:9348   .text._ZNSt14_Function_base13_Base_managerIZN5Mixer11initTrackIOEPN5daisy9DaisySeedE7TrackIOS5_S5_S5_EUlfE_E8_M_cloneERSt9_Any_dataRKS8_St17integral_constantIbLb1EE:0000000000000000 _ZNSt14_Function_base13_Base_managerIZN5Mixer11initTrackIOEPN5daisy9DaisySeedE7TrackIOS5_S5_S5_EUlfE_E8_M_cloneERSt9_Any_dataRKS8_St17integral_constantIbLb1EE
/var/folders/wz/z09yph4n0qj4t7mjxhl6ttn80000gn/T//ccxdcdyF.s:9398   .text._ZNSt14_Function_base13_Base_managerIZN5Mixer11initTrackIOEPN5daisy9DaisySeedE7TrackIOS5_S5_S5_EUlfE_E10_M_destroyERSt9_Any_dataSt17integral_constantIbLb1EE:0000000000000000 _ZNSt14_Function_base13_Base_managerIZN5Mixer11initTrackIOEPN5daisy9DaisySeedE7TrackIOS5_S5_S5_EUlfE_E10_M_destroyERSt9_Any_dataSt17integral_constantIbLb1EE
/var/folders/wz/z09yph4n0qj4t7mjxhl6ttn80000gn/T//ccxdcdyF.s:7092   .text._ZNSt14_Function_base13_Base_managerIZN5Mixer11initTrackIOEPN5daisy9DaisySeedE7TrackIOS5_S5_S5_EUlfE0_E15_M_init_functorERSt9_Any_dataOS6_St17integral_constantIbLb1EE:0000000000000000 $t
/var/folders/wz/z09yph4n0qj4t7mjxhl6ttn80000gn/T//ccxdcdyF.s:7142   .text._ZNSt14_Function_base13_Base_managerIZN5Mixer11initTrackIOEPN5daisy9DaisySeedE7TrackIOS5_S5_S5_EUlfE0_E14_M_get_pointerERKSt9_Any_data:0000000000000000 $t
/var/folders/wz/z09yph4n0qj4t7mjxhl6ttn80000gn/T//ccxdcdyF.s:9434   .text._ZNKSt9_Any_data9_M_accessIZN5Mixer11initTrackIOEPN5daisy9DaisySeedE7TrackIOS5_S5_S5_EUlfE0_EERKT_v:0000000000000000 _ZNKSt9_Any_data9_M_accessIZN5Mixer11initTrackIOEPN5daisy9DaisySeedE7TrackIOS5_S5_S5_EUlfE0_EERKT_v
/var/folders/wz/z09yph4n0qj4t7mjxhl6ttn80000gn/T//ccxdcdyF.s:9470   .text._ZSt11__addressofIKZN5Mixer11initTrackIOEPN5daisy9DaisySeedE7TrackIOS4_S4_S4_EUlfE0_EPT_RS7_:0000000000000000 _ZSt11__addressofIKZN5Mixer11initTrackIOEPN5daisy9DaisySeedE7TrackIOS4_S4_S4_EUlfE0_EPT_RS7_
/var/folders/wz/z09yph4n0qj4t7mjxhl6ttn80000gn/T//ccxdcdyF.s:7188   .text._ZSt10__invoke_rIvRZN5Mixer11initTrackIOEPN5daisy9DaisySeedE7TrackIOS4_S4_S4_EUlfE0_JfEENSt9enable_ifIXsrSt6__and_IJSt7is_voidIT_ESt14__is_invocableIT0_JDpT1_EEEE5valueESA_E4typeEOSD_DpOSE_:0000000000000000 $t
/var/folders/wz/z09yph4n0qj4t7mjxhl6ttn80000gn/T//ccxdcdyF.s:9507   .text._ZSt7forwardIRZN5Mixer11initTrackIOEPN5daisy9DaisySeedE7TrackIOS4_S4_S4_EUlfE0_EOT_RNSt16remove_referenceIS7_E4typeE:0000000000000000 _ZSt7forwardIRZN5Mixer11initTrackIOEPN5daisy9DaisySeedE7TrackIOS4_S4_S4_EUlfE0_EOT_RNSt16remove_referenceIS7_E4typeE
/var/folders/wz/z09yph4n0qj4t7mjxhl6ttn80000gn/T//ccxdcdyF.s:9544   .text._ZSt13__invoke_implIvRZN5Mixer11initTrackIOEPN5daisy9DaisySeedE7TrackIOS4_S4_S4_EUlfE0_JfEET_St14__invoke_otherOT0_DpOT1_:0000000000000000 _ZSt13__invoke_implIvRZN5Mixer11initTrackIOEPN5daisy9DaisySeedE7TrackIOS4_S4_S4_EUlfE0_JfEET_St14__invoke_otherOT0_DpOT1_
/var/folders/wz/z09yph4n0qj4t7mjxhl6ttn80000gn/T//ccxdcdyF.s:7234   .text._ZNSt9_Any_data9_M_accessIPZN5Mixer11initTrackIOEPN5daisy9DaisySeedE7TrackIOS5_S5_S5_EUlfE0_EERT_v:0000000000000000 $t
/var/folders/wz/z09yph4n0qj4t7mjxhl6ttn80000gn/T//ccxdcdyF.s:7270   .text._ZNSt14_Function_base13_Base_managerIZN5Mixer11initTrackIOEPN5daisy9DaisySeedE7TrackIOS5_S5_S5_EUlfE0_E10_M_managerERSt9_Any_dataRKS8_St18_Manager_operation:0000000000000000 $t
/var/folders/wz/z09yph4n0qj4t7mjxhl6ttn80000gn/T//ccxdcdyF.s:9593   .text._ZNSt14_Function_base13_Base_managerIZN5Mixer11initTrackIOEPN5daisy9DaisySeedE7TrackIOS5_S5_S5_EUlfE0_E8_M_cloneERSt9_Any_dataRKS8_St17integral_constantIbLb1EE:0000000000000000 _ZNSt14_Function_base13_Base_managerIZN5Mixer11initTrackIOEPN5daisy9DaisySeedE7TrackIOS5_S5_S5_EUlfE0_E8_M_cloneERSt9_Any_dataRKS8_St17integral_constantIbLb1EE
/var/folders/wz/z09yph4n0qj4t7mjxhl6ttn80000gn/T//ccxdcdyF.s:9643   .text._ZNSt14_Function_base13_Base_managerIZN5Mixer11initTrackIOEPN5daisy9DaisySeedE7TrackIOS5_S5_S5_EUlfE0_E10_M_destroyERSt9_Any_dataSt17integral_constantIbLb1EE:0000000000000000 _ZNSt14_Function_base13_Base_managerIZN5Mixer11initTrackIOEPN5daisy9DaisySeedE7TrackIOS5_S5_S5_EUlfE0_E10_M_destroyERSt9_Any_dataSt17integral_constantIbLb1EE
/var/folders/wz/z09yph4n0qj4t7mjxhl6ttn80000gn/T//ccxdcdyF.s:7350   .text._ZNSt14_Function_base13_Base_managerIZN5Mixer11initTrackIOEPN5daisy9DaisySeedE7TrackIOS5_S5_S5_EUlfE1_E15_M_init_functorERSt9_Any_dataOS6_St17integral_constantIbLb1EE:0000000000000000 $t
/var/folders/wz/z09yph4n0qj4t7mjxhl6ttn80000gn/T//ccxdcdyF.s:7400   .text._ZNSt14_Function_base13_Base_managerIZN5Mixer11initTrackIOEPN5daisy9DaisySeedE7TrackIOS5_S5_S5_EUlfE1_E14_M_get_pointerERKSt9_Any_data:0000000000000000 $t
/var/folders/wz/z09yph4n0qj4t7mjxhl6ttn80000gn/T//ccxdcdyF.s:9679   .text._ZNKSt9_Any_data9_M_accessIZN5Mixer11initTrackIOEPN5daisy9DaisySeedE7TrackIOS5_S5_S5_EUlfE1_EERKT_v:0000000000000000 _ZNKSt9_Any_data9_M_accessIZN5Mixer11initTrackIOEPN5daisy9DaisySeedE7TrackIOS5_S5_S5_EUlfE1_EERKT_v
/var/folders/wz/z09yph4n0qj4t7mjxhl6ttn80000gn/T//ccxdcdyF.s:9715   .text._ZSt11__addressofIKZN5Mixer11initTrackIOEPN5daisy9DaisySeedE7TrackIOS4_S4_S4_EUlfE1_EPT_RS7_:0000000000000000 _ZSt11__addressofIKZN5Mixer11initTrackIOEPN5daisy9DaisySeedE7TrackIOS4_S4_S4_EUlfE1_EPT_RS7_
/var/folders/wz/z09yph4n0qj4t7mjxhl6ttn80000gn/T//ccxdcdyF.s:7446   .text._ZSt10__invoke_rIvRZN5Mixer11initTrackIOEPN5daisy9DaisySeedE7TrackIOS4_S4_S4_EUlfE1_JfEENSt9enable_ifIXsrSt6__and_IJSt7is_voidIT_ESt14__is_invocableIT0_JDpT1_EEEE5valueESA_E4typeEOSD_DpOSE_:0000000000000000 $t
/var/folders/wz/z09yph4n0qj4t7mjxhl6ttn80000gn/T//ccxdcdyF.s:9752   .text._ZSt7forwardIRZN5Mixer11initTrackIOEPN5daisy9DaisySeedE7TrackIOS4_S4_S4_EUlfE1_EOT_RNSt16remove_referenceIS7_E4typeE:0000000000000000 _ZSt7forwardIRZN5Mixer11initTrackIOEPN5daisy9DaisySeedE7TrackIOS4_S4_S4_EUlfE1_EOT_RNSt16remove_referenceIS7_E4typeE
/var/folders/wz/z09yph4n0qj4t7mjxhl6ttn80000gn/T//ccxdcdyF.s:9789   .text._ZSt13__invoke_implIvRZN5Mixer11initTrackIOEPN5daisy9DaisySeedE7TrackIOS4_S4_S4_EUlfE1_JfEET_St14__invoke_otherOT0_DpOT1_:0000000000000000 _ZSt13__invoke_implIvRZN5Mixer11initTrackIOEPN5daisy9DaisySeedE7TrackIOS4_S4_S4_EUlfE1_JfEET_St14__invoke_otherOT0_DpOT1_
/var/folders/wz/z09yph4n0qj4t7mjxhl6ttn80000gn/T//ccxdcdyF.s:7492   .text._ZNSt9_Any_data9_M_accessIPZN5Mixer11initTrackIOEPN5daisy9DaisySeedE7TrackIOS5_S5_S5_EUlfE1_EERT_v:0000000000000000 $t
/var/folders/wz/z09yph4n0qj4t7mjxhl6ttn80000gn/T//ccxdcdyF.s:7528   .text._ZNSt14_Function_base13_Base_managerIZN5Mixer11initTrackIOEPN5daisy9DaisySeedE7TrackIOS5_S5_S5_EUlfE1_E10_M_managerERSt9_Any_dataRKS8_St18_Manager_operation:0000000000000000 $t
/var/folders/wz/z09yph4n0qj4t7mjxhl6ttn80000gn/T//ccxdcdyF.s:9838   .text._ZNSt14_Function_base13_Base_managerIZN5Mixer11initTrackIOEPN5daisy9DaisySeedE7TrackIOS5_S5_S5_EUlfE1_E8_M_cloneERSt9_Any_dataRKS8_St17integral_constantIbLb1EE:0000000000000000 _ZNSt14_Function_base13_Base_managerIZN5Mixer11initTrackIOEPN5daisy9DaisySeedE7TrackIOS5_S5_S5_EUlfE1_E8_M_cloneERSt9_Any_dataRKS8_St17integral_constantIbLb1EE
/var/folders/wz/z09yph4n0qj4t7mjxhl6ttn80000gn/T//ccxdcdyF.s:9888   .text._ZNSt14_Function_base13_Base_managerIZN5Mixer11initTrackIOEPN5daisy9DaisySeedE7TrackIOS5_S5_S5_EUlfE1_E10_M_destroyERSt9_Any_dataSt17integral_constantIbLb1EE:0000000000000000 _ZNSt14_Function_base13_Base_managerIZN5Mixer11initTrackIOEPN5daisy9DaisySeedE7TrackIOS5_S5_S5_EUlfE1_E10_M_destroyERSt9_Any_dataSt17integral_constantIbLb1EE
/var/folders/wz/z09yph4n0qj4t7mjxhl6ttn80000gn/T//ccxdcdyF.s:7608   .text._ZNSt14_Function_base13_Base_managerIZN5Mixer11initTrackIOEPN5daisy9DaisySeedE7TrackIOS5_S5_S5_EUlfE2_E15_M_init_functorERSt9_Any_dataOS6_St17integral_constantIbLb1EE:0000000000000000 $t
/var/folders/wz/z09yph4n0qj4t7mjxhl6ttn80000gn/T//ccxdcdyF.s:7658   .text._ZNSt14_Function_base13_Base_managerIZN5Mixer11initTrackIOEPN5daisy9DaisySeedE7TrackIOS5_S5_S5_EUlfE2_E14_M_get_pointerERKSt9_Any_data:0000000000000000 $t
/var/folders/wz/z09yph4n0qj4t7mjxhl6ttn80000gn/T//ccxdcdyF.s:9924   .text._ZNKSt9_Any_data9_M_accessIZN5Mixer11initTrackIOEPN5daisy9DaisySeedE7TrackIOS5_S5_S5_EUlfE2_EERKT_v:0000000000000000 _ZNKSt9_Any_data9_M_accessIZN5Mixer11initTrackIOEPN5daisy9DaisySeedE7TrackIOS5_S5_S5_EUlfE2_EERKT_v
/var/folders/wz/z09yph4n0qj4t7mjxhl6ttn80000gn/T//ccxdcdyF.s:9960   .text._ZSt11__addressofIKZN5Mixer11initTrackIOEPN5daisy9DaisySeedE7TrackIOS4_S4_S4_EUlfE2_EPT_RS7_:0000000000000000 _ZSt11__addressofIKZN5Mixer11initTrackIOEPN5daisy9DaisySeedE7TrackIOS4_S4_S4_EUlfE2_EPT_RS7_
/var/folders/wz/z09yph4n0qj4t7mjxhl6ttn80000gn/T//ccxdcdyF.s:7704   .text._ZSt10__invoke_rIvRZN5Mixer11initTrackIOEPN5daisy9DaisySeedE7TrackIOS4_S4_S4_EUlfE2_JfEENSt9enable_ifIXsrSt6__and_IJSt7is_voidIT_ESt14__is_invocableIT0_JDpT1_EEEE5valueESA_E4typeEOSD_DpOSE_:0000000000000000 $t
/var/folders/wz/z09yph4n0qj4t7mjxhl6ttn80000gn/T//ccxdcdyF.s:9997   .text._ZSt7forwardIRZN5Mixer11initTrackIOEPN5daisy9DaisySeedE7TrackIOS4_S4_S4_EUlfE2_EOT_RNSt16remove_referenceIS7_E4typeE:0000000000000000 _ZSt7forwardIRZN5Mixer11initTrackIOEPN5daisy9DaisySeedE7TrackIOS4_S4_S4_EUlfE2_EOT_RNSt16remove_referenceIS7_E4typeE
/var/folders/wz/z09yph4n0qj4t7mjxhl6ttn80000gn/T//ccxdcdyF.s:10034  .text._ZSt13__invoke_implIvRZN5Mixer11initTrackIOEPN5daisy9DaisySeedE7TrackIOS4_S4_S4_EUlfE2_JfEET_St14__invoke_otherOT0_DpOT1_:0000000000000000 _ZSt13__invoke_implIvRZN5Mixer11initTrackIOEPN5daisy9DaisySeedE7TrackIOS4_S4_S4_EUlfE2_JfEET_St14__invoke_otherOT0_DpOT1_
ARM GAS  /var/folders/wz/z09yph4n0qj4t7mjxhl6ttn80000gn/T//ccxdcdyF.s 			page 248


/var/folders/wz/z09yph4n0qj4t7mjxhl6ttn80000gn/T//ccxdcdyF.s:7750   .text._ZNSt9_Any_data9_M_accessIPZN5Mixer11initTrackIOEPN5daisy9DaisySeedE7TrackIOS5_S5_S5_EUlfE2_EERT_v:0000000000000000 $t
/var/folders/wz/z09yph4n0qj4t7mjxhl6ttn80000gn/T//ccxdcdyF.s:7786   .text._ZNSt14_Function_base13_Base_managerIZN5Mixer11initTrackIOEPN5daisy9DaisySeedE7TrackIOS5_S5_S5_EUlfE2_E10_M_managerERSt9_Any_dataRKS8_St18_Manager_operation:0000000000000000 $t
/var/folders/wz/z09yph4n0qj4t7mjxhl6ttn80000gn/T//ccxdcdyF.s:10083  .text._ZNSt14_Function_base13_Base_managerIZN5Mixer11initTrackIOEPN5daisy9DaisySeedE7TrackIOS5_S5_S5_EUlfE2_E8_M_cloneERSt9_Any_dataRKS8_St17integral_constantIbLb1EE:0000000000000000 _ZNSt14_Function_base13_Base_managerIZN5Mixer11initTrackIOEPN5daisy9DaisySeedE7TrackIOS5_S5_S5_EUlfE2_E8_M_cloneERSt9_Any_dataRKS8_St17integral_constantIbLb1EE
/var/folders/wz/z09yph4n0qj4t7mjxhl6ttn80000gn/T//ccxdcdyF.s:10133  .text._ZNSt14_Function_base13_Base_managerIZN5Mixer11initTrackIOEPN5daisy9DaisySeedE7TrackIOS5_S5_S5_EUlfE2_E10_M_destroyERSt9_Any_dataSt17integral_constantIbLb1EE:0000000000000000 _ZNSt14_Function_base13_Base_managerIZN5Mixer11initTrackIOEPN5daisy9DaisySeedE7TrackIOS5_S5_S5_EUlfE2_E10_M_destroyERSt9_Any_dataSt17integral_constantIbLb1EE
/var/folders/wz/z09yph4n0qj4t7mjxhl6ttn80000gn/T//ccxdcdyF.s:7866   .text._ZNSt14_Function_base13_Base_managerIZN5Mixer11initTrackIOEPN5daisy9DaisySeedE7TrackIOS5_S5_S5_EUlfE3_E15_M_init_functorERSt9_Any_dataOS6_St17integral_constantIbLb1EE:0000000000000000 $t
/var/folders/wz/z09yph4n0qj4t7mjxhl6ttn80000gn/T//ccxdcdyF.s:7916   .text._ZNSt14_Function_base13_Base_managerIZN5Mixer11initTrackIOEPN5daisy9DaisySeedE7TrackIOS5_S5_S5_EUlfE3_E14_M_get_pointerERKSt9_Any_data:0000000000000000 $t
/var/folders/wz/z09yph4n0qj4t7mjxhl6ttn80000gn/T//ccxdcdyF.s:10169  .text._ZNKSt9_Any_data9_M_accessIZN5Mixer11initTrackIOEPN5daisy9DaisySeedE7TrackIOS5_S5_S5_EUlfE3_EERKT_v:0000000000000000 _ZNKSt9_Any_data9_M_accessIZN5Mixer11initTrackIOEPN5daisy9DaisySeedE7TrackIOS5_S5_S5_EUlfE3_EERKT_v
/var/folders/wz/z09yph4n0qj4t7mjxhl6ttn80000gn/T//ccxdcdyF.s:10205  .text._ZSt11__addressofIKZN5Mixer11initTrackIOEPN5daisy9DaisySeedE7TrackIOS4_S4_S4_EUlfE3_EPT_RS7_:0000000000000000 _ZSt11__addressofIKZN5Mixer11initTrackIOEPN5daisy9DaisySeedE7TrackIOS4_S4_S4_EUlfE3_EPT_RS7_
/var/folders/wz/z09yph4n0qj4t7mjxhl6ttn80000gn/T//ccxdcdyF.s:7962   .text._ZSt10__invoke_rIvRZN5Mixer11initTrackIOEPN5daisy9DaisySeedE7TrackIOS4_S4_S4_EUlfE3_JfEENSt9enable_ifIXsrSt6__and_IJSt7is_voidIT_ESt14__is_invocableIT0_JDpT1_EEEE5valueESA_E4typeEOSD_DpOSE_:0000000000000000 $t
/var/folders/wz/z09yph4n0qj4t7mjxhl6ttn80000gn/T//ccxdcdyF.s:10242  .text._ZSt7forwardIRZN5Mixer11initTrackIOEPN5daisy9DaisySeedE7TrackIOS4_S4_S4_EUlfE3_EOT_RNSt16remove_referenceIS7_E4typeE:0000000000000000 _ZSt7forwardIRZN5Mixer11initTrackIOEPN5daisy9DaisySeedE7TrackIOS4_S4_S4_EUlfE3_EOT_RNSt16remove_referenceIS7_E4typeE
/var/folders/wz/z09yph4n0qj4t7mjxhl6ttn80000gn/T//ccxdcdyF.s:10279  .text._ZSt13__invoke_implIvRZN5Mixer11initTrackIOEPN5daisy9DaisySeedE7TrackIOS4_S4_S4_EUlfE3_JfEET_St14__invoke_otherOT0_DpOT1_:0000000000000000 _ZSt13__invoke_implIvRZN5Mixer11initTrackIOEPN5daisy9DaisySeedE7TrackIOS4_S4_S4_EUlfE3_JfEET_St14__invoke_otherOT0_DpOT1_
/var/folders/wz/z09yph4n0qj4t7mjxhl6ttn80000gn/T//ccxdcdyF.s:8008   .text._ZNSt9_Any_data9_M_accessIPZN5Mixer11initTrackIOEPN5daisy9DaisySeedE7TrackIOS5_S5_S5_EUlfE3_EERT_v:0000000000000000 $t
/var/folders/wz/z09yph4n0qj4t7mjxhl6ttn80000gn/T//ccxdcdyF.s:8044   .text._ZNSt14_Function_base13_Base_managerIZN5Mixer11initTrackIOEPN5daisy9DaisySeedE7TrackIOS5_S5_S5_EUlfE3_E10_M_managerERSt9_Any_dataRKS8_St18_Manager_operation:0000000000000000 $t
/var/folders/wz/z09yph4n0qj4t7mjxhl6ttn80000gn/T//ccxdcdyF.s:10328  .text._ZNSt14_Function_base13_Base_managerIZN5Mixer11initTrackIOEPN5daisy9DaisySeedE7TrackIOS5_S5_S5_EUlfE3_E8_M_cloneERSt9_Any_dataRKS8_St17integral_constantIbLb1EE:0000000000000000 _ZNSt14_Function_base13_Base_managerIZN5Mixer11initTrackIOEPN5daisy9DaisySeedE7TrackIOS5_S5_S5_EUlfE3_E8_M_cloneERSt9_Any_dataRKS8_St17integral_constantIbLb1EE
/var/folders/wz/z09yph4n0qj4t7mjxhl6ttn80000gn/T//ccxdcdyF.s:10378  .text._ZNSt14_Function_base13_Base_managerIZN5Mixer11initTrackIOEPN5daisy9DaisySeedE7TrackIOS5_S5_S5_EUlfE3_E10_M_destroyERSt9_Any_dataSt17integral_constantIbLb1EE:0000000000000000 _ZNSt14_Function_base13_Base_managerIZN5Mixer11initTrackIOEPN5daisy9DaisySeedE7TrackIOS5_S5_S5_EUlfE3_E10_M_destroyERSt9_Any_dataSt17integral_constantIbLb1EE
/var/folders/wz/z09yph4n0qj4t7mjxhl6ttn80000gn/T//ccxdcdyF.s:8124   .text._ZNSt14_Function_base13_Base_managerIZN5Mixer11initTrackIOEPN5daisy9DaisySeedE7TrackIOS5_S5_S5_EUlfE4_E15_M_init_functorERSt9_Any_dataOS6_St17integral_constantIbLb1EE:0000000000000000 $t
/var/folders/wz/z09yph4n0qj4t7mjxhl6ttn80000gn/T//ccxdcdyF.s:8174   .text._ZNSt14_Function_base13_Base_managerIZN5Mixer11initTrackIOEPN5daisy9DaisySeedE7TrackIOS5_S5_S5_EUlfE4_E14_M_get_pointerERKSt9_Any_data:0000000000000000 $t
/var/folders/wz/z09yph4n0qj4t7mjxhl6ttn80000gn/T//ccxdcdyF.s:10414  .text._ZNKSt9_Any_data9_M_accessIZN5Mixer11initTrackIOEPN5daisy9DaisySeedE7TrackIOS5_S5_S5_EUlfE4_EERKT_v:0000000000000000 _ZNKSt9_Any_data9_M_accessIZN5Mixer11initTrackIOEPN5daisy9DaisySeedE7TrackIOS5_S5_S5_EUlfE4_EERKT_v
/var/folders/wz/z09yph4n0qj4t7mjxhl6ttn80000gn/T//ccxdcdyF.s:10450  .text._ZSt11__addressofIKZN5Mixer11initTrackIOEPN5daisy9DaisySeedE7TrackIOS4_S4_S4_EUlfE4_EPT_RS7_:0000000000000000 _ZSt11__addressofIKZN5Mixer11initTrackIOEPN5daisy9DaisySeedE7TrackIOS4_S4_S4_EUlfE4_EPT_RS7_
/var/folders/wz/z09yph4n0qj4t7mjxhl6ttn80000gn/T//ccxdcdyF.s:8220   .text._ZSt10__invoke_rIvRZN5Mixer11initTrackIOEPN5daisy9DaisySeedE7TrackIOS4_S4_S4_EUlfE4_JfEENSt9enable_ifIXsrSt6__and_IJSt7is_voidIT_ESt14__is_invocableIT0_JDpT1_EEEE5valueESA_E4typeEOSD_DpOSE_:0000000000000000 $t
/var/folders/wz/z09yph4n0qj4t7mjxhl6ttn80000gn/T//ccxdcdyF.s:10487  .text._ZSt7forwardIRZN5Mixer11initTrackIOEPN5daisy9DaisySeedE7TrackIOS4_S4_S4_EUlfE4_EOT_RNSt16remove_referenceIS7_E4typeE:0000000000000000 _ZSt7forwardIRZN5Mixer11initTrackIOEPN5daisy9DaisySeedE7TrackIOS4_S4_S4_EUlfE4_EOT_RNSt16remove_referenceIS7_E4typeE
/var/folders/wz/z09yph4n0qj4t7mjxhl6ttn80000gn/T//ccxdcdyF.s:10524  .text._ZSt13__invoke_implIvRZN5Mixer11initTrackIOEPN5daisy9DaisySeedE7TrackIOS4_S4_S4_EUlfE4_JfEET_St14__invoke_otherOT0_DpOT1_:0000000000000000 _ZSt13__invoke_implIvRZN5Mixer11initTrackIOEPN5daisy9DaisySeedE7TrackIOS4_S4_S4_EUlfE4_JfEET_St14__invoke_otherOT0_DpOT1_
/var/folders/wz/z09yph4n0qj4t7mjxhl6ttn80000gn/T//ccxdcdyF.s:8266   .text._ZNSt9_Any_data9_M_accessIPZN5Mixer11initTrackIOEPN5daisy9DaisySeedE7TrackIOS5_S5_S5_EUlfE4_EERT_v:0000000000000000 $t
/var/folders/wz/z09yph4n0qj4t7mjxhl6ttn80000gn/T//ccxdcdyF.s:8302   .text._ZNSt14_Function_base13_Base_managerIZN5Mixer11initTrackIOEPN5daisy9DaisySeedE7TrackIOS5_S5_S5_EUlfE4_E10_M_managerERSt9_Any_dataRKS8_St18_Manager_operation:0000000000000000 $t
/var/folders/wz/z09yph4n0qj4t7mjxhl6ttn80000gn/T//ccxdcdyF.s:10573  .text._ZNSt14_Function_base13_Base_managerIZN5Mixer11initTrackIOEPN5daisy9DaisySeedE7TrackIOS5_S5_S5_EUlfE4_E8_M_cloneERSt9_Any_dataRKS8_St17integral_constantIbLb1EE:0000000000000000 _ZNSt14_Function_base13_Base_managerIZN5Mixer11initTrackIOEPN5daisy9DaisySeedE7TrackIOS5_S5_S5_EUlfE4_E8_M_cloneERSt9_Any_dataRKS8_St17integral_constantIbLb1EE
/var/folders/wz/z09yph4n0qj4t7mjxhl6ttn80000gn/T//ccxdcdyF.s:10623  .text._ZNSt14_Function_base13_Base_managerIZN5Mixer11initTrackIOEPN5daisy9DaisySeedE7TrackIOS5_S5_S5_EUlfE4_E10_M_destroyERSt9_Any_dataSt17integral_constantIbLb1EE:0000000000000000 _ZNSt14_Function_base13_Base_managerIZN5Mixer11initTrackIOEPN5daisy9DaisySeedE7TrackIOS5_S5_S5_EUlfE4_E10_M_destroyERSt9_Any_dataSt17integral_constantIbLb1EE
/var/folders/wz/z09yph4n0qj4t7mjxhl6ttn80000gn/T//ccxdcdyF.s:8382   .text._ZNSt14_Function_base13_Base_managerIZN5Mixer11initTrackIOEPN5daisy9DaisySeedE7TrackIOS5_S5_S5_EUlfE5_E15_M_init_functorERSt9_Any_dataOS6_St17integral_constantIbLb1EE:0000000000000000 $t
/var/folders/wz/z09yph4n0qj4t7mjxhl6ttn80000gn/T//ccxdcdyF.s:8432   .text._ZNSt14_Function_base13_Base_managerIZN5Mixer11initTrackIOEPN5daisy9DaisySeedE7TrackIOS5_S5_S5_EUlfE5_E14_M_get_pointerERKSt9_Any_data:0000000000000000 $t
/var/folders/wz/z09yph4n0qj4t7mjxhl6ttn80000gn/T//ccxdcdyF.s:10659  .text._ZNKSt9_Any_data9_M_accessIZN5Mixer11initTrackIOEPN5daisy9DaisySeedE7TrackIOS5_S5_S5_EUlfE5_EERKT_v:0000000000000000 _ZNKSt9_Any_data9_M_accessIZN5Mixer11initTrackIOEPN5daisy9DaisySeedE7TrackIOS5_S5_S5_EUlfE5_EERKT_v
/var/folders/wz/z09yph4n0qj4t7mjxhl6ttn80000gn/T//ccxdcdyF.s:10695  .text._ZSt11__addressofIKZN5Mixer11initTrackIOEPN5daisy9DaisySeedE7TrackIOS4_S4_S4_EUlfE5_EPT_RS7_:0000000000000000 _ZSt11__addressofIKZN5Mixer11initTrackIOEPN5daisy9DaisySeedE7TrackIOS4_S4_S4_EUlfE5_EPT_RS7_
/var/folders/wz/z09yph4n0qj4t7mjxhl6ttn80000gn/T//ccxdcdyF.s:8478   .text._ZSt10__invoke_rIvRZN5Mixer11initTrackIOEPN5daisy9DaisySeedE7TrackIOS4_S4_S4_EUlfE5_JfEENSt9enable_ifIXsrSt6__and_IJSt7is_voidIT_ESt14__is_invocableIT0_JDpT1_EEEE5valueESA_E4typeEOSD_DpOSE_:0000000000000000 $t
/var/folders/wz/z09yph4n0qj4t7mjxhl6ttn80000gn/T//ccxdcdyF.s:10732  .text._ZSt7forwardIRZN5Mixer11initTrackIOEPN5daisy9DaisySeedE7TrackIOS4_S4_S4_EUlfE5_EOT_RNSt16remove_referenceIS7_E4typeE:0000000000000000 _ZSt7forwardIRZN5Mixer11initTrackIOEPN5daisy9DaisySeedE7TrackIOS4_S4_S4_EUlfE5_EOT_RNSt16remove_referenceIS7_E4typeE
/var/folders/wz/z09yph4n0qj4t7mjxhl6ttn80000gn/T//ccxdcdyF.s:10769  .text._ZSt13__invoke_implIvRZN5Mixer11initTrackIOEPN5daisy9DaisySeedE7TrackIOS4_S4_S4_EUlfE5_JfEET_St14__invoke_otherOT0_DpOT1_:0000000000000000 _ZSt13__invoke_implIvRZN5Mixer11initTrackIOEPN5daisy9DaisySeedE7TrackIOS4_S4_S4_EUlfE5_JfEET_St14__invoke_otherOT0_DpOT1_
/var/folders/wz/z09yph4n0qj4t7mjxhl6ttn80000gn/T//ccxdcdyF.s:8524   .text._ZNSt9_Any_data9_M_accessIPZN5Mixer11initTrackIOEPN5daisy9DaisySeedE7TrackIOS5_S5_S5_EUlfE5_EERT_v:0000000000000000 $t
/var/folders/wz/z09yph4n0qj4t7mjxhl6ttn80000gn/T//ccxdcdyF.s:8560   .text._ZNSt14_Function_base13_Base_managerIZN5Mixer11initTrackIOEPN5daisy9DaisySeedE7TrackIOS5_S5_S5_EUlfE5_E10_M_managerERSt9_Any_dataRKS8_St18_Manager_operation:0000000000000000 $t
/var/folders/wz/z09yph4n0qj4t7mjxhl6ttn80000gn/T//ccxdcdyF.s:10818  .text._ZNSt14_Function_base13_Base_managerIZN5Mixer11initTrackIOEPN5daisy9DaisySeedE7TrackIOS5_S5_S5_EUlfE5_E8_M_cloneERSt9_Any_dataRKS8_St17integral_constantIbLb1EE:0000000000000000 _ZNSt14_Function_base13_Base_managerIZN5Mixer11initTrackIOEPN5daisy9DaisySeedE7TrackIOS5_S5_S5_EUlfE5_E8_M_cloneERSt9_Any_dataRKS8_St17integral_constantIbLb1EE
/var/folders/wz/z09yph4n0qj4t7mjxhl6ttn80000gn/T//ccxdcdyF.s:10868  .text._ZNSt14_Function_base13_Base_managerIZN5Mixer11initTrackIOEPN5daisy9DaisySeedE7TrackIOS5_S5_S5_EUlfE5_E10_M_destroyERSt9_Any_dataSt17integral_constantIbLb1EE:0000000000000000 _ZNSt14_Function_base13_Base_managerIZN5Mixer11initTrackIOEPN5daisy9DaisySeedE7TrackIOS5_S5_S5_EUlfE5_E10_M_destroyERSt9_Any_dataSt17integral_constantIbLb1EE
/var/folders/wz/z09yph4n0qj4t7mjxhl6ttn80000gn/T//ccxdcdyF.s:8640   .text._ZNSt14_Function_base13_Base_managerIZN5Mixer11initTrackIOEPN5daisy9DaisySeedE7TrackIOS5_S5_S5_EUlfE6_E15_M_init_functorERSt9_Any_dataOS6_St17integral_constantIbLb1EE:0000000000000000 $t
/var/folders/wz/z09yph4n0qj4t7mjxhl6ttn80000gn/T//ccxdcdyF.s:8690   .text._ZNSt14_Function_base13_Base_managerIZN5Mixer11initTrackIOEPN5daisy9DaisySeedE7TrackIOS5_S5_S5_EUlfE6_E14_M_get_pointerERKSt9_Any_data:0000000000000000 $t
/var/folders/wz/z09yph4n0qj4t7mjxhl6ttn80000gn/T//ccxdcdyF.s:10904  .text._ZNKSt9_Any_data9_M_accessIZN5Mixer11initTrackIOEPN5daisy9DaisySeedE7TrackIOS5_S5_S5_EUlfE6_EERKT_v:0000000000000000 _ZNKSt9_Any_data9_M_accessIZN5Mixer11initTrackIOEPN5daisy9DaisySeedE7TrackIOS5_S5_S5_EUlfE6_EERKT_v
/var/folders/wz/z09yph4n0qj4t7mjxhl6ttn80000gn/T//ccxdcdyF.s:10940  .text._ZSt11__addressofIKZN5Mixer11initTrackIOEPN5daisy9DaisySeedE7TrackIOS4_S4_S4_EUlfE6_EPT_RS7_:0000000000000000 _ZSt11__addressofIKZN5Mixer11initTrackIOEPN5daisy9DaisySeedE7TrackIOS4_S4_S4_EUlfE6_EPT_RS7_
/var/folders/wz/z09yph4n0qj4t7mjxhl6ttn80000gn/T//ccxdcdyF.s:8736   .text._ZSt10__invoke_rIvRZN5Mixer11initTrackIOEPN5daisy9DaisySeedE7TrackIOS4_S4_S4_EUlfE6_JfEENSt9enable_ifIXsrSt6__and_IJSt7is_voidIT_ESt14__is_invocableIT0_JDpT1_EEEE5valueESA_E4typeEOSD_DpOSE_:0000000000000000 $t
/var/folders/wz/z09yph4n0qj4t7mjxhl6ttn80000gn/T//ccxdcdyF.s:10977  .text._ZSt7forwardIRZN5Mixer11initTrackIOEPN5daisy9DaisySeedE7TrackIOS4_S4_S4_EUlfE6_EOT_RNSt16remove_referenceIS7_E4typeE:0000000000000000 _ZSt7forwardIRZN5Mixer11initTrackIOEPN5daisy9DaisySeedE7TrackIOS4_S4_S4_EUlfE6_EOT_RNSt16remove_referenceIS7_E4typeE
/var/folders/wz/z09yph4n0qj4t7mjxhl6ttn80000gn/T//ccxdcdyF.s:11014  .text._ZSt13__invoke_implIvRZN5Mixer11initTrackIOEPN5daisy9DaisySeedE7TrackIOS4_S4_S4_EUlfE6_JfEET_St14__invoke_otherOT0_DpOT1_:0000000000000000 _ZSt13__invoke_implIvRZN5Mixer11initTrackIOEPN5daisy9DaisySeedE7TrackIOS4_S4_S4_EUlfE6_JfEET_St14__invoke_otherOT0_DpOT1_
/var/folders/wz/z09yph4n0qj4t7mjxhl6ttn80000gn/T//ccxdcdyF.s:8782   .text._ZNSt9_Any_data9_M_accessIPZN5Mixer11initTrackIOEPN5daisy9DaisySeedE7TrackIOS5_S5_S5_EUlfE6_EERT_v:0000000000000000 $t
/var/folders/wz/z09yph4n0qj4t7mjxhl6ttn80000gn/T//ccxdcdyF.s:8818   .text._ZNSt14_Function_base13_Base_managerIZN5Mixer11initTrackIOEPN5daisy9DaisySeedE7TrackIOS5_S5_S5_EUlfE6_E10_M_managerERSt9_Any_dataRKS8_St18_Manager_operation:0000000000000000 $t
/var/folders/wz/z09yph4n0qj4t7mjxhl6ttn80000gn/T//ccxdcdyF.s:11063  .text._ZNSt14_Function_base13_Base_managerIZN5Mixer11initTrackIOEPN5daisy9DaisySeedE7TrackIOS5_S5_S5_EUlfE6_E8_M_cloneERSt9_Any_dataRKS8_St17integral_constantIbLb1EE:0000000000000000 _ZNSt14_Function_base13_Base_managerIZN5Mixer11initTrackIOEPN5daisy9DaisySeedE7TrackIOS5_S5_S5_EUlfE6_E8_M_cloneERSt9_Any_dataRKS8_St17integral_constantIbLb1EE
/var/folders/wz/z09yph4n0qj4t7mjxhl6ttn80000gn/T//ccxdcdyF.s:11113  .text._ZNSt14_Function_base13_Base_managerIZN5Mixer11initTrackIOEPN5daisy9DaisySeedE7TrackIOS5_S5_S5_EUlfE6_E10_M_destroyERSt9_Any_dataSt17integral_constantIbLb1EE:0000000000000000 _ZNSt14_Function_base13_Base_managerIZN5Mixer11initTrackIOEPN5daisy9DaisySeedE7TrackIOS5_S5_S5_EUlfE6_E10_M_destroyERSt9_Any_dataSt17integral_constantIbLb1EE
/var/folders/wz/z09yph4n0qj4t7mjxhl6ttn80000gn/T//ccxdcdyF.s:8898   .text._ZNKSt9_Any_data9_M_accessIZN5Mixer4initEPN5daisy9DaisySeedEPPfS6_S6_S6_S6_PPN7daisysp9DelayLineIfLj240000EEEEUlfE_EERKT_v:0000000000000000 $t
/var/folders/wz/z09yph4n0qj4t7mjxhl6ttn80000gn/T//ccxdcdyF.s:8934   .text._ZSt11__addressofIKZN5Mixer4initEPN5daisy9DaisySeedEPPfS5_S5_S5_S5_PPN7daisysp9DelayLineIfLj240000EEEEUlfE_EPT_RSD_:0000000000000000 $t
/var/folders/wz/z09yph4n0qj4t7mjxhl6ttn80000gn/T//ccxdcdyF.s:8971   .text._ZSt7forwardIRZN5Mixer4initEPN5daisy9DaisySeedEPPfS5_S5_S5_S5_PPN7daisysp9DelayLineIfLj240000EEEEUlfE_EOT_RNSt16remove_referenceISD_E4typeE:0000000000000000 $t
/var/folders/wz/z09yph4n0qj4t7mjxhl6ttn80000gn/T//ccxdcdyF.s:9008   .text._ZSt13__invoke_implIvRZN5Mixer4initEPN5daisy9DaisySeedEPPfS5_S5_S5_S5_PPN7daisysp9DelayLineIfLj240000EEEEUlfE_JfEET_St14__invoke_otherOT0_DpOT1_:0000000000000000 $t
/var/folders/wz/z09yph4n0qj4t7mjxhl6ttn80000gn/T//ccxdcdyF.s:9057   .text._ZNSt14_Function_base13_Base_managerIZN5Mixer4initEPN5daisy9DaisySeedEPPfS6_S6_S6_S6_PPN7daisysp9DelayLineIfLj240000EEEEUlfE_E8_M_cloneERSt9_Any_dataRKSE_St17integral_constantIbLb1EE:0000000000000000 $t
/var/folders/wz/z09yph4n0qj4t7mjxhl6ttn80000gn/T//ccxdcdyF.s:9107   .text._ZNSt14_Function_base13_Base_managerIZN5Mixer4initEPN5daisy9DaisySeedEPPfS6_S6_S6_S6_PPN7daisysp9DelayLineIfLj240000EEEEUlfE_E10_M_destroyERSt9_Any_dataSt17integral_constantIbLb1EE:0000000000000000 $t
/var/folders/wz/z09yph4n0qj4t7mjxhl6ttn80000gn/T//ccxdcdyF.s:11149  .text._ZNSt9_Any_data9_M_accessIZN5Mixer4initEPN5daisy9DaisySeedEPPfS6_S6_S6_S6_PPN7daisysp9DelayLineIfLj240000EEEEUlfE_EERT_v:0000000000000000 _ZNSt9_Any_data9_M_accessIZN5Mixer4initEPN5daisy9DaisySeedEPPfS6_S6_S6_S6_PPN7daisysp9DelayLineIfLj240000EEEEUlfE_EERT_v
/var/folders/wz/z09yph4n0qj4t7mjxhl6ttn80000gn/T//ccxdcdyF.s:9143   .text._ZNKSt8functionIFvfEEcvbEv:0000000000000000 $t
/var/folders/wz/z09yph4n0qj4t7mjxhl6ttn80000gn/T//ccxdcdyF.s:9184   .text._ZNKSt9_Any_data9_M_accessIZN5Mixer11initTrackIOEPN5daisy9DaisySeedE7TrackIOS5_S5_S5_EUlfE_EERKT_v:0000000000000000 $t
ARM GAS  /var/folders/wz/z09yph4n0qj4t7mjxhl6ttn80000gn/T//ccxdcdyF.s 			page 249


/var/folders/wz/z09yph4n0qj4t7mjxhl6ttn80000gn/T//ccxdcdyF.s:9220   .text._ZSt11__addressofIKZN5Mixer11initTrackIOEPN5daisy9DaisySeedE7TrackIOS4_S4_S4_EUlfE_EPT_RS7_:0000000000000000 $t
/var/folders/wz/z09yph4n0qj4t7mjxhl6ttn80000gn/T//ccxdcdyF.s:9257   .text._ZSt7forwardIRZN5Mixer11initTrackIOEPN5daisy9DaisySeedE7TrackIOS4_S4_S4_EUlfE_EOT_RNSt16remove_referenceIS7_E4typeE:0000000000000000 $t
/var/folders/wz/z09yph4n0qj4t7mjxhl6ttn80000gn/T//ccxdcdyF.s:9294   .text._ZSt13__invoke_implIvRZN5Mixer11initTrackIOEPN5daisy9DaisySeedE7TrackIOS4_S4_S4_EUlfE_JfEET_St14__invoke_otherOT0_DpOT1_:0000000000000000 $t
/var/folders/wz/z09yph4n0qj4t7mjxhl6ttn80000gn/T//ccxdcdyF.s:9343   .text._ZNSt14_Function_base13_Base_managerIZN5Mixer11initTrackIOEPN5daisy9DaisySeedE7TrackIOS5_S5_S5_EUlfE_E8_M_cloneERSt9_Any_dataRKS8_St17integral_constantIbLb1EE:0000000000000000 $t
/var/folders/wz/z09yph4n0qj4t7mjxhl6ttn80000gn/T//ccxdcdyF.s:9393   .text._ZNSt14_Function_base13_Base_managerIZN5Mixer11initTrackIOEPN5daisy9DaisySeedE7TrackIOS5_S5_S5_EUlfE_E10_M_destroyERSt9_Any_dataSt17integral_constantIbLb1EE:0000000000000000 $t
/var/folders/wz/z09yph4n0qj4t7mjxhl6ttn80000gn/T//ccxdcdyF.s:11185  .text._ZNSt9_Any_data9_M_accessIZN5Mixer11initTrackIOEPN5daisy9DaisySeedE7TrackIOS5_S5_S5_EUlfE_EERT_v:0000000000000000 _ZNSt9_Any_data9_M_accessIZN5Mixer11initTrackIOEPN5daisy9DaisySeedE7TrackIOS5_S5_S5_EUlfE_EERT_v
/var/folders/wz/z09yph4n0qj4t7mjxhl6ttn80000gn/T//ccxdcdyF.s:9429   .text._ZNKSt9_Any_data9_M_accessIZN5Mixer11initTrackIOEPN5daisy9DaisySeedE7TrackIOS5_S5_S5_EUlfE0_EERKT_v:0000000000000000 $t
/var/folders/wz/z09yph4n0qj4t7mjxhl6ttn80000gn/T//ccxdcdyF.s:9465   .text._ZSt11__addressofIKZN5Mixer11initTrackIOEPN5daisy9DaisySeedE7TrackIOS4_S4_S4_EUlfE0_EPT_RS7_:0000000000000000 $t
/var/folders/wz/z09yph4n0qj4t7mjxhl6ttn80000gn/T//ccxdcdyF.s:9502   .text._ZSt7forwardIRZN5Mixer11initTrackIOEPN5daisy9DaisySeedE7TrackIOS4_S4_S4_EUlfE0_EOT_RNSt16remove_referenceIS7_E4typeE:0000000000000000 $t
/var/folders/wz/z09yph4n0qj4t7mjxhl6ttn80000gn/T//ccxdcdyF.s:9539   .text._ZSt13__invoke_implIvRZN5Mixer11initTrackIOEPN5daisy9DaisySeedE7TrackIOS4_S4_S4_EUlfE0_JfEET_St14__invoke_otherOT0_DpOT1_:0000000000000000 $t
/var/folders/wz/z09yph4n0qj4t7mjxhl6ttn80000gn/T//ccxdcdyF.s:9588   .text._ZNSt14_Function_base13_Base_managerIZN5Mixer11initTrackIOEPN5daisy9DaisySeedE7TrackIOS5_S5_S5_EUlfE0_E8_M_cloneERSt9_Any_dataRKS8_St17integral_constantIbLb1EE:0000000000000000 $t
/var/folders/wz/z09yph4n0qj4t7mjxhl6ttn80000gn/T//ccxdcdyF.s:9638   .text._ZNSt14_Function_base13_Base_managerIZN5Mixer11initTrackIOEPN5daisy9DaisySeedE7TrackIOS5_S5_S5_EUlfE0_E10_M_destroyERSt9_Any_dataSt17integral_constantIbLb1EE:0000000000000000 $t
/var/folders/wz/z09yph4n0qj4t7mjxhl6ttn80000gn/T//ccxdcdyF.s:11221  .text._ZNSt9_Any_data9_M_accessIZN5Mixer11initTrackIOEPN5daisy9DaisySeedE7TrackIOS5_S5_S5_EUlfE0_EERT_v:0000000000000000 _ZNSt9_Any_data9_M_accessIZN5Mixer11initTrackIOEPN5daisy9DaisySeedE7TrackIOS5_S5_S5_EUlfE0_EERT_v
/var/folders/wz/z09yph4n0qj4t7mjxhl6ttn80000gn/T//ccxdcdyF.s:9674   .text._ZNKSt9_Any_data9_M_accessIZN5Mixer11initTrackIOEPN5daisy9DaisySeedE7TrackIOS5_S5_S5_EUlfE1_EERKT_v:0000000000000000 $t
/var/folders/wz/z09yph4n0qj4t7mjxhl6ttn80000gn/T//ccxdcdyF.s:9710   .text._ZSt11__addressofIKZN5Mixer11initTrackIOEPN5daisy9DaisySeedE7TrackIOS4_S4_S4_EUlfE1_EPT_RS7_:0000000000000000 $t
/var/folders/wz/z09yph4n0qj4t7mjxhl6ttn80000gn/T//ccxdcdyF.s:9747   .text._ZSt7forwardIRZN5Mixer11initTrackIOEPN5daisy9DaisySeedE7TrackIOS4_S4_S4_EUlfE1_EOT_RNSt16remove_referenceIS7_E4typeE:0000000000000000 $t
/var/folders/wz/z09yph4n0qj4t7mjxhl6ttn80000gn/T//ccxdcdyF.s:9784   .text._ZSt13__invoke_implIvRZN5Mixer11initTrackIOEPN5daisy9DaisySeedE7TrackIOS4_S4_S4_EUlfE1_JfEET_St14__invoke_otherOT0_DpOT1_:0000000000000000 $t
/var/folders/wz/z09yph4n0qj4t7mjxhl6ttn80000gn/T//ccxdcdyF.s:9833   .text._ZNSt14_Function_base13_Base_managerIZN5Mixer11initTrackIOEPN5daisy9DaisySeedE7TrackIOS5_S5_S5_EUlfE1_E8_M_cloneERSt9_Any_dataRKS8_St17integral_constantIbLb1EE:0000000000000000 $t
/var/folders/wz/z09yph4n0qj4t7mjxhl6ttn80000gn/T//ccxdcdyF.s:9883   .text._ZNSt14_Function_base13_Base_managerIZN5Mixer11initTrackIOEPN5daisy9DaisySeedE7TrackIOS5_S5_S5_EUlfE1_E10_M_destroyERSt9_Any_dataSt17integral_constantIbLb1EE:0000000000000000 $t
/var/folders/wz/z09yph4n0qj4t7mjxhl6ttn80000gn/T//ccxdcdyF.s:11257  .text._ZNSt9_Any_data9_M_accessIZN5Mixer11initTrackIOEPN5daisy9DaisySeedE7TrackIOS5_S5_S5_EUlfE1_EERT_v:0000000000000000 _ZNSt9_Any_data9_M_accessIZN5Mixer11initTrackIOEPN5daisy9DaisySeedE7TrackIOS5_S5_S5_EUlfE1_EERT_v
/var/folders/wz/z09yph4n0qj4t7mjxhl6ttn80000gn/T//ccxdcdyF.s:9919   .text._ZNKSt9_Any_data9_M_accessIZN5Mixer11initTrackIOEPN5daisy9DaisySeedE7TrackIOS5_S5_S5_EUlfE2_EERKT_v:0000000000000000 $t
/var/folders/wz/z09yph4n0qj4t7mjxhl6ttn80000gn/T//ccxdcdyF.s:9955   .text._ZSt11__addressofIKZN5Mixer11initTrackIOEPN5daisy9DaisySeedE7TrackIOS4_S4_S4_EUlfE2_EPT_RS7_:0000000000000000 $t
/var/folders/wz/z09yph4n0qj4t7mjxhl6ttn80000gn/T//ccxdcdyF.s:9992   .text._ZSt7forwardIRZN5Mixer11initTrackIOEPN5daisy9DaisySeedE7TrackIOS4_S4_S4_EUlfE2_EOT_RNSt16remove_referenceIS7_E4typeE:0000000000000000 $t
/var/folders/wz/z09yph4n0qj4t7mjxhl6ttn80000gn/T//ccxdcdyF.s:10029  .text._ZSt13__invoke_implIvRZN5Mixer11initTrackIOEPN5daisy9DaisySeedE7TrackIOS4_S4_S4_EUlfE2_JfEET_St14__invoke_otherOT0_DpOT1_:0000000000000000 $t
/var/folders/wz/z09yph4n0qj4t7mjxhl6ttn80000gn/T//ccxdcdyF.s:10078  .text._ZNSt14_Function_base13_Base_managerIZN5Mixer11initTrackIOEPN5daisy9DaisySeedE7TrackIOS5_S5_S5_EUlfE2_E8_M_cloneERSt9_Any_dataRKS8_St17integral_constantIbLb1EE:0000000000000000 $t
/var/folders/wz/z09yph4n0qj4t7mjxhl6ttn80000gn/T//ccxdcdyF.s:10128  .text._ZNSt14_Function_base13_Base_managerIZN5Mixer11initTrackIOEPN5daisy9DaisySeedE7TrackIOS5_S5_S5_EUlfE2_E10_M_destroyERSt9_Any_dataSt17integral_constantIbLb1EE:0000000000000000 $t
/var/folders/wz/z09yph4n0qj4t7mjxhl6ttn80000gn/T//ccxdcdyF.s:11293  .text._ZNSt9_Any_data9_M_accessIZN5Mixer11initTrackIOEPN5daisy9DaisySeedE7TrackIOS5_S5_S5_EUlfE2_EERT_v:0000000000000000 _ZNSt9_Any_data9_M_accessIZN5Mixer11initTrackIOEPN5daisy9DaisySeedE7TrackIOS5_S5_S5_EUlfE2_EERT_v
/var/folders/wz/z09yph4n0qj4t7mjxhl6ttn80000gn/T//ccxdcdyF.s:10164  .text._ZNKSt9_Any_data9_M_accessIZN5Mixer11initTrackIOEPN5daisy9DaisySeedE7TrackIOS5_S5_S5_EUlfE3_EERKT_v:0000000000000000 $t
/var/folders/wz/z09yph4n0qj4t7mjxhl6ttn80000gn/T//ccxdcdyF.s:10200  .text._ZSt11__addressofIKZN5Mixer11initTrackIOEPN5daisy9DaisySeedE7TrackIOS4_S4_S4_EUlfE3_EPT_RS7_:0000000000000000 $t
/var/folders/wz/z09yph4n0qj4t7mjxhl6ttn80000gn/T//ccxdcdyF.s:10237  .text._ZSt7forwardIRZN5Mixer11initTrackIOEPN5daisy9DaisySeedE7TrackIOS4_S4_S4_EUlfE3_EOT_RNSt16remove_referenceIS7_E4typeE:0000000000000000 $t
/var/folders/wz/z09yph4n0qj4t7mjxhl6ttn80000gn/T//ccxdcdyF.s:10274  .text._ZSt13__invoke_implIvRZN5Mixer11initTrackIOEPN5daisy9DaisySeedE7TrackIOS4_S4_S4_EUlfE3_JfEET_St14__invoke_otherOT0_DpOT1_:0000000000000000 $t
/var/folders/wz/z09yph4n0qj4t7mjxhl6ttn80000gn/T//ccxdcdyF.s:10323  .text._ZNSt14_Function_base13_Base_managerIZN5Mixer11initTrackIOEPN5daisy9DaisySeedE7TrackIOS5_S5_S5_EUlfE3_E8_M_cloneERSt9_Any_dataRKS8_St17integral_constantIbLb1EE:0000000000000000 $t
/var/folders/wz/z09yph4n0qj4t7mjxhl6ttn80000gn/T//ccxdcdyF.s:10373  .text._ZNSt14_Function_base13_Base_managerIZN5Mixer11initTrackIOEPN5daisy9DaisySeedE7TrackIOS5_S5_S5_EUlfE3_E10_M_destroyERSt9_Any_dataSt17integral_constantIbLb1EE:0000000000000000 $t
/var/folders/wz/z09yph4n0qj4t7mjxhl6ttn80000gn/T//ccxdcdyF.s:11329  .text._ZNSt9_Any_data9_M_accessIZN5Mixer11initTrackIOEPN5daisy9DaisySeedE7TrackIOS5_S5_S5_EUlfE3_EERT_v:0000000000000000 _ZNSt9_Any_data9_M_accessIZN5Mixer11initTrackIOEPN5daisy9DaisySeedE7TrackIOS5_S5_S5_EUlfE3_EERT_v
/var/folders/wz/z09yph4n0qj4t7mjxhl6ttn80000gn/T//ccxdcdyF.s:10409  .text._ZNKSt9_Any_data9_M_accessIZN5Mixer11initTrackIOEPN5daisy9DaisySeedE7TrackIOS5_S5_S5_EUlfE4_EERKT_v:0000000000000000 $t
/var/folders/wz/z09yph4n0qj4t7mjxhl6ttn80000gn/T//ccxdcdyF.s:10445  .text._ZSt11__addressofIKZN5Mixer11initTrackIOEPN5daisy9DaisySeedE7TrackIOS4_S4_S4_EUlfE4_EPT_RS7_:0000000000000000 $t
/var/folders/wz/z09yph4n0qj4t7mjxhl6ttn80000gn/T//ccxdcdyF.s:10482  .text._ZSt7forwardIRZN5Mixer11initTrackIOEPN5daisy9DaisySeedE7TrackIOS4_S4_S4_EUlfE4_EOT_RNSt16remove_referenceIS7_E4typeE:0000000000000000 $t
/var/folders/wz/z09yph4n0qj4t7mjxhl6ttn80000gn/T//ccxdcdyF.s:10519  .text._ZSt13__invoke_implIvRZN5Mixer11initTrackIOEPN5daisy9DaisySeedE7TrackIOS4_S4_S4_EUlfE4_JfEET_St14__invoke_otherOT0_DpOT1_:0000000000000000 $t
/var/folders/wz/z09yph4n0qj4t7mjxhl6ttn80000gn/T//ccxdcdyF.s:10568  .text._ZNSt14_Function_base13_Base_managerIZN5Mixer11initTrackIOEPN5daisy9DaisySeedE7TrackIOS5_S5_S5_EUlfE4_E8_M_cloneERSt9_Any_dataRKS8_St17integral_constantIbLb1EE:0000000000000000 $t
/var/folders/wz/z09yph4n0qj4t7mjxhl6ttn80000gn/T//ccxdcdyF.s:10618  .text._ZNSt14_Function_base13_Base_managerIZN5Mixer11initTrackIOEPN5daisy9DaisySeedE7TrackIOS5_S5_S5_EUlfE4_E10_M_destroyERSt9_Any_dataSt17integral_constantIbLb1EE:0000000000000000 $t
/var/folders/wz/z09yph4n0qj4t7mjxhl6ttn80000gn/T//ccxdcdyF.s:11365  .text._ZNSt9_Any_data9_M_accessIZN5Mixer11initTrackIOEPN5daisy9DaisySeedE7TrackIOS5_S5_S5_EUlfE4_EERT_v:0000000000000000 _ZNSt9_Any_data9_M_accessIZN5Mixer11initTrackIOEPN5daisy9DaisySeedE7TrackIOS5_S5_S5_EUlfE4_EERT_v
/var/folders/wz/z09yph4n0qj4t7mjxhl6ttn80000gn/T//ccxdcdyF.s:10654  .text._ZNKSt9_Any_data9_M_accessIZN5Mixer11initTrackIOEPN5daisy9DaisySeedE7TrackIOS5_S5_S5_EUlfE5_EERKT_v:0000000000000000 $t
/var/folders/wz/z09yph4n0qj4t7mjxhl6ttn80000gn/T//ccxdcdyF.s:10690  .text._ZSt11__addressofIKZN5Mixer11initTrackIOEPN5daisy9DaisySeedE7TrackIOS4_S4_S4_EUlfE5_EPT_RS7_:0000000000000000 $t
/var/folders/wz/z09yph4n0qj4t7mjxhl6ttn80000gn/T//ccxdcdyF.s:10727  .text._ZSt7forwardIRZN5Mixer11initTrackIOEPN5daisy9DaisySeedE7TrackIOS4_S4_S4_EUlfE5_EOT_RNSt16remove_referenceIS7_E4typeE:0000000000000000 $t
/var/folders/wz/z09yph4n0qj4t7mjxhl6ttn80000gn/T//ccxdcdyF.s:10764  .text._ZSt13__invoke_implIvRZN5Mixer11initTrackIOEPN5daisy9DaisySeedE7TrackIOS4_S4_S4_EUlfE5_JfEET_St14__invoke_otherOT0_DpOT1_:0000000000000000 $t
/var/folders/wz/z09yph4n0qj4t7mjxhl6ttn80000gn/T//ccxdcdyF.s:10813  .text._ZNSt14_Function_base13_Base_managerIZN5Mixer11initTrackIOEPN5daisy9DaisySeedE7TrackIOS5_S5_S5_EUlfE5_E8_M_cloneERSt9_Any_dataRKS8_St17integral_constantIbLb1EE:0000000000000000 $t
/var/folders/wz/z09yph4n0qj4t7mjxhl6ttn80000gn/T//ccxdcdyF.s:10863  .text._ZNSt14_Function_base13_Base_managerIZN5Mixer11initTrackIOEPN5daisy9DaisySeedE7TrackIOS5_S5_S5_EUlfE5_E10_M_destroyERSt9_Any_dataSt17integral_constantIbLb1EE:0000000000000000 $t
/var/folders/wz/z09yph4n0qj4t7mjxhl6ttn80000gn/T//ccxdcdyF.s:11401  .text._ZNSt9_Any_data9_M_accessIZN5Mixer11initTrackIOEPN5daisy9DaisySeedE7TrackIOS5_S5_S5_EUlfE5_EERT_v:0000000000000000 _ZNSt9_Any_data9_M_accessIZN5Mixer11initTrackIOEPN5daisy9DaisySeedE7TrackIOS5_S5_S5_EUlfE5_EERT_v
/var/folders/wz/z09yph4n0qj4t7mjxhl6ttn80000gn/T//ccxdcdyF.s:10899  .text._ZNKSt9_Any_data9_M_accessIZN5Mixer11initTrackIOEPN5daisy9DaisySeedE7TrackIOS5_S5_S5_EUlfE6_EERKT_v:0000000000000000 $t
/var/folders/wz/z09yph4n0qj4t7mjxhl6ttn80000gn/T//ccxdcdyF.s:10935  .text._ZSt11__addressofIKZN5Mixer11initTrackIOEPN5daisy9DaisySeedE7TrackIOS4_S4_S4_EUlfE6_EPT_RS7_:0000000000000000 $t
/var/folders/wz/z09yph4n0qj4t7mjxhl6ttn80000gn/T//ccxdcdyF.s:10972  .text._ZSt7forwardIRZN5Mixer11initTrackIOEPN5daisy9DaisySeedE7TrackIOS4_S4_S4_EUlfE6_EOT_RNSt16remove_referenceIS7_E4typeE:0000000000000000 $t
/var/folders/wz/z09yph4n0qj4t7mjxhl6ttn80000gn/T//ccxdcdyF.s:11009  .text._ZSt13__invoke_implIvRZN5Mixer11initTrackIOEPN5daisy9DaisySeedE7TrackIOS4_S4_S4_EUlfE6_JfEET_St14__invoke_otherOT0_DpOT1_:0000000000000000 $t
/var/folders/wz/z09yph4n0qj4t7mjxhl6ttn80000gn/T//ccxdcdyF.s:11058  .text._ZNSt14_Function_base13_Base_managerIZN5Mixer11initTrackIOEPN5daisy9DaisySeedE7TrackIOS5_S5_S5_EUlfE6_E8_M_cloneERSt9_Any_dataRKS8_St17integral_constantIbLb1EE:0000000000000000 $t
/var/folders/wz/z09yph4n0qj4t7mjxhl6ttn80000gn/T//ccxdcdyF.s:11108  .text._ZNSt14_Function_base13_Base_managerIZN5Mixer11initTrackIOEPN5daisy9DaisySeedE7TrackIOS5_S5_S5_EUlfE6_E10_M_destroyERSt9_Any_dataSt17integral_constantIbLb1EE:0000000000000000 $t
/var/folders/wz/z09yph4n0qj4t7mjxhl6ttn80000gn/T//ccxdcdyF.s:11437  .text._ZNSt9_Any_data9_M_accessIZN5Mixer11initTrackIOEPN5daisy9DaisySeedE7TrackIOS5_S5_S5_EUlfE6_EERT_v:0000000000000000 _ZNSt9_Any_data9_M_accessIZN5Mixer11initTrackIOEPN5daisy9DaisySeedE7TrackIOS5_S5_S5_EUlfE6_EERT_v
/var/folders/wz/z09yph4n0qj4t7mjxhl6ttn80000gn/T//ccxdcdyF.s:11144  .text._ZNSt9_Any_data9_M_accessIZN5Mixer4initEPN5daisy9DaisySeedEPPfS6_S6_S6_S6_PPN7daisysp9DelayLineIfLj240000EEEEUlfE_EERT_v:0000000000000000 $t
/var/folders/wz/z09yph4n0qj4t7mjxhl6ttn80000gn/T//ccxdcdyF.s:11180  .text._ZNSt9_Any_data9_M_accessIZN5Mixer11initTrackIOEPN5daisy9DaisySeedE7TrackIOS5_S5_S5_EUlfE_EERT_v:0000000000000000 $t
ARM GAS  /var/folders/wz/z09yph4n0qj4t7mjxhl6ttn80000gn/T//ccxdcdyF.s 			page 250


/var/folders/wz/z09yph4n0qj4t7mjxhl6ttn80000gn/T//ccxdcdyF.s:11216  .text._ZNSt9_Any_data9_M_accessIZN5Mixer11initTrackIOEPN5daisy9DaisySeedE7TrackIOS5_S5_S5_EUlfE0_EERT_v:0000000000000000 $t
/var/folders/wz/z09yph4n0qj4t7mjxhl6ttn80000gn/T//ccxdcdyF.s:11252  .text._ZNSt9_Any_data9_M_accessIZN5Mixer11initTrackIOEPN5daisy9DaisySeedE7TrackIOS5_S5_S5_EUlfE1_EERT_v:0000000000000000 $t
/var/folders/wz/z09yph4n0qj4t7mjxhl6ttn80000gn/T//ccxdcdyF.s:11288  .text._ZNSt9_Any_data9_M_accessIZN5Mixer11initTrackIOEPN5daisy9DaisySeedE7TrackIOS5_S5_S5_EUlfE2_EERT_v:0000000000000000 $t
/var/folders/wz/z09yph4n0qj4t7mjxhl6ttn80000gn/T//ccxdcdyF.s:11324  .text._ZNSt9_Any_data9_M_accessIZN5Mixer11initTrackIOEPN5daisy9DaisySeedE7TrackIOS5_S5_S5_EUlfE3_EERT_v:0000000000000000 $t
/var/folders/wz/z09yph4n0qj4t7mjxhl6ttn80000gn/T//ccxdcdyF.s:11360  .text._ZNSt9_Any_data9_M_accessIZN5Mixer11initTrackIOEPN5daisy9DaisySeedE7TrackIOS5_S5_S5_EUlfE4_EERT_v:0000000000000000 $t
/var/folders/wz/z09yph4n0qj4t7mjxhl6ttn80000gn/T//ccxdcdyF.s:11396  .text._ZNSt9_Any_data9_M_accessIZN5Mixer11initTrackIOEPN5daisy9DaisySeedE7TrackIOS5_S5_S5_EUlfE5_EERT_v:0000000000000000 $t
/var/folders/wz/z09yph4n0qj4t7mjxhl6ttn80000gn/T//ccxdcdyF.s:11432  .text._ZNSt9_Any_data9_M_accessIZN5Mixer11initTrackIOEPN5daisy9DaisySeedE7TrackIOS5_S5_S5_EUlfE6_EERT_v:0000000000000000 $t
                           .group:0000000000000000 _ZNSt14_Function_baseC5Ev
                           .group:0000000000000000 _ZNSt14_Function_baseD5Ev
                           .group:0000000000000000 _ZNSt8functionIFvfEED5Ev
                           .group:0000000000000000 _ZNSt8functionIFvfEEC5ERKS1_

UNDEFINED SYMBOLS
_ZN5Track4initEPPf
_ZN5Track6initIOE7TrackIO
_ZN5Track4tickEv
_ZN5Track17processInputBlockEPKfS1_j
_ZN5Track18processOutputBlockEPfS0_j
_ZNK5daisy9AdcHandle8GetFloatEh
_ZSt25__throw_bad_function_callv
