ARM GAS  /var/folders/wz/z09yph4n0qj4t7mjxhl6ttn80000gn/T//ccWBe4mu.s 			page 1


   1              		.cpu cortex-m7
   2              		.arch armv7e-m
   3              		.fpu fpv5-d16
   4              		.eabi_attribute 28, 1
   5              		.eabi_attribute 20, 1
   6              		.eabi_attribute 21, 1
   7              		.eabi_attribute 23, 3
   8              		.eabi_attribute 24, 1
   9              		.eabi_attribute 25, 1
  10              		.eabi_attribute 26, 1
  11              		.eabi_attribute 30, 4
  12              		.eabi_attribute 34, 1
  13              		.eabi_attribute 18, 4
  14              		.file	"MixerView.cpp"
  15              		.text
  16              	.Ltext0:
  17              		.cfi_sections	.debug_frame
  18              		.section	.text._ZN8UiDriver9DrawPixelEjjhh,"axG",%progbits,_ZN8UiDriver9DrawPixelEjjhh,comdat
  19              		.align	1
  20              		.weak	_ZN8UiDriver9DrawPixelEjjhh
  21              		.syntax unified
  22              		.thumb
  23              		.thumb_func
  25              	_ZN8UiDriver9DrawPixelEjjhh:
  26              	.LVL0:
  27              	.LFB2605:
  28              		.file 1 "GUI/FX/../../Drivers/daisy_ILI9341.hpp"
   1:GUI/FX/../../Drivers/daisy_ILI9341.hpp **** #ifndef DAISY_ILI9341_HPP
   2:GUI/FX/../../Drivers/daisy_ILI9341.hpp **** #define DAISY_ILI9341_HPP
   3:GUI/FX/../../Drivers/daisy_ILI9341.hpp **** 
   4:GUI/FX/../../Drivers/daisy_ILI9341.hpp **** #include <cstring>
   5:GUI/FX/../../Drivers/daisy_ILI9341.hpp **** 
   6:GUI/FX/../../Drivers/daisy_ILI9341.hpp **** #include "daisy_seed.h"
   7:GUI/FX/../../Drivers/daisy_ILI9341.hpp **** #include <util/oled_fonts.h>
   8:GUI/FX/../../Drivers/daisy_ILI9341.hpp **** #include <hid/disp/graphics_common.h>
   9:GUI/FX/../../Drivers/daisy_ILI9341.hpp **** 
  10:GUI/FX/../../Drivers/daisy_ILI9341.hpp **** using namespace daisy;
  11:GUI/FX/../../Drivers/daisy_ILI9341.hpp **** 
  12:GUI/FX/../../Drivers/daisy_ILI9341.hpp **** // #define SPI1_NSS 7    // LCD CS 3
  13:GUI/FX/../../Drivers/daisy_ILI9341.hpp **** // #define SPI1_SCK 8    // LCD SCK 7
  14:GUI/FX/../../Drivers/daisy_ILI9341.hpp **** // #define SPI1_MOSI 10  // LCD MOSI 6
  15:GUI/FX/../../Drivers/daisy_ILI9341.hpp **** // #define ADC1_INP15 16 // PIN 23 - LCD RST 4
  16:GUI/FX/../../Drivers/daisy_ILI9341.hpp **** // #define DAC1_OUT2 22  //PIN 29 - LCD DC 5
  17:GUI/FX/../../Drivers/daisy_ILI9341.hpp **** 
  18:GUI/FX/../../Drivers/daisy_ILI9341.hpp **** // #define SPI1_MISO 9 // Not used
  19:GUI/FX/../../Drivers/daisy_ILI9341.hpp **** // #define I2C1_SCL 11
  20:GUI/FX/../../Drivers/daisy_ILI9341.hpp **** // #define I2C1_SDA 12
  21:GUI/FX/../../Drivers/daisy_ILI9341.hpp **** 
  22:GUI/FX/../../Drivers/daisy_ILI9341.hpp **** enum TFT_COLOR
  23:GUI/FX/../../Drivers/daisy_ILI9341.hpp **** {
  24:GUI/FX/../../Drivers/daisy_ILI9341.hpp ****     COLOR_BLACK = 0,
  25:GUI/FX/../../Drivers/daisy_ILI9341.hpp ****     COLOR_WHITE,
  26:GUI/FX/../../Drivers/daisy_ILI9341.hpp ****     COLOR_BLUE,
  27:GUI/FX/../../Drivers/daisy_ILI9341.hpp ****     COLOR_DARK_BLUE,
  28:GUI/FX/../../Drivers/daisy_ILI9341.hpp ****     COLOR_CYAN,
  29:GUI/FX/../../Drivers/daisy_ILI9341.hpp ****     COLOR_YELLOW,
  30:GUI/FX/../../Drivers/daisy_ILI9341.hpp ****     COLOR_DARK_YELLOW,
ARM GAS  /var/folders/wz/z09yph4n0qj4t7mjxhl6ttn80000gn/T//ccWBe4mu.s 			page 2


  31:GUI/FX/../../Drivers/daisy_ILI9341.hpp ****     COLOR_ORANGE,
  32:GUI/FX/../../Drivers/daisy_ILI9341.hpp ****     COLOR_RED,
  33:GUI/FX/../../Drivers/daisy_ILI9341.hpp ****     COLOR_DARK_RED,
  34:GUI/FX/../../Drivers/daisy_ILI9341.hpp ****     COLOR_GREEN,
  35:GUI/FX/../../Drivers/daisy_ILI9341.hpp ****     COLOR_DARK_GREEN,
  36:GUI/FX/../../Drivers/daisy_ILI9341.hpp ****     COLOR_LIGHT_GREEN,
  37:GUI/FX/../../Drivers/daisy_ILI9341.hpp ****     COLOR_GRAY,
  38:GUI/FX/../../Drivers/daisy_ILI9341.hpp ****     COLOR_DARK_GRAY,
  39:GUI/FX/../../Drivers/daisy_ILI9341.hpp ****     COLOR_LIGHT_GRAY,
  40:GUI/FX/../../Drivers/daisy_ILI9341.hpp ****     COLOR_MEDIUM_GRAY,
  41:GUI/FX/../../Drivers/daisy_ILI9341.hpp ****     COLOR_ABL_BG,
  42:GUI/FX/../../Drivers/daisy_ILI9341.hpp ****     COLOR_ABL_LINE,
  43:GUI/FX/../../Drivers/daisy_ILI9341.hpp ****     COLOR_ABL_D_LINE,
  44:GUI/FX/../../Drivers/daisy_ILI9341.hpp ****     COLOR_ABL_L_GRAY,
  45:GUI/FX/../../Drivers/daisy_ILI9341.hpp ****     COLOR_ABL_M_GRAY,
  46:GUI/FX/../../Drivers/daisy_ILI9341.hpp ****     NUMBER_OF_TFT_COLORS,
  47:GUI/FX/../../Drivers/daisy_ILI9341.hpp **** };
  48:GUI/FX/../../Drivers/daisy_ILI9341.hpp **** 
  49:GUI/FX/../../Drivers/daisy_ILI9341.hpp **** /**
  50:GUI/FX/../../Drivers/daisy_ILI9341.hpp ****  * SPI Transport for ILI9341 TFT display devices
  51:GUI/FX/../../Drivers/daisy_ILI9341.hpp ****  */
  52:GUI/FX/../../Drivers/daisy_ILI9341.hpp **** class ILI9341SpiTransport
  53:GUI/FX/../../Drivers/daisy_ILI9341.hpp **** {
  54:GUI/FX/../../Drivers/daisy_ILI9341.hpp ****   public:
  55:GUI/FX/../../Drivers/daisy_ILI9341.hpp ****     void Init()
  56:GUI/FX/../../Drivers/daisy_ILI9341.hpp ****     {
  57:GUI/FX/../../Drivers/daisy_ILI9341.hpp ****         // Initialize SPI
  58:GUI/FX/../../Drivers/daisy_ILI9341.hpp ****         SpiHandle::Config spi_config;
  59:GUI/FX/../../Drivers/daisy_ILI9341.hpp ****         spi_config.periph    = SpiHandle::Config::Peripheral::SPI_1;
  60:GUI/FX/../../Drivers/daisy_ILI9341.hpp ****         spi_config.mode      = SpiHandle::Config::Mode::MASTER;
  61:GUI/FX/../../Drivers/daisy_ILI9341.hpp ****         spi_config.direction = SpiHandle::Config::Direction::TWO_LINES_TX_ONLY;
  62:GUI/FX/../../Drivers/daisy_ILI9341.hpp ****         spi_config.clock_polarity  = SpiHandle::Config::ClockPolarity::LOW;
  63:GUI/FX/../../Drivers/daisy_ILI9341.hpp ****         spi_config.baud_prescaler  = SpiHandle::Config::BaudPrescaler::PS_2;
  64:GUI/FX/../../Drivers/daisy_ILI9341.hpp ****         spi_config.clock_phase     = SpiHandle::Config::ClockPhase::ONE_EDGE;
  65:GUI/FX/../../Drivers/daisy_ILI9341.hpp ****         spi_config.nss             = SpiHandle::Config::NSS::HARD_OUTPUT;
  66:GUI/FX/../../Drivers/daisy_ILI9341.hpp ****         spi_config.datasize        = 8;
  67:GUI/FX/../../Drivers/daisy_ILI9341.hpp ****         spi_config.pin_config.sclk = {DSY_GPIOG, 11};
  68:GUI/FX/../../Drivers/daisy_ILI9341.hpp ****         spi_config.pin_config.mosi = {DSY_GPIOB, 5};
  69:GUI/FX/../../Drivers/daisy_ILI9341.hpp ****         spi_config.pin_config.nss  = {DSY_GPIOG, 10};
  70:GUI/FX/../../Drivers/daisy_ILI9341.hpp ****         // spi_config.pin_config.miso = {DSY_GPIOX, 0}; // not used
  71:GUI/FX/../../Drivers/daisy_ILI9341.hpp **** 
  72:GUI/FX/../../Drivers/daisy_ILI9341.hpp ****         // v0.1 mix up
  73:GUI/FX/../../Drivers/daisy_ILI9341.hpp ****         //uint8_t dc_pin    = 16;
  74:GUI/FX/../../Drivers/daisy_ILI9341.hpp ****         //uint8_t reset_pin = 22;
  75:GUI/FX/../../Drivers/daisy_ILI9341.hpp **** 
  76:GUI/FX/../../Drivers/daisy_ILI9341.hpp ****         // DC pin
  77:GUI/FX/../../Drivers/daisy_ILI9341.hpp ****         pin_dc_.mode = DSY_GPIO_MODE_OUTPUT_PP;
  78:GUI/FX/../../Drivers/daisy_ILI9341.hpp ****         pin_dc_.pin  = seed::D12;
  79:GUI/FX/../../Drivers/daisy_ILI9341.hpp ****         dsy_gpio_init(&pin_dc_);
  80:GUI/FX/../../Drivers/daisy_ILI9341.hpp ****         // Reset pin
  81:GUI/FX/../../Drivers/daisy_ILI9341.hpp ****         pin_reset_.mode = DSY_GPIO_MODE_OUTPUT_PP;
  82:GUI/FX/../../Drivers/daisy_ILI9341.hpp ****         pin_reset_.pin  = seed::D11;
  83:GUI/FX/../../Drivers/daisy_ILI9341.hpp ****         dsy_gpio_init(&pin_reset_);
  84:GUI/FX/../../Drivers/daisy_ILI9341.hpp ****         // CS pin
  85:GUI/FX/../../Drivers/daisy_ILI9341.hpp ****         pin_cs_.mode = DSY_GPIO_MODE_OUTPUT_PP;
  86:GUI/FX/../../Drivers/daisy_ILI9341.hpp ****         pin_cs_.pin  = spi_config.pin_config.nss;
  87:GUI/FX/../../Drivers/daisy_ILI9341.hpp ****         dsy_gpio_init(&pin_cs_);
ARM GAS  /var/folders/wz/z09yph4n0qj4t7mjxhl6ttn80000gn/T//ccWBe4mu.s 			page 3


  88:GUI/FX/../../Drivers/daisy_ILI9341.hpp **** 
  89:GUI/FX/../../Drivers/daisy_ILI9341.hpp ****         spi_.Init(spi_config);
  90:GUI/FX/../../Drivers/daisy_ILI9341.hpp **** 
  91:GUI/FX/../../Drivers/daisy_ILI9341.hpp ****         InitPalette();
  92:GUI/FX/../../Drivers/daisy_ILI9341.hpp ****     };
  93:GUI/FX/../../Drivers/daisy_ILI9341.hpp **** 
  94:GUI/FX/../../Drivers/daisy_ILI9341.hpp ****     void Reset()
  95:GUI/FX/../../Drivers/daisy_ILI9341.hpp ****     {
  96:GUI/FX/../../Drivers/daisy_ILI9341.hpp ****         dsy_gpio_write(&pin_reset_, 0);
  97:GUI/FX/../../Drivers/daisy_ILI9341.hpp ****         System::Delay(10);
  98:GUI/FX/../../Drivers/daisy_ILI9341.hpp ****         dsy_gpio_write(&pin_reset_, 1);
  99:GUI/FX/../../Drivers/daisy_ILI9341.hpp ****         System::Delay(120);
 100:GUI/FX/../../Drivers/daisy_ILI9341.hpp ****     }
 101:GUI/FX/../../Drivers/daisy_ILI9341.hpp **** 
 102:GUI/FX/../../Drivers/daisy_ILI9341.hpp ****     /*void ClearBuffer(uint16_t color) { 
 103:GUI/FX/../../Drivers/daisy_ILI9341.hpp ****         for (size_t i = 0; i < buffer_size / 2; i++) {
 104:GUI/FX/../../Drivers/daisy_ILI9341.hpp ****             frame_buffer[i * 2] = color >> 8;
 105:GUI/FX/../../Drivers/daisy_ILI9341.hpp ****             frame_buffer[i * 2 + 1] = color & 0xFF; // new function
 106:GUI/FX/../../Drivers/daisy_ILI9341.hpp ****         }
 107:GUI/FX/../../Drivers/daisy_ILI9341.hpp ****     }*/
 108:GUI/FX/../../Drivers/daisy_ILI9341.hpp **** 
 109:GUI/FX/../../Drivers/daisy_ILI9341.hpp ****     // an internal function to handle SPI DMA callbacks
 110:GUI/FX/../../Drivers/daisy_ILI9341.hpp ****     // called when an DMA transmission completes and the next driver must be updated
 111:GUI/FX/../../Drivers/daisy_ILI9341.hpp ****     static void TxCompleteCallback(void* context, SpiHandle::Result result)
 112:GUI/FX/../../Drivers/daisy_ILI9341.hpp ****     {
 113:GUI/FX/../../Drivers/daisy_ILI9341.hpp ****         if(result == SpiHandle::Result::OK)
 114:GUI/FX/../../Drivers/daisy_ILI9341.hpp ****         {
 115:GUI/FX/../../Drivers/daisy_ILI9341.hpp ****             auto transport     = static_cast<ILI9341SpiTransport*>(context);
 116:GUI/FX/../../Drivers/daisy_ILI9341.hpp ****             auto transfer_size = transport->GetTransferSize();
 117:GUI/FX/../../Drivers/daisy_ILI9341.hpp ****             transport->remaining_buff -= transfer_size;
 118:GUI/FX/../../Drivers/daisy_ILI9341.hpp ****             if(transport->remaining_buff > 0)
 119:GUI/FX/../../Drivers/daisy_ILI9341.hpp ****             {
 120:GUI/FX/../../Drivers/daisy_ILI9341.hpp ****                 uint8_t* next_buffer_ptr = transport->frame_buffer + (transport->buffer_size - tran
 121:GUI/FX/../../Drivers/daisy_ILI9341.hpp ****                 transport->SendDataDMA(
 122:GUI/FX/../../Drivers/daisy_ILI9341.hpp ****                    &frame_buffer[buffer_size - transport->remaining_buff],
 123:GUI/FX/../../Drivers/daisy_ILI9341.hpp ****                     transfer_size);
 124:GUI/FX/../../Drivers/daisy_ILI9341.hpp ****                     
 125:GUI/FX/../../Drivers/daisy_ILI9341.hpp **** 
 126:GUI/FX/../../Drivers/daisy_ILI9341.hpp ****                 // 16bit transfer             uncommented
 127:GUI/FX/../../Drivers/daisy_ILI9341.hpp ****                 // transport->SendDataDMA(
 128:GUI/FX/../../Drivers/daisy_ILI9341.hpp ****                   //   &frame_buffer[2 * transport->buf_chunk_size],
 129:GUI/FX/../../Drivers/daisy_ILI9341.hpp ****                     // transport->buf_chunk_size);
 130:GUI/FX/../../Drivers/daisy_ILI9341.hpp ****             }
 131:GUI/FX/../../Drivers/daisy_ILI9341.hpp ****             else
 132:GUI/FX/../../Drivers/daisy_ILI9341.hpp ****             {
 133:GUI/FX/../../Drivers/daisy_ILI9341.hpp ****                 //System::Delay(120);
 134:GUI/FX/../../Drivers/daisy_ILI9341.hpp ****                 transport->dma_busy = false;
 135:GUI/FX/../../Drivers/daisy_ILI9341.hpp ****                 
 136:GUI/FX/../../Drivers/daisy_ILI9341.hpp **** 
 137:GUI/FX/../../Drivers/daisy_ILI9341.hpp ****                 // 8 bit transfer
 138:GUI/FX/../../Drivers/daisy_ILI9341.hpp ****                 // auto* spi_h = transport->spi_.GetHandle();
 139:GUI/FX/../../Drivers/daisy_ILI9341.hpp ****                 // spi_h->Instance->CFG1 &= ~SPI_CFG1_DSIZE_3;
 140:GUI/FX/../../Drivers/daisy_ILI9341.hpp ****                 // spi_h->Instance->CFG2 &= ~SPI_CFG2_LSBFRST;
 141:GUI/FX/../../Drivers/daisy_ILI9341.hpp ****                 // spi_h->Init.DataSize = SPI_DATASIZE_8BIT;
 142:GUI/FX/../../Drivers/daisy_ILI9341.hpp ****             }
 143:GUI/FX/../../Drivers/daisy_ILI9341.hpp ****         }
 144:GUI/FX/../../Drivers/daisy_ILI9341.hpp ****     }
ARM GAS  /var/folders/wz/z09yph4n0qj4t7mjxhl6ttn80000gn/T//ccWBe4mu.s 			page 4


 145:GUI/FX/../../Drivers/daisy_ILI9341.hpp **** 
 146:GUI/FX/../../Drivers/daisy_ILI9341.hpp ****     SpiHandle::Result SendDataDMA()
 147:GUI/FX/../../Drivers/daisy_ILI9341.hpp ****     {
 148:GUI/FX/../../Drivers/daisy_ILI9341.hpp ****         remaining_buff = buffer_size;
 149:GUI/FX/../../Drivers/daisy_ILI9341.hpp ****         //System::Delay(120);
 150:GUI/FX/../../Drivers/daisy_ILI9341.hpp ****         dma_busy       = true;
 151:GUI/FX/../../Drivers/daisy_ILI9341.hpp ****         
 152:GUI/FX/../../Drivers/daisy_ILI9341.hpp **** 
 153:GUI/FX/../../Drivers/daisy_ILI9341.hpp ****         // auto* spi_h = spi_.GetHandle();
 154:GUI/FX/../../Drivers/daisy_ILI9341.hpp ****         // spi_h->Instance->CFG1 |= SPI_CFG1_DSIZE_3;
 155:GUI/FX/../../Drivers/daisy_ILI9341.hpp ****         // spi_h->Instance->CFG2 |= SPI_CFG2_LSBFRST;
 156:GUI/FX/../../Drivers/daisy_ILI9341.hpp ****         // spi_h->Init.DataSize = SPI_DATASIZE_16BIT; // 15;
 157:GUI/FX/../../Drivers/daisy_ILI9341.hpp **** 
 158:GUI/FX/../../Drivers/daisy_ILI9341.hpp ****         return SendDataDMA(frame_buffer, buf_chunk_size);
 159:GUI/FX/../../Drivers/daisy_ILI9341.hpp ****     };
 160:GUI/FX/../../Drivers/daisy_ILI9341.hpp **** 
 161:GUI/FX/../../Drivers/daisy_ILI9341.hpp ****     SpiHandle::Result SendDataDMA(uint8_t* buff, size_t size)
 162:GUI/FX/../../Drivers/daisy_ILI9341.hpp ****     {
 163:GUI/FX/../../Drivers/daisy_ILI9341.hpp ****         dsy_gpio_write(&pin_dc_, 1);
 164:GUI/FX/../../Drivers/daisy_ILI9341.hpp ****         return spi_.DmaTransmit(buff, size, nullptr, &TxCompleteCallback, this);
 165:GUI/FX/../../Drivers/daisy_ILI9341.hpp ****     };
 166:GUI/FX/../../Drivers/daisy_ILI9341.hpp **** 
 167:GUI/FX/../../Drivers/daisy_ILI9341.hpp ****     uint32_t GetTransferSize() const
 168:GUI/FX/../../Drivers/daisy_ILI9341.hpp ****     {
 169:GUI/FX/../../Drivers/daisy_ILI9341.hpp ****         return remaining_buff < buf_chunk_size ? remaining_buff
 170:GUI/FX/../../Drivers/daisy_ILI9341.hpp ****                                                : buf_chunk_size;
 171:GUI/FX/../../Drivers/daisy_ILI9341.hpp ****         // return remaining_buff < 2 * buf_chunk_size ? remaining_buff // uncommented these two lin
 172:GUI/FX/../../Drivers/daisy_ILI9341.hpp ****           //                                         : 2 * buf_chunk_size;
 173:GUI/FX/../../Drivers/daisy_ILI9341.hpp ****     }
 174:GUI/FX/../../Drivers/daisy_ILI9341.hpp **** 
 175:GUI/FX/../../Drivers/daisy_ILI9341.hpp ****     SpiHandle::Result SendCommand(uint8_t cmd)
 176:GUI/FX/../../Drivers/daisy_ILI9341.hpp ****     {
 177:GUI/FX/../../Drivers/daisy_ILI9341.hpp ****         dsy_gpio_write(&pin_dc_, 0);
 178:GUI/FX/../../Drivers/daisy_ILI9341.hpp ****         return spi_.BlockingTransmit(&cmd, 1);
 179:GUI/FX/../../Drivers/daisy_ILI9341.hpp ****     };
 180:GUI/FX/../../Drivers/daisy_ILI9341.hpp **** 
 181:GUI/FX/../../Drivers/daisy_ILI9341.hpp ****     SpiHandle::Result SendData(uint8_t* buff, size_t size)
 182:GUI/FX/../../Drivers/daisy_ILI9341.hpp ****     {
 183:GUI/FX/../../Drivers/daisy_ILI9341.hpp ****         dsy_gpio_write(&pin_dc_, 1);
 184:GUI/FX/../../Drivers/daisy_ILI9341.hpp ****         return spi_.BlockingTransmit(buff, size);
 185:GUI/FX/../../Drivers/daisy_ILI9341.hpp ****     };
 186:GUI/FX/../../Drivers/daisy_ILI9341.hpp **** 
 187:GUI/FX/../../Drivers/daisy_ILI9341.hpp ****     void SetAddressWindow(uint16_t x0, uint16_t y0, uint16_t x1, uint16_t y1)
 188:GUI/FX/../../Drivers/daisy_ILI9341.hpp ****     {
 189:GUI/FX/../../Drivers/daisy_ILI9341.hpp ****         // column address set
 190:GUI/FX/../../Drivers/daisy_ILI9341.hpp ****         SendCommand(0x2A); // CASET
 191:GUI/FX/../../Drivers/daisy_ILI9341.hpp ****         {
 192:GUI/FX/../../Drivers/daisy_ILI9341.hpp ****             uint8_t data[4] = {static_cast<uint8_t>((x0 >> 8) & 0xFF),
 193:GUI/FX/../../Drivers/daisy_ILI9341.hpp ****                                static_cast<uint8_t>(x0 & 0xFF),
 194:GUI/FX/../../Drivers/daisy_ILI9341.hpp ****                                static_cast<uint8_t>((x1 >> 8) & 0xFF),
 195:GUI/FX/../../Drivers/daisy_ILI9341.hpp ****                                static_cast<uint8_t>(x1 & 0xFF)};
 196:GUI/FX/../../Drivers/daisy_ILI9341.hpp ****             SendData(data, 4);
 197:GUI/FX/../../Drivers/daisy_ILI9341.hpp ****         }
 198:GUI/FX/../../Drivers/daisy_ILI9341.hpp **** 
 199:GUI/FX/../../Drivers/daisy_ILI9341.hpp ****         // row address set
 200:GUI/FX/../../Drivers/daisy_ILI9341.hpp ****         SendCommand(0x2B); // RASET
 201:GUI/FX/../../Drivers/daisy_ILI9341.hpp ****         {
ARM GAS  /var/folders/wz/z09yph4n0qj4t7mjxhl6ttn80000gn/T//ccWBe4mu.s 			page 5


 202:GUI/FX/../../Drivers/daisy_ILI9341.hpp ****             uint8_t data[4] = {static_cast<uint8_t>((y0 >> 8) & 0xFF),
 203:GUI/FX/../../Drivers/daisy_ILI9341.hpp ****                                static_cast<uint8_t>(y0 & 0xFF),
 204:GUI/FX/../../Drivers/daisy_ILI9341.hpp ****                                static_cast<uint8_t>((y1 >> 8) & 0xFF),
 205:GUI/FX/../../Drivers/daisy_ILI9341.hpp ****                                static_cast<uint8_t>(y1 & 0xFF)};
 206:GUI/FX/../../Drivers/daisy_ILI9341.hpp ****             SendData(data, 4);
 207:GUI/FX/../../Drivers/daisy_ILI9341.hpp ****         }
 208:GUI/FX/../../Drivers/daisy_ILI9341.hpp **** 
 209:GUI/FX/../../Drivers/daisy_ILI9341.hpp ****         // write to RAM
 210:GUI/FX/../../Drivers/daisy_ILI9341.hpp ****         SendCommand(0x2C); // RAMWR
 211:GUI/FX/../../Drivers/daisy_ILI9341.hpp ****     }
 212:GUI/FX/../../Drivers/daisy_ILI9341.hpp **** 
 213:GUI/FX/../../Drivers/daisy_ILI9341.hpp ****     void PaintPixel(uint32_t id, uint8_t color_id, uint8_t alpha = 255) const
 214:GUI/FX/../../Drivers/daisy_ILI9341.hpp ****     {
 215:GUI/FX/../../Drivers/daisy_ILI9341.hpp ****           
 216:GUI/FX/../../Drivers/daisy_ILI9341.hpp **** 
 217:GUI/FX/../../Drivers/daisy_ILI9341.hpp ****         auto color = tftPalette[color_id];
 218:GUI/FX/../../Drivers/daisy_ILI9341.hpp **** 
 219:GUI/FX/../../Drivers/daisy_ILI9341.hpp ****         if(alpha != 255)
 220:GUI/FX/../../Drivers/daisy_ILI9341.hpp ****         {
 221:GUI/FX/../../Drivers/daisy_ILI9341.hpp ****             
 222:GUI/FX/../../Drivers/daisy_ILI9341.hpp **** 
 223:GUI/FX/../../Drivers/daisy_ILI9341.hpp ****             auto bg_color = tftPalette[color_mem[id]];
 224:GUI/FX/../../Drivers/daisy_ILI9341.hpp ****             color         = Blend565(color, bg_color, alpha);
 225:GUI/FX/../../Drivers/daisy_ILI9341.hpp ****         }
 226:GUI/FX/../../Drivers/daisy_ILI9341.hpp **** 
 227:GUI/FX/../../Drivers/daisy_ILI9341.hpp ****         color_mem[id] = color_id; 
 228:GUI/FX/../../Drivers/daisy_ILI9341.hpp **** 
 229:GUI/FX/../../Drivers/daisy_ILI9341.hpp ****         frame_buffer[id]     = color >> 8;
 230:GUI/FX/../../Drivers/daisy_ILI9341.hpp ****         frame_buffer[id + 1] = color & 0xFF;
 231:GUI/FX/../../Drivers/daisy_ILI9341.hpp ****     }
 232:GUI/FX/../../Drivers/daisy_ILI9341.hpp **** 
 233:GUI/FX/../../Drivers/daisy_ILI9341.hpp ****     uint16_t GetPixel(uint32_t id) { return color_mem[id]; }
 234:GUI/FX/../../Drivers/daisy_ILI9341.hpp **** 
 235:GUI/FX/../../Drivers/daisy_ILI9341.hpp ****     bool     dma_busy       = false;
 236:GUI/FX/../../Drivers/daisy_ILI9341.hpp ****     uint32_t remaining_buff = 0;
 237:GUI/FX/../../Drivers/daisy_ILI9341.hpp ****     
 238:GUI/FX/../../Drivers/daisy_ILI9341.hpp **** 
 239:GUI/FX/../../Drivers/daisy_ILI9341.hpp ****     static uint32_t const buffer_size    = 153600;          // 320 * 240 * 2   = 153600
 240:GUI/FX/../../Drivers/daisy_ILI9341.hpp ****     const uint16_t        buf_chunk_size = buffer_size / 3; // 8bit data
 241:GUI/FX/../../Drivers/daisy_ILI9341.hpp ****     //const uint16_t buf_chunk_size = buffer_size / 4; // 16bit data
 242:GUI/FX/../../Drivers/daisy_ILI9341.hpp **** 
 243:GUI/FX/../../Drivers/daisy_ILI9341.hpp ****     static uint8_t DMA_BUFFER_MEM_SECTION frame_buffer[buffer_size];
 244:GUI/FX/../../Drivers/daisy_ILI9341.hpp ****     static uint8_t DSY_SDRAM_BSS          color_mem[buffer_size / 2];
 245:GUI/FX/../../Drivers/daisy_ILI9341.hpp ****     SpiHandle                             spi_;
 246:GUI/FX/../../Drivers/daisy_ILI9341.hpp **** 
 247:GUI/FX/../../Drivers/daisy_ILI9341.hpp ****     uint16_t tftPalette[NUMBER_OF_TFT_COLORS];
 248:GUI/FX/../../Drivers/daisy_ILI9341.hpp **** 
 249:GUI/FX/../../Drivers/daisy_ILI9341.hpp ****   private:
 250:GUI/FX/../../Drivers/daisy_ILI9341.hpp ****     dsy_gpio pin_reset_;
 251:GUI/FX/../../Drivers/daisy_ILI9341.hpp ****     dsy_gpio pin_dc_;
 252:GUI/FX/../../Drivers/daisy_ILI9341.hpp ****     dsy_gpio pin_cs_;
 253:GUI/FX/../../Drivers/daisy_ILI9341.hpp **** 
 254:GUI/FX/../../Drivers/daisy_ILI9341.hpp **** 
 255:GUI/FX/../../Drivers/daisy_ILI9341.hpp ****     //   rrrrrggggggbbbbb
 256:GUI/FX/../../Drivers/daisy_ILI9341.hpp **** #define MASK_RB 63519       // 0b1111100000011111
 257:GUI/FX/../../Drivers/daisy_ILI9341.hpp **** #define MASK_G 2016         // 0b0000011111100000
 258:GUI/FX/../../Drivers/daisy_ILI9341.hpp **** #define MASK_MUL_RB 4065216 // 0b1111100000011111000000
ARM GAS  /var/folders/wz/z09yph4n0qj4t7mjxhl6ttn80000gn/T//ccWBe4mu.s 			page 6


 259:GUI/FX/../../Drivers/daisy_ILI9341.hpp **** #define MASK_MUL_G 129024   // 0b0000011111100000000000
 260:GUI/FX/../../Drivers/daisy_ILI9341.hpp **** #define MAX_ALPHA 64        // 6bits+1 with rounding
 261:GUI/FX/../../Drivers/daisy_ILI9341.hpp **** 
 262:GUI/FX/../../Drivers/daisy_ILI9341.hpp ****     uint16_t Blend565(uint16_t fg, uint16_t bg, uint8_t alpha) const
 263:GUI/FX/../../Drivers/daisy_ILI9341.hpp ****     {
 264:GUI/FX/../../Drivers/daisy_ILI9341.hpp ****         // alpha for foreground multiplication
 265:GUI/FX/../../Drivers/daisy_ILI9341.hpp ****         // convert from 8bit to (6bit+1) with rounding
 266:GUI/FX/../../Drivers/daisy_ILI9341.hpp ****         // will be in [0..64] inclusive
 267:GUI/FX/../../Drivers/daisy_ILI9341.hpp ****         alpha = (alpha + 2) >> 2;
 268:GUI/FX/../../Drivers/daisy_ILI9341.hpp ****         // "beta" for background multiplication; (6bit+1);
 269:GUI/FX/../../Drivers/daisy_ILI9341.hpp ****         // will be in [0..64] inclusive
 270:GUI/FX/../../Drivers/daisy_ILI9341.hpp ****         uint8_t beta = MAX_ALPHA - alpha;
 271:GUI/FX/../../Drivers/daisy_ILI9341.hpp ****         // so (0..64)*alpha + (0..64)*beta always in 0..64
 272:GUI/FX/../../Drivers/daisy_ILI9341.hpp **** 
 273:GUI/FX/../../Drivers/daisy_ILI9341.hpp ****         return (uint16_t)((((alpha * (uint32_t)(fg & MASK_RB)
 274:GUI/FX/../../Drivers/daisy_ILI9341.hpp ****                              + beta * (uint32_t)(bg & MASK_RB))
 275:GUI/FX/../../Drivers/daisy_ILI9341.hpp ****                             & MASK_MUL_RB)
 276:GUI/FX/../../Drivers/daisy_ILI9341.hpp ****                            | ((alpha * (fg & MASK_G) + beta * (bg & MASK_G))
 277:GUI/FX/../../Drivers/daisy_ILI9341.hpp ****                               & MASK_MUL_G))
 278:GUI/FX/../../Drivers/daisy_ILI9341.hpp ****                           >> 6);
 279:GUI/FX/../../Drivers/daisy_ILI9341.hpp ****     }
 280:GUI/FX/../../Drivers/daisy_ILI9341.hpp **** 
 281:GUI/FX/../../Drivers/daisy_ILI9341.hpp ****     /*
 282:GUI/FX/../../Drivers/daisy_ILI9341.hpp ****   result masks of multiplications
 283:GUI/FX/../../Drivers/daisy_ILI9341.hpp ****   uppercase: usable bits of multiplications
 284:GUI/FX/../../Drivers/daisy_ILI9341.hpp ****   RRRRRrrrrrrBBBBBbbbbbb // 5-5 bits of red+blue
 285:GUI/FX/../../Drivers/daisy_ILI9341.hpp ****         1111100000011111 // from MASK_RB * 1
 286:GUI/FX/../../Drivers/daisy_ILI9341.hpp ****   1111100000011111000000 //   to MASK_RB * MAX_ALPHA // 22 bits!
 287:GUI/FX/../../Drivers/daisy_ILI9341.hpp **** 
 288:GUI/FX/../../Drivers/daisy_ILI9341.hpp **** 
 289:GUI/FX/../../Drivers/daisy_ILI9341.hpp ****   -----GGGGGGgggggg----- // 6 bits of green
 290:GUI/FX/../../Drivers/daisy_ILI9341.hpp ****         0000011111100000 // from MASK_G * 1
 291:GUI/FX/../../Drivers/daisy_ILI9341.hpp ****   0000011111100000000000 //   to MASK_G * MAX_ALPHA
 292:GUI/FX/../../Drivers/daisy_ILI9341.hpp **** */
 293:GUI/FX/../../Drivers/daisy_ILI9341.hpp **** 
 294:GUI/FX/../../Drivers/daisy_ILI9341.hpp **** 
 295:GUI/FX/../../Drivers/daisy_ILI9341.hpp ****     void InitPalette()
 296:GUI/FX/../../Drivers/daisy_ILI9341.hpp ****     {
 297:GUI/FX/../../Drivers/daisy_ILI9341.hpp ****         // HEX to RBG565 converter: https://trolsoft.ru/en/articles/rgb565-color-picker
 298:GUI/FX/../../Drivers/daisy_ILI9341.hpp ****         tftPalette[COLOR_BLACK]       = 0x0000;
 299:GUI/FX/../../Drivers/daisy_ILI9341.hpp ****         tftPalette[COLOR_WHITE]       = 0xffff;
 300:GUI/FX/../../Drivers/daisy_ILI9341.hpp ****         tftPalette[COLOR_BLUE]        = 0x5AFF;
 301:GUI/FX/../../Drivers/daisy_ILI9341.hpp ****         tftPalette[COLOR_DARK_BLUE]   = 0x18EB;
 302:GUI/FX/../../Drivers/daisy_ILI9341.hpp ****         tftPalette[COLOR_YELLOW]      = 0xFFE0;
 303:GUI/FX/../../Drivers/daisy_ILI9341.hpp ****         tftPalette[COLOR_DARK_YELLOW] = 0x49E1;
 304:GUI/FX/../../Drivers/daisy_ILI9341.hpp ****         tftPalette[COLOR_RED]         = 0xF9E1; // 0xff4010
 305:GUI/FX/../../Drivers/daisy_ILI9341.hpp ****         tftPalette[COLOR_DARK_RED]    = 0x4880; // 0x401000
 306:GUI/FX/../../Drivers/daisy_ILI9341.hpp ****         tftPalette[COLOR_GREEN]       = 0x3FE7; // 0x40ff40
 307:GUI/FX/../../Drivers/daisy_ILI9341.hpp ****         tftPalette[COLOR_DARK_GREEN]  = 0x01E0; // 0x004000
 308:GUI/FX/../../Drivers/daisy_ILI9341.hpp ****         tftPalette[COLOR_LIGHT_GRAY]  = 0xAD75; // 0xb0b0b0
 309:GUI/FX/../../Drivers/daisy_ILI9341.hpp ****         tftPalette[COLOR_MEDIUM_GRAY] = 0x8C71; // 0x909090
 310:GUI/FX/../../Drivers/daisy_ILI9341.hpp ****         tftPalette[COLOR_GRAY]        = 0x5AEB; // 0x606060
 311:GUI/FX/../../Drivers/daisy_ILI9341.hpp ****         tftPalette[COLOR_DARK_GRAY]   = 0x2965; // 0x303030
 312:GUI/FX/../../Drivers/daisy_ILI9341.hpp ****         tftPalette[COLOR_CYAN]        = 0x76FD; // 0x76dfef
 313:GUI/FX/../../Drivers/daisy_ILI9341.hpp ****         tftPalette[COLOR_ORANGE]      = 0xFBE0; // 0xff7f00
 314:GUI/FX/../../Drivers/daisy_ILI9341.hpp ****         tftPalette[COLOR_LIGHT_GREEN] = 0x6FED; // 0x70ff70
 315:GUI/FX/../../Drivers/daisy_ILI9341.hpp ****         // tftPalette[COLOR_ABL_BG]      = (0x2104); // 0x212121
ARM GAS  /var/folders/wz/z09yph4n0qj4t7mjxhl6ttn80000gn/T//ccWBe4mu.s 			page 7


 316:GUI/FX/../../Drivers/daisy_ILI9341.hpp ****         tftPalette[COLOR_ABL_BG]     = 0x4A69; // #4D4D4D
 317:GUI/FX/../../Drivers/daisy_ILI9341.hpp ****         tftPalette[COLOR_ABL_LINE]   = 0x39E7; // 0x3d3d3d
 318:GUI/FX/../../Drivers/daisy_ILI9341.hpp ****         tftPalette[COLOR_ABL_D_LINE] = 0x31A6; // 0x363636
 319:GUI/FX/../../Drivers/daisy_ILI9341.hpp ****         tftPalette[COLOR_ABL_L_GRAY] = 0x52AA; // 0x555555
 320:GUI/FX/../../Drivers/daisy_ILI9341.hpp ****         tftPalette[COLOR_ABL_M_GRAY] = 0x4228; // 0x454545
 321:GUI/FX/../../Drivers/daisy_ILI9341.hpp ****         //System::Delay(1000);
 322:GUI/FX/../../Drivers/daisy_ILI9341.hpp ****     }
 323:GUI/FX/../../Drivers/daisy_ILI9341.hpp **** };
 324:GUI/FX/../../Drivers/daisy_ILI9341.hpp **** 
 325:GUI/FX/../../Drivers/daisy_ILI9341.hpp **** 
 326:GUI/FX/../../Drivers/daisy_ILI9341.hpp **** /**
 327:GUI/FX/../../Drivers/daisy_ILI9341.hpp ****  * A driver implementation for the ILI9341
 328:GUI/FX/../../Drivers/daisy_ILI9341.hpp ****  */
 329:GUI/FX/../../Drivers/daisy_ILI9341.hpp **** // class ILI9341Driver
 330:GUI/FX/../../Drivers/daisy_ILI9341.hpp **** class UiDriver
 331:GUI/FX/../../Drivers/daisy_ILI9341.hpp **** {
 332:GUI/FX/../../Drivers/daisy_ILI9341.hpp ****   public:
 333:GUI/FX/../../Drivers/daisy_ILI9341.hpp ****     
 334:GUI/FX/../../Drivers/daisy_ILI9341.hpp ****     enum class Orientation
 335:GUI/FX/../../Drivers/daisy_ILI9341.hpp ****     {
 336:GUI/FX/../../Drivers/daisy_ILI9341.hpp ****         Default = 0,
 337:GUI/FX/../../Drivers/daisy_ILI9341.hpp ****         RRight,
 338:GUI/FX/../../Drivers/daisy_ILI9341.hpp ****         RLeft,
 339:GUI/FX/../../Drivers/daisy_ILI9341.hpp ****         UpsideDown,
 340:GUI/FX/../../Drivers/daisy_ILI9341.hpp ****     };
 341:GUI/FX/../../Drivers/daisy_ILI9341.hpp **** 
 342:GUI/FX/../../Drivers/daisy_ILI9341.hpp ****     void Init()
 343:GUI/FX/../../Drivers/daisy_ILI9341.hpp ****     {
 344:GUI/FX/../../Drivers/daisy_ILI9341.hpp ****         screen_update_period_ = 34; // 17 is roughly 60Hz
 345:GUI/FX/../../Drivers/daisy_ILI9341.hpp ****         screen_update_last_   = System::GetNow();
 346:GUI/FX/../../Drivers/daisy_ILI9341.hpp **** 
 347:GUI/FX/../../Drivers/daisy_ILI9341.hpp ****         InitDriver();
 348:GUI/FX/../../Drivers/daisy_ILI9341.hpp ****     }
 349:GUI/FX/../../Drivers/daisy_ILI9341.hpp **** 
 350:GUI/FX/../../Drivers/daisy_ILI9341.hpp ****     void InitDriver()
 351:GUI/FX/../../Drivers/daisy_ILI9341.hpp ****     {
 352:GUI/FX/../../Drivers/daisy_ILI9341.hpp ****         transport_.Init();
 353:GUI/FX/../../Drivers/daisy_ILI9341.hpp **** 
 354:GUI/FX/../../Drivers/daisy_ILI9341.hpp ****         SetOrientation(Orientation::RLeft);
 355:GUI/FX/../../Drivers/daisy_ILI9341.hpp **** 
 356:GUI/FX/../../Drivers/daisy_ILI9341.hpp ****         transport_.Reset();
 357:GUI/FX/../../Drivers/daisy_ILI9341.hpp **** 
 358:GUI/FX/../../Drivers/daisy_ILI9341.hpp ****         //Software Reset
 359:GUI/FX/../../Drivers/daisy_ILI9341.hpp ****         transport_.SendCommand(0x01);
 360:GUI/FX/../../Drivers/daisy_ILI9341.hpp ****         System::Delay(100); // TODO: maybe less?
 361:GUI/FX/../../Drivers/daisy_ILI9341.hpp **** 
 362:GUI/FX/../../Drivers/daisy_ILI9341.hpp ****         // command list is based on https://github.com/martnak/STM32-ILI9341
 363:GUI/FX/../../Drivers/daisy_ILI9341.hpp **** 
 364:GUI/FX/../../Drivers/daisy_ILI9341.hpp ****         // POWER CONTROL A
 365:GUI/FX/../../Drivers/daisy_ILI9341.hpp ****         transport_.SendCommand(0xCB);
 366:GUI/FX/../../Drivers/daisy_ILI9341.hpp ****         {
 367:GUI/FX/../../Drivers/daisy_ILI9341.hpp ****             uint8_t data[5] = {0x39, 0x2C, 0x00, 0x34, 0x02};
 368:GUI/FX/../../Drivers/daisy_ILI9341.hpp ****             transport_.SendData(data, 5);
 369:GUI/FX/../../Drivers/daisy_ILI9341.hpp ****         }
 370:GUI/FX/../../Drivers/daisy_ILI9341.hpp **** 
 371:GUI/FX/../../Drivers/daisy_ILI9341.hpp ****         // POWER CONTROL B
 372:GUI/FX/../../Drivers/daisy_ILI9341.hpp ****         transport_.SendCommand(0xCF);
ARM GAS  /var/folders/wz/z09yph4n0qj4t7mjxhl6ttn80000gn/T//ccWBe4mu.s 			page 8


 373:GUI/FX/../../Drivers/daisy_ILI9341.hpp ****         {
 374:GUI/FX/../../Drivers/daisy_ILI9341.hpp ****             uint8_t data[3] = {0x00, 0xC1, 0x30};
 375:GUI/FX/../../Drivers/daisy_ILI9341.hpp ****             transport_.SendData(data, 3);
 376:GUI/FX/../../Drivers/daisy_ILI9341.hpp ****         }
 377:GUI/FX/../../Drivers/daisy_ILI9341.hpp **** 
 378:GUI/FX/../../Drivers/daisy_ILI9341.hpp ****         // DRIVER TIMING CONTROL A
 379:GUI/FX/../../Drivers/daisy_ILI9341.hpp ****         transport_.SendCommand(0xE8);
 380:GUI/FX/../../Drivers/daisy_ILI9341.hpp ****         {
 381:GUI/FX/../../Drivers/daisy_ILI9341.hpp ****             uint8_t data[3] = {0x85, 0x00, 0x78};
 382:GUI/FX/../../Drivers/daisy_ILI9341.hpp ****             transport_.SendData(data, 3);
 383:GUI/FX/../../Drivers/daisy_ILI9341.hpp ****         }
 384:GUI/FX/../../Drivers/daisy_ILI9341.hpp **** 
 385:GUI/FX/../../Drivers/daisy_ILI9341.hpp ****         // DRIVER TIMING CONTROL B
 386:GUI/FX/../../Drivers/daisy_ILI9341.hpp ****         transport_.SendCommand(0xEA);
 387:GUI/FX/../../Drivers/daisy_ILI9341.hpp ****         {
 388:GUI/FX/../../Drivers/daisy_ILI9341.hpp ****             uint8_t data[2] = {0x00, 0x00};
 389:GUI/FX/../../Drivers/daisy_ILI9341.hpp ****             transport_.SendData(data, 2);
 390:GUI/FX/../../Drivers/daisy_ILI9341.hpp ****         }
 391:GUI/FX/../../Drivers/daisy_ILI9341.hpp **** 
 392:GUI/FX/../../Drivers/daisy_ILI9341.hpp ****         // POWER ON SEQUENCE CONTROL
 393:GUI/FX/../../Drivers/daisy_ILI9341.hpp ****         transport_.SendCommand(0xED);
 394:GUI/FX/../../Drivers/daisy_ILI9341.hpp ****         {
 395:GUI/FX/../../Drivers/daisy_ILI9341.hpp ****             uint8_t data[4] = {0x64, 0x03, 0x12, 0x81};
 396:GUI/FX/../../Drivers/daisy_ILI9341.hpp ****             transport_.SendData(data, 4);
 397:GUI/FX/../../Drivers/daisy_ILI9341.hpp ****         }
 398:GUI/FX/../../Drivers/daisy_ILI9341.hpp **** 
 399:GUI/FX/../../Drivers/daisy_ILI9341.hpp ****         // PUMP RATIO CONTROL
 400:GUI/FX/../../Drivers/daisy_ILI9341.hpp ****         transport_.SendCommand(0xF7);
 401:GUI/FX/../../Drivers/daisy_ILI9341.hpp ****         {
 402:GUI/FX/../../Drivers/daisy_ILI9341.hpp ****             uint8_t data[1] = {0x20};
 403:GUI/FX/../../Drivers/daisy_ILI9341.hpp ****             transport_.SendData(data, 1);
 404:GUI/FX/../../Drivers/daisy_ILI9341.hpp ****         }
 405:GUI/FX/../../Drivers/daisy_ILI9341.hpp **** 
 406:GUI/FX/../../Drivers/daisy_ILI9341.hpp ****         // POWER CONTROL,VRH[5:0]
 407:GUI/FX/../../Drivers/daisy_ILI9341.hpp ****         transport_.SendCommand(0xC0);
 408:GUI/FX/../../Drivers/daisy_ILI9341.hpp ****         {
 409:GUI/FX/../../Drivers/daisy_ILI9341.hpp ****             uint8_t data[1] = {0x23};
 410:GUI/FX/../../Drivers/daisy_ILI9341.hpp ****             transport_.SendData(data, 1);
 411:GUI/FX/../../Drivers/daisy_ILI9341.hpp ****         }
 412:GUI/FX/../../Drivers/daisy_ILI9341.hpp **** 
 413:GUI/FX/../../Drivers/daisy_ILI9341.hpp ****         // POWER CONTROL,SAP[2:0];BT[3:0]
 414:GUI/FX/../../Drivers/daisy_ILI9341.hpp ****         transport_.SendCommand(0xC1);
 415:GUI/FX/../../Drivers/daisy_ILI9341.hpp ****         {
 416:GUI/FX/../../Drivers/daisy_ILI9341.hpp ****             uint8_t data[1] = {0x10};
 417:GUI/FX/../../Drivers/daisy_ILI9341.hpp ****             transport_.SendData(data, 1);
 418:GUI/FX/../../Drivers/daisy_ILI9341.hpp ****         }
 419:GUI/FX/../../Drivers/daisy_ILI9341.hpp **** 
 420:GUI/FX/../../Drivers/daisy_ILI9341.hpp ****         // VCM CONTROL
 421:GUI/FX/../../Drivers/daisy_ILI9341.hpp ****         transport_.SendCommand(0xC5);
 422:GUI/FX/../../Drivers/daisy_ILI9341.hpp ****         {
 423:GUI/FX/../../Drivers/daisy_ILI9341.hpp ****             uint8_t data[2] = {0x3E, 0x28};
 424:GUI/FX/../../Drivers/daisy_ILI9341.hpp ****             transport_.SendData(data, 2);
 425:GUI/FX/../../Drivers/daisy_ILI9341.hpp ****         }
 426:GUI/FX/../../Drivers/daisy_ILI9341.hpp **** 
 427:GUI/FX/../../Drivers/daisy_ILI9341.hpp ****         // VCM CONTROL 2
 428:GUI/FX/../../Drivers/daisy_ILI9341.hpp ****         transport_.SendCommand(0xC7);
 429:GUI/FX/../../Drivers/daisy_ILI9341.hpp ****         {
ARM GAS  /var/folders/wz/z09yph4n0qj4t7mjxhl6ttn80000gn/T//ccWBe4mu.s 			page 9


 430:GUI/FX/../../Drivers/daisy_ILI9341.hpp ****             uint8_t data[1] = {0x86};
 431:GUI/FX/../../Drivers/daisy_ILI9341.hpp ****             transport_.SendData(data, 1);
 432:GUI/FX/../../Drivers/daisy_ILI9341.hpp ****         }
 433:GUI/FX/../../Drivers/daisy_ILI9341.hpp **** 
 434:GUI/FX/../../Drivers/daisy_ILI9341.hpp ****         // MEMORY ACCESS CONTROL
 435:GUI/FX/../../Drivers/daisy_ILI9341.hpp ****         transport_.SendCommand(0x36);
 436:GUI/FX/../../Drivers/daisy_ILI9341.hpp ****         {
 437:GUI/FX/../../Drivers/daisy_ILI9341.hpp ****             uint8_t data[1] = {0x48};
 438:GUI/FX/../../Drivers/daisy_ILI9341.hpp ****             transport_.SendData(data, 1);
 439:GUI/FX/../../Drivers/daisy_ILI9341.hpp ****         }
 440:GUI/FX/../../Drivers/daisy_ILI9341.hpp **** 
 441:GUI/FX/../../Drivers/daisy_ILI9341.hpp ****         // PIXEL FORMAT
 442:GUI/FX/../../Drivers/daisy_ILI9341.hpp ****         transport_.SendCommand(0x3A);
 443:GUI/FX/../../Drivers/daisy_ILI9341.hpp ****         {
 444:GUI/FX/../../Drivers/daisy_ILI9341.hpp ****             uint8_t data[1] = {0x55};
 445:GUI/FX/../../Drivers/daisy_ILI9341.hpp ****             transport_.SendData(data, 1);
 446:GUI/FX/../../Drivers/daisy_ILI9341.hpp ****         }
 447:GUI/FX/../../Drivers/daisy_ILI9341.hpp **** 
 448:GUI/FX/../../Drivers/daisy_ILI9341.hpp ****         // FRAME RATIO CONTROL, STANDARD RGB COLOR
 449:GUI/FX/../../Drivers/daisy_ILI9341.hpp ****         transport_.SendCommand(0xB1);
 450:GUI/FX/../../Drivers/daisy_ILI9341.hpp ****         {
 451:GUI/FX/../../Drivers/daisy_ILI9341.hpp ****             uint8_t data[2] = {0x00, 0x18};
 452:GUI/FX/../../Drivers/daisy_ILI9341.hpp ****             transport_.SendData(data, 2);
 453:GUI/FX/../../Drivers/daisy_ILI9341.hpp ****         }
 454:GUI/FX/../../Drivers/daisy_ILI9341.hpp **** 
 455:GUI/FX/../../Drivers/daisy_ILI9341.hpp ****         // DISPLAY FUNCTION CONTROL
 456:GUI/FX/../../Drivers/daisy_ILI9341.hpp ****         transport_.SendCommand(0xB6);
 457:GUI/FX/../../Drivers/daisy_ILI9341.hpp ****         {
 458:GUI/FX/../../Drivers/daisy_ILI9341.hpp ****             uint8_t data[3] = {0x08, 0x82, 0x27};
 459:GUI/FX/../../Drivers/daisy_ILI9341.hpp ****             transport_.SendData(data, 3);
 460:GUI/FX/../../Drivers/daisy_ILI9341.hpp ****         }
 461:GUI/FX/../../Drivers/daisy_ILI9341.hpp **** 
 462:GUI/FX/../../Drivers/daisy_ILI9341.hpp ****         // 3GAMMA FUNCTION DISABLE
 463:GUI/FX/../../Drivers/daisy_ILI9341.hpp ****         transport_.SendCommand(0xF2);
 464:GUI/FX/../../Drivers/daisy_ILI9341.hpp ****         {
 465:GUI/FX/../../Drivers/daisy_ILI9341.hpp ****             uint8_t data[1] = {0x00};
 466:GUI/FX/../../Drivers/daisy_ILI9341.hpp ****             transport_.SendData(data, 1);
 467:GUI/FX/../../Drivers/daisy_ILI9341.hpp ****         }
 468:GUI/FX/../../Drivers/daisy_ILI9341.hpp **** 
 469:GUI/FX/../../Drivers/daisy_ILI9341.hpp ****         // GAMMA CURVE SELECTED
 470:GUI/FX/../../Drivers/daisy_ILI9341.hpp ****         transport_.SendCommand(0x26);
 471:GUI/FX/../../Drivers/daisy_ILI9341.hpp ****         {
 472:GUI/FX/../../Drivers/daisy_ILI9341.hpp ****             uint8_t data[1] = {0x01};
 473:GUI/FX/../../Drivers/daisy_ILI9341.hpp ****             transport_.SendData(data, 1);
 474:GUI/FX/../../Drivers/daisy_ILI9341.hpp ****         }
 475:GUI/FX/../../Drivers/daisy_ILI9341.hpp **** 
 476:GUI/FX/../../Drivers/daisy_ILI9341.hpp ****         // POSITIVE GAMMA CORRECTION
 477:GUI/FX/../../Drivers/daisy_ILI9341.hpp ****         transport_.SendCommand(0xE0);
 478:GUI/FX/../../Drivers/daisy_ILI9341.hpp ****         {
 479:GUI/FX/../../Drivers/daisy_ILI9341.hpp ****             uint8_t data[15] = {0x0F,
 480:GUI/FX/../../Drivers/daisy_ILI9341.hpp ****                                 0x31,
 481:GUI/FX/../../Drivers/daisy_ILI9341.hpp ****                                 0x2B,
 482:GUI/FX/../../Drivers/daisy_ILI9341.hpp ****                                 0x0C,
 483:GUI/FX/../../Drivers/daisy_ILI9341.hpp ****                                 0x0E,
 484:GUI/FX/../../Drivers/daisy_ILI9341.hpp ****                                 0x08,
 485:GUI/FX/../../Drivers/daisy_ILI9341.hpp ****                                 0x4E,
 486:GUI/FX/../../Drivers/daisy_ILI9341.hpp ****                                 0xF1,
ARM GAS  /var/folders/wz/z09yph4n0qj4t7mjxhl6ttn80000gn/T//ccWBe4mu.s 			page 10


 487:GUI/FX/../../Drivers/daisy_ILI9341.hpp ****                                 0x37,
 488:GUI/FX/../../Drivers/daisy_ILI9341.hpp ****                                 0x07,
 489:GUI/FX/../../Drivers/daisy_ILI9341.hpp ****                                 0x10,
 490:GUI/FX/../../Drivers/daisy_ILI9341.hpp ****                                 0x03,
 491:GUI/FX/../../Drivers/daisy_ILI9341.hpp ****                                 0x0E,
 492:GUI/FX/../../Drivers/daisy_ILI9341.hpp ****                                 0x09,
 493:GUI/FX/../../Drivers/daisy_ILI9341.hpp ****                                 0x00};
 494:GUI/FX/../../Drivers/daisy_ILI9341.hpp ****             transport_.SendData(data, 15);
 495:GUI/FX/../../Drivers/daisy_ILI9341.hpp ****         }
 496:GUI/FX/../../Drivers/daisy_ILI9341.hpp **** 
 497:GUI/FX/../../Drivers/daisy_ILI9341.hpp ****         // NEGATIVE GAMMA CORRECTION
 498:GUI/FX/../../Drivers/daisy_ILI9341.hpp ****         transport_.SendCommand(0xE1);
 499:GUI/FX/../../Drivers/daisy_ILI9341.hpp ****         {
 500:GUI/FX/../../Drivers/daisy_ILI9341.hpp ****             uint8_t data[15] = {0x00,
 501:GUI/FX/../../Drivers/daisy_ILI9341.hpp ****                                 0x0E,
 502:GUI/FX/../../Drivers/daisy_ILI9341.hpp ****                                 0x14,
 503:GUI/FX/../../Drivers/daisy_ILI9341.hpp ****                                 0x03,
 504:GUI/FX/../../Drivers/daisy_ILI9341.hpp ****                                 0x11,
 505:GUI/FX/../../Drivers/daisy_ILI9341.hpp ****                                 0x07,
 506:GUI/FX/../../Drivers/daisy_ILI9341.hpp ****                                 0x31,
 507:GUI/FX/../../Drivers/daisy_ILI9341.hpp ****                                 0xC1,
 508:GUI/FX/../../Drivers/daisy_ILI9341.hpp ****                                 0x48,
 509:GUI/FX/../../Drivers/daisy_ILI9341.hpp ****                                 0x08,
 510:GUI/FX/../../Drivers/daisy_ILI9341.hpp ****                                 0x0F,
 511:GUI/FX/../../Drivers/daisy_ILI9341.hpp ****                                 0x0C,
 512:GUI/FX/../../Drivers/daisy_ILI9341.hpp ****                                 0x31,
 513:GUI/FX/../../Drivers/daisy_ILI9341.hpp ****                                 0x36,
 514:GUI/FX/../../Drivers/daisy_ILI9341.hpp ****                                 0x0F};
 515:GUI/FX/../../Drivers/daisy_ILI9341.hpp ****             transport_.SendData(data, 15);
 516:GUI/FX/../../Drivers/daisy_ILI9341.hpp ****         }
 517:GUI/FX/../../Drivers/daisy_ILI9341.hpp **** 
 518:GUI/FX/../../Drivers/daisy_ILI9341.hpp ****         // EXIT SLEEP
 519:GUI/FX/../../Drivers/daisy_ILI9341.hpp ****         transport_.SendCommand(0x11);
 520:GUI/FX/../../Drivers/daisy_ILI9341.hpp ****         System::Delay(120);
 521:GUI/FX/../../Drivers/daisy_ILI9341.hpp **** 
 522:GUI/FX/../../Drivers/daisy_ILI9341.hpp ****         // TURN ON DISPLAY
 523:GUI/FX/../../Drivers/daisy_ILI9341.hpp ****         transport_.SendCommand(0x29);
 524:GUI/FX/../../Drivers/daisy_ILI9341.hpp **** 
 525:GUI/FX/../../Drivers/daisy_ILI9341.hpp ****         // MADCTL
 526:GUI/FX/../../Drivers/daisy_ILI9341.hpp ****         transport_.SendCommand(0x36);
 527:GUI/FX/../../Drivers/daisy_ILI9341.hpp ****         System::Delay(10);
 528:GUI/FX/../../Drivers/daisy_ILI9341.hpp **** 
 529:GUI/FX/../../Drivers/daisy_ILI9341.hpp ****         {
 530:GUI/FX/../../Drivers/daisy_ILI9341.hpp ****             uint8_t data[1] = {rotation};
 531:GUI/FX/../../Drivers/daisy_ILI9341.hpp ****             transport_.SendData(data, 1);
 532:GUI/FX/../../Drivers/daisy_ILI9341.hpp ****         }
 533:GUI/FX/../../Drivers/daisy_ILI9341.hpp ****     };
 534:GUI/FX/../../Drivers/daisy_ILI9341.hpp **** 
 535:GUI/FX/../../Drivers/daisy_ILI9341.hpp ****     void SetOrientation(Orientation ori)
 536:GUI/FX/../../Drivers/daisy_ILI9341.hpp ****     {
 537:GUI/FX/../../Drivers/daisy_ILI9341.hpp ****         uint8_t ili_bgr = 0x08;
 538:GUI/FX/../../Drivers/daisy_ILI9341.hpp ****         uint8_t ili_mx  = 0x40;
 539:GUI/FX/../../Drivers/daisy_ILI9341.hpp ****         uint8_t ili_my  = 0x80;
 540:GUI/FX/../../Drivers/daisy_ILI9341.hpp ****         uint8_t ili_mv  = 0x20;
 541:GUI/FX/../../Drivers/daisy_ILI9341.hpp ****         switch(ori)
 542:GUI/FX/../../Drivers/daisy_ILI9341.hpp ****         {
 543:GUI/FX/../../Drivers/daisy_ILI9341.hpp ****             case Orientation::RRight:
ARM GAS  /var/folders/wz/z09yph4n0qj4t7mjxhl6ttn80000gn/T//ccWBe4mu.s 			page 11


 544:GUI/FX/../../Drivers/daisy_ILI9341.hpp ****             {
 545:GUI/FX/../../Drivers/daisy_ILI9341.hpp ****                 width    = 320;
 546:GUI/FX/../../Drivers/daisy_ILI9341.hpp ****                 height   = 240;
 547:GUI/FX/../../Drivers/daisy_ILI9341.hpp ****                 rotation = ili_mx | ili_my | ili_mv | ili_bgr;
 548:GUI/FX/../../Drivers/daisy_ILI9341.hpp ****                 return;
 549:GUI/FX/../../Drivers/daisy_ILI9341.hpp ****             }
 550:GUI/FX/../../Drivers/daisy_ILI9341.hpp ****             case Orientation::RLeft:
 551:GUI/FX/../../Drivers/daisy_ILI9341.hpp ****             {
 552:GUI/FX/../../Drivers/daisy_ILI9341.hpp ****                 width    = 320;
 553:GUI/FX/../../Drivers/daisy_ILI9341.hpp ****                 height   = 240;
 554:GUI/FX/../../Drivers/daisy_ILI9341.hpp ****                 rotation = ili_mv | ili_bgr;
 555:GUI/FX/../../Drivers/daisy_ILI9341.hpp ****                 return;
 556:GUI/FX/../../Drivers/daisy_ILI9341.hpp ****             }
 557:GUI/FX/../../Drivers/daisy_ILI9341.hpp ****             case Orientation::UpsideDown:
 558:GUI/FX/../../Drivers/daisy_ILI9341.hpp ****             {
 559:GUI/FX/../../Drivers/daisy_ILI9341.hpp ****                 width    = 240;
 560:GUI/FX/../../Drivers/daisy_ILI9341.hpp ****                 height   = 320;
 561:GUI/FX/../../Drivers/daisy_ILI9341.hpp ****                 rotation = ili_my | ili_bgr;
 562:GUI/FX/../../Drivers/daisy_ILI9341.hpp ****                 return;
 563:GUI/FX/../../Drivers/daisy_ILI9341.hpp ****             }
 564:GUI/FX/../../Drivers/daisy_ILI9341.hpp ****             default:
 565:GUI/FX/../../Drivers/daisy_ILI9341.hpp ****             {
 566:GUI/FX/../../Drivers/daisy_ILI9341.hpp ****                 width    = 240;
 567:GUI/FX/../../Drivers/daisy_ILI9341.hpp ****                 height   = 320;
 568:GUI/FX/../../Drivers/daisy_ILI9341.hpp ****                 rotation = ili_mx | ili_bgr;
 569:GUI/FX/../../Drivers/daisy_ILI9341.hpp ****             };
 570:GUI/FX/../../Drivers/daisy_ILI9341.hpp ****         }
 571:GUI/FX/../../Drivers/daisy_ILI9341.hpp ****     }
 572:GUI/FX/../../Drivers/daisy_ILI9341.hpp **** 
 573:GUI/FX/../../Drivers/daisy_ILI9341.hpp ****     Rectangle GetDrawableFrame() const
 574:GUI/FX/../../Drivers/daisy_ILI9341.hpp ****     {
 575:GUI/FX/../../Drivers/daisy_ILI9341.hpp ****         return Rectangle(int16_t(width), int16_t(height))
 576:GUI/FX/../../Drivers/daisy_ILI9341.hpp ****             .WithTrimmedTop(header)
 577:GUI/FX/../../Drivers/daisy_ILI9341.hpp ****             .WithTrimmedBottom(footer);
 578:GUI/FX/../../Drivers/daisy_ILI9341.hpp ****     }
 579:GUI/FX/../../Drivers/daisy_ILI9341.hpp **** 
 580:GUI/FX/../../Drivers/daisy_ILI9341.hpp ****     Rectangle GetBounds() const
 581:GUI/FX/../../Drivers/daisy_ILI9341.hpp ****     {
 582:GUI/FX/../../Drivers/daisy_ILI9341.hpp ****         return Rectangle(int16_t(width), int16_t(height));
 583:GUI/FX/../../Drivers/daisy_ILI9341.hpp ****     }
 584:GUI/FX/../../Drivers/daisy_ILI9341.hpp **** 
 585:GUI/FX/../../Drivers/daisy_ILI9341.hpp ****     void Fill(uint8_t color)
 586:GUI/FX/../../Drivers/daisy_ILI9341.hpp ****     {
 587:GUI/FX/../../Drivers/daisy_ILI9341.hpp ****         for(size_t i = 0; i < transport_.buffer_size / 2; i++)
 588:GUI/FX/../../Drivers/daisy_ILI9341.hpp ****         {
 589:GUI/FX/../../Drivers/daisy_ILI9341.hpp ****             transport_.PaintPixel(i * 2, color);
 590:GUI/FX/../../Drivers/daisy_ILI9341.hpp ****         }
 591:GUI/FX/../../Drivers/daisy_ILI9341.hpp ****     };
 592:GUI/FX/../../Drivers/daisy_ILI9341.hpp **** 
 593:GUI/FX/../../Drivers/daisy_ILI9341.hpp ****     void DrawLine(uint_fast16_t x1,
 594:GUI/FX/../../Drivers/daisy_ILI9341.hpp ****                   uint_fast16_t y1,
 595:GUI/FX/../../Drivers/daisy_ILI9341.hpp ****                   uint_fast16_t x2,
 596:GUI/FX/../../Drivers/daisy_ILI9341.hpp ****                   uint_fast16_t y2,
 597:GUI/FX/../../Drivers/daisy_ILI9341.hpp ****                   uint8_t       color,
 598:GUI/FX/../../Drivers/daisy_ILI9341.hpp ****                   uint8_t       alpha = 255)
 599:GUI/FX/../../Drivers/daisy_ILI9341.hpp ****     {
 600:GUI/FX/../../Drivers/daisy_ILI9341.hpp ****         if(x1 == x2)
ARM GAS  /var/folders/wz/z09yph4n0qj4t7mjxhl6ttn80000gn/T//ccWBe4mu.s 			page 12


 601:GUI/FX/../../Drivers/daisy_ILI9341.hpp ****         {
 602:GUI/FX/../../Drivers/daisy_ILI9341.hpp ****             return DrawVLine(x1, y1, y2 - y1 + 1, color, alpha);
 603:GUI/FX/../../Drivers/daisy_ILI9341.hpp ****         }
 604:GUI/FX/../../Drivers/daisy_ILI9341.hpp ****         else if(y1 == y2)
 605:GUI/FX/../../Drivers/daisy_ILI9341.hpp ****         {
 606:GUI/FX/../../Drivers/daisy_ILI9341.hpp ****             return DrawHLine(x1, y1, x2 - x1 + 1, color, alpha);
 607:GUI/FX/../../Drivers/daisy_ILI9341.hpp ****         }
 608:GUI/FX/../../Drivers/daisy_ILI9341.hpp **** 
 609:GUI/FX/../../Drivers/daisy_ILI9341.hpp ****         auto deltaX = abs((int_fast16_t)x2 - (int_fast16_t)x1);
 610:GUI/FX/../../Drivers/daisy_ILI9341.hpp ****         auto deltaY = abs((int_fast16_t)y2 - (int_fast16_t)y1);
 611:GUI/FX/../../Drivers/daisy_ILI9341.hpp ****         auto signX  = ((x1 < x2) ? 1 : -1);
 612:GUI/FX/../../Drivers/daisy_ILI9341.hpp ****         auto signY  = ((y1 < y2) ? 1 : -1);
 613:GUI/FX/../../Drivers/daisy_ILI9341.hpp ****         auto error  = deltaX - deltaY;
 614:GUI/FX/../../Drivers/daisy_ILI9341.hpp **** 
 615:GUI/FX/../../Drivers/daisy_ILI9341.hpp ****         DrawPixel(x2, y2, color, alpha);
 616:GUI/FX/../../Drivers/daisy_ILI9341.hpp **** 
 617:GUI/FX/../../Drivers/daisy_ILI9341.hpp ****         while((x1 != x2) || (y1 != y2))
 618:GUI/FX/../../Drivers/daisy_ILI9341.hpp ****         {
 619:GUI/FX/../../Drivers/daisy_ILI9341.hpp ****             DrawPixel(x1, y1, color, alpha);
 620:GUI/FX/../../Drivers/daisy_ILI9341.hpp ****             auto error2 = error * 2;
 621:GUI/FX/../../Drivers/daisy_ILI9341.hpp ****             if(error2 > -deltaY)
 622:GUI/FX/../../Drivers/daisy_ILI9341.hpp ****             {
 623:GUI/FX/../../Drivers/daisy_ILI9341.hpp ****                 error -= deltaY;
 624:GUI/FX/../../Drivers/daisy_ILI9341.hpp ****                 x1 += signX;
 625:GUI/FX/../../Drivers/daisy_ILI9341.hpp ****             }
 626:GUI/FX/../../Drivers/daisy_ILI9341.hpp **** 
 627:GUI/FX/../../Drivers/daisy_ILI9341.hpp ****             if(error2 < deltaX)
 628:GUI/FX/../../Drivers/daisy_ILI9341.hpp ****             {
 629:GUI/FX/../../Drivers/daisy_ILI9341.hpp ****                 error += deltaX;
 630:GUI/FX/../../Drivers/daisy_ILI9341.hpp ****                 y1 += signY;
 631:GUI/FX/../../Drivers/daisy_ILI9341.hpp ****             }
 632:GUI/FX/../../Drivers/daisy_ILI9341.hpp ****         }
 633:GUI/FX/../../Drivers/daisy_ILI9341.hpp ****     }
 634:GUI/FX/../../Drivers/daisy_ILI9341.hpp **** 
 635:GUI/FX/../../Drivers/daisy_ILI9341.hpp ****     void FillArea(uint_fast16_t x,
 636:GUI/FX/../../Drivers/daisy_ILI9341.hpp ****                   uint_fast16_t y,
 637:GUI/FX/../../Drivers/daisy_ILI9341.hpp ****                   uint_fast16_t w,
 638:GUI/FX/../../Drivers/daisy_ILI9341.hpp ****                   uint_fast16_t h,
 639:GUI/FX/../../Drivers/daisy_ILI9341.hpp ****                   uint8_t       color,
 640:GUI/FX/../../Drivers/daisy_ILI9341.hpp ****                   uint8_t       alpha = 255)
 641:GUI/FX/../../Drivers/daisy_ILI9341.hpp ****     {
 642:GUI/FX/../../Drivers/daisy_ILI9341.hpp ****         // Loop through every Y sector
 643:GUI/FX/../../Drivers/daisy_ILI9341.hpp ****         for(size_t i = 0; i < h; i++)
 644:GUI/FX/../../Drivers/daisy_ILI9341.hpp ****         {
 645:GUI/FX/../../Drivers/daisy_ILI9341.hpp ****             for(size_t j = 0; j < w; j++)
 646:GUI/FX/../../Drivers/daisy_ILI9341.hpp ****             {
 647:GUI/FX/../../Drivers/daisy_ILI9341.hpp ****                 DrawPixel(x + j, y + i, color, alpha);
 648:GUI/FX/../../Drivers/daisy_ILI9341.hpp ****             }
 649:GUI/FX/../../Drivers/daisy_ILI9341.hpp ****         }
 650:GUI/FX/../../Drivers/daisy_ILI9341.hpp ****     };
 651:GUI/FX/../../Drivers/daisy_ILI9341.hpp **** 
 652:GUI/FX/../../Drivers/daisy_ILI9341.hpp ****     void DrawRect(uint16_t x,
 653:GUI/FX/../../Drivers/daisy_ILI9341.hpp ****                   uint16_t y,
 654:GUI/FX/../../Drivers/daisy_ILI9341.hpp ****                   uint16_t w,
 655:GUI/FX/../../Drivers/daisy_ILI9341.hpp ****                   uint16_t h,
 656:GUI/FX/../../Drivers/daisy_ILI9341.hpp ****                   uint8_t  color,
 657:GUI/FX/../../Drivers/daisy_ILI9341.hpp ****                   uint8_t  alpha = 255)
ARM GAS  /var/folders/wz/z09yph4n0qj4t7mjxhl6ttn80000gn/T//ccWBe4mu.s 			page 13


 658:GUI/FX/../../Drivers/daisy_ILI9341.hpp ****     {
 659:GUI/FX/../../Drivers/daisy_ILI9341.hpp ****         auto x2 = x + w;
 660:GUI/FX/../../Drivers/daisy_ILI9341.hpp ****         auto y2 = y + h;
 661:GUI/FX/../../Drivers/daisy_ILI9341.hpp ****         DrawLine(x, y, x, y2, color, alpha);
 662:GUI/FX/../../Drivers/daisy_ILI9341.hpp ****         DrawLine(x, y, x2, y, color, alpha);
 663:GUI/FX/../../Drivers/daisy_ILI9341.hpp ****         DrawLine(x, y2, x2, y2, color, alpha);
 664:GUI/FX/../../Drivers/daisy_ILI9341.hpp ****         DrawLine(x2, y, x2, y2, color, alpha);
 665:GUI/FX/../../Drivers/daisy_ILI9341.hpp ****     }
 666:GUI/FX/../../Drivers/daisy_ILI9341.hpp **** 
 667:GUI/FX/../../Drivers/daisy_ILI9341.hpp ****     void DrawRect(const Rectangle& rect, uint8_t color, uint8_t alpha = 255)
 668:GUI/FX/../../Drivers/daisy_ILI9341.hpp ****     {
 669:GUI/FX/../../Drivers/daisy_ILI9341.hpp ****         DrawRect(rect.GetX(),
 670:GUI/FX/../../Drivers/daisy_ILI9341.hpp ****                  rect.GetY(),
 671:GUI/FX/../../Drivers/daisy_ILI9341.hpp ****                  rect.GetWidth(),
 672:GUI/FX/../../Drivers/daisy_ILI9341.hpp ****                  rect.GetHeight(),
 673:GUI/FX/../../Drivers/daisy_ILI9341.hpp ****                  color,
 674:GUI/FX/../../Drivers/daisy_ILI9341.hpp ****                  alpha);
 675:GUI/FX/../../Drivers/daisy_ILI9341.hpp ****     }
 676:GUI/FX/../../Drivers/daisy_ILI9341.hpp **** 
 677:GUI/FX/../../Drivers/daisy_ILI9341.hpp ****     void FillRect(const Rectangle& rect, uint8_t color, uint8_t alpha = 255)
 678:GUI/FX/../../Drivers/daisy_ILI9341.hpp ****     {
 679:GUI/FX/../../Drivers/daisy_ILI9341.hpp ****         FillArea(rect.GetX(),
 680:GUI/FX/../../Drivers/daisy_ILI9341.hpp ****                  rect.GetY(),
 681:GUI/FX/../../Drivers/daisy_ILI9341.hpp ****                  rect.GetWidth(),
 682:GUI/FX/../../Drivers/daisy_ILI9341.hpp ****                  rect.GetHeight(),
 683:GUI/FX/../../Drivers/daisy_ILI9341.hpp ****                  color,
 684:GUI/FX/../../Drivers/daisy_ILI9341.hpp ****                  alpha);
 685:GUI/FX/../../Drivers/daisy_ILI9341.hpp ****     };
 686:GUI/FX/../../Drivers/daisy_ILI9341.hpp **** 
 687:GUI/FX/../../Drivers/daisy_ILI9341.hpp ****     void DrawTriangle(int16_t x0,
 688:GUI/FX/../../Drivers/daisy_ILI9341.hpp ****                       int16_t y0,
 689:GUI/FX/../../Drivers/daisy_ILI9341.hpp ****                       int16_t x1,
 690:GUI/FX/../../Drivers/daisy_ILI9341.hpp ****                       int16_t y1,
 691:GUI/FX/../../Drivers/daisy_ILI9341.hpp ****                       int16_t x2,
 692:GUI/FX/../../Drivers/daisy_ILI9341.hpp ****                       int16_t y2,
 693:GUI/FX/../../Drivers/daisy_ILI9341.hpp ****                       uint8_t color,
 694:GUI/FX/../../Drivers/daisy_ILI9341.hpp ****                       uint8_t alpha = 255)
 695:GUI/FX/../../Drivers/daisy_ILI9341.hpp ****     {
 696:GUI/FX/../../Drivers/daisy_ILI9341.hpp ****         DrawLine(x0, y0, x1, y1, color, alpha);
 697:GUI/FX/../../Drivers/daisy_ILI9341.hpp ****         DrawLine(x1, y1, x2, y2, color, alpha);
 698:GUI/FX/../../Drivers/daisy_ILI9341.hpp ****         DrawLine(x2, y2, x0, y0, color, alpha);
 699:GUI/FX/../../Drivers/daisy_ILI9341.hpp ****     }
 700:GUI/FX/../../Drivers/daisy_ILI9341.hpp **** 
 701:GUI/FX/../../Drivers/daisy_ILI9341.hpp ****     void FillTriangle(int16_t x0,
 702:GUI/FX/../../Drivers/daisy_ILI9341.hpp ****                       int16_t y0,
 703:GUI/FX/../../Drivers/daisy_ILI9341.hpp ****                       int16_t x1,
 704:GUI/FX/../../Drivers/daisy_ILI9341.hpp ****                       int16_t y1,
 705:GUI/FX/../../Drivers/daisy_ILI9341.hpp ****                       int16_t x2,
 706:GUI/FX/../../Drivers/daisy_ILI9341.hpp ****                       int16_t y2,
 707:GUI/FX/../../Drivers/daisy_ILI9341.hpp ****                       uint8_t color,
 708:GUI/FX/../../Drivers/daisy_ILI9341.hpp ****                       uint8_t alpha = 255)
 709:GUI/FX/../../Drivers/daisy_ILI9341.hpp ****     {
 710:GUI/FX/../../Drivers/daisy_ILI9341.hpp ****         int16_t a, b, y, last;
 711:GUI/FX/../../Drivers/daisy_ILI9341.hpp **** 
 712:GUI/FX/../../Drivers/daisy_ILI9341.hpp ****         // Sort coordinates by Y order (y2 >= y1 >= y0)
 713:GUI/FX/../../Drivers/daisy_ILI9341.hpp ****         if(y0 > y1)
 714:GUI/FX/../../Drivers/daisy_ILI9341.hpp ****         {
ARM GAS  /var/folders/wz/z09yph4n0qj4t7mjxhl6ttn80000gn/T//ccWBe4mu.s 			page 14


 715:GUI/FX/../../Drivers/daisy_ILI9341.hpp ****             std::swap(y0, y1);
 716:GUI/FX/../../Drivers/daisy_ILI9341.hpp ****             std::swap(x0, x1);
 717:GUI/FX/../../Drivers/daisy_ILI9341.hpp ****         }
 718:GUI/FX/../../Drivers/daisy_ILI9341.hpp ****         if(y1 > y2)
 719:GUI/FX/../../Drivers/daisy_ILI9341.hpp ****         {
 720:GUI/FX/../../Drivers/daisy_ILI9341.hpp ****             std::swap(y2, y1);
 721:GUI/FX/../../Drivers/daisy_ILI9341.hpp ****             std::swap(x2, x1);
 722:GUI/FX/../../Drivers/daisy_ILI9341.hpp ****         }
 723:GUI/FX/../../Drivers/daisy_ILI9341.hpp ****         if(y0 > y1)
 724:GUI/FX/../../Drivers/daisy_ILI9341.hpp ****         {
 725:GUI/FX/../../Drivers/daisy_ILI9341.hpp ****             std::swap(y0, y1);
 726:GUI/FX/../../Drivers/daisy_ILI9341.hpp ****             std::swap(x0, x1);
 727:GUI/FX/../../Drivers/daisy_ILI9341.hpp ****         }
 728:GUI/FX/../../Drivers/daisy_ILI9341.hpp **** 
 729:GUI/FX/../../Drivers/daisy_ILI9341.hpp ****         if(y0 == y2)
 730:GUI/FX/../../Drivers/daisy_ILI9341.hpp ****         { // Handle awkward all-on-same-line case as its own thing
 731:GUI/FX/../../Drivers/daisy_ILI9341.hpp ****             a = b = x0;
 732:GUI/FX/../../Drivers/daisy_ILI9341.hpp ****             if(x1 < a)
 733:GUI/FX/../../Drivers/daisy_ILI9341.hpp ****                 a = x1;
 734:GUI/FX/../../Drivers/daisy_ILI9341.hpp ****             else if(x1 > b)
 735:GUI/FX/../../Drivers/daisy_ILI9341.hpp ****                 b = x1;
 736:GUI/FX/../../Drivers/daisy_ILI9341.hpp ****             if(x2 < a)
 737:GUI/FX/../../Drivers/daisy_ILI9341.hpp ****                 a = x2;
 738:GUI/FX/../../Drivers/daisy_ILI9341.hpp ****             else if(x2 > b)
 739:GUI/FX/../../Drivers/daisy_ILI9341.hpp ****                 b = x2;
 740:GUI/FX/../../Drivers/daisy_ILI9341.hpp ****             DrawHLine(a, y0, b - a + 1, color, alpha);
 741:GUI/FX/../../Drivers/daisy_ILI9341.hpp ****             return;
 742:GUI/FX/../../Drivers/daisy_ILI9341.hpp ****         }
 743:GUI/FX/../../Drivers/daisy_ILI9341.hpp **** 
 744:GUI/FX/../../Drivers/daisy_ILI9341.hpp ****         int16_t dx01 = x1 - x0, dy01 = y1 - y0, dx02 = x2 - x0, dy02 = y2 - y0,
 745:GUI/FX/../../Drivers/daisy_ILI9341.hpp ****                 dx12 = x2 - x1, dy12 = y2 - y1;
 746:GUI/FX/../../Drivers/daisy_ILI9341.hpp ****         int32_t sa = 0, sb = 0;
 747:GUI/FX/../../Drivers/daisy_ILI9341.hpp **** 
 748:GUI/FX/../../Drivers/daisy_ILI9341.hpp ****         // For upper part of triangle, find scanline crossings for segments
 749:GUI/FX/../../Drivers/daisy_ILI9341.hpp ****         // 0-1 and 0-2.  If y1=y2 (flat-bottomed triangle), the scanline y1
 750:GUI/FX/../../Drivers/daisy_ILI9341.hpp ****         // is included here (and second loop will be skipped, avoiding a /0
 751:GUI/FX/../../Drivers/daisy_ILI9341.hpp ****         // error there), otherwise scanline y1 is skipped here and handled
 752:GUI/FX/../../Drivers/daisy_ILI9341.hpp ****         // in the second loop...which also avoids a /0 error here if y0=y1
 753:GUI/FX/../../Drivers/daisy_ILI9341.hpp ****         // (flat-topped triangle).
 754:GUI/FX/../../Drivers/daisy_ILI9341.hpp ****         if(y1 == y2)
 755:GUI/FX/../../Drivers/daisy_ILI9341.hpp ****         {
 756:GUI/FX/../../Drivers/daisy_ILI9341.hpp ****             last = y1; // Include y1 scanline
 757:GUI/FX/../../Drivers/daisy_ILI9341.hpp ****         }
 758:GUI/FX/../../Drivers/daisy_ILI9341.hpp ****         else
 759:GUI/FX/../../Drivers/daisy_ILI9341.hpp ****         {
 760:GUI/FX/../../Drivers/daisy_ILI9341.hpp ****             last = y1 - 1; // Skip it
 761:GUI/FX/../../Drivers/daisy_ILI9341.hpp ****         }
 762:GUI/FX/../../Drivers/daisy_ILI9341.hpp **** 
 763:GUI/FX/../../Drivers/daisy_ILI9341.hpp ****         for(y = y0; y <= last; y++)
 764:GUI/FX/../../Drivers/daisy_ILI9341.hpp ****         {
 765:GUI/FX/../../Drivers/daisy_ILI9341.hpp ****             a = x0 + sa / dy01;
 766:GUI/FX/../../Drivers/daisy_ILI9341.hpp ****             b = x0 + sb / dy02;
 767:GUI/FX/../../Drivers/daisy_ILI9341.hpp ****             sa += dx01;
 768:GUI/FX/../../Drivers/daisy_ILI9341.hpp ****             sb += dx02;
 769:GUI/FX/../../Drivers/daisy_ILI9341.hpp ****             /* longhand:
 770:GUI/FX/../../Drivers/daisy_ILI9341.hpp ****             a = x0 + (x1 - x0) * (y - y0) / (y1 - y0);
 771:GUI/FX/../../Drivers/daisy_ILI9341.hpp ****             b = x0 + (x2 - x0) * (y - y0) / (y2 - y0);
ARM GAS  /var/folders/wz/z09yph4n0qj4t7mjxhl6ttn80000gn/T//ccWBe4mu.s 			page 15


 772:GUI/FX/../../Drivers/daisy_ILI9341.hpp ****             */
 773:GUI/FX/../../Drivers/daisy_ILI9341.hpp ****             if(a > b)
 774:GUI/FX/../../Drivers/daisy_ILI9341.hpp ****             {
 775:GUI/FX/../../Drivers/daisy_ILI9341.hpp ****                 std::swap(a, b);
 776:GUI/FX/../../Drivers/daisy_ILI9341.hpp ****             }
 777:GUI/FX/../../Drivers/daisy_ILI9341.hpp ****             DrawHLine(a, y, b - a + 1, color, alpha);
 778:GUI/FX/../../Drivers/daisy_ILI9341.hpp ****         }
 779:GUI/FX/../../Drivers/daisy_ILI9341.hpp **** 
 780:GUI/FX/../../Drivers/daisy_ILI9341.hpp ****         // For lower part of triangle, find scanline crossings for segments
 781:GUI/FX/../../Drivers/daisy_ILI9341.hpp ****         // 0-2 and 1-2.  This loop is skipped if y1=y2.
 782:GUI/FX/../../Drivers/daisy_ILI9341.hpp ****         sa = (int32_t)dx12 * (y - y1);
 783:GUI/FX/../../Drivers/daisy_ILI9341.hpp ****         sb = (int32_t)dx02 * (y - y0);
 784:GUI/FX/../../Drivers/daisy_ILI9341.hpp ****         for(; y <= y2; y++)
 785:GUI/FX/../../Drivers/daisy_ILI9341.hpp ****         {
 786:GUI/FX/../../Drivers/daisy_ILI9341.hpp ****             a = x1 + sa / dy12;
 787:GUI/FX/../../Drivers/daisy_ILI9341.hpp ****             b = x0 + sb / dy02;
 788:GUI/FX/../../Drivers/daisy_ILI9341.hpp ****             sa += dx12;
 789:GUI/FX/../../Drivers/daisy_ILI9341.hpp ****             sb += dx02;
 790:GUI/FX/../../Drivers/daisy_ILI9341.hpp ****             /* longhand:
 791:GUI/FX/../../Drivers/daisy_ILI9341.hpp ****                 a = x1 + (x2 - x1) * (y - y1) / (y2 - y1);
 792:GUI/FX/../../Drivers/daisy_ILI9341.hpp ****                 b = x0 + (x2 - x0) * (y - y0) / (y2 - y0);
 793:GUI/FX/../../Drivers/daisy_ILI9341.hpp ****             */
 794:GUI/FX/../../Drivers/daisy_ILI9341.hpp ****             if(a > b)
 795:GUI/FX/../../Drivers/daisy_ILI9341.hpp ****             {
 796:GUI/FX/../../Drivers/daisy_ILI9341.hpp ****                 std::swap(a, b);
 797:GUI/FX/../../Drivers/daisy_ILI9341.hpp ****             }
 798:GUI/FX/../../Drivers/daisy_ILI9341.hpp ****             DrawHLine(a, y, b - a + 1, color, alpha);
 799:GUI/FX/../../Drivers/daisy_ILI9341.hpp ****         }
 800:GUI/FX/../../Drivers/daisy_ILI9341.hpp ****     }
 801:GUI/FX/../../Drivers/daisy_ILI9341.hpp **** 
 802:GUI/FX/../../Drivers/daisy_ILI9341.hpp **** 
 803:GUI/FX/../../Drivers/daisy_ILI9341.hpp ****     Rectangle WriteStringAligned(const char*    str,
 804:GUI/FX/../../Drivers/daisy_ILI9341.hpp ****                                  const FontDef& font,
 805:GUI/FX/../../Drivers/daisy_ILI9341.hpp ****                                  Rectangle      boundingBox,
 806:GUI/FX/../../Drivers/daisy_ILI9341.hpp ****                                  Alignment      alignment,
 807:GUI/FX/../../Drivers/daisy_ILI9341.hpp ****                                  uint8_t        color)
 808:GUI/FX/../../Drivers/daisy_ILI9341.hpp ****     {
 809:GUI/FX/../../Drivers/daisy_ILI9341.hpp ****         const auto alignedRect
 810:GUI/FX/../../Drivers/daisy_ILI9341.hpp ****             = GetTextRect(str, font).AlignedWithin(boundingBox, alignment);
 811:GUI/FX/../../Drivers/daisy_ILI9341.hpp ****         WriteString(str, alignedRect.GetX(), alignedRect.GetY(), font, color);
 812:GUI/FX/../../Drivers/daisy_ILI9341.hpp ****         return alignedRect;
 813:GUI/FX/../../Drivers/daisy_ILI9341.hpp ****     }
 814:GUI/FX/../../Drivers/daisy_ILI9341.hpp **** 
 815:GUI/FX/../../Drivers/daisy_ILI9341.hpp ****     Rectangle GetTextRect(const char* text, const FontDef& font) const
 816:GUI/FX/../../Drivers/daisy_ILI9341.hpp ****     {
 817:GUI/FX/../../Drivers/daisy_ILI9341.hpp ****         return {int16_t(strlen(text) * font.FontWidth), font.FontHeight};
 818:GUI/FX/../../Drivers/daisy_ILI9341.hpp ****     }
 819:GUI/FX/../../Drivers/daisy_ILI9341.hpp **** 
 820:GUI/FX/../../Drivers/daisy_ILI9341.hpp ****     char WriteChar(char ch, FontDef font, uint8_t color)
 821:GUI/FX/../../Drivers/daisy_ILI9341.hpp ****     {
 822:GUI/FX/../../Drivers/daisy_ILI9341.hpp ****         // Check if character is valid
 823:GUI/FX/../../Drivers/daisy_ILI9341.hpp ****         if(ch < 32 || ch > 126)
 824:GUI/FX/../../Drivers/daisy_ILI9341.hpp ****             return 0;
 825:GUI/FX/../../Drivers/daisy_ILI9341.hpp **** 
 826:GUI/FX/../../Drivers/daisy_ILI9341.hpp ****         // Check remaining space on current line
 827:GUI/FX/../../Drivers/daisy_ILI9341.hpp ****         if(width < (currentX_ + font.FontWidth)
 828:GUI/FX/../../Drivers/daisy_ILI9341.hpp ****            || height < (currentY_ + font.FontHeight))
ARM GAS  /var/folders/wz/z09yph4n0qj4t7mjxhl6ttn80000gn/T//ccWBe4mu.s 			page 16


 829:GUI/FX/../../Drivers/daisy_ILI9341.hpp ****         {
 830:GUI/FX/../../Drivers/daisy_ILI9341.hpp ****             return 0;
 831:GUI/FX/../../Drivers/daisy_ILI9341.hpp ****         }
 832:GUI/FX/../../Drivers/daisy_ILI9341.hpp **** 
 833:GUI/FX/../../Drivers/daisy_ILI9341.hpp ****         // Use the font to write
 834:GUI/FX/../../Drivers/daisy_ILI9341.hpp ****         for(auto i = 0; i < font.FontHeight; i++)
 835:GUI/FX/../../Drivers/daisy_ILI9341.hpp ****         {
 836:GUI/FX/../../Drivers/daisy_ILI9341.hpp ****             auto b = font.data[(ch - 32) * font.FontHeight + i];
 837:GUI/FX/../../Drivers/daisy_ILI9341.hpp ****             for(auto j = 0; j < font.FontWidth; j++)
 838:GUI/FX/../../Drivers/daisy_ILI9341.hpp ****             {
 839:GUI/FX/../../Drivers/daisy_ILI9341.hpp ****                 if((b << j) & 0x8000)
 840:GUI/FX/../../Drivers/daisy_ILI9341.hpp ****                 {
 841:GUI/FX/../../Drivers/daisy_ILI9341.hpp ****                     DrawPixel(currentX_ + j, (currentY_ + i), color);
 842:GUI/FX/../../Drivers/daisy_ILI9341.hpp ****                 }
 843:GUI/FX/../../Drivers/daisy_ILI9341.hpp ****             }
 844:GUI/FX/../../Drivers/daisy_ILI9341.hpp ****         }
 845:GUI/FX/../../Drivers/daisy_ILI9341.hpp **** 
 846:GUI/FX/../../Drivers/daisy_ILI9341.hpp ****         // The current space is now taken
 847:GUI/FX/../../Drivers/daisy_ILI9341.hpp ****         SetCursor(currentX_ + font.FontWidth, currentY_);
 848:GUI/FX/../../Drivers/daisy_ILI9341.hpp **** 
 849:GUI/FX/../../Drivers/daisy_ILI9341.hpp ****         return ch;
 850:GUI/FX/../../Drivers/daisy_ILI9341.hpp ****     }
 851:GUI/FX/../../Drivers/daisy_ILI9341.hpp **** 
 852:GUI/FX/../../Drivers/daisy_ILI9341.hpp ****     void WriteString(const char* str, uint16_t x, uint16_t y, FontDef font)
 853:GUI/FX/../../Drivers/daisy_ILI9341.hpp ****     {
 854:GUI/FX/../../Drivers/daisy_ILI9341.hpp ****         WriteString(str, x, y, font, COLOR_WHITE);
 855:GUI/FX/../../Drivers/daisy_ILI9341.hpp ****     }
 856:GUI/FX/../../Drivers/daisy_ILI9341.hpp **** 
 857:GUI/FX/../../Drivers/daisy_ILI9341.hpp ****     void WriteString(const char* str,
 858:GUI/FX/../../Drivers/daisy_ILI9341.hpp ****                      uint16_t    x,
 859:GUI/FX/../../Drivers/daisy_ILI9341.hpp ****                      uint16_t    y,
 860:GUI/FX/../../Drivers/daisy_ILI9341.hpp ****                      FontDef     font,
 861:GUI/FX/../../Drivers/daisy_ILI9341.hpp ****                      uint8_t     color)
 862:GUI/FX/../../Drivers/daisy_ILI9341.hpp ****     {
 863:GUI/FX/../../Drivers/daisy_ILI9341.hpp ****         SetCursor(x, y);
 864:GUI/FX/../../Drivers/daisy_ILI9341.hpp ****         while(*str) // Write until null-byte
 865:GUI/FX/../../Drivers/daisy_ILI9341.hpp ****         {
 866:GUI/FX/../../Drivers/daisy_ILI9341.hpp ****             if(WriteChar(*str, font, color) != *str)
 867:GUI/FX/../../Drivers/daisy_ILI9341.hpp ****             {
 868:GUI/FX/../../Drivers/daisy_ILI9341.hpp ****                 return; // Char could not be written
 869:GUI/FX/../../Drivers/daisy_ILI9341.hpp ****             }
 870:GUI/FX/../../Drivers/daisy_ILI9341.hpp ****             str++; // Next char
 871:GUI/FX/../../Drivers/daisy_ILI9341.hpp ****         }
 872:GUI/FX/../../Drivers/daisy_ILI9341.hpp ****     }
 873:GUI/FX/../../Drivers/daisy_ILI9341.hpp **** 
 874:GUI/FX/../../Drivers/daisy_ILI9341.hpp ****     uint16_t GetStringWidth(const char* str, FontDef font) const
 875:GUI/FX/../../Drivers/daisy_ILI9341.hpp ****     {
 876:GUI/FX/../../Drivers/daisy_ILI9341.hpp ****         uint16_t font_width = 0;
 877:GUI/FX/../../Drivers/daisy_ILI9341.hpp ****         // Loop until null-byte
 878:GUI/FX/../../Drivers/daisy_ILI9341.hpp ****         while(*str)
 879:GUI/FX/../../Drivers/daisy_ILI9341.hpp ****         {
 880:GUI/FX/../../Drivers/daisy_ILI9341.hpp ****             font_width += font.FontWidth;
 881:GUI/FX/../../Drivers/daisy_ILI9341.hpp ****             str++;
 882:GUI/FX/../../Drivers/daisy_ILI9341.hpp ****         }
 883:GUI/FX/../../Drivers/daisy_ILI9341.hpp **** 
 884:GUI/FX/../../Drivers/daisy_ILI9341.hpp ****         return font_width;
 885:GUI/FX/../../Drivers/daisy_ILI9341.hpp ****     }
ARM GAS  /var/folders/wz/z09yph4n0qj4t7mjxhl6ttn80000gn/T//ccWBe4mu.s 			page 17


 886:GUI/FX/../../Drivers/daisy_ILI9341.hpp **** 
 887:GUI/FX/../../Drivers/daisy_ILI9341.hpp ****     void DrawCircle(int16_t x0, int16_t y0, int16_t r, uint8_t color)
 888:GUI/FX/../../Drivers/daisy_ILI9341.hpp ****     {
 889:GUI/FX/../../Drivers/daisy_ILI9341.hpp ****         int16_t f     = 1 - r;
 890:GUI/FX/../../Drivers/daisy_ILI9341.hpp ****         int16_t ddF_x = 1;
 891:GUI/FX/../../Drivers/daisy_ILI9341.hpp ****         int16_t ddF_y = -2 * r;
 892:GUI/FX/../../Drivers/daisy_ILI9341.hpp ****         int16_t x     = 0;
 893:GUI/FX/../../Drivers/daisy_ILI9341.hpp ****         int16_t y     = r;
 894:GUI/FX/../../Drivers/daisy_ILI9341.hpp **** 
 895:GUI/FX/../../Drivers/daisy_ILI9341.hpp ****         DrawPixel(x0, y0 + r, color);
 896:GUI/FX/../../Drivers/daisy_ILI9341.hpp ****         DrawPixel(x0, y0 - r, color);
 897:GUI/FX/../../Drivers/daisy_ILI9341.hpp ****         DrawPixel(x0 + r, y0, color);
 898:GUI/FX/../../Drivers/daisy_ILI9341.hpp ****         DrawPixel(x0 - r, y0, color);
 899:GUI/FX/../../Drivers/daisy_ILI9341.hpp **** 
 900:GUI/FX/../../Drivers/daisy_ILI9341.hpp ****         while(x < y)
 901:GUI/FX/../../Drivers/daisy_ILI9341.hpp ****         {
 902:GUI/FX/../../Drivers/daisy_ILI9341.hpp ****             if(f >= 0)
 903:GUI/FX/../../Drivers/daisy_ILI9341.hpp ****             {
 904:GUI/FX/../../Drivers/daisy_ILI9341.hpp ****                 y--;
 905:GUI/FX/../../Drivers/daisy_ILI9341.hpp ****                 ddF_y += 2;
 906:GUI/FX/../../Drivers/daisy_ILI9341.hpp ****                 f += ddF_y;
 907:GUI/FX/../../Drivers/daisy_ILI9341.hpp ****             }
 908:GUI/FX/../../Drivers/daisy_ILI9341.hpp ****             x++;
 909:GUI/FX/../../Drivers/daisy_ILI9341.hpp ****             ddF_x += 2;
 910:GUI/FX/../../Drivers/daisy_ILI9341.hpp ****             f += ddF_x;
 911:GUI/FX/../../Drivers/daisy_ILI9341.hpp **** 
 912:GUI/FX/../../Drivers/daisy_ILI9341.hpp ****             DrawPixel(x0 + x, y0 + y, color);
 913:GUI/FX/../../Drivers/daisy_ILI9341.hpp ****             DrawPixel(x0 - x, y0 + y, color);
 914:GUI/FX/../../Drivers/daisy_ILI9341.hpp ****             DrawPixel(x0 + x, y0 - y, color);
 915:GUI/FX/../../Drivers/daisy_ILI9341.hpp ****             DrawPixel(x0 - x, y0 - y, color);
 916:GUI/FX/../../Drivers/daisy_ILI9341.hpp ****             DrawPixel(x0 + y, y0 + x, color);
 917:GUI/FX/../../Drivers/daisy_ILI9341.hpp ****             DrawPixel(x0 - y, y0 + x, color);
 918:GUI/FX/../../Drivers/daisy_ILI9341.hpp ****             DrawPixel(x0 + y, y0 - x, color);
 919:GUI/FX/../../Drivers/daisy_ILI9341.hpp ****             DrawPixel(x0 - y, y0 - x, color);
 920:GUI/FX/../../Drivers/daisy_ILI9341.hpp ****         }
 921:GUI/FX/../../Drivers/daisy_ILI9341.hpp ****     }
 922:GUI/FX/../../Drivers/daisy_ILI9341.hpp **** 
 923:GUI/FX/../../Drivers/daisy_ILI9341.hpp ****     void FillCircle(int16_t x0, int16_t y0, int16_t r, uint8_t color)
 924:GUI/FX/../../Drivers/daisy_ILI9341.hpp ****     {
 925:GUI/FX/../../Drivers/daisy_ILI9341.hpp ****         DrawLine(x0, y0, x0, y0 + 2 * r + 1, color);
 926:GUI/FX/../../Drivers/daisy_ILI9341.hpp ****         FillCircleHelper(x0, y0, r, 3, 0, color);
 927:GUI/FX/../../Drivers/daisy_ILI9341.hpp ****     }
 928:GUI/FX/../../Drivers/daisy_ILI9341.hpp **** 
 929:GUI/FX/../../Drivers/daisy_ILI9341.hpp ****     void FillCircleHelper(int16_t x0,
 930:GUI/FX/../../Drivers/daisy_ILI9341.hpp ****                           int16_t y0,
 931:GUI/FX/../../Drivers/daisy_ILI9341.hpp ****                           int16_t r,
 932:GUI/FX/../../Drivers/daisy_ILI9341.hpp ****                           uint8_t cornername,
 933:GUI/FX/../../Drivers/daisy_ILI9341.hpp ****                           int16_t delta,
 934:GUI/FX/../../Drivers/daisy_ILI9341.hpp ****                           uint8_t color)
 935:GUI/FX/../../Drivers/daisy_ILI9341.hpp ****     {
 936:GUI/FX/../../Drivers/daisy_ILI9341.hpp ****         int16_t f     = 1 - r;
 937:GUI/FX/../../Drivers/daisy_ILI9341.hpp ****         int16_t ddF_x = 1;
 938:GUI/FX/../../Drivers/daisy_ILI9341.hpp ****         int16_t ddF_y = -2 * r;
 939:GUI/FX/../../Drivers/daisy_ILI9341.hpp ****         int16_t x     = 0;
 940:GUI/FX/../../Drivers/daisy_ILI9341.hpp ****         int16_t y     = r;
 941:GUI/FX/../../Drivers/daisy_ILI9341.hpp **** 
 942:GUI/FX/../../Drivers/daisy_ILI9341.hpp ****         delta++;
ARM GAS  /var/folders/wz/z09yph4n0qj4t7mjxhl6ttn80000gn/T//ccWBe4mu.s 			page 18


 943:GUI/FX/../../Drivers/daisy_ILI9341.hpp **** 
 944:GUI/FX/../../Drivers/daisy_ILI9341.hpp ****         while(x < y)
 945:GUI/FX/../../Drivers/daisy_ILI9341.hpp ****         {
 946:GUI/FX/../../Drivers/daisy_ILI9341.hpp ****             if(f >= 0)
 947:GUI/FX/../../Drivers/daisy_ILI9341.hpp ****             {
 948:GUI/FX/../../Drivers/daisy_ILI9341.hpp ****                 y--;
 949:GUI/FX/../../Drivers/daisy_ILI9341.hpp ****                 ddF_y += 2;
 950:GUI/FX/../../Drivers/daisy_ILI9341.hpp ****                 f += ddF_y;
 951:GUI/FX/../../Drivers/daisy_ILI9341.hpp ****             }
 952:GUI/FX/../../Drivers/daisy_ILI9341.hpp ****             x++;
 953:GUI/FX/../../Drivers/daisy_ILI9341.hpp ****             ddF_x += 2;
 954:GUI/FX/../../Drivers/daisy_ILI9341.hpp ****             f += ddF_x;
 955:GUI/FX/../../Drivers/daisy_ILI9341.hpp **** 
 956:GUI/FX/../../Drivers/daisy_ILI9341.hpp ****             if(cornername & 0x1)
 957:GUI/FX/../../Drivers/daisy_ILI9341.hpp ****             {
 958:GUI/FX/../../Drivers/daisy_ILI9341.hpp ****                 DrawLine(
 959:GUI/FX/../../Drivers/daisy_ILI9341.hpp ****                     x0 + x, y0 - y, x0 + x, y0 - y + 2 * y + delta - 1, color);
 960:GUI/FX/../../Drivers/daisy_ILI9341.hpp ****                 DrawLine(
 961:GUI/FX/../../Drivers/daisy_ILI9341.hpp ****                     x0 + y, y0 - x, x0 + y, y0 - x + 2 * x + delta - 1, color);
 962:GUI/FX/../../Drivers/daisy_ILI9341.hpp ****             }
 963:GUI/FX/../../Drivers/daisy_ILI9341.hpp ****             if(cornername & 0x2)
 964:GUI/FX/../../Drivers/daisy_ILI9341.hpp ****             {
 965:GUI/FX/../../Drivers/daisy_ILI9341.hpp ****                 DrawLine(
 966:GUI/FX/../../Drivers/daisy_ILI9341.hpp ****                     x0 - x, y0 - y, x0 - x, y0 - y + 2 * y + delta - 1, color);
 967:GUI/FX/../../Drivers/daisy_ILI9341.hpp ****                 DrawLine(
 968:GUI/FX/../../Drivers/daisy_ILI9341.hpp ****                     x0 - y, y0 - x, x0 - y, y0 - x + 2 * x + delta - 1, color);
 969:GUI/FX/../../Drivers/daisy_ILI9341.hpp ****             }
 970:GUI/FX/../../Drivers/daisy_ILI9341.hpp ****         }
 971:GUI/FX/../../Drivers/daisy_ILI9341.hpp ****     }
 972:GUI/FX/../../Drivers/daisy_ILI9341.hpp **** 
 973:GUI/FX/../../Drivers/daisy_ILI9341.hpp ****     /**
 974:GUI/FX/../../Drivers/daisy_ILI9341.hpp ****      * @brief Moves the 'Cursor' position used for WriteChar, and WriteStr to the specified coordin
 975:GUI/FX/../../Drivers/daisy_ILI9341.hpp ****      * 
 976:GUI/FX/../../Drivers/daisy_ILI9341.hpp ****      * 
 977:GUI/FX/../../Drivers/daisy_ILI9341.hpp ****      * @param x x pos
 978:GUI/FX/../../Drivers/daisy_ILI9341.hpp ****      * @param y y pos
 979:GUI/FX/../../Drivers/daisy_ILI9341.hpp ****      */
 980:GUI/FX/../../Drivers/daisy_ILI9341.hpp ****     void SetCursor(uint16_t x, uint16_t y)
 981:GUI/FX/../../Drivers/daisy_ILI9341.hpp ****     {
 982:GUI/FX/../../Drivers/daisy_ILI9341.hpp ****         currentX_ = (x >= width) ? width - 1 : x;
 983:GUI/FX/../../Drivers/daisy_ILI9341.hpp ****         currentY_ = (y >= height) ? height - 1 : y;
 984:GUI/FX/../../Drivers/daisy_ILI9341.hpp ****     }
 985:GUI/FX/../../Drivers/daisy_ILI9341.hpp **** 
 986:GUI/FX/../../Drivers/daisy_ILI9341.hpp ****     void Update()
 987:GUI/FX/../../Drivers/daisy_ILI9341.hpp ****     {
 988:GUI/FX/../../Drivers/daisy_ILI9341.hpp ****         Start();
 989:GUI/FX/../../Drivers/daisy_ILI9341.hpp ****         transport_.SendDataDMA();
 990:GUI/FX/../../Drivers/daisy_ILI9341.hpp ****     }
 991:GUI/FX/../../Drivers/daisy_ILI9341.hpp **** 
 992:GUI/FX/../../Drivers/daisy_ILI9341.hpp ****     bool IsRender()
 993:GUI/FX/../../Drivers/daisy_ILI9341.hpp ****     {
 994:GUI/FX/../../Drivers/daisy_ILI9341.hpp ****         if(transport_.dma_busy == false)
 995:GUI/FX/../../Drivers/daisy_ILI9341.hpp ****         {
 996:GUI/FX/../../Drivers/daisy_ILI9341.hpp ****             diff = System::GetNow() - screen_update_last_;
 997:GUI/FX/../../Drivers/daisy_ILI9341.hpp ****             if(diff > screen_update_period_)
 998:GUI/FX/../../Drivers/daisy_ILI9341.hpp ****             {
 999:GUI/FX/../../Drivers/daisy_ILI9341.hpp ****                 UpdateFrameRate();
ARM GAS  /var/folders/wz/z09yph4n0qj4t7mjxhl6ttn80000gn/T//ccWBe4mu.s 			page 19


1000:GUI/FX/../../Drivers/daisy_ILI9341.hpp ****                 screen_update_last_ = System::GetNow();
1001:GUI/FX/../../Drivers/daisy_ILI9341.hpp ****                 return true;
1002:GUI/FX/../../Drivers/daisy_ILI9341.hpp ****             }
1003:GUI/FX/../../Drivers/daisy_ILI9341.hpp ****         }
1004:GUI/FX/../../Drivers/daisy_ILI9341.hpp **** 
1005:GUI/FX/../../Drivers/daisy_ILI9341.hpp ****         return false;
1006:GUI/FX/../../Drivers/daisy_ILI9341.hpp ****     }
1007:GUI/FX/../../Drivers/daisy_ILI9341.hpp **** 
1008:GUI/FX/../../Drivers/daisy_ILI9341.hpp ****     void UpdateFrameRate()
1009:GUI/FX/../../Drivers/daisy_ILI9341.hpp ****     {
1010:GUI/FX/../../Drivers/daisy_ILI9341.hpp ****         ++frames;
1011:GUI/FX/../../Drivers/daisy_ILI9341.hpp ****         if(System::GetNow() - fps_update_last_ > 1000)
1012:GUI/FX/../../Drivers/daisy_ILI9341.hpp ****         {
1013:GUI/FX/../../Drivers/daisy_ILI9341.hpp ****             fps              = frames;
1014:GUI/FX/../../Drivers/daisy_ILI9341.hpp ****             frames           = 0;
1015:GUI/FX/../../Drivers/daisy_ILI9341.hpp ****             fps_update_last_ = System::GetNow();
1016:GUI/FX/../../Drivers/daisy_ILI9341.hpp ****         }
1017:GUI/FX/../../Drivers/daisy_ILI9341.hpp ****     }
1018:GUI/FX/../../Drivers/daisy_ILI9341.hpp **** 
1019:GUI/FX/../../Drivers/daisy_ILI9341.hpp ****     uint16_t Fps() const { return fps; }
1020:GUI/FX/../../Drivers/daisy_ILI9341.hpp **** 
1021:GUI/FX/../../Drivers/daisy_ILI9341.hpp ****     void TrimString(char*    str,
1022:GUI/FX/../../Drivers/daisy_ILI9341.hpp ****                     char*    str_trimmed,
1023:GUI/FX/../../Drivers/daisy_ILI9341.hpp ****                     uint16_t str_len,
1024:GUI/FX/../../Drivers/daisy_ILI9341.hpp ****                     uint16_t str_width,
1025:GUI/FX/../../Drivers/daisy_ILI9341.hpp ****                     FontDef  font) const
1026:GUI/FX/../../Drivers/daisy_ILI9341.hpp ****     {
1027:GUI/FX/../../Drivers/daisy_ILI9341.hpp ****         if(str_len <= str_width)
1028:GUI/FX/../../Drivers/daisy_ILI9341.hpp ****         {
1029:GUI/FX/../../Drivers/daisy_ILI9341.hpp ****             return;
1030:GUI/FX/../../Drivers/daisy_ILI9341.hpp ****         }
1031:GUI/FX/../../Drivers/daisy_ILI9341.hpp **** 
1032:GUI/FX/../../Drivers/daisy_ILI9341.hpp ****         uint16_t max_chars = str_width / font.FontWidth;
1033:GUI/FX/../../Drivers/daisy_ILI9341.hpp ****         strncpy(str_trimmed, str, max_chars);
1034:GUI/FX/../../Drivers/daisy_ILI9341.hpp ****         str_trimmed[max_chars] = '\0';
1035:GUI/FX/../../Drivers/daisy_ILI9341.hpp ****     }
1036:GUI/FX/../../Drivers/daisy_ILI9341.hpp **** 
1037:GUI/FX/../../Drivers/daisy_ILI9341.hpp ****   public:
1038:GUI/FX/../../Drivers/daisy_ILI9341.hpp ****     void Start() { transport_.SetAddressWindow(0, 0, width - 1, height - 1); }
1039:GUI/FX/../../Drivers/daisy_ILI9341.hpp **** 
1040:GUI/FX/../../Drivers/daisy_ILI9341.hpp ****     void DrawPixel(uint_fast16_t x,
  29              		.loc 1 1040 10 view -0
  30              		.cfi_startproc
  31              		@ args = 4, pretend = 0, frame = 0
  32              		@ frame_needed = 0, uses_anonymous_args = 0
1041:GUI/FX/../../Drivers/daisy_ILI9341.hpp ****                    uint_fast16_t y,
1042:GUI/FX/../../Drivers/daisy_ILI9341.hpp ****                    uint8_t       color,
1043:GUI/FX/../../Drivers/daisy_ILI9341.hpp ****                    uint8_t       alpha = 255)
1044:GUI/FX/../../Drivers/daisy_ILI9341.hpp ****     {
1045:GUI/FX/../../Drivers/daisy_ILI9341.hpp ****         if(x >= width || y >= height)
  33              		.loc 1 1045 9 view .LVU1
1040:GUI/FX/../../Drivers/daisy_ILI9341.hpp ****                    uint_fast16_t y,
  34              		.loc 1 1040 10 is_stmt 0 view .LVU2
  35 0000 F0B5     		push	{r4, r5, r6, r7, lr}
  36              		.cfi_def_cfa_offset 20
  37              		.cfi_offset 4, -20
  38              		.cfi_offset 5, -16
ARM GAS  /var/folders/wz/z09yph4n0qj4t7mjxhl6ttn80000gn/T//ccWBe4mu.s 			page 20


  39              		.cfi_offset 6, -12
  40              		.cfi_offset 7, -8
  41              		.cfi_offset 14, -4
  42              		.loc 1 1045 17 view .LVU3
  43 0002 B0F85440 		ldrh	r4, [r0, #84]
1040:GUI/FX/../../Drivers/daisy_ILI9341.hpp ****                    uint_fast16_t y,
  44              		.loc 1 1040 10 view .LVU4
  45 0006 9DF81460 		ldrb	r6, [sp, #20]	@ zero_extendqisi2
  46              		.loc 1 1045 9 view .LVU5
  47 000a 8C42     		cmp	r4, r1
  48 000c 3CD9     		bls	.L1
  49              		.loc 1 1045 31 discriminator 1 view .LVU6
  50 000e B0F85650 		ldrh	r5, [r0, #86]
  51              		.loc 1 1045 23 discriminator 1 view .LVU7
  52 0012 9542     		cmp	r5, r2
  53 0014 38D9     		bls	.L1
1046:GUI/FX/../../Drivers/daisy_ILI9341.hpp ****             return;
1047:GUI/FX/../../Drivers/daisy_ILI9341.hpp **** 
1048:GUI/FX/../../Drivers/daisy_ILI9341.hpp ****         auto id = 2 * (x + y * width);
  54              		.loc 1 1048 9 is_stmt 1 view .LVU8
  55              		.loc 1 1048 26 is_stmt 0 view .LVU9
  56 0016 02FB0411 		mla	r1, r2, r4, r1
  57              	.LVL1:
  58              	.LBB53:
  59              	.LBB54:
  60              	.LBB55:
 219:GUI/FX/../../Drivers/daisy_ILI9341.hpp ****         {
  61              		.loc 1 219 9 view .LVU10
  62 001a FF2E     		cmp	r6, #255
  63              	.LBE55:
 217:GUI/FX/../../Drivers/daisy_ILI9341.hpp **** 
  64              		.loc 1 217 14 view .LVU11
  65 001c 00EB4302 		add	r2, r0, r3, lsl #1
  66              	.LVL2:
 217:GUI/FX/../../Drivers/daisy_ILI9341.hpp **** 
  67              		.loc 1 217 14 view .LVU12
  68 0020 1A4C     		ldr	r4, .L7
  69              	.LBE54:
  70              	.LBE53:
  71              		.loc 1 1048 14 view .LVU13
  72 0022 4FEA4105 		lsl	r5, r1, #1
  73              	.LVL3:
1049:GUI/FX/../../Drivers/daisy_ILI9341.hpp **** 
1050:GUI/FX/../../Drivers/daisy_ILI9341.hpp ****         // NOTE: Probably we should check the color id before accessing the array
1051:GUI/FX/../../Drivers/daisy_ILI9341.hpp ****         transport_.PaintPixel(id, color, alpha);
  74              		.loc 1 1051 9 is_stmt 1 view .LVU14
  75              	.LBB65:
  76              	.LBI53:
 213:GUI/FX/../../Drivers/daisy_ILI9341.hpp ****     {
  77              		.loc 1 213 10 view .LVU15
  78              	.LBB64:
 217:GUI/FX/../../Drivers/daisy_ILI9341.hpp **** 
  79              		.loc 1 217 9 view .LVU16
 217:GUI/FX/../../Drivers/daisy_ILI9341.hpp **** 
  80              		.loc 1 217 14 is_stmt 0 view .LVU17
  81 0026 978B     		ldrh	r7, [r2, #28]
  82              	.LVL4:
ARM GAS  /var/folders/wz/z09yph4n0qj4t7mjxhl6ttn80000gn/T//ccWBe4mu.s 			page 21


 219:GUI/FX/../../Drivers/daisy_ILI9341.hpp ****         {
  83              		.loc 1 219 9 is_stmt 1 view .LVU18
  84              	.LBB63:
  85 0028 26D0     		beq	.L3
  86              	.LBB56:
 223:GUI/FX/../../Drivers/daisy_ILI9341.hpp ****             color         = Blend565(color, bg_color, alpha);
  87              		.loc 1 223 13 view .LVU19
 223:GUI/FX/../../Drivers/daisy_ILI9341.hpp ****             color         = Blend565(color, bg_color, alpha);
  88              		.loc 1 223 52 is_stmt 0 view .LVU20
  89 002a 14F81120 		ldrb	r2, [r4, r1, lsl #1]	@ zero_extendqisi2
  90              	.LBB57:
  91              	.LBB58:
 267:GUI/FX/../../Drivers/daisy_ILI9341.hpp ****         // "beta" for background multiplication; (6bit+1);
  92              		.loc 1 267 24 view .LVU21
  93 002e 0236     		adds	r6, r6, #2
  94              	.LVL5:
 273:GUI/FX/../../Drivers/daisy_ILI9341.hpp ****                              + beta * (uint32_t)(bg & MASK_RB))
  95              		.loc 1 273 38 view .LVU22
  96 0030 27F4FC6E 		bic	lr, r7, #2016
 276:GUI/FX/../../Drivers/daisy_ILI9341.hpp ****                               & MASK_MUL_G))
  97              		.loc 1 276 44 view .LVU23
  98 0034 07F4FC67 		and	r7, r7, #2016
  99              	.LVL6:
 267:GUI/FX/../../Drivers/daisy_ILI9341.hpp ****         // "beta" for background multiplication; (6bit+1);
 100              		.loc 1 267 29 view .LVU24
 101 0038 B610     		asrs	r6, r6, #2
 102              	.LVL7:
 267:GUI/FX/../../Drivers/daisy_ILI9341.hpp ****         // "beta" for background multiplication; (6bit+1);
 103              		.loc 1 267 29 view .LVU25
 104              	.LBE58:
 105              	.LBE57:
 223:GUI/FX/../../Drivers/daisy_ILI9341.hpp ****             color         = Blend565(color, bg_color, alpha);
 106              		.loc 1 223 18 view .LVU26
 107 003a 00EB4200 		add	r0, r0, r2, lsl #1
 108              	.LVL8:
 109              	.LBB61:
 110              	.LBB59:
 270:GUI/FX/../../Drivers/daisy_ILI9341.hpp ****         // so (0..64)*alpha + (0..64)*beta always in 0..64
 111              		.loc 1 270 17 view .LVU27
 112 003e C6F1400C 		rsb	ip, r6, #64
 113              	.LBE59:
 114              	.LBE61:
 223:GUI/FX/../../Drivers/daisy_ILI9341.hpp ****             color         = Blend565(color, bg_color, alpha);
 115              		.loc 1 223 18 view .LVU28
 116 0042 828B     		ldrh	r2, [r0, #28]
 117              	.LVL9:
 224:GUI/FX/../../Drivers/daisy_ILI9341.hpp ****         }
 118              		.loc 1 224 13 is_stmt 1 view .LVU29
 119              	.LBB62:
 120              	.LBI57:
 262:GUI/FX/../../Drivers/daisy_ILI9341.hpp ****     {
 121              		.loc 1 262 14 view .LVU30
 122              	.LBB60:
 267:GUI/FX/../../Drivers/daisy_ILI9341.hpp ****         // "beta" for background multiplication; (6bit+1);
 123              		.loc 1 267 9 view .LVU31
 270:GUI/FX/../../Drivers/daisy_ILI9341.hpp ****         // so (0..64)*alpha + (0..64)*beta always in 0..64
 124              		.loc 1 270 9 view .LVU32
ARM GAS  /var/folders/wz/z09yph4n0qj4t7mjxhl6ttn80000gn/T//ccWBe4mu.s 			page 22


 270:GUI/FX/../../Drivers/daisy_ILI9341.hpp ****         // so (0..64)*alpha + (0..64)*beta always in 0..64
 125              		.loc 1 270 17 is_stmt 0 view .LVU33
 126 0044 5FFA8CFC 		uxtb	ip, ip
 127              	.LVL10:
 273:GUI/FX/../../Drivers/daisy_ILI9341.hpp ****                              + beta * (uint32_t)(bg & MASK_RB))
 128              		.loc 1 273 9 is_stmt 1 view .LVU34
 274:GUI/FX/../../Drivers/daisy_ILI9341.hpp ****                             & MASK_MUL_RB)
 129              		.loc 1 274 39 is_stmt 0 view .LVU35
 130 0048 22F4FC60 		bic	r0, r2, #2016
 276:GUI/FX/../../Drivers/daisy_ILI9341.hpp ****                               & MASK_MUL_G))
 131              		.loc 1 276 67 view .LVU36
 132 004c 02F4FC62 		and	r2, r2, #2016
 133              	.LVL11:
 274:GUI/FX/../../Drivers/daisy_ILI9341.hpp ****                             & MASK_MUL_RB)
 134              		.loc 1 274 37 view .LVU37
 135 0050 0CFB00F0 		mul	r0, ip, r0
 276:GUI/FX/../../Drivers/daisy_ILI9341.hpp ****                               & MASK_MUL_G))
 136              		.loc 1 276 61 view .LVU38
 137 0054 0CFB02F2 		mul	r2, ip, r2
 274:GUI/FX/../../Drivers/daisy_ILI9341.hpp ****                             & MASK_MUL_RB)
 138              		.loc 1 274 30 view .LVU39
 139 0058 06FB0E00 		mla	r0, r6, lr, r0
 276:GUI/FX/../../Drivers/daisy_ILI9341.hpp ****                               & MASK_MUL_G))
 140              		.loc 1 276 54 view .LVU40
 141 005c 06FB0722 		mla	r2, r6, r7, r2
 275:GUI/FX/../../Drivers/daisy_ILI9341.hpp ****                            | ((alpha * (fg & MASK_G) + beta * (bg & MASK_G))
 142              		.loc 1 275 29 view .LVU41
 143 0060 20F07F40 		bic	r0, r0, #-16777216
 277:GUI/FX/../../Drivers/daisy_ILI9341.hpp ****                           >> 6);
 144              		.loc 1 277 31 view .LVU42
 145 0064 02F4FC32 		and	r2, r2, #129024
 275:GUI/FX/../../Drivers/daisy_ILI9341.hpp ****                            | ((alpha * (fg & MASK_G) + beta * (bg & MASK_G))
 146              		.loc 1 275 29 view .LVU43
 147 0068 20F44100 		bic	r0, r0, #12648448
 148 006c 20F47840 		bic	r0, r0, #63488
 149 0070 20F03F00 		bic	r0, r0, #63
 276:GUI/FX/../../Drivers/daisy_ILI9341.hpp ****                               & MASK_MUL_G))
 150              		.loc 1 276 28 view .LVU44
 151 0074 0243     		orrs	r2, r2, r0
 278:GUI/FX/../../Drivers/daisy_ILI9341.hpp ****     }
 152              		.loc 1 278 31 view .LVU45
 153 0076 9709     		lsrs	r7, r2, #6
 154              	.LVL12:
 155              	.L3:
 278:GUI/FX/../../Drivers/daisy_ILI9341.hpp ****     }
 156              		.loc 1 278 31 view .LVU46
 157              	.LBE60:
 158              	.LBE62:
 159              	.LBE56:
 160              	.LBE63:
 227:GUI/FX/../../Drivers/daisy_ILI9341.hpp **** 
 161              		.loc 1 227 9 is_stmt 1 view .LVU47
 229:GUI/FX/../../Drivers/daisy_ILI9341.hpp ****         frame_buffer[id + 1] = color & 0xFF;
 162              		.loc 1 229 38 is_stmt 0 view .LVU48
 163 0078 3A0A     		lsrs	r2, r7, #8
 227:GUI/FX/../../Drivers/daisy_ILI9341.hpp **** 
 164              		.loc 1 227 23 view .LVU49
ARM GAS  /var/folders/wz/z09yph4n0qj4t7mjxhl6ttn80000gn/T//ccWBe4mu.s 			page 23


 165 007a 04F81130 		strb	r3, [r4, r1, lsl #1]
 229:GUI/FX/../../Drivers/daisy_ILI9341.hpp ****         frame_buffer[id + 1] = color & 0xFF;
 166              		.loc 1 229 9 is_stmt 1 view .LVU50
 229:GUI/FX/../../Drivers/daisy_ILI9341.hpp ****         frame_buffer[id + 1] = color & 0xFF;
 167              		.loc 1 229 30 is_stmt 0 view .LVU51
 168 007e 044B     		ldr	r3, .L7+4
 169              	.LVL13:
 229:GUI/FX/../../Drivers/daisy_ILI9341.hpp ****         frame_buffer[id + 1] = color & 0xFF;
 170              		.loc 1 229 30 view .LVU52
 171 0080 03F81120 		strb	r2, [r3, r1, lsl #1]
 230:GUI/FX/../../Drivers/daisy_ILI9341.hpp ****     }
 172              		.loc 1 230 9 is_stmt 1 view .LVU53
 230:GUI/FX/../../Drivers/daisy_ILI9341.hpp ****     }
 173              		.loc 1 230 30 is_stmt 0 view .LVU54
 174 0084 2B44     		add	r3, r3, r5
 175 0086 5F70     		strb	r7, [r3, #1]
 176              	.LVL14:
 177              	.L1:
 230:GUI/FX/../../Drivers/daisy_ILI9341.hpp ****     }
 178              		.loc 1 230 30 view .LVU55
 179              	.LBE64:
 180              	.LBE65:
1052:GUI/FX/../../Drivers/daisy_ILI9341.hpp **** 
1053:GUI/FX/../../Drivers/daisy_ILI9341.hpp ****         // Lets divide the whole screen in 10 sectors, 32 pixel high each
1054:GUI/FX/../../Drivers/daisy_ILI9341.hpp ****         //uint8_t screen_sector     = y / 32;
1055:GUI/FX/../../Drivers/daisy_ILI9341.hpp ****         // dirty_buff[screen_sector] = 1;
1056:GUI/FX/../../Drivers/daisy_ILI9341.hpp ****     }
 181              		.loc 1 1056 5 view .LVU56
 182 0088 F0BD     		pop	{r4, r5, r6, r7, pc}
 183              	.LVL15:
 184              	.L8:
 185              		.loc 1 1056 5 view .LVU57
 186 008a 00BF     		.align	2
 187              	.L7:
 188 008c 00000000 		.word	_ZN19ILI9341SpiTransport9color_memE
 189 0090 00000000 		.word	_ZN19ILI9341SpiTransport12frame_bufferE
 190              		.cfi_endproc
 191              	.LFE2605:
 193              		.section	.text._ZN8UiDriver8DrawLineEjjjjhh,"axG",%progbits,_ZN8UiDriver8DrawLineEjjjjhh,comdat
 194              		.align	1
 195              		.weak	_ZN8UiDriver8DrawLineEjjjjhh
 196              		.syntax unified
 197              		.thumb
 198              		.thumb_func
 200              	_ZN8UiDriver8DrawLineEjjjjhh:
 201              	.LVL16:
 202              	.LFB2580:
 593:GUI/FX/../../Drivers/daisy_ILI9341.hpp ****                   uint_fast16_t y1,
 203              		.loc 1 593 10 is_stmt 1 view -0
 204              		.cfi_startproc
 205              		@ args = 12, pretend = 0, frame = 16
 206              		@ frame_needed = 0, uses_anonymous_args = 0
 593:GUI/FX/../../Drivers/daisy_ILI9341.hpp ****                   uint_fast16_t y1,
 207              		.loc 1 593 10 is_stmt 0 view .LVU59
 208 0000 2DE9F04F 		push	{r4, r5, r6, r7, r8, r9, r10, fp, lr}
 209              		.cfi_def_cfa_offset 36
 210              		.cfi_offset 4, -36
ARM GAS  /var/folders/wz/z09yph4n0qj4t7mjxhl6ttn80000gn/T//ccWBe4mu.s 			page 24


 211              		.cfi_offset 5, -32
 212              		.cfi_offset 6, -28
 213              		.cfi_offset 7, -24
 214              		.cfi_offset 8, -20
 215              		.cfi_offset 9, -16
 216              		.cfi_offset 10, -12
 217              		.cfi_offset 11, -8
 218              		.cfi_offset 14, -4
 219 0004 1E46     		mov	r6, r3
 220 0006 87B0     		sub	sp, sp, #28
 221              		.cfi_def_cfa_offset 64
 600:GUI/FX/../../Drivers/daisy_ILI9341.hpp ****         {
 222              		.loc 1 600 9 is_stmt 1 view .LVU60
 593:GUI/FX/../../Drivers/daisy_ILI9341.hpp ****                   uint_fast16_t y1,
 223              		.loc 1 593 10 is_stmt 0 view .LVU61
 224 0008 8146     		mov	r9, r0
 225 000a 0D46     		mov	r5, r1
 600:GUI/FX/../../Drivers/daisy_ILI9341.hpp ****         {
 226              		.loc 1 600 9 view .LVU62
 227 000c B142     		cmp	r1, r6
 593:GUI/FX/../../Drivers/daisy_ILI9341.hpp ****                   uint_fast16_t y1,
 228              		.loc 1 593 10 view .LVU63
 229 000e 1446     		mov	r4, r2
 230 0010 DDF840B0 		ldr	fp, [sp, #64]
 231 0014 9DF84430 		ldrb	r3, [sp, #68]	@ zero_extendqisi2
 232              	.LVL17:
 593:GUI/FX/../../Drivers/daisy_ILI9341.hpp ****                   uint_fast16_t y1,
 233              		.loc 1 593 10 view .LVU64
 234 0018 9DF848A0 		ldrb	r10, [sp, #72]	@ zero_extendqisi2
 600:GUI/FX/../../Drivers/daisy_ILI9341.hpp ****         {
 235              		.loc 1 600 9 view .LVU65
 236 001c 15D1     		bne	.L10
 602:GUI/FX/../../Drivers/daisy_ILI9341.hpp ****         }
 237              		.loc 1 602 13 is_stmt 1 view .LVU66
 602:GUI/FX/../../Drivers/daisy_ILI9341.hpp ****         }
 238              		.loc 1 602 29 is_stmt 0 view .LVU67
 239 001e 17B2     		sxth	r7, r2
 602:GUI/FX/../../Drivers/daisy_ILI9341.hpp ****         }
 240              		.loc 1 602 46 view .LVU68
 241 0020 0BF10102 		add	r2, fp, #1
 242              	.LVL18:
 602:GUI/FX/../../Drivers/daisy_ILI9341.hpp ****         }
 243              		.loc 1 602 29 view .LVU69
 244 0024 0DB2     		sxth	r5, r1
 602:GUI/FX/../../Drivers/daisy_ILI9341.hpp ****         }
 245              		.loc 1 602 46 view .LVU70
 246 0026 141B     		subs	r4, r2, r4
 247              	.LVL19:
 248              	.LBB76:
 249              	.LBB77:
1057:GUI/FX/../../Drivers/daisy_ILI9341.hpp **** 
1058:GUI/FX/../../Drivers/daisy_ILI9341.hpp ****     void DrawVLine(int16_t x,
1059:GUI/FX/../../Drivers/daisy_ILI9341.hpp ****                    int16_t y,
1060:GUI/FX/../../Drivers/daisy_ILI9341.hpp ****                    int16_t h,
1061:GUI/FX/../../Drivers/daisy_ILI9341.hpp ****                    uint8_t color,
1062:GUI/FX/../../Drivers/daisy_ILI9341.hpp ****                    uint8_t alpha = 255)
1063:GUI/FX/../../Drivers/daisy_ILI9341.hpp ****     {
ARM GAS  /var/folders/wz/z09yph4n0qj4t7mjxhl6ttn80000gn/T//ccWBe4mu.s 			page 25


1064:GUI/FX/../../Drivers/daisy_ILI9341.hpp ****         for(int16_t i = y; i < y + h; i++)
 250              		.loc 1 1064 21 view .LVU71
 251 0028 3E46     		mov	r6, r7
 252              	.LVL20:
 253              		.loc 1 1064 21 view .LVU72
 254              	.LBE77:
 255              	.LBE76:
 602:GUI/FX/../../Drivers/daisy_ILI9341.hpp ****         }
 256              		.loc 1 602 29 view .LVU73
 257 002a 24B2     		sxth	r4, r4
 258              	.LVL21:
 259              	.LBB79:
 260              	.LBI76:
1058:GUI/FX/../../Drivers/daisy_ILI9341.hpp ****                    int16_t y,
 261              		.loc 1 1058 10 is_stmt 1 view .LVU74
 262              	.LBE79:
 263              		.loc 1 1064 9 view .LVU75
 264              	.L12:
 265              	.LBB80:
 266              	.LBB78:
 267              		.loc 1 1064 30 view .LVU76
 268              		.loc 1 1064 34 is_stmt 0 view .LVU77
 269 002c 3A19     		adds	r2, r7, r4
 270              		.loc 1 1064 30 view .LVU78
 271 002e 9642     		cmp	r6, r2
 272 0030 64DA     		bge	.L9
1065:GUI/FX/../../Drivers/daisy_ILI9341.hpp ****         {
1066:GUI/FX/../../Drivers/daisy_ILI9341.hpp ****             DrawPixel(x, i, color, alpha);
 273              		.loc 1 1066 13 is_stmt 1 view .LVU79
 274              		.loc 1 1066 22 is_stmt 0 view .LVU80
 275 0032 3246     		mov	r2, r6
 276 0034 0136     		adds	r6, r6, #1
 277              	.LVL22:
 278              		.loc 1 1066 22 view .LVU81
 279 0036 2946     		mov	r1, r5
 280 0038 4846     		mov	r0, r9
 281 003a CDF800A0 		str	r10, [sp]
 282 003e 36B2     		sxth	r6, r6
 283 0040 0293     		str	r3, [sp, #8]
 284 0042 FFF7FEFF 		bl	_ZN8UiDriver9DrawPixelEjjhh
 285              	.LVL23:
1064:GUI/FX/../../Drivers/daisy_ILI9341.hpp ****         {
 286              		.loc 1 1064 9 is_stmt 1 view .LVU82
1064:GUI/FX/../../Drivers/daisy_ILI9341.hpp ****         {
 287              		.loc 1 1064 9 is_stmt 0 view .LVU83
 288 0046 029B     		ldr	r3, [sp, #8]
 289 0048 F0E7     		b	.L12
 290              	.LVL24:
 291              	.L10:
1064:GUI/FX/../../Drivers/daisy_ILI9341.hpp ****         {
 292              		.loc 1 1064 9 view .LVU84
 293              	.LBE78:
 294              	.LBE80:
 604:GUI/FX/../../Drivers/daisy_ILI9341.hpp ****         {
 295              		.loc 1 604 14 is_stmt 1 view .LVU85
 296 004a 5A45     		cmp	r2, fp
 297 004c 16D1     		bne	.L13
ARM GAS  /var/folders/wz/z09yph4n0qj4t7mjxhl6ttn80000gn/T//ccWBe4mu.s 			page 26


 298              	.LVL25:
 299              	.LBB81:
 300              	.LBI81:
 593:GUI/FX/../../Drivers/daisy_ILI9341.hpp ****                   uint_fast16_t y1,
 301              		.loc 1 593 10 view .LVU86
 302              	.LBB82:
 606:GUI/FX/../../Drivers/daisy_ILI9341.hpp ****         }
 303              		.loc 1 606 13 view .LVU87
 606:GUI/FX/../../Drivers/daisy_ILI9341.hpp ****         }
 304              		.loc 1 606 46 is_stmt 0 view .LVU88
 305 004e 0136     		adds	r6, r6, #1
 306              	.LVL26:
 606:GUI/FX/../../Drivers/daisy_ILI9341.hpp ****         }
 307              		.loc 1 606 29 view .LVU89
 308 0050 0FFA81F8 		sxth	r8, r1
 309 0054 14B2     		sxth	r4, r2
 606:GUI/FX/../../Drivers/daisy_ILI9341.hpp ****         }
 310              		.loc 1 606 46 view .LVU90
 311 0056 751A     		subs	r5, r6, r1
 312              	.LBB83:
 313              	.LBB84:
1067:GUI/FX/../../Drivers/daisy_ILI9341.hpp ****         }
1068:GUI/FX/../../Drivers/daisy_ILI9341.hpp ****     }
1069:GUI/FX/../../Drivers/daisy_ILI9341.hpp **** 
1070:GUI/FX/../../Drivers/daisy_ILI9341.hpp ****     void DrawHLine(int16_t x,
1071:GUI/FX/../../Drivers/daisy_ILI9341.hpp ****                    int16_t y,
1072:GUI/FX/../../Drivers/daisy_ILI9341.hpp ****                    int16_t w,
1073:GUI/FX/../../Drivers/daisy_ILI9341.hpp ****                    uint8_t color,
1074:GUI/FX/../../Drivers/daisy_ILI9341.hpp ****                    uint8_t alpha = 255)
1075:GUI/FX/../../Drivers/daisy_ILI9341.hpp ****     {
1076:GUI/FX/../../Drivers/daisy_ILI9341.hpp ****         for(int16_t i = x; i < x + w; i++)
 314              		.loc 1 1076 21 view .LVU91
 315 0058 4746     		mov	r7, r8
 316              	.LBE84:
 317              	.LBE83:
 606:GUI/FX/../../Drivers/daisy_ILI9341.hpp ****         }
 318              		.loc 1 606 29 view .LVU92
 319 005a 2DB2     		sxth	r5, r5
 320              	.LVL27:
 321              	.LBB86:
 322              	.LBI83:
1070:GUI/FX/../../Drivers/daisy_ILI9341.hpp ****                    int16_t y,
 323              		.loc 1 1070 10 is_stmt 1 view .LVU93
 324              	.LBE86:
 325              	.LBE82:
 326              	.LBE81:
 327              		.loc 1 1076 9 view .LVU94
 328              	.L14:
 329              	.LBB89:
 330              	.LBB88:
 331              	.LBB87:
 332              	.LBB85:
 333              		.loc 1 1076 30 view .LVU95
 334              		.loc 1 1076 34 is_stmt 0 view .LVU96
 335 005c 08EB0502 		add	r2, r8, r5
 336              		.loc 1 1076 30 view .LVU97
 337 0060 9742     		cmp	r7, r2
ARM GAS  /var/folders/wz/z09yph4n0qj4t7mjxhl6ttn80000gn/T//ccWBe4mu.s 			page 27


 338 0062 4BDA     		bge	.L9
1077:GUI/FX/../../Drivers/daisy_ILI9341.hpp ****         {
1078:GUI/FX/../../Drivers/daisy_ILI9341.hpp ****             DrawPixel(i, y, color, alpha);
 339              		.loc 1 1078 13 is_stmt 1 view .LVU98
 340              		.loc 1 1078 22 is_stmt 0 view .LVU99
 341 0064 3946     		mov	r1, r7
 342 0066 0137     		adds	r7, r7, #1
 343              	.LVL28:
 344              		.loc 1 1078 22 view .LVU100
 345 0068 2246     		mov	r2, r4
 346 006a 4846     		mov	r0, r9
 347 006c CDF800A0 		str	r10, [sp]
 348 0070 3FB2     		sxth	r7, r7
 349 0072 0293     		str	r3, [sp, #8]
 350 0074 FFF7FEFF 		bl	_ZN8UiDriver9DrawPixelEjjhh
 351              	.LVL29:
1076:GUI/FX/../../Drivers/daisy_ILI9341.hpp ****         {
 352              		.loc 1 1076 9 is_stmt 1 view .LVU101
1076:GUI/FX/../../Drivers/daisy_ILI9341.hpp ****         {
 353              		.loc 1 1076 9 is_stmt 0 view .LVU102
 354 0078 029B     		ldr	r3, [sp, #8]
 355 007a EFE7     		b	.L14
 356              	.LVL30:
 357              	.L13:
1076:GUI/FX/../../Drivers/daisy_ILI9341.hpp ****         {
 358              		.loc 1 1076 9 view .LVU103
 359              	.LBE85:
 360              	.LBE87:
 361              	.LBE88:
 362              	.LBE89:
 609:GUI/FX/../../Drivers/daisy_ILI9341.hpp ****         auto deltaY = abs((int_fast16_t)y2 - (int_fast16_t)y1);
 363              		.loc 1 609 9 is_stmt 1 view .LVU104
 609:GUI/FX/../../Drivers/daisy_ILI9341.hpp ****         auto deltaY = abs((int_fast16_t)y2 - (int_fast16_t)y1);
 364              		.loc 1 609 44 is_stmt 0 view .LVU105
 365 007c 721A     		subs	r2, r6, r1
 366              	.LVL31:
 610:GUI/FX/../../Drivers/daisy_ILI9341.hpp ****         auto signX  = ((x1 < x2) ? 1 : -1);
 367              		.loc 1 610 44 view .LVU106
 368 007e ABEB0408 		sub	r8, fp, r4
 615:GUI/FX/../../Drivers/daisy_ILI9341.hpp **** 
 369              		.loc 1 615 18 view .LVU107
 370 0082 CDF800A0 		str	r10, [sp]
 610:GUI/FX/../../Drivers/daisy_ILI9341.hpp ****         auto signX  = ((x1 < x2) ? 1 : -1);
 371              		.loc 1 610 14 view .LVU108
 372 0086 B8F1000F 		cmp	r8, #0
 609:GUI/FX/../../Drivers/daisy_ILI9341.hpp ****         auto deltaY = abs((int_fast16_t)y2 - (int_fast16_t)y1);
 373              		.loc 1 609 14 view .LVU109
 374 008a 82EAE271 		eor	r1, r2, r2, asr #31
 375              	.LVL32:
 615:GUI/FX/../../Drivers/daisy_ILI9341.hpp **** 
 376              		.loc 1 615 18 view .LVU110
 377 008e 0593     		str	r3, [sp, #20]
 609:GUI/FX/../../Drivers/daisy_ILI9341.hpp ****         auto deltaY = abs((int_fast16_t)y2 - (int_fast16_t)y1);
 378              		.loc 1 609 14 view .LVU111
 379 0090 A1EBE271 		sub	r1, r1, r2, asr #31
 610:GUI/FX/../../Drivers/daisy_ILI9341.hpp ****         auto signX  = ((x1 < x2) ? 1 : -1);
 380              		.loc 1 610 14 view .LVU112
ARM GAS  /var/folders/wz/z09yph4n0qj4t7mjxhl6ttn80000gn/T//ccWBe4mu.s 			page 28


 381 0094 B8BF     		it	lt
 382 0096 C8F10008 		rsblt	r8, r8, #0
 611:GUI/FX/../../Drivers/daisy_ILI9341.hpp ****         auto signY  = ((y1 < y2) ? 1 : -1);
 383              		.loc 1 611 34 view .LVU113
 384 009a B542     		cmp	r5, r6
 385 009c 34BF     		ite	cc
 386 009e 0122     		movcc	r2, #1
 387 00a0 4FF0FF32 		movcs	r2, #-1
 609:GUI/FX/../../Drivers/daisy_ILI9341.hpp ****         auto deltaY = abs((int_fast16_t)y2 - (int_fast16_t)y1);
 388              		.loc 1 609 14 view .LVU114
 389 00a4 0291     		str	r1, [sp, #8]
 390              	.LVL33:
 610:GUI/FX/../../Drivers/daisy_ILI9341.hpp ****         auto signX  = ((x1 < x2) ? 1 : -1);
 391              		.loc 1 610 9 is_stmt 1 view .LVU115
 611:GUI/FX/../../Drivers/daisy_ILI9341.hpp ****         auto signY  = ((y1 < y2) ? 1 : -1);
 392              		.loc 1 611 9 view .LVU116
 613:GUI/FX/../../Drivers/daisy_ILI9341.hpp **** 
 393              		.loc 1 613 14 is_stmt 0 view .LVU117
 394 00a6 A1EB0807 		sub	r7, r1, r8
 611:GUI/FX/../../Drivers/daisy_ILI9341.hpp ****         auto signY  = ((y1 < y2) ? 1 : -1);
 395              		.loc 1 611 34 view .LVU118
 396 00aa 0392     		str	r2, [sp, #12]
 397              	.LVL34:
 612:GUI/FX/../../Drivers/daisy_ILI9341.hpp ****         auto error  = deltaX - deltaY;
 398              		.loc 1 612 9 is_stmt 1 view .LVU119
 612:GUI/FX/../../Drivers/daisy_ILI9341.hpp ****         auto error  = deltaX - deltaY;
 399              		.loc 1 612 34 is_stmt 0 view .LVU120
 400 00ac 5C45     		cmp	r4, fp
 401 00ae 34BF     		ite	cc
 402 00b0 0122     		movcc	r2, #1
 403 00b2 4FF0FF32 		movcs	r2, #-1
 404              	.LVL35:
 615:GUI/FX/../../Drivers/daisy_ILI9341.hpp **** 
 405              		.loc 1 615 18 view .LVU121
 406 00b6 3146     		mov	r1, r6
 407              	.LVL36:
 612:GUI/FX/../../Drivers/daisy_ILI9341.hpp ****         auto error  = deltaX - deltaY;
 408              		.loc 1 612 34 view .LVU122
 409 00b8 0492     		str	r2, [sp, #16]
 410              	.LVL37:
 613:GUI/FX/../../Drivers/daisy_ILI9341.hpp **** 
 411              		.loc 1 613 9 is_stmt 1 view .LVU123
 615:GUI/FX/../../Drivers/daisy_ILI9341.hpp **** 
 412              		.loc 1 615 9 view .LVU124
 615:GUI/FX/../../Drivers/daisy_ILI9341.hpp **** 
 413              		.loc 1 615 18 is_stmt 0 view .LVU125
 414 00ba 5A46     		mov	r2, fp
 415              	.LVL38:
 615:GUI/FX/../../Drivers/daisy_ILI9341.hpp **** 
 416              		.loc 1 615 18 view .LVU126
 417 00bc FFF7FEFF 		bl	_ZN8UiDriver9DrawPixelEjjhh
 418              	.LVL39:
 617:GUI/FX/../../Drivers/daisy_ILI9341.hpp ****         {
 419              		.loc 1 617 9 is_stmt 1 view .LVU127
 617:GUI/FX/../../Drivers/daisy_ILI9341.hpp ****         {
 420              		.loc 1 617 26 view .LVU128
 421 00c0 059B     		ldr	r3, [sp, #20]
ARM GAS  /var/folders/wz/z09yph4n0qj4t7mjxhl6ttn80000gn/T//ccWBe4mu.s 			page 29


 422              	.L22:
 423              	.LVL40:
 424              	.LBB90:
 619:GUI/FX/../../Drivers/daisy_ILI9341.hpp ****             auto error2 = error * 2;
 425              		.loc 1 619 13 view .LVU129
 619:GUI/FX/../../Drivers/daisy_ILI9341.hpp ****             auto error2 = error * 2;
 426              		.loc 1 619 22 is_stmt 0 view .LVU130
 427 00c2 2946     		mov	r1, r5
 428 00c4 2246     		mov	r2, r4
 429 00c6 4846     		mov	r0, r9
 430 00c8 CDF800A0 		str	r10, [sp]
 431 00cc 0593     		str	r3, [sp, #20]
 432 00ce FFF7FEFF 		bl	_ZN8UiDriver9DrawPixelEjjhh
 433              	.LVL41:
 620:GUI/FX/../../Drivers/daisy_ILI9341.hpp ****             if(error2 > -deltaY)
 434              		.loc 1 620 13 is_stmt 1 view .LVU131
 621:GUI/FX/../../Drivers/daisy_ILI9341.hpp ****             {
 435              		.loc 1 621 25 is_stmt 0 view .LVU132
 436 00d2 C8F10001 		rsb	r1, r8, #0
 620:GUI/FX/../../Drivers/daisy_ILI9341.hpp ****             if(error2 > -deltaY)
 437              		.loc 1 620 18 view .LVU133
 438 00d6 7A00     		lsls	r2, r7, #1
 439              	.LVL42:
 621:GUI/FX/../../Drivers/daisy_ILI9341.hpp ****             {
 440              		.loc 1 621 13 is_stmt 1 view .LVU134
 441 00d8 059B     		ldr	r3, [sp, #20]
 623:GUI/FX/../../Drivers/daisy_ILI9341.hpp ****                 x1 += signX;
 442              		.loc 1 623 17 view .LVU135
 621:GUI/FX/../../Drivers/daisy_ILI9341.hpp ****             {
 443              		.loc 1 621 13 is_stmt 0 view .LVU136
 444 00da B1EB470F 		cmp	r1, r7, lsl #1
 624:GUI/FX/../../Drivers/daisy_ILI9341.hpp ****             }
 445              		.loc 1 624 20 view .LVU137
 446 00de BEBF     		ittt	lt
 447 00e0 0399     		ldrlt	r1, [sp, #12]
 623:GUI/FX/../../Drivers/daisy_ILI9341.hpp ****                 x1 += signX;
 448              		.loc 1 623 23 view .LVU138
 449 00e2 A7EB0807 		sublt	r7, r7, r8
 450              	.LVL43:
 624:GUI/FX/../../Drivers/daisy_ILI9341.hpp ****             }
 451              		.loc 1 624 17 is_stmt 1 view .LVU139
 624:GUI/FX/../../Drivers/daisy_ILI9341.hpp ****             }
 452              		.loc 1 624 20 is_stmt 0 view .LVU140
 453 00e6 6D18     		addlt	r5, r5, r1
 454              	.LVL44:
 627:GUI/FX/../../Drivers/daisy_ILI9341.hpp ****             {
 455              		.loc 1 627 13 is_stmt 1 view .LVU141
 456 00e8 0299     		ldr	r1, [sp, #8]
 457 00ea 9142     		cmp	r1, r2
 458 00ec 02DD     		ble	.L19
 629:GUI/FX/../../Drivers/daisy_ILI9341.hpp ****                 y1 += signY;
 459              		.loc 1 629 17 view .LVU142
 630:GUI/FX/../../Drivers/daisy_ILI9341.hpp ****             }
 460              		.loc 1 630 20 is_stmt 0 view .LVU143
 461 00ee 049A     		ldr	r2, [sp, #16]
 462              	.LVL45:
 629:GUI/FX/../../Drivers/daisy_ILI9341.hpp ****                 y1 += signY;
ARM GAS  /var/folders/wz/z09yph4n0qj4t7mjxhl6ttn80000gn/T//ccWBe4mu.s 			page 30


 463              		.loc 1 629 23 view .LVU144
 464 00f0 0F44     		add	r7, r7, r1
 465              	.LVL46:
 630:GUI/FX/../../Drivers/daisy_ILI9341.hpp ****             }
 466              		.loc 1 630 17 is_stmt 1 view .LVU145
 630:GUI/FX/../../Drivers/daisy_ILI9341.hpp ****             }
 467              		.loc 1 630 20 is_stmt 0 view .LVU146
 468 00f2 1444     		add	r4, r4, r2
 469              	.LVL47:
 470              	.L19:
 630:GUI/FX/../../Drivers/daisy_ILI9341.hpp ****             }
 471              		.loc 1 630 20 view .LVU147
 472              	.LBE90:
 617:GUI/FX/../../Drivers/daisy_ILI9341.hpp ****         {
 473              		.loc 1 617 9 is_stmt 1 view .LVU148
 617:GUI/FX/../../Drivers/daisy_ILI9341.hpp ****         {
 474              		.loc 1 617 26 view .LVU149
 475 00f4 B542     		cmp	r5, r6
 476 00f6 E4D1     		bne	.L22
 617:GUI/FX/../../Drivers/daisy_ILI9341.hpp ****         {
 477              		.loc 1 617 26 is_stmt 0 discriminator 1 view .LVU150
 478 00f8 A345     		cmp	fp, r4
 479 00fa E2D1     		bne	.L22
 480              	.LVL48:
 481              	.L9:
 633:GUI/FX/../../Drivers/daisy_ILI9341.hpp **** 
 482              		.loc 1 633 5 view .LVU151
 483 00fc 07B0     		add	sp, sp, #28
 484              		.cfi_def_cfa_offset 36
 485              		@ sp needed
 486 00fe BDE8F08F 		pop	{r4, r5, r6, r7, r8, r9, r10, fp, pc}
 633:GUI/FX/../../Drivers/daisy_ILI9341.hpp **** 
 487              		.loc 1 633 5 view .LVU152
 488              		.cfi_endproc
 489              	.LFE2580:
 491              		.section	.text._ZN8UiDriver8DrawRectERKN5daisy9RectangleEhh,"axG",%progbits,_ZN8UiDriver8DrawRectE
 492              		.align	1
 493              		.weak	_ZN8UiDriver8DrawRectERKN5daisy9RectangleEhh
 494              		.syntax unified
 495              		.thumb
 496              		.thumb_func
 498              	_ZN8UiDriver8DrawRectERKN5daisy9RectangleEhh:
 499              	.LVL49:
 500              	.LFB2583:
 667:GUI/FX/../../Drivers/daisy_ILI9341.hpp ****     {
 501              		.loc 1 667 10 is_stmt 1 view -0
 502              		.cfi_startproc
 503              		@ args = 0, pretend = 0, frame = 8
 504              		@ frame_needed = 0, uses_anonymous_args = 0
 669:GUI/FX/../../Drivers/daisy_ILI9341.hpp ****                  rect.GetY(),
 505              		.loc 1 669 9 view .LVU154
 506              	.LBB101:
 507              	.LBI101:
 508              		.file 2 "../../../libDaisy//src/hid/disp/graphics_common.h"
   1:../../../libDaisy//src/hid/disp/graphics_common.h **** #pragma once
   2:../../../libDaisy//src/hid/disp/graphics_common.h **** 
   3:../../../libDaisy//src/hid/disp/graphics_common.h **** #include <cstdint>
ARM GAS  /var/folders/wz/z09yph4n0qj4t7mjxhl6ttn80000gn/T//ccWBe4mu.s 			page 31


   4:../../../libDaisy//src/hid/disp/graphics_common.h **** 
   5:../../../libDaisy//src/hid/disp/graphics_common.h **** namespace daisy
   6:../../../libDaisy//src/hid/disp/graphics_common.h **** {
   7:../../../libDaisy//src/hid/disp/graphics_common.h **** /** Justifications */
   8:../../../libDaisy//src/hid/disp/graphics_common.h **** enum class Alignment
   9:../../../libDaisy//src/hid/disp/graphics_common.h **** {
  10:../../../libDaisy//src/hid/disp/graphics_common.h ****     centered,
  11:../../../libDaisy//src/hid/disp/graphics_common.h ****     topLeft,
  12:../../../libDaisy//src/hid/disp/graphics_common.h ****     topCentered,
  13:../../../libDaisy//src/hid/disp/graphics_common.h ****     topRight,
  14:../../../libDaisy//src/hid/disp/graphics_common.h ****     bottomLeft,
  15:../../../libDaisy//src/hid/disp/graphics_common.h ****     bottomCentered,
  16:../../../libDaisy//src/hid/disp/graphics_common.h ****     bottomRight,
  17:../../../libDaisy//src/hid/disp/graphics_common.h ****     centeredLeft,
  18:../../../libDaisy//src/hid/disp/graphics_common.h ****     centeredRight
  19:../../../libDaisy//src/hid/disp/graphics_common.h **** };
  20:../../../libDaisy//src/hid/disp/graphics_common.h **** 
  21:../../../libDaisy//src/hid/disp/graphics_common.h **** class Rectangle
  22:../../../libDaisy//src/hid/disp/graphics_common.h **** {
  23:../../../libDaisy//src/hid/disp/graphics_common.h ****   public:
  24:../../../libDaisy//src/hid/disp/graphics_common.h ****     Rectangle() : x_(0), y_(0), width_(0), height_(0) {}
  25:../../../libDaisy//src/hid/disp/graphics_common.h **** 
  26:../../../libDaisy//src/hid/disp/graphics_common.h ****     Rectangle(int16_t width, int16_t height)
  27:../../../libDaisy//src/hid/disp/graphics_common.h ****     : x_(0), y_(0), width_(max(0, width)), height_(max(0, height))
  28:../../../libDaisy//src/hid/disp/graphics_common.h ****     {
  29:../../../libDaisy//src/hid/disp/graphics_common.h ****     }
  30:../../../libDaisy//src/hid/disp/graphics_common.h **** 
  31:../../../libDaisy//src/hid/disp/graphics_common.h ****     Rectangle(int16_t x, int16_t y, int16_t width, int16_t height)
  32:../../../libDaisy//src/hid/disp/graphics_common.h ****     : x_(x), y_(y), width_(max(0, width)), height_(max(0, height))
  33:../../../libDaisy//src/hid/disp/graphics_common.h ****     {
  34:../../../libDaisy//src/hid/disp/graphics_common.h ****     }
  35:../../../libDaisy//src/hid/disp/graphics_common.h **** 
  36:../../../libDaisy//src/hid/disp/graphics_common.h ****     Rectangle(const Rectangle& other) { *this = other; }
  37:../../../libDaisy//src/hid/disp/graphics_common.h **** 
  38:../../../libDaisy//src/hid/disp/graphics_common.h ****     Rectangle& operator=(const Rectangle& other)
  39:../../../libDaisy//src/hid/disp/graphics_common.h ****     {
  40:../../../libDaisy//src/hid/disp/graphics_common.h ****         x_      = other.x_;
  41:../../../libDaisy//src/hid/disp/graphics_common.h ****         y_      = other.y_;
  42:../../../libDaisy//src/hid/disp/graphics_common.h ****         width_  = other.width_;
  43:../../../libDaisy//src/hid/disp/graphics_common.h ****         height_ = other.height_;
  44:../../../libDaisy//src/hid/disp/graphics_common.h ****         return *this;
  45:../../../libDaisy//src/hid/disp/graphics_common.h ****     }
  46:../../../libDaisy//src/hid/disp/graphics_common.h **** 
  47:../../../libDaisy//src/hid/disp/graphics_common.h ****     bool operator==(const Rectangle& other) const
  48:../../../libDaisy//src/hid/disp/graphics_common.h ****     {
  49:../../../libDaisy//src/hid/disp/graphics_common.h ****         return (x_ == other.x_) && (y_ == other.y_) && (width_ == other.width_)
  50:../../../libDaisy//src/hid/disp/graphics_common.h ****                && (height_ == other.height_);
  51:../../../libDaisy//src/hid/disp/graphics_common.h ****     }
  52:../../../libDaisy//src/hid/disp/graphics_common.h ****     bool operator!=(const Rectangle& other) const { return !(*this == other); }
  53:../../../libDaisy//src/hid/disp/graphics_common.h **** 
  54:../../../libDaisy//src/hid/disp/graphics_common.h ****     bool IsEmpty() const { return (width_ <= 0) || (height_ <= 0); }
  55:../../../libDaisy//src/hid/disp/graphics_common.h **** 
  56:../../../libDaisy//src/hid/disp/graphics_common.h ****     int16_t GetX() const { return x_; }
 509              		.loc 2 56 13 view .LVU155
 510              	.LBB102:
 511              		.loc 2 56 28 view .LVU156
 512              		.loc 2 56 28 is_stmt 0 view .LVU157
ARM GAS  /var/folders/wz/z09yph4n0qj4t7mjxhl6ttn80000gn/T//ccWBe4mu.s 			page 32


 513              	.LBE102:
 514              	.LBE101:
 667:GUI/FX/../../Drivers/daisy_ILI9341.hpp ****     {
 515              		.loc 1 667 10 view .LVU158
 516 0000 2DE9F043 		push	{r4, r5, r6, r7, r8, r9, lr}
 517              		.cfi_def_cfa_offset 28
 518              		.cfi_offset 4, -28
 519              		.cfi_offset 5, -24
 520              		.cfi_offset 6, -20
 521              		.cfi_offset 7, -16
 522              		.cfi_offset 8, -12
 523              		.cfi_offset 9, -8
 524              		.cfi_offset 14, -4
 525 0004 0C46     		mov	r4, r1
 669:GUI/FX/../../Drivers/daisy_ILI9341.hpp ****                  rect.GetY(),
 526              		.loc 1 669 17 view .LVU159
 527 0006 0988     		ldrh	r1, [r1]
 528              	.LVL50:
 529              	.LBB103:
 530              	.LBI103:
  57:../../../libDaisy//src/hid/disp/graphics_common.h ****     int16_t GetY() const { return y_; }
 531              		.loc 2 57 13 is_stmt 1 view .LVU160
 532              	.LBB104:
 533              		.loc 2 57 28 view .LVU161
 534              		.loc 2 57 28 is_stmt 0 view .LVU162
 535              	.LBE104:
 536              	.LBE103:
 667:GUI/FX/../../Drivers/daisy_ILI9341.hpp ****     {
 537              		.loc 1 667 10 view .LVU163
 538 0008 87B0     		sub	sp, sp, #28
 539              		.cfi_def_cfa_offset 56
 667:GUI/FX/../../Drivers/daisy_ILI9341.hpp ****     {
 540              		.loc 1 667 10 view .LVU164
 541 000a 0746     		mov	r7, r0
 669:GUI/FX/../../Drivers/daisy_ILI9341.hpp ****                  rect.GetY(),
 542              		.loc 1 669 17 view .LVU165
 543 000c B4F80280 		ldrh	r8, [r4, #2]
 544              	.LVL51:
 545              	.LBB105:
 546              	.LBI105:
  58:../../../libDaisy//src/hid/disp/graphics_common.h ****     int16_t GetWidth() const { return width_; }
 547              		.loc 2 58 13 is_stmt 1 view .LVU166
 548              	.LBB106:
 549              		.loc 2 58 32 view .LVU167
 550              		.loc 2 58 32 is_stmt 0 view .LVU168
 551              	.LBE106:
 552              	.LBE105:
 553              	.LBB107:
 554              	.LBI107:
  59:../../../libDaisy//src/hid/disp/graphics_common.h ****     int16_t GetHeight() const { return height_; }
 555              		.loc 2 59 13 is_stmt 1 view .LVU169
 556              	.LBB108:
 557              		.loc 2 59 33 view .LVU170
 558              		.loc 2 59 33 is_stmt 0 view .LVU171
 559              	.LBE108:
 560              	.LBE107:
 561              	.LBB109:
ARM GAS  /var/folders/wz/z09yph4n0qj4t7mjxhl6ttn80000gn/T//ccWBe4mu.s 			page 33


 562              	.LBI109:
 652:GUI/FX/../../Drivers/daisy_ILI9341.hpp ****                   uint16_t y,
 563              		.loc 1 652 10 is_stmt 1 view .LVU172
 564              	.LBB110:
 659:GUI/FX/../../Drivers/daisy_ILI9341.hpp ****         auto y2 = y + h;
 565              		.loc 1 659 9 view .LVU173
 566              	.LBE110:
 567              	.LBE109:
 667:GUI/FX/../../Drivers/daisy_ILI9341.hpp ****     {
 568              		.loc 1 667 10 is_stmt 0 view .LVU174
 569 0010 1546     		mov	r5, r2
 570              	.LBB113:
 571              	.LBB111:
 659:GUI/FX/../../Drivers/daisy_ILI9341.hpp ****         auto y2 = y + h;
 572              		.loc 1 659 23 view .LVU175
 573 0012 B4F80490 		ldrh	r9, [r4, #4]
 574              	.LBE111:
 575              	.LBE113:
 667:GUI/FX/../../Drivers/daisy_ILI9341.hpp ****     {
 576              		.loc 1 667 10 view .LVU176
 577 0016 1E46     		mov	r6, r3
 578              	.LBB114:
 579              	.LBB112:
 660:GUI/FX/../../Drivers/daisy_ILI9341.hpp ****         DrawLine(x, y, x, y2, color, alpha);
 580              		.loc 1 660 23 view .LVU177
 581 0018 E488     		ldrh	r4, [r4, #6]
 582              	.LVL52:
 659:GUI/FX/../../Drivers/daisy_ILI9341.hpp ****         auto y2 = y + h;
 583              		.loc 1 659 14 view .LVU178
 584 001a 8944     		add	r9, r9, r1
 585              	.LVL53:
 660:GUI/FX/../../Drivers/daisy_ILI9341.hpp ****         DrawLine(x, y, x, y2, color, alpha);
 586              		.loc 1 660 9 is_stmt 1 view .LVU179
 661:GUI/FX/../../Drivers/daisy_ILI9341.hpp ****         DrawLine(x, y, x2, y, color, alpha);
 587              		.loc 1 661 9 view .LVU180
 661:GUI/FX/../../Drivers/daisy_ILI9341.hpp ****         DrawLine(x, y, x2, y, color, alpha);
 588              		.loc 1 661 17 is_stmt 0 view .LVU181
 589 001c 0591     		str	r1, [sp, #20]
 660:GUI/FX/../../Drivers/daisy_ILI9341.hpp ****         DrawLine(x, y, x, y2, color, alpha);
 590              		.loc 1 660 14 view .LVU182
 591 001e 4444     		add	r4, r4, r8
 592              	.LVL54:
 661:GUI/FX/../../Drivers/daisy_ILI9341.hpp ****         DrawLine(x, y, x2, y, color, alpha);
 593              		.loc 1 661 17 view .LVU183
 594 0020 CDE90123 		strd	r2, r3, [sp, #4]
 595              	.LVL55:
 661:GUI/FX/../../Drivers/daisy_ILI9341.hpp ****         DrawLine(x, y, x2, y, color, alpha);
 596              		.loc 1 661 17 view .LVU184
 597 0024 0094     		str	r4, [sp]
 598 0026 0B46     		mov	r3, r1
 599              	.LVL56:
 661:GUI/FX/../../Drivers/daisy_ILI9341.hpp ****         DrawLine(x, y, x2, y, color, alpha);
 600              		.loc 1 661 17 view .LVU185
 601 0028 4246     		mov	r2, r8
 602              	.LVL57:
 661:GUI/FX/../../Drivers/daisy_ILI9341.hpp ****         DrawLine(x, y, x2, y, color, alpha);
 603              		.loc 1 661 17 view .LVU186
ARM GAS  /var/folders/wz/z09yph4n0qj4t7mjxhl6ttn80000gn/T//ccWBe4mu.s 			page 34


 604 002a FFF7FEFF 		bl	_ZN8UiDriver8DrawLineEjjjjhh
 605              	.LVL58:
 662:GUI/FX/../../Drivers/daisy_ILI9341.hpp ****         DrawLine(x, y2, x2, y2, color, alpha);
 606              		.loc 1 662 9 is_stmt 1 view .LVU187
 662:GUI/FX/../../Drivers/daisy_ILI9341.hpp ****         DrawLine(x, y2, x2, y2, color, alpha);
 607              		.loc 1 662 17 is_stmt 0 view .LVU188
 608 002e 4B46     		mov	r3, r9
 609 0030 4246     		mov	r2, r8
 610 0032 0599     		ldr	r1, [sp, #20]
 611 0034 3846     		mov	r0, r7
 612 0036 CDF80080 		str	r8, [sp]
 613 003a CDE90156 		strd	r5, r6, [sp, #4]
 614 003e FFF7FEFF 		bl	_ZN8UiDriver8DrawLineEjjjjhh
 615              	.LVL59:
 663:GUI/FX/../../Drivers/daisy_ILI9341.hpp ****         DrawLine(x2, y, x2, y2, color, alpha);
 616              		.loc 1 663 9 is_stmt 1 view .LVU189
 663:GUI/FX/../../Drivers/daisy_ILI9341.hpp ****         DrawLine(x2, y, x2, y2, color, alpha);
 617              		.loc 1 663 17 is_stmt 0 view .LVU190
 618 0042 4B46     		mov	r3, r9
 619 0044 2246     		mov	r2, r4
 620 0046 0599     		ldr	r1, [sp, #20]
 621 0048 3846     		mov	r0, r7
 622 004a 0094     		str	r4, [sp]
 623 004c CDE90156 		strd	r5, r6, [sp, #4]
 624 0050 FFF7FEFF 		bl	_ZN8UiDriver8DrawLineEjjjjhh
 625              	.LVL60:
 664:GUI/FX/../../Drivers/daisy_ILI9341.hpp ****     }
 626              		.loc 1 664 9 is_stmt 1 view .LVU191
 664:GUI/FX/../../Drivers/daisy_ILI9341.hpp ****     }
 627              		.loc 1 664 17 is_stmt 0 view .LVU192
 628 0054 4B46     		mov	r3, r9
 629 0056 4246     		mov	r2, r8
 630 0058 4946     		mov	r1, r9
 631 005a 3846     		mov	r0, r7
 632 005c 0094     		str	r4, [sp]
 633 005e CDE90156 		strd	r5, r6, [sp, #4]
 634 0062 FFF7FEFF 		bl	_ZN8UiDriver8DrawLineEjjjjhh
 635              	.LVL61:
 664:GUI/FX/../../Drivers/daisy_ILI9341.hpp ****     }
 636              		.loc 1 664 17 view .LVU193
 637              	.LBE112:
 638              	.LBE114:
 675:GUI/FX/../../Drivers/daisy_ILI9341.hpp **** 
 639              		.loc 1 675 5 view .LVU194
 640 0066 07B0     		add	sp, sp, #28
 641              		.cfi_def_cfa_offset 28
 642              		@ sp needed
 643 0068 BDE8F083 		pop	{r4, r5, r6, r7, r8, r9, pc}
 675:GUI/FX/../../Drivers/daisy_ILI9341.hpp **** 
 644              		.loc 1 675 5 view .LVU195
 645              		.cfi_endproc
 646              	.LFE2583:
 648              		.section	.text._ZN8UiDriver11WriteStringEPKctt7FontDefh.isra.0,"ax",%progbits
 649              		.align	1
 650              		.syntax unified
 651              		.thumb
 652              		.thumb_func
ARM GAS  /var/folders/wz/z09yph4n0qj4t7mjxhl6ttn80000gn/T//ccWBe4mu.s 			page 35


 654              	_ZN8UiDriver11WriteStringEPKctt7FontDefh.isra.0:
 655              	.LVL62:
 656              	.LFB5945:
 857:GUI/FX/../../Drivers/daisy_ILI9341.hpp ****                      uint16_t    x,
 657              		.loc 1 857 10 is_stmt 1 view -0
 658              		.cfi_startproc
 659              		@ args = 16, pretend = 0, frame = 8
 660              		@ frame_needed = 0, uses_anonymous_args = 0
 863:GUI/FX/../../Drivers/daisy_ILI9341.hpp ****         while(*str) // Write until null-byte
 661              		.loc 1 863 9 view .LVU197
 857:GUI/FX/../../Drivers/daisy_ILI9341.hpp ****                      uint16_t    x,
 662              		.loc 1 857 10 is_stmt 0 view .LVU198
 663 0000 2DE9F04F 		push	{r4, r5, r6, r7, r8, r9, r10, fp, lr}
 664              		.cfi_def_cfa_offset 36
 665              		.cfi_offset 4, -36
 666              		.cfi_offset 5, -32
 667              		.cfi_offset 6, -28
 668              		.cfi_offset 7, -24
 669              		.cfi_offset 8, -20
 670              		.cfi_offset 9, -16
 671              		.cfi_offset 10, -12
 672              		.cfi_offset 11, -8
 673              		.cfi_offset 14, -4
 674              	.LBB117:
 675              	.LBB118:
 982:GUI/FX/../../Drivers/daisy_ILI9341.hpp ****         currentY_ = (y >= height) ? height - 1 : y;
 676              		.loc 1 982 27 view .LVU199
 677 0004 B0F85440 		ldrh	r4, [r0, #84]
 678              	.LBE118:
 679              	.LBE117:
 857:GUI/FX/../../Drivers/daisy_ILI9341.hpp ****                      uint16_t    x,
 680              		.loc 1 857 10 view .LVU200
 681 0008 1D46     		mov	r5, r3
 682              	.LVL63:
 683              	.LBB123:
 684              	.LBI117:
 980:GUI/FX/../../Drivers/daisy_ILI9341.hpp ****     {
 685              		.loc 1 980 10 is_stmt 1 view .LVU201
 686              	.LBB119:
 982:GUI/FX/../../Drivers/daisy_ILI9341.hpp ****         currentY_ = (y >= height) ? height - 1 : y;
 687              		.loc 1 982 9 view .LVU202
 688              	.LBE119:
 689              	.LBE123:
 857:GUI/FX/../../Drivers/daisy_ILI9341.hpp ****                      uint16_t    x,
 690              		.loc 1 857 10 is_stmt 0 view .LVU203
 691 000a 85B0     		sub	sp, sp, #20
 692              		.cfi_def_cfa_offset 56
 857:GUI/FX/../../Drivers/daisy_ILI9341.hpp ****                      uint16_t    x,
 693              		.loc 1 857 10 view .LVU204
 694 000c 0746     		mov	r7, r0
 695              	.LBB124:
 696              	.LBB120:
 982:GUI/FX/../../Drivers/daisy_ILI9341.hpp ****         currentY_ = (y >= height) ? height - 1 : y;
 697              		.loc 1 982 19 view .LVU205
 698 000e A242     		cmp	r2, r4
 699              	.LBE120:
 700              	.LBE124:
ARM GAS  /var/folders/wz/z09yph4n0qj4t7mjxhl6ttn80000gn/T//ccWBe4mu.s 			page 36


 857:GUI/FX/../../Drivers/daisy_ILI9341.hpp ****                      uint16_t    x,
 701              		.loc 1 857 10 view .LVU206
 702 0010 9DF83890 		ldrb	r9, [sp, #56]	@ zero_extendqisi2
 703              	.LBB125:
 704              	.LBB121:
 982:GUI/FX/../../Drivers/daisy_ILI9341.hpp ****         currentY_ = (y >= height) ? height - 1 : y;
 705              		.loc 1 982 19 view .LVU207
 706 0014 28BF     		it	cs
 707 0016 04F1FF32 		addcs	r2, r4, #-1
 708              	.LVL64:
 982:GUI/FX/../../Drivers/daisy_ILI9341.hpp ****         currentY_ = (y >= height) ? height - 1 : y;
 709              		.loc 1 982 19 view .LVU208
 710              	.LBE121:
 711              	.LBE125:
 857:GUI/FX/../../Drivers/daisy_ILI9341.hpp ****                      uint16_t    x,
 712              		.loc 1 857 10 view .LVU209
 713 001a 9DF83CA0 		ldrb	r10, [sp, #60]	@ zero_extendqisi2
 714 001e 9DF84430 		ldrb	r3, [sp, #68]	@ zero_extendqisi2
 715              	.LVL65:
 857:GUI/FX/../../Drivers/daisy_ILI9341.hpp ****                      uint16_t    x,
 716              		.loc 1 857 10 view .LVU210
 717 0022 01F1FF34 		add	r4, r1, #-1
 718              	.LBB126:
 719              	.LBB122:
 982:GUI/FX/../../Drivers/daisy_ILI9341.hpp ****         currentY_ = (y >= height) ? height - 1 : y;
 720              		.loc 1 982 19 view .LVU211
 721 0026 28BF     		it	cs
 722 0028 92B2     		uxthcs	r2, r2
 723 002a A0F86220 		strh	r2, [r0, #98]	@ movhi
 983:GUI/FX/../../Drivers/daisy_ILI9341.hpp ****     }
 724              		.loc 1 983 9 is_stmt 1 view .LVU212
 983:GUI/FX/../../Drivers/daisy_ILI9341.hpp ****     }
 725              		.loc 1 983 27 is_stmt 0 view .LVU213
 726 002e B0F85620 		ldrh	r2, [r0, #86]
 983:GUI/FX/../../Drivers/daisy_ILI9341.hpp ****     }
 727              		.loc 1 983 19 view .LVU214
 728 0032 9542     		cmp	r5, r2
 729 0034 24BF     		itt	cs
 730 0036 02F1FF32 		addcs	r2, r2, #-1
 731 003a 95B2     		uxthcs	r5, r2
 732              	.LVL66:
 983:GUI/FX/../../Drivers/daisy_ILI9341.hpp ****     }
 733              		.loc 1 983 19 view .LVU215
 734 003c A0F86450 		strh	r5, [r0, #100]	@ movhi
 735              	.LVL67:
 736              	.L35:
 983:GUI/FX/../../Drivers/daisy_ILI9341.hpp ****     }
 737              		.loc 1 983 19 view .LVU216
 738              	.LBE122:
 739              	.LBE126:
 864:GUI/FX/../../Drivers/daisy_ILI9341.hpp ****         {
 740              		.loc 1 864 9 is_stmt 1 view .LVU217
 864:GUI/FX/../../Drivers/daisy_ILI9341.hpp ****         {
 741              		.loc 1 864 15 view .LVU218
 742 0040 14F801BF 		ldrb	fp, [r4, #1]!	@ zero_extendqisi2
 743              	.LVL68:
 864:GUI/FX/../../Drivers/daisy_ILI9341.hpp ****         {
ARM GAS  /var/folders/wz/z09yph4n0qj4t7mjxhl6ttn80000gn/T//ccWBe4mu.s 			page 37


 744              		.loc 1 864 15 is_stmt 0 view .LVU219
 745 0044 ABF12005 		sub	r5, fp, #32
 746 0048 EAB2     		uxtb	r2, r5
 747 004a 5E2A     		cmp	r2, #94
 748 004c 4DD8     		bhi	.L24
 866:GUI/FX/../../Drivers/daisy_ILI9341.hpp ****             {
 749              		.loc 1 866 13 is_stmt 1 view .LVU220
 750              	.LVL69:
 823:GUI/FX/../../Drivers/daisy_ILI9341.hpp ****             return 0;
 751              		.loc 1 823 9 view .LVU221
 827:GUI/FX/../../Drivers/daisy_ILI9341.hpp ****            || height < (currentY_ + font.FontHeight))
 752              		.loc 1 827 9 view .LVU222
 827:GUI/FX/../../Drivers/daisy_ILI9341.hpp ****            || height < (currentY_ + font.FontHeight))
 753              		.loc 1 827 21 is_stmt 0 view .LVU223
 754 004e B7F86220 		ldrh	r2, [r7, #98]
 827:GUI/FX/../../Drivers/daisy_ILI9341.hpp ****            || height < (currentY_ + font.FontHeight))
 755              		.loc 1 827 12 view .LVU224
 756 0052 B7F85410 		ldrh	r1, [r7, #84]
 827:GUI/FX/../../Drivers/daisy_ILI9341.hpp ****            || height < (currentY_ + font.FontHeight))
 757              		.loc 1 827 31 view .LVU225
 758 0056 4A44     		add	r2, r2, r9
 827:GUI/FX/../../Drivers/daisy_ILI9341.hpp ****            || height < (currentY_ + font.FontHeight))
 759              		.loc 1 827 9 view .LVU226
 760 0058 9142     		cmp	r1, r2
 761 005a 46DB     		blt	.L24
 828:GUI/FX/../../Drivers/daisy_ILI9341.hpp ****         {
 762              		.loc 1 828 25 view .LVU227
 763 005c B7F86420 		ldrh	r2, [r7, #100]
 828:GUI/FX/../../Drivers/daisy_ILI9341.hpp ****         {
 764              		.loc 1 828 15 view .LVU228
 765 0060 B7F85610 		ldrh	r1, [r7, #86]
 828:GUI/FX/../../Drivers/daisy_ILI9341.hpp ****         {
 766              		.loc 1 828 35 view .LVU229
 767 0064 5244     		add	r2, r2, r10
 828:GUI/FX/../../Drivers/daisy_ILI9341.hpp ****         {
 768              		.loc 1 828 12 view .LVU230
 769 0066 9142     		cmp	r1, r2
 770 0068 3FDB     		blt	.L24
 836:GUI/FX/../../Drivers/daisy_ILI9341.hpp ****             for(auto j = 0; j < font.FontWidth; j++)
 771              		.loc 1 836 42 view .LVU231
 772 006a 0AFB05F5 		mul	r5, r10, r5
 773 006e 109A     		ldr	r2, [sp, #64]
 834:GUI/FX/../../Drivers/daisy_ILI9341.hpp ****         {
 774              		.loc 1 834 18 view .LVU232
 775 0070 4FF00008 		mov	r8, #0
 776 0074 02EB4505 		add	r5, r2, r5, lsl #1
 777              	.L32:
 778              	.LVL70:
 834:GUI/FX/../../Drivers/daisy_ILI9341.hpp ****         {
 779              		.loc 1 834 27 is_stmt 1 view .LVU233
 780 0078 C245     		cmp	r10, r8
 781 007a 1BDD     		ble	.L28
 836:GUI/FX/../../Drivers/daisy_ILI9341.hpp ****             for(auto j = 0; j < font.FontWidth; j++)
 782              		.loc 1 836 13 view .LVU234
 836:GUI/FX/../../Drivers/daisy_ILI9341.hpp ****             for(auto j = 0; j < font.FontWidth; j++)
 783              		.loc 1 836 18 is_stmt 0 view .LVU235
 784 007c 35F8022B 		ldrh	r2, [r5], #2
ARM GAS  /var/folders/wz/z09yph4n0qj4t7mjxhl6ttn80000gn/T//ccWBe4mu.s 			page 38


 837:GUI/FX/../../Drivers/daisy_ILI9341.hpp ****             {
 785              		.loc 1 837 22 view .LVU236
 786 0080 0026     		movs	r6, #0
 836:GUI/FX/../../Drivers/daisy_ILI9341.hpp ****             for(auto j = 0; j < font.FontWidth; j++)
 787              		.loc 1 836 18 view .LVU237
 788 0082 0292     		str	r2, [sp, #8]
 789              	.LVL71:
 837:GUI/FX/../../Drivers/daisy_ILI9341.hpp ****             {
 790              		.loc 1 837 13 is_stmt 1 view .LVU238
 791              	.L31:
 837:GUI/FX/../../Drivers/daisy_ILI9341.hpp ****             {
 792              		.loc 1 837 31 view .LVU239
 793 0084 B145     		cmp	r9, r6
 794 0086 12DD     		ble	.L29
 839:GUI/FX/../../Drivers/daisy_ILI9341.hpp ****                 {
 795              		.loc 1 839 17 view .LVU240
 839:GUI/FX/../../Drivers/daisy_ILI9341.hpp ****                 {
 796              		.loc 1 839 23 is_stmt 0 view .LVU241
 797 0088 029A     		ldr	r2, [sp, #8]
 798 008a B240     		lsls	r2, r2, r6
 839:GUI/FX/../../Drivers/daisy_ILI9341.hpp ****                 {
 799              		.loc 1 839 17 view .LVU242
 800 008c 1204     		lsls	r2, r2, #16
 801 008e 0CD5     		bpl	.L30
 841:GUI/FX/../../Drivers/daisy_ILI9341.hpp ****                 }
 802              		.loc 1 841 21 is_stmt 1 view .LVU243
 841:GUI/FX/../../Drivers/daisy_ILI9341.hpp ****                 }
 803              		.loc 1 841 47 is_stmt 0 view .LVU244
 804 0090 B7F86420 		ldrh	r2, [r7, #100]
 841:GUI/FX/../../Drivers/daisy_ILI9341.hpp ****                 }
 805              		.loc 1 841 30 view .LVU245
 806 0094 FF20     		movs	r0, #255
 841:GUI/FX/../../Drivers/daisy_ILI9341.hpp ****                 }
 807              		.loc 1 841 31 view .LVU246
 808 0096 B7F86210 		ldrh	r1, [r7, #98]
 841:GUI/FX/../../Drivers/daisy_ILI9341.hpp ****                 }
 809              		.loc 1 841 30 view .LVU247
 810 009a 0090     		str	r0, [sp]
 811 009c 4244     		add	r2, r2, r8
 812 009e 3144     		add	r1, r1, r6
 813 00a0 3846     		mov	r0, r7
 814 00a2 0393     		str	r3, [sp, #12]
 815 00a4 FFF7FEFF 		bl	_ZN8UiDriver9DrawPixelEjjhh
 816              	.LVL72:
 817 00a8 039B     		ldr	r3, [sp, #12]
 818              	.L30:
 837:GUI/FX/../../Drivers/daisy_ILI9341.hpp ****             {
 819              		.loc 1 837 13 is_stmt 1 view .LVU248
 820 00aa 0136     		adds	r6, r6, #1
 821              	.LVL73:
 837:GUI/FX/../../Drivers/daisy_ILI9341.hpp ****             {
 822              		.loc 1 837 13 is_stmt 0 view .LVU249
 823 00ac EAE7     		b	.L31
 824              	.L29:
 834:GUI/FX/../../Drivers/daisy_ILI9341.hpp ****         {
 825              		.loc 1 834 9 is_stmt 1 view .LVU250
 826 00ae 08F10108 		add	r8, r8, #1
ARM GAS  /var/folders/wz/z09yph4n0qj4t7mjxhl6ttn80000gn/T//ccWBe4mu.s 			page 39


 827              	.LVL74:
 834:GUI/FX/../../Drivers/daisy_ILI9341.hpp ****         {
 828              		.loc 1 834 9 is_stmt 0 view .LVU251
 829 00b2 E1E7     		b	.L32
 830              	.LVL75:
 831              	.L28:
 847:GUI/FX/../../Drivers/daisy_ILI9341.hpp **** 
 832              		.loc 1 847 9 is_stmt 1 view .LVU252
 847:GUI/FX/../../Drivers/daisy_ILI9341.hpp **** 
 833              		.loc 1 847 18 is_stmt 0 view .LVU253
 834 00b4 B7F86220 		ldrh	r2, [r7, #98]
 982:GUI/FX/../../Drivers/daisy_ILI9341.hpp ****         currentY_ = (y >= height) ? height - 1 : y;
 835              		.loc 1 982 27 view .LVU254
 836 00b8 B7F85410 		ldrh	r1, [r7, #84]
 847:GUI/FX/../../Drivers/daisy_ILI9341.hpp **** 
 837              		.loc 1 847 18 view .LVU255
 838 00bc 4A44     		add	r2, r2, r9
 839 00be B7F86450 		ldrh	r5, [r7, #100]
 840              	.LVL76:
 847:GUI/FX/../../Drivers/daisy_ILI9341.hpp **** 
 841              		.loc 1 847 18 view .LVU256
 842 00c2 92B2     		uxth	r2, r2
 843              	.LVL77:
 982:GUI/FX/../../Drivers/daisy_ILI9341.hpp ****         currentY_ = (y >= height) ? height - 1 : y;
 844              		.loc 1 982 9 is_stmt 1 view .LVU257
 982:GUI/FX/../../Drivers/daisy_ILI9341.hpp ****         currentY_ = (y >= height) ? height - 1 : y;
 845              		.loc 1 982 19 is_stmt 0 view .LVU258
 846 00c4 8A42     		cmp	r2, r1
 847 00c6 24BF     		itt	cs
 848 00c8 01F1FF31 		addcs	r1, r1, #-1
 849 00cc 8AB2     		uxthcs	r2, r1
 850              	.LVL78:
 982:GUI/FX/../../Drivers/daisy_ILI9341.hpp ****         currentY_ = (y >= height) ? height - 1 : y;
 851              		.loc 1 982 19 view .LVU259
 852 00ce A7F86220 		strh	r2, [r7, #98]	@ movhi
 853              	.LVL79:
 983:GUI/FX/../../Drivers/daisy_ILI9341.hpp ****     }
 854              		.loc 1 983 9 is_stmt 1 view .LVU260
 983:GUI/FX/../../Drivers/daisy_ILI9341.hpp ****     }
 855              		.loc 1 983 27 is_stmt 0 view .LVU261
 856 00d2 B7F85620 		ldrh	r2, [r7, #86]
 983:GUI/FX/../../Drivers/daisy_ILI9341.hpp ****     }
 857              		.loc 1 983 19 view .LVU262
 858 00d6 9542     		cmp	r5, r2
 859 00d8 24BF     		itt	cs
 860 00da 02F1FF32 		addcs	r2, r2, #-1
 861 00de 95B2     		uxthcs	r5, r2
 862              	.LVL80:
 983:GUI/FX/../../Drivers/daisy_ILI9341.hpp ****     }
 863              		.loc 1 983 19 view .LVU263
 864 00e0 A7F86450 		strh	r5, [r7, #100]	@ movhi
 865              	.LVL81:
 866:GUI/FX/../../Drivers/daisy_ILI9341.hpp ****             {
 866              		.loc 1 866 13 view .LVU264
 867 00e4 2278     		ldrb	r2, [r4]	@ zero_extendqisi2
 868 00e6 5A45     		cmp	r2, fp
 869 00e8 AAD0     		beq	.L35
ARM GAS  /var/folders/wz/z09yph4n0qj4t7mjxhl6ttn80000gn/T//ccWBe4mu.s 			page 40


 870              	.L24:
 872:GUI/FX/../../Drivers/daisy_ILI9341.hpp **** 
 871              		.loc 1 872 5 view .LVU265
 872 00ea 05B0     		add	sp, sp, #20
 873              		.cfi_def_cfa_offset 36
 874              		@ sp needed
 875 00ec BDE8F08F 		pop	{r4, r5, r6, r7, r8, r9, r10, fp, pc}
 872:GUI/FX/../../Drivers/daisy_ILI9341.hpp **** 
 876              		.loc 1 872 5 view .LVU266
 877              		.cfi_endproc
 878              	.LFE5945:
 880              		.section	.text._ZN9MixerView4initEPN5daisy9DaisySeedEP13EncoderDriverP12KeypadDriver,"ax",%progbit
 881              		.align	1
 882              		.global	_ZN9MixerView4initEPN5daisy9DaisySeedEP13EncoderDriverP12KeypadDriver
 883              		.syntax unified
 884              		.thumb
 885              		.thumb_func
 887              	_ZN9MixerView4initEPN5daisy9DaisySeedEP13EncoderDriverP12KeypadDriver:
 888              	.LVL82:
 889              	.LFB5124:
 890              		.file 3 "GUI/MixerView.cpp"
   1:GUI/MixerView.cpp **** #include "MixerView.h"
   2:GUI/MixerView.cpp **** 
   3:GUI/MixerView.cpp **** void MixerView::init(DaisySeed* seed, EncoderDriver* encoder, KeypadDriver* kpd)
   4:GUI/MixerView.cpp **** {
 891              		.loc 3 4 1 is_stmt 1 view -0
 892              		.cfi_startproc
 893              		@ args = 0, pretend = 0, frame = 0
 894              		@ frame_needed = 0, uses_anonymous_args = 0
   5:GUI/MixerView.cpp ****     keypad = kpd;
 895              		.loc 3 5 5 view .LVU268
   4:GUI/MixerView.cpp ****     keypad = kpd;
 896              		.loc 3 4 1 is_stmt 0 view .LVU269
 897 0000 70B5     		push	{r4, r5, r6, lr}
 898              		.cfi_def_cfa_offset 16
 899              		.cfi_offset 4, -16
 900              		.cfi_offset 5, -12
 901              		.cfi_offset 6, -8
 902              		.cfi_offset 14, -4
   4:GUI/MixerView.cpp ****     keypad = kpd;
 903              		.loc 3 4 1 view .LVU270
 904 0002 0446     		mov	r4, r0
 905 0004 0E46     		mov	r6, r1
 906 0006 1546     		mov	r5, r2
 907              		.loc 3 5 12 view .LVU271
 908 0008 40F8043B 		str	r3, [r0], #4
 909              	.LVL83:
   6:GUI/MixerView.cpp **** 
   7:GUI/MixerView.cpp ****     amp1.init(0, seed);
 910              		.loc 3 7 5 is_stmt 1 view .LVU272
 911              		.loc 3 7 14 is_stmt 0 view .LVU273
 912 000c 0A46     		mov	r2, r1
 913              	.LVL84:
 914              		.loc 3 7 14 view .LVU274
 915 000e 0021     		movs	r1, #0
 916              	.LVL85:
 917              		.loc 3 7 14 view .LVU275
ARM GAS  /var/folders/wz/z09yph4n0qj4t7mjxhl6ttn80000gn/T//ccWBe4mu.s 			page 41


 918 0010 FFF7FEFF 		bl	_ZN11AudioSlider4initEiPN5daisy9DaisySeedE
 919              	.LVL86:
   8:GUI/MixerView.cpp ****     amp2.init(1, seed);
 920              		.loc 3 8 5 is_stmt 1 view .LVU276
 921              		.loc 3 8 14 is_stmt 0 view .LVU277
 922 0014 3246     		mov	r2, r6
 923 0016 04F11800 		add	r0, r4, #24
 924 001a 0121     		movs	r1, #1
 925 001c FFF7FEFF 		bl	_ZN11AudioSlider4initEiPN5daisy9DaisySeedE
 926              	.LVL87:
   9:GUI/MixerView.cpp ****     amp3.init(2, seed);
 927              		.loc 3 9 5 is_stmt 1 view .LVU278
 928              		.loc 3 9 14 is_stmt 0 view .LVU279
 929 0020 3246     		mov	r2, r6
 930 0022 04F12C00 		add	r0, r4, #44
 931 0026 0221     		movs	r1, #2
 932 0028 FFF7FEFF 		bl	_ZN11AudioSlider4initEiPN5daisy9DaisySeedE
 933              	.LVL88:
  10:GUI/MixerView.cpp ****     amp4.init(3, seed);
 934              		.loc 3 10 5 is_stmt 1 view .LVU280
 935              		.loc 3 10 14 is_stmt 0 view .LVU281
 936 002c 3246     		mov	r2, r6
 937 002e 04F14000 		add	r0, r4, #64
 938 0032 0321     		movs	r1, #3
 939 0034 FFF7FEFF 		bl	_ZN11AudioSlider4initEiPN5daisy9DaisySeedE
 940              	.LVL89:
  11:GUI/MixerView.cpp **** 
  12:GUI/MixerView.cpp ****     selectedChannel = 0;
 941              		.loc 3 12 5 is_stmt 1 view .LVU282
  13:GUI/MixerView.cpp **** 
  14:GUI/MixerView.cpp ****     track1.init(1, encoder, keypad);
 942              		.loc 3 14 16 is_stmt 0 view .LVU283
 943 0038 2046     		mov	r0, r4
  12:GUI/MixerView.cpp **** 
 944              		.loc 3 12 21 view .LVU284
 945 003a 0023     		movs	r3, #0
 946              		.loc 3 14 16 view .LVU285
 947 003c 2A46     		mov	r2, r5
 948 003e 0121     		movs	r1, #1
  12:GUI/MixerView.cpp **** 
 949              		.loc 3 12 21 view .LVU286
 950 0040 6365     		str	r3, [r4, #84]
 951              		.loc 3 14 5 is_stmt 1 view .LVU287
 952              		.loc 3 14 16 is_stmt 0 view .LVU288
 953 0042 50F8A83B 		ldr	r3, [r0], #168
 954 0046 FFF7FEFF 		bl	_ZN9TrackView4initEiP13EncoderDriverP12KeypadDriver
 955              	.LVL90:
  15:GUI/MixerView.cpp ****     track2.init(2, encoder, keypad);
 956              		.loc 3 15 5 is_stmt 1 view .LVU289
 957              		.loc 3 15 16 is_stmt 0 view .LVU290
 958 004a 2368     		ldr	r3, [r4]
 959 004c 2A46     		mov	r2, r5
 960 004e 04F53F70 		add	r0, r4, #764
 961 0052 0221     		movs	r1, #2
 962 0054 FFF7FEFF 		bl	_ZN9TrackView4initEiP13EncoderDriverP12KeypadDriver
 963              	.LVL91:
  16:GUI/MixerView.cpp ****     track3.init(3, encoder, keypad);
ARM GAS  /var/folders/wz/z09yph4n0qj4t7mjxhl6ttn80000gn/T//ccWBe4mu.s 			page 42


 964              		.loc 3 16 5 is_stmt 1 view .LVU291
 965              		.loc 3 16 16 is_stmt 0 view .LVU292
 966 0058 2368     		ldr	r3, [r4]
 967 005a 2A46     		mov	r2, r5
 968 005c 04F5AA60 		add	r0, r4, #1360
 969 0060 0321     		movs	r1, #3
 970 0062 FFF7FEFF 		bl	_ZN9TrackView4initEiP13EncoderDriverP12KeypadDriver
 971              	.LVL92:
  17:GUI/MixerView.cpp ****     track4.init(4, encoder, keypad);
 972              		.loc 3 17 5 is_stmt 1 view .LVU293
 973              		.loc 3 17 16 is_stmt 0 view .LVU294
 974 0066 2368     		ldr	r3, [r4]
 975 0068 2A46     		mov	r2, r5
 976 006a 04F2A470 		addw	r0, r4, #1956
 977 006e 0421     		movs	r1, #4
  18:GUI/MixerView.cpp **** }
 978              		.loc 3 18 1 view .LVU295
 979 0070 BDE87040 		pop	{r4, r5, r6, lr}
 980              		.cfi_restore 14
 981              		.cfi_restore 6
 982              		.cfi_restore 5
 983              		.cfi_restore 4
 984              		.cfi_def_cfa_offset 0
 985              	.LVL93:
  17:GUI/MixerView.cpp ****     track4.init(4, encoder, keypad);
 986              		.loc 3 17 16 view .LVU296
 987 0074 FFF7FEBF 		b	_ZN9TrackView4initEiP13EncoderDriverP12KeypadDriver
 988              	.LVL94:
  17:GUI/MixerView.cpp ****     track4.init(4, encoder, keypad);
 989              		.loc 3 17 16 view .LVU297
 990              		.cfi_endproc
 991              	.LFE5124:
 993              		.section	.rodata._ZN9MixerView7repaintEv.str1.1,"aMS",%progbits,1
 994              	.LC0:
 995 0000 54656D70 		.ascii	"Tempo 120\000"
 995      6F203132 
 995      3000
 996              	.LC1:
 997 000a 4D61696E 		.ascii	"Main Mixer\000"
 997      204D6978 
 997      657200
 998              	.LC2:
 999 0015 57617665 		.ascii	"Waveform\000"
 999      666F726D 
 999      00
 1000              		.section	.text._ZN9MixerView7repaintEv,"ax",%progbits
 1001              		.align	1
 1002              		.global	_ZN9MixerView7repaintEv
 1003              		.syntax unified
 1004              		.thumb
 1005              		.thumb_func
 1007              	_ZN9MixerView7repaintEv:
 1008              	.LVL95:
 1009              	.LFB5126:
  19:GUI/MixerView.cpp **** 
  20:GUI/MixerView.cpp **** void MixerView::tick()
  21:GUI/MixerView.cpp **** {
ARM GAS  /var/folders/wz/z09yph4n0qj4t7mjxhl6ttn80000gn/T//ccWBe4mu.s 			page 43


  22:GUI/MixerView.cpp ****     amp1.tick();
  23:GUI/MixerView.cpp ****     amp2.tick();
  24:GUI/MixerView.cpp ****     amp3.tick();
  25:GUI/MixerView.cpp ****     amp4.tick();
  26:GUI/MixerView.cpp **** 
  27:GUI/MixerView.cpp ****     track1.tick();
  28:GUI/MixerView.cpp ****     track2.tick();
  29:GUI/MixerView.cpp ****     track3.tick();
  30:GUI/MixerView.cpp ****     track4.tick();
  31:GUI/MixerView.cpp **** 
  32:GUI/MixerView.cpp ****     if(isOpen)
  33:GUI/MixerView.cpp ****         repaint();
  34:GUI/MixerView.cpp **** }
  35:GUI/MixerView.cpp **** 
  36:GUI/MixerView.cpp **** void MixerView::repaint()
  37:GUI/MixerView.cpp **** {
 1010              		.loc 3 37 1 is_stmt 1 view -0
 1011              		.cfi_startproc
 1012              		@ args = 0, pretend = 0, frame = 8
 1013              		@ frame_needed = 0, uses_anonymous_args = 0
  38:GUI/MixerView.cpp ****     if(!isPainted)
 1014              		.loc 3 38 5 view .LVU299
 1015              	.LBB127:
 1016 0000 90F8F939 		ldrb	r3, [r0, #2553]	@ zero_extendqisi2
 1017              	.LBE127:
  37:GUI/MixerView.cpp ****     if(!isPainted)
 1018              		.loc 3 37 1 is_stmt 0 view .LVU300
 1019 0004 2DE9F041 		push	{r4, r5, r6, r7, r8, lr}
 1020              		.cfi_def_cfa_offset 24
 1021              		.cfi_offset 4, -24
 1022              		.cfi_offset 5, -20
 1023              		.cfi_offset 6, -16
 1024              		.cfi_offset 7, -12
 1025              		.cfi_offset 8, -8
 1026              		.cfi_offset 14, -4
 1027 0008 0546     		mov	r5, r0
 1028 000a 86B0     		sub	sp, sp, #24
 1029              		.cfi_def_cfa_offset 48
 1030              	.LBB195:
 1031              		.loc 3 38 5 view .LVU301
 1032 000c 002B     		cmp	r3, #0
 1033 000e 5FD1     		bne	.L42
 1034              	.LBB128:
  39:GUI/MixerView.cpp ****     {
  40:GUI/MixerView.cpp ****         // Draw the header frames and texts only for the first channel to avoid redundancy
  41:GUI/MixerView.cpp ****         // Screen border
  42:GUI/MixerView.cpp ****         lcd.DrawRect(Rectangle(StyleSheet::Mixer::frameThickness, StyleSheet::Mixer::frameThickness
 1035              		.loc 3 42 9 is_stmt 1 view .LVU302
 1036              	.LVL96:
 1037              	.LBB129:
 1038              	.LBI129:
  31:../../../libDaisy//src/hid/disp/graphics_common.h ****     : x_(x), y_(y), width_(max(0, width)), height_(max(0, height))
 1039              		.loc 2 31 5 view .LVU303
 1040              	.LBB130:
 1041              	.LBB131:
  32:../../../libDaisy//src/hid/disp/graphics_common.h ****     {
 1042              		.loc 2 32 66 is_stmt 0 view .LVU304
ARM GAS  /var/folders/wz/z09yph4n0qj4t7mjxhl6ttn80000gn/T//ccWBe4mu.s 			page 44


 1043 0010 4FF49E73 		mov	r3, #316
 1044 0014 0226     		movs	r6, #2
 1045              	.LBE131:
 1046              	.LBE130:
 1047              	.LBE129:
 1048              		.loc 3 42 21 view .LVU305
 1049 0016 0422     		movs	r2, #4
 1050 0018 04A9     		add	r1, sp, #16
 1051              	.LVL97:
 1052              	.LBB144:
 1053              	.LBB139:
 1054              	.LBB134:
  32:../../../libDaisy//src/hid/disp/graphics_common.h ****     {
 1055              		.loc 2 32 66 view .LVU306
 1056 001a ADF81430 		strh	r3, [sp, #20]	@ movhi
 1057 001e EC23     		movs	r3, #236
 1058              	.LBE134:
 1059              	.LBE139:
 1060              	.LBE144:
 1061              		.loc 3 42 21 view .LVU307
 1062 0020 3548     		ldr	r0, .L48
 1063              	.LVL98:
  43:GUI/MixerView.cpp ****         // "Tempo 120" frame and text
  44:GUI/MixerView.cpp ****         const int tempoBoxWidth = 75; 
  45:GUI/MixerView.cpp ****         lcd.DrawRect(Rectangle(2, 2, tempoBoxWidth, 30), StyleSheet::Mixer::frameColor);
  46:GUI/MixerView.cpp ****         lcd.WriteString("Tempo 120", 10, 15, Font_7x10, StyleSheet::Mixer::frameColor);
 1064              		.loc 3 46 24 view .LVU308
 1065 0022 0427     		movs	r7, #4
 1066              	.LBB145:
 1067              	.LBB140:
 1068              	.LBB135:
  32:../../../libDaisy//src/hid/disp/graphics_common.h ****     {
 1069              		.loc 2 32 66 view .LVU309
 1070 0024 ADF81630 		strh	r3, [sp, #22]	@ movhi
 1071              	.LBE135:
 1072              	.LBE140:
 1073              	.LBE145:
  42:GUI/MixerView.cpp ****         // "Tempo 120" frame and text
 1074              		.loc 3 42 21 view .LVU310
 1075 0028 FF23     		movs	r3, #255
 1076              	.LBB146:
 1077              	.LBB141:
 1078              	.LBB136:
  32:../../../libDaisy//src/hid/disp/graphics_common.h ****     {
 1079              		.loc 2 32 66 view .LVU311
 1080 002a ADF81060 		strh	r6, [sp, #16]	@ movhi
 1081              	.LBE136:
 1082              	.LBE141:
 1083              	.LBE146:
 1084              	.LBB147:
 1085              	.LBB148:
 1086              	.LBB149:
 1087 002e 4FF01E08 		mov	r8, #30
 1088              	.LBE149:
 1089              	.LBE148:
 1090              	.LBE147:
 1091              	.LBB162:
ARM GAS  /var/folders/wz/z09yph4n0qj4t7mjxhl6ttn80000gn/T//ccWBe4mu.s 			page 45


 1092              	.LBB142:
 1093              	.LBB137:
 1094 0032 ADF81260 		strh	r6, [sp, #18]	@ movhi
 1095              	.LVL99:
 1096              	.LBB132:
 1097              	.LBI132:
  60:../../../libDaisy//src/hid/disp/graphics_common.h ****     int16_t GetRight() const { return x_ + width_; }
  61:../../../libDaisy//src/hid/disp/graphics_common.h ****     int16_t GetBottom() const { return y_ + height_; }
  62:../../../libDaisy//src/hid/disp/graphics_common.h ****     int16_t GetCenterX() const { return x_ + width_ / 2; }
  63:../../../libDaisy//src/hid/disp/graphics_common.h ****     int16_t GetCenterY() const { return y_ + height_ / 2; }
  64:../../../libDaisy//src/hid/disp/graphics_common.h **** 
  65:../../../libDaisy//src/hid/disp/graphics_common.h ****     Rectangle WithX(int16_t x) const { return {x, y_, width_, height_}; }
  66:../../../libDaisy//src/hid/disp/graphics_common.h ****     Rectangle WithY(int16_t y) const { return {x_, y, width_, height_}; }
  67:../../../libDaisy//src/hid/disp/graphics_common.h ****     Rectangle WithWidth(int16_t width) const
  68:../../../libDaisy//src/hid/disp/graphics_common.h ****     {
  69:../../../libDaisy//src/hid/disp/graphics_common.h ****         return {x_, y_, width, height_};
  70:../../../libDaisy//src/hid/disp/graphics_common.h ****     }
  71:../../../libDaisy//src/hid/disp/graphics_common.h ****     Rectangle WithHeight(int16_t height) const
  72:../../../libDaisy//src/hid/disp/graphics_common.h ****     {
  73:../../../libDaisy//src/hid/disp/graphics_common.h ****         return {x_, y_, width_, height};
  74:../../../libDaisy//src/hid/disp/graphics_common.h ****     }
  75:../../../libDaisy//src/hid/disp/graphics_common.h ****     Rectangle WithSize(int16_t width, int16_t height) const
  76:../../../libDaisy//src/hid/disp/graphics_common.h ****     {
  77:../../../libDaisy//src/hid/disp/graphics_common.h ****         return {x_, y_, width, height};
  78:../../../libDaisy//src/hid/disp/graphics_common.h ****     }
  79:../../../libDaisy//src/hid/disp/graphics_common.h ****     Rectangle WithWidthKeepingCenter(int16_t width) const
  80:../../../libDaisy//src/hid/disp/graphics_common.h ****     {
  81:../../../libDaisy//src/hid/disp/graphics_common.h ****         return Rectangle(x_, y_, width, height_)
  82:../../../libDaisy//src/hid/disp/graphics_common.h ****             .WithCenter(GetCenterX(), GetCenterY());
  83:../../../libDaisy//src/hid/disp/graphics_common.h ****     }
  84:../../../libDaisy//src/hid/disp/graphics_common.h ****     Rectangle WithHeightKeepingCenter(int16_t height) const
  85:../../../libDaisy//src/hid/disp/graphics_common.h ****     {
  86:../../../libDaisy//src/hid/disp/graphics_common.h ****         return Rectangle(x_, y_, width_, height)
  87:../../../libDaisy//src/hid/disp/graphics_common.h ****             .WithCenter(GetCenterX(), GetCenterY());
  88:../../../libDaisy//src/hid/disp/graphics_common.h ****     }
  89:../../../libDaisy//src/hid/disp/graphics_common.h ****     Rectangle WithSizeKeepingCenter(int16_t width, int16_t height) const
  90:../../../libDaisy//src/hid/disp/graphics_common.h ****     {
  91:../../../libDaisy//src/hid/disp/graphics_common.h ****         return Rectangle(x_, y_, width, height)
  92:../../../libDaisy//src/hid/disp/graphics_common.h ****             .WithCenter(GetCenterX(), GetCenterY());
  93:../../../libDaisy//src/hid/disp/graphics_common.h ****     }
  94:../../../libDaisy//src/hid/disp/graphics_common.h **** 
  95:../../../libDaisy//src/hid/disp/graphics_common.h ****     Rectangle Reduced(int16_t sizeToReduce) const
  96:../../../libDaisy//src/hid/disp/graphics_common.h ****     {
  97:../../../libDaisy//src/hid/disp/graphics_common.h ****         return {int16_t(x_ + sizeToReduce),
  98:../../../libDaisy//src/hid/disp/graphics_common.h ****                 int16_t(y_ + sizeToReduce),
  99:../../../libDaisy//src/hid/disp/graphics_common.h ****                 int16_t(width_ - 2 * sizeToReduce),
 100:../../../libDaisy//src/hid/disp/graphics_common.h ****                 int16_t(height_ - 2 * sizeToReduce)};
 101:../../../libDaisy//src/hid/disp/graphics_common.h ****     }
 102:../../../libDaisy//src/hid/disp/graphics_common.h ****     Rectangle Reduced(int16_t xToReduce, int16_t yToReduce) const
 103:../../../libDaisy//src/hid/disp/graphics_common.h ****     {
 104:../../../libDaisy//src/hid/disp/graphics_common.h ****         return {int16_t(x_ + xToReduce),
 105:../../../libDaisy//src/hid/disp/graphics_common.h ****                 int16_t(y_ + yToReduce),
 106:../../../libDaisy//src/hid/disp/graphics_common.h ****                 int16_t(width_ - 2 * xToReduce),
 107:../../../libDaisy//src/hid/disp/graphics_common.h ****                 int16_t(height_ - 2 * yToReduce)};
 108:../../../libDaisy//src/hid/disp/graphics_common.h ****     }
 109:../../../libDaisy//src/hid/disp/graphics_common.h **** 
 110:../../../libDaisy//src/hid/disp/graphics_common.h ****     Rectangle Translated(int16_t x, int16_t y) const
ARM GAS  /var/folders/wz/z09yph4n0qj4t7mjxhl6ttn80000gn/T//ccWBe4mu.s 			page 46


 111:../../../libDaisy//src/hid/disp/graphics_common.h ****     {
 112:../../../libDaisy//src/hid/disp/graphics_common.h ****         return {int16_t(x_ + x), int16_t(y_ + y), width_, height_};
 113:../../../libDaisy//src/hid/disp/graphics_common.h ****     }
 114:../../../libDaisy//src/hid/disp/graphics_common.h **** 
 115:../../../libDaisy//src/hid/disp/graphics_common.h ****     Rectangle WithLeft(int16_t left) const
 116:../../../libDaisy//src/hid/disp/graphics_common.h ****     {
 117:../../../libDaisy//src/hid/disp/graphics_common.h ****         const auto newWidth = int16_t((x_ - left) + width_);
 118:../../../libDaisy//src/hid/disp/graphics_common.h ****         return {left, y_, newWidth, height_};
 119:../../../libDaisy//src/hid/disp/graphics_common.h ****     }
 120:../../../libDaisy//src/hid/disp/graphics_common.h **** 
 121:../../../libDaisy//src/hid/disp/graphics_common.h ****     Rectangle WithRight(int16_t right) const
 122:../../../libDaisy//src/hid/disp/graphics_common.h ****     {
 123:../../../libDaisy//src/hid/disp/graphics_common.h ****         const auto newWidth = int16_t(right - x_);
 124:../../../libDaisy//src/hid/disp/graphics_common.h ****         return {x_, y_, newWidth, height_};
 125:../../../libDaisy//src/hid/disp/graphics_common.h ****     }
 126:../../../libDaisy//src/hid/disp/graphics_common.h **** 
 127:../../../libDaisy//src/hid/disp/graphics_common.h ****     Rectangle WithTop(int16_t top) const
 128:../../../libDaisy//src/hid/disp/graphics_common.h ****     {
 129:../../../libDaisy//src/hid/disp/graphics_common.h ****         const auto newHeight = int16_t((y_ - top) + height_);
 130:../../../libDaisy//src/hid/disp/graphics_common.h ****         return {x_, top, width_, newHeight};
 131:../../../libDaisy//src/hid/disp/graphics_common.h ****     }
 132:../../../libDaisy//src/hid/disp/graphics_common.h **** 
 133:../../../libDaisy//src/hid/disp/graphics_common.h ****     Rectangle WithBottom(int16_t bottom) const
 134:../../../libDaisy//src/hid/disp/graphics_common.h ****     {
 135:../../../libDaisy//src/hid/disp/graphics_common.h ****         const auto newHeight = int16_t(bottom - y_);
 136:../../../libDaisy//src/hid/disp/graphics_common.h ****         return {x_, y_, width_, newHeight};
 137:../../../libDaisy//src/hid/disp/graphics_common.h ****     }
 138:../../../libDaisy//src/hid/disp/graphics_common.h **** 
 139:../../../libDaisy//src/hid/disp/graphics_common.h ****     Rectangle WithTrimmedLeft(int16_t pxToTrim) const
 140:../../../libDaisy//src/hid/disp/graphics_common.h ****     {
 141:../../../libDaisy//src/hid/disp/graphics_common.h ****         return {
 142:../../../libDaisy//src/hid/disp/graphics_common.h ****             int16_t(x_ + pxToTrim), y_, int16_t(width_ - pxToTrim), height_};
 143:../../../libDaisy//src/hid/disp/graphics_common.h ****     }
 144:../../../libDaisy//src/hid/disp/graphics_common.h **** 
 145:../../../libDaisy//src/hid/disp/graphics_common.h ****     Rectangle WithTrimmedRight(int16_t pxToTrim) const
 146:../../../libDaisy//src/hid/disp/graphics_common.h ****     {
 147:../../../libDaisy//src/hid/disp/graphics_common.h ****         return {x_, y_, int16_t(width_ - pxToTrim), height_};
 148:../../../libDaisy//src/hid/disp/graphics_common.h ****     }
 149:../../../libDaisy//src/hid/disp/graphics_common.h **** 
 150:../../../libDaisy//src/hid/disp/graphics_common.h ****     Rectangle WithTrimmedTop(int16_t pxToTrim) const
 151:../../../libDaisy//src/hid/disp/graphics_common.h ****     {
 152:../../../libDaisy//src/hid/disp/graphics_common.h ****         return {
 153:../../../libDaisy//src/hid/disp/graphics_common.h ****             x_, int16_t(y_ + pxToTrim), width_, int16_t(height_ - pxToTrim)};
 154:../../../libDaisy//src/hid/disp/graphics_common.h ****     }
 155:../../../libDaisy//src/hid/disp/graphics_common.h **** 
 156:../../../libDaisy//src/hid/disp/graphics_common.h ****     Rectangle WithTrimmedBottom(int16_t pxToTrim) const
 157:../../../libDaisy//src/hid/disp/graphics_common.h ****     {
 158:../../../libDaisy//src/hid/disp/graphics_common.h ****         return {x_, y_, width_, int16_t(height_ - pxToTrim)};
 159:../../../libDaisy//src/hid/disp/graphics_common.h ****     }
 160:../../../libDaisy//src/hid/disp/graphics_common.h **** 
 161:../../../libDaisy//src/hid/disp/graphics_common.h ****     Rectangle WithCenterX(int16_t centerX) const
 162:../../../libDaisy//src/hid/disp/graphics_common.h ****     {
 163:../../../libDaisy//src/hid/disp/graphics_common.h ****         return {int16_t(x_ + centerX - GetCenterX()), y_, width_, height_};
 164:../../../libDaisy//src/hid/disp/graphics_common.h ****     }
 165:../../../libDaisy//src/hid/disp/graphics_common.h **** 
 166:../../../libDaisy//src/hid/disp/graphics_common.h ****     Rectangle WithCenterY(int16_t centerY) const
 167:../../../libDaisy//src/hid/disp/graphics_common.h ****     {
ARM GAS  /var/folders/wz/z09yph4n0qj4t7mjxhl6ttn80000gn/T//ccWBe4mu.s 			page 47


 168:../../../libDaisy//src/hid/disp/graphics_common.h ****         return {x_, int16_t(y_ + centerY - GetCenterY()), width_, height_};
 169:../../../libDaisy//src/hid/disp/graphics_common.h ****     }
 170:../../../libDaisy//src/hid/disp/graphics_common.h **** 
 171:../../../libDaisy//src/hid/disp/graphics_common.h ****     Rectangle WithCenter(int16_t centerX, int16_t centerY) const
 172:../../../libDaisy//src/hid/disp/graphics_common.h ****     {
 173:../../../libDaisy//src/hid/disp/graphics_common.h ****         return {int16_t(x_ + centerX - GetCenterX()),
 174:../../../libDaisy//src/hid/disp/graphics_common.h ****                 int16_t(y_ + centerY - GetCenterY()),
 175:../../../libDaisy//src/hid/disp/graphics_common.h ****                 width_,
 176:../../../libDaisy//src/hid/disp/graphics_common.h ****                 height_};
 177:../../../libDaisy//src/hid/disp/graphics_common.h ****     }
 178:../../../libDaisy//src/hid/disp/graphics_common.h **** 
 179:../../../libDaisy//src/hid/disp/graphics_common.h ****     Rectangle RemoveFromLeft(int16_t pxToRemove)
 180:../../../libDaisy//src/hid/disp/graphics_common.h ****     {
 181:../../../libDaisy//src/hid/disp/graphics_common.h ****         const auto result = this->WithWidth(min(pxToRemove, width_));
 182:../../../libDaisy//src/hid/disp/graphics_common.h ****         x_ += min(pxToRemove, width_);
 183:../../../libDaisy//src/hid/disp/graphics_common.h ****         width_ = max(int16_t(width_ - pxToRemove), 0);
 184:../../../libDaisy//src/hid/disp/graphics_common.h ****         return result;
 185:../../../libDaisy//src/hid/disp/graphics_common.h ****     }
 186:../../../libDaisy//src/hid/disp/graphics_common.h **** 
 187:../../../libDaisy//src/hid/disp/graphics_common.h ****     Rectangle RemoveFromRight(int16_t pxToRemove)
 188:../../../libDaisy//src/hid/disp/graphics_common.h ****     {
 189:../../../libDaisy//src/hid/disp/graphics_common.h ****         const auto canRemove = min(pxToRemove, width_);
 190:../../../libDaisy//src/hid/disp/graphics_common.h ****         width_ -= canRemove;
 191:../../../libDaisy//src/hid/disp/graphics_common.h ****         return {int16_t(x_ + width_), y_, canRemove, height_};
 192:../../../libDaisy//src/hid/disp/graphics_common.h ****     }
 193:../../../libDaisy//src/hid/disp/graphics_common.h **** 
 194:../../../libDaisy//src/hid/disp/graphics_common.h ****     Rectangle RemoveFromTop(int16_t pxToRemove)
 195:../../../libDaisy//src/hid/disp/graphics_common.h ****     {
 196:../../../libDaisy//src/hid/disp/graphics_common.h ****         const auto result = this->WithHeight(min(pxToRemove, height_));
 197:../../../libDaisy//src/hid/disp/graphics_common.h ****         y_ += min(pxToRemove, height_);
 198:../../../libDaisy//src/hid/disp/graphics_common.h ****         height_ = max(height_ - pxToRemove, 0);
 199:../../../libDaisy//src/hid/disp/graphics_common.h ****         return result;
 200:../../../libDaisy//src/hid/disp/graphics_common.h ****     }
 201:../../../libDaisy//src/hid/disp/graphics_common.h **** 
 202:../../../libDaisy//src/hid/disp/graphics_common.h ****     Rectangle RemoveFromBottom(int16_t pxToRemove)
 203:../../../libDaisy//src/hid/disp/graphics_common.h ****     {
 204:../../../libDaisy//src/hid/disp/graphics_common.h ****         const auto canRemove = min(pxToRemove, height_);
 205:../../../libDaisy//src/hid/disp/graphics_common.h ****         height_ -= canRemove;
 206:../../../libDaisy//src/hid/disp/graphics_common.h ****         return {x_, int16_t(y_ + height_), width_, canRemove};
 207:../../../libDaisy//src/hid/disp/graphics_common.h ****     }
 208:../../../libDaisy//src/hid/disp/graphics_common.h **** 
 209:../../../libDaisy//src/hid/disp/graphics_common.h ****     Rectangle AlignedWithin(const Rectangle& other, Alignment alignment) const
 210:../../../libDaisy//src/hid/disp/graphics_common.h ****     {
 211:../../../libDaisy//src/hid/disp/graphics_common.h ****         switch(alignment)
 212:../../../libDaisy//src/hid/disp/graphics_common.h ****         {
 213:../../../libDaisy//src/hid/disp/graphics_common.h ****             case Alignment::topLeft:
 214:../../../libDaisy//src/hid/disp/graphics_common.h ****                 return {other.x_, other.y_, width_, height_};
 215:../../../libDaisy//src/hid/disp/graphics_common.h ****             case Alignment::topRight:
 216:../../../libDaisy//src/hid/disp/graphics_common.h ****                 return {int16_t(other.GetRight() - width_),
 217:../../../libDaisy//src/hid/disp/graphics_common.h ****                         other.y_,
 218:../../../libDaisy//src/hid/disp/graphics_common.h ****                         width_,
 219:../../../libDaisy//src/hid/disp/graphics_common.h ****                         height_};
 220:../../../libDaisy//src/hid/disp/graphics_common.h ****             case Alignment::topCentered:
 221:../../../libDaisy//src/hid/disp/graphics_common.h ****                 return {int16_t(x_ + (other.GetCenterX() - GetCenterX())),
 222:../../../libDaisy//src/hid/disp/graphics_common.h ****                         other.y_,
 223:../../../libDaisy//src/hid/disp/graphics_common.h ****                         width_,
 224:../../../libDaisy//src/hid/disp/graphics_common.h ****                         height_};
ARM GAS  /var/folders/wz/z09yph4n0qj4t7mjxhl6ttn80000gn/T//ccWBe4mu.s 			page 48


 225:../../../libDaisy//src/hid/disp/graphics_common.h ****             case Alignment::bottomLeft:
 226:../../../libDaisy//src/hid/disp/graphics_common.h ****                 return {other.x_,
 227:../../../libDaisy//src/hid/disp/graphics_common.h ****                         int16_t(other.GetBottom() - height_),
 228:../../../libDaisy//src/hid/disp/graphics_common.h ****                         width_,
 229:../../../libDaisy//src/hid/disp/graphics_common.h ****                         height_};
 230:../../../libDaisy//src/hid/disp/graphics_common.h ****             case Alignment::bottomRight:
 231:../../../libDaisy//src/hid/disp/graphics_common.h ****                 return {int16_t(other.GetRight() - width_),
 232:../../../libDaisy//src/hid/disp/graphics_common.h ****                         int16_t(other.GetBottom() - height_),
 233:../../../libDaisy//src/hid/disp/graphics_common.h ****                         width_,
 234:../../../libDaisy//src/hid/disp/graphics_common.h ****                         height_};
 235:../../../libDaisy//src/hid/disp/graphics_common.h ****             case Alignment::bottomCentered:
 236:../../../libDaisy//src/hid/disp/graphics_common.h ****                 return {int16_t(x_ + (other.GetCenterX() - GetCenterX())),
 237:../../../libDaisy//src/hid/disp/graphics_common.h ****                         int16_t(other.GetBottom() - height_),
 238:../../../libDaisy//src/hid/disp/graphics_common.h ****                         width_,
 239:../../../libDaisy//src/hid/disp/graphics_common.h ****                         height_};
 240:../../../libDaisy//src/hid/disp/graphics_common.h ****             case Alignment::centeredLeft:
 241:../../../libDaisy//src/hid/disp/graphics_common.h ****                 return {other.x_,
 242:../../../libDaisy//src/hid/disp/graphics_common.h ****                         int16_t(y_ + (other.GetCenterY() - GetCenterY())),
 243:../../../libDaisy//src/hid/disp/graphics_common.h ****                         width_,
 244:../../../libDaisy//src/hid/disp/graphics_common.h ****                         height_};
 245:../../../libDaisy//src/hid/disp/graphics_common.h ****             case Alignment::centeredRight:
 246:../../../libDaisy//src/hid/disp/graphics_common.h ****                 return {int16_t(other.GetRight() - width_),
 247:../../../libDaisy//src/hid/disp/graphics_common.h ****                         int16_t(y_ + (other.GetCenterY() - GetCenterY())),
 248:../../../libDaisy//src/hid/disp/graphics_common.h ****                         width_,
 249:../../../libDaisy//src/hid/disp/graphics_common.h ****                         height_};
 250:../../../libDaisy//src/hid/disp/graphics_common.h ****             case Alignment::centered:
 251:../../../libDaisy//src/hid/disp/graphics_common.h ****                 return {int16_t(x_ + (other.GetCenterX() - GetCenterX())),
 252:../../../libDaisy//src/hid/disp/graphics_common.h ****                         int16_t(y_ + (other.GetCenterY() - GetCenterY())),
 253:../../../libDaisy//src/hid/disp/graphics_common.h ****                         width_,
 254:../../../libDaisy//src/hid/disp/graphics_common.h ****                         height_};
 255:../../../libDaisy//src/hid/disp/graphics_common.h ****             default: return {};
 256:../../../libDaisy//src/hid/disp/graphics_common.h ****         }
 257:../../../libDaisy//src/hid/disp/graphics_common.h ****     }
 258:../../../libDaisy//src/hid/disp/graphics_common.h **** 
 259:../../../libDaisy//src/hid/disp/graphics_common.h ****   private:
 260:../../../libDaisy//src/hid/disp/graphics_common.h ****     int16_t x_, y_, width_, height_;
 261:../../../libDaisy//src/hid/disp/graphics_common.h ****     int16_t max(int16_t a, int16_t b) { return (a > b) ? a : b; }
 1098              		.loc 2 261 13 is_stmt 1 view .LVU312
 1099              	.LBE132:
 1100              	.LBE137:
 1101              	.LBE142:
 1102              	.LBE162:
 1103              	.LBE128:
 1104              	.LBE195:
 1105              		.loc 2 261 41 view .LVU313
 1106              	.LBB196:
 1107              	.LBB189:
 1108              	.LBB163:
 1109              	.LBB143:
 1110              	.LBB138:
 1111              	.LBB133:
 1112              	.LBI133:
 1113              		.loc 2 261 13 view .LVU314
 1114              	.LBE133:
 1115              	.LBE138:
 1116              	.LBE143:
 1117              	.LBE163:
ARM GAS  /var/folders/wz/z09yph4n0qj4t7mjxhl6ttn80000gn/T//ccWBe4mu.s 			page 49


 1118              	.LBE189:
 1119              	.LBE196:
 1120              		.loc 2 261 41 view .LVU315
 1121              	.LBB197:
 1122              	.LBB190:
  42:GUI/MixerView.cpp ****         // "Tempo 120" frame and text
 1123              		.loc 3 42 21 is_stmt 0 view .LVU316
 1124 0036 FFF7FEFF 		bl	_ZN8UiDriver8DrawRectERKN5daisy9RectangleEhh
 1125              	.LVL100:
  44:GUI/MixerView.cpp ****         lcd.DrawRect(Rectangle(2, 2, tempoBoxWidth, 30), StyleSheet::Mixer::frameColor);
 1126              		.loc 3 44 9 is_stmt 1 view .LVU317
  45:GUI/MixerView.cpp ****         lcd.WriteString("Tempo 120", 10, 15, Font_7x10, StyleSheet::Mixer::frameColor);
 1127              		.loc 3 45 9 view .LVU318
 1128              	.LBB164:
 1129              	.LBI147:
  31:../../../libDaisy//src/hid/disp/graphics_common.h ****     : x_(x), y_(y), width_(max(0, width)), height_(max(0, height))
 1130              		.loc 2 31 5 view .LVU319
 1131              	.LBB157:
 1132              	.LBB152:
  32:../../../libDaisy//src/hid/disp/graphics_common.h ****     {
 1133              		.loc 2 32 66 is_stmt 0 view .LVU320
 1134 003a 4B23     		movs	r3, #75
 1135              	.LBE152:
 1136              	.LBE157:
 1137              	.LBE164:
 1138              		.loc 3 46 24 view .LVU321
 1139 003c 2F4C     		ldr	r4, .L48+4
  45:GUI/MixerView.cpp ****         lcd.WriteString("Tempo 120", 10, 15, Font_7x10, StyleSheet::Mixer::frameColor);
 1140              		.loc 3 45 21 view .LVU322
 1141 003e 0422     		movs	r2, #4
 1142 0040 04A9     		add	r1, sp, #16
 1143              	.LVL101:
  45:GUI/MixerView.cpp ****         lcd.WriteString("Tempo 120", 10, 15, Font_7x10, StyleSheet::Mixer::frameColor);
 1144              		.loc 3 45 21 view .LVU323
 1145 0042 2D48     		ldr	r0, .L48
 1146              	.LBB165:
 1147              	.LBB158:
 1148              	.LBB153:
  32:../../../libDaisy//src/hid/disp/graphics_common.h ****     {
 1149              		.loc 2 32 66 view .LVU324
 1150 0044 ADF81430 		strh	r3, [sp, #20]	@ movhi
 1151              	.LBE153:
 1152              	.LBE158:
 1153              	.LBE165:
  45:GUI/MixerView.cpp ****         lcd.WriteString("Tempo 120", 10, 15, Font_7x10, StyleSheet::Mixer::frameColor);
 1154              		.loc 3 45 21 view .LVU325
 1155 0048 FF23     		movs	r3, #255
 1156              	.LBB166:
 1157              	.LBB159:
 1158              	.LBB154:
  32:../../../libDaisy//src/hid/disp/graphics_common.h ****     {
 1159              		.loc 2 32 66 view .LVU326
 1160 004a ADF81060 		strh	r6, [sp, #16]	@ movhi
 1161 004e ADF81260 		strh	r6, [sp, #18]	@ movhi
 1162              	.LVL102:
 1163              	.LBB150:
 1164              	.LBI150:
ARM GAS  /var/folders/wz/z09yph4n0qj4t7mjxhl6ttn80000gn/T//ccWBe4mu.s 			page 50


 1165              		.loc 2 261 13 is_stmt 1 view .LVU327
 1166              	.LBE150:
 1167              	.LBE154:
 1168              	.LBE159:
 1169              	.LBE166:
 1170              	.LBE190:
 1171              	.LBE197:
 1172              		.loc 2 261 41 view .LVU328
 1173              	.LBB198:
 1174              	.LBB191:
 1175              	.LBB167:
 1176              	.LBB160:
 1177              	.LBB155:
 1178              	.LBB151:
 1179              	.LBI151:
 1180              		.loc 2 261 13 view .LVU329
 1181              	.LBE151:
 1182              	.LBE155:
 1183              	.LBE160:
 1184              	.LBE167:
 1185              	.LBE191:
 1186              	.LBE198:
 1187              		.loc 2 261 41 view .LVU330
 1188              	.LBB199:
 1189              	.LBB192:
 1190              	.LBB168:
 1191              	.LBB161:
 1192              	.LBB156:
  32:../../../libDaisy//src/hid/disp/graphics_common.h ****     {
 1193              		.loc 2 32 66 is_stmt 0 view .LVU331
 1194 0052 ADF81680 		strh	r8, [sp, #22]	@ movhi
 1195              	.LVL103:
  32:../../../libDaisy//src/hid/disp/graphics_common.h ****     {
 1196              		.loc 2 32 66 view .LVU332
 1197              	.LBE156:
 1198              	.LBE161:
 1199              	.LBE168:
  45:GUI/MixerView.cpp ****         lcd.WriteString("Tempo 120", 10, 15, Font_7x10, StyleSheet::Mixer::frameColor);
 1200              		.loc 3 45 21 view .LVU333
 1201 0056 FFF7FEFF 		bl	_ZN8UiDriver8DrawRectERKN5daisy9RectangleEhh
 1202              	.LVL104:
 1203              		.loc 3 46 9 is_stmt 1 view .LVU334
 1204              		.loc 3 46 24 is_stmt 0 view .LVU335
 1205 005a 0397     		str	r7, [sp, #12]
 1206 005c 0A22     		movs	r2, #10
 1207 005e 6368     		ldr	r3, [r4, #4]
 1208 0060 2749     		ldr	r1, .L48+8
 1209 0062 0293     		str	r3, [sp, #8]
 1210 0064 6378     		ldrb	r3, [r4, #1]	@ zero_extendqisi2
 1211 0066 2448     		ldr	r0, .L48
 1212 0068 0193     		str	r3, [sp, #4]
 1213 006a 2378     		ldrb	r3, [r4]	@ zero_extendqisi2
 1214 006c 0093     		str	r3, [sp]
 1215 006e 0F23     		movs	r3, #15
 1216 0070 FFF7FEFF 		bl	_ZN8UiDriver11WriteStringEPKctt7FontDefh.isra.0
 1217              	.LVL105:
  47:GUI/MixerView.cpp ****             
ARM GAS  /var/folders/wz/z09yph4n0qj4t7mjxhl6ttn80000gn/T//ccWBe4mu.s 			page 51


  48:GUI/MixerView.cpp ****         // "Main Mixer" 
  49:GUI/MixerView.cpp ****         const int mainMixerTextY = 7; 
 1218              		.loc 3 49 9 is_stmt 1 view .LVU336
  50:GUI/MixerView.cpp ****         int mainMixerTextX = (StyleSheet::Mixer::screenWidth / 2) - (4 * 19); 
 1219              		.loc 3 50 9 view .LVU337
  51:GUI/MixerView.cpp ****         lcd.WriteString("Main Mixer", mainMixerTextX, mainMixerTextY, Font_16x26, StyleSheet::Mixer
 1220              		.loc 3 51 9 view .LVU338
 1221              		.loc 3 51 24 is_stmt 0 view .LVU339
 1222 0074 234B     		ldr	r3, .L48+12
 1223 0076 0397     		str	r7, [sp, #12]
 1224 0078 5A68     		ldr	r2, [r3, #4]
 1225 007a 2349     		ldr	r1, .L48+16
 1226 007c 0292     		str	r2, [sp, #8]
 1227 007e 5A78     		ldrb	r2, [r3, #1]	@ zero_extendqisi2
 1228 0080 1D48     		ldr	r0, .L48
 1229 0082 0192     		str	r2, [sp, #4]
 1230 0084 5422     		movs	r2, #84
 1231 0086 1B78     		ldrb	r3, [r3]	@ zero_extendqisi2
 1232 0088 0093     		str	r3, [sp]
 1233 008a 0723     		movs	r3, #7
 1234 008c FFF7FEFF 		bl	_ZN8UiDriver11WriteStringEPKctt7FontDefh.isra.0
 1235              	.LVL106:
  52:GUI/MixerView.cpp **** 
  53:GUI/MixerView.cpp ****         // "Waveform" frame and text
  54:GUI/MixerView.cpp ****         const int waveformBoxWidth = 72; 
 1236              		.loc 3 54 9 is_stmt 1 view .LVU340
  55:GUI/MixerView.cpp ****         int waveformTextX = StyleSheet::Mixer::screenWidth - waveformBoxWidth; 
 1237              		.loc 3 55 9 view .LVU341
  56:GUI/MixerView.cpp ****         lcd.DrawRect(Rectangle(waveformTextX, 2, waveformBoxWidth-2, 30), StyleSheet::Mixer::frameC
 1238              		.loc 3 56 9 view .LVU342
 1239              	.LBB169:
 1240              	.LBI169:
  31:../../../libDaisy//src/hid/disp/graphics_common.h ****     : x_(x), y_(y), width_(max(0, width)), height_(max(0, height))
 1241              		.loc 2 31 5 view .LVU343
 1242              	.LBB170:
 1243              	.LBB171:
  32:../../../libDaisy//src/hid/disp/graphics_common.h ****     {
 1244              		.loc 2 32 66 is_stmt 0 view .LVU344
 1245 0090 F823     		movs	r3, #248
 1246              	.LBE171:
 1247              	.LBE170:
 1248              	.LBE169:
 1249              		.loc 3 56 21 view .LVU345
 1250 0092 3A46     		mov	r2, r7
 1251 0094 04A9     		add	r1, sp, #16
 1252              	.LVL107:
 1253              	.LBB184:
 1254              	.LBB179:
 1255              	.LBB174:
  32:../../../libDaisy//src/hid/disp/graphics_common.h ****     {
 1256              		.loc 2 32 66 view .LVU346
 1257 0096 ADF81030 		strh	r3, [sp, #16]	@ movhi
 1258 009a 4623     		movs	r3, #70
 1259              	.LBE174:
 1260              	.LBE179:
 1261              	.LBE184:
 1262              		.loc 3 56 21 view .LVU347
ARM GAS  /var/folders/wz/z09yph4n0qj4t7mjxhl6ttn80000gn/T//ccWBe4mu.s 			page 52


 1263 009c 1648     		ldr	r0, .L48
 1264              	.LBB185:
 1265              	.LBB180:
 1266              	.LBB175:
  32:../../../libDaisy//src/hid/disp/graphics_common.h ****     {
 1267              		.loc 2 32 66 view .LVU348
 1268 009e ADF81430 		strh	r3, [sp, #20]	@ movhi
 1269              	.LBE175:
 1270              	.LBE180:
 1271              	.LBE185:
 1272              		.loc 3 56 21 view .LVU349
 1273 00a2 FF23     		movs	r3, #255
 1274              	.LBB186:
 1275              	.LBB181:
 1276              	.LBB176:
  32:../../../libDaisy//src/hid/disp/graphics_common.h ****     {
 1277              		.loc 2 32 66 view .LVU350
 1278 00a4 ADF81260 		strh	r6, [sp, #18]	@ movhi
 1279              	.LVL108:
 1280              	.LBB172:
 1281              	.LBI172:
 1282              		.loc 2 261 13 is_stmt 1 view .LVU351
 1283              	.LBE172:
 1284              	.LBE176:
 1285              	.LBE181:
 1286              	.LBE186:
 1287              	.LBE192:
 1288              	.LBE199:
 1289              		.loc 2 261 41 view .LVU352
 1290              	.LBB200:
 1291              	.LBB193:
 1292              	.LBB187:
 1293              	.LBB182:
 1294              	.LBB177:
 1295              	.LBB173:
 1296              	.LBI173:
 1297              		.loc 2 261 13 view .LVU353
 1298              	.LBE173:
 1299              	.LBE177:
 1300              	.LBE182:
 1301              	.LBE187:
 1302              	.LBE193:
 1303              	.LBE200:
 1304              		.loc 2 261 41 view .LVU354
 1305              	.LBB201:
 1306              	.LBB194:
 1307              	.LBB188:
 1308              	.LBB183:
 1309              	.LBB178:
  32:../../../libDaisy//src/hid/disp/graphics_common.h ****     {
 1310              		.loc 2 32 66 is_stmt 0 view .LVU355
 1311 00a8 ADF81680 		strh	r8, [sp, #22]	@ movhi
 1312              	.LVL109:
  32:../../../libDaisy//src/hid/disp/graphics_common.h ****     {
 1313              		.loc 2 32 66 view .LVU356
 1314              	.LBE178:
 1315              	.LBE183:
ARM GAS  /var/folders/wz/z09yph4n0qj4t7mjxhl6ttn80000gn/T//ccWBe4mu.s 			page 53


 1316              	.LBE188:
 1317              		.loc 3 56 21 view .LVU357
 1318 00ac FFF7FEFF 		bl	_ZN8UiDriver8DrawRectERKN5daisy9RectangleEhh
 1319              	.LVL110:
  57:GUI/MixerView.cpp ****         lcd.WriteString("Waveform", waveformTextX + 5, 15, Font_7x10, StyleSheet::Mixer::frameColor
 1320              		.loc 3 57 9 is_stmt 1 view .LVU358
 1321              		.loc 3 57 24 is_stmt 0 view .LVU359
 1322 00b0 0397     		str	r7, [sp, #12]
 1323 00b2 FD22     		movs	r2, #253
 1324 00b4 6368     		ldr	r3, [r4, #4]
 1325 00b6 1549     		ldr	r1, .L48+20
 1326 00b8 0293     		str	r3, [sp, #8]
 1327 00ba 6378     		ldrb	r3, [r4, #1]	@ zero_extendqisi2
 1328 00bc 0E48     		ldr	r0, .L48
 1329 00be 0193     		str	r3, [sp, #4]
 1330 00c0 2378     		ldrb	r3, [r4]	@ zero_extendqisi2
 1331 00c2 0093     		str	r3, [sp]
 1332 00c4 0F23     		movs	r3, #15
 1333 00c6 FFF7FEFF 		bl	_ZN8UiDriver11WriteStringEPKctt7FontDefh.isra.0
 1334              	.LVL111:
  58:GUI/MixerView.cpp **** 
  59:GUI/MixerView.cpp ****         isPainted = true;
 1335              		.loc 3 59 9 is_stmt 1 view .LVU360
 1336              		.loc 3 59 19 is_stmt 0 view .LVU361
 1337 00ca 0123     		movs	r3, #1
 1338 00cc 85F8F939 		strb	r3, [r5, #2553]
 1339              	.LVL112:
 1340              	.L42:
 1341              		.loc 3 59 19 view .LVU362
 1342 00d0 05F15806 		add	r6, r5, #88
 1343              	.LBE194:
 1344              	.LBE201:
  37:GUI/MixerView.cpp ****     if(!isPainted)
 1345              		.loc 3 37 1 view .LVU363
 1346 00d4 0024     		movs	r4, #0
 1347              	.L45:
 1348              	.LVL113:
 1349              	.LBB202:
  60:GUI/MixerView.cpp ****     }
  61:GUI/MixerView.cpp **** 
  62:GUI/MixerView.cpp ****     // Fader drawing code for all channels
  63:GUI/MixerView.cpp ****     for(int i = 0 ; i < 4 ; i++)
  64:GUI/MixerView.cpp ****     {
  65:GUI/MixerView.cpp ****         if(i == selectedChannel)
 1350              		.loc 3 65 9 is_stmt 1 view .LVU364
 1351 00d6 6B6D     		ldr	r3, [r5, #84]
  66:GUI/MixerView.cpp ****             ampSliders[i].repaint(i, true);
  67:GUI/MixerView.cpp ****         else
  68:GUI/MixerView.cpp ****             ampSliders[i].repaint(i, false);
 1352              		.loc 3 68 34 is_stmt 0 view .LVU365
 1353 00d8 2146     		mov	r1, r4
 1354 00da 3046     		mov	r0, r6
  63:GUI/MixerView.cpp ****     {
 1355              		.loc 3 63 23 view .LVU366
 1356 00dc 1436     		adds	r6, r6, #20
  65:GUI/MixerView.cpp ****             ampSliders[i].repaint(i, true);
 1357              		.loc 3 65 9 view .LVU367
ARM GAS  /var/folders/wz/z09yph4n0qj4t7mjxhl6ttn80000gn/T//ccWBe4mu.s 			page 54


 1358 00de A342     		cmp	r3, r4
  66:GUI/MixerView.cpp ****             ampSliders[i].repaint(i, true);
 1359              		.loc 3 66 13 is_stmt 1 view .LVU368
 1360              	.LVL114:
 1361              	.LBB203:
 1362              	.LBI203:
 1363              		.file 4 "/Library/DaisyToolchain/0.2.0/arm/arm-none-eabi/include/c++/10.3.1/array"
   1:/Library/DaisyToolchain/0.2.0/arm/arm-none-eabi/include/c++/10.3.1/array **** // <array> -*- C++ -*-
   2:/Library/DaisyToolchain/0.2.0/arm/arm-none-eabi/include/c++/10.3.1/array **** 
   3:/Library/DaisyToolchain/0.2.0/arm/arm-none-eabi/include/c++/10.3.1/array **** // Copyright (C) 2007-2020 Free Software Foundation, Inc.
   4:/Library/DaisyToolchain/0.2.0/arm/arm-none-eabi/include/c++/10.3.1/array **** //
   5:/Library/DaisyToolchain/0.2.0/arm/arm-none-eabi/include/c++/10.3.1/array **** // This file is part of the GNU ISO C++ Library.  This library is free
   6:/Library/DaisyToolchain/0.2.0/arm/arm-none-eabi/include/c++/10.3.1/array **** // software; you can redistribute it and/or modify it under the
   7:/Library/DaisyToolchain/0.2.0/arm/arm-none-eabi/include/c++/10.3.1/array **** // terms of the GNU General Public License as published by the
   8:/Library/DaisyToolchain/0.2.0/arm/arm-none-eabi/include/c++/10.3.1/array **** // Free Software Foundation; either version 3, or (at your option)
   9:/Library/DaisyToolchain/0.2.0/arm/arm-none-eabi/include/c++/10.3.1/array **** // any later version.
  10:/Library/DaisyToolchain/0.2.0/arm/arm-none-eabi/include/c++/10.3.1/array **** 
  11:/Library/DaisyToolchain/0.2.0/arm/arm-none-eabi/include/c++/10.3.1/array **** // This library is distributed in the hope that it will be useful,
  12:/Library/DaisyToolchain/0.2.0/arm/arm-none-eabi/include/c++/10.3.1/array **** // but WITHOUT ANY WARRANTY; without even the implied warranty of
  13:/Library/DaisyToolchain/0.2.0/arm/arm-none-eabi/include/c++/10.3.1/array **** // MERCHANTABILITY or FITNESS FOR A PARTICULAR PURPOSE.  See the
  14:/Library/DaisyToolchain/0.2.0/arm/arm-none-eabi/include/c++/10.3.1/array **** // GNU General Public License for more details.
  15:/Library/DaisyToolchain/0.2.0/arm/arm-none-eabi/include/c++/10.3.1/array **** 
  16:/Library/DaisyToolchain/0.2.0/arm/arm-none-eabi/include/c++/10.3.1/array **** // Under Section 7 of GPL version 3, you are granted additional
  17:/Library/DaisyToolchain/0.2.0/arm/arm-none-eabi/include/c++/10.3.1/array **** // permissions described in the GCC Runtime Library Exception, version
  18:/Library/DaisyToolchain/0.2.0/arm/arm-none-eabi/include/c++/10.3.1/array **** // 3.1, as published by the Free Software Foundation.
  19:/Library/DaisyToolchain/0.2.0/arm/arm-none-eabi/include/c++/10.3.1/array **** 
  20:/Library/DaisyToolchain/0.2.0/arm/arm-none-eabi/include/c++/10.3.1/array **** // You should have received a copy of the GNU General Public License and
  21:/Library/DaisyToolchain/0.2.0/arm/arm-none-eabi/include/c++/10.3.1/array **** // a copy of the GCC Runtime Library Exception along with this program;
  22:/Library/DaisyToolchain/0.2.0/arm/arm-none-eabi/include/c++/10.3.1/array **** // see the files COPYING3 and COPYING.RUNTIME respectively.  If not, see
  23:/Library/DaisyToolchain/0.2.0/arm/arm-none-eabi/include/c++/10.3.1/array **** // <http://www.gnu.org/licenses/>.
  24:/Library/DaisyToolchain/0.2.0/arm/arm-none-eabi/include/c++/10.3.1/array **** 
  25:/Library/DaisyToolchain/0.2.0/arm/arm-none-eabi/include/c++/10.3.1/array **** /** @file include/array
  26:/Library/DaisyToolchain/0.2.0/arm/arm-none-eabi/include/c++/10.3.1/array ****  *  This is a Standard C++ Library header.
  27:/Library/DaisyToolchain/0.2.0/arm/arm-none-eabi/include/c++/10.3.1/array ****  */
  28:/Library/DaisyToolchain/0.2.0/arm/arm-none-eabi/include/c++/10.3.1/array **** 
  29:/Library/DaisyToolchain/0.2.0/arm/arm-none-eabi/include/c++/10.3.1/array **** #ifndef _GLIBCXX_ARRAY
  30:/Library/DaisyToolchain/0.2.0/arm/arm-none-eabi/include/c++/10.3.1/array **** #define _GLIBCXX_ARRAY 1
  31:/Library/DaisyToolchain/0.2.0/arm/arm-none-eabi/include/c++/10.3.1/array **** 
  32:/Library/DaisyToolchain/0.2.0/arm/arm-none-eabi/include/c++/10.3.1/array **** #pragma GCC system_header
  33:/Library/DaisyToolchain/0.2.0/arm/arm-none-eabi/include/c++/10.3.1/array **** 
  34:/Library/DaisyToolchain/0.2.0/arm/arm-none-eabi/include/c++/10.3.1/array **** #if __cplusplus < 201103L
  35:/Library/DaisyToolchain/0.2.0/arm/arm-none-eabi/include/c++/10.3.1/array **** # include <bits/c++0x_warning.h>
  36:/Library/DaisyToolchain/0.2.0/arm/arm-none-eabi/include/c++/10.3.1/array **** #else
  37:/Library/DaisyToolchain/0.2.0/arm/arm-none-eabi/include/c++/10.3.1/array **** 
  38:/Library/DaisyToolchain/0.2.0/arm/arm-none-eabi/include/c++/10.3.1/array **** #include <utility>
  39:/Library/DaisyToolchain/0.2.0/arm/arm-none-eabi/include/c++/10.3.1/array **** #include <bits/functexcept.h>
  40:/Library/DaisyToolchain/0.2.0/arm/arm-none-eabi/include/c++/10.3.1/array **** #include <bits/stl_algobase.h>
  41:/Library/DaisyToolchain/0.2.0/arm/arm-none-eabi/include/c++/10.3.1/array **** #include <bits/range_access.h>
  42:/Library/DaisyToolchain/0.2.0/arm/arm-none-eabi/include/c++/10.3.1/array **** 
  43:/Library/DaisyToolchain/0.2.0/arm/arm-none-eabi/include/c++/10.3.1/array **** namespace std _GLIBCXX_VISIBILITY(default)
  44:/Library/DaisyToolchain/0.2.0/arm/arm-none-eabi/include/c++/10.3.1/array **** {
  45:/Library/DaisyToolchain/0.2.0/arm/arm-none-eabi/include/c++/10.3.1/array **** _GLIBCXX_BEGIN_NAMESPACE_CONTAINER
  46:/Library/DaisyToolchain/0.2.0/arm/arm-none-eabi/include/c++/10.3.1/array **** 
  47:/Library/DaisyToolchain/0.2.0/arm/arm-none-eabi/include/c++/10.3.1/array ****   template<typename _Tp, std::size_t _Nm>
  48:/Library/DaisyToolchain/0.2.0/arm/arm-none-eabi/include/c++/10.3.1/array ****     struct __array_traits
  49:/Library/DaisyToolchain/0.2.0/arm/arm-none-eabi/include/c++/10.3.1/array ****     {
  50:/Library/DaisyToolchain/0.2.0/arm/arm-none-eabi/include/c++/10.3.1/array ****       typedef _Tp _Type[_Nm];
ARM GAS  /var/folders/wz/z09yph4n0qj4t7mjxhl6ttn80000gn/T//ccWBe4mu.s 			page 55


  51:/Library/DaisyToolchain/0.2.0/arm/arm-none-eabi/include/c++/10.3.1/array ****       typedef __is_swappable<_Tp> _Is_swappable;
  52:/Library/DaisyToolchain/0.2.0/arm/arm-none-eabi/include/c++/10.3.1/array ****       typedef __is_nothrow_swappable<_Tp> _Is_nothrow_swappable;
  53:/Library/DaisyToolchain/0.2.0/arm/arm-none-eabi/include/c++/10.3.1/array **** 
  54:/Library/DaisyToolchain/0.2.0/arm/arm-none-eabi/include/c++/10.3.1/array ****       static constexpr _Tp&
  55:/Library/DaisyToolchain/0.2.0/arm/arm-none-eabi/include/c++/10.3.1/array ****       _S_ref(const _Type& __t, std::size_t __n) noexcept
  56:/Library/DaisyToolchain/0.2.0/arm/arm-none-eabi/include/c++/10.3.1/array ****       { return const_cast<_Tp&>(__t[__n]); }
  57:/Library/DaisyToolchain/0.2.0/arm/arm-none-eabi/include/c++/10.3.1/array **** 
  58:/Library/DaisyToolchain/0.2.0/arm/arm-none-eabi/include/c++/10.3.1/array ****       static constexpr _Tp*
  59:/Library/DaisyToolchain/0.2.0/arm/arm-none-eabi/include/c++/10.3.1/array ****       _S_ptr(const _Type& __t) noexcept
  60:/Library/DaisyToolchain/0.2.0/arm/arm-none-eabi/include/c++/10.3.1/array ****       { return const_cast<_Tp*>(__t); }
  61:/Library/DaisyToolchain/0.2.0/arm/arm-none-eabi/include/c++/10.3.1/array ****     };
  62:/Library/DaisyToolchain/0.2.0/arm/arm-none-eabi/include/c++/10.3.1/array **** 
  63:/Library/DaisyToolchain/0.2.0/arm/arm-none-eabi/include/c++/10.3.1/array ****  template<typename _Tp>
  64:/Library/DaisyToolchain/0.2.0/arm/arm-none-eabi/include/c++/10.3.1/array ****    struct __array_traits<_Tp, 0>
  65:/Library/DaisyToolchain/0.2.0/arm/arm-none-eabi/include/c++/10.3.1/array ****    {
  66:/Library/DaisyToolchain/0.2.0/arm/arm-none-eabi/include/c++/10.3.1/array ****      struct _Type { };
  67:/Library/DaisyToolchain/0.2.0/arm/arm-none-eabi/include/c++/10.3.1/array ****      typedef true_type _Is_swappable;
  68:/Library/DaisyToolchain/0.2.0/arm/arm-none-eabi/include/c++/10.3.1/array ****      typedef true_type _Is_nothrow_swappable;
  69:/Library/DaisyToolchain/0.2.0/arm/arm-none-eabi/include/c++/10.3.1/array **** 
  70:/Library/DaisyToolchain/0.2.0/arm/arm-none-eabi/include/c++/10.3.1/array ****      static constexpr _Tp&
  71:/Library/DaisyToolchain/0.2.0/arm/arm-none-eabi/include/c++/10.3.1/array ****      _S_ref(const _Type&, std::size_t) noexcept
  72:/Library/DaisyToolchain/0.2.0/arm/arm-none-eabi/include/c++/10.3.1/array ****      { return *static_cast<_Tp*>(nullptr); }
  73:/Library/DaisyToolchain/0.2.0/arm/arm-none-eabi/include/c++/10.3.1/array **** 
  74:/Library/DaisyToolchain/0.2.0/arm/arm-none-eabi/include/c++/10.3.1/array ****      static constexpr _Tp*
  75:/Library/DaisyToolchain/0.2.0/arm/arm-none-eabi/include/c++/10.3.1/array ****      _S_ptr(const _Type&) noexcept
  76:/Library/DaisyToolchain/0.2.0/arm/arm-none-eabi/include/c++/10.3.1/array ****      { return nullptr; }
  77:/Library/DaisyToolchain/0.2.0/arm/arm-none-eabi/include/c++/10.3.1/array ****    };
  78:/Library/DaisyToolchain/0.2.0/arm/arm-none-eabi/include/c++/10.3.1/array **** 
  79:/Library/DaisyToolchain/0.2.0/arm/arm-none-eabi/include/c++/10.3.1/array ****   /**
  80:/Library/DaisyToolchain/0.2.0/arm/arm-none-eabi/include/c++/10.3.1/array ****    *  @brief A standard container for storing a fixed size sequence of elements.
  81:/Library/DaisyToolchain/0.2.0/arm/arm-none-eabi/include/c++/10.3.1/array ****    *
  82:/Library/DaisyToolchain/0.2.0/arm/arm-none-eabi/include/c++/10.3.1/array ****    *  @ingroup sequences
  83:/Library/DaisyToolchain/0.2.0/arm/arm-none-eabi/include/c++/10.3.1/array ****    *
  84:/Library/DaisyToolchain/0.2.0/arm/arm-none-eabi/include/c++/10.3.1/array ****    *  Meets the requirements of a <a href="tables.html#65">container</a>, a
  85:/Library/DaisyToolchain/0.2.0/arm/arm-none-eabi/include/c++/10.3.1/array ****    *  <a href="tables.html#66">reversible container</a>, and a
  86:/Library/DaisyToolchain/0.2.0/arm/arm-none-eabi/include/c++/10.3.1/array ****    *  <a href="tables.html#67">sequence</a>.
  87:/Library/DaisyToolchain/0.2.0/arm/arm-none-eabi/include/c++/10.3.1/array ****    *
  88:/Library/DaisyToolchain/0.2.0/arm/arm-none-eabi/include/c++/10.3.1/array ****    *  Sets support random access iterators.
  89:/Library/DaisyToolchain/0.2.0/arm/arm-none-eabi/include/c++/10.3.1/array ****    *
  90:/Library/DaisyToolchain/0.2.0/arm/arm-none-eabi/include/c++/10.3.1/array ****    *  @tparam  Tp  Type of element. Required to be a complete type.
  91:/Library/DaisyToolchain/0.2.0/arm/arm-none-eabi/include/c++/10.3.1/array ****    *  @tparam  Nm  Number of elements.
  92:/Library/DaisyToolchain/0.2.0/arm/arm-none-eabi/include/c++/10.3.1/array ****   */
  93:/Library/DaisyToolchain/0.2.0/arm/arm-none-eabi/include/c++/10.3.1/array ****   template<typename _Tp, std::size_t _Nm>
  94:/Library/DaisyToolchain/0.2.0/arm/arm-none-eabi/include/c++/10.3.1/array ****     struct array
  95:/Library/DaisyToolchain/0.2.0/arm/arm-none-eabi/include/c++/10.3.1/array ****     {
  96:/Library/DaisyToolchain/0.2.0/arm/arm-none-eabi/include/c++/10.3.1/array ****       typedef _Tp 	    			      value_type;
  97:/Library/DaisyToolchain/0.2.0/arm/arm-none-eabi/include/c++/10.3.1/array ****       typedef value_type*			      pointer;
  98:/Library/DaisyToolchain/0.2.0/arm/arm-none-eabi/include/c++/10.3.1/array ****       typedef const value_type*                       const_pointer;
  99:/Library/DaisyToolchain/0.2.0/arm/arm-none-eabi/include/c++/10.3.1/array ****       typedef value_type&                   	      reference;
 100:/Library/DaisyToolchain/0.2.0/arm/arm-none-eabi/include/c++/10.3.1/array ****       typedef const value_type&             	      const_reference;
 101:/Library/DaisyToolchain/0.2.0/arm/arm-none-eabi/include/c++/10.3.1/array ****       typedef value_type*          		      iterator;
 102:/Library/DaisyToolchain/0.2.0/arm/arm-none-eabi/include/c++/10.3.1/array ****       typedef const value_type*			      const_iterator;
 103:/Library/DaisyToolchain/0.2.0/arm/arm-none-eabi/include/c++/10.3.1/array ****       typedef std::size_t                    	      size_type;
 104:/Library/DaisyToolchain/0.2.0/arm/arm-none-eabi/include/c++/10.3.1/array ****       typedef std::ptrdiff_t                   	      difference_type;
 105:/Library/DaisyToolchain/0.2.0/arm/arm-none-eabi/include/c++/10.3.1/array ****       typedef std::reverse_iterator<iterator>	      reverse_iterator;
 106:/Library/DaisyToolchain/0.2.0/arm/arm-none-eabi/include/c++/10.3.1/array ****       typedef std::reverse_iterator<const_iterator>   const_reverse_iterator;
 107:/Library/DaisyToolchain/0.2.0/arm/arm-none-eabi/include/c++/10.3.1/array **** 
ARM GAS  /var/folders/wz/z09yph4n0qj4t7mjxhl6ttn80000gn/T//ccWBe4mu.s 			page 56


 108:/Library/DaisyToolchain/0.2.0/arm/arm-none-eabi/include/c++/10.3.1/array ****       // Support for zero-sized arrays mandatory.
 109:/Library/DaisyToolchain/0.2.0/arm/arm-none-eabi/include/c++/10.3.1/array ****       typedef _GLIBCXX_STD_C::__array_traits<_Tp, _Nm> _AT_Type;
 110:/Library/DaisyToolchain/0.2.0/arm/arm-none-eabi/include/c++/10.3.1/array ****       typename _AT_Type::_Type                         _M_elems;
 111:/Library/DaisyToolchain/0.2.0/arm/arm-none-eabi/include/c++/10.3.1/array **** 
 112:/Library/DaisyToolchain/0.2.0/arm/arm-none-eabi/include/c++/10.3.1/array ****       // No explicit construct/copy/destroy for aggregate type.
 113:/Library/DaisyToolchain/0.2.0/arm/arm-none-eabi/include/c++/10.3.1/array **** 
 114:/Library/DaisyToolchain/0.2.0/arm/arm-none-eabi/include/c++/10.3.1/array ****       // DR 776.
 115:/Library/DaisyToolchain/0.2.0/arm/arm-none-eabi/include/c++/10.3.1/array ****       _GLIBCXX20_CONSTEXPR void
 116:/Library/DaisyToolchain/0.2.0/arm/arm-none-eabi/include/c++/10.3.1/array ****       fill(const value_type& __u)
 117:/Library/DaisyToolchain/0.2.0/arm/arm-none-eabi/include/c++/10.3.1/array ****       { std::fill_n(begin(), size(), __u); }
 118:/Library/DaisyToolchain/0.2.0/arm/arm-none-eabi/include/c++/10.3.1/array **** 
 119:/Library/DaisyToolchain/0.2.0/arm/arm-none-eabi/include/c++/10.3.1/array ****       _GLIBCXX20_CONSTEXPR void
 120:/Library/DaisyToolchain/0.2.0/arm/arm-none-eabi/include/c++/10.3.1/array ****       swap(array& __other)
 121:/Library/DaisyToolchain/0.2.0/arm/arm-none-eabi/include/c++/10.3.1/array ****       noexcept(_AT_Type::_Is_nothrow_swappable::value)
 122:/Library/DaisyToolchain/0.2.0/arm/arm-none-eabi/include/c++/10.3.1/array ****       { std::swap_ranges(begin(), end(), __other.begin()); }
 123:/Library/DaisyToolchain/0.2.0/arm/arm-none-eabi/include/c++/10.3.1/array **** 
 124:/Library/DaisyToolchain/0.2.0/arm/arm-none-eabi/include/c++/10.3.1/array ****       // Iterators.
 125:/Library/DaisyToolchain/0.2.0/arm/arm-none-eabi/include/c++/10.3.1/array ****       _GLIBCXX17_CONSTEXPR iterator
 126:/Library/DaisyToolchain/0.2.0/arm/arm-none-eabi/include/c++/10.3.1/array ****       begin() noexcept
 127:/Library/DaisyToolchain/0.2.0/arm/arm-none-eabi/include/c++/10.3.1/array ****       { return iterator(data()); }
 128:/Library/DaisyToolchain/0.2.0/arm/arm-none-eabi/include/c++/10.3.1/array **** 
 129:/Library/DaisyToolchain/0.2.0/arm/arm-none-eabi/include/c++/10.3.1/array ****       _GLIBCXX17_CONSTEXPR const_iterator
 130:/Library/DaisyToolchain/0.2.0/arm/arm-none-eabi/include/c++/10.3.1/array ****       begin() const noexcept
 131:/Library/DaisyToolchain/0.2.0/arm/arm-none-eabi/include/c++/10.3.1/array ****       { return const_iterator(data()); }
 132:/Library/DaisyToolchain/0.2.0/arm/arm-none-eabi/include/c++/10.3.1/array **** 
 133:/Library/DaisyToolchain/0.2.0/arm/arm-none-eabi/include/c++/10.3.1/array ****       _GLIBCXX17_CONSTEXPR iterator
 134:/Library/DaisyToolchain/0.2.0/arm/arm-none-eabi/include/c++/10.3.1/array ****       end() noexcept
 135:/Library/DaisyToolchain/0.2.0/arm/arm-none-eabi/include/c++/10.3.1/array ****       { return iterator(data() + _Nm); }
 136:/Library/DaisyToolchain/0.2.0/arm/arm-none-eabi/include/c++/10.3.1/array **** 
 137:/Library/DaisyToolchain/0.2.0/arm/arm-none-eabi/include/c++/10.3.1/array ****       _GLIBCXX17_CONSTEXPR const_iterator
 138:/Library/DaisyToolchain/0.2.0/arm/arm-none-eabi/include/c++/10.3.1/array ****       end() const noexcept
 139:/Library/DaisyToolchain/0.2.0/arm/arm-none-eabi/include/c++/10.3.1/array ****       { return const_iterator(data() + _Nm); }
 140:/Library/DaisyToolchain/0.2.0/arm/arm-none-eabi/include/c++/10.3.1/array **** 
 141:/Library/DaisyToolchain/0.2.0/arm/arm-none-eabi/include/c++/10.3.1/array ****       _GLIBCXX17_CONSTEXPR reverse_iterator
 142:/Library/DaisyToolchain/0.2.0/arm/arm-none-eabi/include/c++/10.3.1/array ****       rbegin() noexcept
 143:/Library/DaisyToolchain/0.2.0/arm/arm-none-eabi/include/c++/10.3.1/array ****       { return reverse_iterator(end()); }
 144:/Library/DaisyToolchain/0.2.0/arm/arm-none-eabi/include/c++/10.3.1/array **** 
 145:/Library/DaisyToolchain/0.2.0/arm/arm-none-eabi/include/c++/10.3.1/array ****       _GLIBCXX17_CONSTEXPR const_reverse_iterator
 146:/Library/DaisyToolchain/0.2.0/arm/arm-none-eabi/include/c++/10.3.1/array ****       rbegin() const noexcept
 147:/Library/DaisyToolchain/0.2.0/arm/arm-none-eabi/include/c++/10.3.1/array ****       { return const_reverse_iterator(end()); }
 148:/Library/DaisyToolchain/0.2.0/arm/arm-none-eabi/include/c++/10.3.1/array **** 
 149:/Library/DaisyToolchain/0.2.0/arm/arm-none-eabi/include/c++/10.3.1/array ****       _GLIBCXX17_CONSTEXPR reverse_iterator
 150:/Library/DaisyToolchain/0.2.0/arm/arm-none-eabi/include/c++/10.3.1/array ****       rend() noexcept
 151:/Library/DaisyToolchain/0.2.0/arm/arm-none-eabi/include/c++/10.3.1/array ****       { return reverse_iterator(begin()); }
 152:/Library/DaisyToolchain/0.2.0/arm/arm-none-eabi/include/c++/10.3.1/array **** 
 153:/Library/DaisyToolchain/0.2.0/arm/arm-none-eabi/include/c++/10.3.1/array ****       _GLIBCXX17_CONSTEXPR const_reverse_iterator
 154:/Library/DaisyToolchain/0.2.0/arm/arm-none-eabi/include/c++/10.3.1/array ****       rend() const noexcept
 155:/Library/DaisyToolchain/0.2.0/arm/arm-none-eabi/include/c++/10.3.1/array ****       { return const_reverse_iterator(begin()); }
 156:/Library/DaisyToolchain/0.2.0/arm/arm-none-eabi/include/c++/10.3.1/array **** 
 157:/Library/DaisyToolchain/0.2.0/arm/arm-none-eabi/include/c++/10.3.1/array ****       _GLIBCXX17_CONSTEXPR const_iterator
 158:/Library/DaisyToolchain/0.2.0/arm/arm-none-eabi/include/c++/10.3.1/array ****       cbegin() const noexcept
 159:/Library/DaisyToolchain/0.2.0/arm/arm-none-eabi/include/c++/10.3.1/array ****       { return const_iterator(data()); }
 160:/Library/DaisyToolchain/0.2.0/arm/arm-none-eabi/include/c++/10.3.1/array **** 
 161:/Library/DaisyToolchain/0.2.0/arm/arm-none-eabi/include/c++/10.3.1/array ****       _GLIBCXX17_CONSTEXPR const_iterator
 162:/Library/DaisyToolchain/0.2.0/arm/arm-none-eabi/include/c++/10.3.1/array ****       cend() const noexcept
 163:/Library/DaisyToolchain/0.2.0/arm/arm-none-eabi/include/c++/10.3.1/array ****       { return const_iterator(data() + _Nm); }
 164:/Library/DaisyToolchain/0.2.0/arm/arm-none-eabi/include/c++/10.3.1/array **** 
ARM GAS  /var/folders/wz/z09yph4n0qj4t7mjxhl6ttn80000gn/T//ccWBe4mu.s 			page 57


 165:/Library/DaisyToolchain/0.2.0/arm/arm-none-eabi/include/c++/10.3.1/array ****       _GLIBCXX17_CONSTEXPR const_reverse_iterator
 166:/Library/DaisyToolchain/0.2.0/arm/arm-none-eabi/include/c++/10.3.1/array ****       crbegin() const noexcept
 167:/Library/DaisyToolchain/0.2.0/arm/arm-none-eabi/include/c++/10.3.1/array ****       { return const_reverse_iterator(end()); }
 168:/Library/DaisyToolchain/0.2.0/arm/arm-none-eabi/include/c++/10.3.1/array **** 
 169:/Library/DaisyToolchain/0.2.0/arm/arm-none-eabi/include/c++/10.3.1/array ****       _GLIBCXX17_CONSTEXPR const_reverse_iterator
 170:/Library/DaisyToolchain/0.2.0/arm/arm-none-eabi/include/c++/10.3.1/array ****       crend() const noexcept
 171:/Library/DaisyToolchain/0.2.0/arm/arm-none-eabi/include/c++/10.3.1/array ****       { return const_reverse_iterator(begin()); }
 172:/Library/DaisyToolchain/0.2.0/arm/arm-none-eabi/include/c++/10.3.1/array **** 
 173:/Library/DaisyToolchain/0.2.0/arm/arm-none-eabi/include/c++/10.3.1/array ****       // Capacity.
 174:/Library/DaisyToolchain/0.2.0/arm/arm-none-eabi/include/c++/10.3.1/array ****       constexpr size_type
 175:/Library/DaisyToolchain/0.2.0/arm/arm-none-eabi/include/c++/10.3.1/array ****       size() const noexcept { return _Nm; }
 176:/Library/DaisyToolchain/0.2.0/arm/arm-none-eabi/include/c++/10.3.1/array **** 
 177:/Library/DaisyToolchain/0.2.0/arm/arm-none-eabi/include/c++/10.3.1/array ****       constexpr size_type
 178:/Library/DaisyToolchain/0.2.0/arm/arm-none-eabi/include/c++/10.3.1/array ****       max_size() const noexcept { return _Nm; }
 179:/Library/DaisyToolchain/0.2.0/arm/arm-none-eabi/include/c++/10.3.1/array **** 
 180:/Library/DaisyToolchain/0.2.0/arm/arm-none-eabi/include/c++/10.3.1/array ****       _GLIBCXX_NODISCARD constexpr bool
 181:/Library/DaisyToolchain/0.2.0/arm/arm-none-eabi/include/c++/10.3.1/array ****       empty() const noexcept { return size() == 0; }
 182:/Library/DaisyToolchain/0.2.0/arm/arm-none-eabi/include/c++/10.3.1/array **** 
 183:/Library/DaisyToolchain/0.2.0/arm/arm-none-eabi/include/c++/10.3.1/array ****       // Element access.
 184:/Library/DaisyToolchain/0.2.0/arm/arm-none-eabi/include/c++/10.3.1/array ****       _GLIBCXX17_CONSTEXPR reference
 185:/Library/DaisyToolchain/0.2.0/arm/arm-none-eabi/include/c++/10.3.1/array ****       operator[](size_type __n) noexcept
 1364              		.loc 4 185 7 view .LVU369
 1365              	.LBB204:
 1366              	.LBI204:
  55:/Library/DaisyToolchain/0.2.0/arm/arm-none-eabi/include/c++/10.3.1/array ****       { return const_cast<_Tp&>(__t[__n]); }
 1367              		.loc 4 55 7 view .LVU370
  55:/Library/DaisyToolchain/0.2.0/arm/arm-none-eabi/include/c++/10.3.1/array ****       { return const_cast<_Tp&>(__t[__n]); }
 1368              		.loc 4 55 7 is_stmt 0 view .LVU371
 1369              	.LBE204:
 1370              	.LBE203:
  63:GUI/MixerView.cpp ****     {
 1371              		.loc 3 63 5 view .LVU372
 1372 00e0 04F10104 		add	r4, r4, #1
 1373              	.LVL115:
  66:GUI/MixerView.cpp ****         else
 1374              		.loc 3 66 34 view .LVU373
 1375 00e4 0CBF     		ite	eq
 1376 00e6 0122     		moveq	r2, #1
 1377              		.loc 3 68 13 is_stmt 1 view .LVU374
 1378              	.LVL116:
 1379              	.LBB205:
 1380              	.LBI205:
 1381              		.loc 4 185 7 view .LVU375
 1382              	.LBB206:
 1383              	.LBI206:
  55:/Library/DaisyToolchain/0.2.0/arm/arm-none-eabi/include/c++/10.3.1/array ****       { return const_cast<_Tp&>(__t[__n]); }
 1384              		.loc 4 55 7 view .LVU376
  55:/Library/DaisyToolchain/0.2.0/arm/arm-none-eabi/include/c++/10.3.1/array ****       { return const_cast<_Tp&>(__t[__n]); }
 1385              		.loc 4 55 7 is_stmt 0 view .LVU377
 1386              	.LBE206:
 1387              	.LBE205:
 1388              		.loc 3 68 34 view .LVU378
 1389 00e8 0022     		movne	r2, #0
 1390 00ea FFF7FEFF 		bl	_ZN11AudioSlider7repaintEib
 1391              	.LVL117:
  63:GUI/MixerView.cpp ****     {
 1392              		.loc 3 63 5 is_stmt 1 view .LVU379
ARM GAS  /var/folders/wz/z09yph4n0qj4t7mjxhl6ttn80000gn/T//ccWBe4mu.s 			page 58


  63:GUI/MixerView.cpp ****     {
 1393              		.loc 3 63 23 view .LVU380
 1394 00ee 042C     		cmp	r4, #4
 1395 00f0 F1D1     		bne	.L45
 1396              	.LBE202:
  69:GUI/MixerView.cpp ****     }
  70:GUI/MixerView.cpp **** }
 1397              		.loc 3 70 1 is_stmt 0 view .LVU381
 1398 00f2 06B0     		add	sp, sp, #24
 1399              		.cfi_def_cfa_offset 24
 1400              		@ sp needed
 1401 00f4 BDE8F081 		pop	{r4, r5, r6, r7, r8, pc}
 1402              	.LVL118:
 1403              	.L49:
 1404              		.loc 3 70 1 view .LVU382
 1405              		.align	2
 1406              	.L48:
 1407 00f8 00000000 		.word	lcd
 1408 00fc 00000000 		.word	Font_7x10
 1409 0100 00000000 		.word	.LC0
 1410 0104 00000000 		.word	Font_16x26
 1411 0108 0A000000 		.word	.LC1
 1412 010c 15000000 		.word	.LC2
 1413              		.cfi_endproc
 1414              	.LFE5126:
 1416              		.section	.text._ZN9MixerView4tickEv,"ax",%progbits
 1417              		.align	1
 1418              		.global	_ZN9MixerView4tickEv
 1419              		.syntax unified
 1420              		.thumb
 1421              		.thumb_func
 1423              	_ZN9MixerView4tickEv:
 1424              	.LVL119:
 1425              	.LFB5125:
  21:GUI/MixerView.cpp ****     amp1.tick();
 1426              		.loc 3 21 1 is_stmt 1 view -0
 1427              		.cfi_startproc
 1428              		@ args = 0, pretend = 0, frame = 0
 1429              		@ frame_needed = 0, uses_anonymous_args = 0
  22:GUI/MixerView.cpp ****     amp2.tick();
 1430              		.loc 3 22 5 view .LVU384
  21:GUI/MixerView.cpp ****     amp1.tick();
 1431              		.loc 3 21 1 is_stmt 0 view .LVU385
 1432 0000 10B5     		push	{r4, lr}
 1433              		.cfi_def_cfa_offset 8
 1434              		.cfi_offset 4, -8
 1435              		.cfi_offset 14, -4
  21:GUI/MixerView.cpp ****     amp1.tick();
 1436              		.loc 3 21 1 view .LVU386
 1437 0002 0446     		mov	r4, r0
  22:GUI/MixerView.cpp ****     amp2.tick();
 1438              		.loc 3 22 14 view .LVU387
 1439 0004 0430     		adds	r0, r0, #4
 1440              	.LVL120:
  22:GUI/MixerView.cpp ****     amp2.tick();
 1441              		.loc 3 22 14 view .LVU388
 1442 0006 FFF7FEFF 		bl	_ZN11AudioSlider4tickEv
ARM GAS  /var/folders/wz/z09yph4n0qj4t7mjxhl6ttn80000gn/T//ccWBe4mu.s 			page 59


 1443              	.LVL121:
  23:GUI/MixerView.cpp ****     amp3.tick();
 1444              		.loc 3 23 5 is_stmt 1 view .LVU389
  23:GUI/MixerView.cpp ****     amp3.tick();
 1445              		.loc 3 23 14 is_stmt 0 view .LVU390
 1446 000a 04F11800 		add	r0, r4, #24
 1447 000e FFF7FEFF 		bl	_ZN11AudioSlider4tickEv
 1448              	.LVL122:
  24:GUI/MixerView.cpp ****     amp4.tick();
 1449              		.loc 3 24 5 is_stmt 1 view .LVU391
  24:GUI/MixerView.cpp ****     amp4.tick();
 1450              		.loc 3 24 14 is_stmt 0 view .LVU392
 1451 0012 04F12C00 		add	r0, r4, #44
 1452 0016 FFF7FEFF 		bl	_ZN11AudioSlider4tickEv
 1453              	.LVL123:
  25:GUI/MixerView.cpp **** 
 1454              		.loc 3 25 5 is_stmt 1 view .LVU393
  25:GUI/MixerView.cpp **** 
 1455              		.loc 3 25 14 is_stmt 0 view .LVU394
 1456 001a 04F14000 		add	r0, r4, #64
 1457 001e FFF7FEFF 		bl	_ZN11AudioSlider4tickEv
 1458              	.LVL124:
  27:GUI/MixerView.cpp ****     track2.tick();
 1459              		.loc 3 27 5 is_stmt 1 view .LVU395
  27:GUI/MixerView.cpp ****     track2.tick();
 1460              		.loc 3 27 16 is_stmt 0 view .LVU396
 1461 0022 04F1A800 		add	r0, r4, #168
 1462 0026 FFF7FEFF 		bl	_ZN9TrackView4tickEv
 1463              	.LVL125:
  28:GUI/MixerView.cpp ****     track3.tick();
 1464              		.loc 3 28 5 is_stmt 1 view .LVU397
  28:GUI/MixerView.cpp ****     track3.tick();
 1465              		.loc 3 28 16 is_stmt 0 view .LVU398
 1466 002a 04F53F70 		add	r0, r4, #764
 1467 002e FFF7FEFF 		bl	_ZN9TrackView4tickEv
 1468              	.LVL126:
  29:GUI/MixerView.cpp ****     track4.tick();
 1469              		.loc 3 29 5 is_stmt 1 view .LVU399
  29:GUI/MixerView.cpp ****     track4.tick();
 1470              		.loc 3 29 16 is_stmt 0 view .LVU400
 1471 0032 04F5AA60 		add	r0, r4, #1360
 1472 0036 FFF7FEFF 		bl	_ZN9TrackView4tickEv
 1473              	.LVL127:
  30:GUI/MixerView.cpp **** 
 1474              		.loc 3 30 5 is_stmt 1 view .LVU401
  30:GUI/MixerView.cpp **** 
 1475              		.loc 3 30 16 is_stmt 0 view .LVU402
 1476 003a 04F2A470 		addw	r0, r4, #1956
 1477 003e FFF7FEFF 		bl	_ZN9TrackView4tickEv
 1478              	.LVL128:
  32:GUI/MixerView.cpp ****         repaint();
 1479              		.loc 3 32 5 is_stmt 1 view .LVU403
 1480 0042 94F8F839 		ldrb	r3, [r4, #2552]	@ zero_extendqisi2
 1481 0046 23B1     		cbz	r3, .L50
  33:GUI/MixerView.cpp **** }
 1482              		.loc 3 33 9 view .LVU404
  33:GUI/MixerView.cpp **** }
ARM GAS  /var/folders/wz/z09yph4n0qj4t7mjxhl6ttn80000gn/T//ccWBe4mu.s 			page 60


 1483              		.loc 3 33 16 is_stmt 0 view .LVU405
 1484 0048 2046     		mov	r0, r4
  34:GUI/MixerView.cpp **** 
 1485              		.loc 3 34 1 view .LVU406
 1486 004a BDE81040 		pop	{r4, lr}
 1487              		.cfi_remember_state
 1488              		.cfi_restore 14
 1489              		.cfi_restore 4
 1490              		.cfi_def_cfa_offset 0
 1491              	.LVL129:
  33:GUI/MixerView.cpp **** }
 1492              		.loc 3 33 16 view .LVU407
 1493 004e FFF7FEBF 		b	_ZN9MixerView7repaintEv
 1494              	.LVL130:
 1495              	.L50:
 1496              		.cfi_restore_state
  34:GUI/MixerView.cpp **** 
 1497              		.loc 3 34 1 view .LVU408
 1498 0052 10BD     		pop	{r4, pc}
  34:GUI/MixerView.cpp **** 
 1499              		.loc 3 34 1 view .LVU409
 1500              		.cfi_endproc
 1501              	.LFE5125:
 1503              		.section	.text._ZN9MixerView5clearEv,"ax",%progbits
 1504              		.align	1
 1505              		.global	_ZN9MixerView5clearEv
 1506              		.syntax unified
 1507              		.thumb
 1508              		.thumb_func
 1510              	_ZN9MixerView5clearEv:
 1511              	.LVL131:
 1512              	.LFB5127:
  71:GUI/MixerView.cpp **** 
  72:GUI/MixerView.cpp **** void MixerView::clear()
  73:GUI/MixerView.cpp **** {
 1513              		.loc 3 73 1 is_stmt 1 view -0
 1514              		.cfi_startproc
 1515              		@ args = 0, pretend = 0, frame = 0
 1516              		@ frame_needed = 0, uses_anonymous_args = 0
 1517              		@ link register save eliminated.
  74:GUI/MixerView.cpp ****     
  75:GUI/MixerView.cpp **** }...
 1518              		.loc 3 75 1 is_stmt 0 view .LVU411
 1519 0000 7047     		bx	lr
 1520              		.cfi_endproc
 1521              	.LFE5127:
 1523              		.text
 1524              	.Letext0:
 1525              		.file 5 "/Library/DaisyToolchain/0.2.0/arm/arm-none-eabi/include/machine/_default_types.h"
 1526              		.file 6 "/Library/DaisyToolchain/0.2.0/arm/arm-none-eabi/include/sys/_stdint.h"
 1527              		.file 7 "/Library/DaisyToolchain/0.2.0/arm/arm-none-eabi/include/stdint.h"
 1528              		.file 8 "/Library/DaisyToolchain/0.2.0/arm/lib/gcc/arm-none-eabi/10.3.1/include/stddef.h"
 1529              		.file 9 "/Library/DaisyToolchain/0.2.0/arm/arm-none-eabi/include/c++/10.3.1/cmath"
 1530              		.file 10 "/Library/DaisyToolchain/0.2.0/arm/arm-none-eabi/include/c++/10.3.1/bits/std_abs.h"
 1531              		.file 11 "/Library/DaisyToolchain/0.2.0/arm/arm-none-eabi/include/c++/10.3.1/cstdlib"
 1532              		.file 12 "/Library/DaisyToolchain/0.2.0/arm/arm-none-eabi/include/c++/10.3.1/cstdint"
 1533              		.file 13 "/Library/DaisyToolchain/0.2.0/arm/arm-none-eabi/include/c++/10.3.1/type_traits"
ARM GAS  /var/folders/wz/z09yph4n0qj4t7mjxhl6ttn80000gn/T//ccWBe4mu.s 			page 61


 1534              		.file 14 "/Library/DaisyToolchain/0.2.0/arm/arm-none-eabi/include/c++/10.3.1/arm-none-eabi/thumb/v
 1535              		.file 15 "/Library/DaisyToolchain/0.2.0/arm/arm-none-eabi/include/c++/10.3.1/bits/stl_pair.h"
 1536              		.file 16 "/Library/DaisyToolchain/0.2.0/arm/arm-none-eabi/include/c++/10.3.1/debug/debug.h"
 1537              		.file 17 "/Library/DaisyToolchain/0.2.0/arm/arm-none-eabi/include/c++/10.3.1/bits/algorithmfwd.h"
 1538              		.file 18 "/Library/DaisyToolchain/0.2.0/arm/arm-none-eabi/include/c++/10.3.1/bits/exception_ptr.h"
 1539              		.file 19 "/Library/DaisyToolchain/0.2.0/arm/arm-none-eabi/include/c++/10.3.1/cstdarg"
 1540              		.file 20 "/Library/DaisyToolchain/0.2.0/arm/arm-none-eabi/include/c++/10.3.1/cstdio"
 1541              		.file 21 "/Library/DaisyToolchain/0.2.0/arm/arm-none-eabi/include/c++/10.3.1/cstring"
 1542              		.file 22 "/Library/DaisyToolchain/0.2.0/arm/arm-none-eabi/include/c++/10.3.1/cwchar"
 1543              		.file 23 "/Library/DaisyToolchain/0.2.0/arm/arm-none-eabi/include/c++/10.3.1/clocale"
 1544              		.file 24 "/Library/DaisyToolchain/0.2.0/arm/arm-none-eabi/include/c++/10.3.1/bits/basic_string.h"
 1545              		.file 25 "/Library/DaisyToolchain/0.2.0/arm/arm-none-eabi/include/c++/10.3.1/bits/uses_allocator.h
 1546              		.file 26 "/Library/DaisyToolchain/0.2.0/arm/arm-none-eabi/include/c++/10.3.1/tuple"
 1547              		.file 27 "/Library/DaisyToolchain/0.2.0/arm/arm-none-eabi/include/c++/10.3.1/bits/std_function.h"
 1548              		.file 28 "/Library/DaisyToolchain/0.2.0/arm/arm-none-eabi/include/c++/10.3.1/functional"
 1549              		.file 29 "/Library/DaisyToolchain/0.2.0/arm/arm-none-eabi/include/c++/10.3.1/bits/refwrap.h"
 1550              		.file 30 "/Library/DaisyToolchain/0.2.0/arm/arm-none-eabi/include/c++/10.3.1/bits/stl_iterator.h"
 1551              		.file 31 "/Library/DaisyToolchain/0.2.0/arm/arm-none-eabi/include/c++/10.3.1/bits/stl_function.h"
 1552              		.file 32 "/Library/DaisyToolchain/0.2.0/arm/arm-none-eabi/include/c++/10.3.1/bits/allocator.h"
 1553              		.file 33 "/Library/DaisyToolchain/0.2.0/arm/arm-none-eabi/include/c++/10.3.1/bits/alloc_traits.h"
 1554              		.file 34 "/Library/DaisyToolchain/0.2.0/arm/arm-none-eabi/include/c++/10.3.1/bits/stl_vector.h"
 1555              		.file 35 "/Library/DaisyToolchain/0.2.0/arm/arm-none-eabi/include/c++/10.3.1/bits/vector.tcc"
 1556              		.file 36 "/Library/DaisyToolchain/0.2.0/arm/arm-none-eabi/include/c++/10.3.1/bits/stl_iterator_bas
 1557              		.file 37 "/Library/DaisyToolchain/0.2.0/arm/arm-none-eabi/include/c++/10.3.1/bits/predefined_ops.h
 1558              		.file 38 "/Library/DaisyToolchain/0.2.0/arm/arm-none-eabi/include/c++/10.3.1/ext/new_allocator.h"
 1559              		.file 39 "/Library/DaisyToolchain/0.2.0/arm/arm-none-eabi/include/c++/10.3.1/ext/alloc_traits.h"
 1560              		.file 40 "/Library/DaisyToolchain/0.2.0/arm/arm-none-eabi/include/sys/_types.h"
 1561              		.file 41 "<built-in>"
 1562              		.file 42 "/Library/DaisyToolchain/0.2.0/arm/arm-none-eabi/include/sys/reent.h"
 1563              		.file 43 "/Library/DaisyToolchain/0.2.0/arm/arm-none-eabi/include/sys/lock.h"
 1564              		.file 44 "/Library/DaisyToolchain/0.2.0/arm/arm-none-eabi/include/math.h"
 1565              		.file 45 "/Library/DaisyToolchain/0.2.0/arm/arm-none-eabi/include/stdlib.h"
 1566              		.file 46 "/Library/DaisyToolchain/0.2.0/arm/arm-none-eabi/include/c++/10.3.1/math.h"
 1567              		.file 47 "/Library/DaisyToolchain/0.2.0/arm/arm-none-eabi/include/c++/10.3.1/stdlib.h"
 1568              		.file 48 "../../../libDaisy//src/daisy_core.h"
 1569              		.file 49 "../../../libDaisy//src/per/tim.h"
 1570              		.file 50 "../../../libDaisy//src/sys/system.h"
 1571              		.file 51 "../../../libDaisy//src/per/qspi.h"
 1572              		.file 52 "../../../libDaisy//src/per/dac.h"
 1573              		.file 53 "../../../libDaisy//src/per/sai.h"
 1574              		.file 54 "../../../libDaisy//src/hid/audio.h"
 1575              		.file 55 "../../../libDaisy//src/per/adc.h"
 1576              		.file 56 "../../../libDaisy//src/hid/usb.h"
 1577              		.file 57 "../../../libDaisy//src/hid/switch.h"
 1578              		.file 58 "../../../libDaisy//src/per/spi.h"
 1579              		.file 59 "../../../libDaisy//src/util/wav_format.h"
 1580              		.file 60 "../../../libDaisy//src/dev/max11300.h"
 1581              		.file 61 "../../../libDaisy//src/daisy_seed.h"
 1582              		.file 62 "../../../libDaisy//src/per/gpio.h"
 1583              		.file 63 "../../../libDaisy//src/dev/sdram.h"
 1584              		.file 64 "/Library/DaisyToolchain/0.2.0/arm/lib/gcc/arm-none-eabi/10.3.1/include/stdarg.h"
 1585              		.file 65 "/Library/DaisyToolchain/0.2.0/arm/arm-none-eabi/include/stdio.h"
 1586              		.file 66 "../../../libDaisy//src/util/oled_fonts.h"
 1587              		.file 67 "/Library/DaisyToolchain/0.2.0/arm/arm-none-eabi/include/string.h"
 1588              		.file 68 "GUI/FX/StyleSheet.h"
 1589              		.file 69 "../../../libDaisy//src/dev/sr_595.h"
 1590              		.file 70 "/Library/DaisyToolchain/0.2.0/arm/arm-none-eabi/include/wchar.h"
ARM GAS  /var/folders/wz/z09yph4n0qj4t7mjxhl6ttn80000gn/T//ccWBe4mu.s 			page 62


 1591              		.file 71 "/Library/DaisyToolchain/0.2.0/arm/arm-none-eabi/include/locale.h"
 1592              		.file 72 "GUI/AudioSlider.h"
 1593              		.file 73 "GUI/../Parameters/ParameterIDs.h"
 1594              		.file 74 "GUI/FX/../../Drivers/../Parameters/BinaryParameter.h"
 1595              		.file 75 "GUI/FX/../../Drivers/KeypadDriver.h"
 1596              		.file 76 "../../../DaisySP//Source/Control/adenv.h"
 1597              		.file 77 "../../../DaisySP//Source/Utility/dsp.h"
 1598              		.file 78 "GUI/FX/../../Drivers/../Parameters/SteppedParameter.h"
 1599              		.file 79 "GUI/FX/../../Drivers/EncoderDriver.h"
 1600              		.file 80 "GUI/FX/BypassButton.h"
 1601              		.file 81 "GUI/FX/SteppedSlider.h"
 1602              		.file 82 "GUI/FX/PitchShiftView.h"
 1603              		.file 83 "GUI/FX/WaveshaperView.h"
 1604              		.file 84 "GUI/FX/FilterView.h"
 1605              		.file 85 "GUI/FX/ReverbView.h"
 1606              		.file 86 "GUI/FX/DelayView.h"
 1607              		.file 87 "GUI/TrackView.h"
 1608              		.file 88 "GUI/MixerView.h"
ARM GAS  /var/folders/wz/z09yph4n0qj4t7mjxhl6ttn80000gn/T//ccWBe4mu.s 			page 63


DEFINED SYMBOLS
                            *ABS*:0000000000000000 MixerView.cpp
/var/folders/wz/z09yph4n0qj4t7mjxhl6ttn80000gn/T//ccWBe4mu.s:19     .text._ZN8UiDriver9DrawPixelEjjhh:0000000000000000 $t
/var/folders/wz/z09yph4n0qj4t7mjxhl6ttn80000gn/T//ccWBe4mu.s:25     .text._ZN8UiDriver9DrawPixelEjjhh:0000000000000000 _ZN8UiDriver9DrawPixelEjjhh
/var/folders/wz/z09yph4n0qj4t7mjxhl6ttn80000gn/T//ccWBe4mu.s:188    .text._ZN8UiDriver9DrawPixelEjjhh:000000000000008c $d
/var/folders/wz/z09yph4n0qj4t7mjxhl6ttn80000gn/T//ccWBe4mu.s:194    .text._ZN8UiDriver8DrawLineEjjjjhh:0000000000000000 $t
/var/folders/wz/z09yph4n0qj4t7mjxhl6ttn80000gn/T//ccWBe4mu.s:200    .text._ZN8UiDriver8DrawLineEjjjjhh:0000000000000000 _ZN8UiDriver8DrawLineEjjjjhh
/var/folders/wz/z09yph4n0qj4t7mjxhl6ttn80000gn/T//ccWBe4mu.s:492    .text._ZN8UiDriver8DrawRectERKN5daisy9RectangleEhh:0000000000000000 $t
/var/folders/wz/z09yph4n0qj4t7mjxhl6ttn80000gn/T//ccWBe4mu.s:498    .text._ZN8UiDriver8DrawRectERKN5daisy9RectangleEhh:0000000000000000 _ZN8UiDriver8DrawRectERKN5daisy9RectangleEhh
/var/folders/wz/z09yph4n0qj4t7mjxhl6ttn80000gn/T//ccWBe4mu.s:649    .text._ZN8UiDriver11WriteStringEPKctt7FontDefh.isra.0:0000000000000000 $t
/var/folders/wz/z09yph4n0qj4t7mjxhl6ttn80000gn/T//ccWBe4mu.s:654    .text._ZN8UiDriver11WriteStringEPKctt7FontDefh.isra.0:0000000000000000 _ZN8UiDriver11WriteStringEPKctt7FontDefh.isra.0
/var/folders/wz/z09yph4n0qj4t7mjxhl6ttn80000gn/T//ccWBe4mu.s:881    .text._ZN9MixerView4initEPN5daisy9DaisySeedEP13EncoderDriverP12KeypadDriver:0000000000000000 $t
/var/folders/wz/z09yph4n0qj4t7mjxhl6ttn80000gn/T//ccWBe4mu.s:887    .text._ZN9MixerView4initEPN5daisy9DaisySeedEP13EncoderDriverP12KeypadDriver:0000000000000000 _ZN9MixerView4initEPN5daisy9DaisySeedEP13EncoderDriverP12KeypadDriver
/var/folders/wz/z09yph4n0qj4t7mjxhl6ttn80000gn/T//ccWBe4mu.s:1001   .text._ZN9MixerView7repaintEv:0000000000000000 $t
/var/folders/wz/z09yph4n0qj4t7mjxhl6ttn80000gn/T//ccWBe4mu.s:1007   .text._ZN9MixerView7repaintEv:0000000000000000 _ZN9MixerView7repaintEv
/var/folders/wz/z09yph4n0qj4t7mjxhl6ttn80000gn/T//ccWBe4mu.s:1407   .text._ZN9MixerView7repaintEv:00000000000000f8 $d
/var/folders/wz/z09yph4n0qj4t7mjxhl6ttn80000gn/T//ccWBe4mu.s:1417   .text._ZN9MixerView4tickEv:0000000000000000 $t
/var/folders/wz/z09yph4n0qj4t7mjxhl6ttn80000gn/T//ccWBe4mu.s:1423   .text._ZN9MixerView4tickEv:0000000000000000 _ZN9MixerView4tickEv
/var/folders/wz/z09yph4n0qj4t7mjxhl6ttn80000gn/T//ccWBe4mu.s:1504   .text._ZN9MixerView5clearEv:0000000000000000 $t
/var/folders/wz/z09yph4n0qj4t7mjxhl6ttn80000gn/T//ccWBe4mu.s:1510   .text._ZN9MixerView5clearEv:0000000000000000 _ZN9MixerView5clearEv

UNDEFINED SYMBOLS
_ZN19ILI9341SpiTransport9color_memE
_ZN19ILI9341SpiTransport12frame_bufferE
_ZN11AudioSlider4initEiPN5daisy9DaisySeedE
_ZN9TrackView4initEiP13EncoderDriverP12KeypadDriver
_ZN11AudioSlider7repaintEib
lcd
Font_7x10
Font_16x26
_ZN11AudioSlider4tickEv
_ZN9TrackView4tickEv
