ARM GAS  /var/folders/wz/z09yph4n0qj4t7mjxhl6ttn80000gn/T//cc2eJoGY.s 			page 1


   1              		.cpu cortex-m7
   2              		.arch armv7e-m
   3              		.fpu fpv5-d16
   4              		.eabi_attribute 28, 1
   5              		.eabi_attribute 20, 1
   6              		.eabi_attribute 21, 1
   7              		.eabi_attribute 23, 3
   8              		.eabi_attribute 24, 1
   9              		.eabi_attribute 25, 1
  10              		.eabi_attribute 26, 1
  11              		.eabi_attribute 30, 2
  12              		.eabi_attribute 34, 1
  13              		.eabi_attribute 18, 4
  14              		.file	"Mixer.cpp"
  15              		.text
  16              	.Ltext0:
  17              		.cfi_sections	.debug_frame
  18              		.section	.text._ZN5Mixer4initEPN5daisy9DaisySeedEPPfS4_S4_S4_S4_,"ax",%progbits
  19              		.align	1
  20              		.p2align 2,,3
  21              		.global	_ZN5Mixer4initEPN5daisy9DaisySeedEPPfS4_S4_S4_S4_
  22              		.syntax unified
  23              		.thumb
  24              		.thumb_func
  26              	_ZN5Mixer4initEPN5daisy9DaisySeedEPPfS4_S4_S4_S4_:
  27              	.LVL0:
  28              	.LFB5126:
  29              		.file 1 "DSP/Mixer.cpp"
   1:DSP/Mixer.cpp **** #include "Mixer.h"
   2:DSP/Mixer.cpp **** 
   3:DSP/Mixer.cpp **** void Mixer::init(daisy::DaisySeed* seed, float* m[2], float* t1[2], float* t2[2], float* t3[2], flo
   4:DSP/Mixer.cpp **** {
  30              		.loc 1 4 1 view -0
  31              		.cfi_startproc
  32              		@ args = 12, pretend = 0, frame = 8
  33              		@ frame_needed = 0, uses_anonymous_args = 0
   5:DSP/Mixer.cpp ****     bufferSize = SAMPLERATE * DURATION;
  34              		.loc 1 5 5 view .LVU1
   4:DSP/Mixer.cpp ****     bufferSize = SAMPLERATE * DURATION;
  35              		.loc 1 4 1 is_stmt 0 view .LVU2
  36 0000 F0B5     		push	{r4, r5, r6, r7, lr}
  37              		.cfi_def_cfa_offset 20
  38              		.cfi_offset 4, -20
  39              		.cfi_offset 5, -16
  40              		.cfi_offset 6, -12
  41              		.cfi_offset 7, -8
  42              		.cfi_offset 14, -4
  43 0002 0546     		mov	r5, r0
  44              		.loc 1 5 16 view .LVU3
  45 0004 2748     		ldr	r0, .L8
  46              	.LVL1:
   4:DSP/Mixer.cpp ****     bufferSize = SAMPLERATE * DURATION;
  47              		.loc 1 4 1 view .LVU4
  48 0006 1E46     		mov	r6, r3
  49 0008 274B     		ldr	r3, .L8+4
  50              	.LVL2:
  51              		.loc 1 5 16 view .LVU5
ARM GAS  /var/folders/wz/z09yph4n0qj4t7mjxhl6ttn80000gn/T//cc2eJoGY.s 			page 2


  52 000a C5F83802 		str	r0, [r5, #568]
   6:DSP/Mixer.cpp ****     for(int i = 0 ; i < 2 ; i++)
  53              		.loc 1 6 5 is_stmt 1 view .LVU6
  54              	.LVL3:
  55              	.LBB29:
  56              		.loc 1 6 23 view .LVU7
   7:DSP/Mixer.cpp ****         mix[i] = m[i];
  57              		.loc 1 7 9 view .LVU8
  58              	.LBE29:
   4:DSP/Mixer.cpp ****     bufferSize = SAMPLERATE * DURATION;
  59              		.loc 1 4 1 is_stmt 0 view .LVU9
  60 000e 83B0     		sub	sp, sp, #12
  61              		.cfi_def_cfa_offset 32
  62              	.LBB30:
  63              		.loc 1 7 21 view .LVU10
  64 0010 1068     		ldr	r0, [r2]
  65              	.LBE30:
   4:DSP/Mixer.cpp ****     bufferSize = SAMPLERATE * DURATION;
  66              		.loc 1 4 1 view .LVU11
  67 0012 0F46     		mov	r7, r1
  68 0014 0344     		add	r3, r3, r0
  69              	.LBB31:
  70              		.loc 1 7 16 view .LVU12
  71 0016 C5F83002 		str	r0, [r5, #560]
   6:DSP/Mixer.cpp ****     for(int i = 0 ; i < 2 ; i++)
  72              		.loc 1 6 5 is_stmt 1 view .LVU13
  73              	.LVL4:
   6:DSP/Mixer.cpp ****     for(int i = 0 ; i < 2 ; i++)
  74              		.loc 1 6 23 view .LVU14
  75              		.loc 1 7 9 view .LVU15
  76              		.loc 1 7 21 is_stmt 0 view .LVU16
  77 001a 5468     		ldr	r4, [r2, #4]
  78 001c 234A     		ldr	r2, .L8+8
  79              	.LVL5:
  80              		.loc 1 7 21 view .LVU17
  81 001e 1B1B     		subs	r3, r3, r4
  82              		.loc 1 7 16 view .LVU18
  83 0020 C5F83442 		str	r4, [r5, #564]
   6:DSP/Mixer.cpp ****     for(int i = 0 ; i < 2 ; i++)
  84              		.loc 1 6 5 is_stmt 1 view .LVU19
  85              	.LVL6:
   6:DSP/Mixer.cpp ****     for(int i = 0 ; i < 2 ; i++)
  86              		.loc 1 6 23 view .LVU20
   6:DSP/Mixer.cpp ****     for(int i = 0 ; i < 2 ; i++)
  87              		.loc 1 6 23 is_stmt 0 view .LVU21
  88              	.LBE31:
  89              	.LBB32:
   8:DSP/Mixer.cpp **** 
   9:DSP/Mixer.cpp ****     for(size_t j = 0 ; j < bufferSize ; j++)
  90              		.loc 1 9 26 is_stmt 1 view .LVU22
  91 0024 9342     		cmp	r3, r2
  92 0026 2FD9     		bls	.L2
  10:DSP/Mixer.cpp ****     {
  11:DSP/Mixer.cpp ****         mix[L][j] = 0.0f;
  93              		.loc 1 11 19 is_stmt 0 view .LVU23
  94 0028 214A     		ldr	r2, .L8+12
  95 002a 0021     		movs	r1, #0
ARM GAS  /var/folders/wz/z09yph4n0qj4t7mjxhl6ttn80000gn/T//cc2eJoGY.s 			page 3


  96              	.LVL7:
  97              		.loc 1 11 19 view .LVU24
  98 002c FFF7FEFF 		bl	memset
  99              	.LVL8:
  12:DSP/Mixer.cpp ****         mix[R][j] = 0.0f;
 100              		.loc 1 12 19 view .LVU25
 101 0030 1F4A     		ldr	r2, .L8+12
 102 0032 2046     		mov	r0, r4
 103 0034 0021     		movs	r1, #0
 104 0036 FFF7FEFF 		bl	memset
 105              	.LVL9:
 106              	.L3:
 107              		.loc 1 12 19 view .LVU26
 108              	.LBE32:
  13:DSP/Mixer.cpp ****     }
  14:DSP/Mixer.cpp **** 
  15:DSP/Mixer.cpp ****     track1.track.init(t1, daisy::seed::D0, daisy::seed::D1);
 109              		.loc 1 15 5 is_stmt 1 view .LVU27
 110              	.LBB33:
 111              	.LBI33:
 112              		.file 2 "../../../libDaisy//src/daisy_core.h"
   1:../../../libDaisy//src/daisy_core.h **** #pragma once
   2:../../../libDaisy//src/daisy_core.h **** #ifndef DSY_CORE_HW_H
   3:../../../libDaisy//src/daisy_core.h **** #define DSY_CORE_HW_H /**< & */
   4:../../../libDaisy//src/daisy_core.h **** #include <stdint.h>
   5:../../../libDaisy//src/daisy_core.h **** #include <stdlib.h>
   6:../../../libDaisy//src/daisy_core.h **** 
   7:../../../libDaisy//src/daisy_core.h **** #if defined(_MSC_VER)
   8:../../../libDaisy//src/daisy_core.h **** #define FORCE_INLINE __forceinline /**< & */
   9:../../../libDaisy//src/daisy_core.h **** #elif defined(__clang__)
  10:../../../libDaisy//src/daisy_core.h **** #define FORCE_INLINE inline __attribute__((always_inline)) /**< & */
  11:../../../libDaisy//src/daisy_core.h **** #pragma clang diagnostic ignored "-Wduplicate-decl-specifier"
  12:../../../libDaisy//src/daisy_core.h **** #elif defined(__GNUC__)
  13:../../../libDaisy//src/daisy_core.h **** #define FORCE_INLINE inline __attribute__((always_inline)) /**< & */
  14:../../../libDaisy//src/daisy_core.h **** #else
  15:../../../libDaisy//src/daisy_core.h **** #error unknown compiler
  16:../../../libDaisy//src/daisy_core.h **** #endif
  17:../../../libDaisy//src/daisy_core.h **** 
  18:../../../libDaisy//src/daisy_core.h **** /** @addtogroup utility
  19:../../../libDaisy//src/daisy_core.h ****     @{
  20:../../../libDaisy//src/daisy_core.h **** */
  21:../../../libDaisy//src/daisy_core.h **** 
  22:../../../libDaisy//src/daisy_core.h **** /** Macro for area of memory that is configured as cacheless
  23:../../../libDaisy//src/daisy_core.h **** This should be used primarily for DMA buffers, and the like.
  24:../../../libDaisy//src/daisy_core.h **** */
  25:../../../libDaisy//src/daisy_core.h **** #define DMA_BUFFER_MEM_SECTION __attribute__((section(".sram1_bss")))
  26:../../../libDaisy//src/daisy_core.h **** /** 
  27:../../../libDaisy//src/daisy_core.h **** THE DTCM RAM section is also non-cached. However, is not suitable 
  28:../../../libDaisy//src/daisy_core.h **** for DMA transfers. Performance is on par with internal SRAM w/ 
  29:../../../libDaisy//src/daisy_core.h **** cache enabled.
  30:../../../libDaisy//src/daisy_core.h **** */
  31:../../../libDaisy//src/daisy_core.h **** #define DTCM_MEM_SECTION __attribute__((section(".dtcmram_bss")))
  32:../../../libDaisy//src/daisy_core.h **** 
  33:../../../libDaisy//src/daisy_core.h **** #define FBIPMAX 0.999985f             /**< close to 1.0f-LSB at 16 bit */
  34:../../../libDaisy//src/daisy_core.h **** #define FBIPMIN (-FBIPMAX)            /**< - (1 - LSB) */
  35:../../../libDaisy//src/daisy_core.h **** #define U82F_SCALE 0.0078740f         /**< 1 / 127 */
  36:../../../libDaisy//src/daisy_core.h **** #define F2U8_SCALE 127.0f             /**< 128 - 1 */
ARM GAS  /var/folders/wz/z09yph4n0qj4t7mjxhl6ttn80000gn/T//cc2eJoGY.s 			page 4


  37:../../../libDaisy//src/daisy_core.h **** #define S82F_SCALE 0.0078125f         /**< 1 / (2**7) */
  38:../../../libDaisy//src/daisy_core.h **** #define F2S8_SCALE 127.0f             /**< (2 ** 7) - 1 */
  39:../../../libDaisy//src/daisy_core.h **** #define S162F_SCALE 3.0517578125e-05f /**< 1 / (2** 15) */
  40:../../../libDaisy//src/daisy_core.h **** #define F2S16_SCALE 32767.0f          /**< (2 ** 15) - 1 */
  41:../../../libDaisy//src/daisy_core.h **** #define F2S24_SCALE 8388608.0f        /**< 2 ** 23 */
  42:../../../libDaisy//src/daisy_core.h **** #define S242F_SCALE 1.192092896e-07f  /**< 1 / (2 ** 23) */
  43:../../../libDaisy//src/daisy_core.h **** #define S24SIGN 0x800000              /**< 2 ** 23 */
  44:../../../libDaisy//src/daisy_core.h **** #define S322F_SCALE 4.6566129e-10f    /**< 1 / (2** 31) */
  45:../../../libDaisy//src/daisy_core.h **** #define F2S32_SCALE 2147483647.f      /**< (2 ** 31) - 1 */
  46:../../../libDaisy//src/daisy_core.h **** 
  47:../../../libDaisy//src/daisy_core.h **** 
  48:../../../libDaisy//src/daisy_core.h **** /** shorthand macro for simplifying the reading of the left 
  49:../../../libDaisy//src/daisy_core.h ****  *  channel of a non-interleaved output buffer named out */
  50:../../../libDaisy//src/daisy_core.h **** #define OUT_L out[0]
  51:../../../libDaisy//src/daisy_core.h **** 
  52:../../../libDaisy//src/daisy_core.h **** /** shorthand macro for simplifying the reading of the right 
  53:../../../libDaisy//src/daisy_core.h ****  *  channel of a non-interleaved output buffer named out */
  54:../../../libDaisy//src/daisy_core.h **** #define OUT_R out[1]
  55:../../../libDaisy//src/daisy_core.h **** 
  56:../../../libDaisy//src/daisy_core.h **** /** shorthand macro for simplifying the reading of the left 
  57:../../../libDaisy//src/daisy_core.h ****  *  channel of a non-interleaved input buffer named in */
  58:../../../libDaisy//src/daisy_core.h **** #define IN_L in[0]
  59:../../../libDaisy//src/daisy_core.h **** 
  60:../../../libDaisy//src/daisy_core.h **** /** shorthand macro for simplifying the reading of the right 
  61:../../../libDaisy//src/daisy_core.h ****  *  channel of a non-interleaved input buffer named in */
  62:../../../libDaisy//src/daisy_core.h **** #define IN_R in[1]
  63:../../../libDaisy//src/daisy_core.h **** 
  64:../../../libDaisy//src/daisy_core.h **** /** 
  65:../../../libDaisy//src/daisy_core.h ****     Computes cube.
  66:../../../libDaisy//src/daisy_core.h ****     \param x Number to be cubed
  67:../../../libDaisy//src/daisy_core.h ****     \return x ^ 3
  68:../../../libDaisy//src/daisy_core.h **** */
  69:../../../libDaisy//src/daisy_core.h **** FORCE_INLINE float cube(float x)
  70:../../../libDaisy//src/daisy_core.h **** {
  71:../../../libDaisy//src/daisy_core.h ****     return (x * x) * x;
  72:../../../libDaisy//src/daisy_core.h **** }
  73:../../../libDaisy//src/daisy_core.h **** 
  74:../../../libDaisy//src/daisy_core.h **** /** 
  75:../../../libDaisy//src/daisy_core.h ****     Converts unsigned 8-bit to float
  76:../../../libDaisy//src/daisy_core.h ****     \param x Number to be scaled.
  77:../../../libDaisy//src/daisy_core.h ****     \return Scaled number.
  78:../../../libDaisy//src/daisy_core.h **** */
  79:../../../libDaisy//src/daisy_core.h **** FORCE_INLINE float u82f(uint8_t x)
  80:../../../libDaisy//src/daisy_core.h **** {
  81:../../../libDaisy//src/daisy_core.h ****     return ((float)x - 127.f) * U82F_SCALE;
  82:../../../libDaisy//src/daisy_core.h **** }
  83:../../../libDaisy//src/daisy_core.h **** 
  84:../../../libDaisy//src/daisy_core.h **** /**
  85:../../../libDaisy//src/daisy_core.h ****     Converts float to unsigned 8-bit
  86:../../../libDaisy//src/daisy_core.h **** */
  87:../../../libDaisy//src/daisy_core.h **** FORCE_INLINE uint8_t f2u8(float x)
  88:../../../libDaisy//src/daisy_core.h **** {
  89:../../../libDaisy//src/daisy_core.h ****     x = x <= FBIPMIN ? FBIPMIN : x;
  90:../../../libDaisy//src/daisy_core.h ****     x = x >= FBIPMAX ? FBIPMAX : x;
  91:../../../libDaisy//src/daisy_core.h ****     return (uint8_t)((x * F2U8_SCALE) + F2U8_SCALE);
  92:../../../libDaisy//src/daisy_core.h **** }
  93:../../../libDaisy//src/daisy_core.h **** 
ARM GAS  /var/folders/wz/z09yph4n0qj4t7mjxhl6ttn80000gn/T//cc2eJoGY.s 			page 5


  94:../../../libDaisy//src/daisy_core.h **** 
  95:../../../libDaisy//src/daisy_core.h **** /** 
  96:../../../libDaisy//src/daisy_core.h ****     Converts Signed 8-bit to float
  97:../../../libDaisy//src/daisy_core.h ****     \param x Number to be scaled.
  98:../../../libDaisy//src/daisy_core.h ****     \return Scaled number.
  99:../../../libDaisy//src/daisy_core.h **** */
 100:../../../libDaisy//src/daisy_core.h **** FORCE_INLINE float s82f(int8_t x)
 101:../../../libDaisy//src/daisy_core.h **** {
 102:../../../libDaisy//src/daisy_core.h ****     return (float)x * S82F_SCALE;
 103:../../../libDaisy//src/daisy_core.h **** }
 104:../../../libDaisy//src/daisy_core.h **** 
 105:../../../libDaisy//src/daisy_core.h **** /**
 106:../../../libDaisy//src/daisy_core.h ****     Converts float to Signed 8-bit
 107:../../../libDaisy//src/daisy_core.h **** */
 108:../../../libDaisy//src/daisy_core.h **** FORCE_INLINE int8_t f2s8(float x)
 109:../../../libDaisy//src/daisy_core.h **** {
 110:../../../libDaisy//src/daisy_core.h ****     x = x <= FBIPMIN ? FBIPMIN : x;
 111:../../../libDaisy//src/daisy_core.h ****     x = x >= FBIPMAX ? FBIPMAX : x;
 112:../../../libDaisy//src/daisy_core.h ****     return (int32_t)(x * F2S8_SCALE);
 113:../../../libDaisy//src/daisy_core.h **** }
 114:../../../libDaisy//src/daisy_core.h **** 
 115:../../../libDaisy//src/daisy_core.h **** /** 
 116:../../../libDaisy//src/daisy_core.h ****     Converts Signed 16-bit to float
 117:../../../libDaisy//src/daisy_core.h ****     \param x Number to be scaled.
 118:../../../libDaisy//src/daisy_core.h ****     \return Scaled number.
 119:../../../libDaisy//src/daisy_core.h **** */
 120:../../../libDaisy//src/daisy_core.h **** FORCE_INLINE float s162f(int16_t x)
 121:../../../libDaisy//src/daisy_core.h **** {
 122:../../../libDaisy//src/daisy_core.h ****     return (float)x * S162F_SCALE;
 123:../../../libDaisy//src/daisy_core.h **** }
 124:../../../libDaisy//src/daisy_core.h **** 
 125:../../../libDaisy//src/daisy_core.h **** /**
 126:../../../libDaisy//src/daisy_core.h ****     Converts float to Signed 16-bit
 127:../../../libDaisy//src/daisy_core.h **** */
 128:../../../libDaisy//src/daisy_core.h **** FORCE_INLINE int16_t f2s16(float x)
 129:../../../libDaisy//src/daisy_core.h **** {
 130:../../../libDaisy//src/daisy_core.h ****     x = x <= FBIPMIN ? FBIPMIN : x;
 131:../../../libDaisy//src/daisy_core.h ****     x = x >= FBIPMAX ? FBIPMAX : x;
 132:../../../libDaisy//src/daisy_core.h ****     return (int32_t)(x * F2S16_SCALE);
 133:../../../libDaisy//src/daisy_core.h **** }
 134:../../../libDaisy//src/daisy_core.h **** 
 135:../../../libDaisy//src/daisy_core.h **** /**
 136:../../../libDaisy//src/daisy_core.h ****     Converts Signed 24-bit to float
 137:../../../libDaisy//src/daisy_core.h ****  */
 138:../../../libDaisy//src/daisy_core.h **** FORCE_INLINE float s242f(int32_t x)
 139:../../../libDaisy//src/daisy_core.h **** {
 140:../../../libDaisy//src/daisy_core.h ****     x = (x ^ S24SIGN) - S24SIGN; //sign extend aka ((x<<8)>>8)
 141:../../../libDaisy//src/daisy_core.h ****     return (float)x * S242F_SCALE;
 142:../../../libDaisy//src/daisy_core.h **** }
 143:../../../libDaisy//src/daisy_core.h **** /**
 144:../../../libDaisy//src/daisy_core.h ****     Converts float to Signed 24-bit
 145:../../../libDaisy//src/daisy_core.h ****  */
 146:../../../libDaisy//src/daisy_core.h **** FORCE_INLINE int32_t f2s24(float x)
 147:../../../libDaisy//src/daisy_core.h **** {
 148:../../../libDaisy//src/daisy_core.h ****     x = x <= FBIPMIN ? FBIPMIN : x;
 149:../../../libDaisy//src/daisy_core.h ****     x = x >= FBIPMAX ? FBIPMAX : x;
 150:../../../libDaisy//src/daisy_core.h ****     return (int32_t)(x * F2S24_SCALE);
ARM GAS  /var/folders/wz/z09yph4n0qj4t7mjxhl6ttn80000gn/T//cc2eJoGY.s 			page 6


 151:../../../libDaisy//src/daisy_core.h **** }
 152:../../../libDaisy//src/daisy_core.h **** 
 153:../../../libDaisy//src/daisy_core.h **** /**
 154:../../../libDaisy//src/daisy_core.h ****     Converts Signed 32-bit to float
 155:../../../libDaisy//src/daisy_core.h ****  */
 156:../../../libDaisy//src/daisy_core.h **** FORCE_INLINE float s322f(int32_t x)
 157:../../../libDaisy//src/daisy_core.h **** {
 158:../../../libDaisy//src/daisy_core.h ****     return (float)x * S322F_SCALE;
 159:../../../libDaisy//src/daisy_core.h **** }
 160:../../../libDaisy//src/daisy_core.h **** /**
 161:../../../libDaisy//src/daisy_core.h ****     Converts float to Signed 24-bit
 162:../../../libDaisy//src/daisy_core.h ****  */
 163:../../../libDaisy//src/daisy_core.h **** FORCE_INLINE int32_t f2s32(float x)
 164:../../../libDaisy//src/daisy_core.h **** {
 165:../../../libDaisy//src/daisy_core.h ****     x = x <= FBIPMIN ? FBIPMIN : x;
 166:../../../libDaisy//src/daisy_core.h ****     x = x >= FBIPMAX ? FBIPMAX : x;
 167:../../../libDaisy//src/daisy_core.h ****     return (int32_t)(x * F2S32_SCALE);
 168:../../../libDaisy//src/daisy_core.h **** }
 169:../../../libDaisy//src/daisy_core.h **** 
 170:../../../libDaisy//src/daisy_core.h **** 
 171:../../../libDaisy//src/daisy_core.h **** /** Enums and a simple struct for defining a hardware pin on the MCU
 172:../../../libDaisy//src/daisy_core.h ****  *  These correlate with the stm32 datasheet, and are used to configure
 173:../../../libDaisy//src/daisy_core.h ****  *  the hardware.
 174:../../../libDaisy//src/daisy_core.h ****  * 
 175:../../../libDaisy//src/daisy_core.h ****  *  This along with the dsy_gpio_pin class should no longer be used.
 176:../../../libDaisy//src/daisy_core.h ****  *  They are available for backwards compatability. 
 177:../../../libDaisy//src/daisy_core.h ****  * 
 178:../../../libDaisy//src/daisy_core.h ****  *  Please use GPIOPort enum and the Pin struct instead.
 179:../../../libDaisy//src/daisy_core.h ****  */
 180:../../../libDaisy//src/daisy_core.h **** typedef enum
 181:../../../libDaisy//src/daisy_core.h **** {
 182:../../../libDaisy//src/daisy_core.h ****     DSY_GPIOA, /**< & */
 183:../../../libDaisy//src/daisy_core.h ****     DSY_GPIOB, /**< & */
 184:../../../libDaisy//src/daisy_core.h ****     DSY_GPIOC, /**< & */
 185:../../../libDaisy//src/daisy_core.h ****     DSY_GPIOD, /**< & */
 186:../../../libDaisy//src/daisy_core.h ****     DSY_GPIOE, /**< & */
 187:../../../libDaisy//src/daisy_core.h ****     DSY_GPIOF, /**< & */
 188:../../../libDaisy//src/daisy_core.h ****     DSY_GPIOG, /**< & */
 189:../../../libDaisy//src/daisy_core.h ****     DSY_GPIOH, /**< & */
 190:../../../libDaisy//src/daisy_core.h ****     DSY_GPIOI, /**< & */
 191:../../../libDaisy//src/daisy_core.h ****     DSY_GPIOJ, /**< & */
 192:../../../libDaisy//src/daisy_core.h ****     DSY_GPIOK, /**< & */
 193:../../../libDaisy//src/daisy_core.h ****     DSY_GPIOX, /** This is a non-existant port for unsupported bits of hardware. */
 194:../../../libDaisy//src/daisy_core.h ****     DSY_GPIO_LAST, /** Final enum member */
 195:../../../libDaisy//src/daisy_core.h **** } dsy_gpio_port;
 196:../../../libDaisy//src/daisy_core.h **** 
 197:../../../libDaisy//src/daisy_core.h **** /** Hardware define pins 
 198:../../../libDaisy//src/daisy_core.h ****  *  
 199:../../../libDaisy//src/daisy_core.h ****  *  The dsy_gpio_pin struct should no longer be used, and is only available for
 200:../../../libDaisy//src/daisy_core.h ****  *  backwards compatability.
 201:../../../libDaisy//src/daisy_core.h ****  * 
 202:../../../libDaisy//src/daisy_core.h ****  *  Please use Pin struct instead.
 203:../../../libDaisy//src/daisy_core.h ****  */
 204:../../../libDaisy//src/daisy_core.h **** typedef struct
 205:../../../libDaisy//src/daisy_core.h **** {
 206:../../../libDaisy//src/daisy_core.h ****     dsy_gpio_port port; /**< & */
 207:../../../libDaisy//src/daisy_core.h ****     uint8_t       pin;  /**< number 0-15 */
ARM GAS  /var/folders/wz/z09yph4n0qj4t7mjxhl6ttn80000gn/T//cc2eJoGY.s 			page 7


 208:../../../libDaisy//src/daisy_core.h **** } dsy_gpio_pin;
 209:../../../libDaisy//src/daisy_core.h **** 
 210:../../../libDaisy//src/daisy_core.h **** /** Helper for creating pins from port/pin combos easily
 211:../../../libDaisy//src/daisy_core.h ****  * 
 212:../../../libDaisy//src/daisy_core.h ****  *  The dsy_gpio_pin struct should no longer be used, and is only available for
 213:../../../libDaisy//src/daisy_core.h ****  *  backwards compatability.
 214:../../../libDaisy//src/daisy_core.h ****  * 
 215:../../../libDaisy//src/daisy_core.h ****  *  Please use Pin struct instead.
 216:../../../libDaisy//src/daisy_core.h **** */
 217:../../../libDaisy//src/daisy_core.h **** FORCE_INLINE dsy_gpio_pin dsy_pin(dsy_gpio_port port, uint8_t pin)
 218:../../../libDaisy//src/daisy_core.h **** {
 219:../../../libDaisy//src/daisy_core.h ****     dsy_gpio_pin p;
 220:../../../libDaisy//src/daisy_core.h ****     p.port = port;
 221:../../../libDaisy//src/daisy_core.h ****     p.pin  = pin;
 222:../../../libDaisy//src/daisy_core.h ****     return p;
 223:../../../libDaisy//src/daisy_core.h **** }
 224:../../../libDaisy//src/daisy_core.h **** 
 225:../../../libDaisy//src/daisy_core.h **** /** Helper for testing sameness of two dsy_gpio_pins
 226:../../../libDaisy//src/daisy_core.h ****  *  \return    1 if same, 0 if different
 227:../../../libDaisy//src/daisy_core.h ****  * 
 228:../../../libDaisy//src/daisy_core.h ****  *  The dsy_gpio_pin struct should no longer be used, and is only available for
 229:../../../libDaisy//src/daisy_core.h ****  *  backwards compatability.
 230:../../../libDaisy//src/daisy_core.h ****  * 
 231:../../../libDaisy//src/daisy_core.h ****  *  Please use Pin struct instead.
 232:../../../libDaisy//src/daisy_core.h ****  */
 233:../../../libDaisy//src/daisy_core.h **** FORCE_INLINE uint8_t dsy_pin_cmp(dsy_gpio_pin *a, dsy_gpio_pin *b)
 234:../../../libDaisy//src/daisy_core.h **** {
 235:../../../libDaisy//src/daisy_core.h ****     return ((a->port == b->port) && (a->pin == b->pin));
 236:../../../libDaisy//src/daisy_core.h **** }
 237:../../../libDaisy//src/daisy_core.h **** 
 238:../../../libDaisy//src/daisy_core.h **** #ifdef __cplusplus
 239:../../../libDaisy//src/daisy_core.h **** 
 240:../../../libDaisy//src/daisy_core.h **** namespace daisy
 241:../../../libDaisy//src/daisy_core.h **** {
 242:../../../libDaisy//src/daisy_core.h **** /** @brief GPIO Port names */
 243:../../../libDaisy//src/daisy_core.h **** enum GPIOPort
 244:../../../libDaisy//src/daisy_core.h **** {
 245:../../../libDaisy//src/daisy_core.h ****     PORTA, /**< Port A */
 246:../../../libDaisy//src/daisy_core.h ****     PORTB, /**< Port B */
 247:../../../libDaisy//src/daisy_core.h ****     PORTC, /**< Port C */
 248:../../../libDaisy//src/daisy_core.h ****     PORTD, /**< Port D */
 249:../../../libDaisy//src/daisy_core.h ****     PORTE, /**< Port E */
 250:../../../libDaisy//src/daisy_core.h ****     PORTF, /**< Port F */
 251:../../../libDaisy//src/daisy_core.h ****     PORTG, /**< Port G */
 252:../../../libDaisy//src/daisy_core.h ****     PORTH, /**< Port H */
 253:../../../libDaisy//src/daisy_core.h ****     PORTI, /**< Port I */
 254:../../../libDaisy//src/daisy_core.h ****     PORTJ, /**< Port J */
 255:../../../libDaisy//src/daisy_core.h ****     PORTK, /**< Port K */
 256:../../../libDaisy//src/daisy_core.h ****     PORTX, /**< Used as a dummy port to signal an invalid pin. */
 257:../../../libDaisy//src/daisy_core.h **** };
 258:../../../libDaisy//src/daisy_core.h **** 
 259:../../../libDaisy//src/daisy_core.h **** /** @brief representation of hardware port/pin combination */
 260:../../../libDaisy//src/daisy_core.h **** struct Pin
 261:../../../libDaisy//src/daisy_core.h **** {
 262:../../../libDaisy//src/daisy_core.h ****     GPIOPort port;
 263:../../../libDaisy//src/daisy_core.h ****     uint8_t  pin;
 264:../../../libDaisy//src/daisy_core.h **** 
ARM GAS  /var/folders/wz/z09yph4n0qj4t7mjxhl6ttn80000gn/T//cc2eJoGY.s 			page 8


 265:../../../libDaisy//src/daisy_core.h ****     /** @brief Constructor creates a valid pin. 
 266:../../../libDaisy//src/daisy_core.h ****      *  @param pt GPIOPort between PA, and PK corresponding to STM32 Port.
 267:../../../libDaisy//src/daisy_core.h ****      *  @param pn pin number in range of 0-15
 268:../../../libDaisy//src/daisy_core.h ****     */
 269:../../../libDaisy//src/daisy_core.h ****     constexpr Pin(const GPIOPort pt, const uint8_t pn) : port(pt), pin(pn) {}
 270:../../../libDaisy//src/daisy_core.h **** 
 271:../../../libDaisy//src/daisy_core.h ****     /** @brief Basic Constructor creates an invalid Pin object */
 272:../../../libDaisy//src/daisy_core.h ****     constexpr Pin() : port(PORTX), pin(255) {}
 273:../../../libDaisy//src/daisy_core.h **** 
 274:../../../libDaisy//src/daisy_core.h ****     /** @brief checks validity of a Pin 
 275:../../../libDaisy//src/daisy_core.h ****      *  @retval returns true if the port is a valid hardware pin, otherwise false.
 276:../../../libDaisy//src/daisy_core.h ****     */
 277:../../../libDaisy//src/daisy_core.h ****     constexpr bool IsValid() const { return port != PORTX && pin < 16; }
 278:../../../libDaisy//src/daisy_core.h **** 
 279:../../../libDaisy//src/daisy_core.h ****     /** @brief comparison operator for checking equality between Pin objects */
 280:../../../libDaisy//src/daisy_core.h ****     constexpr bool operator==(const Pin &rhs) const
 281:../../../libDaisy//src/daisy_core.h ****     {
 282:../../../libDaisy//src/daisy_core.h ****         return (rhs.port == port) && (rhs.pin == pin);
 283:../../../libDaisy//src/daisy_core.h ****     }
 284:../../../libDaisy//src/daisy_core.h **** 
 285:../../../libDaisy//src/daisy_core.h ****     /** @brief comparison operator for checking inequality between Pin objects */
 286:../../../libDaisy//src/daisy_core.h ****     constexpr bool operator!=(const Pin &rhs) const { return !operator==(rhs); }
 287:../../../libDaisy//src/daisy_core.h **** 
 288:../../../libDaisy//src/daisy_core.h ****     /** @brief conversion operation for converting to the old-style representation
 289:../../../libDaisy//src/daisy_core.h ****      *         of a pin.
 290:../../../libDaisy//src/daisy_core.h ****      * 
 291:../../../libDaisy//src/daisy_core.h ****      *  This allows the new Pin type to be used in place of the older, dsy_gpio_pin
 292:../../../libDaisy//src/daisy_core.h ****      *  type.
 293:../../../libDaisy//src/daisy_core.h ****      */
 294:../../../libDaisy//src/daisy_core.h ****     operator dsy_gpio_pin() const
 113              		.loc 2 294 5 view .LVU28
 114              	.LBE33:
 295:../../../libDaisy//src/daisy_core.h ****     {
 296:../../../libDaisy//src/daisy_core.h ****         return dsy_pin(static_cast<dsy_gpio_port>(port), pin);
 115              		.loc 2 296 9 view .LVU29
 116              	.LBB35:
 117              	.LBB34:
 118              	.LBI34:
 217:../../../libDaisy//src/daisy_core.h **** {
 119              		.loc 2 217 27 view .LVU30
 120              	.LBE34:
 121              	.LBE35:
 219:../../../libDaisy//src/daisy_core.h ****     p.port = port;
 122              		.loc 2 219 5 view .LVU31
 220:../../../libDaisy//src/daisy_core.h ****     p.pin  = pin;
 123              		.loc 2 220 5 view .LVU32
 221:../../../libDaisy//src/daisy_core.h ****     return p;
 124              		.loc 2 221 5 view .LVU33
 222:../../../libDaisy//src/daisy_core.h **** }
 125              		.loc 2 222 5 view .LVU34
 222:../../../libDaisy//src/daisy_core.h **** }
 126              		.loc 2 222 5 is_stmt 0 view .LVU35
 127 003a 0C23     		movs	r3, #12
 128 003c 0124     		movs	r4, #1
 129              		.loc 1 15 22 view .LVU36
 130 003e 3146     		mov	r1, r6
 131 0040 2846     		mov	r0, r5
ARM GAS  /var/folders/wz/z09yph4n0qj4t7mjxhl6ttn80000gn/T//cc2eJoGY.s 			page 9


 132 0042 8DF80130 		strb	r3, [sp, #1]
 133              	.LVL10:
 134              	.LBB36:
 135              	.LBI36:
 294:../../../libDaisy//src/daisy_core.h ****     {
 136              		.loc 2 294 5 is_stmt 1 view .LVU37
 137              	.LBE36:
 138              		.loc 2 296 9 view .LVU38
 139              	.LBB38:
 140              	.LBB37:
 141              	.LBI37:
 217:../../../libDaisy//src/daisy_core.h **** {
 142              		.loc 2 217 27 view .LVU39
 143              	.LBE37:
 144              	.LBE38:
 219:../../../libDaisy//src/daisy_core.h ****     p.port = port;
 145              		.loc 2 219 5 view .LVU40
 220:../../../libDaisy//src/daisy_core.h ****     p.pin  = pin;
 146              		.loc 2 220 5 view .LVU41
 221:../../../libDaisy//src/daisy_core.h ****     return p;
 147              		.loc 2 221 5 view .LVU42
 222:../../../libDaisy//src/daisy_core.h **** }
 148              		.loc 2 222 5 view .LVU43
 222:../../../libDaisy//src/daisy_core.h **** }
 149              		.loc 2 222 5 is_stmt 0 view .LVU44
 150 0046 0223     		movs	r3, #2
 151 0048 8DF80040 		strb	r4, [sp]
 152 004c 8DF80430 		strb	r3, [sp, #4]
 153 0050 0B23     		movs	r3, #11
 154 0052 8DF80530 		strb	r3, [sp, #5]
 155              	.LVL11:
 156              		.loc 1 15 22 view .LVU45
 157 0056 DDE90023 		ldrd	r2, r3, [sp]
 158 005a FFF7FEFF 		bl	_ZN5Track4initEPPf12dsy_gpio_pinS2_
 159              	.LVL12:
  16:DSP/Mixer.cpp ****     track1.gain.init(seed, 0, 1, LINEAR, ChannelIDs::Amp1);
 160              		.loc 1 16 5 is_stmt 1 view .LVU46
 161              	.LBB39:
 162              	.LBI39:
 163              		.file 3 "DSP/FX/../../Parameters/AudioParameter.h"
   1:DSP/FX/../../Parameters/AudioParameter.h **** #ifndef AUDIO_PARAMETER_H
   2:DSP/FX/../../Parameters/AudioParameter.h **** #define AUDIO_PARAMETER_H
   3:DSP/FX/../../Parameters/AudioParameter.h **** 
   4:DSP/FX/../../Parameters/AudioParameter.h **** #include "daisy_seed.h"
   5:DSP/FX/../../Parameters/AudioParameter.h **** #include "daisysp.h"
   6:DSP/FX/../../Parameters/AudioParameter.h **** #include "../Utils/Helpers.h"
   7:DSP/FX/../../Parameters/AudioParameter.h **** #include "../Utils/Constants.h"
   8:DSP/FX/../../Parameters/AudioParameter.h **** #include <cstdint>
   9:DSP/FX/../../Parameters/AudioParameter.h **** 
  10:DSP/FX/../../Parameters/AudioParameter.h **** /*****************************************************************************//**
  11:DSP/FX/../../Parameters/AudioParameter.h ****  *  Class name: AudioParameter
  12:DSP/FX/../../Parameters/AudioParameter.h ****  *  Function: Parameter object for DSP classes that contains pot boilerplate code
  13:DSP/FX/../../Parameters/AudioParameter.h ****  ********************************************************************************/
  14:DSP/FX/../../Parameters/AudioParameter.h **** 
  15:DSP/FX/../../Parameters/AudioParameter.h **** using namespace daisy;
  16:DSP/FX/../../Parameters/AudioParameter.h **** 
  17:DSP/FX/../../Parameters/AudioParameter.h **** template <class type>
ARM GAS  /var/folders/wz/z09yph4n0qj4t7mjxhl6ttn80000gn/T//cc2eJoGY.s 			page 10


  18:DSP/FX/../../Parameters/AudioParameter.h **** class AudioParameter
  19:DSP/FX/../../Parameters/AudioParameter.h **** {
  20:DSP/FX/../../Parameters/AudioParameter.h **** public:
  21:DSP/FX/../../Parameters/AudioParameter.h **** 
  22:DSP/FX/../../Parameters/AudioParameter.h ****     void init(DaisySeed* seed, type mi, type ma, CurveType c, uint8_t ID)
 164              		.loc 3 22 10 view .LVU47
 165              	.LBB40:
  23:DSP/FX/../../Parameters/AudioParameter.h ****     {
  24:DSP/FX/../../Parameters/AudioParameter.h ****         hw = seed;
  25:DSP/FX/../../Parameters/AudioParameter.h ****         input = 0;
  26:DSP/FX/../../Parameters/AudioParameter.h **** 
  27:DSP/FX/../../Parameters/AudioParameter.h ****         curVal = 0;
  28:DSP/FX/../../Parameters/AudioParameter.h ****         min = mi;
  29:DSP/FX/../../Parameters/AudioParameter.h ****         max = ma;
 166              		.loc 3 29 13 is_stmt 0 view .LVU48
 167 005e 4FF07E52 		mov	r2, #1065353216
  25:DSP/FX/../../Parameters/AudioParameter.h **** 
 168              		.loc 3 25 15 view .LVU49
 169 0062 0023     		movs	r3, #0
  30:DSP/FX/../../Parameters/AudioParameter.h **** 
  31:DSP/FX/../../Parameters/AudioParameter.h ****         curve = c;
  32:DSP/FX/../../Parameters/AudioParameter.h ****         channelID = ID;
  33:DSP/FX/../../Parameters/AudioParameter.h **** 
  34:DSP/FX/../../Parameters/AudioParameter.h ****         if(channelID != ChannelIDs::Encoder)
  35:DSP/FX/../../Parameters/AudioParameter.h ****             isSelected = true;
 170              		.loc 3 35 24 view .LVU50
 171 0064 85F88A40 		strb	r4, [r5, #138]
 172              	.LVL13:
 173              		.loc 3 35 24 view .LVU51
 174              	.LBE40:
 175              	.LBE39:
  17:DSP/Mixer.cpp ****     for(int i = 0 ; i < 2 ; i++)
 176              		.loc 1 17 5 is_stmt 1 view .LVU52
 177              	.LBB44:
 178              		.loc 1 17 23 view .LVU53
  18:DSP/Mixer.cpp ****         track1.buffer[i] = t1[i];
 179              		.loc 1 18 9 view .LVU54
 180              	.LBE44:
 181              	.LBB45:
 182              	.LBB41:
  29:DSP/FX/../../Parameters/AudioParameter.h **** 
 183              		.loc 3 29 13 is_stmt 0 view .LVU55
 184 0068 C5F88420 		str	r2, [r5, #132]	@ float
  32:DSP/FX/../../Parameters/AudioParameter.h **** 
 185              		.loc 3 32 19 view .LVU56
 186 006c 0022     		movs	r2, #0
  25:DSP/FX/../../Parameters/AudioParameter.h **** 
 187              		.loc 3 25 15 view .LVU57
 188 006e 6B67     		str	r3, [r5, #116]	@ float
  32:DSP/FX/../../Parameters/AudioParameter.h **** 
 189              		.loc 3 32 19 view .LVU58
 190 0070 A5F88820 		strh	r2, [r5, #136]	@ movhi
 191              	.LBE41:
 192              	.LBE45:
 193              	.LBB46:
 194              		.loc 1 18 32 view .LVU59
 195 0074 3268     		ldr	r2, [r6]
ARM GAS  /var/folders/wz/z09yph4n0qj4t7mjxhl6ttn80000gn/T//cc2eJoGY.s 			page 11


 196              	.LBE46:
 197              	.LBB47:
 198              	.LBB42:
  27:DSP/FX/../../Parameters/AudioParameter.h ****         min = mi;
 199              		.loc 3 27 16 view .LVU60
 200 0076 EB67     		str	r3, [r5, #124]	@ float
  28:DSP/FX/../../Parameters/AudioParameter.h ****         max = ma;
 201              		.loc 3 28 13 view .LVU61
 202 0078 C5F88030 		str	r3, [r5, #128]	@ float
 203              	.LBE42:
 204              	.LBE47:
 205              	.LBB48:
 206              		.loc 1 18 26 view .LVU62
 207 007c AA66     		str	r2, [r5, #104]
  17:DSP/Mixer.cpp ****         track1.buffer[i] = t1[i];
 208              		.loc 1 17 5 is_stmt 1 view .LVU63
 209              	.LVL14:
  17:DSP/Mixer.cpp ****         track1.buffer[i] = t1[i];
 210              		.loc 1 17 23 view .LVU64
 211              		.loc 1 18 9 view .LVU65
 212              		.loc 1 18 32 is_stmt 0 view .LVU66
 213 007e 7368     		ldr	r3, [r6, #4]
 214              	.LBE48:
 215              	.LBB49:
 216              	.LBB43:
  24:DSP/FX/../../Parameters/AudioParameter.h ****         input = 0;
 217              		.loc 3 24 12 view .LVU67
 218 0080 2F67     		str	r7, [r5, #112]
 219              	.LBE43:
 220              	.LBE49:
 221              	.LBB50:
 222              		.loc 1 18 26 view .LVU68
 223 0082 EB66     		str	r3, [r5, #108]
  17:DSP/Mixer.cpp ****         track1.buffer[i] = t1[i];
 224              		.loc 1 17 5 is_stmt 1 view .LVU69
 225              	.LVL15:
  17:DSP/Mixer.cpp ****         track1.buffer[i] = t1[i];
 226              		.loc 1 17 23 view .LVU70
 227              	.LBE50:
  19:DSP/Mixer.cpp ****     
  20:DSP/Mixer.cpp ****     //track2.track.init(t2);
  21:DSP/Mixer.cpp ****     //track3.track.init(t3);
  22:DSP/Mixer.cpp ****     //track4.track.init(t4);
  23:DSP/Mixer.cpp **** }
 228              		.loc 1 23 1 is_stmt 0 view .LVU71
 229 0084 03B0     		add	sp, sp, #12
 230              		.cfi_remember_state
 231              		.cfi_def_cfa_offset 20
 232              		@ sp needed
 233 0086 F0BD     		pop	{r4, r5, r6, r7, pc}
 234              	.LVL16:
 235              	.L2:
 236              		.cfi_restore_state
 237              		.loc 1 23 1 view .LVU72
 238 0088 094B     		ldr	r3, .L8+12
 239 008a 0246     		mov	r2, r0
 240 008c A646     		mov	lr, r4
ARM GAS  /var/folders/wz/z09yph4n0qj4t7mjxhl6ttn80000gn/T//cc2eJoGY.s 			page 12


 241 008e 0344     		add	r3, r3, r0
 242              	.LVL17:
 243              	.L4:
 244              	.LBB51:
  11:DSP/Mixer.cpp ****         mix[R][j] = 0.0f;
 245              		.loc 1 11 9 is_stmt 1 view .LVU73
  11:DSP/Mixer.cpp ****         mix[R][j] = 0.0f;
 246              		.loc 1 11 19 is_stmt 0 view .LVU74
 247 0090 4FF0000C 		mov	ip, #0
 248 0094 42F804CB 		str	ip, [r2], #4	@ float
  12:DSP/Mixer.cpp ****     }
 249              		.loc 1 12 9 is_stmt 1 view .LVU75
   9:DSP/Mixer.cpp ****     {
 250              		.loc 1 9 26 is_stmt 0 view .LVU76
 251 0098 9A42     		cmp	r2, r3
  12:DSP/Mixer.cpp ****     }
 252              		.loc 1 12 19 view .LVU77
 253 009a 4EF804CB 		str	ip, [lr], #4	@ float
   9:DSP/Mixer.cpp ****     {
 254              		.loc 1 9 5 is_stmt 1 view .LVU78
   9:DSP/Mixer.cpp ****     {
 255              		.loc 1 9 26 view .LVU79
 256 009e F7D1     		bne	.L4
 257 00a0 CBE7     		b	.L3
 258              	.L9:
 259 00a2 00BF     		.align	2
 260              	.L8:
 261 00a4 00530700 		.word	480000
 262 00a8 FF4B1D00 		.word	1919999
 263 00ac FE973A00 		.word	3839998
 264 00b0 004C1D00 		.word	1920000
 265              	.LBE51:
 266              		.cfi_endproc
 267              	.LFE5126:
 269              		.section	.rodata._ZN5Mixer4tickEv.str1.4,"aMS",%progbits,1
 270              		.align	2
 271              	.LC0:
 272 0000 43757272 		.ascii	"Current value = %f\000"
 272      656E7420 
 272      76616C75 
 272      65203D20 
 272      256600
 273              		.section	.text._ZN5Mixer4tickEv,"ax",%progbits
 274              		.align	1
 275              		.p2align 2,,3
 276              		.global	_ZN5Mixer4tickEv
 277              		.syntax unified
 278              		.thumb
 279              		.thumb_func
 281              	_ZN5Mixer4tickEv:
 282              	.LVL18:
 283              	.LFB5127:
  24:DSP/Mixer.cpp **** 
  25:DSP/Mixer.cpp **** void Mixer::tick()
  26:DSP/Mixer.cpp **** {
 284              		.loc 1 26 1 view -0
 285              		.cfi_startproc
ARM GAS  /var/folders/wz/z09yph4n0qj4t7mjxhl6ttn80000gn/T//cc2eJoGY.s 			page 13


 286              		@ args = 0, pretend = 0, frame = 0
 287              		@ frame_needed = 0, uses_anonymous_args = 0
  27:DSP/Mixer.cpp ****     track1.track.tick();
 288              		.loc 1 27 5 view .LVU81
  26:DSP/Mixer.cpp ****     track1.track.tick();
 289              		.loc 1 26 1 is_stmt 0 view .LVU82
 290 0000 10B5     		push	{r4, lr}
 291              		.cfi_def_cfa_offset 8
 292              		.cfi_offset 4, -8
 293              		.cfi_offset 14, -4
  26:DSP/Mixer.cpp ****     track1.track.tick();
 294              		.loc 1 26 1 view .LVU83
 295 0002 0446     		mov	r4, r0
 296              		.loc 1 27 22 view .LVU84
 297 0004 FFF7FEFF 		bl	_ZN5Track4tickEv
 298              	.LVL19:
  28:DSP/Mixer.cpp ****     track1.gain.tick();
 299              		.loc 1 28 5 is_stmt 1 view .LVU85
 300              	.LBB60:
 301              	.LBI60:
  36:DSP/FX/../../Parameters/AudioParameter.h ****     }
  37:DSP/FX/../../Parameters/AudioParameter.h ****     
  38:DSP/FX/../../Parameters/AudioParameter.h ****     void tick()
 302              		.loc 3 38 10 view .LVU86
 303              	.LBB61:
  39:DSP/FX/../../Parameters/AudioParameter.h ****     {
  40:DSP/FX/../../Parameters/AudioParameter.h ****         if(!isSelected)
 304              		.loc 3 40 9 is_stmt 0 view .LVU87
 305 0008 94F88A30 		ldrb	r3, [r4, #138]	@ zero_extendqisi2
 306 000c 03B9     		cbnz	r3, .L20
 307              	.L10:
 308              	.LBE61:
 309              	.LBE60:
  29:DSP/Mixer.cpp **** }
 310              		.loc 1 29 1 view .LVU88
 311 000e 10BD     		pop	{r4, pc}
 312              	.LVL20:
 313              	.L20:
 314              	.LBB78:
 315              	.LBB76:
 316              	.LBB62:
 317              	.LBI62:
  38:DSP/FX/../../Parameters/AudioParameter.h ****     {
 318              		.loc 3 38 10 is_stmt 1 view .LVU89
 319              	.LBB63:
  41:DSP/FX/../../Parameters/AudioParameter.h ****             return;
  42:DSP/FX/../../Parameters/AudioParameter.h **** 
  43:DSP/FX/../../Parameters/AudioParameter.h ****         float newInput = hw->adc.GetFloat(channelID);
 320              		.loc 3 43 42 is_stmt 0 view .LVU90
 321 0010 206F     		ldr	r0, [r4, #112]
 322 0012 94F88810 		ldrb	r1, [r4, #136]	@ zero_extendqisi2
 323 0016 1830     		adds	r0, r0, #24
 324 0018 FFF7FEFF 		bl	_ZNK5daisy9AdcHandle8GetFloatEh
 325              	.LVL21:
  44:DSP/FX/../../Parameters/AudioParameter.h **** 
  45:DSP/FX/../../Parameters/AudioParameter.h ****         if(newInput > (input + jitter) || newInput < (input - jitter))
 326              		.loc 3 45 24 view .LVU91
ARM GAS  /var/folders/wz/z09yph4n0qj4t7mjxhl6ttn80000gn/T//cc2eJoGY.s 			page 14


 327 001c D4ED1D7A 		vldr.32	s15, [r4, #116]
 328              		.loc 3 45 32 view .LVU92
 329 0020 94ED1E7A 		vldr.32	s14, [r4, #120]
 330              	.LVL22:
 331              		.loc 3 45 30 view .LVU93
 332 0024 77EE876A 		vadd.f32	s13, s15, s14
 333              		.loc 3 45 9 view .LVU94
 334 0028 B4EEE60A 		vcmpe.f32	s0, s13
 335 002c F1EE10FA 		vmrs	APSR_nzcv, FPSCR
 336 0030 06DC     		bgt	.L13
 337              		.loc 3 45 61 view .LVU95
 338 0032 77EEC77A 		vsub.f32	s15, s15, s14
 339              		.loc 3 45 40 view .LVU96
 340 0036 B4EEE70A 		vcmpe.f32	s0, s15
 341 003a F1EE10FA 		vmrs	APSR_nzcv, FPSCR
 342 003e E6D5     		bpl	.L10
 343              	.L13:
 344              	.LBB64:
 345              	.LBB65:
  46:DSP/FX/../../Parameters/AudioParameter.h ****         {
  47:DSP/FX/../../Parameters/AudioParameter.h ****             input = newInput;;
  48:DSP/FX/../../Parameters/AudioParameter.h ****             process();
  49:DSP/FX/../../Parameters/AudioParameter.h ****         }
  50:DSP/FX/../../Parameters/AudioParameter.h ****         
  51:DSP/FX/../../Parameters/AudioParameter.h ****     }
  52:DSP/FX/../../Parameters/AudioParameter.h **** 
  53:DSP/FX/../../Parameters/AudioParameter.h ****     void process()
  54:DSP/FX/../../Parameters/AudioParameter.h ****     {
  55:DSP/FX/../../Parameters/AudioParameter.h ****         switch(curve)
 346              		.loc 3 55 16 view .LVU97
 347 0040 94F88930 		ldrb	r3, [r4, #137]	@ zero_extendqisi2
 348              	.LBE65:
 349              	.LBE64:
  47:DSP/FX/../../Parameters/AudioParameter.h ****             process();
 350              		.loc 3 47 19 view .LVU98
 351 0044 84ED1D0A 		vstr.32	s0, [r4, #116]
 352              	.LVL23:
 353              	.LBB72:
 354              	.LBI64:
  53:DSP/FX/../../Parameters/AudioParameter.h ****     {
 355              		.loc 3 53 10 is_stmt 1 view .LVU99
 356              	.LBB70:
 357              		.loc 3 55 9 is_stmt 0 view .LVU100
 358 0048 CBB1     		cbz	r3, .L16
 359              		.loc 3 55 9 view .LVU101
 360 004a 012B     		cmp	r3, #1
 361 004c 14D1     		bne	.L21
  56:DSP/FX/../../Parameters/AudioParameter.h ****         {
  57:DSP/FX/../../Parameters/AudioParameter.h ****             case LINEAR:
  58:DSP/FX/../../Parameters/AudioParameter.h ****                 curVal = ((input / 1.0f) * (max - min)) + min;
  59:DSP/FX/../../Parameters/AudioParameter.h ****             break;
  60:DSP/FX/../../Parameters/AudioParameter.h ****             case EXP:
  61:DSP/FX/../../Parameters/AudioParameter.h ****                 curVal = ((input * input) * (max - min)) + min;
 362              		.loc 3 61 52 view .LVU102
 363 004e D4ED207A 		vldr.32	s15, [r4, #128]
 364              		.loc 3 61 34 view .LVU103
 365 0052 20EE000A 		vmul.f32	s0, s0, s0
ARM GAS  /var/folders/wz/z09yph4n0qj4t7mjxhl6ttn80000gn/T//cc2eJoGY.s 			page 15


 366              	.LVL24:
 367              		.loc 3 61 50 view .LVU104
 368 0056 94ED217A 		vldr.32	s14, [r4, #132]
 369 005a 37EE677A 		vsub.f32	s14, s14, s15
 370              		.loc 3 61 58 view .LVU105
 371 005e E0EE077A 		vfma.f32	s15, s0, s14
 372              		.loc 3 61 24 view .LVU106
 373 0062 C4ED1F7A 		vstr.32	s15, [r4, #124]
 374              	.L18:
 375              	.LVL25:
 376              	.LBB66:
 377              	.LBI66:
 378              		.file 4 "../../../libDaisy//src/daisy_seed.h"
   1:../../../libDaisy//src/daisy_seed.h **** #pragma once
   2:../../../libDaisy//src/daisy_seed.h **** #ifndef DSY_SEED_H
   3:../../../libDaisy//src/daisy_seed.h **** #define DSY_SEED_H
   4:../../../libDaisy//src/daisy_seed.h **** 
   5:../../../libDaisy//src/daisy_seed.h **** #include "daisy.h"
   6:../../../libDaisy//src/daisy_seed.h **** 
   7:../../../libDaisy//src/daisy_seed.h **** //Uncomment this out if you're still using the rev2 hardware
   8:../../../libDaisy//src/daisy_seed.h **** //#define SEED_REV2
   9:../../../libDaisy//src/daisy_seed.h **** 
  10:../../../libDaisy//src/daisy_seed.h **** namespace daisy
  11:../../../libDaisy//src/daisy_seed.h **** {
  12:../../../libDaisy//src/daisy_seed.h **** /**
  13:../../../libDaisy//src/daisy_seed.h ****    @brief This is the higher-level interface for the Daisy board. \n 
  14:../../../libDaisy//src/daisy_seed.h ****     All basic peripheral configuration/initialization is setup here. \n
  15:../../../libDaisy//src/daisy_seed.h **** 
  16:../../../libDaisy//src/daisy_seed.h ****    @ingroup boards
  17:../../../libDaisy//src/daisy_seed.h **** */
  18:../../../libDaisy//src/daisy_seed.h **** class DaisySeed
  19:../../../libDaisy//src/daisy_seed.h **** {
  20:../../../libDaisy//src/daisy_seed.h ****   public:
  21:../../../libDaisy//src/daisy_seed.h ****     DaisySeed() {}
  22:../../../libDaisy//src/daisy_seed.h ****     ~DaisySeed() {}
  23:../../../libDaisy//src/daisy_seed.h **** 
  24:../../../libDaisy//src/daisy_seed.h ****     /** This function used to provide a pre-initialization configuraiton 
  25:../../../libDaisy//src/daisy_seed.h ****      *  it has since been deprecated, and does nothing.
  26:../../../libDaisy//src/daisy_seed.h ****      */
  27:../../../libDaisy//src/daisy_seed.h ****     void Configure();
  28:../../../libDaisy//src/daisy_seed.h **** 
  29:../../../libDaisy//src/daisy_seed.h ****     /** 
  30:../../../libDaisy//src/daisy_seed.h ****     Initializes the Daisy Seed and the following peripherals:
  31:../../../libDaisy//src/daisy_seed.h ****     SDRAM, QSPI, 24-bit 48kHz Audio via AK4556, Internal USB,
  32:../../../libDaisy//src/daisy_seed.h ****     as well as the built-in LED and Testpoint.
  33:../../../libDaisy//src/daisy_seed.h **** 
  34:../../../libDaisy//src/daisy_seed.h ****     ADCs, DACs, and other special peripherals (such as I2C, SPI, etc.)
  35:../../../libDaisy//src/daisy_seed.h ****     can be initialized using their specific initializers within libdaisy
  36:../../../libDaisy//src/daisy_seed.h ****     for a specific application.
  37:../../../libDaisy//src/daisy_seed.h ****     */
  38:../../../libDaisy//src/daisy_seed.h ****     void Init(bool boost = false);
  39:../../../libDaisy//src/daisy_seed.h **** 
  40:../../../libDaisy//src/daisy_seed.h ****     /** 
  41:../../../libDaisy//src/daisy_seed.h ****     Deinitializes all peripherals automatically handled by `Init`.
  42:../../../libDaisy//src/daisy_seed.h ****     */
  43:../../../libDaisy//src/daisy_seed.h ****     void DeInit();
  44:../../../libDaisy//src/daisy_seed.h **** 
ARM GAS  /var/folders/wz/z09yph4n0qj4t7mjxhl6ttn80000gn/T//cc2eJoGY.s 			page 16


  45:../../../libDaisy//src/daisy_seed.h ****     /** 
  46:../../../libDaisy//src/daisy_seed.h ****     Wait some ms before going on.
  47:../../../libDaisy//src/daisy_seed.h ****     \param del Delay time in ms.
  48:../../../libDaisy//src/daisy_seed.h ****     */
  49:../../../libDaisy//src/daisy_seed.h ****     void DelayMs(size_t del);
  50:../../../libDaisy//src/daisy_seed.h **** 
  51:../../../libDaisy//src/daisy_seed.h ****     /** 
  52:../../../libDaisy//src/daisy_seed.h ****     Returns the gpio_pin corresponding to the index 0-31.
  53:../../../libDaisy//src/daisy_seed.h ****     For the given GPIO on the Daisy Seed (labeled 1-32 in docs).
  54:../../../libDaisy//src/daisy_seed.h ****     */
  55:../../../libDaisy//src/daisy_seed.h ****     static dsy_gpio_pin GetPin(uint8_t pin_idx);
  56:../../../libDaisy//src/daisy_seed.h **** 
  57:../../../libDaisy//src/daisy_seed.h ****     /** Begins the audio for the seeds builtin audio.
  58:../../../libDaisy//src/daisy_seed.h ****     the specified callback will get called whenever
  59:../../../libDaisy//src/daisy_seed.h ****     new data is ready to be prepared.
  60:../../../libDaisy//src/daisy_seed.h ****     */
  61:../../../libDaisy//src/daisy_seed.h ****     void StartAudio(AudioHandle::InterleavingAudioCallback cb);
  62:../../../libDaisy//src/daisy_seed.h **** 
  63:../../../libDaisy//src/daisy_seed.h ****     /** Begins the audio for the seeds builtin audio.
  64:../../../libDaisy//src/daisy_seed.h ****     the specified callback will get called whenever
  65:../../../libDaisy//src/daisy_seed.h ****     new data is ready to be prepared.
  66:../../../libDaisy//src/daisy_seed.h ****     This will use the newer non-interleaved callback.
  67:../../../libDaisy//src/daisy_seed.h ****     */
  68:../../../libDaisy//src/daisy_seed.h ****     void StartAudio(AudioHandle::AudioCallback cb);
  69:../../../libDaisy//src/daisy_seed.h **** 
  70:../../../libDaisy//src/daisy_seed.h ****     /** Changes to a new interleaved callback
  71:../../../libDaisy//src/daisy_seed.h ****      */
  72:../../../libDaisy//src/daisy_seed.h ****     void ChangeAudioCallback(AudioHandle::InterleavingAudioCallback cb);
  73:../../../libDaisy//src/daisy_seed.h **** 
  74:../../../libDaisy//src/daisy_seed.h ****     /** Changes to a new multichannel callback
  75:../../../libDaisy//src/daisy_seed.h ****      */
  76:../../../libDaisy//src/daisy_seed.h ****     void ChangeAudioCallback(AudioHandle::AudioCallback cb);
  77:../../../libDaisy//src/daisy_seed.h **** 
  78:../../../libDaisy//src/daisy_seed.h ****     /** Stops the audio if it is running. */
  79:../../../libDaisy//src/daisy_seed.h ****     void StopAudio();
  80:../../../libDaisy//src/daisy_seed.h **** 
  81:../../../libDaisy//src/daisy_seed.h ****     /** Updates the Audio Sample Rate, and reinitializes.
  82:../../../libDaisy//src/daisy_seed.h ****      ** Audio must be stopped for this to work.
  83:../../../libDaisy//src/daisy_seed.h ****      */
  84:../../../libDaisy//src/daisy_seed.h ****     void SetAudioSampleRate(SaiHandle::Config::SampleRate samplerate);
  85:../../../libDaisy//src/daisy_seed.h **** 
  86:../../../libDaisy//src/daisy_seed.h ****     /** Returns the audio sample rate in Hz as a floating point number.
  87:../../../libDaisy//src/daisy_seed.h ****      */
  88:../../../libDaisy//src/daisy_seed.h ****     float AudioSampleRate();
  89:../../../libDaisy//src/daisy_seed.h **** 
  90:../../../libDaisy//src/daisy_seed.h ****     /** Sets the number of samples processed per channel by the audio callback.
  91:../../../libDaisy//src/daisy_seed.h ****      */
  92:../../../libDaisy//src/daisy_seed.h ****     void SetAudioBlockSize(size_t blocksize);
  93:../../../libDaisy//src/daisy_seed.h **** 
  94:../../../libDaisy//src/daisy_seed.h ****     /** Returns the number of samples per channel in a block of audio. */
  95:../../../libDaisy//src/daisy_seed.h ****     size_t AudioBlockSize();
  96:../../../libDaisy//src/daisy_seed.h **** 
  97:../../../libDaisy//src/daisy_seed.h ****     /** Returns the rate in Hz that the Audio callback is called */
  98:../../../libDaisy//src/daisy_seed.h ****     float AudioCallbackRate() const;
  99:../../../libDaisy//src/daisy_seed.h **** 
 100:../../../libDaisy//src/daisy_seed.h ****     /** Sets the state of the built in LED
 101:../../../libDaisy//src/daisy_seed.h ****      */
ARM GAS  /var/folders/wz/z09yph4n0qj4t7mjxhl6ttn80000gn/T//cc2eJoGY.s 			page 17


 102:../../../libDaisy//src/daisy_seed.h ****     void SetLed(bool state);
 103:../../../libDaisy//src/daisy_seed.h **** 
 104:../../../libDaisy//src/daisy_seed.h ****     /** Sets the state of the test point near pin 10
 105:../../../libDaisy//src/daisy_seed.h ****      */
 106:../../../libDaisy//src/daisy_seed.h ****     void SetTestPoint(bool state);
 107:../../../libDaisy//src/daisy_seed.h **** 
 108:../../../libDaisy//src/daisy_seed.h ****     /** Print formatted debug log message
 109:../../../libDaisy//src/daisy_seed.h ****      */
 110:../../../libDaisy//src/daisy_seed.h ****     template <typename... VA>
 111:../../../libDaisy//src/daisy_seed.h ****     static void Print(const char* format, VA... va)
 112:../../../libDaisy//src/daisy_seed.h ****     {
 113:../../../libDaisy//src/daisy_seed.h ****         Log::Print(format, va...);
 114:../../../libDaisy//src/daisy_seed.h ****     }
 115:../../../libDaisy//src/daisy_seed.h **** 
 116:../../../libDaisy//src/daisy_seed.h ****     /** Print formatted debug log message with automatic line termination
 117:../../../libDaisy//src/daisy_seed.h ****     */
 118:../../../libDaisy//src/daisy_seed.h ****     template <typename... VA>
 119:../../../libDaisy//src/daisy_seed.h ****     static void PrintLine(const char* format, VA... va)
 379              		.loc 4 119 17 is_stmt 1 view .LVU107
 380              	.LBB67:
 120:../../../libDaisy//src/daisy_seed.h ****     {
 121:../../../libDaisy//src/daisy_seed.h ****         Log::PrintLine(format, va...);
 381              		.loc 4 121 23 is_stmt 0 view .LVU108
 382 0066 B7EEE77A 		vcvt.f64.f32	d7, s15
 383 006a 0A48     		ldr	r0, .L22
 384              	.LBE67:
 385              	.LBE66:
 386              	.LBE70:
 387              	.LBE72:
 388              	.LBE63:
 389              	.LBE62:
 390              	.LBE76:
 391              	.LBE78:
 392              		.loc 1 29 1 view .LVU109
 393 006c BDE81040 		pop	{r4, lr}
 394              		.cfi_remember_state
 395              		.cfi_restore 14
 396              		.cfi_restore 4
 397              		.cfi_def_cfa_offset 0
 398              	.LVL26:
 399              	.LBB79:
 400              	.LBB77:
 401              	.LBB75:
 402              	.LBB74:
 403              	.LBB73:
 404              	.LBB71:
 405              	.LBB69:
 406              	.LBB68:
 407              		.loc 4 121 23 view .LVU110
 408 0070 53EC172B 		vmov	r2, r3, d7
 409 0074 FFF7FEBF 		b	_ZN5daisy6LoggerILNS_17LoggerDestinationE1EE9PrintLineEPKcz
 410              	.LVL27:
 411              	.L21:
 412              		.cfi_restore_state
 413              		.loc 4 121 23 view .LVU111
 414              	.LBE68:
 415              	.LBE69:
ARM GAS  /var/folders/wz/z09yph4n0qj4t7mjxhl6ttn80000gn/T//cc2eJoGY.s 			page 18


  62:DSP/FX/../../Parameters/AudioParameter.h ****             break;
  63:DSP/FX/../../Parameters/AudioParameter.h ****         }
  64:DSP/FX/../../Parameters/AudioParameter.h **** 
  65:DSP/FX/../../Parameters/AudioParameter.h ****         hw->PrintLine("Current value = %f", curVal);
 416              		.loc 3 65 22 view .LVU112
 417 0078 D4ED1F7A 		vldr.32	s15, [r4, #124]
 418 007c F3E7     		b	.L18
 419              	.L16:
  58:DSP/FX/../../Parameters/AudioParameter.h ****             break;
 420              		.loc 3 58 51 view .LVU113
 421 007e D4ED207A 		vldr.32	s15, [r4, #128]
  58:DSP/FX/../../Parameters/AudioParameter.h ****             break;
 422              		.loc 3 58 49 view .LVU114
 423 0082 94ED217A 		vldr.32	s14, [r4, #132]
 424 0086 37EE677A 		vsub.f32	s14, s14, s15
  58:DSP/FX/../../Parameters/AudioParameter.h ****             break;
 425              		.loc 3 58 57 view .LVU115
 426 008a E0EE077A 		vfma.f32	s15, s0, s14
  58:DSP/FX/../../Parameters/AudioParameter.h ****             break;
 427              		.loc 3 58 24 view .LVU116
 428 008e C4ED1F7A 		vstr.32	s15, [r4, #124]
  59:DSP/FX/../../Parameters/AudioParameter.h ****             case EXP:
 429              		.loc 3 59 13 view .LVU117
 430 0092 E8E7     		b	.L18
 431              	.L23:
 432              		.align	2
 433              	.L22:
 434 0094 00000000 		.word	.LC0
 435              	.LBE71:
 436              	.LBE73:
 437              	.LBE74:
 438              	.LBE75:
 439              	.LBE77:
 440              	.LBE79:
 441              		.cfi_endproc
 442              	.LFE5127:
 444              		.section	.text._ZN5Mixer7prepareEv,"ax",%progbits
 445              		.align	1
 446              		.p2align 2,,3
 447              		.global	_ZN5Mixer7prepareEv
 448              		.syntax unified
 449              		.thumb
 450              		.thumb_func
 452              	_ZN5Mixer7prepareEv:
 453              	.LVL28:
 454              	.LFB5128:
  30:DSP/Mixer.cpp **** 
  31:DSP/Mixer.cpp **** void Mixer::prepare()
  32:DSP/Mixer.cpp **** {
 455              		.loc 1 32 1 is_stmt 1 view -0
 456              		.cfi_startproc
 457              		@ args = 0, pretend = 0, frame = 0
 458              		@ frame_needed = 0, uses_anonymous_args = 0
 459              		@ link register save eliminated.
  33:DSP/Mixer.cpp **** 
  34:DSP/Mixer.cpp **** }
 460              		.loc 1 34 1 is_stmt 0 view .LVU119
ARM GAS  /var/folders/wz/z09yph4n0qj4t7mjxhl6ttn80000gn/T//cc2eJoGY.s 			page 19


 461 0000 7047     		bx	lr
 462              		.cfi_endproc
 463              	.LFE5128:
 465 0002 00BF     		.section	.text._ZN5Mixer17processInputBlockEPKfS1_j,"ax",%progbits
 466              		.align	1
 467              		.p2align 2,,3
 468              		.global	_ZN5Mixer17processInputBlockEPKfS1_j
 469              		.syntax unified
 470              		.thumb
 471              		.thumb_func
 473              	_ZN5Mixer17processInputBlockEPKfS1_j:
 474              	.LVL29:
 475              	.LFB5129:
  35:DSP/Mixer.cpp **** 
  36:DSP/Mixer.cpp **** void Mixer::processInputBlock(const float* left, const float* right, size_t size)
  37:DSP/Mixer.cpp **** {
 476              		.loc 1 37 1 is_stmt 1 view -0
 477              		.cfi_startproc
 478              		@ args = 0, pretend = 0, frame = 0
 479              		@ frame_needed = 0, uses_anonymous_args = 0
 480              		@ link register save eliminated.
  38:DSP/Mixer.cpp ****     track1.track.processInputBlock(left, right, size);
 481              		.loc 1 38 5 view .LVU121
 482              		.loc 1 38 35 is_stmt 0 view .LVU122
 483 0000 FFF7FEBF 		b	_ZN5Track17processInputBlockEPKfS1_j
 484              	.LVL30:
 485              		.loc 1 38 35 view .LVU123
 486              		.cfi_endproc
 487              	.LFE5129:
 489              		.section	.text._ZN5Mixer18processOutputBlockEPfS0_j,"ax",%progbits
 490              		.align	1
 491              		.p2align 2,,3
 492              		.global	_ZN5Mixer18processOutputBlockEPfS0_j
 493              		.syntax unified
 494              		.thumb
 495              		.thumb_func
 497              	_ZN5Mixer18processOutputBlockEPfS0_j:
 498              	.LVL31:
 499              	.LFB5130:
  39:DSP/Mixer.cpp **** }
  40:DSP/Mixer.cpp **** 
  41:DSP/Mixer.cpp **** void Mixer::processOutputBlock(float* left, float* right, size_t size)
  42:DSP/Mixer.cpp **** {
 500              		.loc 1 42 1 is_stmt 1 view -0
 501              		.cfi_startproc
 502              		@ args = 0, pretend = 0, frame = 0
 503              		@ frame_needed = 0, uses_anonymous_args = 0
  43:DSP/Mixer.cpp ****     for(size_t i = 0 ; i < size ; i++)
 504              		.loc 1 43 5 view .LVU125
 505              	.LBB80:
 506              		.loc 1 43 26 view .LVU126
 507 0000 8BB3     		cbz	r3, .L33
 508              	.LBE80:
  42:DSP/Mixer.cpp ****     for(size_t i = 0 ; i < size ; i++)
 509              		.loc 1 42 1 is_stmt 0 view .LVU127
 510 0002 2DE9F047 		push	{r4, r5, r6, r7, r8, r9, r10, lr}
 511              		.cfi_def_cfa_offset 32
ARM GAS  /var/folders/wz/z09yph4n0qj4t7mjxhl6ttn80000gn/T//cc2eJoGY.s 			page 20


 512              		.cfi_offset 4, -32
 513              		.cfi_offset 5, -28
 514              		.cfi_offset 6, -24
 515              		.cfi_offset 7, -20
 516              		.cfi_offset 8, -16
 517              		.cfi_offset 9, -12
 518              		.cfi_offset 10, -8
 519              		.cfi_offset 14, -4
 520 0006 9146     		mov	r9, r2
 521 0008 0446     		mov	r4, r0
 522 000a 9846     		mov	r8, r3
 523              	.LBB97:
 524              	.LBB81:
 525              	.LBB82:
 526              	.LBB83:
  44:DSP/Mixer.cpp ****     {
  45:DSP/Mixer.cpp ****         if(track1.track.getIsRecording() || track1.track.getIsPlaying())
  46:DSP/Mixer.cpp ****         {
  47:DSP/Mixer.cpp ****             size_t readPos = track1.track.getReadPos();
  48:DSP/Mixer.cpp ****             mix[L][i] = track1.buffer[L][readPos];
 527              		.loc 1 48 18 view .LVU128
 528 000c D0F83072 		ldr	r7, [r0, #560]
 529 0010 8A46     		mov	r10, r1
  49:DSP/Mixer.cpp ****             mix[R][i] = track1.buffer[R][readPos];
 530              		.loc 1 49 18 view .LVU129
 531 0012 D0F83422 		ldr	r2, [r0, #564]
 532              	.LVL32:
 533              		.loc 1 49 18 view .LVU130
 534              	.LBE83:
 535              	.LBE82:
 536              	.LBE81:
  43:DSP/Mixer.cpp ****     {
 537              		.loc 1 43 16 view .LVU131
 538 0016 0025     		movs	r5, #0
 539              	.LVL33:
 540              	.L31:
 541              	.LBB94:
  45:DSP/Mixer.cpp ****         {
 542              		.loc 1 45 9 is_stmt 1 view .LVU132
 543              	.LBB93:
 544              	.LBB86:
 545              	.LBI86:
 546              		.file 5 "DSP/Track.h"
   1:DSP/Track.h   **** #ifndef TRACK_H
   2:DSP/Track.h   **** #define TRACK_H
   3:DSP/Track.h   **** 
   4:DSP/Track.h   **** #include "FX/Delay.h"
   5:DSP/Track.h   **** #include "../Parameters/BinaryParameter.h"
   6:DSP/Track.h   **** #include <utility>
   7:DSP/Track.h   **** 
   8:DSP/Track.h   **** /**********************************************************//**
   9:DSP/Track.h   ****  *  Class name: Track
  10:DSP/Track.h   ****  *  Function: Processes audio buffer and FX for each track
  11:DSP/Track.h   ****  *************************************************************/
  12:DSP/Track.h   **** 
  13:DSP/Track.h   **** class Track
  14:DSP/Track.h   **** {
ARM GAS  /var/folders/wz/z09yph4n0qj4t7mjxhl6ttn80000gn/T//cc2eJoGY.s 			page 21


  15:DSP/Track.h   **** public:
  16:DSP/Track.h   **** 
  17:DSP/Track.h   ****     void init(float* mem[2], dsy_gpio_pin r, dsy_gpio_pin p);
  18:DSP/Track.h   ****     void tick();
  19:DSP/Track.h   **** 
  20:DSP/Track.h   ****     void setIsRecording();
  21:DSP/Track.h   ****     void setIsPlaying();
  22:DSP/Track.h   **** 
  23:DSP/Track.h   ****     bool getIsRecording() { return ph.isRecording; }
 547              		.loc 5 23 10 view .LVU133
 548              	.LBB87:
 549              		.loc 5 23 29 view .LVU134
 550              		.loc 5 23 29 is_stmt 0 view .LVU135
 551              	.LBE87:
 552              	.LBE86:
 553              	.LBB88:
 554              	.LBI88:
  24:DSP/Track.h   ****     bool getIsPlaying() { return ph.isPlaying; }
 555              		.loc 5 24 10 is_stmt 1 view .LVU136
 556              	.LBB89:
 557              		.loc 5 24 27 view .LVU137
 558              		.loc 5 24 27 is_stmt 0 view .LVU138
 559              	.LBE89:
 560              	.LBE88:
 561              	.LBB90:
  47:DSP/Mixer.cpp ****             mix[L][i] = track1.buffer[L][readPos];
 562              		.loc 1 47 13 is_stmt 1 view .LVU139
 563              	.LBB84:
 564              	.LBI84:
  25:DSP/Track.h   **** 
  26:DSP/Track.h   ****     void incrementWritePos();
  27:DSP/Track.h   ****     void incrementReadPos();
  28:DSP/Track.h   ****     size_t getReadPos() { return ph.readPos; }
 565              		.loc 5 28 12 view .LVU140
 566              	.LBB85:
 567              		.loc 5 28 27 view .LVU141
 568              		.loc 5 28 27 is_stmt 0 view .LVU142
 569              	.LBE85:
 570              	.LBE84:
  48:DSP/Mixer.cpp ****             mix[R][i] = track1.buffer[R][readPos];
 571              		.loc 1 48 13 is_stmt 1 view .LVU143
 572              	.LBE90:
  45:DSP/Mixer.cpp ****         {
 573              		.loc 1 45 42 is_stmt 0 view .LVU144
 574 0018 2378     		ldrb	r3, [r4]	@ zero_extendqisi2
 575              	.LBB91:
  48:DSP/Mixer.cpp ****             mix[R][i] = track1.buffer[R][readPos];
 576              		.loc 1 48 23 view .LVU145
 577 001a 07EB850C 		add	ip, r7, r5, lsl #2
 578              		.loc 1 49 23 view .LVU146
 579 001e 02EB8501 		add	r1, r2, r5, lsl #2
  50:DSP/Mixer.cpp ****             track1.track.incrementReadPos();
 580              		.loc 1 50 42 view .LVU147
 581 0022 2046     		mov	r0, r4
 582 0024 AE00     		lsls	r6, r5, #2
 583              	.LBE91:
  45:DSP/Mixer.cpp ****         {
ARM GAS  /var/folders/wz/z09yph4n0qj4t7mjxhl6ttn80000gn/T//cc2eJoGY.s 			page 22


 584              		.loc 1 45 42 view .LVU148
 585 0026 0BB9     		cbnz	r3, .L28
 586              	.LVL34:
  45:DSP/Mixer.cpp ****         {
 587              		.loc 1 45 42 discriminator 2 view .LVU149
 588 0028 6378     		ldrb	r3, [r4, #1]	@ zero_extendqisi2
 589 002a 7BB1     		cbz	r3, .L29
 590              	.L28:
 591              	.LBB92:
  48:DSP/Mixer.cpp ****             mix[R][i] = track1.buffer[R][readPos];
 592              		.loc 1 48 49 discriminator 3 view .LVU150
 593 002c A768     		ldr	r7, [r4, #8]
  49:DSP/Mixer.cpp ****             track1.track.incrementReadPos();
 594              		.loc 1 49 49 discriminator 3 view .LVU151
 595 002e D4E91A32 		ldrd	r3, r2, [r4, #104]
  48:DSP/Mixer.cpp ****             mix[R][i] = track1.buffer[R][readPos];
 596              		.loc 1 48 49 discriminator 3 view .LVU152
 597 0032 03EB8703 		add	r3, r3, r7, lsl #2
  49:DSP/Mixer.cpp ****             track1.track.incrementReadPos();
 598              		.loc 1 49 49 discriminator 3 view .LVU153
 599 0036 02EB8702 		add	r2, r2, r7, lsl #2
  48:DSP/Mixer.cpp ****             mix[R][i] = track1.buffer[R][readPos];
 600              		.loc 1 48 49 discriminator 3 view .LVU154
 601 003a 1B68     		ldr	r3, [r3]	@ float
  48:DSP/Mixer.cpp ****             mix[R][i] = track1.buffer[R][readPos];
 602              		.loc 1 48 23 discriminator 3 view .LVU155
 603 003c CCF80030 		str	r3, [ip]	@ float
  49:DSP/Mixer.cpp ****             track1.track.incrementReadPos();
 604              		.loc 1 49 13 is_stmt 1 discriminator 3 view .LVU156
  49:DSP/Mixer.cpp ****             track1.track.incrementReadPos();
 605              		.loc 1 49 49 is_stmt 0 discriminator 3 view .LVU157
 606 0040 1368     		ldr	r3, [r2]	@ float
  49:DSP/Mixer.cpp ****             track1.track.incrementReadPos();
 607              		.loc 1 49 23 discriminator 3 view .LVU158
 608 0042 0B60     		str	r3, [r1]	@ float
 609              		.loc 1 50 13 is_stmt 1 discriminator 3 view .LVU159
 610              		.loc 1 50 42 is_stmt 0 discriminator 3 view .LVU160
 611 0044 FFF7FEFF 		bl	_ZN5Track16incrementReadPosEv
 612              	.LVL35:
 613              		.loc 1 50 42 discriminator 3 view .LVU161
 614              	.LBE92:
 615              	.LBE93:
  51:DSP/Mixer.cpp ****         }
  52:DSP/Mixer.cpp **** 
  53:DSP/Mixer.cpp ****         left[i] = mix[L][i];
  54:DSP/Mixer.cpp ****         right[i] = mix[R][i];
 616              		.loc 1 54 25 discriminator 3 view .LVU162
 617 0048 D4E98C72 		ldrd	r7, r2, [r4, #560]
 618              	.L29:
  53:DSP/Mixer.cpp ****         right[i] = mix[R][i];
 619              		.loc 1 53 9 is_stmt 1 discriminator 2 view .LVU163
  53:DSP/Mixer.cpp ****         right[i] = mix[R][i];
 620              		.loc 1 53 27 is_stmt 0 discriminator 2 view .LVU164
 621 004c BB19     		adds	r3, r7, r6
 622              	.LBE94:
  43:DSP/Mixer.cpp ****     {
 623              		.loc 1 43 5 discriminator 2 view .LVU165
ARM GAS  /var/folders/wz/z09yph4n0qj4t7mjxhl6ttn80000gn/T//cc2eJoGY.s 			page 23


 624 004e 0135     		adds	r5, r5, #1
 625              	.LVL36:
 626              	.LBB95:
 627              		.loc 1 54 28 discriminator 2 view .LVU166
 628 0050 1644     		add	r6, r6, r2
  53:DSP/Mixer.cpp ****         right[i] = mix[R][i];
 629              		.loc 1 53 27 discriminator 2 view .LVU167
 630 0052 1B68     		ldr	r3, [r3]	@ float
 631              	.LBE95:
  43:DSP/Mixer.cpp ****     {
 632              		.loc 1 43 26 discriminator 2 view .LVU168
 633 0054 A845     		cmp	r8, r5
 634              	.LBB96:
  53:DSP/Mixer.cpp ****         right[i] = mix[R][i];
 635              		.loc 1 53 17 discriminator 2 view .LVU169
 636 0056 4AF8043B 		str	r3, [r10], #4	@ float
 637              		.loc 1 54 9 is_stmt 1 discriminator 2 view .LVU170
 638              		.loc 1 54 28 is_stmt 0 discriminator 2 view .LVU171
 639 005a 3368     		ldr	r3, [r6]	@ float
 640              		.loc 1 54 18 discriminator 2 view .LVU172
 641 005c 49F8043B 		str	r3, [r9], #4	@ float
 642              	.LBE96:
  43:DSP/Mixer.cpp ****     {
 643              		.loc 1 43 5 is_stmt 1 discriminator 2 view .LVU173
 644              	.LVL37:
  43:DSP/Mixer.cpp ****     {
 645              		.loc 1 43 26 discriminator 2 view .LVU174
 646 0060 DAD1     		bne	.L31
 647              	.LBE97:
  55:DSP/Mixer.cpp ****     }
  56:DSP/Mixer.cpp **** }...
 648              		.loc 1 56 1 is_stmt 0 view .LVU175
 649 0062 BDE8F087 		pop	{r4, r5, r6, r7, r8, r9, r10, pc}
 650              	.LVL38:
 651              	.L33:
 652              		.cfi_def_cfa_offset 0
 653              		.cfi_restore 4
 654              		.cfi_restore 5
 655              		.cfi_restore 6
 656              		.cfi_restore 7
 657              		.cfi_restore 8
 658              		.cfi_restore 9
 659              		.cfi_restore 10
 660              		.cfi_restore 14
 661              		.loc 1 56 1 view .LVU176
 662 0066 7047     		bx	lr
 663              		.cfi_endproc
 664              	.LFE5130:
 666              		.text
 667              	.Letext0:
 668              		.file 6 "/Library/DaisyToolchain/0.2.0/arm/arm-none-eabi/include/machine/_default_types.h"
 669              		.file 7 "/Library/DaisyToolchain/0.2.0/arm/arm-none-eabi/include/sys/_stdint.h"
 670              		.file 8 "/Library/DaisyToolchain/0.2.0/arm/arm-none-eabi/include/stdint.h"
 671              		.file 9 "/Library/DaisyToolchain/0.2.0/arm/lib/gcc/arm-none-eabi/10.3.1/include/stddef.h"
 672              		.file 10 "/Library/DaisyToolchain/0.2.0/arm/arm-none-eabi/include/c++/10.3.1/cmath"
 673              		.file 11 "/Library/DaisyToolchain/0.2.0/arm/arm-none-eabi/include/c++/10.3.1/bits/std_abs.h"
 674              		.file 12 "/Library/DaisyToolchain/0.2.0/arm/arm-none-eabi/include/c++/10.3.1/cstdlib"
ARM GAS  /var/folders/wz/z09yph4n0qj4t7mjxhl6ttn80000gn/T//cc2eJoGY.s 			page 24


 675              		.file 13 "/Library/DaisyToolchain/0.2.0/arm/arm-none-eabi/include/c++/10.3.1/cstdint"
 676              		.file 14 "/Library/DaisyToolchain/0.2.0/arm/arm-none-eabi/include/c++/10.3.1/arm-none-eabi/thumb/v
 677              		.file 15 "/Library/DaisyToolchain/0.2.0/arm/arm-none-eabi/include/c++/10.3.1/type_traits"
 678              		.file 16 "/Library/DaisyToolchain/0.2.0/arm/arm-none-eabi/include/c++/10.3.1/debug/debug.h"
 679              		.file 17 "/Library/DaisyToolchain/0.2.0/arm/arm-none-eabi/include/c++/10.3.1/bits/algorithmfwd.h"
 680              		.file 18 "/Library/DaisyToolchain/0.2.0/arm/arm-none-eabi/include/c++/10.3.1/bits/stl_pair.h"
 681              		.file 19 "/Library/DaisyToolchain/0.2.0/arm/arm-none-eabi/include/c++/10.3.1/bits/exception_ptr.h"
 682              		.file 20 "/Library/DaisyToolchain/0.2.0/arm/arm-none-eabi/include/c++/10.3.1/cstdarg"
 683              		.file 21 "/Library/DaisyToolchain/0.2.0/arm/arm-none-eabi/include/c++/10.3.1/cstdio"
 684              		.file 22 "/Library/DaisyToolchain/0.2.0/arm/arm-none-eabi/include/c++/10.3.1/cstring"
 685              		.file 23 "/Library/DaisyToolchain/0.2.0/arm/arm-none-eabi/include/c++/10.3.1/cwchar"
 686              		.file 24 "/Library/DaisyToolchain/0.2.0/arm/arm-none-eabi/include/c++/10.3.1/clocale"
 687              		.file 25 "/Library/DaisyToolchain/0.2.0/arm/arm-none-eabi/include/c++/10.3.1/bits/basic_string.h"
 688              		.file 26 "/Library/DaisyToolchain/0.2.0/arm/arm-none-eabi/include/c++/10.3.1/bits/stl_iterator.h"
 689              		.file 27 "/Library/DaisyToolchain/0.2.0/arm/arm-none-eabi/include/c++/10.3.1/bits/uses_allocator.h
 690              		.file 28 "/Library/DaisyToolchain/0.2.0/arm/arm-none-eabi/include/c++/10.3.1/tuple"
 691              		.file 29 "/Library/DaisyToolchain/0.2.0/arm/arm-none-eabi/include/c++/10.3.1/bits/std_function.h"
 692              		.file 30 "/Library/DaisyToolchain/0.2.0/arm/arm-none-eabi/include/c++/10.3.1/functional"
 693              		.file 31 "/Library/DaisyToolchain/0.2.0/arm/arm-none-eabi/include/c++/10.3.1/bits/refwrap.h"
 694              		.file 32 "/Library/DaisyToolchain/0.2.0/arm/arm-none-eabi/include/c++/10.3.1/bits/predefined_ops.h
 695              		.file 33 "/Library/DaisyToolchain/0.2.0/arm/arm-none-eabi/include/sys/_types.h"
 696              		.file 34 "/Library/DaisyToolchain/0.2.0/arm/arm-none-eabi/include/sys/reent.h"
 697              		.file 35 "/Library/DaisyToolchain/0.2.0/arm/arm-none-eabi/include/sys/lock.h"
 698              		.file 36 "/Library/DaisyToolchain/0.2.0/arm/arm-none-eabi/include/math.h"
 699              		.file 37 "/Library/DaisyToolchain/0.2.0/arm/arm-none-eabi/include/stdlib.h"
 700              		.file 38 "/Library/DaisyToolchain/0.2.0/arm/arm-none-eabi/include/c++/10.3.1/math.h"
 701              		.file 39 "/Library/DaisyToolchain/0.2.0/arm/arm-none-eabi/include/c++/10.3.1/stdlib.h"
 702              		.file 40 "../../../libDaisy//src/per/tim.h"
 703              		.file 41 "../../../libDaisy//src/sys/system.h"
 704              		.file 42 "../../../libDaisy//src/per/qspi.h"
 705              		.file 43 "../../../libDaisy//src/per/dac.h"
 706              		.file 44 "../../../libDaisy//src/per/sai.h"
 707              		.file 45 "../../../libDaisy//src/hid/audio.h"
 708              		.file 46 "../../../libDaisy//src/per/adc.h"
 709              		.file 47 "../../../libDaisy//src/hid/usb.h"
 710              		.file 48 "../../../libDaisy//src/hid/switch.h"
 711              		.file 49 "../../../libDaisy//src/hid/logger_impl.h"
 712              		.file 50 "../../../libDaisy//src/util/wav_format.h"
 713              		.file 51 "../../../libDaisy//src/dev/max11300.h"
 714              		.file 52 "../../../libDaisy//src/hid/logger.h"
 715              		.file 53 "../../../libDaisy//src/per/gpio.h"
 716              		.file 54 "../../../libDaisy//src/dev/sdram.h"
 717              		.file 55 "/Library/DaisyToolchain/0.2.0/arm/lib/gcc/arm-none-eabi/10.3.1/include/stdarg.h"
 718              		.file 56 "/Library/DaisyToolchain/0.2.0/arm/arm-none-eabi/include/stdio.h"
 719              		.file 57 "/Library/DaisyToolchain/0.2.0/arm/arm-none-eabi/include/string.h"
 720              		.file 58 "../../../DaisySP//Source/Control/adenv.h"
 721              		.file 59 "../../../DaisySP//Source/Utility/dsp.h"
 722              		.file 60 "/Library/DaisyToolchain/0.2.0/arm/arm-none-eabi/include/wchar.h"
 723              		.file 61 "/Library/DaisyToolchain/0.2.0/arm/arm-none-eabi/include/locale.h"
 724              		.file 62 "DSP/FX/../../Parameters/../Utils/Helpers.h"
 725              		.file 63 "DSP/FX/Delay.h"
 726              		.file 64 "DSP/../Parameters/BinaryParameter.h"
 727              		.file 65 "DSP/Mixer.h"
 728              		.file 66 "<built-in>"
 729              		.file 67 "../../../libDaisy//src/dev/sr_595.h"
ARM GAS  /var/folders/wz/z09yph4n0qj4t7mjxhl6ttn80000gn/T//cc2eJoGY.s 			page 25


DEFINED SYMBOLS
                            *ABS*:0000000000000000 Mixer.cpp
/var/folders/wz/z09yph4n0qj4t7mjxhl6ttn80000gn/T//cc2eJoGY.s:19     .text._ZN5Mixer4initEPN5daisy9DaisySeedEPPfS4_S4_S4_S4_:0000000000000000 $t
/var/folders/wz/z09yph4n0qj4t7mjxhl6ttn80000gn/T//cc2eJoGY.s:26     .text._ZN5Mixer4initEPN5daisy9DaisySeedEPPfS4_S4_S4_S4_:0000000000000000 _ZN5Mixer4initEPN5daisy9DaisySeedEPPfS4_S4_S4_S4_
/var/folders/wz/z09yph4n0qj4t7mjxhl6ttn80000gn/T//cc2eJoGY.s:261    .text._ZN5Mixer4initEPN5daisy9DaisySeedEPPfS4_S4_S4_S4_:00000000000000a4 $d
/var/folders/wz/z09yph4n0qj4t7mjxhl6ttn80000gn/T//cc2eJoGY.s:270    .rodata._ZN5Mixer4tickEv.str1.4:0000000000000000 $d
/var/folders/wz/z09yph4n0qj4t7mjxhl6ttn80000gn/T//cc2eJoGY.s:274    .text._ZN5Mixer4tickEv:0000000000000000 $t
/var/folders/wz/z09yph4n0qj4t7mjxhl6ttn80000gn/T//cc2eJoGY.s:281    .text._ZN5Mixer4tickEv:0000000000000000 _ZN5Mixer4tickEv
/var/folders/wz/z09yph4n0qj4t7mjxhl6ttn80000gn/T//cc2eJoGY.s:434    .text._ZN5Mixer4tickEv:0000000000000094 $d
/var/folders/wz/z09yph4n0qj4t7mjxhl6ttn80000gn/T//cc2eJoGY.s:445    .text._ZN5Mixer7prepareEv:0000000000000000 $t
/var/folders/wz/z09yph4n0qj4t7mjxhl6ttn80000gn/T//cc2eJoGY.s:452    .text._ZN5Mixer7prepareEv:0000000000000000 _ZN5Mixer7prepareEv
/var/folders/wz/z09yph4n0qj4t7mjxhl6ttn80000gn/T//cc2eJoGY.s:466    .text._ZN5Mixer17processInputBlockEPKfS1_j:0000000000000000 $t
/var/folders/wz/z09yph4n0qj4t7mjxhl6ttn80000gn/T//cc2eJoGY.s:473    .text._ZN5Mixer17processInputBlockEPKfS1_j:0000000000000000 _ZN5Mixer17processInputBlockEPKfS1_j
/var/folders/wz/z09yph4n0qj4t7mjxhl6ttn80000gn/T//cc2eJoGY.s:490    .text._ZN5Mixer18processOutputBlockEPfS0_j:0000000000000000 $t
/var/folders/wz/z09yph4n0qj4t7mjxhl6ttn80000gn/T//cc2eJoGY.s:497    .text._ZN5Mixer18processOutputBlockEPfS0_j:0000000000000000 _ZN5Mixer18processOutputBlockEPfS0_j

UNDEFINED SYMBOLS
memset
_ZN5Track4initEPPf12dsy_gpio_pinS2_
_ZN5Track4tickEv
_ZNK5daisy9AdcHandle8GetFloatEh
_ZN5daisy6LoggerILNS_17LoggerDestinationE1EE9PrintLineEPKcz
_ZN5Track17processInputBlockEPKfS1_j
_ZN5Track16incrementReadPosEv
