ARM GAS  /var/folders/wz/z09yph4n0qj4t7mjxhl6ttn80000gn/T//cc49IqJP.s 			page 1


   1              		.cpu cortex-m7
   2              		.arch armv7e-m
   3              		.fpu fpv5-d16
   4              		.eabi_attribute 28, 1
   5              		.eabi_attribute 20, 1
   6              		.eabi_attribute 21, 1
   7              		.eabi_attribute 23, 3
   8              		.eabi_attribute 24, 1
   9              		.eabi_attribute 25, 1
  10              		.eabi_attribute 26, 1
  11              		.eabi_attribute 30, 2
  12              		.eabi_attribute 34, 1
  13              		.eabi_attribute 18, 4
  14              		.file	"Mixer.cpp"
  15              		.text
  16              	.Ltext0:
  17              		.cfi_sections	.debug_frame
  18              		.section	.text._ZN5Mixer4initEPPfS1_S1_S1_S1_j,"ax",%progbits
  19              		.align	1
  20              		.p2align 2,,3
  21              		.global	_ZN5Mixer4initEPPfS1_S1_S1_S1_j
  22              		.syntax unified
  23              		.thumb
  24              		.thumb_func
  26              	_ZN5Mixer4initEPPfS1_S1_S1_S1_j:
  27              	.LVL0:
  28              	.LFB1386:
  29              		.file 1 "DSP/Mixer.cpp"
   1:DSP/Mixer.cpp **** #include "Mixer.h"
   2:DSP/Mixer.cpp **** 
   3:DSP/Mixer.cpp **** void Mixer::init(float* m[2], float* t1[2], float* t2[2], float* t3[2], float* t4[2], size_t s)
   4:DSP/Mixer.cpp **** {
  30              		.loc 1 4 1 view -0
  31              		.cfi_startproc
  32              		@ args = 12, pretend = 0, frame = 8
  33              		@ frame_needed = 0, uses_anonymous_args = 0
   5:DSP/Mixer.cpp ****     bufferSize = s;
  34              		.loc 1 5 5 view .LVU1
   4:DSP/Mixer.cpp ****     bufferSize = s;
  35              		.loc 1 4 1 is_stmt 0 view .LVU2
  36 0000 2DE9F047 		push	{r4, r5, r6, r7, r8, r9, r10, lr}
  37              		.cfi_def_cfa_offset 32
  38              		.cfi_offset 4, -32
  39              		.cfi_offset 5, -28
  40              		.cfi_offset 6, -24
  41              		.cfi_offset 7, -20
  42              		.cfi_offset 8, -16
  43              		.cfi_offset 9, -12
  44              		.cfi_offset 10, -8
  45              		.cfi_offset 14, -4
  46 0004 0446     		mov	r4, r0
  47 0006 82B0     		sub	sp, sp, #8
  48              		.cfi_def_cfa_offset 40
   6:DSP/Mixer.cpp ****     buffer[L] = m[L];
  49              		.loc 1 6 20 view .LVU3
  50 0008 0868     		ldr	r0, [r1]
  51              	.LVL1:
ARM GAS  /var/folders/wz/z09yph4n0qj4t7mjxhl6ttn80000gn/T//cc49IqJP.s 			page 2


   4:DSP/Mixer.cpp ****     bufferSize = s;
  52              		.loc 1 4 1 view .LVU4
  53 000a 1F46     		mov	r7, r3
  54 000c 0C9D     		ldr	r5, [sp, #48]
  55              	.LBB2:
   7:DSP/Mixer.cpp ****     buffer[R] = m[R];
   8:DSP/Mixer.cpp ****     for(int i = 0 ; i < 2 ; i++)
   9:DSP/Mixer.cpp ****         curSample[i] = nullptr;
  56              		.loc 1 9 22 view .LVU5
  57 000e 0023     		movs	r3, #0
  58              	.LVL2:
  59              		.loc 1 9 22 view .LVU6
  60              	.LBE2:
   6:DSP/Mixer.cpp ****     buffer[L] = m[L];
  61              		.loc 1 6 15 view .LVU7
  62 0010 2060     		str	r0, [r4]
   4:DSP/Mixer.cpp ****     bufferSize = s;
  63              		.loc 1 4 1 view .LVU8
  64 0012 9246     		mov	r10, r2
   7:DSP/Mixer.cpp ****     buffer[R] = m[R];
  65              		.loc 1 7 15 view .LVU9
  66 0014 4E68     		ldr	r6, [r1, #4]
   4:DSP/Mixer.cpp ****     bufferSize = s;
  67              		.loc 1 4 1 view .LVU10
  68 0016 DDF82890 		ldr	r9, [sp, #40]
  69 001a DDF82C80 		ldr	r8, [sp, #44]
   7:DSP/Mixer.cpp ****     buffer[R] = m[R];
  70              		.loc 1 7 15 view .LVU11
  71 001e 6660     		str	r6, [r4, #4]
   5:DSP/Mixer.cpp ****     buffer[L] = m[L];
  72              		.loc 1 5 16 view .LVU12
  73 0020 A560     		str	r5, [r4, #8]
   6:DSP/Mixer.cpp ****     buffer[R] = m[R];
  74              		.loc 1 6 5 is_stmt 1 view .LVU13
   7:DSP/Mixer.cpp ****     for(int i = 0 ; i < 2 ; i++)
  75              		.loc 1 7 5 view .LVU14
   8:DSP/Mixer.cpp ****         curSample[i] = nullptr;
  76              		.loc 1 8 5 view .LVU15
  77              	.LVL3:
  78              	.LBB3:
   8:DSP/Mixer.cpp ****         curSample[i] = nullptr;
  79              		.loc 1 8 23 view .LVU16
  80              		.loc 1 9 9 view .LVU17
   8:DSP/Mixer.cpp ****         curSample[i] = nullptr;
  81              		.loc 1 8 5 view .LVU18
   8:DSP/Mixer.cpp ****         curSample[i] = nullptr;
  82              		.loc 1 8 23 view .LVU19
  83              		.loc 1 9 9 view .LVU20
   8:DSP/Mixer.cpp ****         curSample[i] = nullptr;
  84              		.loc 1 8 5 view .LVU21
   8:DSP/Mixer.cpp ****         curSample[i] = nullptr;
  85              		.loc 1 8 23 view .LVU22
   8:DSP/Mixer.cpp ****         curSample[i] = nullptr;
  86              		.loc 1 8 23 is_stmt 0 view .LVU23
  87              	.LBE3:
  88              	.LBB4:
  10:DSP/Mixer.cpp **** 
ARM GAS  /var/folders/wz/z09yph4n0qj4t7mjxhl6ttn80000gn/T//cc49IqJP.s 			page 3


  11:DSP/Mixer.cpp ****     for(size_t j = 0 ; j < bufferSize ; j++)
  89              		.loc 1 11 26 is_stmt 1 view .LVU24
  90              	.LBE4:
  91              	.LBB5:
   9:DSP/Mixer.cpp **** 
  92              		.loc 1 9 22 is_stmt 0 view .LVU25
  93 0022 C4E90333 		strd	r3, r3, [r4, #12]
  94              	.LBE5:
  95              	.LBB6:
  96              		.loc 1 11 26 view .LVU26
  97 0026 85B1     		cbz	r5, .L2
  98 0028 06EB8503 		add	r3, r6, r5, lsl #2
  99 002c AA00     		lsls	r2, r5, #2
 100              	.LVL4:
 101              		.loc 1 11 26 view .LVU27
 102 002e 9842     		cmp	r0, r3
 103 0030 02D2     		bcs	.L6
 104 0032 8118     		adds	r1, r0, r2
 105              	.LVL5:
 106              		.loc 1 11 26 view .LVU28
 107 0034 8E42     		cmp	r6, r1
 108 0036 23D3     		bcc	.L5
 109              	.L6:
  12:DSP/Mixer.cpp ****     {
  13:DSP/Mixer.cpp ****         buffer[L][j] = 0.0f;
 110              		.loc 1 13 22 view .LVU29
 111 0038 0021     		movs	r1, #0
 112 003a 0192     		str	r2, [sp, #4]
 113 003c FFF7FEFF 		bl	memset
 114              	.LVL6:
  14:DSP/Mixer.cpp ****         buffer[R][j] = 0.0f;
 115              		.loc 1 14 22 view .LVU30
 116 0040 019A     		ldr	r2, [sp, #4]
 117 0042 3046     		mov	r0, r6
 118 0044 0021     		movs	r1, #0
 119 0046 FFF7FEFF 		bl	memset
 120              	.LVL7:
 121              	.L2:
 122              		.loc 1 14 22 view .LVU31
 123              	.LBE6:
  15:DSP/Mixer.cpp ****     }
  16:DSP/Mixer.cpp **** 
  17:DSP/Mixer.cpp ****     track1.track.init(t1, s);
 124              		.loc 1 17 5 is_stmt 1 view .LVU32
 125              		.loc 1 17 22 is_stmt 0 view .LVU33
 126 004a 5146     		mov	r1, r10
 127 004c 04F11400 		add	r0, r4, #20
 128 0050 2A46     		mov	r2, r5
 129 0052 FFF7FEFF 		bl	_ZN5Track4initEPPfj
 130              	.LVL8:
  18:DSP/Mixer.cpp ****     track2.track.init(t2, s);
 131              		.loc 1 18 5 is_stmt 1 view .LVU34
 132              		.loc 1 18 22 is_stmt 0 view .LVU35
 133 0056 2A46     		mov	r2, r5
 134 0058 3946     		mov	r1, r7
 135 005a 04F13800 		add	r0, r4, #56
 136 005e FFF7FEFF 		bl	_ZN5Track4initEPPfj
ARM GAS  /var/folders/wz/z09yph4n0qj4t7mjxhl6ttn80000gn/T//cc49IqJP.s 			page 4


 137              	.LVL9:
  19:DSP/Mixer.cpp ****     track3.track.init(t3, s);
 138              		.loc 1 19 5 is_stmt 1 view .LVU36
 139              		.loc 1 19 22 is_stmt 0 view .LVU37
 140 0062 2A46     		mov	r2, r5
 141 0064 4946     		mov	r1, r9
 142 0066 04F15C00 		add	r0, r4, #92
 143 006a FFF7FEFF 		bl	_ZN5Track4initEPPfj
 144              	.LVL10:
  20:DSP/Mixer.cpp ****     track4.track.init(t4, s);
 145              		.loc 1 20 5 is_stmt 1 view .LVU38
 146              		.loc 1 20 22 is_stmt 0 view .LVU39
 147 006e 2A46     		mov	r2, r5
 148 0070 4146     		mov	r1, r8
 149 0072 04F18000 		add	r0, r4, #128
  21:DSP/Mixer.cpp **** }
 150              		.loc 1 21 1 view .LVU40
 151 0076 02B0     		add	sp, sp, #8
 152              		.cfi_remember_state
 153              		.cfi_def_cfa_offset 32
 154              		@ sp needed
 155 0078 BDE8F047 		pop	{r4, r5, r6, r7, r8, r9, r10, lr}
 156              		.cfi_restore 14
 157              		.cfi_restore 10
 158              		.cfi_restore 9
 159              		.cfi_restore 8
 160              		.cfi_restore 7
 161              		.cfi_restore 6
 162              		.cfi_restore 5
 163              		.cfi_restore 4
 164              		.cfi_def_cfa_offset 0
 165              	.LVL11:
  20:DSP/Mixer.cpp ****     track4.track.init(t4, s);
 166              		.loc 1 20 22 view .LVU41
 167 007c FFF7FEBF 		b	_ZN5Track4initEPPfj
 168              	.LVL12:
 169              	.L5:
 170              		.cfi_restore_state
 171              	.LBB7:
  13:DSP/Mixer.cpp ****         buffer[R][j] = 0.0f;
 172              		.loc 1 13 9 is_stmt 1 view .LVU42
  13:DSP/Mixer.cpp ****         buffer[R][j] = 0.0f;
 173              		.loc 1 13 22 is_stmt 0 view .LVU43
 174 0080 0023     		movs	r3, #0
 175 0082 40F8043B 		str	r3, [r0], #4	@ float
  14:DSP/Mixer.cpp ****     }
 176              		.loc 1 14 9 is_stmt 1 view .LVU44
  11:DSP/Mixer.cpp ****     {
 177              		.loc 1 11 26 is_stmt 0 view .LVU45
 178 0086 8842     		cmp	r0, r1
  14:DSP/Mixer.cpp ****     }
 179              		.loc 1 14 22 view .LVU46
 180 0088 46F8043B 		str	r3, [r6], #4	@ float
  11:DSP/Mixer.cpp ****     {
 181              		.loc 1 11 5 is_stmt 1 view .LVU47
  11:DSP/Mixer.cpp ****     {
 182              		.loc 1 11 26 view .LVU48
ARM GAS  /var/folders/wz/z09yph4n0qj4t7mjxhl6ttn80000gn/T//cc49IqJP.s 			page 5


 183 008c DDD0     		beq	.L2
  13:DSP/Mixer.cpp ****         buffer[R][j] = 0.0f;
 184              		.loc 1 13 9 view .LVU49
  13:DSP/Mixer.cpp ****         buffer[R][j] = 0.0f;
 185              		.loc 1 13 22 is_stmt 0 view .LVU50
 186 008e 0023     		movs	r3, #0
 187 0090 40F8043B 		str	r3, [r0], #4	@ float
  14:DSP/Mixer.cpp ****     }
 188              		.loc 1 14 9 is_stmt 1 view .LVU51
  11:DSP/Mixer.cpp ****     {
 189              		.loc 1 11 26 is_stmt 0 view .LVU52
 190 0094 8842     		cmp	r0, r1
  14:DSP/Mixer.cpp ****     }
 191              		.loc 1 14 22 view .LVU53
 192 0096 46F8043B 		str	r3, [r6], #4	@ float
  11:DSP/Mixer.cpp ****     {
 193              		.loc 1 11 5 is_stmt 1 view .LVU54
  11:DSP/Mixer.cpp ****     {
 194              		.loc 1 11 26 view .LVU55
 195 009a F1D1     		bne	.L5
 196 009c D5E7     		b	.L2
 197              	.LBE7:
 198              		.cfi_endproc
 199              	.LFE1386:
 201 009e 00BF     		.section	.text._ZN5Mixer7prepareEv,"ax",%progbits
 202              		.align	1
 203              		.p2align 2,,3
 204              		.global	_ZN5Mixer7prepareEv
 205              		.syntax unified
 206              		.thumb
 207              		.thumb_func
 209              	_ZN5Mixer7prepareEv:
 210              	.LVL13:
 211              	.LFB1387:
  22:DSP/Mixer.cpp **** 
  23:DSP/Mixer.cpp **** void Mixer::prepare()
  24:DSP/Mixer.cpp **** {
 212              		.loc 1 24 1 view -0
 213              		.cfi_startproc
 214              		@ args = 0, pretend = 0, frame = 0
 215              		@ frame_needed = 0, uses_anonymous_args = 0
 216              		@ link register save eliminated.
  25:DSP/Mixer.cpp **** 
  26:DSP/Mixer.cpp **** }
 217              		.loc 1 26 1 is_stmt 0 view .LVU57
 218 0000 7047     		bx	lr
 219              		.cfi_endproc
 220              	.LFE1387:
 222 0002 00BF     		.section	.text._ZN5Mixer4tickEv,"ax",%progbits
 223              		.align	1
 224              		.p2align 2,,3
 225              		.global	_ZN5Mixer4tickEv
 226              		.syntax unified
 227              		.thumb
 228              		.thumb_func
 230              	_ZN5Mixer4tickEv:
 231              	.LVL14:
ARM GAS  /var/folders/wz/z09yph4n0qj4t7mjxhl6ttn80000gn/T//cc49IqJP.s 			page 6


 232              	.LFB1388:
  27:DSP/Mixer.cpp **** 
  28:DSP/Mixer.cpp **** void Mixer::tick()
  29:DSP/Mixer.cpp **** {
 233              		.loc 1 29 1 is_stmt 1 view -0
 234              		.cfi_startproc
 235              		@ args = 0, pretend = 0, frame = 0
 236              		@ frame_needed = 0, uses_anonymous_args = 0
 237              		@ link register save eliminated.
  30:DSP/Mixer.cpp ****     track1.track.tick();
 238              		.loc 1 30 5 view .LVU59
 239              		.loc 1 30 22 is_stmt 0 view .LVU60
 240 0000 1430     		adds	r0, r0, #20
 241              	.LVL15:
 242              		.loc 1 30 22 view .LVU61
 243 0002 FFF7FEBF 		b	_ZN5Track4tickEv
 244              	.LVL16:
 245              		.loc 1 30 22 view .LVU62
 246              		.cfi_endproc
 247              	.LFE1388:
 249 0006 00BF     		.section	.text._ZN5Mixer17processInputBlockEPKfS1_j,"ax",%progbits
 250              		.align	1
 251              		.p2align 2,,3
 252              		.global	_ZN5Mixer17processInputBlockEPKfS1_j
 253              		.syntax unified
 254              		.thumb
 255              		.thumb_func
 257              	_ZN5Mixer17processInputBlockEPKfS1_j:
 258              	.LVL17:
 259              	.LFB1389:
  31:DSP/Mixer.cpp **** }
  32:DSP/Mixer.cpp **** 
  33:DSP/Mixer.cpp **** void Mixer::processInputBlock(const float* left, const float* right, size_t size)
  34:DSP/Mixer.cpp **** {
 260              		.loc 1 34 1 is_stmt 1 view -0
 261              		.cfi_startproc
 262              		@ args = 0, pretend = 0, frame = 0
 263              		@ frame_needed = 0, uses_anonymous_args = 0
 264              		@ link register save eliminated.
  35:DSP/Mixer.cpp ****     track1.track.processInputBlock(left, right, size);
 265              		.loc 1 35 5 view .LVU64
 266              		.loc 1 35 35 is_stmt 0 view .LVU65
 267 0000 1430     		adds	r0, r0, #20
 268              	.LVL18:
 269              		.loc 1 35 35 view .LVU66
 270 0002 FFF7FEBF 		b	_ZN5Track17processInputBlockEPKfS1_j
 271              	.LVL19:
 272              		.loc 1 35 35 view .LVU67
 273              		.cfi_endproc
 274              	.LFE1389:
 276 0006 00BF     		.section	.text._ZN5Mixer18processOutputBlockEPfS0_j,"ax",%progbits
 277              		.align	1
 278              		.p2align 2,,3
 279              		.global	_ZN5Mixer18processOutputBlockEPfS0_j
 280              		.syntax unified
 281              		.thumb
 282              		.thumb_func
ARM GAS  /var/folders/wz/z09yph4n0qj4t7mjxhl6ttn80000gn/T//cc49IqJP.s 			page 7


 284              	_ZN5Mixer18processOutputBlockEPfS0_j:
 285              	.LVL20:
 286              	.LFB1390:
  36:DSP/Mixer.cpp **** }
  37:DSP/Mixer.cpp **** 
  38:DSP/Mixer.cpp **** void Mixer::processOutputBlock(float* left, float* right, size_t size)
  39:DSP/Mixer.cpp **** {
 287              		.loc 1 39 1 is_stmt 1 view -0
 288              		.cfi_startproc
 289              		@ args = 0, pretend = 0, frame = 0
 290              		@ frame_needed = 0, uses_anonymous_args = 0
 291              		@ link register save eliminated.
  40:DSP/Mixer.cpp ****     track1.track.processOutputBlock(left, right, size);
 292              		.loc 1 40 5 view .LVU69
 293              		.loc 1 40 36 is_stmt 0 view .LVU70
 294 0000 1430     		adds	r0, r0, #20
 295              	.LVL21:
 296              		.loc 1 40 36 view .LVU71
 297 0002 FFF7FEBF 		b	_ZN5Track18processOutputBlockEPfS0_j
 298              	.LVL22:
 299              		.loc 1 40 36 view .LVU72
 300              		.cfi_endproc
 301              	.LFE1390:
 303 0006 00BF     		.text
 304              	.Letext0:
 305              		.file 2 "/Library/DaisyToolchain/0.2.0/arm/arm-none-eabi/include/c++/10.3.1/cmath"
 306              		.file 3 "/Library/DaisyToolchain/0.2.0/arm/arm-none-eabi/include/c++/10.3.1/bits/std_abs.h"
 307              		.file 4 "/Library/DaisyToolchain/0.2.0/arm/arm-none-eabi/include/c++/10.3.1/type_traits"
 308              		.file 5 "/Library/DaisyToolchain/0.2.0/arm/arm-none-eabi/include/c++/10.3.1/debug/debug.h"
 309              		.file 6 "/Library/DaisyToolchain/0.2.0/arm/arm-none-eabi/include/c++/10.3.1/cstdlib"
 310              		.file 7 "/Library/DaisyToolchain/0.2.0/arm/arm-none-eabi/include/c++/10.3.1/arm-none-eabi/thumb/v7
 311              		.file 8 "/Library/DaisyToolchain/0.2.0/arm/arm-none-eabi/include/c++/10.3.1/bits/algorithmfwd.h"
 312              		.file 9 "/Library/DaisyToolchain/0.2.0/arm/arm-none-eabi/include/c++/10.3.1/bits/stl_pair.h"
 313              		.file 10 "/Library/DaisyToolchain/0.2.0/arm/arm-none-eabi/include/c++/10.3.1/bits/exception_ptr.h"
 314              		.file 11 "/Library/DaisyToolchain/0.2.0/arm/lib/gcc/arm-none-eabi/10.3.1/include/stddef.h"
 315              		.file 12 "/Library/DaisyToolchain/0.2.0/arm/arm-none-eabi/include/c++/10.3.1/bits/predefined_ops.h
 316              		.file 13 "/Library/DaisyToolchain/0.2.0/arm/arm-none-eabi/include/math.h"
 317              		.file 14 "/Library/DaisyToolchain/0.2.0/arm/arm-none-eabi/include/stdlib.h"
 318              		.file 15 "/Library/DaisyToolchain/0.2.0/arm/arm-none-eabi/include/c++/10.3.1/math.h"
 319              		.file 16 "DSP/Helpers.h"
 320              		.file 17 "DSP/Track.h"
 321              		.file 18 "DSP/Mixer.h"
 322              		.file 19 "<built-in>"
ARM GAS  /var/folders/wz/z09yph4n0qj4t7mjxhl6ttn80000gn/T//cc49IqJP.s 			page 8


DEFINED SYMBOLS
                            *ABS*:0000000000000000 Mixer.cpp
/var/folders/wz/z09yph4n0qj4t7mjxhl6ttn80000gn/T//cc49IqJP.s:19     .text._ZN5Mixer4initEPPfS1_S1_S1_S1_j:0000000000000000 $t
/var/folders/wz/z09yph4n0qj4t7mjxhl6ttn80000gn/T//cc49IqJP.s:26     .text._ZN5Mixer4initEPPfS1_S1_S1_S1_j:0000000000000000 _ZN5Mixer4initEPPfS1_S1_S1_S1_j
/var/folders/wz/z09yph4n0qj4t7mjxhl6ttn80000gn/T//cc49IqJP.s:202    .text._ZN5Mixer7prepareEv:0000000000000000 $t
/var/folders/wz/z09yph4n0qj4t7mjxhl6ttn80000gn/T//cc49IqJP.s:209    .text._ZN5Mixer7prepareEv:0000000000000000 _ZN5Mixer7prepareEv
/var/folders/wz/z09yph4n0qj4t7mjxhl6ttn80000gn/T//cc49IqJP.s:223    .text._ZN5Mixer4tickEv:0000000000000000 $t
/var/folders/wz/z09yph4n0qj4t7mjxhl6ttn80000gn/T//cc49IqJP.s:230    .text._ZN5Mixer4tickEv:0000000000000000 _ZN5Mixer4tickEv
/var/folders/wz/z09yph4n0qj4t7mjxhl6ttn80000gn/T//cc49IqJP.s:250    .text._ZN5Mixer17processInputBlockEPKfS1_j:0000000000000000 $t
/var/folders/wz/z09yph4n0qj4t7mjxhl6ttn80000gn/T//cc49IqJP.s:257    .text._ZN5Mixer17processInputBlockEPKfS1_j:0000000000000000 _ZN5Mixer17processInputBlockEPKfS1_j
/var/folders/wz/z09yph4n0qj4t7mjxhl6ttn80000gn/T//cc49IqJP.s:277    .text._ZN5Mixer18processOutputBlockEPfS0_j:0000000000000000 $t
/var/folders/wz/z09yph4n0qj4t7mjxhl6ttn80000gn/T//cc49IqJP.s:284    .text._ZN5Mixer18processOutputBlockEPfS0_j:0000000000000000 _ZN5Mixer18processOutputBlockEPfS0_j

UNDEFINED SYMBOLS
memset
_ZN5Track4initEPPfj
_ZN5Track4tickEv
_ZN5Track17processInputBlockEPKfS1_j
_ZN5Track18processOutputBlockEPfS0_j
