ARM GAS  /var/folders/wz/z09yph4n0qj4t7mjxhl6ttn80000gn/T//ccQVcjDc.s 			page 1


   1              		.cpu cortex-m7
   2              		.arch armv7e-m
   3              		.fpu fpv5-d16
   4              		.eabi_attribute 28, 1
   5              		.eabi_attribute 20, 1
   6              		.eabi_attribute 21, 1
   7              		.eabi_attribute 23, 3
   8              		.eabi_attribute 24, 1
   9              		.eabi_attribute 25, 1
  10              		.eabi_attribute 26, 1
  11              		.eabi_attribute 30, 4
  12              		.eabi_attribute 34, 1
  13              		.eabi_attribute 18, 4
  14              		.file	"MixerView.cpp"
  15              		.text
  16              	.Ltext0:
  17              		.cfi_sections	.debug_frame
  18              		.section	.text._ZN9MixerView4initEPN5daisy9DaisySeedEP13EncoderDriverP8UiDriverP12KeypadDriver,"ax
  19              		.align	1
  20              		.global	_ZN9MixerView4initEPN5daisy9DaisySeedEP13EncoderDriverP8UiDriverP12KeypadDriver
  21              		.syntax unified
  22              		.thumb
  23              		.thumb_func
  25              	_ZN9MixerView4initEPN5daisy9DaisySeedEP13EncoderDriverP8UiDriverP12KeypadDriver:
  26              	.LVL0:
  27              	.LFB5103:
  28              		.file 1 "GUI/MixerView.cpp"
   1:GUI/MixerView.cpp **** #include "MixerView.h"
   2:GUI/MixerView.cpp **** 
   3:GUI/MixerView.cpp **** void MixerView::init(DaisySeed* seed, EncoderDriver* encoder, UiDriver* uid, KeypadDriver* kpd)
   4:GUI/MixerView.cpp **** {
  29              		.loc 1 4 1 view -0
  30              		.cfi_startproc
  31              		@ args = 4, pretend = 0, frame = 0
  32              		@ frame_needed = 0, uses_anonymous_args = 0
   5:GUI/MixerView.cpp ****     lcd = uid;
  33              		.loc 1 5 5 view .LVU1
   4:GUI/MixerView.cpp ****     lcd = uid;
  34              		.loc 1 4 1 is_stmt 0 view .LVU2
  35 0000 73B5     		push	{r0, r1, r4, r5, r6, lr}
  36              		.cfi_def_cfa_offset 24
  37              		.cfi_offset 4, -16
  38              		.cfi_offset 5, -12
  39              		.cfi_offset 6, -8
  40              		.cfi_offset 14, -4
  41              		.loc 1 5 9 view .LVU3
  42 0002 0360     		str	r3, [r0]
   6:GUI/MixerView.cpp ****     keypad = kpd;
  43              		.loc 1 6 5 is_stmt 1 view .LVU4
   4:GUI/MixerView.cpp ****     lcd = uid;
  44              		.loc 1 4 1 is_stmt 0 view .LVU5
  45 0004 0446     		mov	r4, r0
  46              		.loc 1 6 12 view .LVU6
  47 0006 069B     		ldr	r3, [sp, #24]
  48              	.LVL1:
   4:GUI/MixerView.cpp ****     lcd = uid;
  49              		.loc 1 4 1 view .LVU7
ARM GAS  /var/folders/wz/z09yph4n0qj4t7mjxhl6ttn80000gn/T//ccQVcjDc.s 			page 2


  50 0008 0E46     		mov	r6, r1
  51 000a 1546     		mov	r5, r2
   7:GUI/MixerView.cpp **** 
   8:GUI/MixerView.cpp ****     amp1.init(0, seed);
  52              		.loc 1 8 14 view .LVU8
  53 000c 0830     		adds	r0, r0, #8
  54              	.LVL2:
   6:GUI/MixerView.cpp ****     keypad = kpd;
  55              		.loc 1 6 12 view .LVU9
  56 000e 40F8043C 		str	r3, [r0, #-4]
  57              		.loc 1 8 5 is_stmt 1 view .LVU10
  58              		.loc 1 8 14 is_stmt 0 view .LVU11
  59 0012 0A46     		mov	r2, r1
  60              	.LVL3:
  61              		.loc 1 8 14 view .LVU12
  62 0014 0021     		movs	r1, #0
  63              	.LVL4:
  64              		.loc 1 8 14 view .LVU13
  65 0016 FFF7FEFF 		bl	_ZN11AudioSlider4initEiPN5daisy9DaisySeedE
  66              	.LVL5:
   9:GUI/MixerView.cpp ****     amp2.init(1, seed);
  67              		.loc 1 9 5 is_stmt 1 view .LVU14
  68              		.loc 1 9 14 is_stmt 0 view .LVU15
  69 001a 3246     		mov	r2, r6
  70 001c 04F11C00 		add	r0, r4, #28
  71 0020 0121     		movs	r1, #1
  72 0022 FFF7FEFF 		bl	_ZN11AudioSlider4initEiPN5daisy9DaisySeedE
  73              	.LVL6:
  10:GUI/MixerView.cpp ****     amp3.init(2, seed);
  74              		.loc 1 10 5 is_stmt 1 view .LVU16
  75              		.loc 1 10 14 is_stmt 0 view .LVU17
  76 0026 3246     		mov	r2, r6
  77 0028 04F13000 		add	r0, r4, #48
  78 002c 0221     		movs	r1, #2
  79 002e FFF7FEFF 		bl	_ZN11AudioSlider4initEiPN5daisy9DaisySeedE
  80              	.LVL7:
  11:GUI/MixerView.cpp ****     amp4.init(3, seed);
  81              		.loc 1 11 5 is_stmt 1 view .LVU18
  82              		.loc 1 11 14 is_stmt 0 view .LVU19
  83 0032 3246     		mov	r2, r6
  84 0034 04F14400 		add	r0, r4, #68
  85 0038 0321     		movs	r1, #3
  86 003a FFF7FEFF 		bl	_ZN11AudioSlider4initEiPN5daisy9DaisySeedE
  87              	.LVL8:
  12:GUI/MixerView.cpp **** 
  13:GUI/MixerView.cpp ****     track1.init(ParameterIDs::Tracks::Track1, encoder, lcd, keypad);
  88              		.loc 1 13 5 is_stmt 1 view .LVU20
  89              		.loc 1 13 16 is_stmt 0 view .LVU21
  90 003e 6368     		ldr	r3, [r4, #4]
  91 0040 2A46     		mov	r2, r5
  92 0042 04F15800 		add	r0, r4, #88
  93 0046 0093     		str	r3, [sp]
  94 0048 6421     		movs	r1, #100
  95 004a 2368     		ldr	r3, [r4]
  96 004c FFF7FEFF 		bl	_ZN9TrackView4initEiP13EncoderDriverP8UiDriverP12KeypadDriver
  97              	.LVL9:
  14:GUI/MixerView.cpp ****     track2.init(ParameterIDs::Tracks::Track2, encoder, lcd, keypad);
ARM GAS  /var/folders/wz/z09yph4n0qj4t7mjxhl6ttn80000gn/T//ccQVcjDc.s 			page 3


  98              		.loc 1 14 5 is_stmt 1 view .LVU22
  99              		.loc 1 14 16 is_stmt 0 view .LVU23
 100 0050 6368     		ldr	r3, [r4, #4]
 101 0052 2A46     		mov	r2, r5
 102 0054 04F5E870 		add	r0, r4, #464
 103 0058 0093     		str	r3, [sp]
 104 005a C821     		movs	r1, #200
 105 005c 2368     		ldr	r3, [r4]
 106 005e FFF7FEFF 		bl	_ZN9TrackView4initEiP13EncoderDriverP8UiDriverP12KeypadDriver
 107              	.LVL10:
  15:GUI/MixerView.cpp ****     track3.init(ParameterIDs::Tracks::Track3, encoder, lcd, keypad);
 108              		.loc 1 15 5 is_stmt 1 view .LVU24
 109              		.loc 1 15 16 is_stmt 0 view .LVU25
 110 0062 6368     		ldr	r3, [r4, #4]
 111 0064 2A46     		mov	r2, r5
 112 0066 04F55270 		add	r0, r4, #840
 113 006a 0093     		str	r3, [sp]
 114 006c 4FF49671 		mov	r1, #300
 115 0070 2368     		ldr	r3, [r4]
 116 0072 FFF7FEFF 		bl	_ZN9TrackView4initEiP13EncoderDriverP8UiDriverP12KeypadDriver
 117              	.LVL11:
  16:GUI/MixerView.cpp ****     track4.init(ParameterIDs::Tracks::Track4, encoder, lcd, keypad);
 118              		.loc 1 16 5 is_stmt 1 view .LVU26
 119              		.loc 1 16 16 is_stmt 0 view .LVU27
 120 0076 6368     		ldr	r3, [r4, #4]
 121 0078 2A46     		mov	r2, r5
 122 007a 4FF4C871 		mov	r1, #400
 123 007e 0693     		str	r3, [sp, #24]
 124              	.LVL12:
 125              		.loc 1 16 16 view .LVU28
 126 0080 04F59860 		add	r0, r4, #1216
 127 0084 2368     		ldr	r3, [r4]
  17:GUI/MixerView.cpp **** }
 128              		.loc 1 17 1 view .LVU29
 129 0086 02B0     		add	sp, sp, #8
 130              		.cfi_def_cfa_offset 16
 131              		@ sp needed
 132 0088 BDE87040 		pop	{r4, r5, r6, lr}
 133              		.cfi_restore 14
 134              		.cfi_restore 6
 135              		.cfi_restore 5
 136              		.cfi_restore 4
 137              		.cfi_def_cfa_offset 0
 138              	.LVL13:
  16:GUI/MixerView.cpp ****     track4.init(ParameterIDs::Tracks::Track4, encoder, lcd, keypad);
 139              		.loc 1 16 16 view .LVU30
 140 008c FFF7FEBF 		b	_ZN9TrackView4initEiP13EncoderDriverP8UiDriverP12KeypadDriver
 141              	.LVL14:
  16:GUI/MixerView.cpp ****     track4.init(ParameterIDs::Tracks::Track4, encoder, lcd, keypad);
 142              		.loc 1 16 16 view .LVU31
 143              		.cfi_endproc
 144              	.LFE5103:
 146              		.section	.text._ZN9MixerView4tickEv,"ax",%progbits
 147              		.align	1
 148              		.global	_ZN9MixerView4tickEv
 149              		.syntax unified
 150              		.thumb
ARM GAS  /var/folders/wz/z09yph4n0qj4t7mjxhl6ttn80000gn/T//ccQVcjDc.s 			page 4


 151              		.thumb_func
 153              	_ZN9MixerView4tickEv:
 154              	.LVL15:
 155              	.LFB5104:
  18:GUI/MixerView.cpp **** 
  19:GUI/MixerView.cpp **** void MixerView::tick()
  20:GUI/MixerView.cpp **** {
 156              		.loc 1 20 1 is_stmt 1 view -0
 157              		.cfi_startproc
 158              		@ args = 0, pretend = 0, frame = 0
 159              		@ frame_needed = 0, uses_anonymous_args = 0
  21:GUI/MixerView.cpp ****     amp1.tick();
 160              		.loc 1 21 5 view .LVU33
  20:GUI/MixerView.cpp ****     amp1.tick();
 161              		.loc 1 20 1 is_stmt 0 view .LVU34
 162 0000 10B5     		push	{r4, lr}
 163              		.cfi_def_cfa_offset 8
 164              		.cfi_offset 4, -8
 165              		.cfi_offset 14, -4
  20:GUI/MixerView.cpp ****     amp1.tick();
 166              		.loc 1 20 1 view .LVU35
 167 0002 0446     		mov	r4, r0
 168              		.loc 1 21 14 view .LVU36
 169 0004 0830     		adds	r0, r0, #8
 170              	.LVL16:
 171              		.loc 1 21 14 view .LVU37
 172 0006 FFF7FEFF 		bl	_ZN11AudioSlider4tickEv
 173              	.LVL17:
  22:GUI/MixerView.cpp ****     amp2.tick();
 174              		.loc 1 22 5 is_stmt 1 view .LVU38
 175              		.loc 1 22 14 is_stmt 0 view .LVU39
 176 000a 04F11C00 		add	r0, r4, #28
 177 000e FFF7FEFF 		bl	_ZN11AudioSlider4tickEv
 178              	.LVL18:
  23:GUI/MixerView.cpp ****     amp3.tick();
 179              		.loc 1 23 5 is_stmt 1 view .LVU40
 180              		.loc 1 23 14 is_stmt 0 view .LVU41
 181 0012 04F13000 		add	r0, r4, #48
 182 0016 FFF7FEFF 		bl	_ZN11AudioSlider4tickEv
 183              	.LVL19:
  24:GUI/MixerView.cpp ****     amp4.tick();
 184              		.loc 1 24 5 is_stmt 1 view .LVU42
 185              		.loc 1 24 14 is_stmt 0 view .LVU43
 186 001a 04F14400 		add	r0, r4, #68
 187 001e FFF7FEFF 		bl	_ZN11AudioSlider4tickEv
 188              	.LVL20:
  25:GUI/MixerView.cpp **** 
  26:GUI/MixerView.cpp ****     track1.tick();
 189              		.loc 1 26 5 is_stmt 1 view .LVU44
 190              		.loc 1 26 16 is_stmt 0 view .LVU45
 191 0022 04F15800 		add	r0, r4, #88
 192 0026 FFF7FEFF 		bl	_ZN9TrackView4tickEv
 193              	.LVL21:
  27:GUI/MixerView.cpp ****     track2.tick();
 194              		.loc 1 27 5 is_stmt 1 view .LVU46
 195              		.loc 1 27 16 is_stmt 0 view .LVU47
 196 002a 04F5E870 		add	r0, r4, #464
ARM GAS  /var/folders/wz/z09yph4n0qj4t7mjxhl6ttn80000gn/T//ccQVcjDc.s 			page 5


 197 002e FFF7FEFF 		bl	_ZN9TrackView4tickEv
 198              	.LVL22:
  28:GUI/MixerView.cpp ****     track3.tick();
 199              		.loc 1 28 5 is_stmt 1 view .LVU48
 200              		.loc 1 28 16 is_stmt 0 view .LVU49
 201 0032 04F55270 		add	r0, r4, #840
 202 0036 FFF7FEFF 		bl	_ZN9TrackView4tickEv
 203              	.LVL23:
  29:GUI/MixerView.cpp ****     track4.tick();
 204              		.loc 1 29 5 is_stmt 1 view .LVU50
 205              		.loc 1 29 16 is_stmt 0 view .LVU51
 206 003a 04F59860 		add	r0, r4, #1216
  30:GUI/MixerView.cpp **** }
 207              		.loc 1 30 1 view .LVU52
 208 003e BDE81040 		pop	{r4, lr}
 209              		.cfi_restore 14
 210              		.cfi_restore 4
 211              		.cfi_def_cfa_offset 0
 212              	.LVL24:
  29:GUI/MixerView.cpp ****     track4.tick();
 213              		.loc 1 29 16 view .LVU53
 214 0042 FFF7FEBF 		b	_ZN9TrackView4tickEv
 215              	.LVL25:
  29:GUI/MixerView.cpp ****     track4.tick();
 216              		.loc 1 29 16 view .LVU54
 217              		.cfi_endproc
 218              	.LFE5104:
 220              		.section	.text._ZN9MixerView7repaintEv,"ax",%progbits
 221              		.align	1
 222              		.global	_ZN9MixerView7repaintEv
 223              		.syntax unified
 224              		.thumb
 225              		.thumb_func
 227              	_ZN9MixerView7repaintEv:
 228              	.LVL26:
 229              	.LFB5105:
  31:GUI/MixerView.cpp **** 
  32:GUI/MixerView.cpp **** void MixerView::repaint()
  33:GUI/MixerView.cpp **** {
 230              		.loc 1 33 1 is_stmt 1 view -0
 231              		.cfi_startproc
 232              		@ args = 0, pretend = 0, frame = 0
 233              		@ frame_needed = 0, uses_anonymous_args = 0
 234              		@ link register save eliminated.
  34:GUI/MixerView.cpp ****     if(!isOpen)
 235              		.loc 1 34 5 view .LVU56
  35:GUI/MixerView.cpp ****         return;
  36:GUI/MixerView.cpp **** }
 236              		.loc 1 36 1 is_stmt 0 view .LVU57
 237 0000 7047     		bx	lr
 238              		.cfi_endproc
 239              	.LFE5105:
 241              		.section	.text._ZN9MixerView5clearEv,"ax",%progbits
 242              		.align	1
 243              		.global	_ZN9MixerView5clearEv
 244              		.syntax unified
 245              		.thumb
ARM GAS  /var/folders/wz/z09yph4n0qj4t7mjxhl6ttn80000gn/T//ccQVcjDc.s 			page 6


 246              		.thumb_func
 248              	_ZN9MixerView5clearEv:
 249              	.LFB5853:
 250              		.cfi_startproc
 251              		@ args = 0, pretend = 0, frame = 0
 252              		@ frame_needed = 0, uses_anonymous_args = 0
 253              		@ link register save eliminated.
 254 0000 7047     		bx	lr
 255              		.cfi_endproc
 256              	.LFE5853:
 258              		.text
 259              	.Letext0:
 260              		.file 2 "/Library/DaisyToolchain/0.2.0/arm/arm-none-eabi/include/machine/_default_types.h"
 261              		.file 3 "/Library/DaisyToolchain/0.2.0/arm/arm-none-eabi/include/sys/_stdint.h"
 262              		.file 4 "/Library/DaisyToolchain/0.2.0/arm/arm-none-eabi/include/stdint.h"
 263              		.file 5 "/Library/DaisyToolchain/0.2.0/arm/lib/gcc/arm-none-eabi/10.3.1/include/stddef.h"
 264              		.file 6 "/Library/DaisyToolchain/0.2.0/arm/arm-none-eabi/include/c++/10.3.1/cmath"
 265              		.file 7 "/Library/DaisyToolchain/0.2.0/arm/arm-none-eabi/include/c++/10.3.1/bits/std_abs.h"
 266              		.file 8 "/Library/DaisyToolchain/0.2.0/arm/arm-none-eabi/include/c++/10.3.1/cstdlib"
 267              		.file 9 "/Library/DaisyToolchain/0.2.0/arm/arm-none-eabi/include/c++/10.3.1/cstdint"
 268              		.file 10 "/Library/DaisyToolchain/0.2.0/arm/arm-none-eabi/include/c++/10.3.1/type_traits"
 269              		.file 11 "/Library/DaisyToolchain/0.2.0/arm/arm-none-eabi/include/c++/10.3.1/arm-none-eabi/thumb/v
 270              		.file 12 "/Library/DaisyToolchain/0.2.0/arm/arm-none-eabi/include/c++/10.3.1/bits/stl_pair.h"
 271              		.file 13 "/Library/DaisyToolchain/0.2.0/arm/arm-none-eabi/include/c++/10.3.1/debug/debug.h"
 272              		.file 14 "/Library/DaisyToolchain/0.2.0/arm/arm-none-eabi/include/c++/10.3.1/bits/algorithmfwd.h"
 273              		.file 15 "/Library/DaisyToolchain/0.2.0/arm/arm-none-eabi/include/c++/10.3.1/bits/exception_ptr.h"
 274              		.file 16 "/Library/DaisyToolchain/0.2.0/arm/arm-none-eabi/include/c++/10.3.1/cstdarg"
 275              		.file 17 "/Library/DaisyToolchain/0.2.0/arm/arm-none-eabi/include/c++/10.3.1/cstdio"
 276              		.file 18 "/Library/DaisyToolchain/0.2.0/arm/arm-none-eabi/include/c++/10.3.1/cstring"
 277              		.file 19 "/Library/DaisyToolchain/0.2.0/arm/arm-none-eabi/include/c++/10.3.1/cwchar"
 278              		.file 20 "/Library/DaisyToolchain/0.2.0/arm/arm-none-eabi/include/c++/10.3.1/clocale"
 279              		.file 21 "/Library/DaisyToolchain/0.2.0/arm/arm-none-eabi/include/c++/10.3.1/bits/basic_string.h"
 280              		.file 22 "/Library/DaisyToolchain/0.2.0/arm/arm-none-eabi/include/c++/10.3.1/bits/stl_iterator.h"
 281              		.file 23 "/Library/DaisyToolchain/0.2.0/arm/arm-none-eabi/include/c++/10.3.1/bits/uses_allocator.h
 282              		.file 24 "/Library/DaisyToolchain/0.2.0/arm/arm-none-eabi/include/c++/10.3.1/tuple"
 283              		.file 25 "/Library/DaisyToolchain/0.2.0/arm/arm-none-eabi/include/c++/10.3.1/bits/std_function.h"
 284              		.file 26 "/Library/DaisyToolchain/0.2.0/arm/arm-none-eabi/include/c++/10.3.1/functional"
 285              		.file 27 "/Library/DaisyToolchain/0.2.0/arm/arm-none-eabi/include/c++/10.3.1/bits/stl_function.h"
 286              		.file 28 "/Library/DaisyToolchain/0.2.0/arm/arm-none-eabi/include/c++/10.3.1/bits/refwrap.h"
 287              		.file 29 "/Library/DaisyToolchain/0.2.0/arm/arm-none-eabi/include/c++/10.3.1/bits/allocator.h"
 288              		.file 30 "/Library/DaisyToolchain/0.2.0/arm/arm-none-eabi/include/c++/10.3.1/bits/alloc_traits.h"
 289              		.file 31 "/Library/DaisyToolchain/0.2.0/arm/arm-none-eabi/include/c++/10.3.1/bits/stl_vector.h"
 290              		.file 32 "/Library/DaisyToolchain/0.2.0/arm/arm-none-eabi/include/c++/10.3.1/bits/vector.tcc"
 291              		.file 33 "/Library/DaisyToolchain/0.2.0/arm/arm-none-eabi/include/c++/10.3.1/bits/stl_iterator_bas
 292              		.file 34 "/Library/DaisyToolchain/0.2.0/arm/arm-none-eabi/include/c++/10.3.1/bits/predefined_ops.h
 293              		.file 35 "/Library/DaisyToolchain/0.2.0/arm/arm-none-eabi/include/c++/10.3.1/ext/new_allocator.h"
 294              		.file 36 "/Library/DaisyToolchain/0.2.0/arm/arm-none-eabi/include/c++/10.3.1/ext/alloc_traits.h"
 295              		.file 37 "/Library/DaisyToolchain/0.2.0/arm/arm-none-eabi/include/sys/_types.h"
 296              		.file 38 "<built-in>"
 297              		.file 39 "/Library/DaisyToolchain/0.2.0/arm/arm-none-eabi/include/sys/reent.h"
 298              		.file 40 "/Library/DaisyToolchain/0.2.0/arm/arm-none-eabi/include/sys/lock.h"
 299              		.file 41 "/Library/DaisyToolchain/0.2.0/arm/arm-none-eabi/include/math.h"
 300              		.file 42 "/Library/DaisyToolchain/0.2.0/arm/arm-none-eabi/include/stdlib.h"
 301              		.file 43 "/Library/DaisyToolchain/0.2.0/arm/arm-none-eabi/include/c++/10.3.1/math.h"
 302              		.file 44 "/Library/DaisyToolchain/0.2.0/arm/arm-none-eabi/include/c++/10.3.1/stdlib.h"
 303              		.file 45 "../../../libDaisy//src/daisy_core.h"
 304              		.file 46 "../../../libDaisy//src/per/tim.h"
ARM GAS  /var/folders/wz/z09yph4n0qj4t7mjxhl6ttn80000gn/T//ccQVcjDc.s 			page 7


 305              		.file 47 "../../../libDaisy//src/sys/system.h"
 306              		.file 48 "../../../libDaisy//src/per/qspi.h"
 307              		.file 49 "../../../libDaisy//src/per/dac.h"
 308              		.file 50 "../../../libDaisy//src/per/sai.h"
 309              		.file 51 "../../../libDaisy//src/hid/audio.h"
 310              		.file 52 "../../../libDaisy//src/per/adc.h"
 311              		.file 53 "../../../libDaisy//src/hid/usb.h"
 312              		.file 54 "../../../libDaisy//src/hid/switch.h"
 313              		.file 55 "../../../libDaisy//src/per/spi.h"
 314              		.file 56 "../../../libDaisy//src/hid/disp/graphics_common.h"
 315              		.file 57 "../../../libDaisy//src/util/wav_format.h"
 316              		.file 58 "../../../libDaisy//src/dev/max11300.h"
 317              		.file 59 "../../../libDaisy//src/daisy_seed.h"
 318              		.file 60 "../../../libDaisy//src/per/gpio.h"
 319              		.file 61 "../../../libDaisy//src/dev/sdram.h"
 320              		.file 62 "/Library/DaisyToolchain/0.2.0/arm/lib/gcc/arm-none-eabi/10.3.1/include/stdarg.h"
 321              		.file 63 "/Library/DaisyToolchain/0.2.0/arm/arm-none-eabi/include/stdio.h"
 322              		.file 64 "../../../libDaisy//src/util/oled_fonts.h"
 323              		.file 65 "/Library/DaisyToolchain/0.2.0/arm/arm-none-eabi/include/string.h"
 324              		.file 66 "GUI/AudioSlider.h"
 325              		.file 67 "GUI/../Parameters/ParameterIDs.h"
 326              		.file 68 "../../../DaisySP//Source/Control/adenv.h"
 327              		.file 69 "../../../DaisySP//Source/Utility/dsp.h"
 328              		.file 70 "/Library/DaisyToolchain/0.2.0/arm/arm-none-eabi/include/wchar.h"
 329              		.file 71 "/Library/DaisyToolchain/0.2.0/arm/arm-none-eabi/include/locale.h"
 330              		.file 72 "GUI/FX/../../Drivers/../Parameters/SteppedParameter.h"
 331              		.file 73 "GUI/FX/../../Drivers/EncoderDriver.h"
 332              		.file 74 "GUI/FX/../../Drivers/daisy_ILI9341.hpp"
 333              		.file 75 "GUI/FX/../../Drivers/../Parameters/BinaryParameter.h"
 334              		.file 76 "GUI/FX/../../Drivers/KeypadDriver.h"
 335              		.file 77 "GUI/FX/BypassButton.h"
 336              		.file 78 "GUI/FX/SteppedSlider.h"
 337              		.file 79 "GUI/FX/PitchShiftView.h"
 338              		.file 80 "GUI/FX/WaveshaperView.h"
 339              		.file 81 "GUI/FX/FilterView.h"
 340              		.file 82 "GUI/FX/ReverbView.h"
 341              		.file 83 "GUI/FX/DelayView.h"
 342              		.file 84 "GUI/TrackView.h"
 343              		.file 85 "GUI/MixerView.h"
 344              		.file 86 "../../../libDaisy//src/dev/sr_595.h"
ARM GAS  /var/folders/wz/z09yph4n0qj4t7mjxhl6ttn80000gn/T//ccQVcjDc.s 			page 8

