ARM GAS  /var/folders/wz/z09yph4n0qj4t7mjxhl6ttn80000gn/T//ccFqjB4b.s 			page 1


   1              		.cpu cortex-m7
   2              		.arch armv7e-m
   3              		.fpu fpv5-d16
   4              		.eabi_attribute 28, 1
   5              		.eabi_attribute 20, 1
   6              		.eabi_attribute 21, 1
   7              		.eabi_attribute 23, 3
   8              		.eabi_attribute 24, 1
   9              		.eabi_attribute 25, 1
  10              		.eabi_attribute 26, 1
  11              		.eabi_attribute 30, 2
  12              		.eabi_attribute 34, 1
  13              		.eabi_attribute 18, 4
  14              		.file	"Mixer.cpp"
  15              		.text
  16              	.Ltext0:
  17              		.cfi_sections	.debug_frame
  18              		.section	.text._ZN7daisysp9DelayLineIfLj240000EED2Ev,"axG",%progbits,_ZN7daisysp9DelayLineIfLj2400
  19              		.align	1
  20              		.p2align 2,,3
  21              		.weak	_ZN7daisysp9DelayLineIfLj240000EED2Ev
  22              		.syntax unified
  23              		.thumb
  24              		.thumb_func
  26              	_ZN7daisysp9DelayLineIfLj240000EED2Ev:
  27              	.LVL0:
  28              	.LFB5398:
  29              		.file 1 "../../../DaisySP//Source/Utility/delayline.h"
   1:../../../DaisySP//Source/Utility/delayline.h **** #pragma once
   2:../../../DaisySP//Source/Utility/delayline.h **** #ifndef DSY_DELAY_H
   3:../../../DaisySP//Source/Utility/delayline.h **** #define DSY_DELAY_H
   4:../../../DaisySP//Source/Utility/delayline.h **** #include <stdlib.h>
   5:../../../DaisySP//Source/Utility/delayline.h **** #include <stdint.h>
   6:../../../DaisySP//Source/Utility/delayline.h **** namespace daisysp
   7:../../../DaisySP//Source/Utility/delayline.h **** {
   8:../../../DaisySP//Source/Utility/delayline.h **** /** Simple Delay line.
   9:../../../DaisySP//Source/Utility/delayline.h **** November 2019
  10:../../../DaisySP//Source/Utility/delayline.h **** 
  11:../../../DaisySP//Source/Utility/delayline.h **** Converted to Template December 2019
  12:../../../DaisySP//Source/Utility/delayline.h **** 
  13:../../../DaisySP//Source/Utility/delayline.h **** declaration example: (1 second of floats)
  14:../../../DaisySP//Source/Utility/delayline.h **** 
  15:../../../DaisySP//Source/Utility/delayline.h **** DelayLine<float, SAMPLE_RATE> del;
  16:../../../DaisySP//Source/Utility/delayline.h **** 
  17:../../../DaisySP//Source/Utility/delayline.h **** By: shensley
  18:../../../DaisySP//Source/Utility/delayline.h **** */
  19:../../../DaisySP//Source/Utility/delayline.h **** template <typename T, size_t max_size>
  20:../../../DaisySP//Source/Utility/delayline.h **** class DelayLine
  21:../../../DaisySP//Source/Utility/delayline.h **** {
  22:../../../DaisySP//Source/Utility/delayline.h ****   public:
  23:../../../DaisySP//Source/Utility/delayline.h ****     DelayLine() {}
  24:../../../DaisySP//Source/Utility/delayline.h ****     ~DelayLine() {}
  30              		.loc 1 24 5 view -0
  31              		.cfi_startproc
  32              		@ args = 0, pretend = 0, frame = 0
  33              		@ frame_needed = 0, uses_anonymous_args = 0
  34              		@ link register save eliminated.
ARM GAS  /var/folders/wz/z09yph4n0qj4t7mjxhl6ttn80000gn/T//ccFqjB4b.s 			page 2


  35              		.loc 1 24 19 is_stmt 0 view .LVU1
  36 0000 7047     		bx	lr
  37              		.cfi_endproc
  38              	.LFE5398:
  40              		.weak	_ZN7daisysp9DelayLineIfLj240000EED1Ev
  41              		.thumb_set _ZN7daisysp9DelayLineIfLj240000EED1Ev,_ZN7daisysp9DelayLineIfLj240000EED2Ev
  42 0002 00BF     		.section	.text._ZN5Mixer4initEPN5daisy9DaisySeedEPPfS4_S4_S4_S4_,"ax",%progbits
  43              		.align	1
  44              		.p2align 2,,3
  45              		.global	_ZN5Mixer4initEPN5daisy9DaisySeedEPPfS4_S4_S4_S4_
  46              		.syntax unified
  47              		.thumb
  48              		.thumb_func
  50              	_ZN5Mixer4initEPN5daisy9DaisySeedEPPfS4_S4_S4_S4_:
  51              	.LVL1:
  52              	.LFB4799:
  53              		.file 2 "DSP/Mixer.cpp"
   1:DSP/Mixer.cpp **** #include "Mixer.h"
   2:DSP/Mixer.cpp **** 
   3:DSP/Mixer.cpp **** void Mixer::init(daisy::DaisySeed* seed, float* m[2], float* t1[2], float* t2[2], float* t3[2], flo
   4:DSP/Mixer.cpp **** {
  54              		.loc 2 4 1 is_stmt 1 view -0
  55              		.cfi_startproc
  56              		@ args = 12, pretend = 0, frame = 0
  57              		@ frame_needed = 0, uses_anonymous_args = 0
   5:DSP/Mixer.cpp ****     bufferSize = SAMPLERATE * DURATION;
  58              		.loc 2 5 5 view .LVU3
   4:DSP/Mixer.cpp ****     bufferSize = SAMPLERATE * DURATION;
  59              		.loc 2 4 1 is_stmt 0 view .LVU4
  60 0000 F8B5     		push	{r3, r4, r5, r6, r7, lr}
  61              		.cfi_def_cfa_offset 24
  62              		.cfi_offset 3, -24
  63              		.cfi_offset 4, -20
  64              		.cfi_offset 5, -16
  65              		.cfi_offset 6, -12
  66              		.cfi_offset 7, -8
  67              		.cfi_offset 14, -4
   4:DSP/Mixer.cpp ****     bufferSize = SAMPLERATE * DURATION;
  68              		.loc 2 4 1 view .LVU5
  69 0002 0546     		mov	r5, r0
  70              		.loc 2 5 16 view .LVU6
  71 0004 2548     		ldr	r0, .L9
  72              	.LVL2:
   4:DSP/Mixer.cpp ****     bufferSize = SAMPLERATE * DURATION;
  73              		.loc 2 4 1 view .LVU7
  74 0006 1F46     		mov	r7, r3
  75 0008 254B     		ldr	r3, .L9+4
  76              	.LVL3:
  77              		.loc 2 5 16 view .LVU8
  78 000a C5F81801 		str	r0, [r5, #280]
   6:DSP/Mixer.cpp ****     for(int i = 0 ; i < 2 ; i++)
  79              		.loc 2 6 5 is_stmt 1 view .LVU9
  80              	.LVL4:
  81              	.LBB37:
  82              		.loc 2 6 23 view .LVU10
   7:DSP/Mixer.cpp ****         mix[i] = m[i];
  83              		.loc 2 7 9 view .LVU11
ARM GAS  /var/folders/wz/z09yph4n0qj4t7mjxhl6ttn80000gn/T//ccFqjB4b.s 			page 3


  84              	.LBE37:
   4:DSP/Mixer.cpp ****     bufferSize = SAMPLERATE * DURATION;
  85              		.loc 2 4 1 is_stmt 0 view .LVU12
  86 000e 0E46     		mov	r6, r1
  87              	.LBB38:
  88              		.loc 2 7 21 view .LVU13
  89 0010 1068     		ldr	r0, [r2]
  90 0012 0344     		add	r3, r3, r0
  91              		.loc 2 7 16 view .LVU14
  92 0014 C5F81001 		str	r0, [r5, #272]
   6:DSP/Mixer.cpp ****     for(int i = 0 ; i < 2 ; i++)
  93              		.loc 2 6 5 is_stmt 1 view .LVU15
  94              	.LVL5:
   6:DSP/Mixer.cpp ****     for(int i = 0 ; i < 2 ; i++)
  95              		.loc 2 6 23 view .LVU16
  96              		.loc 2 7 9 view .LVU17
  97              		.loc 2 7 21 is_stmt 0 view .LVU18
  98 0018 5468     		ldr	r4, [r2, #4]
  99 001a 224A     		ldr	r2, .L9+8
 100              	.LVL6:
 101              		.loc 2 7 21 view .LVU19
 102 001c 1B1B     		subs	r3, r3, r4
 103              		.loc 2 7 16 view .LVU20
 104 001e C5F81441 		str	r4, [r5, #276]
   6:DSP/Mixer.cpp ****     for(int i = 0 ; i < 2 ; i++)
 105              		.loc 2 6 5 is_stmt 1 view .LVU21
 106              	.LVL7:
   6:DSP/Mixer.cpp ****     for(int i = 0 ; i < 2 ; i++)
 107              		.loc 2 6 23 view .LVU22
   6:DSP/Mixer.cpp ****     for(int i = 0 ; i < 2 ; i++)
 108              		.loc 2 6 23 is_stmt 0 view .LVU23
 109              	.LBE38:
 110              	.LBB39:
   8:DSP/Mixer.cpp **** 
   9:DSP/Mixer.cpp ****     for(size_t j = 0 ; j < bufferSize ; j++)
 111              		.loc 2 9 26 is_stmt 1 view .LVU24
 112 0022 9342     		cmp	r3, r2
 113 0024 2CD9     		bls	.L4
  10:DSP/Mixer.cpp ****     {
  11:DSP/Mixer.cpp ****         mix[L][j] = 0.0f;
 114              		.loc 2 11 19 is_stmt 0 view .LVU25
 115 0026 204A     		ldr	r2, .L9+12
 116 0028 0021     		movs	r1, #0
 117              	.LVL8:
 118              		.loc 2 11 19 view .LVU26
 119 002a FFF7FEFF 		bl	memset
 120              	.LVL9:
  12:DSP/Mixer.cpp ****         mix[R][j] = 0.0f;
 121              		.loc 2 12 19 view .LVU27
 122 002e 1E4A     		ldr	r2, .L9+12
 123 0030 2046     		mov	r0, r4
 124 0032 0021     		movs	r1, #0
 125 0034 FFF7FEFF 		bl	memset
 126              	.LVL10:
 127              	.L5:
 128              		.loc 2 12 19 view .LVU28
 129              	.LBE39:
ARM GAS  /var/folders/wz/z09yph4n0qj4t7mjxhl6ttn80000gn/T//ccFqjB4b.s 			page 4


  13:DSP/Mixer.cpp ****     }
  14:DSP/Mixer.cpp **** 
  15:DSP/Mixer.cpp ****     track1.track.init(t1);
 130              		.loc 2 15 5 is_stmt 1 view .LVU29
 131              		.loc 2 15 22 is_stmt 0 view .LVU30
 132 0038 2846     		mov	r0, r5
 133 003a 3946     		mov	r1, r7
 134 003c FFF7FEFF 		bl	_ZN5Track4initEPPf
 135              	.LVL11:
  16:DSP/Mixer.cpp ****     track2.track.init(t2);
 136              		.loc 2 16 5 is_stmt 1 view .LVU31
 137              		.loc 2 16 22 is_stmt 0 view .LVU32
 138 0040 0699     		ldr	r1, [sp, #24]
 139 0042 05F14400 		add	r0, r5, #68
 140 0046 FFF7FEFF 		bl	_ZN5Track4initEPPf
 141              	.LVL12:
  17:DSP/Mixer.cpp ****     track3.track.init(t3);
 142              		.loc 2 17 5 is_stmt 1 view .LVU33
 143              		.loc 2 17 22 is_stmt 0 view .LVU34
 144 004a 0799     		ldr	r1, [sp, #28]
 145 004c 05F18800 		add	r0, r5, #136
 146 0050 FFF7FEFF 		bl	_ZN5Track4initEPPf
 147              	.LVL13:
  18:DSP/Mixer.cpp ****     track4.track.init(t4);
 148              		.loc 2 18 5 is_stmt 1 view .LVU35
 149              		.loc 2 18 22 is_stmt 0 view .LVU36
 150 0054 0899     		ldr	r1, [sp, #32]
 151 0056 05F1CC00 		add	r0, r5, #204
 152 005a FFF7FEFF 		bl	_ZN5Track4initEPPf
 153              	.LVL14:
  19:DSP/Mixer.cpp **** 
  20:DSP/Mixer.cpp ****     track1.gain.init(seed, 0, 1, LINEAR, ChannelIDs::Amp1);
 154              		.loc 2 20 5 is_stmt 1 view .LVU37
 155              	.LBB40:
 156              	.LBI40:
 157              		.file 3 "DSP/FX/../../Parameters/AudioParameter.h"
   1:DSP/FX/../../Parameters/AudioParameter.h **** #ifndef AUDIO_PARAMETER_H
   2:DSP/FX/../../Parameters/AudioParameter.h **** #define AUDIO_PARAMETER_H
   3:DSP/FX/../../Parameters/AudioParameter.h **** 
   4:DSP/FX/../../Parameters/AudioParameter.h **** #include "daisy_seed.h"
   5:DSP/FX/../../Parameters/AudioParameter.h **** #include "daisysp.h"
   6:DSP/FX/../../Parameters/AudioParameter.h **** #include "../Utils/Helpers.h"
   7:DSP/FX/../../Parameters/AudioParameter.h **** #include "../Utils/Constants.h"
   8:DSP/FX/../../Parameters/AudioParameter.h **** #include <cstdint>
   9:DSP/FX/../../Parameters/AudioParameter.h **** 
  10:DSP/FX/../../Parameters/AudioParameter.h **** /*****************************************************************************//**
  11:DSP/FX/../../Parameters/AudioParameter.h ****  *  Class name: AudioParameter
  12:DSP/FX/../../Parameters/AudioParameter.h ****  *  Function: Parameter object for DSP classes that contains pot boilerplate code
  13:DSP/FX/../../Parameters/AudioParameter.h ****  ********************************************************************************/
  14:DSP/FX/../../Parameters/AudioParameter.h **** 
  15:DSP/FX/../../Parameters/AudioParameter.h **** using namespace daisy;
  16:DSP/FX/../../Parameters/AudioParameter.h **** 
  17:DSP/FX/../../Parameters/AudioParameter.h **** template <class type>
  18:DSP/FX/../../Parameters/AudioParameter.h **** class AudioParameter
  19:DSP/FX/../../Parameters/AudioParameter.h **** {
  20:DSP/FX/../../Parameters/AudioParameter.h **** public:
  21:DSP/FX/../../Parameters/AudioParameter.h **** 
ARM GAS  /var/folders/wz/z09yph4n0qj4t7mjxhl6ttn80000gn/T//ccFqjB4b.s 			page 5


  22:DSP/FX/../../Parameters/AudioParameter.h ****     void init(DaisySeed* seed, type mi, type ma, CurveType c, uint8_t ID)
 158              		.loc 3 22 10 view .LVU38
 159              	.LBB41:
  23:DSP/FX/../../Parameters/AudioParameter.h ****     {
  24:DSP/FX/../../Parameters/AudioParameter.h ****         hw = seed;
  25:DSP/FX/../../Parameters/AudioParameter.h ****         input = 0;
 160              		.loc 3 25 15 is_stmt 0 view .LVU39
 161 005e 0022     		movs	r2, #0
  26:DSP/FX/../../Parameters/AudioParameter.h **** 
  27:DSP/FX/../../Parameters/AudioParameter.h ****         curVal = 0;
  28:DSP/FX/../../Parameters/AudioParameter.h ****         min = mi;
  29:DSP/FX/../../Parameters/AudioParameter.h ****         max = ma;
  30:DSP/FX/../../Parameters/AudioParameter.h **** 
  31:DSP/FX/../../Parameters/AudioParameter.h ****         curve = c;
  32:DSP/FX/../../Parameters/AudioParameter.h ****         channelID = ID;
 162              		.loc 3 32 19 view .LVU40
 163 0060 0023     		movs	r3, #0
  29:DSP/FX/../../Parameters/AudioParameter.h **** 
 164              		.loc 3 29 13 view .LVU41
 165 0062 4FF07E51 		mov	r1, #1065353216
  25:DSP/FX/../../Parameters/AudioParameter.h **** 
 166              		.loc 3 25 15 view .LVU42
 167 0066 EA62     		str	r2, [r5, #44]	@ float
  27:DSP/FX/../../Parameters/AudioParameter.h ****         min = mi;
 168              		.loc 3 27 16 view .LVU43
 169 0068 6A63     		str	r2, [r5, #52]	@ float
  28:DSP/FX/../../Parameters/AudioParameter.h ****         max = ma;
 170              		.loc 3 28 13 view .LVU44
 171 006a AA63     		str	r2, [r5, #56]	@ float
  33:DSP/FX/../../Parameters/AudioParameter.h **** 
  34:DSP/FX/../../Parameters/AudioParameter.h ****         if(channelID != ChannelIDs::Encoder)
  35:DSP/FX/../../Parameters/AudioParameter.h ****             isSelected = true;
 172              		.loc 3 35 24 view .LVU45
 173 006c 0122     		movs	r2, #1
  24:DSP/FX/../../Parameters/AudioParameter.h ****         input = 0;
 174              		.loc 3 24 12 view .LVU46
 175 006e AE62     		str	r6, [r5, #40]
  29:DSP/FX/../../Parameters/AudioParameter.h **** 
 176              		.loc 3 29 13 view .LVU47
 177 0070 E963     		str	r1, [r5, #60]	@ float
  32:DSP/FX/../../Parameters/AudioParameter.h **** 
 178              		.loc 3 32 19 view .LVU48
 179 0072 A5F84030 		strh	r3, [r5, #64]	@ movhi
 180              		.loc 3 35 24 view .LVU49
 181 0076 85F84220 		strb	r2, [r5, #66]
 182              	.LVL15:
 183              		.loc 3 35 24 view .LVU50
 184              	.LBE41:
 185              	.LBE40:
  21:DSP/Mixer.cpp **** 
  22:DSP/Mixer.cpp ****     track1.curSample = std::make_pair(nullptr, nullptr);
 186              		.loc 2 22 5 is_stmt 1 view .LVU51
 187              	.LBB42:
 188              	.LBI42:
 189              		.file 4 "/Library/DaisyToolchain/0.2.0/arm/arm-none-eabi/include/c++/10.3.1/bits/stl_pair.h"
   1:/Library/DaisyToolchain/0.2.0/arm/arm-none-eabi/include/c++/10.3.1/bits/stl_pair.h **** // Pair implementation -*- C++ -*-
   2:/Library/DaisyToolchain/0.2.0/arm/arm-none-eabi/include/c++/10.3.1/bits/stl_pair.h **** 
ARM GAS  /var/folders/wz/z09yph4n0qj4t7mjxhl6ttn80000gn/T//ccFqjB4b.s 			page 6


   3:/Library/DaisyToolchain/0.2.0/arm/arm-none-eabi/include/c++/10.3.1/bits/stl_pair.h **** // Copyright (C) 2001-2020 Free Software Foundation, Inc.
   4:/Library/DaisyToolchain/0.2.0/arm/arm-none-eabi/include/c++/10.3.1/bits/stl_pair.h **** //
   5:/Library/DaisyToolchain/0.2.0/arm/arm-none-eabi/include/c++/10.3.1/bits/stl_pair.h **** // This file is part of the GNU ISO C++ Library.  This library is free
   6:/Library/DaisyToolchain/0.2.0/arm/arm-none-eabi/include/c++/10.3.1/bits/stl_pair.h **** // software; you can redistribute it and/or modify it under the
   7:/Library/DaisyToolchain/0.2.0/arm/arm-none-eabi/include/c++/10.3.1/bits/stl_pair.h **** // terms of the GNU General Public License as published by the
   8:/Library/DaisyToolchain/0.2.0/arm/arm-none-eabi/include/c++/10.3.1/bits/stl_pair.h **** // Free Software Foundation; either version 3, or (at your option)
   9:/Library/DaisyToolchain/0.2.0/arm/arm-none-eabi/include/c++/10.3.1/bits/stl_pair.h **** // any later version.
  10:/Library/DaisyToolchain/0.2.0/arm/arm-none-eabi/include/c++/10.3.1/bits/stl_pair.h **** 
  11:/Library/DaisyToolchain/0.2.0/arm/arm-none-eabi/include/c++/10.3.1/bits/stl_pair.h **** // This library is distributed in the hope that it will be useful,
  12:/Library/DaisyToolchain/0.2.0/arm/arm-none-eabi/include/c++/10.3.1/bits/stl_pair.h **** // but WITHOUT ANY WARRANTY; without even the implied warranty of
  13:/Library/DaisyToolchain/0.2.0/arm/arm-none-eabi/include/c++/10.3.1/bits/stl_pair.h **** // MERCHANTABILITY or FITNESS FOR A PARTICULAR PURPOSE.  See the
  14:/Library/DaisyToolchain/0.2.0/arm/arm-none-eabi/include/c++/10.3.1/bits/stl_pair.h **** // GNU General Public License for more details.
  15:/Library/DaisyToolchain/0.2.0/arm/arm-none-eabi/include/c++/10.3.1/bits/stl_pair.h **** 
  16:/Library/DaisyToolchain/0.2.0/arm/arm-none-eabi/include/c++/10.3.1/bits/stl_pair.h **** // Under Section 7 of GPL version 3, you are granted additional
  17:/Library/DaisyToolchain/0.2.0/arm/arm-none-eabi/include/c++/10.3.1/bits/stl_pair.h **** // permissions described in the GCC Runtime Library Exception, version
  18:/Library/DaisyToolchain/0.2.0/arm/arm-none-eabi/include/c++/10.3.1/bits/stl_pair.h **** // 3.1, as published by the Free Software Foundation.
  19:/Library/DaisyToolchain/0.2.0/arm/arm-none-eabi/include/c++/10.3.1/bits/stl_pair.h **** 
  20:/Library/DaisyToolchain/0.2.0/arm/arm-none-eabi/include/c++/10.3.1/bits/stl_pair.h **** // You should have received a copy of the GNU General Public License and
  21:/Library/DaisyToolchain/0.2.0/arm/arm-none-eabi/include/c++/10.3.1/bits/stl_pair.h **** // a copy of the GCC Runtime Library Exception along with this program;
  22:/Library/DaisyToolchain/0.2.0/arm/arm-none-eabi/include/c++/10.3.1/bits/stl_pair.h **** // see the files COPYING3 and COPYING.RUNTIME respectively.  If not, see
  23:/Library/DaisyToolchain/0.2.0/arm/arm-none-eabi/include/c++/10.3.1/bits/stl_pair.h **** // <http://www.gnu.org/licenses/>.
  24:/Library/DaisyToolchain/0.2.0/arm/arm-none-eabi/include/c++/10.3.1/bits/stl_pair.h **** 
  25:/Library/DaisyToolchain/0.2.0/arm/arm-none-eabi/include/c++/10.3.1/bits/stl_pair.h **** /*
  26:/Library/DaisyToolchain/0.2.0/arm/arm-none-eabi/include/c++/10.3.1/bits/stl_pair.h ****  *
  27:/Library/DaisyToolchain/0.2.0/arm/arm-none-eabi/include/c++/10.3.1/bits/stl_pair.h ****  * Copyright (c) 1994
  28:/Library/DaisyToolchain/0.2.0/arm/arm-none-eabi/include/c++/10.3.1/bits/stl_pair.h ****  * Hewlett-Packard Company
  29:/Library/DaisyToolchain/0.2.0/arm/arm-none-eabi/include/c++/10.3.1/bits/stl_pair.h ****  *
  30:/Library/DaisyToolchain/0.2.0/arm/arm-none-eabi/include/c++/10.3.1/bits/stl_pair.h ****  * Permission to use, copy, modify, distribute and sell this software
  31:/Library/DaisyToolchain/0.2.0/arm/arm-none-eabi/include/c++/10.3.1/bits/stl_pair.h ****  * and its documentation for any purpose is hereby granted without fee,
  32:/Library/DaisyToolchain/0.2.0/arm/arm-none-eabi/include/c++/10.3.1/bits/stl_pair.h ****  * provided that the above copyright notice appear in all copies and
  33:/Library/DaisyToolchain/0.2.0/arm/arm-none-eabi/include/c++/10.3.1/bits/stl_pair.h ****  * that both that copyright notice and this permission notice appear
  34:/Library/DaisyToolchain/0.2.0/arm/arm-none-eabi/include/c++/10.3.1/bits/stl_pair.h ****  * in supporting documentation.  Hewlett-Packard Company makes no
  35:/Library/DaisyToolchain/0.2.0/arm/arm-none-eabi/include/c++/10.3.1/bits/stl_pair.h ****  * representations about the suitability of this software for any
  36:/Library/DaisyToolchain/0.2.0/arm/arm-none-eabi/include/c++/10.3.1/bits/stl_pair.h ****  * purpose.  It is provided "as is" without express or implied warranty.
  37:/Library/DaisyToolchain/0.2.0/arm/arm-none-eabi/include/c++/10.3.1/bits/stl_pair.h ****  *
  38:/Library/DaisyToolchain/0.2.0/arm/arm-none-eabi/include/c++/10.3.1/bits/stl_pair.h ****  *
  39:/Library/DaisyToolchain/0.2.0/arm/arm-none-eabi/include/c++/10.3.1/bits/stl_pair.h ****  * Copyright (c) 1996,1997
  40:/Library/DaisyToolchain/0.2.0/arm/arm-none-eabi/include/c++/10.3.1/bits/stl_pair.h ****  * Silicon Graphics Computer Systems, Inc.
  41:/Library/DaisyToolchain/0.2.0/arm/arm-none-eabi/include/c++/10.3.1/bits/stl_pair.h ****  *
  42:/Library/DaisyToolchain/0.2.0/arm/arm-none-eabi/include/c++/10.3.1/bits/stl_pair.h ****  * Permission to use, copy, modify, distribute and sell this software
  43:/Library/DaisyToolchain/0.2.0/arm/arm-none-eabi/include/c++/10.3.1/bits/stl_pair.h ****  * and its documentation for any purpose is hereby granted without fee,
  44:/Library/DaisyToolchain/0.2.0/arm/arm-none-eabi/include/c++/10.3.1/bits/stl_pair.h ****  * provided that the above copyright notice appear in all copies and
  45:/Library/DaisyToolchain/0.2.0/arm/arm-none-eabi/include/c++/10.3.1/bits/stl_pair.h ****  * that both that copyright notice and this permission notice appear
  46:/Library/DaisyToolchain/0.2.0/arm/arm-none-eabi/include/c++/10.3.1/bits/stl_pair.h ****  * in supporting documentation.  Silicon Graphics makes no
  47:/Library/DaisyToolchain/0.2.0/arm/arm-none-eabi/include/c++/10.3.1/bits/stl_pair.h ****  * representations about the suitability of this software for any
  48:/Library/DaisyToolchain/0.2.0/arm/arm-none-eabi/include/c++/10.3.1/bits/stl_pair.h ****  * purpose.  It is provided "as is" without express or implied warranty.
  49:/Library/DaisyToolchain/0.2.0/arm/arm-none-eabi/include/c++/10.3.1/bits/stl_pair.h ****  */
  50:/Library/DaisyToolchain/0.2.0/arm/arm-none-eabi/include/c++/10.3.1/bits/stl_pair.h **** 
  51:/Library/DaisyToolchain/0.2.0/arm/arm-none-eabi/include/c++/10.3.1/bits/stl_pair.h **** /** @file bits/stl_pair.h
  52:/Library/DaisyToolchain/0.2.0/arm/arm-none-eabi/include/c++/10.3.1/bits/stl_pair.h ****  *  This is an internal header file, included by other library headers.
  53:/Library/DaisyToolchain/0.2.0/arm/arm-none-eabi/include/c++/10.3.1/bits/stl_pair.h ****  *  Do not attempt to use it directly. @headername{utility}
  54:/Library/DaisyToolchain/0.2.0/arm/arm-none-eabi/include/c++/10.3.1/bits/stl_pair.h ****  */
  55:/Library/DaisyToolchain/0.2.0/arm/arm-none-eabi/include/c++/10.3.1/bits/stl_pair.h **** 
  56:/Library/DaisyToolchain/0.2.0/arm/arm-none-eabi/include/c++/10.3.1/bits/stl_pair.h **** #ifndef _STL_PAIR_H
  57:/Library/DaisyToolchain/0.2.0/arm/arm-none-eabi/include/c++/10.3.1/bits/stl_pair.h **** #define _STL_PAIR_H 1
  58:/Library/DaisyToolchain/0.2.0/arm/arm-none-eabi/include/c++/10.3.1/bits/stl_pair.h **** 
  59:/Library/DaisyToolchain/0.2.0/arm/arm-none-eabi/include/c++/10.3.1/bits/stl_pair.h **** #include <bits/move.h> // for std::move / std::forward, and std::swap
ARM GAS  /var/folders/wz/z09yph4n0qj4t7mjxhl6ttn80000gn/T//ccFqjB4b.s 			page 7


  60:/Library/DaisyToolchain/0.2.0/arm/arm-none-eabi/include/c++/10.3.1/bits/stl_pair.h **** 
  61:/Library/DaisyToolchain/0.2.0/arm/arm-none-eabi/include/c++/10.3.1/bits/stl_pair.h **** #if __cplusplus >= 201103L
  62:/Library/DaisyToolchain/0.2.0/arm/arm-none-eabi/include/c++/10.3.1/bits/stl_pair.h **** # include <type_traits> // for std::__decay_and_strip, std::is_reference_v
  63:/Library/DaisyToolchain/0.2.0/arm/arm-none-eabi/include/c++/10.3.1/bits/stl_pair.h **** #endif
  64:/Library/DaisyToolchain/0.2.0/arm/arm-none-eabi/include/c++/10.3.1/bits/stl_pair.h **** #if __cplusplus > 201703L
  65:/Library/DaisyToolchain/0.2.0/arm/arm-none-eabi/include/c++/10.3.1/bits/stl_pair.h **** # include <compare>
  66:/Library/DaisyToolchain/0.2.0/arm/arm-none-eabi/include/c++/10.3.1/bits/stl_pair.h **** # define __cpp_lib_constexpr_utility 201811L
  67:/Library/DaisyToolchain/0.2.0/arm/arm-none-eabi/include/c++/10.3.1/bits/stl_pair.h **** #endif
  68:/Library/DaisyToolchain/0.2.0/arm/arm-none-eabi/include/c++/10.3.1/bits/stl_pair.h **** 
  69:/Library/DaisyToolchain/0.2.0/arm/arm-none-eabi/include/c++/10.3.1/bits/stl_pair.h **** namespace std _GLIBCXX_VISIBILITY(default)
  70:/Library/DaisyToolchain/0.2.0/arm/arm-none-eabi/include/c++/10.3.1/bits/stl_pair.h **** {
  71:/Library/DaisyToolchain/0.2.0/arm/arm-none-eabi/include/c++/10.3.1/bits/stl_pair.h **** _GLIBCXX_BEGIN_NAMESPACE_VERSION
  72:/Library/DaisyToolchain/0.2.0/arm/arm-none-eabi/include/c++/10.3.1/bits/stl_pair.h **** 
  73:/Library/DaisyToolchain/0.2.0/arm/arm-none-eabi/include/c++/10.3.1/bits/stl_pair.h ****   /**
  74:/Library/DaisyToolchain/0.2.0/arm/arm-none-eabi/include/c++/10.3.1/bits/stl_pair.h ****    *  @addtogroup utilities
  75:/Library/DaisyToolchain/0.2.0/arm/arm-none-eabi/include/c++/10.3.1/bits/stl_pair.h ****    *  @{
  76:/Library/DaisyToolchain/0.2.0/arm/arm-none-eabi/include/c++/10.3.1/bits/stl_pair.h ****    */
  77:/Library/DaisyToolchain/0.2.0/arm/arm-none-eabi/include/c++/10.3.1/bits/stl_pair.h **** 
  78:/Library/DaisyToolchain/0.2.0/arm/arm-none-eabi/include/c++/10.3.1/bits/stl_pair.h **** #if __cplusplus >= 201103L
  79:/Library/DaisyToolchain/0.2.0/arm/arm-none-eabi/include/c++/10.3.1/bits/stl_pair.h ****   /// Tag type for piecewise construction of std::pair objects.
  80:/Library/DaisyToolchain/0.2.0/arm/arm-none-eabi/include/c++/10.3.1/bits/stl_pair.h ****   struct piecewise_construct_t { explicit piecewise_construct_t() = default; };
  81:/Library/DaisyToolchain/0.2.0/arm/arm-none-eabi/include/c++/10.3.1/bits/stl_pair.h **** 
  82:/Library/DaisyToolchain/0.2.0/arm/arm-none-eabi/include/c++/10.3.1/bits/stl_pair.h ****   /// Tag for piecewise construction of std::pair objects.
  83:/Library/DaisyToolchain/0.2.0/arm/arm-none-eabi/include/c++/10.3.1/bits/stl_pair.h ****   _GLIBCXX17_INLINE constexpr piecewise_construct_t piecewise_construct =
  84:/Library/DaisyToolchain/0.2.0/arm/arm-none-eabi/include/c++/10.3.1/bits/stl_pair.h ****     piecewise_construct_t();
  85:/Library/DaisyToolchain/0.2.0/arm/arm-none-eabi/include/c++/10.3.1/bits/stl_pair.h **** 
  86:/Library/DaisyToolchain/0.2.0/arm/arm-none-eabi/include/c++/10.3.1/bits/stl_pair.h ****   /// @cond undocumented
  87:/Library/DaisyToolchain/0.2.0/arm/arm-none-eabi/include/c++/10.3.1/bits/stl_pair.h **** 
  88:/Library/DaisyToolchain/0.2.0/arm/arm-none-eabi/include/c++/10.3.1/bits/stl_pair.h ****   // Forward declarations.
  89:/Library/DaisyToolchain/0.2.0/arm/arm-none-eabi/include/c++/10.3.1/bits/stl_pair.h ****   template<typename...>
  90:/Library/DaisyToolchain/0.2.0/arm/arm-none-eabi/include/c++/10.3.1/bits/stl_pair.h ****     class tuple;
  91:/Library/DaisyToolchain/0.2.0/arm/arm-none-eabi/include/c++/10.3.1/bits/stl_pair.h **** 
  92:/Library/DaisyToolchain/0.2.0/arm/arm-none-eabi/include/c++/10.3.1/bits/stl_pair.h ****   template<std::size_t...>
  93:/Library/DaisyToolchain/0.2.0/arm/arm-none-eabi/include/c++/10.3.1/bits/stl_pair.h ****     struct _Index_tuple;
  94:/Library/DaisyToolchain/0.2.0/arm/arm-none-eabi/include/c++/10.3.1/bits/stl_pair.h **** 
  95:/Library/DaisyToolchain/0.2.0/arm/arm-none-eabi/include/c++/10.3.1/bits/stl_pair.h ****   // Concept utility functions, reused in conditionally-explicit
  96:/Library/DaisyToolchain/0.2.0/arm/arm-none-eabi/include/c++/10.3.1/bits/stl_pair.h ****   // constructors.
  97:/Library/DaisyToolchain/0.2.0/arm/arm-none-eabi/include/c++/10.3.1/bits/stl_pair.h ****   // See PR 70437, don't look at is_constructible or
  98:/Library/DaisyToolchain/0.2.0/arm/arm-none-eabi/include/c++/10.3.1/bits/stl_pair.h ****   // is_convertible if the types are the same to
  99:/Library/DaisyToolchain/0.2.0/arm/arm-none-eabi/include/c++/10.3.1/bits/stl_pair.h ****   // avoid querying those properties for incomplete types.
 100:/Library/DaisyToolchain/0.2.0/arm/arm-none-eabi/include/c++/10.3.1/bits/stl_pair.h ****   template <bool, typename _T1, typename _T2>
 101:/Library/DaisyToolchain/0.2.0/arm/arm-none-eabi/include/c++/10.3.1/bits/stl_pair.h ****     struct _PCC
 102:/Library/DaisyToolchain/0.2.0/arm/arm-none-eabi/include/c++/10.3.1/bits/stl_pair.h ****     {
 103:/Library/DaisyToolchain/0.2.0/arm/arm-none-eabi/include/c++/10.3.1/bits/stl_pair.h ****       template <typename _U1, typename _U2>
 104:/Library/DaisyToolchain/0.2.0/arm/arm-none-eabi/include/c++/10.3.1/bits/stl_pair.h ****       static constexpr bool _ConstructiblePair()
 105:/Library/DaisyToolchain/0.2.0/arm/arm-none-eabi/include/c++/10.3.1/bits/stl_pair.h ****       {
 106:/Library/DaisyToolchain/0.2.0/arm/arm-none-eabi/include/c++/10.3.1/bits/stl_pair.h **** 	return __and_<is_constructible<_T1, const _U1&>,
 107:/Library/DaisyToolchain/0.2.0/arm/arm-none-eabi/include/c++/10.3.1/bits/stl_pair.h **** 		      is_constructible<_T2, const _U2&>>::value;
 108:/Library/DaisyToolchain/0.2.0/arm/arm-none-eabi/include/c++/10.3.1/bits/stl_pair.h ****       }
 109:/Library/DaisyToolchain/0.2.0/arm/arm-none-eabi/include/c++/10.3.1/bits/stl_pair.h **** 
 110:/Library/DaisyToolchain/0.2.0/arm/arm-none-eabi/include/c++/10.3.1/bits/stl_pair.h ****       template <typename _U1, typename _U2>
 111:/Library/DaisyToolchain/0.2.0/arm/arm-none-eabi/include/c++/10.3.1/bits/stl_pair.h ****       static constexpr bool _ImplicitlyConvertiblePair()
 112:/Library/DaisyToolchain/0.2.0/arm/arm-none-eabi/include/c++/10.3.1/bits/stl_pair.h ****       {
 113:/Library/DaisyToolchain/0.2.0/arm/arm-none-eabi/include/c++/10.3.1/bits/stl_pair.h **** 	return __and_<is_convertible<const _U1&, _T1>,
 114:/Library/DaisyToolchain/0.2.0/arm/arm-none-eabi/include/c++/10.3.1/bits/stl_pair.h **** 		      is_convertible<const _U2&, _T2>>::value;
 115:/Library/DaisyToolchain/0.2.0/arm/arm-none-eabi/include/c++/10.3.1/bits/stl_pair.h ****       }
 116:/Library/DaisyToolchain/0.2.0/arm/arm-none-eabi/include/c++/10.3.1/bits/stl_pair.h **** 
ARM GAS  /var/folders/wz/z09yph4n0qj4t7mjxhl6ttn80000gn/T//ccFqjB4b.s 			page 8


 117:/Library/DaisyToolchain/0.2.0/arm/arm-none-eabi/include/c++/10.3.1/bits/stl_pair.h ****       template <typename _U1, typename _U2>
 118:/Library/DaisyToolchain/0.2.0/arm/arm-none-eabi/include/c++/10.3.1/bits/stl_pair.h ****       static constexpr bool _MoveConstructiblePair()
 119:/Library/DaisyToolchain/0.2.0/arm/arm-none-eabi/include/c++/10.3.1/bits/stl_pair.h ****       {
 120:/Library/DaisyToolchain/0.2.0/arm/arm-none-eabi/include/c++/10.3.1/bits/stl_pair.h **** 	return __and_<is_constructible<_T1, _U1&&>,
 121:/Library/DaisyToolchain/0.2.0/arm/arm-none-eabi/include/c++/10.3.1/bits/stl_pair.h **** 		      is_constructible<_T2, _U2&&>>::value;
 122:/Library/DaisyToolchain/0.2.0/arm/arm-none-eabi/include/c++/10.3.1/bits/stl_pair.h ****       }
 123:/Library/DaisyToolchain/0.2.0/arm/arm-none-eabi/include/c++/10.3.1/bits/stl_pair.h **** 
 124:/Library/DaisyToolchain/0.2.0/arm/arm-none-eabi/include/c++/10.3.1/bits/stl_pair.h ****       template <typename _U1, typename _U2>
 125:/Library/DaisyToolchain/0.2.0/arm/arm-none-eabi/include/c++/10.3.1/bits/stl_pair.h ****       static constexpr bool _ImplicitlyMoveConvertiblePair()
 126:/Library/DaisyToolchain/0.2.0/arm/arm-none-eabi/include/c++/10.3.1/bits/stl_pair.h ****       {
 127:/Library/DaisyToolchain/0.2.0/arm/arm-none-eabi/include/c++/10.3.1/bits/stl_pair.h **** 	return __and_<is_convertible<_U1&&, _T1>,
 128:/Library/DaisyToolchain/0.2.0/arm/arm-none-eabi/include/c++/10.3.1/bits/stl_pair.h **** 		      is_convertible<_U2&&, _T2>>::value;
 129:/Library/DaisyToolchain/0.2.0/arm/arm-none-eabi/include/c++/10.3.1/bits/stl_pair.h ****       }
 130:/Library/DaisyToolchain/0.2.0/arm/arm-none-eabi/include/c++/10.3.1/bits/stl_pair.h **** 
 131:/Library/DaisyToolchain/0.2.0/arm/arm-none-eabi/include/c++/10.3.1/bits/stl_pair.h ****       template <bool __implicit, typename _U1, typename _U2>
 132:/Library/DaisyToolchain/0.2.0/arm/arm-none-eabi/include/c++/10.3.1/bits/stl_pair.h ****       static constexpr bool _CopyMovePair()
 133:/Library/DaisyToolchain/0.2.0/arm/arm-none-eabi/include/c++/10.3.1/bits/stl_pair.h ****       {
 134:/Library/DaisyToolchain/0.2.0/arm/arm-none-eabi/include/c++/10.3.1/bits/stl_pair.h **** 	using __do_converts = __and_<is_convertible<const _U1&, _T1>,
 135:/Library/DaisyToolchain/0.2.0/arm/arm-none-eabi/include/c++/10.3.1/bits/stl_pair.h **** 				  is_convertible<_U2&&, _T2>>;
 136:/Library/DaisyToolchain/0.2.0/arm/arm-none-eabi/include/c++/10.3.1/bits/stl_pair.h **** 	using __converts = typename conditional<__implicit,
 137:/Library/DaisyToolchain/0.2.0/arm/arm-none-eabi/include/c++/10.3.1/bits/stl_pair.h **** 				       __do_converts,
 138:/Library/DaisyToolchain/0.2.0/arm/arm-none-eabi/include/c++/10.3.1/bits/stl_pair.h **** 				       __not_<__do_converts>>::type;
 139:/Library/DaisyToolchain/0.2.0/arm/arm-none-eabi/include/c++/10.3.1/bits/stl_pair.h **** 	return __and_<is_constructible<_T1, const _U1&>,
 140:/Library/DaisyToolchain/0.2.0/arm/arm-none-eabi/include/c++/10.3.1/bits/stl_pair.h **** 		      is_constructible<_T2, _U2&&>,
 141:/Library/DaisyToolchain/0.2.0/arm/arm-none-eabi/include/c++/10.3.1/bits/stl_pair.h **** 		      __converts
 142:/Library/DaisyToolchain/0.2.0/arm/arm-none-eabi/include/c++/10.3.1/bits/stl_pair.h **** 		      >::value;
 143:/Library/DaisyToolchain/0.2.0/arm/arm-none-eabi/include/c++/10.3.1/bits/stl_pair.h ****       }
 144:/Library/DaisyToolchain/0.2.0/arm/arm-none-eabi/include/c++/10.3.1/bits/stl_pair.h **** 
 145:/Library/DaisyToolchain/0.2.0/arm/arm-none-eabi/include/c++/10.3.1/bits/stl_pair.h ****       template <bool __implicit, typename _U1, typename _U2>
 146:/Library/DaisyToolchain/0.2.0/arm/arm-none-eabi/include/c++/10.3.1/bits/stl_pair.h ****       static constexpr bool _MoveCopyPair()
 147:/Library/DaisyToolchain/0.2.0/arm/arm-none-eabi/include/c++/10.3.1/bits/stl_pair.h ****       {
 148:/Library/DaisyToolchain/0.2.0/arm/arm-none-eabi/include/c++/10.3.1/bits/stl_pair.h **** 	using __do_converts = __and_<is_convertible<_U1&&, _T1>,
 149:/Library/DaisyToolchain/0.2.0/arm/arm-none-eabi/include/c++/10.3.1/bits/stl_pair.h **** 				  is_convertible<const _U2&, _T2>>;
 150:/Library/DaisyToolchain/0.2.0/arm/arm-none-eabi/include/c++/10.3.1/bits/stl_pair.h **** 	using __converts = typename conditional<__implicit,
 151:/Library/DaisyToolchain/0.2.0/arm/arm-none-eabi/include/c++/10.3.1/bits/stl_pair.h **** 				       __do_converts,
 152:/Library/DaisyToolchain/0.2.0/arm/arm-none-eabi/include/c++/10.3.1/bits/stl_pair.h **** 				       __not_<__do_converts>>::type;
 153:/Library/DaisyToolchain/0.2.0/arm/arm-none-eabi/include/c++/10.3.1/bits/stl_pair.h **** 	return __and_<is_constructible<_T1, _U1&&>,
 154:/Library/DaisyToolchain/0.2.0/arm/arm-none-eabi/include/c++/10.3.1/bits/stl_pair.h **** 		      is_constructible<_T2, const _U2&&>,
 155:/Library/DaisyToolchain/0.2.0/arm/arm-none-eabi/include/c++/10.3.1/bits/stl_pair.h **** 		      __converts
 156:/Library/DaisyToolchain/0.2.0/arm/arm-none-eabi/include/c++/10.3.1/bits/stl_pair.h **** 		      >::value;
 157:/Library/DaisyToolchain/0.2.0/arm/arm-none-eabi/include/c++/10.3.1/bits/stl_pair.h ****       }
 158:/Library/DaisyToolchain/0.2.0/arm/arm-none-eabi/include/c++/10.3.1/bits/stl_pair.h ****   };
 159:/Library/DaisyToolchain/0.2.0/arm/arm-none-eabi/include/c++/10.3.1/bits/stl_pair.h **** 
 160:/Library/DaisyToolchain/0.2.0/arm/arm-none-eabi/include/c++/10.3.1/bits/stl_pair.h ****   template <typename _T1, typename _T2>
 161:/Library/DaisyToolchain/0.2.0/arm/arm-none-eabi/include/c++/10.3.1/bits/stl_pair.h ****     struct _PCC<false, _T1, _T2>
 162:/Library/DaisyToolchain/0.2.0/arm/arm-none-eabi/include/c++/10.3.1/bits/stl_pair.h ****     {
 163:/Library/DaisyToolchain/0.2.0/arm/arm-none-eabi/include/c++/10.3.1/bits/stl_pair.h ****       template <typename _U1, typename _U2>
 164:/Library/DaisyToolchain/0.2.0/arm/arm-none-eabi/include/c++/10.3.1/bits/stl_pair.h ****       static constexpr bool _ConstructiblePair()
 165:/Library/DaisyToolchain/0.2.0/arm/arm-none-eabi/include/c++/10.3.1/bits/stl_pair.h ****       {
 166:/Library/DaisyToolchain/0.2.0/arm/arm-none-eabi/include/c++/10.3.1/bits/stl_pair.h **** 	return false;
 167:/Library/DaisyToolchain/0.2.0/arm/arm-none-eabi/include/c++/10.3.1/bits/stl_pair.h ****       }
 168:/Library/DaisyToolchain/0.2.0/arm/arm-none-eabi/include/c++/10.3.1/bits/stl_pair.h **** 
 169:/Library/DaisyToolchain/0.2.0/arm/arm-none-eabi/include/c++/10.3.1/bits/stl_pair.h ****       template <typename _U1, typename _U2>
 170:/Library/DaisyToolchain/0.2.0/arm/arm-none-eabi/include/c++/10.3.1/bits/stl_pair.h ****       static constexpr bool _ImplicitlyConvertiblePair()
 171:/Library/DaisyToolchain/0.2.0/arm/arm-none-eabi/include/c++/10.3.1/bits/stl_pair.h ****       {
 172:/Library/DaisyToolchain/0.2.0/arm/arm-none-eabi/include/c++/10.3.1/bits/stl_pair.h **** 	return false;
 173:/Library/DaisyToolchain/0.2.0/arm/arm-none-eabi/include/c++/10.3.1/bits/stl_pair.h ****       }
ARM GAS  /var/folders/wz/z09yph4n0qj4t7mjxhl6ttn80000gn/T//ccFqjB4b.s 			page 9


 174:/Library/DaisyToolchain/0.2.0/arm/arm-none-eabi/include/c++/10.3.1/bits/stl_pair.h **** 
 175:/Library/DaisyToolchain/0.2.0/arm/arm-none-eabi/include/c++/10.3.1/bits/stl_pair.h ****       template <typename _U1, typename _U2>
 176:/Library/DaisyToolchain/0.2.0/arm/arm-none-eabi/include/c++/10.3.1/bits/stl_pair.h ****       static constexpr bool _MoveConstructiblePair()
 177:/Library/DaisyToolchain/0.2.0/arm/arm-none-eabi/include/c++/10.3.1/bits/stl_pair.h ****       {
 178:/Library/DaisyToolchain/0.2.0/arm/arm-none-eabi/include/c++/10.3.1/bits/stl_pair.h **** 	return false;
 179:/Library/DaisyToolchain/0.2.0/arm/arm-none-eabi/include/c++/10.3.1/bits/stl_pair.h ****       }
 180:/Library/DaisyToolchain/0.2.0/arm/arm-none-eabi/include/c++/10.3.1/bits/stl_pair.h **** 
 181:/Library/DaisyToolchain/0.2.0/arm/arm-none-eabi/include/c++/10.3.1/bits/stl_pair.h ****       template <typename _U1, typename _U2>
 182:/Library/DaisyToolchain/0.2.0/arm/arm-none-eabi/include/c++/10.3.1/bits/stl_pair.h ****       static constexpr bool _ImplicitlyMoveConvertiblePair()
 183:/Library/DaisyToolchain/0.2.0/arm/arm-none-eabi/include/c++/10.3.1/bits/stl_pair.h ****       {
 184:/Library/DaisyToolchain/0.2.0/arm/arm-none-eabi/include/c++/10.3.1/bits/stl_pair.h **** 	return false;
 185:/Library/DaisyToolchain/0.2.0/arm/arm-none-eabi/include/c++/10.3.1/bits/stl_pair.h ****       }
 186:/Library/DaisyToolchain/0.2.0/arm/arm-none-eabi/include/c++/10.3.1/bits/stl_pair.h ****   };
 187:/Library/DaisyToolchain/0.2.0/arm/arm-none-eabi/include/c++/10.3.1/bits/stl_pair.h **** #endif // C++11
 188:/Library/DaisyToolchain/0.2.0/arm/arm-none-eabi/include/c++/10.3.1/bits/stl_pair.h **** 
 189:/Library/DaisyToolchain/0.2.0/arm/arm-none-eabi/include/c++/10.3.1/bits/stl_pair.h ****   template<typename _U1, typename _U2> class __pair_base
 190:/Library/DaisyToolchain/0.2.0/arm/arm-none-eabi/include/c++/10.3.1/bits/stl_pair.h ****   {
 191:/Library/DaisyToolchain/0.2.0/arm/arm-none-eabi/include/c++/10.3.1/bits/stl_pair.h **** #if __cplusplus >= 201103L
 192:/Library/DaisyToolchain/0.2.0/arm/arm-none-eabi/include/c++/10.3.1/bits/stl_pair.h ****     template<typename _T1, typename _T2> friend struct pair;
 193:/Library/DaisyToolchain/0.2.0/arm/arm-none-eabi/include/c++/10.3.1/bits/stl_pair.h ****     __pair_base() = default;
 194:/Library/DaisyToolchain/0.2.0/arm/arm-none-eabi/include/c++/10.3.1/bits/stl_pair.h ****     ~__pair_base() = default;
 195:/Library/DaisyToolchain/0.2.0/arm/arm-none-eabi/include/c++/10.3.1/bits/stl_pair.h ****     __pair_base(const __pair_base&) = default;
 196:/Library/DaisyToolchain/0.2.0/arm/arm-none-eabi/include/c++/10.3.1/bits/stl_pair.h ****     __pair_base& operator=(const __pair_base&) = delete;
 197:/Library/DaisyToolchain/0.2.0/arm/arm-none-eabi/include/c++/10.3.1/bits/stl_pair.h **** #endif // C++11
 198:/Library/DaisyToolchain/0.2.0/arm/arm-none-eabi/include/c++/10.3.1/bits/stl_pair.h ****   };
 199:/Library/DaisyToolchain/0.2.0/arm/arm-none-eabi/include/c++/10.3.1/bits/stl_pair.h **** 
 200:/Library/DaisyToolchain/0.2.0/arm/arm-none-eabi/include/c++/10.3.1/bits/stl_pair.h ****   /// @endcond
 201:/Library/DaisyToolchain/0.2.0/arm/arm-none-eabi/include/c++/10.3.1/bits/stl_pair.h **** 
 202:/Library/DaisyToolchain/0.2.0/arm/arm-none-eabi/include/c++/10.3.1/bits/stl_pair.h ****  /**
 203:/Library/DaisyToolchain/0.2.0/arm/arm-none-eabi/include/c++/10.3.1/bits/stl_pair.h ****    *  @brief Struct holding two objects of arbitrary type.
 204:/Library/DaisyToolchain/0.2.0/arm/arm-none-eabi/include/c++/10.3.1/bits/stl_pair.h ****    *
 205:/Library/DaisyToolchain/0.2.0/arm/arm-none-eabi/include/c++/10.3.1/bits/stl_pair.h ****    *  @tparam _T1  Type of first object.
 206:/Library/DaisyToolchain/0.2.0/arm/arm-none-eabi/include/c++/10.3.1/bits/stl_pair.h ****    *  @tparam _T2  Type of second object.
 207:/Library/DaisyToolchain/0.2.0/arm/arm-none-eabi/include/c++/10.3.1/bits/stl_pair.h ****    *
 208:/Library/DaisyToolchain/0.2.0/arm/arm-none-eabi/include/c++/10.3.1/bits/stl_pair.h ****    *  <https://gcc.gnu.org/onlinedocs/libstdc++/manual/utilities.html>
 209:/Library/DaisyToolchain/0.2.0/arm/arm-none-eabi/include/c++/10.3.1/bits/stl_pair.h ****    */
 210:/Library/DaisyToolchain/0.2.0/arm/arm-none-eabi/include/c++/10.3.1/bits/stl_pair.h ****   template<typename _T1, typename _T2>
 211:/Library/DaisyToolchain/0.2.0/arm/arm-none-eabi/include/c++/10.3.1/bits/stl_pair.h ****     struct pair
 212:/Library/DaisyToolchain/0.2.0/arm/arm-none-eabi/include/c++/10.3.1/bits/stl_pair.h ****     : private __pair_base<_T1, _T2>
 213:/Library/DaisyToolchain/0.2.0/arm/arm-none-eabi/include/c++/10.3.1/bits/stl_pair.h ****     {
 214:/Library/DaisyToolchain/0.2.0/arm/arm-none-eabi/include/c++/10.3.1/bits/stl_pair.h ****       typedef _T1 first_type;    ///< The type of the `first` member
 215:/Library/DaisyToolchain/0.2.0/arm/arm-none-eabi/include/c++/10.3.1/bits/stl_pair.h ****       typedef _T2 second_type;   ///< The type of the `second` member
 216:/Library/DaisyToolchain/0.2.0/arm/arm-none-eabi/include/c++/10.3.1/bits/stl_pair.h **** 
 217:/Library/DaisyToolchain/0.2.0/arm/arm-none-eabi/include/c++/10.3.1/bits/stl_pair.h ****       _T1 first;                 ///< The first member
 218:/Library/DaisyToolchain/0.2.0/arm/arm-none-eabi/include/c++/10.3.1/bits/stl_pair.h ****       _T2 second;                ///< The second member
 219:/Library/DaisyToolchain/0.2.0/arm/arm-none-eabi/include/c++/10.3.1/bits/stl_pair.h **** 
 220:/Library/DaisyToolchain/0.2.0/arm/arm-none-eabi/include/c++/10.3.1/bits/stl_pair.h ****       // _GLIBCXX_RESOLVE_LIB_DEFECTS
 221:/Library/DaisyToolchain/0.2.0/arm/arm-none-eabi/include/c++/10.3.1/bits/stl_pair.h ****       // 265.  std::pair::pair() effects overly restrictive
 222:/Library/DaisyToolchain/0.2.0/arm/arm-none-eabi/include/c++/10.3.1/bits/stl_pair.h ****       /** The default constructor creates @c first and @c second using their
 223:/Library/DaisyToolchain/0.2.0/arm/arm-none-eabi/include/c++/10.3.1/bits/stl_pair.h ****        *  respective default constructors.  */
 224:/Library/DaisyToolchain/0.2.0/arm/arm-none-eabi/include/c++/10.3.1/bits/stl_pair.h **** #if __cplusplus >= 201103L
 225:/Library/DaisyToolchain/0.2.0/arm/arm-none-eabi/include/c++/10.3.1/bits/stl_pair.h ****       template <typename _U1 = _T1,
 226:/Library/DaisyToolchain/0.2.0/arm/arm-none-eabi/include/c++/10.3.1/bits/stl_pair.h ****                 typename _U2 = _T2,
 227:/Library/DaisyToolchain/0.2.0/arm/arm-none-eabi/include/c++/10.3.1/bits/stl_pair.h ****                 typename enable_if<__and_<
 228:/Library/DaisyToolchain/0.2.0/arm/arm-none-eabi/include/c++/10.3.1/bits/stl_pair.h ****                                      __is_implicitly_default_constructible<_U1>,
 229:/Library/DaisyToolchain/0.2.0/arm/arm-none-eabi/include/c++/10.3.1/bits/stl_pair.h ****                                      __is_implicitly_default_constructible<_U2>>
 230:/Library/DaisyToolchain/0.2.0/arm/arm-none-eabi/include/c++/10.3.1/bits/stl_pair.h ****                                    ::value, bool>::type = true>
ARM GAS  /var/folders/wz/z09yph4n0qj4t7mjxhl6ttn80000gn/T//ccFqjB4b.s 			page 10


 231:/Library/DaisyToolchain/0.2.0/arm/arm-none-eabi/include/c++/10.3.1/bits/stl_pair.h **** #endif
 232:/Library/DaisyToolchain/0.2.0/arm/arm-none-eabi/include/c++/10.3.1/bits/stl_pair.h ****       _GLIBCXX_CONSTEXPR pair()
 233:/Library/DaisyToolchain/0.2.0/arm/arm-none-eabi/include/c++/10.3.1/bits/stl_pair.h ****       : first(), second() { }
 234:/Library/DaisyToolchain/0.2.0/arm/arm-none-eabi/include/c++/10.3.1/bits/stl_pair.h **** 
 235:/Library/DaisyToolchain/0.2.0/arm/arm-none-eabi/include/c++/10.3.1/bits/stl_pair.h **** #if __cplusplus >= 201103L
 236:/Library/DaisyToolchain/0.2.0/arm/arm-none-eabi/include/c++/10.3.1/bits/stl_pair.h ****       template <typename _U1 = _T1,
 237:/Library/DaisyToolchain/0.2.0/arm/arm-none-eabi/include/c++/10.3.1/bits/stl_pair.h ****                 typename _U2 = _T2,
 238:/Library/DaisyToolchain/0.2.0/arm/arm-none-eabi/include/c++/10.3.1/bits/stl_pair.h ****                 typename enable_if<__and_<
 239:/Library/DaisyToolchain/0.2.0/arm/arm-none-eabi/include/c++/10.3.1/bits/stl_pair.h ****                        is_default_constructible<_U1>,
 240:/Library/DaisyToolchain/0.2.0/arm/arm-none-eabi/include/c++/10.3.1/bits/stl_pair.h ****                        is_default_constructible<_U2>,
 241:/Library/DaisyToolchain/0.2.0/arm/arm-none-eabi/include/c++/10.3.1/bits/stl_pair.h ****                        __not_<
 242:/Library/DaisyToolchain/0.2.0/arm/arm-none-eabi/include/c++/10.3.1/bits/stl_pair.h ****                          __and_<__is_implicitly_default_constructible<_U1>,
 243:/Library/DaisyToolchain/0.2.0/arm/arm-none-eabi/include/c++/10.3.1/bits/stl_pair.h ****                                 __is_implicitly_default_constructible<_U2>>>>
 244:/Library/DaisyToolchain/0.2.0/arm/arm-none-eabi/include/c++/10.3.1/bits/stl_pair.h ****                                    ::value, bool>::type = false>
 245:/Library/DaisyToolchain/0.2.0/arm/arm-none-eabi/include/c++/10.3.1/bits/stl_pair.h ****       explicit constexpr pair()
 246:/Library/DaisyToolchain/0.2.0/arm/arm-none-eabi/include/c++/10.3.1/bits/stl_pair.h ****       : first(), second() { }
 247:/Library/DaisyToolchain/0.2.0/arm/arm-none-eabi/include/c++/10.3.1/bits/stl_pair.h **** #endif
 248:/Library/DaisyToolchain/0.2.0/arm/arm-none-eabi/include/c++/10.3.1/bits/stl_pair.h **** 
 249:/Library/DaisyToolchain/0.2.0/arm/arm-none-eabi/include/c++/10.3.1/bits/stl_pair.h **** #if __cplusplus < 201103L
 250:/Library/DaisyToolchain/0.2.0/arm/arm-none-eabi/include/c++/10.3.1/bits/stl_pair.h ****       /// Two objects may be passed to a @c pair constructor to be copied.
 251:/Library/DaisyToolchain/0.2.0/arm/arm-none-eabi/include/c++/10.3.1/bits/stl_pair.h ****       pair(const _T1& __a, const _T2& __b)
 252:/Library/DaisyToolchain/0.2.0/arm/arm-none-eabi/include/c++/10.3.1/bits/stl_pair.h ****       : first(__a), second(__b) { }
 253:/Library/DaisyToolchain/0.2.0/arm/arm-none-eabi/include/c++/10.3.1/bits/stl_pair.h **** #else
 254:/Library/DaisyToolchain/0.2.0/arm/arm-none-eabi/include/c++/10.3.1/bits/stl_pair.h ****       // Shortcut for constraining the templates that don't take pairs.
 255:/Library/DaisyToolchain/0.2.0/arm/arm-none-eabi/include/c++/10.3.1/bits/stl_pair.h ****       /// @cond undocumented
 256:/Library/DaisyToolchain/0.2.0/arm/arm-none-eabi/include/c++/10.3.1/bits/stl_pair.h ****       using _PCCP = _PCC<true, _T1, _T2>;
 257:/Library/DaisyToolchain/0.2.0/arm/arm-none-eabi/include/c++/10.3.1/bits/stl_pair.h ****       /// @endcond
 258:/Library/DaisyToolchain/0.2.0/arm/arm-none-eabi/include/c++/10.3.1/bits/stl_pair.h **** 
 259:/Library/DaisyToolchain/0.2.0/arm/arm-none-eabi/include/c++/10.3.1/bits/stl_pair.h ****       /// Construct from two const lvalues, allowing implicit conversions.
 260:/Library/DaisyToolchain/0.2.0/arm/arm-none-eabi/include/c++/10.3.1/bits/stl_pair.h ****       template<typename _U1 = _T1, typename _U2=_T2, typename
 261:/Library/DaisyToolchain/0.2.0/arm/arm-none-eabi/include/c++/10.3.1/bits/stl_pair.h **** 	       enable_if<_PCCP::template
 262:/Library/DaisyToolchain/0.2.0/arm/arm-none-eabi/include/c++/10.3.1/bits/stl_pair.h **** 			   _ConstructiblePair<_U1, _U2>()
 263:/Library/DaisyToolchain/0.2.0/arm/arm-none-eabi/include/c++/10.3.1/bits/stl_pair.h **** 	                 && _PCCP::template
 264:/Library/DaisyToolchain/0.2.0/arm/arm-none-eabi/include/c++/10.3.1/bits/stl_pair.h **** 			   _ImplicitlyConvertiblePair<_U1, _U2>(),
 265:/Library/DaisyToolchain/0.2.0/arm/arm-none-eabi/include/c++/10.3.1/bits/stl_pair.h ****                          bool>::type=true>
 266:/Library/DaisyToolchain/0.2.0/arm/arm-none-eabi/include/c++/10.3.1/bits/stl_pair.h ****       constexpr pair(const _T1& __a, const _T2& __b)
 267:/Library/DaisyToolchain/0.2.0/arm/arm-none-eabi/include/c++/10.3.1/bits/stl_pair.h ****       : first(__a), second(__b) { }
 268:/Library/DaisyToolchain/0.2.0/arm/arm-none-eabi/include/c++/10.3.1/bits/stl_pair.h **** 
 269:/Library/DaisyToolchain/0.2.0/arm/arm-none-eabi/include/c++/10.3.1/bits/stl_pair.h ****       /// Construct from two const lvalues, disallowing implicit conversions.
 270:/Library/DaisyToolchain/0.2.0/arm/arm-none-eabi/include/c++/10.3.1/bits/stl_pair.h ****        template<typename _U1 = _T1, typename _U2=_T2, typename
 271:/Library/DaisyToolchain/0.2.0/arm/arm-none-eabi/include/c++/10.3.1/bits/stl_pair.h **** 		enable_if<_PCCP::template
 272:/Library/DaisyToolchain/0.2.0/arm/arm-none-eabi/include/c++/10.3.1/bits/stl_pair.h **** 			    _ConstructiblePair<_U1, _U2>()
 273:/Library/DaisyToolchain/0.2.0/arm/arm-none-eabi/include/c++/10.3.1/bits/stl_pair.h **** 	                  && !_PCCP::template
 274:/Library/DaisyToolchain/0.2.0/arm/arm-none-eabi/include/c++/10.3.1/bits/stl_pair.h **** 			    _ImplicitlyConvertiblePair<_U1, _U2>(),
 275:/Library/DaisyToolchain/0.2.0/arm/arm-none-eabi/include/c++/10.3.1/bits/stl_pair.h ****                          bool>::type=false>
 276:/Library/DaisyToolchain/0.2.0/arm/arm-none-eabi/include/c++/10.3.1/bits/stl_pair.h ****       explicit constexpr pair(const _T1& __a, const _T2& __b)
 277:/Library/DaisyToolchain/0.2.0/arm/arm-none-eabi/include/c++/10.3.1/bits/stl_pair.h ****       : first(__a), second(__b) { }
 278:/Library/DaisyToolchain/0.2.0/arm/arm-none-eabi/include/c++/10.3.1/bits/stl_pair.h **** #endif
 279:/Library/DaisyToolchain/0.2.0/arm/arm-none-eabi/include/c++/10.3.1/bits/stl_pair.h **** 
 280:/Library/DaisyToolchain/0.2.0/arm/arm-none-eabi/include/c++/10.3.1/bits/stl_pair.h **** #if __cplusplus < 201103L
 281:/Library/DaisyToolchain/0.2.0/arm/arm-none-eabi/include/c++/10.3.1/bits/stl_pair.h ****       /// There is also a templated constructor to convert from other pairs.
 282:/Library/DaisyToolchain/0.2.0/arm/arm-none-eabi/include/c++/10.3.1/bits/stl_pair.h ****       template<typename _U1, typename _U2>
 283:/Library/DaisyToolchain/0.2.0/arm/arm-none-eabi/include/c++/10.3.1/bits/stl_pair.h **** 	pair(const pair<_U1, _U2>& __p)
 284:/Library/DaisyToolchain/0.2.0/arm/arm-none-eabi/include/c++/10.3.1/bits/stl_pair.h **** 	: first(__p.first), second(__p.second) { }
 285:/Library/DaisyToolchain/0.2.0/arm/arm-none-eabi/include/c++/10.3.1/bits/stl_pair.h **** #else
 286:/Library/DaisyToolchain/0.2.0/arm/arm-none-eabi/include/c++/10.3.1/bits/stl_pair.h ****       // Shortcut for constraining the templates that take pairs.
 287:/Library/DaisyToolchain/0.2.0/arm/arm-none-eabi/include/c++/10.3.1/bits/stl_pair.h ****       /// @cond undocumented
ARM GAS  /var/folders/wz/z09yph4n0qj4t7mjxhl6ttn80000gn/T//ccFqjB4b.s 			page 11


 288:/Library/DaisyToolchain/0.2.0/arm/arm-none-eabi/include/c++/10.3.1/bits/stl_pair.h ****       template <typename _U1, typename _U2>
 289:/Library/DaisyToolchain/0.2.0/arm/arm-none-eabi/include/c++/10.3.1/bits/stl_pair.h ****         using _PCCFP = _PCC<!is_same<_T1, _U1>::value
 290:/Library/DaisyToolchain/0.2.0/arm/arm-none-eabi/include/c++/10.3.1/bits/stl_pair.h **** 			    || !is_same<_T2, _U2>::value,
 291:/Library/DaisyToolchain/0.2.0/arm/arm-none-eabi/include/c++/10.3.1/bits/stl_pair.h **** 			    _T1, _T2>;
 292:/Library/DaisyToolchain/0.2.0/arm/arm-none-eabi/include/c++/10.3.1/bits/stl_pair.h ****       /// @endcond
 293:/Library/DaisyToolchain/0.2.0/arm/arm-none-eabi/include/c++/10.3.1/bits/stl_pair.h **** 
 294:/Library/DaisyToolchain/0.2.0/arm/arm-none-eabi/include/c++/10.3.1/bits/stl_pair.h ****       template<typename _U1, typename _U2, typename
 295:/Library/DaisyToolchain/0.2.0/arm/arm-none-eabi/include/c++/10.3.1/bits/stl_pair.h **** 	       enable_if<_PCCFP<_U1, _U2>::template
 296:/Library/DaisyToolchain/0.2.0/arm/arm-none-eabi/include/c++/10.3.1/bits/stl_pair.h **** 			   _ConstructiblePair<_U1, _U2>()
 297:/Library/DaisyToolchain/0.2.0/arm/arm-none-eabi/include/c++/10.3.1/bits/stl_pair.h **** 	                 && _PCCFP<_U1, _U2>::template
 298:/Library/DaisyToolchain/0.2.0/arm/arm-none-eabi/include/c++/10.3.1/bits/stl_pair.h **** 			   _ImplicitlyConvertiblePair<_U1, _U2>(),
 299:/Library/DaisyToolchain/0.2.0/arm/arm-none-eabi/include/c++/10.3.1/bits/stl_pair.h **** 			  bool>::type=true>
 300:/Library/DaisyToolchain/0.2.0/arm/arm-none-eabi/include/c++/10.3.1/bits/stl_pair.h ****         constexpr pair(const pair<_U1, _U2>& __p)
 301:/Library/DaisyToolchain/0.2.0/arm/arm-none-eabi/include/c++/10.3.1/bits/stl_pair.h ****         : first(__p.first), second(__p.second) { }
 302:/Library/DaisyToolchain/0.2.0/arm/arm-none-eabi/include/c++/10.3.1/bits/stl_pair.h **** 
 303:/Library/DaisyToolchain/0.2.0/arm/arm-none-eabi/include/c++/10.3.1/bits/stl_pair.h ****       template<typename _U1, typename _U2, typename
 304:/Library/DaisyToolchain/0.2.0/arm/arm-none-eabi/include/c++/10.3.1/bits/stl_pair.h **** 	       enable_if<_PCCFP<_U1, _U2>::template
 305:/Library/DaisyToolchain/0.2.0/arm/arm-none-eabi/include/c++/10.3.1/bits/stl_pair.h **** 			   _ConstructiblePair<_U1, _U2>()
 306:/Library/DaisyToolchain/0.2.0/arm/arm-none-eabi/include/c++/10.3.1/bits/stl_pair.h **** 			 && !_PCCFP<_U1, _U2>::template
 307:/Library/DaisyToolchain/0.2.0/arm/arm-none-eabi/include/c++/10.3.1/bits/stl_pair.h **** 			   _ImplicitlyConvertiblePair<_U1, _U2>(),
 308:/Library/DaisyToolchain/0.2.0/arm/arm-none-eabi/include/c++/10.3.1/bits/stl_pair.h ****                          bool>::type=false>
 309:/Library/DaisyToolchain/0.2.0/arm/arm-none-eabi/include/c++/10.3.1/bits/stl_pair.h **** 	explicit constexpr pair(const pair<_U1, _U2>& __p)
 310:/Library/DaisyToolchain/0.2.0/arm/arm-none-eabi/include/c++/10.3.1/bits/stl_pair.h **** 	: first(__p.first), second(__p.second) { }
 311:/Library/DaisyToolchain/0.2.0/arm/arm-none-eabi/include/c++/10.3.1/bits/stl_pair.h **** #endif
 312:/Library/DaisyToolchain/0.2.0/arm/arm-none-eabi/include/c++/10.3.1/bits/stl_pair.h **** 
 313:/Library/DaisyToolchain/0.2.0/arm/arm-none-eabi/include/c++/10.3.1/bits/stl_pair.h **** #if __cplusplus >= 201103L
 314:/Library/DaisyToolchain/0.2.0/arm/arm-none-eabi/include/c++/10.3.1/bits/stl_pair.h ****       constexpr pair(const pair&) = default;	///< Copy constructor
 315:/Library/DaisyToolchain/0.2.0/arm/arm-none-eabi/include/c++/10.3.1/bits/stl_pair.h ****       constexpr pair(pair&&) = default;		///< Move constructor
 316:/Library/DaisyToolchain/0.2.0/arm/arm-none-eabi/include/c++/10.3.1/bits/stl_pair.h **** 
 317:/Library/DaisyToolchain/0.2.0/arm/arm-none-eabi/include/c++/10.3.1/bits/stl_pair.h ****       // DR 811.
 318:/Library/DaisyToolchain/0.2.0/arm/arm-none-eabi/include/c++/10.3.1/bits/stl_pair.h ****       template<typename _U1, typename
 319:/Library/DaisyToolchain/0.2.0/arm/arm-none-eabi/include/c++/10.3.1/bits/stl_pair.h **** 	       enable_if<_PCCP::template
 320:/Library/DaisyToolchain/0.2.0/arm/arm-none-eabi/include/c++/10.3.1/bits/stl_pair.h **** 			   _MoveCopyPair<true, _U1, _T2>(),
 321:/Library/DaisyToolchain/0.2.0/arm/arm-none-eabi/include/c++/10.3.1/bits/stl_pair.h ****                          bool>::type=true>
 322:/Library/DaisyToolchain/0.2.0/arm/arm-none-eabi/include/c++/10.3.1/bits/stl_pair.h ****        constexpr pair(_U1&& __x, const _T2& __y)
 323:/Library/DaisyToolchain/0.2.0/arm/arm-none-eabi/include/c++/10.3.1/bits/stl_pair.h ****        : first(std::forward<_U1>(__x)), second(__y) { }
 324:/Library/DaisyToolchain/0.2.0/arm/arm-none-eabi/include/c++/10.3.1/bits/stl_pair.h **** 
 325:/Library/DaisyToolchain/0.2.0/arm/arm-none-eabi/include/c++/10.3.1/bits/stl_pair.h ****       template<typename _U1, typename
 326:/Library/DaisyToolchain/0.2.0/arm/arm-none-eabi/include/c++/10.3.1/bits/stl_pair.h **** 	       enable_if<_PCCP::template
 327:/Library/DaisyToolchain/0.2.0/arm/arm-none-eabi/include/c++/10.3.1/bits/stl_pair.h **** 			   _MoveCopyPair<false, _U1, _T2>(),
 328:/Library/DaisyToolchain/0.2.0/arm/arm-none-eabi/include/c++/10.3.1/bits/stl_pair.h ****                          bool>::type=false>
 329:/Library/DaisyToolchain/0.2.0/arm/arm-none-eabi/include/c++/10.3.1/bits/stl_pair.h ****        explicit constexpr pair(_U1&& __x, const _T2& __y)
 330:/Library/DaisyToolchain/0.2.0/arm/arm-none-eabi/include/c++/10.3.1/bits/stl_pair.h ****        : first(std::forward<_U1>(__x)), second(__y) { }
 331:/Library/DaisyToolchain/0.2.0/arm/arm-none-eabi/include/c++/10.3.1/bits/stl_pair.h **** 
 332:/Library/DaisyToolchain/0.2.0/arm/arm-none-eabi/include/c++/10.3.1/bits/stl_pair.h ****       template<typename _U2, typename
 333:/Library/DaisyToolchain/0.2.0/arm/arm-none-eabi/include/c++/10.3.1/bits/stl_pair.h **** 	       enable_if<_PCCP::template
 334:/Library/DaisyToolchain/0.2.0/arm/arm-none-eabi/include/c++/10.3.1/bits/stl_pair.h **** 			   _CopyMovePair<true, _T1, _U2>(),
 335:/Library/DaisyToolchain/0.2.0/arm/arm-none-eabi/include/c++/10.3.1/bits/stl_pair.h ****                          bool>::type=true>
 336:/Library/DaisyToolchain/0.2.0/arm/arm-none-eabi/include/c++/10.3.1/bits/stl_pair.h ****        constexpr pair(const _T1& __x, _U2&& __y)
 337:/Library/DaisyToolchain/0.2.0/arm/arm-none-eabi/include/c++/10.3.1/bits/stl_pair.h ****        : first(__x), second(std::forward<_U2>(__y)) { }
 338:/Library/DaisyToolchain/0.2.0/arm/arm-none-eabi/include/c++/10.3.1/bits/stl_pair.h **** 
 339:/Library/DaisyToolchain/0.2.0/arm/arm-none-eabi/include/c++/10.3.1/bits/stl_pair.h ****       template<typename _U2, typename
 340:/Library/DaisyToolchain/0.2.0/arm/arm-none-eabi/include/c++/10.3.1/bits/stl_pair.h **** 	       enable_if<_PCCP::template
 341:/Library/DaisyToolchain/0.2.0/arm/arm-none-eabi/include/c++/10.3.1/bits/stl_pair.h **** 			   _CopyMovePair<false, _T1, _U2>(),
 342:/Library/DaisyToolchain/0.2.0/arm/arm-none-eabi/include/c++/10.3.1/bits/stl_pair.h ****                          bool>::type=false>
 343:/Library/DaisyToolchain/0.2.0/arm/arm-none-eabi/include/c++/10.3.1/bits/stl_pair.h ****        explicit pair(const _T1& __x, _U2&& __y)
 344:/Library/DaisyToolchain/0.2.0/arm/arm-none-eabi/include/c++/10.3.1/bits/stl_pair.h ****        : first(__x), second(std::forward<_U2>(__y)) { }
ARM GAS  /var/folders/wz/z09yph4n0qj4t7mjxhl6ttn80000gn/T//ccFqjB4b.s 			page 12


 345:/Library/DaisyToolchain/0.2.0/arm/arm-none-eabi/include/c++/10.3.1/bits/stl_pair.h **** 
 346:/Library/DaisyToolchain/0.2.0/arm/arm-none-eabi/include/c++/10.3.1/bits/stl_pair.h ****       template<typename _U1, typename _U2, typename
 347:/Library/DaisyToolchain/0.2.0/arm/arm-none-eabi/include/c++/10.3.1/bits/stl_pair.h **** 	       enable_if<_PCCP::template
 348:/Library/DaisyToolchain/0.2.0/arm/arm-none-eabi/include/c++/10.3.1/bits/stl_pair.h **** 			   _MoveConstructiblePair<_U1, _U2>()
 349:/Library/DaisyToolchain/0.2.0/arm/arm-none-eabi/include/c++/10.3.1/bits/stl_pair.h **** 			  && _PCCP::template
 350:/Library/DaisyToolchain/0.2.0/arm/arm-none-eabi/include/c++/10.3.1/bits/stl_pair.h **** 			   _ImplicitlyMoveConvertiblePair<_U1, _U2>(),
 351:/Library/DaisyToolchain/0.2.0/arm/arm-none-eabi/include/c++/10.3.1/bits/stl_pair.h ****                          bool>::type=true>
 352:/Library/DaisyToolchain/0.2.0/arm/arm-none-eabi/include/c++/10.3.1/bits/stl_pair.h **** 	constexpr pair(_U1&& __x, _U2&& __y)
 353:/Library/DaisyToolchain/0.2.0/arm/arm-none-eabi/include/c++/10.3.1/bits/stl_pair.h **** 	: first(std::forward<_U1>(__x)), second(std::forward<_U2>(__y)) { }
 354:/Library/DaisyToolchain/0.2.0/arm/arm-none-eabi/include/c++/10.3.1/bits/stl_pair.h **** 
 355:/Library/DaisyToolchain/0.2.0/arm/arm-none-eabi/include/c++/10.3.1/bits/stl_pair.h ****       template<typename _U1, typename _U2, typename
 356:/Library/DaisyToolchain/0.2.0/arm/arm-none-eabi/include/c++/10.3.1/bits/stl_pair.h **** 	       enable_if<_PCCP::template
 357:/Library/DaisyToolchain/0.2.0/arm/arm-none-eabi/include/c++/10.3.1/bits/stl_pair.h **** 			   _MoveConstructiblePair<_U1, _U2>()
 358:/Library/DaisyToolchain/0.2.0/arm/arm-none-eabi/include/c++/10.3.1/bits/stl_pair.h **** 			  && !_PCCP::template
 359:/Library/DaisyToolchain/0.2.0/arm/arm-none-eabi/include/c++/10.3.1/bits/stl_pair.h **** 			   _ImplicitlyMoveConvertiblePair<_U1, _U2>(),
 360:/Library/DaisyToolchain/0.2.0/arm/arm-none-eabi/include/c++/10.3.1/bits/stl_pair.h ****                          bool>::type=false>
 361:/Library/DaisyToolchain/0.2.0/arm/arm-none-eabi/include/c++/10.3.1/bits/stl_pair.h **** 	explicit constexpr pair(_U1&& __x, _U2&& __y)
 362:/Library/DaisyToolchain/0.2.0/arm/arm-none-eabi/include/c++/10.3.1/bits/stl_pair.h **** 	: first(std::forward<_U1>(__x)), second(std::forward<_U2>(__y)) { }
 363:/Library/DaisyToolchain/0.2.0/arm/arm-none-eabi/include/c++/10.3.1/bits/stl_pair.h **** 
 364:/Library/DaisyToolchain/0.2.0/arm/arm-none-eabi/include/c++/10.3.1/bits/stl_pair.h **** 
 365:/Library/DaisyToolchain/0.2.0/arm/arm-none-eabi/include/c++/10.3.1/bits/stl_pair.h ****       template<typename _U1, typename _U2, typename
 366:/Library/DaisyToolchain/0.2.0/arm/arm-none-eabi/include/c++/10.3.1/bits/stl_pair.h **** 	       enable_if<_PCCFP<_U1, _U2>::template
 367:/Library/DaisyToolchain/0.2.0/arm/arm-none-eabi/include/c++/10.3.1/bits/stl_pair.h **** 			   _MoveConstructiblePair<_U1, _U2>()
 368:/Library/DaisyToolchain/0.2.0/arm/arm-none-eabi/include/c++/10.3.1/bits/stl_pair.h **** 			  && _PCCFP<_U1, _U2>::template
 369:/Library/DaisyToolchain/0.2.0/arm/arm-none-eabi/include/c++/10.3.1/bits/stl_pair.h **** 			   _ImplicitlyMoveConvertiblePair<_U1, _U2>(),
 370:/Library/DaisyToolchain/0.2.0/arm/arm-none-eabi/include/c++/10.3.1/bits/stl_pair.h ****                          bool>::type=true>
 371:/Library/DaisyToolchain/0.2.0/arm/arm-none-eabi/include/c++/10.3.1/bits/stl_pair.h **** 	constexpr pair(pair<_U1, _U2>&& __p)
 372:/Library/DaisyToolchain/0.2.0/arm/arm-none-eabi/include/c++/10.3.1/bits/stl_pair.h **** 	: first(std::forward<_U1>(__p.first)),
 373:/Library/DaisyToolchain/0.2.0/arm/arm-none-eabi/include/c++/10.3.1/bits/stl_pair.h **** 	  second(std::forward<_U2>(__p.second)) { }
 374:/Library/DaisyToolchain/0.2.0/arm/arm-none-eabi/include/c++/10.3.1/bits/stl_pair.h **** 
 375:/Library/DaisyToolchain/0.2.0/arm/arm-none-eabi/include/c++/10.3.1/bits/stl_pair.h ****       template<typename _U1, typename _U2, typename
 376:/Library/DaisyToolchain/0.2.0/arm/arm-none-eabi/include/c++/10.3.1/bits/stl_pair.h **** 	       enable_if<_PCCFP<_U1, _U2>::template
 377:/Library/DaisyToolchain/0.2.0/arm/arm-none-eabi/include/c++/10.3.1/bits/stl_pair.h **** 			   _MoveConstructiblePair<_U1, _U2>()
 378:/Library/DaisyToolchain/0.2.0/arm/arm-none-eabi/include/c++/10.3.1/bits/stl_pair.h **** 			  && !_PCCFP<_U1, _U2>::template
 379:/Library/DaisyToolchain/0.2.0/arm/arm-none-eabi/include/c++/10.3.1/bits/stl_pair.h **** 			   _ImplicitlyMoveConvertiblePair<_U1, _U2>(),
 380:/Library/DaisyToolchain/0.2.0/arm/arm-none-eabi/include/c++/10.3.1/bits/stl_pair.h ****                          bool>::type=false>
 381:/Library/DaisyToolchain/0.2.0/arm/arm-none-eabi/include/c++/10.3.1/bits/stl_pair.h **** 	explicit constexpr pair(pair<_U1, _U2>&& __p)
 382:/Library/DaisyToolchain/0.2.0/arm/arm-none-eabi/include/c++/10.3.1/bits/stl_pair.h **** 	: first(std::forward<_U1>(__p.first)),
 383:/Library/DaisyToolchain/0.2.0/arm/arm-none-eabi/include/c++/10.3.1/bits/stl_pair.h **** 	  second(std::forward<_U2>(__p.second)) { }
 384:/Library/DaisyToolchain/0.2.0/arm/arm-none-eabi/include/c++/10.3.1/bits/stl_pair.h **** 
 385:/Library/DaisyToolchain/0.2.0/arm/arm-none-eabi/include/c++/10.3.1/bits/stl_pair.h ****       template<typename... _Args1, typename... _Args2>
 386:/Library/DaisyToolchain/0.2.0/arm/arm-none-eabi/include/c++/10.3.1/bits/stl_pair.h **** 	_GLIBCXX20_CONSTEXPR
 387:/Library/DaisyToolchain/0.2.0/arm/arm-none-eabi/include/c++/10.3.1/bits/stl_pair.h ****         pair(piecewise_construct_t, tuple<_Args1...>, tuple<_Args2...>);
 388:/Library/DaisyToolchain/0.2.0/arm/arm-none-eabi/include/c++/10.3.1/bits/stl_pair.h **** 
 389:/Library/DaisyToolchain/0.2.0/arm/arm-none-eabi/include/c++/10.3.1/bits/stl_pair.h ****       _GLIBCXX20_CONSTEXPR pair&
 390:/Library/DaisyToolchain/0.2.0/arm/arm-none-eabi/include/c++/10.3.1/bits/stl_pair.h ****       operator=(typename conditional<
 391:/Library/DaisyToolchain/0.2.0/arm/arm-none-eabi/include/c++/10.3.1/bits/stl_pair.h **** 		__and_<is_copy_assignable<_T1>,
 392:/Library/DaisyToolchain/0.2.0/arm/arm-none-eabi/include/c++/10.3.1/bits/stl_pair.h **** 		       is_copy_assignable<_T2>>::value,
 393:/Library/DaisyToolchain/0.2.0/arm/arm-none-eabi/include/c++/10.3.1/bits/stl_pair.h **** 		const pair&, const __nonesuch&>::type __p)
 394:/Library/DaisyToolchain/0.2.0/arm/arm-none-eabi/include/c++/10.3.1/bits/stl_pair.h ****       {
 395:/Library/DaisyToolchain/0.2.0/arm/arm-none-eabi/include/c++/10.3.1/bits/stl_pair.h **** 	first = __p.first;
 396:/Library/DaisyToolchain/0.2.0/arm/arm-none-eabi/include/c++/10.3.1/bits/stl_pair.h **** 	second = __p.second;
 397:/Library/DaisyToolchain/0.2.0/arm/arm-none-eabi/include/c++/10.3.1/bits/stl_pair.h **** 	return *this;
 398:/Library/DaisyToolchain/0.2.0/arm/arm-none-eabi/include/c++/10.3.1/bits/stl_pair.h ****       }
 399:/Library/DaisyToolchain/0.2.0/arm/arm-none-eabi/include/c++/10.3.1/bits/stl_pair.h **** 
 400:/Library/DaisyToolchain/0.2.0/arm/arm-none-eabi/include/c++/10.3.1/bits/stl_pair.h ****       _GLIBCXX20_CONSTEXPR pair&
 401:/Library/DaisyToolchain/0.2.0/arm/arm-none-eabi/include/c++/10.3.1/bits/stl_pair.h ****       operator=(typename conditional<
ARM GAS  /var/folders/wz/z09yph4n0qj4t7mjxhl6ttn80000gn/T//ccFqjB4b.s 			page 13


 402:/Library/DaisyToolchain/0.2.0/arm/arm-none-eabi/include/c++/10.3.1/bits/stl_pair.h **** 		__and_<is_move_assignable<_T1>,
 403:/Library/DaisyToolchain/0.2.0/arm/arm-none-eabi/include/c++/10.3.1/bits/stl_pair.h **** 		       is_move_assignable<_T2>>::value,
 404:/Library/DaisyToolchain/0.2.0/arm/arm-none-eabi/include/c++/10.3.1/bits/stl_pair.h **** 		pair&&, __nonesuch&&>::type __p)
 405:/Library/DaisyToolchain/0.2.0/arm/arm-none-eabi/include/c++/10.3.1/bits/stl_pair.h ****       noexcept(__and_<is_nothrow_move_assignable<_T1>,
 406:/Library/DaisyToolchain/0.2.0/arm/arm-none-eabi/include/c++/10.3.1/bits/stl_pair.h **** 		      is_nothrow_move_assignable<_T2>>::value)
 407:/Library/DaisyToolchain/0.2.0/arm/arm-none-eabi/include/c++/10.3.1/bits/stl_pair.h ****       {
 408:/Library/DaisyToolchain/0.2.0/arm/arm-none-eabi/include/c++/10.3.1/bits/stl_pair.h **** 	first = std::forward<first_type>(__p.first);
 409:/Library/DaisyToolchain/0.2.0/arm/arm-none-eabi/include/c++/10.3.1/bits/stl_pair.h **** 	second = std::forward<second_type>(__p.second);
 410:/Library/DaisyToolchain/0.2.0/arm/arm-none-eabi/include/c++/10.3.1/bits/stl_pair.h **** 	return *this;
 411:/Library/DaisyToolchain/0.2.0/arm/arm-none-eabi/include/c++/10.3.1/bits/stl_pair.h ****       }
 412:/Library/DaisyToolchain/0.2.0/arm/arm-none-eabi/include/c++/10.3.1/bits/stl_pair.h **** 
 413:/Library/DaisyToolchain/0.2.0/arm/arm-none-eabi/include/c++/10.3.1/bits/stl_pair.h ****       template<typename _U1, typename _U2>
 414:/Library/DaisyToolchain/0.2.0/arm/arm-none-eabi/include/c++/10.3.1/bits/stl_pair.h **** 	_GLIBCXX20_CONSTEXPR
 415:/Library/DaisyToolchain/0.2.0/arm/arm-none-eabi/include/c++/10.3.1/bits/stl_pair.h **** 	typename enable_if<__and_<is_assignable<_T1&, const _U1&>,
 416:/Library/DaisyToolchain/0.2.0/arm/arm-none-eabi/include/c++/10.3.1/bits/stl_pair.h **** 				  is_assignable<_T2&, const _U2&>>::value,
 417:/Library/DaisyToolchain/0.2.0/arm/arm-none-eabi/include/c++/10.3.1/bits/stl_pair.h **** 			   pair&>::type
 418:/Library/DaisyToolchain/0.2.0/arm/arm-none-eabi/include/c++/10.3.1/bits/stl_pair.h **** 	operator=(const pair<_U1, _U2>& __p)
 419:/Library/DaisyToolchain/0.2.0/arm/arm-none-eabi/include/c++/10.3.1/bits/stl_pair.h **** 	{
 420:/Library/DaisyToolchain/0.2.0/arm/arm-none-eabi/include/c++/10.3.1/bits/stl_pair.h **** 	  first = __p.first;
 421:/Library/DaisyToolchain/0.2.0/arm/arm-none-eabi/include/c++/10.3.1/bits/stl_pair.h **** 	  second = __p.second;
 422:/Library/DaisyToolchain/0.2.0/arm/arm-none-eabi/include/c++/10.3.1/bits/stl_pair.h **** 	  return *this;
 423:/Library/DaisyToolchain/0.2.0/arm/arm-none-eabi/include/c++/10.3.1/bits/stl_pair.h **** 	}
 424:/Library/DaisyToolchain/0.2.0/arm/arm-none-eabi/include/c++/10.3.1/bits/stl_pair.h **** 
 425:/Library/DaisyToolchain/0.2.0/arm/arm-none-eabi/include/c++/10.3.1/bits/stl_pair.h ****       template<typename _U1, typename _U2>
 426:/Library/DaisyToolchain/0.2.0/arm/arm-none-eabi/include/c++/10.3.1/bits/stl_pair.h **** 	_GLIBCXX20_CONSTEXPR
 427:/Library/DaisyToolchain/0.2.0/arm/arm-none-eabi/include/c++/10.3.1/bits/stl_pair.h **** 	typename enable_if<__and_<is_assignable<_T1&, _U1&&>,
 428:/Library/DaisyToolchain/0.2.0/arm/arm-none-eabi/include/c++/10.3.1/bits/stl_pair.h **** 				  is_assignable<_T2&, _U2&&>>::value,
 429:/Library/DaisyToolchain/0.2.0/arm/arm-none-eabi/include/c++/10.3.1/bits/stl_pair.h **** 			   pair&>::type
 430:/Library/DaisyToolchain/0.2.0/arm/arm-none-eabi/include/c++/10.3.1/bits/stl_pair.h **** 	operator=(pair<_U1, _U2>&& __p)
 190              		.loc 4 430 2 view .LVU52
 191              	.LBB43:
 431:/Library/DaisyToolchain/0.2.0/arm/arm-none-eabi/include/c++/10.3.1/bits/stl_pair.h **** 	{
 432:/Library/DaisyToolchain/0.2.0/arm/arm-none-eabi/include/c++/10.3.1/bits/stl_pair.h **** 	  first = std::forward<_U1>(__p.first);
 433:/Library/DaisyToolchain/0.2.0/arm/arm-none-eabi/include/c++/10.3.1/bits/stl_pair.h **** 	  second = std::forward<_U2>(__p.second);
 192              		.loc 4 433 11 is_stmt 0 view .LVU53
 193 007a C5E90833 		strd	r3, r3, [r5, #32]
 194              	.LVL16:
 195              		.loc 4 433 11 view .LVU54
 196              	.LBE43:
 197              	.LBE42:
  23:DSP/Mixer.cpp **** }
 198              		.loc 2 23 1 view .LVU55
 199 007e F8BD     		pop	{r3, r4, r5, r6, r7, pc}
 200              	.LVL17:
 201              	.L4:
 202              		.loc 2 23 1 view .LVU56
 203 0080 0246     		mov	r2, r0
 204 0082 0948     		ldr	r0, .L9+12
 205 0084 A646     		mov	lr, r4
 206 0086 1044     		add	r0, r0, r2
 207              	.LVL18:
 208              	.L6:
 209              	.LBB44:
  11:DSP/Mixer.cpp ****         mix[R][j] = 0.0f;
 210              		.loc 2 11 9 is_stmt 1 view .LVU57
  11:DSP/Mixer.cpp ****         mix[R][j] = 0.0f;
 211              		.loc 2 11 19 is_stmt 0 view .LVU58
ARM GAS  /var/folders/wz/z09yph4n0qj4t7mjxhl6ttn80000gn/T//ccFqjB4b.s 			page 14


 212 0088 4FF0000C 		mov	ip, #0
 213 008c 42F804CB 		str	ip, [r2], #4	@ float
  12:DSP/Mixer.cpp ****     }
 214              		.loc 2 12 9 is_stmt 1 view .LVU59
   9:DSP/Mixer.cpp ****     {
 215              		.loc 2 9 26 is_stmt 0 view .LVU60
 216 0090 9042     		cmp	r0, r2
  12:DSP/Mixer.cpp ****     }
 217              		.loc 2 12 19 view .LVU61
 218 0092 4EF804CB 		str	ip, [lr], #4	@ float
   9:DSP/Mixer.cpp ****     {
 219              		.loc 2 9 5 is_stmt 1 view .LVU62
   9:DSP/Mixer.cpp ****     {
 220              		.loc 2 9 26 view .LVU63
 221 0096 F7D1     		bne	.L6
 222 0098 CEE7     		b	.L5
 223              	.L10:
 224 009a 00BF     		.align	2
 225              	.L9:
 226 009c 00530700 		.word	480000
 227 00a0 FF4B1D00 		.word	1919999
 228 00a4 FE973A00 		.word	3839998
 229 00a8 004C1D00 		.word	1920000
 230              	.LBE44:
 231              		.cfi_endproc
 232              	.LFE4799:
 234              		.section	.rodata._ZN5Mixer4tickEv.str1.4,"aMS",%progbits,1
 235              		.align	2
 236              	.LC0:
 237 0000 43757272 		.ascii	"Current value = %f\000"
 237      656E7420 
 237      76616C75 
 237      65203D20 
 237      256600
 238              		.section	.text._ZN5Mixer4tickEv,"ax",%progbits
 239              		.align	1
 240              		.p2align 2,,3
 241              		.global	_ZN5Mixer4tickEv
 242              		.syntax unified
 243              		.thumb
 244              		.thumb_func
 246              	_ZN5Mixer4tickEv:
 247              	.LVL19:
 248              	.LFB4823:
  24:DSP/Mixer.cpp **** 
  25:DSP/Mixer.cpp **** void Mixer::tick()
  26:DSP/Mixer.cpp **** {
 249              		.loc 2 26 1 view -0
 250              		.cfi_startproc
 251              		@ args = 0, pretend = 0, frame = 0
 252              		@ frame_needed = 0, uses_anonymous_args = 0
  27:DSP/Mixer.cpp ****     //track1.track.tick();
  28:DSP/Mixer.cpp ****     track1.gain.tick();
 253              		.loc 2 28 5 view .LVU65
 254              	.LBB53:
 255              	.LBI53:
  36:DSP/FX/../../Parameters/AudioParameter.h ****     }
ARM GAS  /var/folders/wz/z09yph4n0qj4t7mjxhl6ttn80000gn/T//ccFqjB4b.s 			page 15


  37:DSP/FX/../../Parameters/AudioParameter.h ****     
  38:DSP/FX/../../Parameters/AudioParameter.h ****     void tick()
 256              		.loc 3 38 10 view .LVU66
 257              	.LBB54:
  39:DSP/FX/../../Parameters/AudioParameter.h ****     {
  40:DSP/FX/../../Parameters/AudioParameter.h ****         if(!isSelected)
 258              		.loc 3 40 9 is_stmt 0 view .LVU67
 259 0000 90F84230 		ldrb	r3, [r0, #66]	@ zero_extendqisi2
 260 0004 03B9     		cbnz	r3, .L24
 261 0006 7047     		bx	lr
 262              	.L24:
 263              	.LVL20:
 264              	.LBB55:
 265              	.LBI55:
  38:DSP/FX/../../Parameters/AudioParameter.h ****     {
 266              		.loc 3 38 10 is_stmt 1 view .LVU68
 267              	.LBE55:
 268              	.LBE54:
 269              	.LBE53:
  26:DSP/Mixer.cpp ****     //track1.track.tick();
 270              		.loc 2 26 1 is_stmt 0 view .LVU69
 271 0008 10B5     		push	{r4, lr}
 272              		.cfi_def_cfa_offset 8
 273              		.cfi_offset 4, -8
 274              		.cfi_offset 14, -4
 275 000a 0446     		mov	r4, r0
 276              	.LBB77:
 277              	.LBB74:
 278              	.LBB71:
 279              	.LBB56:
  41:DSP/FX/../../Parameters/AudioParameter.h ****             return;
  42:DSP/FX/../../Parameters/AudioParameter.h **** 
  43:DSP/FX/../../Parameters/AudioParameter.h ****         float newInput = hw->adc.GetFloat(channelID);
 280              		.loc 3 43 42 view .LVU70
 281 000c 806A     		ldr	r0, [r0, #40]
 282              	.LVL21:
 283              		.loc 3 43 42 view .LVU71
 284 000e 94F84010 		ldrb	r1, [r4, #64]	@ zero_extendqisi2
 285 0012 1830     		adds	r0, r0, #24
 286 0014 FFF7FEFF 		bl	_ZNK5daisy9AdcHandle8GetFloatEh
 287              	.LVL22:
  44:DSP/FX/../../Parameters/AudioParameter.h **** 
  45:DSP/FX/../../Parameters/AudioParameter.h ****         if(newInput > (input + jitter) || newInput < (input - jitter))
 288              		.loc 3 45 24 view .LVU72
 289 0018 D4ED0B7A 		vldr.32	s15, [r4, #44]
 290              		.loc 3 45 32 view .LVU73
 291 001c 94ED0C7A 		vldr.32	s14, [r4, #48]
 292              	.LVL23:
 293              		.loc 3 45 30 view .LVU74
 294 0020 77EE876A 		vadd.f32	s13, s15, s14
 295              		.loc 3 45 9 view .LVU75
 296 0024 B4EEE60A 		vcmpe.f32	s0, s13
 297 0028 F1EE10FA 		vmrs	APSR_nzcv, FPSCR
 298 002c 06DC     		bgt	.L14
 299              		.loc 3 45 61 view .LVU76
 300 002e 77EEC77A 		vsub.f32	s15, s15, s14
 301              		.loc 3 45 40 view .LVU77
ARM GAS  /var/folders/wz/z09yph4n0qj4t7mjxhl6ttn80000gn/T//ccFqjB4b.s 			page 16


 302 0032 B4EEE70A 		vcmpe.f32	s0, s15
 303 0036 F1EE10FA 		vmrs	APSR_nzcv, FPSCR
 304 003a 1BD5     		bpl	.L11
 305              	.L14:
 306              	.LBB57:
 307              	.LBB58:
  46:DSP/FX/../../Parameters/AudioParameter.h ****         {
  47:DSP/FX/../../Parameters/AudioParameter.h ****             input = newInput;;
  48:DSP/FX/../../Parameters/AudioParameter.h ****             process();
  49:DSP/FX/../../Parameters/AudioParameter.h ****         }
  50:DSP/FX/../../Parameters/AudioParameter.h ****         
  51:DSP/FX/../../Parameters/AudioParameter.h ****     }
  52:DSP/FX/../../Parameters/AudioParameter.h **** 
  53:DSP/FX/../../Parameters/AudioParameter.h ****     void process()
  54:DSP/FX/../../Parameters/AudioParameter.h ****     {
  55:DSP/FX/../../Parameters/AudioParameter.h ****         switch(curve)
 308              		.loc 3 55 16 view .LVU78
 309 003c 94F84130 		ldrb	r3, [r4, #65]	@ zero_extendqisi2
 310              	.LBE58:
 311              	.LBE57:
  47:DSP/FX/../../Parameters/AudioParameter.h ****             process();
 312              		.loc 3 47 19 view .LVU79
 313 0040 84ED0B0A 		vstr.32	s0, [r4, #44]
 314              	.LVL24:
 315              	.LBB66:
 316              	.LBI57:
  53:DSP/FX/../../Parameters/AudioParameter.h ****     {
 317              		.loc 3 53 10 is_stmt 1 view .LVU80
 318              	.LBB63:
 319              		.loc 3 55 9 is_stmt 0 view .LVU81
 320 0044 D3B1     		cbz	r3, .L17
 321              		.loc 3 55 9 view .LVU82
 322 0046 012B     		cmp	r3, #1
 323 0048 15D1     		bne	.L25
  56:DSP/FX/../../Parameters/AudioParameter.h ****         {
  57:DSP/FX/../../Parameters/AudioParameter.h ****             case LINEAR:
  58:DSP/FX/../../Parameters/AudioParameter.h ****                 curVal = ((input / 1.0f) * (max - min)) + min;
  59:DSP/FX/../../Parameters/AudioParameter.h ****             break;
  60:DSP/FX/../../Parameters/AudioParameter.h ****             case EXP:
  61:DSP/FX/../../Parameters/AudioParameter.h ****                 curVal = ((input * input) * (max - min)) + min;
 324              		.loc 3 61 52 view .LVU83
 325 004a D4ED0E7A 		vldr.32	s15, [r4, #56]
 326              		.loc 3 61 34 view .LVU84
 327 004e 20EE000A 		vmul.f32	s0, s0, s0
 328              	.LVL25:
 329              		.loc 3 61 50 view .LVU85
 330 0052 94ED0F7A 		vldr.32	s14, [r4, #60]
 331 0056 37EE677A 		vsub.f32	s14, s14, s15
 332              		.loc 3 61 58 view .LVU86
 333 005a E0EE077A 		vfma.f32	s15, s0, s14
 334              		.loc 3 61 24 view .LVU87
 335 005e C4ED0D7A 		vstr.32	s15, [r4, #52]
 336              	.L19:
 337              	.LVL26:
 338              	.LBB59:
 339              	.LBI59:
 340              		.file 5 "../../../libDaisy//src/daisy_seed.h"
ARM GAS  /var/folders/wz/z09yph4n0qj4t7mjxhl6ttn80000gn/T//ccFqjB4b.s 			page 17


   1:../../../libDaisy//src/daisy_seed.h **** #pragma once
   2:../../../libDaisy//src/daisy_seed.h **** #ifndef DSY_SEED_H
   3:../../../libDaisy//src/daisy_seed.h **** #define DSY_SEED_H
   4:../../../libDaisy//src/daisy_seed.h **** 
   5:../../../libDaisy//src/daisy_seed.h **** #include "daisy.h"
   6:../../../libDaisy//src/daisy_seed.h **** 
   7:../../../libDaisy//src/daisy_seed.h **** //Uncomment this out if you're still using the rev2 hardware
   8:../../../libDaisy//src/daisy_seed.h **** //#define SEED_REV2
   9:../../../libDaisy//src/daisy_seed.h **** 
  10:../../../libDaisy//src/daisy_seed.h **** namespace daisy
  11:../../../libDaisy//src/daisy_seed.h **** {
  12:../../../libDaisy//src/daisy_seed.h **** /**
  13:../../../libDaisy//src/daisy_seed.h ****    @brief This is the higher-level interface for the Daisy board. \n 
  14:../../../libDaisy//src/daisy_seed.h ****     All basic peripheral configuration/initialization is setup here. \n
  15:../../../libDaisy//src/daisy_seed.h **** 
  16:../../../libDaisy//src/daisy_seed.h ****    @ingroup boards
  17:../../../libDaisy//src/daisy_seed.h **** */
  18:../../../libDaisy//src/daisy_seed.h **** class DaisySeed
  19:../../../libDaisy//src/daisy_seed.h **** {
  20:../../../libDaisy//src/daisy_seed.h ****   public:
  21:../../../libDaisy//src/daisy_seed.h ****     DaisySeed() {}
  22:../../../libDaisy//src/daisy_seed.h ****     ~DaisySeed() {}
  23:../../../libDaisy//src/daisy_seed.h **** 
  24:../../../libDaisy//src/daisy_seed.h ****     /** This function used to provide a pre-initialization configuraiton 
  25:../../../libDaisy//src/daisy_seed.h ****      *  it has since been deprecated, and does nothing.
  26:../../../libDaisy//src/daisy_seed.h ****      */
  27:../../../libDaisy//src/daisy_seed.h ****     void Configure();
  28:../../../libDaisy//src/daisy_seed.h **** 
  29:../../../libDaisy//src/daisy_seed.h ****     /** 
  30:../../../libDaisy//src/daisy_seed.h ****     Initializes the Daisy Seed and the following peripherals:
  31:../../../libDaisy//src/daisy_seed.h ****     SDRAM, QSPI, 24-bit 48kHz Audio via AK4556, Internal USB,
  32:../../../libDaisy//src/daisy_seed.h ****     as well as the built-in LED and Testpoint.
  33:../../../libDaisy//src/daisy_seed.h **** 
  34:../../../libDaisy//src/daisy_seed.h ****     ADCs, DACs, and other special peripherals (such as I2C, SPI, etc.)
  35:../../../libDaisy//src/daisy_seed.h ****     can be initialized using their specific initializers within libdaisy
  36:../../../libDaisy//src/daisy_seed.h ****     for a specific application.
  37:../../../libDaisy//src/daisy_seed.h ****     */
  38:../../../libDaisy//src/daisy_seed.h ****     void Init(bool boost = false);
  39:../../../libDaisy//src/daisy_seed.h **** 
  40:../../../libDaisy//src/daisy_seed.h ****     /** 
  41:../../../libDaisy//src/daisy_seed.h ****     Deinitializes all peripherals automatically handled by `Init`.
  42:../../../libDaisy//src/daisy_seed.h ****     */
  43:../../../libDaisy//src/daisy_seed.h ****     void DeInit();
  44:../../../libDaisy//src/daisy_seed.h **** 
  45:../../../libDaisy//src/daisy_seed.h ****     /** 
  46:../../../libDaisy//src/daisy_seed.h ****     Wait some ms before going on.
  47:../../../libDaisy//src/daisy_seed.h ****     \param del Delay time in ms.
  48:../../../libDaisy//src/daisy_seed.h ****     */
  49:../../../libDaisy//src/daisy_seed.h ****     void DelayMs(size_t del);
  50:../../../libDaisy//src/daisy_seed.h **** 
  51:../../../libDaisy//src/daisy_seed.h ****     /** 
  52:../../../libDaisy//src/daisy_seed.h ****     Returns the gpio_pin corresponding to the index 0-31.
  53:../../../libDaisy//src/daisy_seed.h ****     For the given GPIO on the Daisy Seed (labeled 1-32 in docs).
  54:../../../libDaisy//src/daisy_seed.h ****     */
  55:../../../libDaisy//src/daisy_seed.h ****     static dsy_gpio_pin GetPin(uint8_t pin_idx);
  56:../../../libDaisy//src/daisy_seed.h **** 
  57:../../../libDaisy//src/daisy_seed.h ****     /** Begins the audio for the seeds builtin audio.
ARM GAS  /var/folders/wz/z09yph4n0qj4t7mjxhl6ttn80000gn/T//ccFqjB4b.s 			page 18


  58:../../../libDaisy//src/daisy_seed.h ****     the specified callback will get called whenever
  59:../../../libDaisy//src/daisy_seed.h ****     new data is ready to be prepared.
  60:../../../libDaisy//src/daisy_seed.h ****     */
  61:../../../libDaisy//src/daisy_seed.h ****     void StartAudio(AudioHandle::InterleavingAudioCallback cb);
  62:../../../libDaisy//src/daisy_seed.h **** 
  63:../../../libDaisy//src/daisy_seed.h ****     /** Begins the audio for the seeds builtin audio.
  64:../../../libDaisy//src/daisy_seed.h ****     the specified callback will get called whenever
  65:../../../libDaisy//src/daisy_seed.h ****     new data is ready to be prepared.
  66:../../../libDaisy//src/daisy_seed.h ****     This will use the newer non-interleaved callback.
  67:../../../libDaisy//src/daisy_seed.h ****     */
  68:../../../libDaisy//src/daisy_seed.h ****     void StartAudio(AudioHandle::AudioCallback cb);
  69:../../../libDaisy//src/daisy_seed.h **** 
  70:../../../libDaisy//src/daisy_seed.h ****     /** Changes to a new interleaved callback
  71:../../../libDaisy//src/daisy_seed.h ****      */
  72:../../../libDaisy//src/daisy_seed.h ****     void ChangeAudioCallback(AudioHandle::InterleavingAudioCallback cb);
  73:../../../libDaisy//src/daisy_seed.h **** 
  74:../../../libDaisy//src/daisy_seed.h ****     /** Changes to a new multichannel callback
  75:../../../libDaisy//src/daisy_seed.h ****      */
  76:../../../libDaisy//src/daisy_seed.h ****     void ChangeAudioCallback(AudioHandle::AudioCallback cb);
  77:../../../libDaisy//src/daisy_seed.h **** 
  78:../../../libDaisy//src/daisy_seed.h ****     /** Stops the audio if it is running. */
  79:../../../libDaisy//src/daisy_seed.h ****     void StopAudio();
  80:../../../libDaisy//src/daisy_seed.h **** 
  81:../../../libDaisy//src/daisy_seed.h ****     /** Updates the Audio Sample Rate, and reinitializes.
  82:../../../libDaisy//src/daisy_seed.h ****      ** Audio must be stopped for this to work.
  83:../../../libDaisy//src/daisy_seed.h ****      */
  84:../../../libDaisy//src/daisy_seed.h ****     void SetAudioSampleRate(SaiHandle::Config::SampleRate samplerate);
  85:../../../libDaisy//src/daisy_seed.h **** 
  86:../../../libDaisy//src/daisy_seed.h ****     /** Returns the audio sample rate in Hz as a floating point number.
  87:../../../libDaisy//src/daisy_seed.h ****      */
  88:../../../libDaisy//src/daisy_seed.h ****     float AudioSampleRate();
  89:../../../libDaisy//src/daisy_seed.h **** 
  90:../../../libDaisy//src/daisy_seed.h ****     /** Sets the number of samples processed per channel by the audio callback.
  91:../../../libDaisy//src/daisy_seed.h ****      */
  92:../../../libDaisy//src/daisy_seed.h ****     void SetAudioBlockSize(size_t blocksize);
  93:../../../libDaisy//src/daisy_seed.h **** 
  94:../../../libDaisy//src/daisy_seed.h ****     /** Returns the number of samples per channel in a block of audio. */
  95:../../../libDaisy//src/daisy_seed.h ****     size_t AudioBlockSize();
  96:../../../libDaisy//src/daisy_seed.h **** 
  97:../../../libDaisy//src/daisy_seed.h ****     /** Returns the rate in Hz that the Audio callback is called */
  98:../../../libDaisy//src/daisy_seed.h ****     float AudioCallbackRate() const;
  99:../../../libDaisy//src/daisy_seed.h **** 
 100:../../../libDaisy//src/daisy_seed.h ****     /** Sets the state of the built in LED
 101:../../../libDaisy//src/daisy_seed.h ****      */
 102:../../../libDaisy//src/daisy_seed.h ****     void SetLed(bool state);
 103:../../../libDaisy//src/daisy_seed.h **** 
 104:../../../libDaisy//src/daisy_seed.h ****     /** Sets the state of the test point near pin 10
 105:../../../libDaisy//src/daisy_seed.h ****      */
 106:../../../libDaisy//src/daisy_seed.h ****     void SetTestPoint(bool state);
 107:../../../libDaisy//src/daisy_seed.h **** 
 108:../../../libDaisy//src/daisy_seed.h ****     /** Print formatted debug log message
 109:../../../libDaisy//src/daisy_seed.h ****      */
 110:../../../libDaisy//src/daisy_seed.h ****     template <typename... VA>
 111:../../../libDaisy//src/daisy_seed.h ****     static void Print(const char* format, VA... va)
 112:../../../libDaisy//src/daisy_seed.h ****     {
 113:../../../libDaisy//src/daisy_seed.h ****         Log::Print(format, va...);
 114:../../../libDaisy//src/daisy_seed.h ****     }
ARM GAS  /var/folders/wz/z09yph4n0qj4t7mjxhl6ttn80000gn/T//ccFqjB4b.s 			page 19


 115:../../../libDaisy//src/daisy_seed.h **** 
 116:../../../libDaisy//src/daisy_seed.h ****     /** Print formatted debug log message with automatic line termination
 117:../../../libDaisy//src/daisy_seed.h ****     */
 118:../../../libDaisy//src/daisy_seed.h ****     template <typename... VA>
 119:../../../libDaisy//src/daisy_seed.h ****     static void PrintLine(const char* format, VA... va)
 341              		.loc 5 119 17 is_stmt 1 view .LVU88
 342              	.LBB60:
 120:../../../libDaisy//src/daisy_seed.h ****     {
 121:../../../libDaisy//src/daisy_seed.h ****         Log::PrintLine(format, va...);
 343              		.loc 5 121 23 is_stmt 0 view .LVU89
 344 0062 B7EEE77A 		vcvt.f64.f32	d7, s15
 345 0066 0B48     		ldr	r0, .L26
 346              	.LBE60:
 347              	.LBE59:
 348              	.LBE63:
 349              	.LBE66:
 350              	.LBE56:
 351              	.LBE71:
 352              	.LBE74:
 353              	.LBE77:
  29:DSP/Mixer.cpp **** }
 354              		.loc 2 29 1 view .LVU90
 355 0068 BDE81040 		pop	{r4, lr}
 356              		.cfi_remember_state
 357              		.cfi_restore 14
 358              		.cfi_restore 4
 359              		.cfi_def_cfa_offset 0
 360              	.LVL27:
 361              	.LBB78:
 362              	.LBB75:
 363              	.LBB72:
 364              	.LBB69:
 365              	.LBB67:
 366              	.LBB64:
 367              	.LBB62:
 368              	.LBB61:
 369              		.loc 5 121 23 view .LVU91
 370 006c 53EC172B 		vmov	r2, r3, d7
 371 0070 FFF7FEBF 		b	_ZN5daisy6LoggerILNS_17LoggerDestinationE1EE9PrintLineEPKcz
 372              	.LVL28:
 373              	.L11:
 374              		.cfi_restore_state
 375              		.loc 5 121 23 view .LVU92
 376              	.LBE61:
 377              	.LBE62:
 378              	.LBE64:
 379              	.LBE67:
 380              	.LBE69:
 381              	.LBE72:
 382              	.LBE75:
 383              	.LBE78:
 384              		.loc 2 29 1 view .LVU93
 385 0074 10BD     		pop	{r4, pc}
 386              	.LVL29:
 387              	.L25:
 388              	.LBB79:
 389              	.LBB76:
ARM GAS  /var/folders/wz/z09yph4n0qj4t7mjxhl6ttn80000gn/T//ccFqjB4b.s 			page 20


 390              	.LBB73:
 391              	.LBB70:
 392              	.LBB68:
 393              	.LBB65:
  62:DSP/FX/../../Parameters/AudioParameter.h ****             break;
  63:DSP/FX/../../Parameters/AudioParameter.h ****         }
  64:DSP/FX/../../Parameters/AudioParameter.h **** 
  65:DSP/FX/../../Parameters/AudioParameter.h ****         hw->PrintLine("Current value = %f", curVal);
 394              		.loc 3 65 22 view .LVU94
 395 0076 D4ED0D7A 		vldr.32	s15, [r4, #52]
 396 007a F2E7     		b	.L19
 397              	.L17:
  58:DSP/FX/../../Parameters/AudioParameter.h ****             break;
 398              		.loc 3 58 51 view .LVU95
 399 007c D4ED0E7A 		vldr.32	s15, [r4, #56]
  58:DSP/FX/../../Parameters/AudioParameter.h ****             break;
 400              		.loc 3 58 49 view .LVU96
 401 0080 94ED0F7A 		vldr.32	s14, [r4, #60]
 402 0084 37EE677A 		vsub.f32	s14, s14, s15
  58:DSP/FX/../../Parameters/AudioParameter.h ****             break;
 403              		.loc 3 58 57 view .LVU97
 404 0088 E0EE077A 		vfma.f32	s15, s0, s14
  58:DSP/FX/../../Parameters/AudioParameter.h ****             break;
 405              		.loc 3 58 24 view .LVU98
 406 008c C4ED0D7A 		vstr.32	s15, [r4, #52]
  59:DSP/FX/../../Parameters/AudioParameter.h ****             case EXP:
 407              		.loc 3 59 13 view .LVU99
 408 0090 E7E7     		b	.L19
 409              	.L27:
 410 0092 00BF     		.align	2
 411              	.L26:
 412 0094 00000000 		.word	.LC0
 413              	.LBE65:
 414              	.LBE68:
 415              	.LBE70:
 416              	.LBE73:
 417              	.LBE76:
 418              	.LBE79:
 419              		.cfi_endproc
 420              	.LFE4823:
 422              		.section	.text._ZN5Mixer7prepareEv,"ax",%progbits
 423              		.align	1
 424              		.p2align 2,,3
 425              		.global	_ZN5Mixer7prepareEv
 426              		.syntax unified
 427              		.thumb
 428              		.thumb_func
 430              	_ZN5Mixer7prepareEv:
 431              	.LVL30:
 432              	.LFB4824:
  30:DSP/Mixer.cpp **** 
  31:DSP/Mixer.cpp **** void Mixer::prepare()
  32:DSP/Mixer.cpp **** {
 433              		.loc 2 32 1 is_stmt 1 view -0
 434              		.cfi_startproc
 435              		@ args = 0, pretend = 0, frame = 0
 436              		@ frame_needed = 0, uses_anonymous_args = 0
ARM GAS  /var/folders/wz/z09yph4n0qj4t7mjxhl6ttn80000gn/T//ccFqjB4b.s 			page 21


 437              		@ link register save eliminated.
  33:DSP/Mixer.cpp **** 
  34:DSP/Mixer.cpp **** }
 438              		.loc 2 34 1 is_stmt 0 view .LVU101
 439 0000 7047     		bx	lr
 440              		.cfi_endproc
 441              	.LFE4824:
 443 0002 00BF     		.section	.text._ZN5Mixer17processInputBlockEPKfS1_j,"ax",%progbits
 444              		.align	1
 445              		.p2align 2,,3
 446              		.global	_ZN5Mixer17processInputBlockEPKfS1_j
 447              		.syntax unified
 448              		.thumb
 449              		.thumb_func
 451              	_ZN5Mixer17processInputBlockEPKfS1_j:
 452              	.LVL31:
 453              	.LFB4825:
  35:DSP/Mixer.cpp **** 
  36:DSP/Mixer.cpp **** void Mixer::processInputBlock(const float* left, const float* right, size_t size)
  37:DSP/Mixer.cpp **** {
 454              		.loc 2 37 1 is_stmt 1 view -0
 455              		.cfi_startproc
 456              		@ args = 0, pretend = 0, frame = 0
 457              		@ frame_needed = 0, uses_anonymous_args = 0
 458              		@ link register save eliminated.
  38:DSP/Mixer.cpp ****     track1.track.processInputBlock(left, right, size);
 459              		.loc 2 38 5 view .LVU103
 460              		.loc 2 38 35 is_stmt 0 view .LVU104
 461 0000 FFF7FEBF 		b	_ZN5Track17processInputBlockEPKfS1_j
 462              	.LVL32:
 463              		.loc 2 38 35 view .LVU105
 464              		.cfi_endproc
 465              	.LFE4825:
 467              		.section	.text._ZN5Mixer18processOutputBlockEPfS0_j,"ax",%progbits
 468              		.align	1
 469              		.p2align 2,,3
 470              		.global	_ZN5Mixer18processOutputBlockEPfS0_j
 471              		.syntax unified
 472              		.thumb
 473              		.thumb_func
 475              	_ZN5Mixer18processOutputBlockEPfS0_j:
 476              	.LVL33:
 477              	.LFB4826:
  39:DSP/Mixer.cpp **** }
  40:DSP/Mixer.cpp **** 
  41:DSP/Mixer.cpp **** void Mixer::processOutputBlock(float* left, float* right, size_t size)
  42:DSP/Mixer.cpp **** {
 478              		.loc 2 42 1 is_stmt 1 view -0
 479              		.cfi_startproc
 480              		@ args = 0, pretend = 0, frame = 8
 481              		@ frame_needed = 0, uses_anonymous_args = 0
  43:DSP/Mixer.cpp ****     for(size_t i = 0 ; i < size ; i++)
 482              		.loc 2 43 5 view .LVU107
 483              	.LBB80:
 484              		.loc 2 43 26 view .LVU108
 485 0000 002B     		cmp	r3, #0
 486 0002 40D0     		beq	.L37
ARM GAS  /var/folders/wz/z09yph4n0qj4t7mjxhl6ttn80000gn/T//ccFqjB4b.s 			page 22


 487              	.LBE80:
  42:DSP/Mixer.cpp ****     for(size_t i = 0 ; i < size ; i++)
 488              		.loc 2 42 1 is_stmt 0 view .LVU109
 489 0004 2DE9F041 		push	{r4, r5, r6, r7, r8, lr}
 490              		.cfi_def_cfa_offset 24
 491              		.cfi_offset 4, -24
 492              		.cfi_offset 5, -20
 493              		.cfi_offset 6, -16
 494              		.cfi_offset 7, -12
 495              		.cfi_offset 8, -8
 496              		.cfi_offset 14, -4
 497 0008 0446     		mov	r4, r0
 498 000a 82B0     		sub	sp, sp, #8
 499              		.cfi_def_cfa_offset 32
 500 000c 1E46     		mov	r6, r3
 501 000e 8846     		mov	r8, r1
 502 0010 1746     		mov	r7, r2
 503              	.LBB93:
 504              		.loc 2 43 16 view .LVU110
 505 0012 0025     		movs	r5, #0
 506 0014 0EE0     		b	.L35
 507              	.LVL34:
 508              	.L41:
  44:DSP/Mixer.cpp ****     {
  45:DSP/Mixer.cpp ****         if(track1.track.getIsRecording() || track1.track.getIsPlaying())
  46:DSP/Mixer.cpp ****         {
  47:DSP/Mixer.cpp ****             track1.curSample = track1.track.processOutput();
  48:DSP/Mixer.cpp ****             mix[L][i] = *track1.curSample.first * track1.gain.getValue();
  49:DSP/Mixer.cpp ****             mix[R][i] = *track1.curSample.second * track1.gain.getValue();
  50:DSP/Mixer.cpp ****         }
  51:DSP/Mixer.cpp **** 
  52:DSP/Mixer.cpp ****         left[i] = mix[L][i];
  53:DSP/Mixer.cpp ****         right[i] = mix[R][i];
 509              		.loc 2 53 28 view .LVU111
 510 0016 D4E94412 		ldrd	r1, r2, [r4, #272]
 511              	.LVL35:
  52:DSP/Mixer.cpp ****         right[i] = mix[R][i];
 512              		.loc 2 52 27 view .LVU112
 513 001a 01EB8501 		add	r1, r1, r5, lsl #2
 514              		.loc 2 53 28 view .LVU113
 515 001e 02EB8502 		add	r2, r2, r5, lsl #2
 516              	.L33:
  52:DSP/Mixer.cpp ****         right[i] = mix[R][i];
 517              		.loc 2 52 9 is_stmt 1 discriminator 2 view .LVU114
  52:DSP/Mixer.cpp ****         right[i] = mix[R][i];
 518              		.loc 2 52 27 is_stmt 0 discriminator 2 view .LVU115
 519 0022 0B68     		ldr	r3, [r1]	@ float
  43:DSP/Mixer.cpp ****     {
 520              		.loc 2 43 5 discriminator 2 view .LVU116
 521 0024 0135     		adds	r5, r5, #1
 522              	.LVL36:
  52:DSP/Mixer.cpp ****         right[i] = mix[R][i];
 523              		.loc 2 52 17 discriminator 2 view .LVU117
 524 0026 48F8043B 		str	r3, [r8], #4	@ float
 525              		.loc 2 53 9 is_stmt 1 discriminator 2 view .LVU118
  43:DSP/Mixer.cpp ****     {
 526              		.loc 2 43 26 is_stmt 0 discriminator 2 view .LVU119
ARM GAS  /var/folders/wz/z09yph4n0qj4t7mjxhl6ttn80000gn/T//ccFqjB4b.s 			page 23


 527 002a AE42     		cmp	r6, r5
 528              		.loc 2 53 28 discriminator 2 view .LVU120
 529 002c 1368     		ldr	r3, [r2]	@ float
 530              		.loc 2 53 18 discriminator 2 view .LVU121
 531 002e 47F8043B 		str	r3, [r7], #4	@ float
  43:DSP/Mixer.cpp ****     {
 532              		.loc 2 43 5 is_stmt 1 discriminator 2 view .LVU122
 533              	.LVL37:
  43:DSP/Mixer.cpp ****     {
 534              		.loc 2 43 26 discriminator 2 view .LVU123
 535 0032 25D0     		beq	.L40
 536              	.LVL38:
 537              	.L35:
  45:DSP/Mixer.cpp ****         {
 538              		.loc 2 45 9 view .LVU124
 539              	.LBB81:
 540              	.LBI81:
 541              		.file 6 "DSP/Track.h"
   1:DSP/Track.h   **** #ifndef TRACK_H
   2:DSP/Track.h   **** #define TRACK_H
   3:DSP/Track.h   **** 
   4:DSP/Track.h   **** #include "FX/Delay.h"
   5:DSP/Track.h   **** #include <utility>
   6:DSP/Track.h   **** 
   7:DSP/Track.h   **** /**********************************************************//**
   8:DSP/Track.h   ****  *  Class name: Track
   9:DSP/Track.h   ****  *  Function: Processes audio buffer and FX for each track
  10:DSP/Track.h   ****  *************************************************************/
  11:DSP/Track.h   **** 
  12:DSP/Track.h   **** class Track
  13:DSP/Track.h   **** {
  14:DSP/Track.h   **** public:
  15:DSP/Track.h   **** 
  16:DSP/Track.h   ****     void init(float* mem[2]);
  17:DSP/Track.h   ****     void tick();
  18:DSP/Track.h   **** 
  19:DSP/Track.h   ****     void setIsRecording();
  20:DSP/Track.h   ****     void setIsPlaying();
  21:DSP/Track.h   **** 
  22:DSP/Track.h   ****     bool getIsRecording() { return ph.isRecording; }
 542              		.loc 6 22 10 view .LVU125
 543              	.LBB82:
 544              		.loc 6 22 29 view .LVU126
 545              		.loc 6 22 29 is_stmt 0 view .LVU127
 546              	.LBE82:
 547              	.LBE81:
 548              	.LBB83:
 549              	.LBI83:
  23:DSP/Track.h   ****     bool getIsPlaying() { return ph.isPlaying; }
 550              		.loc 6 23 10 is_stmt 1 view .LVU128
 551              	.LBB84:
 552              		.loc 6 23 27 view .LVU129
 553              		.loc 6 23 27 is_stmt 0 view .LVU130
 554              	.LBE84:
 555              	.LBE83:
  47:DSP/Mixer.cpp ****             mix[L][i] = *track1.curSample.first * track1.gain.getValue();
 556              		.loc 2 47 13 is_stmt 1 view .LVU131
ARM GAS  /var/folders/wz/z09yph4n0qj4t7mjxhl6ttn80000gn/T//ccFqjB4b.s 			page 24


  45:DSP/Mixer.cpp ****         {
 557              		.loc 2 45 42 is_stmt 0 view .LVU132
 558 0034 2378     		ldrb	r3, [r4]	@ zero_extendqisi2
  47:DSP/Mixer.cpp ****             mix[L][i] = *track1.curSample.first * track1.gain.getValue();
 559              		.loc 2 47 59 view .LVU133
 560 0036 2146     		mov	r1, r4
 561 0038 6846     		mov	r0, sp
  45:DSP/Mixer.cpp ****         {
 562              		.loc 2 45 42 view .LVU134
 563 003a 13B9     		cbnz	r3, .L32
 564              	.LVL39:
  45:DSP/Mixer.cpp ****         {
 565              		.loc 2 45 42 discriminator 2 view .LVU135
 566 003c 6378     		ldrb	r3, [r4, #1]	@ zero_extendqisi2
 567 003e 002B     		cmp	r3, #0
 568 0040 E9D0     		beq	.L41
 569              	.L32:
  47:DSP/Mixer.cpp ****             mix[L][i] = *track1.curSample.first * track1.gain.getValue();
 570              		.loc 2 47 59 discriminator 3 view .LVU136
 571 0042 FFF7FEFF 		bl	_ZN5Track13processOutputEv
 572              	.LVL40:
 573              	.LBB85:
 574              	.LBI85:
 401:/Library/DaisyToolchain/0.2.0/arm/arm-none-eabi/include/c++/10.3.1/bits/stl_pair.h **** 		__and_<is_move_assignable<_T1>,
 575              		.loc 4 401 7 is_stmt 1 discriminator 3 view .LVU137
 576              	.LBB86:
 408:/Library/DaisyToolchain/0.2.0/arm/arm-none-eabi/include/c++/10.3.1/bits/stl_pair.h **** 	second = std::forward<second_type>(__p.second);
 577              		.loc 4 408 8 is_stmt 0 discriminator 3 view .LVU138
 578 0046 009A     		ldr	r2, [sp]
 579              	.LBE86:
 580              	.LBE85:
  48:DSP/Mixer.cpp ****             mix[R][i] = *track1.curSample.second * track1.gain.getValue();
 581              		.loc 2 48 49 discriminator 3 view .LVU139
 582 0048 94ED0D7A 		vldr.32	s14, [r4, #52]
 583 004c D2ED007A 		vldr.32	s15, [r2]
  48:DSP/Mixer.cpp ****             mix[R][i] = *track1.curSample.second * track1.gain.getValue();
 584              		.loc 2 48 21 discriminator 3 view .LVU140
 585 0050 D4F81011 		ldr	r1, [r4, #272]
  48:DSP/Mixer.cpp ****             mix[R][i] = *track1.curSample.second * track1.gain.getValue();
 586              		.loc 2 48 49 discriminator 3 view .LVU141
 587 0054 67EE877A 		vmul.f32	s15, s15, s14
 588              	.LBB89:
 589              	.LBB87:
 409:/Library/DaisyToolchain/0.2.0/arm/arm-none-eabi/include/c++/10.3.1/bits/stl_pair.h **** 	return *this;
 590              		.loc 4 409 9 discriminator 3 view .LVU142
 591 0058 019B     		ldr	r3, [sp, #4]
 592              	.LBE87:
 593              	.LBE89:
  48:DSP/Mixer.cpp ****             mix[R][i] = *track1.curSample.second * track1.gain.getValue();
 594              		.loc 2 48 21 discriminator 3 view .LVU143
 595 005a 01EB8501 		add	r1, r1, r5, lsl #2
 596              	.LBB90:
 597              	.LBB88:
 408:/Library/DaisyToolchain/0.2.0/arm/arm-none-eabi/include/c++/10.3.1/bits/stl_pair.h **** 	second = std::forward<second_type>(__p.second);
 598              		.loc 4 408 8 discriminator 3 view .LVU144
 599 005e 2262     		str	r2, [r4, #32]
 409:/Library/DaisyToolchain/0.2.0/arm/arm-none-eabi/include/c++/10.3.1/bits/stl_pair.h **** 	return *this;
ARM GAS  /var/folders/wz/z09yph4n0qj4t7mjxhl6ttn80000gn/T//ccFqjB4b.s 			page 25


 600              		.loc 4 409 9 discriminator 3 view .LVU145
 601 0060 6362     		str	r3, [r4, #36]
 602              	.LVL41:
 409:/Library/DaisyToolchain/0.2.0/arm/arm-none-eabi/include/c++/10.3.1/bits/stl_pair.h **** 	return *this;
 603              		.loc 4 409 9 discriminator 3 view .LVU146
 604              	.LBE88:
 605              	.LBE90:
  48:DSP/Mixer.cpp ****             mix[R][i] = *track1.curSample.second * track1.gain.getValue();
 606              		.loc 2 48 13 is_stmt 1 discriminator 3 view .LVU147
 607              	.LBB91:
 608              	.LBI91:
  66:DSP/FX/../../Parameters/AudioParameter.h ****     }
  67:DSP/FX/../../Parameters/AudioParameter.h **** 
  68:DSP/FX/../../Parameters/AudioParameter.h ****     type getValue() { return curVal; }
 609              		.loc 3 68 10 discriminator 3 view .LVU148
 610              		.loc 3 68 10 is_stmt 0 discriminator 3 view .LVU149
 611              	.LBE91:
  49:DSP/Mixer.cpp ****         }
 612              		.loc 2 49 21 discriminator 3 view .LVU150
 613 0062 D4F81421 		ldr	r2, [r4, #276]
  48:DSP/Mixer.cpp ****             mix[R][i] = *track1.curSample.second * track1.gain.getValue();
 614              		.loc 2 48 23 discriminator 3 view .LVU151
 615 0066 C1ED007A 		vstr.32	s15, [r1]
  49:DSP/Mixer.cpp ****         }
 616              		.loc 2 49 13 is_stmt 1 discriminator 3 view .LVU152
 617              	.LVL42:
 618              	.LBB92:
 619              	.LBI92:
 620              		.loc 3 68 10 discriminator 3 view .LVU153
 621              		.loc 3 68 10 is_stmt 0 discriminator 3 view .LVU154
 622              	.LBE92:
  49:DSP/Mixer.cpp ****         }
 623              		.loc 2 49 50 discriminator 3 view .LVU155
 624 006a D3ED007A 		vldr.32	s15, [r3]
  49:DSP/Mixer.cpp ****         }
 625              		.loc 2 49 21 discriminator 3 view .LVU156
 626 006e 02EB8502 		add	r2, r2, r5, lsl #2
  49:DSP/Mixer.cpp ****         }
 627              		.loc 2 49 50 discriminator 3 view .LVU157
 628 0072 94ED0D7A 		vldr.32	s14, [r4, #52]
 629 0076 67EE877A 		vmul.f32	s15, s15, s14
  49:DSP/Mixer.cpp ****         }
 630              		.loc 2 49 23 discriminator 3 view .LVU158
 631 007a C2ED007A 		vstr.32	s15, [r2]
 632 007e D0E7     		b	.L33
 633              	.L40:
  49:DSP/Mixer.cpp ****         }
 634              		.loc 2 49 23 discriminator 3 view .LVU159
 635              	.LBE93:
  54:DSP/Mixer.cpp ****     }
  55:DSP/Mixer.cpp **** }...
 636              		.loc 2 55 1 view .LVU160
 637 0080 02B0     		add	sp, sp, #8
 638              		.cfi_def_cfa_offset 24
 639              		@ sp needed
 640 0082 BDE8F081 		pop	{r4, r5, r6, r7, r8, pc}
 641              	.LVL43:
ARM GAS  /var/folders/wz/z09yph4n0qj4t7mjxhl6ttn80000gn/T//ccFqjB4b.s 			page 26


 642              	.L37:
 643              		.cfi_def_cfa_offset 0
 644              		.cfi_restore 4
 645              		.cfi_restore 5
 646              		.cfi_restore 6
 647              		.cfi_restore 7
 648              		.cfi_restore 8
 649              		.cfi_restore 14
 650              		.loc 2 55 1 view .LVU161
 651 0086 7047     		bx	lr
 652              		.cfi_endproc
 653              	.LFE4826:
 655              		.section	.text.startup._GLOBAL__sub_I_delayLine,"ax",%progbits
 656              		.align	1
 657              		.p2align 2,,3
 658              		.syntax unified
 659              		.thumb
 660              		.thumb_func
 662              	_GLOBAL__sub_I_delayLine:
 663              	.LFB5400:
 664              		.loc 2 55 1 is_stmt 1 view -0
 665              		.cfi_startproc
 666              		@ args = 0, pretend = 0, frame = 0
 667              		@ frame_needed = 0, uses_anonymous_args = 0
 668              		@ link register save eliminated.
 669              	.LVL44:
 670              	.LBB94:
 671              	.LBI94:
 672              		.loc 2 55 1 view .LVU163
 673              	.LBB95:
 674              	.LBB96:
 675              	.LBI96:
  23:../../../DaisySP//Source/Utility/delayline.h ****     ~DelayLine() {}
 676              		.loc 1 23 5 view .LVU164
  23:../../../DaisySP//Source/Utility/delayline.h ****     ~DelayLine() {}
 677              		.loc 1 23 5 is_stmt 0 view .LVU165
 678              	.LBE96:
 679              		.file 7 "DSP/FX/Delay.h"
   1:DSP/FX/Delay.h **** #ifndef DELAY_H
   2:DSP/FX/Delay.h **** #define DELAY_H
   3:DSP/FX/Delay.h **** 
   4:DSP/FX/Delay.h **** #include "../../Parameters/AudioParameter.h"
   5:DSP/FX/Delay.h **** 
   6:DSP/FX/Delay.h **** /************************************************************//**
   7:DSP/FX/Delay.h ****  *  Class name: Delay
   8:DSP/FX/Delay.h ****  *  Function: Processes delay effect for block of input sanples
   9:DSP/FX/Delay.h ****  ***************************************************************/
  10:DSP/FX/Delay.h **** using namespace daisysp;
  11:DSP/FX/Delay.h **** 
  12:DSP/FX/Delay.h **** DelayLine<float, MAXDELAY> DSY_SDRAM_BSS delayLine;
 680              		.loc 7 12 42 view .LVU166
 681 0000 024A     		ldr	r2, .L43
 682 0002 0349     		ldr	r1, .L43+4
 683 0004 0348     		ldr	r0, .L43+8
 684 0006 FFF7FEBF 		b	__aeabi_atexit
 685              	.LVL45:
 686              	.L44:
ARM GAS  /var/folders/wz/z09yph4n0qj4t7mjxhl6ttn80000gn/T//ccFqjB4b.s 			page 27


 687 000a 00BF     		.align	2
 688              	.L43:
 689 000c 00000000 		.word	__dso_handle
 690 0010 00000000 		.word	_ZN7daisysp9DelayLineIfLj240000EED1Ev
 691 0014 00000000 		.word	delayLine
 692              	.LBE95:
 693              	.LBE94:
 694              		.cfi_endproc
 695              	.LFE5400:
 697              		.section	.init_array,"aw",%init_array
 698              		.align	2
 699 0000 00000000 		.word	_GLOBAL__sub_I_delayLine(target1)
 700              		.global	delayLine
 701              		.section	.sdram_bss,"aw"
 702              		.align	2
 705              	delayLine:
 706 0000 00000000 		.space	960012
 706      00000000 
 706      00000000 
 706      00000000 
 706      00000000 
 707              		.text
 708              	.Letext0:
 709              		.file 8 "/Library/DaisyToolchain/0.2.0/arm/arm-none-eabi/include/machine/_default_types.h"
 710              		.file 9 "/Library/DaisyToolchain/0.2.0/arm/arm-none-eabi/include/sys/_stdint.h"
 711              		.file 10 "/Library/DaisyToolchain/0.2.0/arm/arm-none-eabi/include/stdint.h"
 712              		.file 11 "/Library/DaisyToolchain/0.2.0/arm/lib/gcc/arm-none-eabi/10.3.1/include/stddef.h"
 713              		.file 12 "/Library/DaisyToolchain/0.2.0/arm/arm-none-eabi/include/c++/10.3.1/cmath"
 714              		.file 13 "/Library/DaisyToolchain/0.2.0/arm/arm-none-eabi/include/c++/10.3.1/bits/std_abs.h"
 715              		.file 14 "/Library/DaisyToolchain/0.2.0/arm/arm-none-eabi/include/c++/10.3.1/cstdlib"
 716              		.file 15 "/Library/DaisyToolchain/0.2.0/arm/arm-none-eabi/include/c++/10.3.1/cstdint"
 717              		.file 16 "/Library/DaisyToolchain/0.2.0/arm/arm-none-eabi/include/c++/10.3.1/type_traits"
 718              		.file 17 "/Library/DaisyToolchain/0.2.0/arm/arm-none-eabi/include/c++/10.3.1/debug/debug.h"
 719              		.file 18 "/Library/DaisyToolchain/0.2.0/arm/arm-none-eabi/include/c++/10.3.1/arm-none-eabi/thumb/v
 720              		.file 19 "/Library/DaisyToolchain/0.2.0/arm/arm-none-eabi/include/c++/10.3.1/bits/algorithmfwd.h"
 721              		.file 20 "/Library/DaisyToolchain/0.2.0/arm/arm-none-eabi/include/c++/10.3.1/bits/exception_ptr.h"
 722              		.file 21 "/Library/DaisyToolchain/0.2.0/arm/arm-none-eabi/include/c++/10.3.1/cstdarg"
 723              		.file 22 "/Library/DaisyToolchain/0.2.0/arm/arm-none-eabi/include/c++/10.3.1/cstdio"
 724              		.file 23 "/Library/DaisyToolchain/0.2.0/arm/arm-none-eabi/include/c++/10.3.1/cstring"
 725              		.file 24 "/Library/DaisyToolchain/0.2.0/arm/arm-none-eabi/include/c++/10.3.1/cwchar"
 726              		.file 25 "/Library/DaisyToolchain/0.2.0/arm/arm-none-eabi/include/c++/10.3.1/clocale"
 727              		.file 26 "/Library/DaisyToolchain/0.2.0/arm/arm-none-eabi/include/c++/10.3.1/bits/basic_string.h"
 728              		.file 27 "/Library/DaisyToolchain/0.2.0/arm/arm-none-eabi/include/c++/10.3.1/bits/stl_iterator.h"
 729              		.file 28 "/Library/DaisyToolchain/0.2.0/arm/arm-none-eabi/include/c++/10.3.1/bits/move.h"
 730              		.file 29 "/Library/DaisyToolchain/0.2.0/arm/arm-none-eabi/include/c++/10.3.1/bits/predefined_ops.h
 731              		.file 30 "/Library/DaisyToolchain/0.2.0/arm/arm-none-eabi/include/sys/_types.h"
 732              		.file 31 "/Library/DaisyToolchain/0.2.0/arm/arm-none-eabi/include/sys/reent.h"
 733              		.file 32 "/Library/DaisyToolchain/0.2.0/arm/arm-none-eabi/include/sys/lock.h"
 734              		.file 33 "/Library/DaisyToolchain/0.2.0/arm/arm-none-eabi/include/math.h"
 735              		.file 34 "/Library/DaisyToolchain/0.2.0/arm/arm-none-eabi/include/stdlib.h"
 736              		.file 35 "/Library/DaisyToolchain/0.2.0/arm/arm-none-eabi/include/c++/10.3.1/math.h"
 737              		.file 36 "/Library/DaisyToolchain/0.2.0/arm/arm-none-eabi/include/c++/10.3.1/stdlib.h"
 738              		.file 37 "../../../libDaisy//src/daisy_core.h"
 739              		.file 38 "../../../libDaisy//src/per/tim.h"
 740              		.file 39 "../../../libDaisy//src/sys/system.h"
 741              		.file 40 "../../../libDaisy//src/per/qspi.h"
 742              		.file 41 "../../../libDaisy//src/per/dac.h"
ARM GAS  /var/folders/wz/z09yph4n0qj4t7mjxhl6ttn80000gn/T//ccFqjB4b.s 			page 28


 743              		.file 42 "../../../libDaisy//src/per/sai.h"
 744              		.file 43 "../../../libDaisy//src/hid/audio.h"
 745              		.file 44 "../../../libDaisy//src/per/adc.h"
 746              		.file 45 "../../../libDaisy//src/hid/usb.h"
 747              		.file 46 "../../../libDaisy//src/hid/logger_impl.h"
 748              		.file 47 "../../../libDaisy//src/util/wav_format.h"
 749              		.file 48 "../../../libDaisy//src/dev/max11300.h"
 750              		.file 49 "../../../libDaisy//src/hid/logger.h"
 751              		.file 50 "../../../libDaisy//src/per/gpio.h"
 752              		.file 51 "../../../libDaisy//src/dev/sdram.h"
 753              		.file 52 "/Library/DaisyToolchain/0.2.0/arm/lib/gcc/arm-none-eabi/10.3.1/include/stdarg.h"
 754              		.file 53 "/Library/DaisyToolchain/0.2.0/arm/arm-none-eabi/include/stdio.h"
 755              		.file 54 "/Library/DaisyToolchain/0.2.0/arm/arm-none-eabi/include/string.h"
 756              		.file 55 "../../../DaisySP//Source/Control/adenv.h"
 757              		.file 56 "../../../DaisySP//Source/Utility/dsp.h"
 758              		.file 57 "/Library/DaisyToolchain/0.2.0/arm/arm-none-eabi/include/wchar.h"
 759              		.file 58 "/Library/DaisyToolchain/0.2.0/arm/arm-none-eabi/include/locale.h"
 760              		.file 59 "DSP/FX/../../Parameters/../Utils/Helpers.h"
 761              		.file 60 "DSP/Mixer.h"
 762              		.file 61 "<built-in>"
 763              		.file 62 "../../../libDaisy//src/dev/sr_595.h"
ARM GAS  /var/folders/wz/z09yph4n0qj4t7mjxhl6ttn80000gn/T//ccFqjB4b.s 			page 29


DEFINED SYMBOLS
                            *ABS*:0000000000000000 Mixer.cpp
/var/folders/wz/z09yph4n0qj4t7mjxhl6ttn80000gn/T//ccFqjB4b.s:19     .text._ZN7daisysp9DelayLineIfLj240000EED2Ev:0000000000000000 $t
/var/folders/wz/z09yph4n0qj4t7mjxhl6ttn80000gn/T//ccFqjB4b.s:26     .text._ZN7daisysp9DelayLineIfLj240000EED2Ev:0000000000000000 _ZN7daisysp9DelayLineIfLj240000EED2Ev
/var/folders/wz/z09yph4n0qj4t7mjxhl6ttn80000gn/T//ccFqjB4b.s:26     .text._ZN7daisysp9DelayLineIfLj240000EED2Ev:0000000000000000 _ZN7daisysp9DelayLineIfLj240000EED1Ev
/var/folders/wz/z09yph4n0qj4t7mjxhl6ttn80000gn/T//ccFqjB4b.s:43     .text._ZN5Mixer4initEPN5daisy9DaisySeedEPPfS4_S4_S4_S4_:0000000000000000 $t
/var/folders/wz/z09yph4n0qj4t7mjxhl6ttn80000gn/T//ccFqjB4b.s:50     .text._ZN5Mixer4initEPN5daisy9DaisySeedEPPfS4_S4_S4_S4_:0000000000000000 _ZN5Mixer4initEPN5daisy9DaisySeedEPPfS4_S4_S4_S4_
/var/folders/wz/z09yph4n0qj4t7mjxhl6ttn80000gn/T//ccFqjB4b.s:226    .text._ZN5Mixer4initEPN5daisy9DaisySeedEPPfS4_S4_S4_S4_:000000000000009c $d
/var/folders/wz/z09yph4n0qj4t7mjxhl6ttn80000gn/T//ccFqjB4b.s:235    .rodata._ZN5Mixer4tickEv.str1.4:0000000000000000 $d
/var/folders/wz/z09yph4n0qj4t7mjxhl6ttn80000gn/T//ccFqjB4b.s:239    .text._ZN5Mixer4tickEv:0000000000000000 $t
/var/folders/wz/z09yph4n0qj4t7mjxhl6ttn80000gn/T//ccFqjB4b.s:246    .text._ZN5Mixer4tickEv:0000000000000000 _ZN5Mixer4tickEv
/var/folders/wz/z09yph4n0qj4t7mjxhl6ttn80000gn/T//ccFqjB4b.s:412    .text._ZN5Mixer4tickEv:0000000000000094 $d
/var/folders/wz/z09yph4n0qj4t7mjxhl6ttn80000gn/T//ccFqjB4b.s:423    .text._ZN5Mixer7prepareEv:0000000000000000 $t
/var/folders/wz/z09yph4n0qj4t7mjxhl6ttn80000gn/T//ccFqjB4b.s:430    .text._ZN5Mixer7prepareEv:0000000000000000 _ZN5Mixer7prepareEv
/var/folders/wz/z09yph4n0qj4t7mjxhl6ttn80000gn/T//ccFqjB4b.s:444    .text._ZN5Mixer17processInputBlockEPKfS1_j:0000000000000000 $t
/var/folders/wz/z09yph4n0qj4t7mjxhl6ttn80000gn/T//ccFqjB4b.s:451    .text._ZN5Mixer17processInputBlockEPKfS1_j:0000000000000000 _ZN5Mixer17processInputBlockEPKfS1_j
/var/folders/wz/z09yph4n0qj4t7mjxhl6ttn80000gn/T//ccFqjB4b.s:468    .text._ZN5Mixer18processOutputBlockEPfS0_j:0000000000000000 $t
/var/folders/wz/z09yph4n0qj4t7mjxhl6ttn80000gn/T//ccFqjB4b.s:475    .text._ZN5Mixer18processOutputBlockEPfS0_j:0000000000000000 _ZN5Mixer18processOutputBlockEPfS0_j
/var/folders/wz/z09yph4n0qj4t7mjxhl6ttn80000gn/T//ccFqjB4b.s:656    .text.startup._GLOBAL__sub_I_delayLine:0000000000000000 $t
/var/folders/wz/z09yph4n0qj4t7mjxhl6ttn80000gn/T//ccFqjB4b.s:662    .text.startup._GLOBAL__sub_I_delayLine:0000000000000000 _GLOBAL__sub_I_delayLine
/var/folders/wz/z09yph4n0qj4t7mjxhl6ttn80000gn/T//ccFqjB4b.s:689    .text.startup._GLOBAL__sub_I_delayLine:000000000000000c $d
/var/folders/wz/z09yph4n0qj4t7mjxhl6ttn80000gn/T//ccFqjB4b.s:705    .sdram_bss:0000000000000000 delayLine
/var/folders/wz/z09yph4n0qj4t7mjxhl6ttn80000gn/T//ccFqjB4b.s:698    .init_array:0000000000000000 $d
/var/folders/wz/z09yph4n0qj4t7mjxhl6ttn80000gn/T//ccFqjB4b.s:702    .sdram_bss:0000000000000000 $d
                           .group:0000000000000000 _ZN7daisysp9DelayLineIfLj240000EED5Ev

UNDEFINED SYMBOLS
memset
_ZN5Track4initEPPf
_ZNK5daisy9AdcHandle8GetFloatEh
_ZN5daisy6LoggerILNS_17LoggerDestinationE1EE9PrintLineEPKcz
_ZN5Track17processInputBlockEPKfS1_j
_ZN5Track13processOutputEv
__aeabi_atexit
__dso_handle
