ARM GAS  /var/folders/wz/z09yph4n0qj4t7mjxhl6ttn80000gn/T//ccNrSY5I.s 			page 1


   1              		.cpu cortex-m7
   2              		.arch armv7e-m
   3              		.fpu fpv5-d16
   4              		.eabi_attribute 28, 1
   5              		.eabi_attribute 20, 1
   6              		.eabi_attribute 21, 1
   7              		.eabi_attribute 23, 3
   8              		.eabi_attribute 24, 1
   9              		.eabi_attribute 25, 1
  10              		.eabi_attribute 26, 1
  11              		.eabi_attribute 30, 4
  12              		.eabi_attribute 34, 1
  13              		.eabi_attribute 18, 4
  14              		.file	"PitchShift.cpp"
  15              		.text
  16              	.Ltext0:
  17              		.cfi_sections	.debug_frame
  18              		.section	.text._ZNSt17_Function_handlerIFvfEZN10PitchShift4initEPN5daisy9DaisySeedEEUlfE_E9_M_invo
  19              		.align	1
  20              		.syntax unified
  21              		.thumb
  22              		.thumb_func
  24              	_ZNSt17_Function_handlerIFvfEZN10PitchShift4initEPN5daisy9DaisySeedEEUlfE_E9_M_invokeERKSt9_Any_dat
  25              	.LVL0:
  26              	.LFB6128:
  27              		.file 1 "/Library/DaisyToolchain/0.2.0/arm/arm-none-eabi/include/c++/10.3.1/bits/std_function.h"
   1:/Library/DaisyToolchain/0.2.0/arm/arm-none-eabi/include/c++/10.3.1/bits/std_function.h **** // Implementation of std::function -*- C++ -*-
   2:/Library/DaisyToolchain/0.2.0/arm/arm-none-eabi/include/c++/10.3.1/bits/std_function.h **** 
   3:/Library/DaisyToolchain/0.2.0/arm/arm-none-eabi/include/c++/10.3.1/bits/std_function.h **** // Copyright (C) 2004-2020 Free Software Foundation, Inc.
   4:/Library/DaisyToolchain/0.2.0/arm/arm-none-eabi/include/c++/10.3.1/bits/std_function.h **** //
   5:/Library/DaisyToolchain/0.2.0/arm/arm-none-eabi/include/c++/10.3.1/bits/std_function.h **** // This file is part of the GNU ISO C++ Library.  This library is free
   6:/Library/DaisyToolchain/0.2.0/arm/arm-none-eabi/include/c++/10.3.1/bits/std_function.h **** // software; you can redistribute it and/or modify it under the
   7:/Library/DaisyToolchain/0.2.0/arm/arm-none-eabi/include/c++/10.3.1/bits/std_function.h **** // terms of the GNU General Public License as published by the
   8:/Library/DaisyToolchain/0.2.0/arm/arm-none-eabi/include/c++/10.3.1/bits/std_function.h **** // Free Software Foundation; either version 3, or (at your option)
   9:/Library/DaisyToolchain/0.2.0/arm/arm-none-eabi/include/c++/10.3.1/bits/std_function.h **** // any later version.
  10:/Library/DaisyToolchain/0.2.0/arm/arm-none-eabi/include/c++/10.3.1/bits/std_function.h **** 
  11:/Library/DaisyToolchain/0.2.0/arm/arm-none-eabi/include/c++/10.3.1/bits/std_function.h **** // This library is distributed in the hope that it will be useful,
  12:/Library/DaisyToolchain/0.2.0/arm/arm-none-eabi/include/c++/10.3.1/bits/std_function.h **** // but WITHOUT ANY WARRANTY; without even the implied warranty of
  13:/Library/DaisyToolchain/0.2.0/arm/arm-none-eabi/include/c++/10.3.1/bits/std_function.h **** // MERCHANTABILITY or FITNESS FOR A PARTICULAR PURPOSE.  See the
  14:/Library/DaisyToolchain/0.2.0/arm/arm-none-eabi/include/c++/10.3.1/bits/std_function.h **** // GNU General Public License for more details.
  15:/Library/DaisyToolchain/0.2.0/arm/arm-none-eabi/include/c++/10.3.1/bits/std_function.h **** 
  16:/Library/DaisyToolchain/0.2.0/arm/arm-none-eabi/include/c++/10.3.1/bits/std_function.h **** // Under Section 7 of GPL version 3, you are granted additional
  17:/Library/DaisyToolchain/0.2.0/arm/arm-none-eabi/include/c++/10.3.1/bits/std_function.h **** // permissions described in the GCC Runtime Library Exception, version
  18:/Library/DaisyToolchain/0.2.0/arm/arm-none-eabi/include/c++/10.3.1/bits/std_function.h **** // 3.1, as published by the Free Software Foundation.
  19:/Library/DaisyToolchain/0.2.0/arm/arm-none-eabi/include/c++/10.3.1/bits/std_function.h **** 
  20:/Library/DaisyToolchain/0.2.0/arm/arm-none-eabi/include/c++/10.3.1/bits/std_function.h **** // You should have received a copy of the GNU General Public License and
  21:/Library/DaisyToolchain/0.2.0/arm/arm-none-eabi/include/c++/10.3.1/bits/std_function.h **** // a copy of the GCC Runtime Library Exception along with this program;
  22:/Library/DaisyToolchain/0.2.0/arm/arm-none-eabi/include/c++/10.3.1/bits/std_function.h **** // see the files COPYING3 and COPYING.RUNTIME respectively.  If not, see
  23:/Library/DaisyToolchain/0.2.0/arm/arm-none-eabi/include/c++/10.3.1/bits/std_function.h **** // <http://www.gnu.org/licenses/>.
  24:/Library/DaisyToolchain/0.2.0/arm/arm-none-eabi/include/c++/10.3.1/bits/std_function.h **** 
  25:/Library/DaisyToolchain/0.2.0/arm/arm-none-eabi/include/c++/10.3.1/bits/std_function.h **** /** @file include/bits/std_function.h
  26:/Library/DaisyToolchain/0.2.0/arm/arm-none-eabi/include/c++/10.3.1/bits/std_function.h ****  *  This is an internal header file, included by other library headers.
  27:/Library/DaisyToolchain/0.2.0/arm/arm-none-eabi/include/c++/10.3.1/bits/std_function.h ****  *  Do not attempt to use it directly. @headername{functional}
  28:/Library/DaisyToolchain/0.2.0/arm/arm-none-eabi/include/c++/10.3.1/bits/std_function.h ****  */
  29:/Library/DaisyToolchain/0.2.0/arm/arm-none-eabi/include/c++/10.3.1/bits/std_function.h **** 
  30:/Library/DaisyToolchain/0.2.0/arm/arm-none-eabi/include/c++/10.3.1/bits/std_function.h **** #ifndef _GLIBCXX_STD_FUNCTION_H
  31:/Library/DaisyToolchain/0.2.0/arm/arm-none-eabi/include/c++/10.3.1/bits/std_function.h **** #define _GLIBCXX_STD_FUNCTION_H 1
ARM GAS  /var/folders/wz/z09yph4n0qj4t7mjxhl6ttn80000gn/T//ccNrSY5I.s 			page 2


  32:/Library/DaisyToolchain/0.2.0/arm/arm-none-eabi/include/c++/10.3.1/bits/std_function.h **** 
  33:/Library/DaisyToolchain/0.2.0/arm/arm-none-eabi/include/c++/10.3.1/bits/std_function.h **** #pragma GCC system_header
  34:/Library/DaisyToolchain/0.2.0/arm/arm-none-eabi/include/c++/10.3.1/bits/std_function.h **** 
  35:/Library/DaisyToolchain/0.2.0/arm/arm-none-eabi/include/c++/10.3.1/bits/std_function.h **** #if __cplusplus < 201103L
  36:/Library/DaisyToolchain/0.2.0/arm/arm-none-eabi/include/c++/10.3.1/bits/std_function.h **** # include <bits/c++0x_warning.h>
  37:/Library/DaisyToolchain/0.2.0/arm/arm-none-eabi/include/c++/10.3.1/bits/std_function.h **** #else
  38:/Library/DaisyToolchain/0.2.0/arm/arm-none-eabi/include/c++/10.3.1/bits/std_function.h **** 
  39:/Library/DaisyToolchain/0.2.0/arm/arm-none-eabi/include/c++/10.3.1/bits/std_function.h **** #if __cpp_rtti
  40:/Library/DaisyToolchain/0.2.0/arm/arm-none-eabi/include/c++/10.3.1/bits/std_function.h **** # include <typeinfo>
  41:/Library/DaisyToolchain/0.2.0/arm/arm-none-eabi/include/c++/10.3.1/bits/std_function.h **** #endif
  42:/Library/DaisyToolchain/0.2.0/arm/arm-none-eabi/include/c++/10.3.1/bits/std_function.h **** #include <bits/stl_function.h>
  43:/Library/DaisyToolchain/0.2.0/arm/arm-none-eabi/include/c++/10.3.1/bits/std_function.h **** #include <bits/invoke.h>
  44:/Library/DaisyToolchain/0.2.0/arm/arm-none-eabi/include/c++/10.3.1/bits/std_function.h **** #include <bits/refwrap.h>
  45:/Library/DaisyToolchain/0.2.0/arm/arm-none-eabi/include/c++/10.3.1/bits/std_function.h **** #include <bits/functexcept.h>
  46:/Library/DaisyToolchain/0.2.0/arm/arm-none-eabi/include/c++/10.3.1/bits/std_function.h **** 
  47:/Library/DaisyToolchain/0.2.0/arm/arm-none-eabi/include/c++/10.3.1/bits/std_function.h **** namespace std _GLIBCXX_VISIBILITY(default)
  48:/Library/DaisyToolchain/0.2.0/arm/arm-none-eabi/include/c++/10.3.1/bits/std_function.h **** {
  49:/Library/DaisyToolchain/0.2.0/arm/arm-none-eabi/include/c++/10.3.1/bits/std_function.h **** _GLIBCXX_BEGIN_NAMESPACE_VERSION
  50:/Library/DaisyToolchain/0.2.0/arm/arm-none-eabi/include/c++/10.3.1/bits/std_function.h **** 
  51:/Library/DaisyToolchain/0.2.0/arm/arm-none-eabi/include/c++/10.3.1/bits/std_function.h ****   /**
  52:/Library/DaisyToolchain/0.2.0/arm/arm-none-eabi/include/c++/10.3.1/bits/std_function.h ****    *  @brief Exception class thrown when class template function's
  53:/Library/DaisyToolchain/0.2.0/arm/arm-none-eabi/include/c++/10.3.1/bits/std_function.h ****    *  operator() is called with an empty target.
  54:/Library/DaisyToolchain/0.2.0/arm/arm-none-eabi/include/c++/10.3.1/bits/std_function.h ****    *  @ingroup exceptions
  55:/Library/DaisyToolchain/0.2.0/arm/arm-none-eabi/include/c++/10.3.1/bits/std_function.h ****    */
  56:/Library/DaisyToolchain/0.2.0/arm/arm-none-eabi/include/c++/10.3.1/bits/std_function.h ****   class bad_function_call : public std::exception
  57:/Library/DaisyToolchain/0.2.0/arm/arm-none-eabi/include/c++/10.3.1/bits/std_function.h ****   {
  58:/Library/DaisyToolchain/0.2.0/arm/arm-none-eabi/include/c++/10.3.1/bits/std_function.h ****   public:
  59:/Library/DaisyToolchain/0.2.0/arm/arm-none-eabi/include/c++/10.3.1/bits/std_function.h ****     virtual ~bad_function_call() noexcept;
  60:/Library/DaisyToolchain/0.2.0/arm/arm-none-eabi/include/c++/10.3.1/bits/std_function.h **** 
  61:/Library/DaisyToolchain/0.2.0/arm/arm-none-eabi/include/c++/10.3.1/bits/std_function.h ****     const char* what() const noexcept;
  62:/Library/DaisyToolchain/0.2.0/arm/arm-none-eabi/include/c++/10.3.1/bits/std_function.h ****   };
  63:/Library/DaisyToolchain/0.2.0/arm/arm-none-eabi/include/c++/10.3.1/bits/std_function.h **** 
  64:/Library/DaisyToolchain/0.2.0/arm/arm-none-eabi/include/c++/10.3.1/bits/std_function.h ****   /**
  65:/Library/DaisyToolchain/0.2.0/arm/arm-none-eabi/include/c++/10.3.1/bits/std_function.h ****    *  Trait identifying "location-invariant" types, meaning that the
  66:/Library/DaisyToolchain/0.2.0/arm/arm-none-eabi/include/c++/10.3.1/bits/std_function.h ****    *  address of the object (or any of its members) will not escape.
  67:/Library/DaisyToolchain/0.2.0/arm/arm-none-eabi/include/c++/10.3.1/bits/std_function.h ****    *  Trivially copyable types are location-invariant and users can
  68:/Library/DaisyToolchain/0.2.0/arm/arm-none-eabi/include/c++/10.3.1/bits/std_function.h ****    *  specialize this trait for other types.
  69:/Library/DaisyToolchain/0.2.0/arm/arm-none-eabi/include/c++/10.3.1/bits/std_function.h ****    */
  70:/Library/DaisyToolchain/0.2.0/arm/arm-none-eabi/include/c++/10.3.1/bits/std_function.h ****   template<typename _Tp>
  71:/Library/DaisyToolchain/0.2.0/arm/arm-none-eabi/include/c++/10.3.1/bits/std_function.h ****     struct __is_location_invariant
  72:/Library/DaisyToolchain/0.2.0/arm/arm-none-eabi/include/c++/10.3.1/bits/std_function.h ****     : is_trivially_copyable<_Tp>::type
  73:/Library/DaisyToolchain/0.2.0/arm/arm-none-eabi/include/c++/10.3.1/bits/std_function.h ****     { };
  74:/Library/DaisyToolchain/0.2.0/arm/arm-none-eabi/include/c++/10.3.1/bits/std_function.h **** 
  75:/Library/DaisyToolchain/0.2.0/arm/arm-none-eabi/include/c++/10.3.1/bits/std_function.h ****   class _Undefined_class;
  76:/Library/DaisyToolchain/0.2.0/arm/arm-none-eabi/include/c++/10.3.1/bits/std_function.h **** 
  77:/Library/DaisyToolchain/0.2.0/arm/arm-none-eabi/include/c++/10.3.1/bits/std_function.h ****   union _Nocopy_types
  78:/Library/DaisyToolchain/0.2.0/arm/arm-none-eabi/include/c++/10.3.1/bits/std_function.h ****   {
  79:/Library/DaisyToolchain/0.2.0/arm/arm-none-eabi/include/c++/10.3.1/bits/std_function.h ****     void*       _M_object;
  80:/Library/DaisyToolchain/0.2.0/arm/arm-none-eabi/include/c++/10.3.1/bits/std_function.h ****     const void* _M_const_object;
  81:/Library/DaisyToolchain/0.2.0/arm/arm-none-eabi/include/c++/10.3.1/bits/std_function.h ****     void (*_M_function_pointer)();
  82:/Library/DaisyToolchain/0.2.0/arm/arm-none-eabi/include/c++/10.3.1/bits/std_function.h ****     void (_Undefined_class::*_M_member_pointer)();
  83:/Library/DaisyToolchain/0.2.0/arm/arm-none-eabi/include/c++/10.3.1/bits/std_function.h ****   };
  84:/Library/DaisyToolchain/0.2.0/arm/arm-none-eabi/include/c++/10.3.1/bits/std_function.h **** 
  85:/Library/DaisyToolchain/0.2.0/arm/arm-none-eabi/include/c++/10.3.1/bits/std_function.h ****   union [[gnu::may_alias]] _Any_data
  86:/Library/DaisyToolchain/0.2.0/arm/arm-none-eabi/include/c++/10.3.1/bits/std_function.h ****   {
  87:/Library/DaisyToolchain/0.2.0/arm/arm-none-eabi/include/c++/10.3.1/bits/std_function.h ****     void*       _M_access()       { return &_M_pod_data[0]; }
  88:/Library/DaisyToolchain/0.2.0/arm/arm-none-eabi/include/c++/10.3.1/bits/std_function.h ****     const void* _M_access() const { return &_M_pod_data[0]; }
ARM GAS  /var/folders/wz/z09yph4n0qj4t7mjxhl6ttn80000gn/T//ccNrSY5I.s 			page 3


  89:/Library/DaisyToolchain/0.2.0/arm/arm-none-eabi/include/c++/10.3.1/bits/std_function.h **** 
  90:/Library/DaisyToolchain/0.2.0/arm/arm-none-eabi/include/c++/10.3.1/bits/std_function.h ****     template<typename _Tp>
  91:/Library/DaisyToolchain/0.2.0/arm/arm-none-eabi/include/c++/10.3.1/bits/std_function.h ****       _Tp&
  92:/Library/DaisyToolchain/0.2.0/arm/arm-none-eabi/include/c++/10.3.1/bits/std_function.h ****       _M_access()
  93:/Library/DaisyToolchain/0.2.0/arm/arm-none-eabi/include/c++/10.3.1/bits/std_function.h ****       { return *static_cast<_Tp*>(_M_access()); }
  94:/Library/DaisyToolchain/0.2.0/arm/arm-none-eabi/include/c++/10.3.1/bits/std_function.h **** 
  95:/Library/DaisyToolchain/0.2.0/arm/arm-none-eabi/include/c++/10.3.1/bits/std_function.h ****     template<typename _Tp>
  96:/Library/DaisyToolchain/0.2.0/arm/arm-none-eabi/include/c++/10.3.1/bits/std_function.h ****       const _Tp&
  97:/Library/DaisyToolchain/0.2.0/arm/arm-none-eabi/include/c++/10.3.1/bits/std_function.h ****       _M_access() const
  98:/Library/DaisyToolchain/0.2.0/arm/arm-none-eabi/include/c++/10.3.1/bits/std_function.h ****       { return *static_cast<const _Tp*>(_M_access()); }
  99:/Library/DaisyToolchain/0.2.0/arm/arm-none-eabi/include/c++/10.3.1/bits/std_function.h **** 
 100:/Library/DaisyToolchain/0.2.0/arm/arm-none-eabi/include/c++/10.3.1/bits/std_function.h ****     _Nocopy_types _M_unused;
 101:/Library/DaisyToolchain/0.2.0/arm/arm-none-eabi/include/c++/10.3.1/bits/std_function.h ****     char _M_pod_data[sizeof(_Nocopy_types)];
 102:/Library/DaisyToolchain/0.2.0/arm/arm-none-eabi/include/c++/10.3.1/bits/std_function.h ****   };
 103:/Library/DaisyToolchain/0.2.0/arm/arm-none-eabi/include/c++/10.3.1/bits/std_function.h **** 
 104:/Library/DaisyToolchain/0.2.0/arm/arm-none-eabi/include/c++/10.3.1/bits/std_function.h ****   enum _Manager_operation
 105:/Library/DaisyToolchain/0.2.0/arm/arm-none-eabi/include/c++/10.3.1/bits/std_function.h ****   {
 106:/Library/DaisyToolchain/0.2.0/arm/arm-none-eabi/include/c++/10.3.1/bits/std_function.h ****     __get_type_info,
 107:/Library/DaisyToolchain/0.2.0/arm/arm-none-eabi/include/c++/10.3.1/bits/std_function.h ****     __get_functor_ptr,
 108:/Library/DaisyToolchain/0.2.0/arm/arm-none-eabi/include/c++/10.3.1/bits/std_function.h ****     __clone_functor,
 109:/Library/DaisyToolchain/0.2.0/arm/arm-none-eabi/include/c++/10.3.1/bits/std_function.h ****     __destroy_functor
 110:/Library/DaisyToolchain/0.2.0/arm/arm-none-eabi/include/c++/10.3.1/bits/std_function.h ****   };
 111:/Library/DaisyToolchain/0.2.0/arm/arm-none-eabi/include/c++/10.3.1/bits/std_function.h **** 
 112:/Library/DaisyToolchain/0.2.0/arm/arm-none-eabi/include/c++/10.3.1/bits/std_function.h ****   template<typename _Signature>
 113:/Library/DaisyToolchain/0.2.0/arm/arm-none-eabi/include/c++/10.3.1/bits/std_function.h ****     class function;
 114:/Library/DaisyToolchain/0.2.0/arm/arm-none-eabi/include/c++/10.3.1/bits/std_function.h **** 
 115:/Library/DaisyToolchain/0.2.0/arm/arm-none-eabi/include/c++/10.3.1/bits/std_function.h ****   /// Base class of all polymorphic function object wrappers.
 116:/Library/DaisyToolchain/0.2.0/arm/arm-none-eabi/include/c++/10.3.1/bits/std_function.h ****   class _Function_base
 117:/Library/DaisyToolchain/0.2.0/arm/arm-none-eabi/include/c++/10.3.1/bits/std_function.h ****   {
 118:/Library/DaisyToolchain/0.2.0/arm/arm-none-eabi/include/c++/10.3.1/bits/std_function.h ****   public:
 119:/Library/DaisyToolchain/0.2.0/arm/arm-none-eabi/include/c++/10.3.1/bits/std_function.h ****     static const size_t _M_max_size = sizeof(_Nocopy_types);
 120:/Library/DaisyToolchain/0.2.0/arm/arm-none-eabi/include/c++/10.3.1/bits/std_function.h ****     static const size_t _M_max_align = __alignof__(_Nocopy_types);
 121:/Library/DaisyToolchain/0.2.0/arm/arm-none-eabi/include/c++/10.3.1/bits/std_function.h **** 
 122:/Library/DaisyToolchain/0.2.0/arm/arm-none-eabi/include/c++/10.3.1/bits/std_function.h ****     template<typename _Functor>
 123:/Library/DaisyToolchain/0.2.0/arm/arm-none-eabi/include/c++/10.3.1/bits/std_function.h ****       class _Base_manager
 124:/Library/DaisyToolchain/0.2.0/arm/arm-none-eabi/include/c++/10.3.1/bits/std_function.h ****       {
 125:/Library/DaisyToolchain/0.2.0/arm/arm-none-eabi/include/c++/10.3.1/bits/std_function.h ****       protected:
 126:/Library/DaisyToolchain/0.2.0/arm/arm-none-eabi/include/c++/10.3.1/bits/std_function.h **** 	static const bool __stored_locally =
 127:/Library/DaisyToolchain/0.2.0/arm/arm-none-eabi/include/c++/10.3.1/bits/std_function.h **** 	(__is_location_invariant<_Functor>::value
 128:/Library/DaisyToolchain/0.2.0/arm/arm-none-eabi/include/c++/10.3.1/bits/std_function.h **** 	 && sizeof(_Functor) <= _M_max_size
 129:/Library/DaisyToolchain/0.2.0/arm/arm-none-eabi/include/c++/10.3.1/bits/std_function.h **** 	 && __alignof__(_Functor) <= _M_max_align
 130:/Library/DaisyToolchain/0.2.0/arm/arm-none-eabi/include/c++/10.3.1/bits/std_function.h **** 	 && (_M_max_align % __alignof__(_Functor) == 0));
 131:/Library/DaisyToolchain/0.2.0/arm/arm-none-eabi/include/c++/10.3.1/bits/std_function.h **** 
 132:/Library/DaisyToolchain/0.2.0/arm/arm-none-eabi/include/c++/10.3.1/bits/std_function.h **** 	typedef integral_constant<bool, __stored_locally> _Local_storage;
 133:/Library/DaisyToolchain/0.2.0/arm/arm-none-eabi/include/c++/10.3.1/bits/std_function.h **** 
 134:/Library/DaisyToolchain/0.2.0/arm/arm-none-eabi/include/c++/10.3.1/bits/std_function.h **** 	// Retrieve a pointer to the function object
 135:/Library/DaisyToolchain/0.2.0/arm/arm-none-eabi/include/c++/10.3.1/bits/std_function.h **** 	static _Functor*
 136:/Library/DaisyToolchain/0.2.0/arm/arm-none-eabi/include/c++/10.3.1/bits/std_function.h **** 	_M_get_pointer(const _Any_data& __source)
 137:/Library/DaisyToolchain/0.2.0/arm/arm-none-eabi/include/c++/10.3.1/bits/std_function.h **** 	{
 138:/Library/DaisyToolchain/0.2.0/arm/arm-none-eabi/include/c++/10.3.1/bits/std_function.h **** 	  if _GLIBCXX17_CONSTEXPR (__stored_locally)
 139:/Library/DaisyToolchain/0.2.0/arm/arm-none-eabi/include/c++/10.3.1/bits/std_function.h **** 	    {
 140:/Library/DaisyToolchain/0.2.0/arm/arm-none-eabi/include/c++/10.3.1/bits/std_function.h **** 	      const _Functor& __f = __source._M_access<_Functor>();
 141:/Library/DaisyToolchain/0.2.0/arm/arm-none-eabi/include/c++/10.3.1/bits/std_function.h **** 	      return const_cast<_Functor*>(std::__addressof(__f));
 142:/Library/DaisyToolchain/0.2.0/arm/arm-none-eabi/include/c++/10.3.1/bits/std_function.h **** 	    }
 143:/Library/DaisyToolchain/0.2.0/arm/arm-none-eabi/include/c++/10.3.1/bits/std_function.h **** 	  else // have stored a pointer
 144:/Library/DaisyToolchain/0.2.0/arm/arm-none-eabi/include/c++/10.3.1/bits/std_function.h **** 	    return __source._M_access<_Functor*>();
 145:/Library/DaisyToolchain/0.2.0/arm/arm-none-eabi/include/c++/10.3.1/bits/std_function.h **** 	}
ARM GAS  /var/folders/wz/z09yph4n0qj4t7mjxhl6ttn80000gn/T//ccNrSY5I.s 			page 4


 146:/Library/DaisyToolchain/0.2.0/arm/arm-none-eabi/include/c++/10.3.1/bits/std_function.h **** 
 147:/Library/DaisyToolchain/0.2.0/arm/arm-none-eabi/include/c++/10.3.1/bits/std_function.h **** 	// Clone a location-invariant function object that fits within
 148:/Library/DaisyToolchain/0.2.0/arm/arm-none-eabi/include/c++/10.3.1/bits/std_function.h **** 	// an _Any_data structure.
 149:/Library/DaisyToolchain/0.2.0/arm/arm-none-eabi/include/c++/10.3.1/bits/std_function.h **** 	static void
 150:/Library/DaisyToolchain/0.2.0/arm/arm-none-eabi/include/c++/10.3.1/bits/std_function.h **** 	_M_clone(_Any_data& __dest, const _Any_data& __source, true_type)
 151:/Library/DaisyToolchain/0.2.0/arm/arm-none-eabi/include/c++/10.3.1/bits/std_function.h **** 	{
 152:/Library/DaisyToolchain/0.2.0/arm/arm-none-eabi/include/c++/10.3.1/bits/std_function.h **** 	  ::new (__dest._M_access()) _Functor(__source._M_access<_Functor>());
 153:/Library/DaisyToolchain/0.2.0/arm/arm-none-eabi/include/c++/10.3.1/bits/std_function.h **** 	}
 154:/Library/DaisyToolchain/0.2.0/arm/arm-none-eabi/include/c++/10.3.1/bits/std_function.h **** 
 155:/Library/DaisyToolchain/0.2.0/arm/arm-none-eabi/include/c++/10.3.1/bits/std_function.h **** 	// Clone a function object that is not location-invariant or
 156:/Library/DaisyToolchain/0.2.0/arm/arm-none-eabi/include/c++/10.3.1/bits/std_function.h **** 	// that cannot fit into an _Any_data structure.
 157:/Library/DaisyToolchain/0.2.0/arm/arm-none-eabi/include/c++/10.3.1/bits/std_function.h **** 	static void
 158:/Library/DaisyToolchain/0.2.0/arm/arm-none-eabi/include/c++/10.3.1/bits/std_function.h **** 	_M_clone(_Any_data& __dest, const _Any_data& __source, false_type)
 159:/Library/DaisyToolchain/0.2.0/arm/arm-none-eabi/include/c++/10.3.1/bits/std_function.h **** 	{
 160:/Library/DaisyToolchain/0.2.0/arm/arm-none-eabi/include/c++/10.3.1/bits/std_function.h **** 	  __dest._M_access<_Functor*>() =
 161:/Library/DaisyToolchain/0.2.0/arm/arm-none-eabi/include/c++/10.3.1/bits/std_function.h **** 	    new _Functor(*__source._M_access<const _Functor*>());
 162:/Library/DaisyToolchain/0.2.0/arm/arm-none-eabi/include/c++/10.3.1/bits/std_function.h **** 	}
 163:/Library/DaisyToolchain/0.2.0/arm/arm-none-eabi/include/c++/10.3.1/bits/std_function.h **** 
 164:/Library/DaisyToolchain/0.2.0/arm/arm-none-eabi/include/c++/10.3.1/bits/std_function.h **** 	// Destroying a location-invariant object may still require
 165:/Library/DaisyToolchain/0.2.0/arm/arm-none-eabi/include/c++/10.3.1/bits/std_function.h **** 	// destruction.
 166:/Library/DaisyToolchain/0.2.0/arm/arm-none-eabi/include/c++/10.3.1/bits/std_function.h **** 	static void
 167:/Library/DaisyToolchain/0.2.0/arm/arm-none-eabi/include/c++/10.3.1/bits/std_function.h **** 	_M_destroy(_Any_data& __victim, true_type)
 168:/Library/DaisyToolchain/0.2.0/arm/arm-none-eabi/include/c++/10.3.1/bits/std_function.h **** 	{
 169:/Library/DaisyToolchain/0.2.0/arm/arm-none-eabi/include/c++/10.3.1/bits/std_function.h **** 	  __victim._M_access<_Functor>().~_Functor();
 170:/Library/DaisyToolchain/0.2.0/arm/arm-none-eabi/include/c++/10.3.1/bits/std_function.h **** 	}
 171:/Library/DaisyToolchain/0.2.0/arm/arm-none-eabi/include/c++/10.3.1/bits/std_function.h **** 
 172:/Library/DaisyToolchain/0.2.0/arm/arm-none-eabi/include/c++/10.3.1/bits/std_function.h **** 	// Destroying an object located on the heap.
 173:/Library/DaisyToolchain/0.2.0/arm/arm-none-eabi/include/c++/10.3.1/bits/std_function.h **** 	static void
 174:/Library/DaisyToolchain/0.2.0/arm/arm-none-eabi/include/c++/10.3.1/bits/std_function.h **** 	_M_destroy(_Any_data& __victim, false_type)
 175:/Library/DaisyToolchain/0.2.0/arm/arm-none-eabi/include/c++/10.3.1/bits/std_function.h **** 	{
 176:/Library/DaisyToolchain/0.2.0/arm/arm-none-eabi/include/c++/10.3.1/bits/std_function.h **** 	  delete __victim._M_access<_Functor*>();
 177:/Library/DaisyToolchain/0.2.0/arm/arm-none-eabi/include/c++/10.3.1/bits/std_function.h **** 	}
 178:/Library/DaisyToolchain/0.2.0/arm/arm-none-eabi/include/c++/10.3.1/bits/std_function.h **** 
 179:/Library/DaisyToolchain/0.2.0/arm/arm-none-eabi/include/c++/10.3.1/bits/std_function.h ****       public:
 180:/Library/DaisyToolchain/0.2.0/arm/arm-none-eabi/include/c++/10.3.1/bits/std_function.h **** 	static bool
 181:/Library/DaisyToolchain/0.2.0/arm/arm-none-eabi/include/c++/10.3.1/bits/std_function.h **** 	_M_manager(_Any_data& __dest, const _Any_data& __source,
 182:/Library/DaisyToolchain/0.2.0/arm/arm-none-eabi/include/c++/10.3.1/bits/std_function.h **** 		   _Manager_operation __op)
 183:/Library/DaisyToolchain/0.2.0/arm/arm-none-eabi/include/c++/10.3.1/bits/std_function.h **** 	{
 184:/Library/DaisyToolchain/0.2.0/arm/arm-none-eabi/include/c++/10.3.1/bits/std_function.h **** 	  switch (__op)
 185:/Library/DaisyToolchain/0.2.0/arm/arm-none-eabi/include/c++/10.3.1/bits/std_function.h **** 	    {
 186:/Library/DaisyToolchain/0.2.0/arm/arm-none-eabi/include/c++/10.3.1/bits/std_function.h **** #if __cpp_rtti
 187:/Library/DaisyToolchain/0.2.0/arm/arm-none-eabi/include/c++/10.3.1/bits/std_function.h **** 	    case __get_type_info:
 188:/Library/DaisyToolchain/0.2.0/arm/arm-none-eabi/include/c++/10.3.1/bits/std_function.h **** 	      __dest._M_access<const type_info*>() = &typeid(_Functor);
 189:/Library/DaisyToolchain/0.2.0/arm/arm-none-eabi/include/c++/10.3.1/bits/std_function.h **** 	      break;
 190:/Library/DaisyToolchain/0.2.0/arm/arm-none-eabi/include/c++/10.3.1/bits/std_function.h **** #endif
 191:/Library/DaisyToolchain/0.2.0/arm/arm-none-eabi/include/c++/10.3.1/bits/std_function.h **** 	    case __get_functor_ptr:
 192:/Library/DaisyToolchain/0.2.0/arm/arm-none-eabi/include/c++/10.3.1/bits/std_function.h **** 	      __dest._M_access<_Functor*>() = _M_get_pointer(__source);
 193:/Library/DaisyToolchain/0.2.0/arm/arm-none-eabi/include/c++/10.3.1/bits/std_function.h **** 	      break;
 194:/Library/DaisyToolchain/0.2.0/arm/arm-none-eabi/include/c++/10.3.1/bits/std_function.h **** 
 195:/Library/DaisyToolchain/0.2.0/arm/arm-none-eabi/include/c++/10.3.1/bits/std_function.h **** 	    case __clone_functor:
 196:/Library/DaisyToolchain/0.2.0/arm/arm-none-eabi/include/c++/10.3.1/bits/std_function.h **** 	      _M_clone(__dest, __source, _Local_storage());
 197:/Library/DaisyToolchain/0.2.0/arm/arm-none-eabi/include/c++/10.3.1/bits/std_function.h **** 	      break;
 198:/Library/DaisyToolchain/0.2.0/arm/arm-none-eabi/include/c++/10.3.1/bits/std_function.h **** 
 199:/Library/DaisyToolchain/0.2.0/arm/arm-none-eabi/include/c++/10.3.1/bits/std_function.h **** 	    case __destroy_functor:
 200:/Library/DaisyToolchain/0.2.0/arm/arm-none-eabi/include/c++/10.3.1/bits/std_function.h **** 	      _M_destroy(__dest, _Local_storage());
 201:/Library/DaisyToolchain/0.2.0/arm/arm-none-eabi/include/c++/10.3.1/bits/std_function.h **** 	      break;
 202:/Library/DaisyToolchain/0.2.0/arm/arm-none-eabi/include/c++/10.3.1/bits/std_function.h **** 	    }
ARM GAS  /var/folders/wz/z09yph4n0qj4t7mjxhl6ttn80000gn/T//ccNrSY5I.s 			page 5


 203:/Library/DaisyToolchain/0.2.0/arm/arm-none-eabi/include/c++/10.3.1/bits/std_function.h **** 	  return false;
 204:/Library/DaisyToolchain/0.2.0/arm/arm-none-eabi/include/c++/10.3.1/bits/std_function.h **** 	}
 205:/Library/DaisyToolchain/0.2.0/arm/arm-none-eabi/include/c++/10.3.1/bits/std_function.h **** 
 206:/Library/DaisyToolchain/0.2.0/arm/arm-none-eabi/include/c++/10.3.1/bits/std_function.h **** 	static void
 207:/Library/DaisyToolchain/0.2.0/arm/arm-none-eabi/include/c++/10.3.1/bits/std_function.h **** 	_M_init_functor(_Any_data& __functor, _Functor&& __f)
 208:/Library/DaisyToolchain/0.2.0/arm/arm-none-eabi/include/c++/10.3.1/bits/std_function.h **** 	{ _M_init_functor(__functor, std::move(__f), _Local_storage()); }
 209:/Library/DaisyToolchain/0.2.0/arm/arm-none-eabi/include/c++/10.3.1/bits/std_function.h **** 
 210:/Library/DaisyToolchain/0.2.0/arm/arm-none-eabi/include/c++/10.3.1/bits/std_function.h **** 	template<typename _Signature>
 211:/Library/DaisyToolchain/0.2.0/arm/arm-none-eabi/include/c++/10.3.1/bits/std_function.h **** 	  static bool
 212:/Library/DaisyToolchain/0.2.0/arm/arm-none-eabi/include/c++/10.3.1/bits/std_function.h **** 	  _M_not_empty_function(const function<_Signature>& __f)
 213:/Library/DaisyToolchain/0.2.0/arm/arm-none-eabi/include/c++/10.3.1/bits/std_function.h **** 	  { return static_cast<bool>(__f); }
 214:/Library/DaisyToolchain/0.2.0/arm/arm-none-eabi/include/c++/10.3.1/bits/std_function.h **** 
 215:/Library/DaisyToolchain/0.2.0/arm/arm-none-eabi/include/c++/10.3.1/bits/std_function.h **** 	template<typename _Tp>
 216:/Library/DaisyToolchain/0.2.0/arm/arm-none-eabi/include/c++/10.3.1/bits/std_function.h **** 	  static bool
 217:/Library/DaisyToolchain/0.2.0/arm/arm-none-eabi/include/c++/10.3.1/bits/std_function.h **** 	  _M_not_empty_function(_Tp* __fp)
 218:/Library/DaisyToolchain/0.2.0/arm/arm-none-eabi/include/c++/10.3.1/bits/std_function.h **** 	  { return __fp != nullptr; }
 219:/Library/DaisyToolchain/0.2.0/arm/arm-none-eabi/include/c++/10.3.1/bits/std_function.h **** 
 220:/Library/DaisyToolchain/0.2.0/arm/arm-none-eabi/include/c++/10.3.1/bits/std_function.h **** 	template<typename _Class, typename _Tp>
 221:/Library/DaisyToolchain/0.2.0/arm/arm-none-eabi/include/c++/10.3.1/bits/std_function.h **** 	  static bool
 222:/Library/DaisyToolchain/0.2.0/arm/arm-none-eabi/include/c++/10.3.1/bits/std_function.h **** 	  _M_not_empty_function(_Tp _Class::* __mp)
 223:/Library/DaisyToolchain/0.2.0/arm/arm-none-eabi/include/c++/10.3.1/bits/std_function.h **** 	  { return __mp != nullptr; }
 224:/Library/DaisyToolchain/0.2.0/arm/arm-none-eabi/include/c++/10.3.1/bits/std_function.h **** 
 225:/Library/DaisyToolchain/0.2.0/arm/arm-none-eabi/include/c++/10.3.1/bits/std_function.h **** 	template<typename _Tp>
 226:/Library/DaisyToolchain/0.2.0/arm/arm-none-eabi/include/c++/10.3.1/bits/std_function.h **** 	  static bool
 227:/Library/DaisyToolchain/0.2.0/arm/arm-none-eabi/include/c++/10.3.1/bits/std_function.h **** 	  _M_not_empty_function(const _Tp&)
 228:/Library/DaisyToolchain/0.2.0/arm/arm-none-eabi/include/c++/10.3.1/bits/std_function.h **** 	  { return true; }
 229:/Library/DaisyToolchain/0.2.0/arm/arm-none-eabi/include/c++/10.3.1/bits/std_function.h **** 
 230:/Library/DaisyToolchain/0.2.0/arm/arm-none-eabi/include/c++/10.3.1/bits/std_function.h ****       private:
 231:/Library/DaisyToolchain/0.2.0/arm/arm-none-eabi/include/c++/10.3.1/bits/std_function.h **** 	static void
 232:/Library/DaisyToolchain/0.2.0/arm/arm-none-eabi/include/c++/10.3.1/bits/std_function.h **** 	_M_init_functor(_Any_data& __functor, _Functor&& __f, true_type)
 233:/Library/DaisyToolchain/0.2.0/arm/arm-none-eabi/include/c++/10.3.1/bits/std_function.h **** 	{ ::new (__functor._M_access()) _Functor(std::move(__f)); }
 234:/Library/DaisyToolchain/0.2.0/arm/arm-none-eabi/include/c++/10.3.1/bits/std_function.h **** 
 235:/Library/DaisyToolchain/0.2.0/arm/arm-none-eabi/include/c++/10.3.1/bits/std_function.h **** 	static void
 236:/Library/DaisyToolchain/0.2.0/arm/arm-none-eabi/include/c++/10.3.1/bits/std_function.h **** 	_M_init_functor(_Any_data& __functor, _Functor&& __f, false_type)
 237:/Library/DaisyToolchain/0.2.0/arm/arm-none-eabi/include/c++/10.3.1/bits/std_function.h **** 	{ __functor._M_access<_Functor*>() = new _Functor(std::move(__f)); }
 238:/Library/DaisyToolchain/0.2.0/arm/arm-none-eabi/include/c++/10.3.1/bits/std_function.h ****       };
 239:/Library/DaisyToolchain/0.2.0/arm/arm-none-eabi/include/c++/10.3.1/bits/std_function.h **** 
 240:/Library/DaisyToolchain/0.2.0/arm/arm-none-eabi/include/c++/10.3.1/bits/std_function.h ****     _Function_base() : _M_manager(nullptr) { }
 241:/Library/DaisyToolchain/0.2.0/arm/arm-none-eabi/include/c++/10.3.1/bits/std_function.h **** 
 242:/Library/DaisyToolchain/0.2.0/arm/arm-none-eabi/include/c++/10.3.1/bits/std_function.h ****     ~_Function_base()
 243:/Library/DaisyToolchain/0.2.0/arm/arm-none-eabi/include/c++/10.3.1/bits/std_function.h ****     {
 244:/Library/DaisyToolchain/0.2.0/arm/arm-none-eabi/include/c++/10.3.1/bits/std_function.h ****       if (_M_manager)
 245:/Library/DaisyToolchain/0.2.0/arm/arm-none-eabi/include/c++/10.3.1/bits/std_function.h **** 	_M_manager(_M_functor, _M_functor, __destroy_functor);
 246:/Library/DaisyToolchain/0.2.0/arm/arm-none-eabi/include/c++/10.3.1/bits/std_function.h ****     }
 247:/Library/DaisyToolchain/0.2.0/arm/arm-none-eabi/include/c++/10.3.1/bits/std_function.h **** 
 248:/Library/DaisyToolchain/0.2.0/arm/arm-none-eabi/include/c++/10.3.1/bits/std_function.h ****     bool _M_empty() const { return !_M_manager; }
 249:/Library/DaisyToolchain/0.2.0/arm/arm-none-eabi/include/c++/10.3.1/bits/std_function.h **** 
 250:/Library/DaisyToolchain/0.2.0/arm/arm-none-eabi/include/c++/10.3.1/bits/std_function.h ****     typedef bool (*_Manager_type)(_Any_data&, const _Any_data&,
 251:/Library/DaisyToolchain/0.2.0/arm/arm-none-eabi/include/c++/10.3.1/bits/std_function.h **** 				  _Manager_operation);
 252:/Library/DaisyToolchain/0.2.0/arm/arm-none-eabi/include/c++/10.3.1/bits/std_function.h **** 
 253:/Library/DaisyToolchain/0.2.0/arm/arm-none-eabi/include/c++/10.3.1/bits/std_function.h ****     _Any_data     _M_functor;
 254:/Library/DaisyToolchain/0.2.0/arm/arm-none-eabi/include/c++/10.3.1/bits/std_function.h ****     _Manager_type _M_manager;
 255:/Library/DaisyToolchain/0.2.0/arm/arm-none-eabi/include/c++/10.3.1/bits/std_function.h ****   };
 256:/Library/DaisyToolchain/0.2.0/arm/arm-none-eabi/include/c++/10.3.1/bits/std_function.h **** 
 257:/Library/DaisyToolchain/0.2.0/arm/arm-none-eabi/include/c++/10.3.1/bits/std_function.h ****   template<typename _Signature, typename _Functor>
 258:/Library/DaisyToolchain/0.2.0/arm/arm-none-eabi/include/c++/10.3.1/bits/std_function.h ****     class _Function_handler;
 259:/Library/DaisyToolchain/0.2.0/arm/arm-none-eabi/include/c++/10.3.1/bits/std_function.h **** 
ARM GAS  /var/folders/wz/z09yph4n0qj4t7mjxhl6ttn80000gn/T//ccNrSY5I.s 			page 6


 260:/Library/DaisyToolchain/0.2.0/arm/arm-none-eabi/include/c++/10.3.1/bits/std_function.h ****   template<typename _Res, typename _Functor, typename... _ArgTypes>
 261:/Library/DaisyToolchain/0.2.0/arm/arm-none-eabi/include/c++/10.3.1/bits/std_function.h ****     class _Function_handler<_Res(_ArgTypes...), _Functor>
 262:/Library/DaisyToolchain/0.2.0/arm/arm-none-eabi/include/c++/10.3.1/bits/std_function.h ****     : public _Function_base::_Base_manager<_Functor>
 263:/Library/DaisyToolchain/0.2.0/arm/arm-none-eabi/include/c++/10.3.1/bits/std_function.h ****     {
 264:/Library/DaisyToolchain/0.2.0/arm/arm-none-eabi/include/c++/10.3.1/bits/std_function.h ****       typedef _Function_base::_Base_manager<_Functor> _Base;
 265:/Library/DaisyToolchain/0.2.0/arm/arm-none-eabi/include/c++/10.3.1/bits/std_function.h **** 
 266:/Library/DaisyToolchain/0.2.0/arm/arm-none-eabi/include/c++/10.3.1/bits/std_function.h ****     public:
 267:/Library/DaisyToolchain/0.2.0/arm/arm-none-eabi/include/c++/10.3.1/bits/std_function.h ****       static bool
 268:/Library/DaisyToolchain/0.2.0/arm/arm-none-eabi/include/c++/10.3.1/bits/std_function.h ****       _M_manager(_Any_data& __dest, const _Any_data& __source,
 269:/Library/DaisyToolchain/0.2.0/arm/arm-none-eabi/include/c++/10.3.1/bits/std_function.h **** 		 _Manager_operation __op)
 270:/Library/DaisyToolchain/0.2.0/arm/arm-none-eabi/include/c++/10.3.1/bits/std_function.h ****       {
 271:/Library/DaisyToolchain/0.2.0/arm/arm-none-eabi/include/c++/10.3.1/bits/std_function.h **** 	switch (__op)
 272:/Library/DaisyToolchain/0.2.0/arm/arm-none-eabi/include/c++/10.3.1/bits/std_function.h **** 	  {
 273:/Library/DaisyToolchain/0.2.0/arm/arm-none-eabi/include/c++/10.3.1/bits/std_function.h **** #if __cpp_rtti
 274:/Library/DaisyToolchain/0.2.0/arm/arm-none-eabi/include/c++/10.3.1/bits/std_function.h **** 	  case __get_type_info:
 275:/Library/DaisyToolchain/0.2.0/arm/arm-none-eabi/include/c++/10.3.1/bits/std_function.h **** 	    __dest._M_access<const type_info*>() = &typeid(_Functor);
 276:/Library/DaisyToolchain/0.2.0/arm/arm-none-eabi/include/c++/10.3.1/bits/std_function.h **** 	    break;
 277:/Library/DaisyToolchain/0.2.0/arm/arm-none-eabi/include/c++/10.3.1/bits/std_function.h **** #endif
 278:/Library/DaisyToolchain/0.2.0/arm/arm-none-eabi/include/c++/10.3.1/bits/std_function.h **** 	  case __get_functor_ptr:
 279:/Library/DaisyToolchain/0.2.0/arm/arm-none-eabi/include/c++/10.3.1/bits/std_function.h **** 	    __dest._M_access<_Functor*>() = _Base::_M_get_pointer(__source);
 280:/Library/DaisyToolchain/0.2.0/arm/arm-none-eabi/include/c++/10.3.1/bits/std_function.h **** 	    break;
 281:/Library/DaisyToolchain/0.2.0/arm/arm-none-eabi/include/c++/10.3.1/bits/std_function.h **** 
 282:/Library/DaisyToolchain/0.2.0/arm/arm-none-eabi/include/c++/10.3.1/bits/std_function.h **** 	  default:
 283:/Library/DaisyToolchain/0.2.0/arm/arm-none-eabi/include/c++/10.3.1/bits/std_function.h **** 	    _Base::_M_manager(__dest, __source, __op);
 284:/Library/DaisyToolchain/0.2.0/arm/arm-none-eabi/include/c++/10.3.1/bits/std_function.h **** 	  }
 285:/Library/DaisyToolchain/0.2.0/arm/arm-none-eabi/include/c++/10.3.1/bits/std_function.h **** 	return false;
 286:/Library/DaisyToolchain/0.2.0/arm/arm-none-eabi/include/c++/10.3.1/bits/std_function.h ****       }
 287:/Library/DaisyToolchain/0.2.0/arm/arm-none-eabi/include/c++/10.3.1/bits/std_function.h **** 
 288:/Library/DaisyToolchain/0.2.0/arm/arm-none-eabi/include/c++/10.3.1/bits/std_function.h ****       static _Res
 289:/Library/DaisyToolchain/0.2.0/arm/arm-none-eabi/include/c++/10.3.1/bits/std_function.h ****       _M_invoke(const _Any_data& __functor, _ArgTypes&&... __args)
  28              		.loc 1 289 7 view -0
  29              		.cfi_startproc
  30              		@ args = 0, pretend = 0, frame = 0
  31              		@ frame_needed = 0, uses_anonymous_args = 0
  32              		@ link register save eliminated.
  88:/Library/DaisyToolchain/0.2.0/arm/arm-none-eabi/include/c++/10.3.1/bits/std_function.h **** 
  33              		.loc 1 88 37 view .LVU1
  34              	.LBB446:
  35              	.LBI446:
  36              		.file 2 "/Library/DaisyToolchain/0.2.0/arm/arm-none-eabi/include/c++/10.3.1/bits/invoke.h"
   1:/Library/DaisyToolchain/0.2.0/arm/arm-none-eabi/include/c++/10.3.1/bits/invoke.h **** // Implementation of INVOKE -*- C++ -*-
   2:/Library/DaisyToolchain/0.2.0/arm/arm-none-eabi/include/c++/10.3.1/bits/invoke.h **** 
   3:/Library/DaisyToolchain/0.2.0/arm/arm-none-eabi/include/c++/10.3.1/bits/invoke.h **** // Copyright (C) 2016-2020 Free Software Foundation, Inc.
   4:/Library/DaisyToolchain/0.2.0/arm/arm-none-eabi/include/c++/10.3.1/bits/invoke.h **** //
   5:/Library/DaisyToolchain/0.2.0/arm/arm-none-eabi/include/c++/10.3.1/bits/invoke.h **** // This file is part of the GNU ISO C++ Library.  This library is free
   6:/Library/DaisyToolchain/0.2.0/arm/arm-none-eabi/include/c++/10.3.1/bits/invoke.h **** // software; you can redistribute it and/or modify it under the
   7:/Library/DaisyToolchain/0.2.0/arm/arm-none-eabi/include/c++/10.3.1/bits/invoke.h **** // terms of the GNU General Public License as published by the
   8:/Library/DaisyToolchain/0.2.0/arm/arm-none-eabi/include/c++/10.3.1/bits/invoke.h **** // Free Software Foundation; either version 3, or (at your option)
   9:/Library/DaisyToolchain/0.2.0/arm/arm-none-eabi/include/c++/10.3.1/bits/invoke.h **** // any later version.
  10:/Library/DaisyToolchain/0.2.0/arm/arm-none-eabi/include/c++/10.3.1/bits/invoke.h **** 
  11:/Library/DaisyToolchain/0.2.0/arm/arm-none-eabi/include/c++/10.3.1/bits/invoke.h **** // This library is distributed in the hope that it will be useful,
  12:/Library/DaisyToolchain/0.2.0/arm/arm-none-eabi/include/c++/10.3.1/bits/invoke.h **** // but WITHOUT ANY WARRANTY; without even the implied warranty of
  13:/Library/DaisyToolchain/0.2.0/arm/arm-none-eabi/include/c++/10.3.1/bits/invoke.h **** // MERCHANTABILITY or FITNESS FOR A PARTICULAR PURPOSE.  See the
  14:/Library/DaisyToolchain/0.2.0/arm/arm-none-eabi/include/c++/10.3.1/bits/invoke.h **** // GNU General Public License for more details.
  15:/Library/DaisyToolchain/0.2.0/arm/arm-none-eabi/include/c++/10.3.1/bits/invoke.h **** 
  16:/Library/DaisyToolchain/0.2.0/arm/arm-none-eabi/include/c++/10.3.1/bits/invoke.h **** // Under Section 7 of GPL version 3, you are granted additional
  17:/Library/DaisyToolchain/0.2.0/arm/arm-none-eabi/include/c++/10.3.1/bits/invoke.h **** // permissions described in the GCC Runtime Library Exception, version
ARM GAS  /var/folders/wz/z09yph4n0qj4t7mjxhl6ttn80000gn/T//ccNrSY5I.s 			page 7


  18:/Library/DaisyToolchain/0.2.0/arm/arm-none-eabi/include/c++/10.3.1/bits/invoke.h **** // 3.1, as published by the Free Software Foundation.
  19:/Library/DaisyToolchain/0.2.0/arm/arm-none-eabi/include/c++/10.3.1/bits/invoke.h **** 
  20:/Library/DaisyToolchain/0.2.0/arm/arm-none-eabi/include/c++/10.3.1/bits/invoke.h **** // You should have received a copy of the GNU General Public License and
  21:/Library/DaisyToolchain/0.2.0/arm/arm-none-eabi/include/c++/10.3.1/bits/invoke.h **** // a copy of the GCC Runtime Library Exception along with this program;
  22:/Library/DaisyToolchain/0.2.0/arm/arm-none-eabi/include/c++/10.3.1/bits/invoke.h **** // see the files COPYING3 and COPYING.RUNTIME respectively.  If not, see
  23:/Library/DaisyToolchain/0.2.0/arm/arm-none-eabi/include/c++/10.3.1/bits/invoke.h **** // <http://www.gnu.org/licenses/>.
  24:/Library/DaisyToolchain/0.2.0/arm/arm-none-eabi/include/c++/10.3.1/bits/invoke.h **** 
  25:/Library/DaisyToolchain/0.2.0/arm/arm-none-eabi/include/c++/10.3.1/bits/invoke.h **** /** @file include/bits/invoke.h
  26:/Library/DaisyToolchain/0.2.0/arm/arm-none-eabi/include/c++/10.3.1/bits/invoke.h ****  *  This is an internal header file, included by other library headers.
  27:/Library/DaisyToolchain/0.2.0/arm/arm-none-eabi/include/c++/10.3.1/bits/invoke.h ****  *  Do not attempt to use it directly. @headername{functional}
  28:/Library/DaisyToolchain/0.2.0/arm/arm-none-eabi/include/c++/10.3.1/bits/invoke.h ****  */
  29:/Library/DaisyToolchain/0.2.0/arm/arm-none-eabi/include/c++/10.3.1/bits/invoke.h **** 
  30:/Library/DaisyToolchain/0.2.0/arm/arm-none-eabi/include/c++/10.3.1/bits/invoke.h **** #ifndef _GLIBCXX_INVOKE_H
  31:/Library/DaisyToolchain/0.2.0/arm/arm-none-eabi/include/c++/10.3.1/bits/invoke.h **** #define _GLIBCXX_INVOKE_H 1
  32:/Library/DaisyToolchain/0.2.0/arm/arm-none-eabi/include/c++/10.3.1/bits/invoke.h **** 
  33:/Library/DaisyToolchain/0.2.0/arm/arm-none-eabi/include/c++/10.3.1/bits/invoke.h **** #pragma GCC system_header
  34:/Library/DaisyToolchain/0.2.0/arm/arm-none-eabi/include/c++/10.3.1/bits/invoke.h **** 
  35:/Library/DaisyToolchain/0.2.0/arm/arm-none-eabi/include/c++/10.3.1/bits/invoke.h **** #if __cplusplus < 201103L
  36:/Library/DaisyToolchain/0.2.0/arm/arm-none-eabi/include/c++/10.3.1/bits/invoke.h **** # include <bits/c++0x_warning.h>
  37:/Library/DaisyToolchain/0.2.0/arm/arm-none-eabi/include/c++/10.3.1/bits/invoke.h **** #else
  38:/Library/DaisyToolchain/0.2.0/arm/arm-none-eabi/include/c++/10.3.1/bits/invoke.h **** 
  39:/Library/DaisyToolchain/0.2.0/arm/arm-none-eabi/include/c++/10.3.1/bits/invoke.h **** #include <type_traits>
  40:/Library/DaisyToolchain/0.2.0/arm/arm-none-eabi/include/c++/10.3.1/bits/invoke.h **** 
  41:/Library/DaisyToolchain/0.2.0/arm/arm-none-eabi/include/c++/10.3.1/bits/invoke.h **** namespace std _GLIBCXX_VISIBILITY(default)
  42:/Library/DaisyToolchain/0.2.0/arm/arm-none-eabi/include/c++/10.3.1/bits/invoke.h **** {
  43:/Library/DaisyToolchain/0.2.0/arm/arm-none-eabi/include/c++/10.3.1/bits/invoke.h **** _GLIBCXX_BEGIN_NAMESPACE_VERSION
  44:/Library/DaisyToolchain/0.2.0/arm/arm-none-eabi/include/c++/10.3.1/bits/invoke.h **** 
  45:/Library/DaisyToolchain/0.2.0/arm/arm-none-eabi/include/c++/10.3.1/bits/invoke.h ****   /**
  46:/Library/DaisyToolchain/0.2.0/arm/arm-none-eabi/include/c++/10.3.1/bits/invoke.h ****    *  @addtogroup utilities
  47:/Library/DaisyToolchain/0.2.0/arm/arm-none-eabi/include/c++/10.3.1/bits/invoke.h ****    *  @{
  48:/Library/DaisyToolchain/0.2.0/arm/arm-none-eabi/include/c++/10.3.1/bits/invoke.h ****    */
  49:/Library/DaisyToolchain/0.2.0/arm/arm-none-eabi/include/c++/10.3.1/bits/invoke.h **** 
  50:/Library/DaisyToolchain/0.2.0/arm/arm-none-eabi/include/c++/10.3.1/bits/invoke.h ****   // Used by __invoke_impl instead of std::forward<_Tp> so that a
  51:/Library/DaisyToolchain/0.2.0/arm/arm-none-eabi/include/c++/10.3.1/bits/invoke.h ****   // reference_wrapper is converted to an lvalue-reference.
  52:/Library/DaisyToolchain/0.2.0/arm/arm-none-eabi/include/c++/10.3.1/bits/invoke.h ****   template<typename _Tp, typename _Up = typename __inv_unwrap<_Tp>::type>
  53:/Library/DaisyToolchain/0.2.0/arm/arm-none-eabi/include/c++/10.3.1/bits/invoke.h ****     constexpr _Up&&
  54:/Library/DaisyToolchain/0.2.0/arm/arm-none-eabi/include/c++/10.3.1/bits/invoke.h ****     __invfwd(typename remove_reference<_Tp>::type& __t) noexcept
  55:/Library/DaisyToolchain/0.2.0/arm/arm-none-eabi/include/c++/10.3.1/bits/invoke.h ****     { return static_cast<_Up&&>(__t); }
  56:/Library/DaisyToolchain/0.2.0/arm/arm-none-eabi/include/c++/10.3.1/bits/invoke.h **** 
  57:/Library/DaisyToolchain/0.2.0/arm/arm-none-eabi/include/c++/10.3.1/bits/invoke.h ****   template<typename _Res, typename _Fn, typename... _Args>
  58:/Library/DaisyToolchain/0.2.0/arm/arm-none-eabi/include/c++/10.3.1/bits/invoke.h ****     constexpr _Res
  59:/Library/DaisyToolchain/0.2.0/arm/arm-none-eabi/include/c++/10.3.1/bits/invoke.h ****     __invoke_impl(__invoke_other, _Fn&& __f, _Args&&... __args)
  60:/Library/DaisyToolchain/0.2.0/arm/arm-none-eabi/include/c++/10.3.1/bits/invoke.h ****     { return std::forward<_Fn>(__f)(std::forward<_Args>(__args)...); }
  61:/Library/DaisyToolchain/0.2.0/arm/arm-none-eabi/include/c++/10.3.1/bits/invoke.h **** 
  62:/Library/DaisyToolchain/0.2.0/arm/arm-none-eabi/include/c++/10.3.1/bits/invoke.h ****   template<typename _Res, typename _MemFun, typename _Tp, typename... _Args>
  63:/Library/DaisyToolchain/0.2.0/arm/arm-none-eabi/include/c++/10.3.1/bits/invoke.h ****     constexpr _Res
  64:/Library/DaisyToolchain/0.2.0/arm/arm-none-eabi/include/c++/10.3.1/bits/invoke.h ****     __invoke_impl(__invoke_memfun_ref, _MemFun&& __f, _Tp&& __t,
  65:/Library/DaisyToolchain/0.2.0/arm/arm-none-eabi/include/c++/10.3.1/bits/invoke.h **** 		  _Args&&... __args)
  66:/Library/DaisyToolchain/0.2.0/arm/arm-none-eabi/include/c++/10.3.1/bits/invoke.h ****     { return (__invfwd<_Tp>(__t).*__f)(std::forward<_Args>(__args)...); }
  67:/Library/DaisyToolchain/0.2.0/arm/arm-none-eabi/include/c++/10.3.1/bits/invoke.h **** 
  68:/Library/DaisyToolchain/0.2.0/arm/arm-none-eabi/include/c++/10.3.1/bits/invoke.h ****   template<typename _Res, typename _MemFun, typename _Tp, typename... _Args>
  69:/Library/DaisyToolchain/0.2.0/arm/arm-none-eabi/include/c++/10.3.1/bits/invoke.h ****     constexpr _Res
  70:/Library/DaisyToolchain/0.2.0/arm/arm-none-eabi/include/c++/10.3.1/bits/invoke.h ****     __invoke_impl(__invoke_memfun_deref, _MemFun&& __f, _Tp&& __t,
  71:/Library/DaisyToolchain/0.2.0/arm/arm-none-eabi/include/c++/10.3.1/bits/invoke.h **** 		  _Args&&... __args)
  72:/Library/DaisyToolchain/0.2.0/arm/arm-none-eabi/include/c++/10.3.1/bits/invoke.h ****     {
  73:/Library/DaisyToolchain/0.2.0/arm/arm-none-eabi/include/c++/10.3.1/bits/invoke.h ****       return ((*std::forward<_Tp>(__t)).*__f)(std::forward<_Args>(__args)...);
  74:/Library/DaisyToolchain/0.2.0/arm/arm-none-eabi/include/c++/10.3.1/bits/invoke.h ****     }
ARM GAS  /var/folders/wz/z09yph4n0qj4t7mjxhl6ttn80000gn/T//ccNrSY5I.s 			page 8


  75:/Library/DaisyToolchain/0.2.0/arm/arm-none-eabi/include/c++/10.3.1/bits/invoke.h **** 
  76:/Library/DaisyToolchain/0.2.0/arm/arm-none-eabi/include/c++/10.3.1/bits/invoke.h ****   template<typename _Res, typename _MemPtr, typename _Tp>
  77:/Library/DaisyToolchain/0.2.0/arm/arm-none-eabi/include/c++/10.3.1/bits/invoke.h ****     constexpr _Res
  78:/Library/DaisyToolchain/0.2.0/arm/arm-none-eabi/include/c++/10.3.1/bits/invoke.h ****     __invoke_impl(__invoke_memobj_ref, _MemPtr&& __f, _Tp&& __t)
  79:/Library/DaisyToolchain/0.2.0/arm/arm-none-eabi/include/c++/10.3.1/bits/invoke.h ****     { return __invfwd<_Tp>(__t).*__f; }
  80:/Library/DaisyToolchain/0.2.0/arm/arm-none-eabi/include/c++/10.3.1/bits/invoke.h **** 
  81:/Library/DaisyToolchain/0.2.0/arm/arm-none-eabi/include/c++/10.3.1/bits/invoke.h ****   template<typename _Res, typename _MemPtr, typename _Tp>
  82:/Library/DaisyToolchain/0.2.0/arm/arm-none-eabi/include/c++/10.3.1/bits/invoke.h ****     constexpr _Res
  83:/Library/DaisyToolchain/0.2.0/arm/arm-none-eabi/include/c++/10.3.1/bits/invoke.h ****     __invoke_impl(__invoke_memobj_deref, _MemPtr&& __f, _Tp&& __t)
  84:/Library/DaisyToolchain/0.2.0/arm/arm-none-eabi/include/c++/10.3.1/bits/invoke.h ****     { return (*std::forward<_Tp>(__t)).*__f; }
  85:/Library/DaisyToolchain/0.2.0/arm/arm-none-eabi/include/c++/10.3.1/bits/invoke.h **** 
  86:/Library/DaisyToolchain/0.2.0/arm/arm-none-eabi/include/c++/10.3.1/bits/invoke.h ****   /// Invoke a callable object.
  87:/Library/DaisyToolchain/0.2.0/arm/arm-none-eabi/include/c++/10.3.1/bits/invoke.h ****   template<typename _Callable, typename... _Args>
  88:/Library/DaisyToolchain/0.2.0/arm/arm-none-eabi/include/c++/10.3.1/bits/invoke.h ****     constexpr typename __invoke_result<_Callable, _Args...>::type
  89:/Library/DaisyToolchain/0.2.0/arm/arm-none-eabi/include/c++/10.3.1/bits/invoke.h ****     __invoke(_Callable&& __fn, _Args&&... __args)
  90:/Library/DaisyToolchain/0.2.0/arm/arm-none-eabi/include/c++/10.3.1/bits/invoke.h ****     noexcept(__is_nothrow_invocable<_Callable, _Args...>::value)
  91:/Library/DaisyToolchain/0.2.0/arm/arm-none-eabi/include/c++/10.3.1/bits/invoke.h ****     {
  92:/Library/DaisyToolchain/0.2.0/arm/arm-none-eabi/include/c++/10.3.1/bits/invoke.h ****       using __result = __invoke_result<_Callable, _Args...>;
  93:/Library/DaisyToolchain/0.2.0/arm/arm-none-eabi/include/c++/10.3.1/bits/invoke.h ****       using __type = typename __result::type;
  94:/Library/DaisyToolchain/0.2.0/arm/arm-none-eabi/include/c++/10.3.1/bits/invoke.h ****       using __tag = typename __result::__invoke_type;
  95:/Library/DaisyToolchain/0.2.0/arm/arm-none-eabi/include/c++/10.3.1/bits/invoke.h ****       return std::__invoke_impl<__type>(__tag{}, std::forward<_Callable>(__fn),
  96:/Library/DaisyToolchain/0.2.0/arm/arm-none-eabi/include/c++/10.3.1/bits/invoke.h **** 					std::forward<_Args>(__args)...);
  97:/Library/DaisyToolchain/0.2.0/arm/arm-none-eabi/include/c++/10.3.1/bits/invoke.h ****     }
  98:/Library/DaisyToolchain/0.2.0/arm/arm-none-eabi/include/c++/10.3.1/bits/invoke.h **** 
  99:/Library/DaisyToolchain/0.2.0/arm/arm-none-eabi/include/c++/10.3.1/bits/invoke.h **** #if __cplusplus >= 201703L
 100:/Library/DaisyToolchain/0.2.0/arm/arm-none-eabi/include/c++/10.3.1/bits/invoke.h ****   // INVOKE<R>: Invoke a callable object and convert the result to R.
 101:/Library/DaisyToolchain/0.2.0/arm/arm-none-eabi/include/c++/10.3.1/bits/invoke.h ****   template<typename _Res, typename _Callable, typename... _Args>
 102:/Library/DaisyToolchain/0.2.0/arm/arm-none-eabi/include/c++/10.3.1/bits/invoke.h ****     constexpr enable_if_t<is_invocable_r_v<_Res, _Callable, _Args...>, _Res>
 103:/Library/DaisyToolchain/0.2.0/arm/arm-none-eabi/include/c++/10.3.1/bits/invoke.h ****     __invoke_r(_Callable&& __fn, _Args&&... __args)
 104:/Library/DaisyToolchain/0.2.0/arm/arm-none-eabi/include/c++/10.3.1/bits/invoke.h ****     noexcept(is_nothrow_invocable_r_v<_Res, _Callable, _Args...>)
 105:/Library/DaisyToolchain/0.2.0/arm/arm-none-eabi/include/c++/10.3.1/bits/invoke.h ****     {
 106:/Library/DaisyToolchain/0.2.0/arm/arm-none-eabi/include/c++/10.3.1/bits/invoke.h ****       using __result = __invoke_result<_Callable, _Args...>;
 107:/Library/DaisyToolchain/0.2.0/arm/arm-none-eabi/include/c++/10.3.1/bits/invoke.h ****       using __type = typename __result::type;
 108:/Library/DaisyToolchain/0.2.0/arm/arm-none-eabi/include/c++/10.3.1/bits/invoke.h ****       using __tag = typename __result::__invoke_type;
 109:/Library/DaisyToolchain/0.2.0/arm/arm-none-eabi/include/c++/10.3.1/bits/invoke.h ****       if constexpr (is_void_v<_Res>)
 110:/Library/DaisyToolchain/0.2.0/arm/arm-none-eabi/include/c++/10.3.1/bits/invoke.h **** 	std::__invoke_impl<__type>(__tag{}, std::forward<_Callable>(__fn),
 111:/Library/DaisyToolchain/0.2.0/arm/arm-none-eabi/include/c++/10.3.1/bits/invoke.h **** 					std::forward<_Args>(__args)...);
 112:/Library/DaisyToolchain/0.2.0/arm/arm-none-eabi/include/c++/10.3.1/bits/invoke.h ****       else
 113:/Library/DaisyToolchain/0.2.0/arm/arm-none-eabi/include/c++/10.3.1/bits/invoke.h **** 	return std::__invoke_impl<__type>(__tag{},
 114:/Library/DaisyToolchain/0.2.0/arm/arm-none-eabi/include/c++/10.3.1/bits/invoke.h **** 					  std::forward<_Callable>(__fn),
 115:/Library/DaisyToolchain/0.2.0/arm/arm-none-eabi/include/c++/10.3.1/bits/invoke.h **** 					  std::forward<_Args>(__args)...);
 116:/Library/DaisyToolchain/0.2.0/arm/arm-none-eabi/include/c++/10.3.1/bits/invoke.h ****     }
 117:/Library/DaisyToolchain/0.2.0/arm/arm-none-eabi/include/c++/10.3.1/bits/invoke.h **** #else // C++11
 118:/Library/DaisyToolchain/0.2.0/arm/arm-none-eabi/include/c++/10.3.1/bits/invoke.h ****   template<typename _Res, typename _Callable, typename... _Args>
 119:/Library/DaisyToolchain/0.2.0/arm/arm-none-eabi/include/c++/10.3.1/bits/invoke.h ****     using __can_invoke_as_void = __enable_if_t<
 120:/Library/DaisyToolchain/0.2.0/arm/arm-none-eabi/include/c++/10.3.1/bits/invoke.h ****       __and_<is_void<_Res>, __is_invocable<_Callable, _Args...>>::value,
 121:/Library/DaisyToolchain/0.2.0/arm/arm-none-eabi/include/c++/10.3.1/bits/invoke.h ****       _Res
 122:/Library/DaisyToolchain/0.2.0/arm/arm-none-eabi/include/c++/10.3.1/bits/invoke.h ****     >;
 123:/Library/DaisyToolchain/0.2.0/arm/arm-none-eabi/include/c++/10.3.1/bits/invoke.h **** 
 124:/Library/DaisyToolchain/0.2.0/arm/arm-none-eabi/include/c++/10.3.1/bits/invoke.h ****   template<typename _Res, typename _Callable, typename... _Args>
 125:/Library/DaisyToolchain/0.2.0/arm/arm-none-eabi/include/c++/10.3.1/bits/invoke.h ****     using __can_invoke_as_nonvoid = __enable_if_t<
 126:/Library/DaisyToolchain/0.2.0/arm/arm-none-eabi/include/c++/10.3.1/bits/invoke.h ****       __and_<__not_<is_void<_Res>>,
 127:/Library/DaisyToolchain/0.2.0/arm/arm-none-eabi/include/c++/10.3.1/bits/invoke.h **** 	     is_convertible<typename __invoke_result<_Callable, _Args...>::type,
 128:/Library/DaisyToolchain/0.2.0/arm/arm-none-eabi/include/c++/10.3.1/bits/invoke.h **** 			    _Res>
 129:/Library/DaisyToolchain/0.2.0/arm/arm-none-eabi/include/c++/10.3.1/bits/invoke.h ****       >::value,
 130:/Library/DaisyToolchain/0.2.0/arm/arm-none-eabi/include/c++/10.3.1/bits/invoke.h ****       _Res
 131:/Library/DaisyToolchain/0.2.0/arm/arm-none-eabi/include/c++/10.3.1/bits/invoke.h ****     >;
ARM GAS  /var/folders/wz/z09yph4n0qj4t7mjxhl6ttn80000gn/T//ccNrSY5I.s 			page 9


 132:/Library/DaisyToolchain/0.2.0/arm/arm-none-eabi/include/c++/10.3.1/bits/invoke.h **** 
 133:/Library/DaisyToolchain/0.2.0/arm/arm-none-eabi/include/c++/10.3.1/bits/invoke.h ****   // INVOKE<R>: Invoke a callable object and convert the result to R.
 134:/Library/DaisyToolchain/0.2.0/arm/arm-none-eabi/include/c++/10.3.1/bits/invoke.h ****   template<typename _Res, typename _Callable, typename... _Args>
 135:/Library/DaisyToolchain/0.2.0/arm/arm-none-eabi/include/c++/10.3.1/bits/invoke.h ****     constexpr __can_invoke_as_nonvoid<_Res, _Callable, _Args...>
 136:/Library/DaisyToolchain/0.2.0/arm/arm-none-eabi/include/c++/10.3.1/bits/invoke.h ****     __invoke_r(_Callable&& __fn, _Args&&... __args)
 137:/Library/DaisyToolchain/0.2.0/arm/arm-none-eabi/include/c++/10.3.1/bits/invoke.h ****     {
 138:/Library/DaisyToolchain/0.2.0/arm/arm-none-eabi/include/c++/10.3.1/bits/invoke.h ****       using __result = __invoke_result<_Callable, _Args...>;
 139:/Library/DaisyToolchain/0.2.0/arm/arm-none-eabi/include/c++/10.3.1/bits/invoke.h ****       using __type = typename __result::type;
 140:/Library/DaisyToolchain/0.2.0/arm/arm-none-eabi/include/c++/10.3.1/bits/invoke.h ****       using __tag = typename __result::__invoke_type;
 141:/Library/DaisyToolchain/0.2.0/arm/arm-none-eabi/include/c++/10.3.1/bits/invoke.h ****       return std::__invoke_impl<__type>(__tag{}, std::forward<_Callable>(__fn),
 142:/Library/DaisyToolchain/0.2.0/arm/arm-none-eabi/include/c++/10.3.1/bits/invoke.h **** 					std::forward<_Args>(__args)...);
 143:/Library/DaisyToolchain/0.2.0/arm/arm-none-eabi/include/c++/10.3.1/bits/invoke.h ****     }
 144:/Library/DaisyToolchain/0.2.0/arm/arm-none-eabi/include/c++/10.3.1/bits/invoke.h **** 
 145:/Library/DaisyToolchain/0.2.0/arm/arm-none-eabi/include/c++/10.3.1/bits/invoke.h ****   // INVOKE<R> when R is cv void
 146:/Library/DaisyToolchain/0.2.0/arm/arm-none-eabi/include/c++/10.3.1/bits/invoke.h ****   template<typename _Res, typename _Callable, typename... _Args>
 147:/Library/DaisyToolchain/0.2.0/arm/arm-none-eabi/include/c++/10.3.1/bits/invoke.h ****     _GLIBCXX14_CONSTEXPR __can_invoke_as_void<_Res, _Callable, _Args...>
 148:/Library/DaisyToolchain/0.2.0/arm/arm-none-eabi/include/c++/10.3.1/bits/invoke.h ****     __invoke_r(_Callable&& __fn, _Args&&... __args)
  37              		.loc 2 148 5 view .LVU2
  38              	.LBB447:
  39              	.LBB448:
  40              	.LBI448:
  59:/Library/DaisyToolchain/0.2.0/arm/arm-none-eabi/include/c++/10.3.1/bits/invoke.h ****     { return std::forward<_Fn>(__f)(std::forward<_Args>(__args)...); }
  41              		.loc 2 59 5 view .LVU3
  42              	.LBB449:
  43              	.LBB450:
  44              	.LBB451:
  45              		.file 3 "DSP/FX/PitchShift.cpp"
   1:DSP/FX/PitchShift.cpp **** #include "PitchShift.h"
   2:DSP/FX/PitchShift.cpp **** 
   3:DSP/FX/PitchShift.cpp **** void PitchShift::init(DaisySeed* seed)
   4:DSP/FX/PitchShift.cpp **** {
   5:DSP/FX/PitchShift.cpp ****     for(size_t i = 0 ; i < BLOCKLENGTH ; i++)
   6:DSP/FX/PitchShift.cpp ****     {
   7:DSP/FX/PitchShift.cpp ****         buffer[L][i] = 0.0f;
   8:DSP/FX/PitchShift.cpp ****         buffer[R][i] = 0.0f;
   9:DSP/FX/PitchShift.cpp ****     }
  10:DSP/FX/PitchShift.cpp ****     
  11:DSP/FX/PitchShift.cpp ****     shifter.Init(48000);
  12:DSP/FX/PitchShift.cpp **** 
  13:DSP/FX/PitchShift.cpp ****     //bypass.param.init(daisy::seed::D5, 1000, [this]{ setBypass(); }); // CHECK THIS
  14:DSP/FX/PitchShift.cpp ****     amount.param.init(seed, 0, 1, LINEAR, ChannelIDs::AMP2, [this] (float a) { amount.value = a; })
  46              		.loc 3 14 93 is_stmt 0 view .LVU4
  47 0000 0368     		ldr	r3, [r0]
  48              	.LBE451:
  49              	.LBE450:
  60:/Library/DaisyToolchain/0.2.0/arm/arm-none-eabi/include/c++/10.3.1/bits/invoke.h **** 
  50              		.loc 2 60 36 view .LVU5
  51 0002 0A68     		ldr	r2, [r1]	@ float
  52              	.LVL1:
  53              	.LBB453:
  54              	.LBI450:
  55              		.loc 3 14 61 is_stmt 1 view .LVU6
  56              	.LBB452:
  57              		.loc 3 14 80 view .LVU7
  58              		.loc 3 14 93 is_stmt 0 view .LVU8
  59 0004 03F59843 		add	r3, r3, #19456
  60 0008 9A62     		str	r2, [r3, #40]	@ float
ARM GAS  /var/folders/wz/z09yph4n0qj4t7mjxhl6ttn80000gn/T//ccNrSY5I.s 			page 10


  61              	.LVL2:
  62              		.loc 3 14 93 view .LVU9
  63              	.LBE452:
  64              	.LBE453:
  65              	.LBE449:
  66              	.LBE448:
  67              	.LBE447:
  68              	.LBE446:
 290:/Library/DaisyToolchain/0.2.0/arm/arm-none-eabi/include/c++/10.3.1/bits/std_function.h ****       {
 291:/Library/DaisyToolchain/0.2.0/arm/arm-none-eabi/include/c++/10.3.1/bits/std_function.h **** 	return std::__invoke_r<_Res>(*_Base::_M_get_pointer(__functor),
 292:/Library/DaisyToolchain/0.2.0/arm/arm-none-eabi/include/c++/10.3.1/bits/std_function.h **** 				     std::forward<_ArgTypes>(__args)...);
 293:/Library/DaisyToolchain/0.2.0/arm/arm-none-eabi/include/c++/10.3.1/bits/std_function.h ****       }
  69              		.loc 1 293 7 view .LVU10
  70 000a 7047     		bx	lr
  71              		.cfi_endproc
  72              	.LFE6128:
  74              		.section	.text._ZNSt17_Function_handlerIFvfEZN10PitchShift4initEPN5daisy9DaisySeedEEUlfE1_E9_M_inv
  75              		.align	1
  76              		.syntax unified
  77              		.thumb
  78              		.thumb_func
  80              	_ZNSt17_Function_handlerIFvfEZN10PitchShift4initEPN5daisy9DaisySeedEEUlfE1_E9_M_invokeERKSt9_Any_da
  81              	.LVL3:
  82              	.LFB6144:
 289:/Library/DaisyToolchain/0.2.0/arm/arm-none-eabi/include/c++/10.3.1/bits/std_function.h ****       {
  83              		.loc 1 289 7 is_stmt 1 view -0
  84              		.cfi_startproc
  85              		@ args = 0, pretend = 0, frame = 0
  86              		@ frame_needed = 0, uses_anonymous_args = 0
  87              		@ link register save eliminated.
  88:/Library/DaisyToolchain/0.2.0/arm/arm-none-eabi/include/c++/10.3.1/bits/std_function.h **** 
  88              		.loc 1 88 37 view .LVU12
  89              	.LBB454:
  90              	.LBI454:
  91              		.loc 2 148 5 view .LVU13
  92              	.LBB455:
  93              	.LBB456:
  94              	.LBI456:
  59:/Library/DaisyToolchain/0.2.0/arm/arm-none-eabi/include/c++/10.3.1/bits/invoke.h ****     { return std::forward<_Fn>(__f)(std::forward<_Args>(__args)...); }
  95              		.loc 2 59 5 view .LVU14
  96              	.LBB457:
  97              	.LBB458:
  98              	.LBB459:
  99              	.LBB460:
 100              	.LBB461:
 101              		.file 4 "../../../DaisySP//Source/Effects/pitchshifter.h"
   1:../../../DaisySP//Source/Effects/pitchshifter.h **** #pragma once
   2:../../../DaisySP//Source/Effects/pitchshifter.h **** #ifndef DSY_PITCHSHIFTER_H
   3:../../../DaisySP//Source/Effects/pitchshifter.h **** #define DSY_PITCHSHIFTER_H
   4:../../../DaisySP//Source/Effects/pitchshifter.h **** #include <stdint.h>
   5:../../../DaisySP//Source/Effects/pitchshifter.h **** #include <cmath>
   6:../../../DaisySP//Source/Effects/pitchshifter.h **** #ifdef USE_ARM_DSP
   7:../../../DaisySP//Source/Effects/pitchshifter.h **** #include "arm_math.h"
   8:../../../DaisySP//Source/Effects/pitchshifter.h **** #endif
   9:../../../DaisySP//Source/Effects/pitchshifter.h **** #include "Utility/dsp.h"
  10:../../../DaisySP//Source/Effects/pitchshifter.h **** #include "Utility/delayline.h"
  11:../../../DaisySP//Source/Effects/pitchshifter.h **** #include "Control/phasor.h"
ARM GAS  /var/folders/wz/z09yph4n0qj4t7mjxhl6ttn80000gn/T//ccNrSY5I.s 			page 11


  12:../../../DaisySP//Source/Effects/pitchshifter.h **** 
  13:../../../DaisySP//Source/Effects/pitchshifter.h **** /** Shift can be 30-100 ms lets just start with 50 for now.
  14:../../../DaisySP//Source/Effects/pitchshifter.h **** 0.050 * SR = 2400 samples (at 48kHz)
  15:../../../DaisySP//Source/Effects/pitchshifter.h **** */
  16:../../../DaisySP//Source/Effects/pitchshifter.h **** //#define SHIFT_BUFFER_SIZE 16384
  17:../../../DaisySP//Source/Effects/pitchshifter.h **** //#define SHIFT_BUFFER_SIZE 4800
  18:../../../DaisySP//Source/Effects/pitchshifter.h **** #define SHIFT_BUFFER_SIZE 2400
  19:../../../DaisySP//Source/Effects/pitchshifter.h **** //#define SHIFT_BUFFER_SIZE 8192
  20:../../../DaisySP//Source/Effects/pitchshifter.h **** //#define SHIFT_BUFFER_SIZE 1024
  21:../../../DaisySP//Source/Effects/pitchshifter.h **** 
  22:../../../DaisySP//Source/Effects/pitchshifter.h **** namespace daisysp
  23:../../../DaisySP//Source/Effects/pitchshifter.h **** {
  24:../../../DaisySP//Source/Effects/pitchshifter.h **** static inline uint32_t hash_xs32(uint32_t x)
  25:../../../DaisySP//Source/Effects/pitchshifter.h **** {
  26:../../../DaisySP//Source/Effects/pitchshifter.h ****     x ^= x << 13;
  27:../../../DaisySP//Source/Effects/pitchshifter.h ****     x ^= x >> 17;
  28:../../../DaisySP//Source/Effects/pitchshifter.h ****     x ^= x << 5;
  29:../../../DaisySP//Source/Effects/pitchshifter.h ****     return x;
  30:../../../DaisySP//Source/Effects/pitchshifter.h **** }
  31:../../../DaisySP//Source/Effects/pitchshifter.h **** 
  32:../../../DaisySP//Source/Effects/pitchshifter.h **** inline uint32_t myrand()
  33:../../../DaisySP//Source/Effects/pitchshifter.h **** {
  34:../../../DaisySP//Source/Effects/pitchshifter.h ****     static uint32_t seed = 1;
  35:../../../DaisySP//Source/Effects/pitchshifter.h ****     seed                 = hash_xs32(seed);
  36:../../../DaisySP//Source/Effects/pitchshifter.h ****     return seed;
  37:../../../DaisySP//Source/Effects/pitchshifter.h **** }
  38:../../../DaisySP//Source/Effects/pitchshifter.h **** 
  39:../../../DaisySP//Source/Effects/pitchshifter.h **** /**  time-domain pitchshifter
  40:../../../DaisySP//Source/Effects/pitchshifter.h **** 
  41:../../../DaisySP//Source/Effects/pitchshifter.h **** Author: shensley
  42:../../../DaisySP//Source/Effects/pitchshifter.h **** 
  43:../../../DaisySP//Source/Effects/pitchshifter.h **** Based on "Pitch Shifting" from ucsd.edu 
  44:../../../DaisySP//Source/Effects/pitchshifter.h **** 
  45:../../../DaisySP//Source/Effects/pitchshifter.h **** t = 1 - ((s *f) / R)
  46:../../../DaisySP//Source/Effects/pitchshifter.h **** 
  47:../../../DaisySP//Source/Effects/pitchshifter.h **** where:
  48:../../../DaisySP//Source/Effects/pitchshifter.h ****     s is the size of the delay
  49:../../../DaisySP//Source/Effects/pitchshifter.h ****     f is the frequency of the lfo
  50:../../../DaisySP//Source/Effects/pitchshifter.h ****     r is the sample_rate
  51:../../../DaisySP//Source/Effects/pitchshifter.h **** 
  52:../../../DaisySP//Source/Effects/pitchshifter.h **** solving for t = 12.0
  53:../../../DaisySP//Source/Effects/pitchshifter.h **** f = (12 - 1) * 48000 / SHIFT_BUFFER_SIZE;
  54:../../../DaisySP//Source/Effects/pitchshifter.h **** 
  55:../../../DaisySP//Source/Effects/pitchshifter.h **** \todo - move hash_xs32 and myrand to dsp.h and give appropriate names
  56:../../../DaisySP//Source/Effects/pitchshifter.h **** */
  57:../../../DaisySP//Source/Effects/pitchshifter.h **** class PitchShifter
  58:../../../DaisySP//Source/Effects/pitchshifter.h **** {
  59:../../../DaisySP//Source/Effects/pitchshifter.h ****   public:
  60:../../../DaisySP//Source/Effects/pitchshifter.h ****     PitchShifter() {}
  61:../../../DaisySP//Source/Effects/pitchshifter.h ****     ~PitchShifter() {}
  62:../../../DaisySP//Source/Effects/pitchshifter.h ****     /** Initialize pitch shifter
  63:../../../DaisySP//Source/Effects/pitchshifter.h ****     */
  64:../../../DaisySP//Source/Effects/pitchshifter.h ****     void Init(float sr)
  65:../../../DaisySP//Source/Effects/pitchshifter.h ****     {
  66:../../../DaisySP//Source/Effects/pitchshifter.h ****         force_recalc_ = false;
  67:../../../DaisySP//Source/Effects/pitchshifter.h ****         sr_           = sr;
  68:../../../DaisySP//Source/Effects/pitchshifter.h ****         mod_freq_     = 5.0f;
ARM GAS  /var/folders/wz/z09yph4n0qj4t7mjxhl6ttn80000gn/T//ccNrSY5I.s 			page 12


  69:../../../DaisySP//Source/Effects/pitchshifter.h ****         SetSemitones();
  70:../../../DaisySP//Source/Effects/pitchshifter.h ****         for(uint8_t i = 0; i < 2; i++)
  71:../../../DaisySP//Source/Effects/pitchshifter.h ****         {
  72:../../../DaisySP//Source/Effects/pitchshifter.h ****             gain_[i] = 0.0f;
  73:../../../DaisySP//Source/Effects/pitchshifter.h ****             d_[i].Init();
  74:../../../DaisySP//Source/Effects/pitchshifter.h ****             phs_[i].Init(sr, 50, i == 0 ? 0 : PI_F);
  75:../../../DaisySP//Source/Effects/pitchshifter.h ****         }
  76:../../../DaisySP//Source/Effects/pitchshifter.h ****         shift_up_ = true;
  77:../../../DaisySP//Source/Effects/pitchshifter.h ****         del_size_ = SHIFT_BUFFER_SIZE;
  78:../../../DaisySP//Source/Effects/pitchshifter.h ****         SetDelSize(del_size_);
  79:../../../DaisySP//Source/Effects/pitchshifter.h ****         fun_ = 0.0f;
  80:../../../DaisySP//Source/Effects/pitchshifter.h ****     }
  81:../../../DaisySP//Source/Effects/pitchshifter.h **** 
  82:../../../DaisySP//Source/Effects/pitchshifter.h ****     /** process pitch shifter
  83:../../../DaisySP//Source/Effects/pitchshifter.h ****     */
  84:../../../DaisySP//Source/Effects/pitchshifter.h ****     float Process(float &in)
  85:../../../DaisySP//Source/Effects/pitchshifter.h ****     {
  86:../../../DaisySP//Source/Effects/pitchshifter.h ****         float val, fade1, fade2;
  87:../../../DaisySP//Source/Effects/pitchshifter.h ****         // First Process delay mod/crossfade
  88:../../../DaisySP//Source/Effects/pitchshifter.h ****         fade1 = phs_[0].Process();
  89:../../../DaisySP//Source/Effects/pitchshifter.h ****         fade2 = phs_[1].Process();
  90:../../../DaisySP//Source/Effects/pitchshifter.h ****         if(prev_phs_a_ > fade1)
  91:../../../DaisySP//Source/Effects/pitchshifter.h ****         {
  92:../../../DaisySP//Source/Effects/pitchshifter.h ****             mod_a_amt_ = fun_ * ((float)(myrand() % 255) / 255.0f)
  93:../../../DaisySP//Source/Effects/pitchshifter.h ****                          * (del_size_ * 0.5f);
  94:../../../DaisySP//Source/Effects/pitchshifter.h ****             mod_coeff_[0]
  95:../../../DaisySP//Source/Effects/pitchshifter.h ****                 = 0.0002f + (((float)(myrand() % 255) / 255.0f) * 0.001f);
  96:../../../DaisySP//Source/Effects/pitchshifter.h ****         }
  97:../../../DaisySP//Source/Effects/pitchshifter.h ****         if(prev_phs_b_ > fade2)
  98:../../../DaisySP//Source/Effects/pitchshifter.h ****         {
  99:../../../DaisySP//Source/Effects/pitchshifter.h ****             mod_b_amt_ = fun_ * ((float)(myrand() % 255) / 255.0f)
 100:../../../DaisySP//Source/Effects/pitchshifter.h ****                          * (del_size_ * 0.5f);
 101:../../../DaisySP//Source/Effects/pitchshifter.h ****             mod_coeff_[1]
 102:../../../DaisySP//Source/Effects/pitchshifter.h ****                 = 0.0002f + (((float)(myrand() % 255) / 255.0f) * 0.001f);
 103:../../../DaisySP//Source/Effects/pitchshifter.h ****         }
 104:../../../DaisySP//Source/Effects/pitchshifter.h ****         slewed_mod_[0] += mod_coeff_[0] * (mod_a_amt_ - slewed_mod_[0]);
 105:../../../DaisySP//Source/Effects/pitchshifter.h ****         slewed_mod_[1] += mod_coeff_[1] * (mod_b_amt_ - slewed_mod_[1]);
 106:../../../DaisySP//Source/Effects/pitchshifter.h ****         prev_phs_a_ = fade1;
 107:../../../DaisySP//Source/Effects/pitchshifter.h ****         prev_phs_b_ = fade2;
 108:../../../DaisySP//Source/Effects/pitchshifter.h ****         if(shift_up_)
 109:../../../DaisySP//Source/Effects/pitchshifter.h ****         {
 110:../../../DaisySP//Source/Effects/pitchshifter.h ****             fade1 = 1.0f - fade1;
 111:../../../DaisySP//Source/Effects/pitchshifter.h ****             fade2 = 1.0f - fade2;
 112:../../../DaisySP//Source/Effects/pitchshifter.h ****         }
 113:../../../DaisySP//Source/Effects/pitchshifter.h ****         mod_[0] = fade1 * (del_size_ - 1);
 114:../../../DaisySP//Source/Effects/pitchshifter.h ****         mod_[1] = fade2 * (del_size_ - 1);
 115:../../../DaisySP//Source/Effects/pitchshifter.h **** #ifdef USE_ARM_DSP
 116:../../../DaisySP//Source/Effects/pitchshifter.h ****         gain_[0] = arm_sin_f32(fade1 * (float)M_PI);
 117:../../../DaisySP//Source/Effects/pitchshifter.h ****         gain_[1] = arm_sin_f32(fade2 * (float)M_PI);
 118:../../../DaisySP//Source/Effects/pitchshifter.h **** #else
 119:../../../DaisySP//Source/Effects/pitchshifter.h ****         gain_[0] = sinf(fade1 * PI_F);
 120:../../../DaisySP//Source/Effects/pitchshifter.h ****         gain_[1] = sinf(fade2 * PI_F);
 121:../../../DaisySP//Source/Effects/pitchshifter.h **** #endif
 122:../../../DaisySP//Source/Effects/pitchshifter.h **** 
 123:../../../DaisySP//Source/Effects/pitchshifter.h ****         // Handle Delay Writing
 124:../../../DaisySP//Source/Effects/pitchshifter.h ****         d_[0].Write(in);
 125:../../../DaisySP//Source/Effects/pitchshifter.h ****         d_[1].Write(in);
ARM GAS  /var/folders/wz/z09yph4n0qj4t7mjxhl6ttn80000gn/T//ccNrSY5I.s 			page 13


 126:../../../DaisySP//Source/Effects/pitchshifter.h ****         // Modulate Delay Lines
 127:../../../DaisySP//Source/Effects/pitchshifter.h ****         //mod_a_amt = mod_b_amt = 0.0f;
 128:../../../DaisySP//Source/Effects/pitchshifter.h ****         d_[0].SetDelay(mod_[0] + mod_a_amt_);
 129:../../../DaisySP//Source/Effects/pitchshifter.h ****         d_[1].SetDelay(mod_[1] + mod_b_amt_);
 130:../../../DaisySP//Source/Effects/pitchshifter.h ****         d_[0].SetDelay(mod_[0] + slewed_mod_[0]);
 131:../../../DaisySP//Source/Effects/pitchshifter.h ****         d_[1].SetDelay(mod_[1] + slewed_mod_[1]);
 132:../../../DaisySP//Source/Effects/pitchshifter.h ****         val = 0.0f;
 133:../../../DaisySP//Source/Effects/pitchshifter.h ****         val += (d_[0].Read() * gain_[0]);
 134:../../../DaisySP//Source/Effects/pitchshifter.h ****         val += (d_[1].Read() * gain_[1]);
 135:../../../DaisySP//Source/Effects/pitchshifter.h ****         return val;
 136:../../../DaisySP//Source/Effects/pitchshifter.h ****     }
 137:../../../DaisySP//Source/Effects/pitchshifter.h **** 
 138:../../../DaisySP//Source/Effects/pitchshifter.h ****     /** sets transposition in semitones
 139:../../../DaisySP//Source/Effects/pitchshifter.h ****     */
 140:../../../DaisySP//Source/Effects/pitchshifter.h ****     void SetTransposition(const float &transpose)
 141:../../../DaisySP//Source/Effects/pitchshifter.h ****     {
 142:../../../DaisySP//Source/Effects/pitchshifter.h ****         float   ratio;
 143:../../../DaisySP//Source/Effects/pitchshifter.h ****         uint8_t idx;
 144:../../../DaisySP//Source/Effects/pitchshifter.h ****         if(transpose_ != transpose || force_recalc_)
 145:../../../DaisySP//Source/Effects/pitchshifter.h ****         {
 146:../../../DaisySP//Source/Effects/pitchshifter.h ****             transpose_ = transpose;
 147:../../../DaisySP//Source/Effects/pitchshifter.h ****             idx        = (uint8_t)fabsf(transpose);
 148:../../../DaisySP//Source/Effects/pitchshifter.h ****             ratio      = semitone_ratios_[idx % 12];
 149:../../../DaisySP//Source/Effects/pitchshifter.h ****             ratio *= (uint8_t)(fabsf(transpose) / 12) + 1;
 150:../../../DaisySP//Source/Effects/pitchshifter.h ****             if(transpose > 0.0f)
 151:../../../DaisySP//Source/Effects/pitchshifter.h ****             {
 152:../../../DaisySP//Source/Effects/pitchshifter.h ****                 shift_up_ = true;
 153:../../../DaisySP//Source/Effects/pitchshifter.h ****             }
 154:../../../DaisySP//Source/Effects/pitchshifter.h ****             else
 155:../../../DaisySP//Source/Effects/pitchshifter.h ****             {
 156:../../../DaisySP//Source/Effects/pitchshifter.h ****                 shift_up_ = false;
 157:../../../DaisySP//Source/Effects/pitchshifter.h ****             }
 158:../../../DaisySP//Source/Effects/pitchshifter.h ****             mod_freq_ = ((ratio - 1.0f) * sr_) / del_size_;
 159:../../../DaisySP//Source/Effects/pitchshifter.h ****             if(mod_freq_ < 0.0f)
 160:../../../DaisySP//Source/Effects/pitchshifter.h ****             {
 161:../../../DaisySP//Source/Effects/pitchshifter.h ****                 mod_freq_ = 0.0f;
 162:../../../DaisySP//Source/Effects/pitchshifter.h ****             }
 163:../../../DaisySP//Source/Effects/pitchshifter.h ****             phs_[0].SetFreq(mod_freq_);
 164:../../../DaisySP//Source/Effects/pitchshifter.h ****             phs_[1].SetFreq(mod_freq_);
 165:../../../DaisySP//Source/Effects/pitchshifter.h ****             if(force_recalc_)
 166:../../../DaisySP//Source/Effects/pitchshifter.h ****             {
 167:../../../DaisySP//Source/Effects/pitchshifter.h ****                 force_recalc_ = false;
 168:../../../DaisySP//Source/Effects/pitchshifter.h ****             }
 169:../../../DaisySP//Source/Effects/pitchshifter.h ****         }
 170:../../../DaisySP//Source/Effects/pitchshifter.h ****     }
 171:../../../DaisySP//Source/Effects/pitchshifter.h **** 
 172:../../../DaisySP//Source/Effects/pitchshifter.h ****     /** sets delay size changing the timbre of the pitchshifting 
 173:../../../DaisySP//Source/Effects/pitchshifter.h ****     */
 174:../../../DaisySP//Source/Effects/pitchshifter.h ****     void SetDelSize(uint32_t size)
 175:../../../DaisySP//Source/Effects/pitchshifter.h ****     {
 176:../../../DaisySP//Source/Effects/pitchshifter.h ****         del_size_     = size < SHIFT_BUFFER_SIZE ? size : SHIFT_BUFFER_SIZE;
 177:../../../DaisySP//Source/Effects/pitchshifter.h ****         force_recalc_ = true;
 178:../../../DaisySP//Source/Effects/pitchshifter.h ****         SetTransposition(transpose_);
 179:../../../DaisySP//Source/Effects/pitchshifter.h ****     }
 180:../../../DaisySP//Source/Effects/pitchshifter.h **** 
 181:../../../DaisySP//Source/Effects/pitchshifter.h ****     /** sets an amount of internal random modulation, kind of sounds like tape-flutter
 182:../../../DaisySP//Source/Effects/pitchshifter.h ****     */
ARM GAS  /var/folders/wz/z09yph4n0qj4t7mjxhl6ttn80000gn/T//ccNrSY5I.s 			page 14


 183:../../../DaisySP//Source/Effects/pitchshifter.h ****     inline void SetFun(float f) { fun_ = f; }
 102              		.loc 4 183 40 is_stmt 0 view .LVU15
 103 0000 0368     		ldr	r3, [r0]
 104              	.LBE461:
 105              	.LBE460:
 106              	.LBE459:
 107              	.LBE458:
  60:/Library/DaisyToolchain/0.2.0/arm/arm-none-eabi/include/c++/10.3.1/bits/invoke.h **** 
 108              		.loc 2 60 36 view .LVU16
 109 0002 0A68     		ldr	r2, [r1]	@ float
 110              	.LVL4:
 111              	.LBB465:
 112              	.LBI458:
  15:DSP/FX/PitchShift.cpp ****     semitones.init(seed, -12, 12, LINEAR, ChannelIDs::AMP3, [this] (int s) { shifter.SetTranspositi
  16:DSP/FX/PitchShift.cpp ****     rand.init(seed, 0, 1, LINEAR, ChannelIDs::AMP4, [this] (float r) { shifter.SetFun(r); });
 113              		.loc 3 16 53 is_stmt 1 view .LVU17
 114              	.LBB464:
 115              		.loc 3 16 72 view .LVU18
 116              	.LBB463:
 117              	.LBI460:
 118              		.loc 4 183 17 view .LVU19
 119              	.LBB462:
 120              		.loc 4 183 35 view .LVU20
 121              		.loc 4 183 40 is_stmt 0 view .LVU21
 122 0004 03F59743 		add	r3, r3, #19328
 123              	.LVL5:
 124              		.loc 4 183 40 view .LVU22
 125 0008 5A60     		str	r2, [r3, #4]	@ float
 126              	.LVL6:
 127              		.loc 4 183 40 view .LVU23
 128              	.LBE462:
 129              	.LBE463:
 130              	.LBE464:
 131              	.LBE465:
 132              	.LBE457:
 133              	.LBE456:
 134              	.LBE455:
 135              	.LBE454:
 136              		.loc 1 293 7 view .LVU24
 137 000a 7047     		bx	lr
 138              		.cfi_endproc
 139              	.LFE6144:
 141              		.section	.text._ZNSt17_Function_handlerIFvfEZN10PitchShift4initEPN5daisy9DaisySeedEEUlfE1_E10_M_ma
 142              		.align	1
 143              		.syntax unified
 144              		.thumb
 145              		.thumb_func
 147              	_ZNSt17_Function_handlerIFvfEZN10PitchShift4initEPN5daisy9DaisySeedEEUlfE1_E10_M_managerERSt9_Any_d
 148              	.LVL7:
 149              	.LFB6145:
 268:/Library/DaisyToolchain/0.2.0/arm/arm-none-eabi/include/c++/10.3.1/bits/std_function.h **** 		 _Manager_operation __op)
 150              		.loc 1 268 7 is_stmt 1 view -0
 151              		.cfi_startproc
 152              		@ args = 0, pretend = 0, frame = 0
 153              		@ frame_needed = 0, uses_anonymous_args = 0
 154              		@ link register save eliminated.
 271:/Library/DaisyToolchain/0.2.0/arm/arm-none-eabi/include/c++/10.3.1/bits/std_function.h **** 	  {
ARM GAS  /var/folders/wz/z09yph4n0qj4t7mjxhl6ttn80000gn/T//ccNrSY5I.s 			page 15


 155              		.loc 1 271 2 is_stmt 0 view .LVU26
 156 0000 012A     		cmp	r2, #1
 157 0002 02D1     		bne	.L4
 158              	.LVL8:
  87:/Library/DaisyToolchain/0.2.0/arm/arm-none-eabi/include/c++/10.3.1/bits/std_function.h ****     const void* _M_access() const { return &_M_pod_data[0]; }
 159              		.loc 1 87 37 is_stmt 1 view .LVU27
 160              	.LBB482:
 161              	.LBI482:
 136:/Library/DaisyToolchain/0.2.0/arm/arm-none-eabi/include/c++/10.3.1/bits/std_function.h **** 	{
 162              		.loc 1 136 2 view .LVU28
 163              	.LBB483:
 164              	.LBB484:
 165              	.LBI484:
  97:/Library/DaisyToolchain/0.2.0/arm/arm-none-eabi/include/c++/10.3.1/bits/std_function.h ****       { return *static_cast<const _Tp*>(_M_access()); }
 166              		.loc 1 97 7 view .LVU29
 167              	.LBB485:
 168              	.LBI485:
  88:/Library/DaisyToolchain/0.2.0/arm/arm-none-eabi/include/c++/10.3.1/bits/std_function.h **** 
 169              		.loc 1 88 17 view .LVU30
 170              	.LBB486:
  88:/Library/DaisyToolchain/0.2.0/arm/arm-none-eabi/include/c++/10.3.1/bits/std_function.h **** 
 171              		.loc 1 88 37 view .LVU31
  88:/Library/DaisyToolchain/0.2.0/arm/arm-none-eabi/include/c++/10.3.1/bits/std_function.h **** 
 172              		.loc 1 88 37 is_stmt 0 view .LVU32
 173              	.LBE486:
 174              	.LBE485:
 175              	.LBE484:
 176              	.LBE483:
 177              	.LBE482:
 279:/Library/DaisyToolchain/0.2.0/arm/arm-none-eabi/include/c++/10.3.1/bits/std_function.h **** 	    break;
 178              		.loc 1 279 36 view .LVU33
 179 0004 0160     		str	r1, [r0]
 180              	.LVL9:
 181              	.L5:
 286:/Library/DaisyToolchain/0.2.0/arm/arm-none-eabi/include/c++/10.3.1/bits/std_function.h **** 
 182              		.loc 1 286 7 view .LVU34
 183 0006 0020     		movs	r0, #0
 184              	.LVL10:
 286:/Library/DaisyToolchain/0.2.0/arm/arm-none-eabi/include/c++/10.3.1/bits/std_function.h **** 
 185              		.loc 1 286 7 view .LVU35
 186 0008 7047     		bx	lr
 187              	.LVL11:
 188              	.L4:
 189              	.LBB487:
 190              	.LBI487:
 181:/Library/DaisyToolchain/0.2.0/arm/arm-none-eabi/include/c++/10.3.1/bits/std_function.h **** 		   _Manager_operation __op)
 191              		.loc 1 181 2 is_stmt 1 view .LVU36
 192              	.LBB488:
 184:/Library/DaisyToolchain/0.2.0/arm/arm-none-eabi/include/c++/10.3.1/bits/std_function.h **** 	    {
 193              		.loc 1 184 4 is_stmt 0 view .LVU37
 194 000a 022A     		cmp	r2, #2
 195              	.LVL12:
 196              	.LBB489:
 197              	.LBI489:
 150:/Library/DaisyToolchain/0.2.0/arm/arm-none-eabi/include/c++/10.3.1/bits/std_function.h **** 	{
 198              		.loc 1 150 2 is_stmt 1 view .LVU38
 150:/Library/DaisyToolchain/0.2.0/arm/arm-none-eabi/include/c++/10.3.1/bits/std_function.h **** 	{
ARM GAS  /var/folders/wz/z09yph4n0qj4t7mjxhl6ttn80000gn/T//ccNrSY5I.s 			page 16


 199              		.loc 1 150 2 is_stmt 0 view .LVU39
 200              	.LBE489:
 201              	.LBE488:
 202              	.LBE487:
  88:/Library/DaisyToolchain/0.2.0/arm/arm-none-eabi/include/c++/10.3.1/bits/std_function.h **** 
 203              		.loc 1 88 37 is_stmt 1 view .LVU40
  87:/Library/DaisyToolchain/0.2.0/arm/arm-none-eabi/include/c++/10.3.1/bits/std_function.h ****     const void* _M_access() const { return &_M_pod_data[0]; }
 204              		.loc 1 87 37 view .LVU41
 205              		.file 5 "/Library/DaisyToolchain/0.2.0/arm/arm-none-eabi/include/c++/10.3.1/new"
   1:/Library/DaisyToolchain/0.2.0/arm/arm-none-eabi/include/c++/10.3.1/new **** // The -*- C++ -*- dynamic memory management header.
   2:/Library/DaisyToolchain/0.2.0/arm/arm-none-eabi/include/c++/10.3.1/new **** 
   3:/Library/DaisyToolchain/0.2.0/arm/arm-none-eabi/include/c++/10.3.1/new **** // Copyright (C) 1994-2020 Free Software Foundation, Inc.
   4:/Library/DaisyToolchain/0.2.0/arm/arm-none-eabi/include/c++/10.3.1/new **** 
   5:/Library/DaisyToolchain/0.2.0/arm/arm-none-eabi/include/c++/10.3.1/new **** // This file is part of GCC.
   6:/Library/DaisyToolchain/0.2.0/arm/arm-none-eabi/include/c++/10.3.1/new **** //
   7:/Library/DaisyToolchain/0.2.0/arm/arm-none-eabi/include/c++/10.3.1/new **** // GCC is free software; you can redistribute it and/or modify
   8:/Library/DaisyToolchain/0.2.0/arm/arm-none-eabi/include/c++/10.3.1/new **** // it under the terms of the GNU General Public License as published by
   9:/Library/DaisyToolchain/0.2.0/arm/arm-none-eabi/include/c++/10.3.1/new **** // the Free Software Foundation; either version 3, or (at your option)
  10:/Library/DaisyToolchain/0.2.0/arm/arm-none-eabi/include/c++/10.3.1/new **** // any later version.
  11:/Library/DaisyToolchain/0.2.0/arm/arm-none-eabi/include/c++/10.3.1/new **** // 
  12:/Library/DaisyToolchain/0.2.0/arm/arm-none-eabi/include/c++/10.3.1/new **** // GCC is distributed in the hope that it will be useful,
  13:/Library/DaisyToolchain/0.2.0/arm/arm-none-eabi/include/c++/10.3.1/new **** // but WITHOUT ANY WARRANTY; without even the implied warranty of
  14:/Library/DaisyToolchain/0.2.0/arm/arm-none-eabi/include/c++/10.3.1/new **** // MERCHANTABILITY or FITNESS FOR A PARTICULAR PURPOSE.  See the
  15:/Library/DaisyToolchain/0.2.0/arm/arm-none-eabi/include/c++/10.3.1/new **** // GNU General Public License for more details.
  16:/Library/DaisyToolchain/0.2.0/arm/arm-none-eabi/include/c++/10.3.1/new **** // 
  17:/Library/DaisyToolchain/0.2.0/arm/arm-none-eabi/include/c++/10.3.1/new **** // Under Section 7 of GPL version 3, you are granted additional
  18:/Library/DaisyToolchain/0.2.0/arm/arm-none-eabi/include/c++/10.3.1/new **** // permissions described in the GCC Runtime Library Exception, version
  19:/Library/DaisyToolchain/0.2.0/arm/arm-none-eabi/include/c++/10.3.1/new **** // 3.1, as published by the Free Software Foundation.
  20:/Library/DaisyToolchain/0.2.0/arm/arm-none-eabi/include/c++/10.3.1/new **** 
  21:/Library/DaisyToolchain/0.2.0/arm/arm-none-eabi/include/c++/10.3.1/new **** // You should have received a copy of the GNU General Public License and
  22:/Library/DaisyToolchain/0.2.0/arm/arm-none-eabi/include/c++/10.3.1/new **** // a copy of the GCC Runtime Library Exception along with this program;
  23:/Library/DaisyToolchain/0.2.0/arm/arm-none-eabi/include/c++/10.3.1/new **** // see the files COPYING3 and COPYING.RUNTIME respectively.  If not, see
  24:/Library/DaisyToolchain/0.2.0/arm/arm-none-eabi/include/c++/10.3.1/new **** // <http://www.gnu.org/licenses/>.
  25:/Library/DaisyToolchain/0.2.0/arm/arm-none-eabi/include/c++/10.3.1/new **** 
  26:/Library/DaisyToolchain/0.2.0/arm/arm-none-eabi/include/c++/10.3.1/new **** /** @file new
  27:/Library/DaisyToolchain/0.2.0/arm/arm-none-eabi/include/c++/10.3.1/new ****  *  This is a Standard C++ Library header.
  28:/Library/DaisyToolchain/0.2.0/arm/arm-none-eabi/include/c++/10.3.1/new ****  *
  29:/Library/DaisyToolchain/0.2.0/arm/arm-none-eabi/include/c++/10.3.1/new ****  *  The header @c new defines several functions to manage dynamic memory and
  30:/Library/DaisyToolchain/0.2.0/arm/arm-none-eabi/include/c++/10.3.1/new ****  *  handling memory allocation errors; see
  31:/Library/DaisyToolchain/0.2.0/arm/arm-none-eabi/include/c++/10.3.1/new ****  *  https://gcc.gnu.org/onlinedocs/libstdc++/manual/dynamic_memory.html
  32:/Library/DaisyToolchain/0.2.0/arm/arm-none-eabi/include/c++/10.3.1/new ****  *  for more.
  33:/Library/DaisyToolchain/0.2.0/arm/arm-none-eabi/include/c++/10.3.1/new ****  */
  34:/Library/DaisyToolchain/0.2.0/arm/arm-none-eabi/include/c++/10.3.1/new **** 
  35:/Library/DaisyToolchain/0.2.0/arm/arm-none-eabi/include/c++/10.3.1/new **** #ifndef _NEW
  36:/Library/DaisyToolchain/0.2.0/arm/arm-none-eabi/include/c++/10.3.1/new **** #define _NEW
  37:/Library/DaisyToolchain/0.2.0/arm/arm-none-eabi/include/c++/10.3.1/new **** 
  38:/Library/DaisyToolchain/0.2.0/arm/arm-none-eabi/include/c++/10.3.1/new **** #pragma GCC system_header
  39:/Library/DaisyToolchain/0.2.0/arm/arm-none-eabi/include/c++/10.3.1/new **** 
  40:/Library/DaisyToolchain/0.2.0/arm/arm-none-eabi/include/c++/10.3.1/new **** #include <bits/c++config.h>
  41:/Library/DaisyToolchain/0.2.0/arm/arm-none-eabi/include/c++/10.3.1/new **** #include <exception>
  42:/Library/DaisyToolchain/0.2.0/arm/arm-none-eabi/include/c++/10.3.1/new **** 
  43:/Library/DaisyToolchain/0.2.0/arm/arm-none-eabi/include/c++/10.3.1/new **** #pragma GCC visibility push(default)
  44:/Library/DaisyToolchain/0.2.0/arm/arm-none-eabi/include/c++/10.3.1/new **** 
  45:/Library/DaisyToolchain/0.2.0/arm/arm-none-eabi/include/c++/10.3.1/new **** extern "C++" {
  46:/Library/DaisyToolchain/0.2.0/arm/arm-none-eabi/include/c++/10.3.1/new **** 
  47:/Library/DaisyToolchain/0.2.0/arm/arm-none-eabi/include/c++/10.3.1/new **** namespace std 
  48:/Library/DaisyToolchain/0.2.0/arm/arm-none-eabi/include/c++/10.3.1/new **** {
ARM GAS  /var/folders/wz/z09yph4n0qj4t7mjxhl6ttn80000gn/T//ccNrSY5I.s 			page 17


  49:/Library/DaisyToolchain/0.2.0/arm/arm-none-eabi/include/c++/10.3.1/new ****   /**
  50:/Library/DaisyToolchain/0.2.0/arm/arm-none-eabi/include/c++/10.3.1/new ****    *  @brief  Exception possibly thrown by @c new.
  51:/Library/DaisyToolchain/0.2.0/arm/arm-none-eabi/include/c++/10.3.1/new ****    *  @ingroup exceptions
  52:/Library/DaisyToolchain/0.2.0/arm/arm-none-eabi/include/c++/10.3.1/new ****    *
  53:/Library/DaisyToolchain/0.2.0/arm/arm-none-eabi/include/c++/10.3.1/new ****    *  @c bad_alloc (or classes derived from it) is used to report allocation
  54:/Library/DaisyToolchain/0.2.0/arm/arm-none-eabi/include/c++/10.3.1/new ****    *  errors from the throwing forms of @c new.  */
  55:/Library/DaisyToolchain/0.2.0/arm/arm-none-eabi/include/c++/10.3.1/new ****   class bad_alloc : public exception 
  56:/Library/DaisyToolchain/0.2.0/arm/arm-none-eabi/include/c++/10.3.1/new ****   {
  57:/Library/DaisyToolchain/0.2.0/arm/arm-none-eabi/include/c++/10.3.1/new ****   public:
  58:/Library/DaisyToolchain/0.2.0/arm/arm-none-eabi/include/c++/10.3.1/new ****     bad_alloc() throw() { }
  59:/Library/DaisyToolchain/0.2.0/arm/arm-none-eabi/include/c++/10.3.1/new **** 
  60:/Library/DaisyToolchain/0.2.0/arm/arm-none-eabi/include/c++/10.3.1/new **** #if __cplusplus >= 201103L
  61:/Library/DaisyToolchain/0.2.0/arm/arm-none-eabi/include/c++/10.3.1/new ****     bad_alloc(const bad_alloc&) = default;
  62:/Library/DaisyToolchain/0.2.0/arm/arm-none-eabi/include/c++/10.3.1/new ****     bad_alloc& operator=(const bad_alloc&) = default;
  63:/Library/DaisyToolchain/0.2.0/arm/arm-none-eabi/include/c++/10.3.1/new **** #endif
  64:/Library/DaisyToolchain/0.2.0/arm/arm-none-eabi/include/c++/10.3.1/new **** 
  65:/Library/DaisyToolchain/0.2.0/arm/arm-none-eabi/include/c++/10.3.1/new ****     // This declaration is not useless:
  66:/Library/DaisyToolchain/0.2.0/arm/arm-none-eabi/include/c++/10.3.1/new ****     // http://gcc.gnu.org/onlinedocs/gcc-3.0.2/gcc_6.html#SEC118
  67:/Library/DaisyToolchain/0.2.0/arm/arm-none-eabi/include/c++/10.3.1/new ****     virtual ~bad_alloc() throw();
  68:/Library/DaisyToolchain/0.2.0/arm/arm-none-eabi/include/c++/10.3.1/new **** 
  69:/Library/DaisyToolchain/0.2.0/arm/arm-none-eabi/include/c++/10.3.1/new ****     // See comment in eh_exception.cc.
  70:/Library/DaisyToolchain/0.2.0/arm/arm-none-eabi/include/c++/10.3.1/new ****     virtual const char* what() const throw();
  71:/Library/DaisyToolchain/0.2.0/arm/arm-none-eabi/include/c++/10.3.1/new ****   };
  72:/Library/DaisyToolchain/0.2.0/arm/arm-none-eabi/include/c++/10.3.1/new **** 
  73:/Library/DaisyToolchain/0.2.0/arm/arm-none-eabi/include/c++/10.3.1/new **** #if __cplusplus >= 201103L
  74:/Library/DaisyToolchain/0.2.0/arm/arm-none-eabi/include/c++/10.3.1/new ****   class bad_array_new_length : public bad_alloc
  75:/Library/DaisyToolchain/0.2.0/arm/arm-none-eabi/include/c++/10.3.1/new ****   {
  76:/Library/DaisyToolchain/0.2.0/arm/arm-none-eabi/include/c++/10.3.1/new ****   public:
  77:/Library/DaisyToolchain/0.2.0/arm/arm-none-eabi/include/c++/10.3.1/new ****     bad_array_new_length() throw() { }
  78:/Library/DaisyToolchain/0.2.0/arm/arm-none-eabi/include/c++/10.3.1/new **** 
  79:/Library/DaisyToolchain/0.2.0/arm/arm-none-eabi/include/c++/10.3.1/new ****     // This declaration is not useless:
  80:/Library/DaisyToolchain/0.2.0/arm/arm-none-eabi/include/c++/10.3.1/new ****     // http://gcc.gnu.org/onlinedocs/gcc-3.0.2/gcc_6.html#SEC118
  81:/Library/DaisyToolchain/0.2.0/arm/arm-none-eabi/include/c++/10.3.1/new ****     virtual ~bad_array_new_length() throw();
  82:/Library/DaisyToolchain/0.2.0/arm/arm-none-eabi/include/c++/10.3.1/new **** 
  83:/Library/DaisyToolchain/0.2.0/arm/arm-none-eabi/include/c++/10.3.1/new ****     // See comment in eh_exception.cc.
  84:/Library/DaisyToolchain/0.2.0/arm/arm-none-eabi/include/c++/10.3.1/new ****     virtual const char* what() const throw();
  85:/Library/DaisyToolchain/0.2.0/arm/arm-none-eabi/include/c++/10.3.1/new ****   };
  86:/Library/DaisyToolchain/0.2.0/arm/arm-none-eabi/include/c++/10.3.1/new **** #endif
  87:/Library/DaisyToolchain/0.2.0/arm/arm-none-eabi/include/c++/10.3.1/new **** 
  88:/Library/DaisyToolchain/0.2.0/arm/arm-none-eabi/include/c++/10.3.1/new **** #if __cpp_aligned_new
  89:/Library/DaisyToolchain/0.2.0/arm/arm-none-eabi/include/c++/10.3.1/new ****   enum class align_val_t: size_t {};
  90:/Library/DaisyToolchain/0.2.0/arm/arm-none-eabi/include/c++/10.3.1/new **** #endif
  91:/Library/DaisyToolchain/0.2.0/arm/arm-none-eabi/include/c++/10.3.1/new **** 
  92:/Library/DaisyToolchain/0.2.0/arm/arm-none-eabi/include/c++/10.3.1/new ****   struct nothrow_t
  93:/Library/DaisyToolchain/0.2.0/arm/arm-none-eabi/include/c++/10.3.1/new ****   {
  94:/Library/DaisyToolchain/0.2.0/arm/arm-none-eabi/include/c++/10.3.1/new **** #if __cplusplus >= 201103L
  95:/Library/DaisyToolchain/0.2.0/arm/arm-none-eabi/include/c++/10.3.1/new ****     explicit nothrow_t() = default;
  96:/Library/DaisyToolchain/0.2.0/arm/arm-none-eabi/include/c++/10.3.1/new **** #endif
  97:/Library/DaisyToolchain/0.2.0/arm/arm-none-eabi/include/c++/10.3.1/new ****   };
  98:/Library/DaisyToolchain/0.2.0/arm/arm-none-eabi/include/c++/10.3.1/new **** 
  99:/Library/DaisyToolchain/0.2.0/arm/arm-none-eabi/include/c++/10.3.1/new ****   extern const nothrow_t nothrow;
 100:/Library/DaisyToolchain/0.2.0/arm/arm-none-eabi/include/c++/10.3.1/new **** 
 101:/Library/DaisyToolchain/0.2.0/arm/arm-none-eabi/include/c++/10.3.1/new ****   /** If you write your own error handler to be called by @c new, it must
 102:/Library/DaisyToolchain/0.2.0/arm/arm-none-eabi/include/c++/10.3.1/new ****    *  be of this type.  */
 103:/Library/DaisyToolchain/0.2.0/arm/arm-none-eabi/include/c++/10.3.1/new ****   typedef void (*new_handler)();
 104:/Library/DaisyToolchain/0.2.0/arm/arm-none-eabi/include/c++/10.3.1/new **** 
 105:/Library/DaisyToolchain/0.2.0/arm/arm-none-eabi/include/c++/10.3.1/new ****   /// Takes a replacement handler as the argument, returns the
ARM GAS  /var/folders/wz/z09yph4n0qj4t7mjxhl6ttn80000gn/T//ccNrSY5I.s 			page 18


 106:/Library/DaisyToolchain/0.2.0/arm/arm-none-eabi/include/c++/10.3.1/new ****   /// previous handler.
 107:/Library/DaisyToolchain/0.2.0/arm/arm-none-eabi/include/c++/10.3.1/new ****   new_handler set_new_handler(new_handler) throw();
 108:/Library/DaisyToolchain/0.2.0/arm/arm-none-eabi/include/c++/10.3.1/new **** 
 109:/Library/DaisyToolchain/0.2.0/arm/arm-none-eabi/include/c++/10.3.1/new **** #if __cplusplus >= 201103L
 110:/Library/DaisyToolchain/0.2.0/arm/arm-none-eabi/include/c++/10.3.1/new ****   /// Return the current new handler.
 111:/Library/DaisyToolchain/0.2.0/arm/arm-none-eabi/include/c++/10.3.1/new ****   new_handler get_new_handler() noexcept;
 112:/Library/DaisyToolchain/0.2.0/arm/arm-none-eabi/include/c++/10.3.1/new **** #endif
 113:/Library/DaisyToolchain/0.2.0/arm/arm-none-eabi/include/c++/10.3.1/new **** } // namespace std
 114:/Library/DaisyToolchain/0.2.0/arm/arm-none-eabi/include/c++/10.3.1/new **** 
 115:/Library/DaisyToolchain/0.2.0/arm/arm-none-eabi/include/c++/10.3.1/new **** //@{
 116:/Library/DaisyToolchain/0.2.0/arm/arm-none-eabi/include/c++/10.3.1/new **** /** These are replaceable signatures:
 117:/Library/DaisyToolchain/0.2.0/arm/arm-none-eabi/include/c++/10.3.1/new ****  *  - normal single new and delete (no arguments, throw @c bad_alloc on error)
 118:/Library/DaisyToolchain/0.2.0/arm/arm-none-eabi/include/c++/10.3.1/new ****  *  - normal array new and delete (same)
 119:/Library/DaisyToolchain/0.2.0/arm/arm-none-eabi/include/c++/10.3.1/new ****  *  - @c nothrow single new and delete (take a @c nothrow argument, return
 120:/Library/DaisyToolchain/0.2.0/arm/arm-none-eabi/include/c++/10.3.1/new ****  *    @c NULL on error)
 121:/Library/DaisyToolchain/0.2.0/arm/arm-none-eabi/include/c++/10.3.1/new ****  *  - @c nothrow array new and delete (same)
 122:/Library/DaisyToolchain/0.2.0/arm/arm-none-eabi/include/c++/10.3.1/new ****  *
 123:/Library/DaisyToolchain/0.2.0/arm/arm-none-eabi/include/c++/10.3.1/new ****  *  Placement new and delete signatures (take a memory address argument,
 124:/Library/DaisyToolchain/0.2.0/arm/arm-none-eabi/include/c++/10.3.1/new ****  *  does nothing) may not be replaced by a user's program.
 125:/Library/DaisyToolchain/0.2.0/arm/arm-none-eabi/include/c++/10.3.1/new **** */
 126:/Library/DaisyToolchain/0.2.0/arm/arm-none-eabi/include/c++/10.3.1/new **** _GLIBCXX_NODISCARD void* operator new(std::size_t) _GLIBCXX_THROW (std::bad_alloc)
 127:/Library/DaisyToolchain/0.2.0/arm/arm-none-eabi/include/c++/10.3.1/new ****   __attribute__((__externally_visible__));
 128:/Library/DaisyToolchain/0.2.0/arm/arm-none-eabi/include/c++/10.3.1/new **** _GLIBCXX_NODISCARD void* operator new[](std::size_t) _GLIBCXX_THROW (std::bad_alloc)
 129:/Library/DaisyToolchain/0.2.0/arm/arm-none-eabi/include/c++/10.3.1/new ****   __attribute__((__externally_visible__));
 130:/Library/DaisyToolchain/0.2.0/arm/arm-none-eabi/include/c++/10.3.1/new **** void operator delete(void*) _GLIBCXX_USE_NOEXCEPT
 131:/Library/DaisyToolchain/0.2.0/arm/arm-none-eabi/include/c++/10.3.1/new ****   __attribute__((__externally_visible__));
 132:/Library/DaisyToolchain/0.2.0/arm/arm-none-eabi/include/c++/10.3.1/new **** void operator delete[](void*) _GLIBCXX_USE_NOEXCEPT
 133:/Library/DaisyToolchain/0.2.0/arm/arm-none-eabi/include/c++/10.3.1/new ****   __attribute__((__externally_visible__));
 134:/Library/DaisyToolchain/0.2.0/arm/arm-none-eabi/include/c++/10.3.1/new **** #if __cpp_sized_deallocation
 135:/Library/DaisyToolchain/0.2.0/arm/arm-none-eabi/include/c++/10.3.1/new **** void operator delete(void*, std::size_t) _GLIBCXX_USE_NOEXCEPT
 136:/Library/DaisyToolchain/0.2.0/arm/arm-none-eabi/include/c++/10.3.1/new ****   __attribute__((__externally_visible__));
 137:/Library/DaisyToolchain/0.2.0/arm/arm-none-eabi/include/c++/10.3.1/new **** void operator delete[](void*, std::size_t) _GLIBCXX_USE_NOEXCEPT
 138:/Library/DaisyToolchain/0.2.0/arm/arm-none-eabi/include/c++/10.3.1/new ****   __attribute__((__externally_visible__));
 139:/Library/DaisyToolchain/0.2.0/arm/arm-none-eabi/include/c++/10.3.1/new **** #endif
 140:/Library/DaisyToolchain/0.2.0/arm/arm-none-eabi/include/c++/10.3.1/new **** _GLIBCXX_NODISCARD void* operator new(std::size_t, const std::nothrow_t&) _GLIBCXX_USE_NOEXCEPT
 141:/Library/DaisyToolchain/0.2.0/arm/arm-none-eabi/include/c++/10.3.1/new ****   __attribute__((__externally_visible__, __malloc__));
 142:/Library/DaisyToolchain/0.2.0/arm/arm-none-eabi/include/c++/10.3.1/new **** _GLIBCXX_NODISCARD void* operator new[](std::size_t, const std::nothrow_t&) _GLIBCXX_USE_NOEXCEPT
 143:/Library/DaisyToolchain/0.2.0/arm/arm-none-eabi/include/c++/10.3.1/new ****   __attribute__((__externally_visible__, __malloc__));
 144:/Library/DaisyToolchain/0.2.0/arm/arm-none-eabi/include/c++/10.3.1/new **** void operator delete(void*, const std::nothrow_t&) _GLIBCXX_USE_NOEXCEPT
 145:/Library/DaisyToolchain/0.2.0/arm/arm-none-eabi/include/c++/10.3.1/new ****   __attribute__((__externally_visible__));
 146:/Library/DaisyToolchain/0.2.0/arm/arm-none-eabi/include/c++/10.3.1/new **** void operator delete[](void*, const std::nothrow_t&) _GLIBCXX_USE_NOEXCEPT
 147:/Library/DaisyToolchain/0.2.0/arm/arm-none-eabi/include/c++/10.3.1/new ****   __attribute__((__externally_visible__));
 148:/Library/DaisyToolchain/0.2.0/arm/arm-none-eabi/include/c++/10.3.1/new **** #if __cpp_aligned_new
 149:/Library/DaisyToolchain/0.2.0/arm/arm-none-eabi/include/c++/10.3.1/new **** _GLIBCXX_NODISCARD void* operator new(std::size_t, std::align_val_t)
 150:/Library/DaisyToolchain/0.2.0/arm/arm-none-eabi/include/c++/10.3.1/new ****   __attribute__((__externally_visible__));
 151:/Library/DaisyToolchain/0.2.0/arm/arm-none-eabi/include/c++/10.3.1/new **** _GLIBCXX_NODISCARD void* operator new(std::size_t, std::align_val_t, const std::nothrow_t&)
 152:/Library/DaisyToolchain/0.2.0/arm/arm-none-eabi/include/c++/10.3.1/new ****   _GLIBCXX_USE_NOEXCEPT __attribute__((__externally_visible__, __malloc__));
 153:/Library/DaisyToolchain/0.2.0/arm/arm-none-eabi/include/c++/10.3.1/new **** void operator delete(void*, std::align_val_t)
 154:/Library/DaisyToolchain/0.2.0/arm/arm-none-eabi/include/c++/10.3.1/new ****   _GLIBCXX_USE_NOEXCEPT __attribute__((__externally_visible__));
 155:/Library/DaisyToolchain/0.2.0/arm/arm-none-eabi/include/c++/10.3.1/new **** void operator delete(void*, std::align_val_t, const std::nothrow_t&)
 156:/Library/DaisyToolchain/0.2.0/arm/arm-none-eabi/include/c++/10.3.1/new ****   _GLIBCXX_USE_NOEXCEPT __attribute__((__externally_visible__));
 157:/Library/DaisyToolchain/0.2.0/arm/arm-none-eabi/include/c++/10.3.1/new **** _GLIBCXX_NODISCARD void* operator new[](std::size_t, std::align_val_t)
 158:/Library/DaisyToolchain/0.2.0/arm/arm-none-eabi/include/c++/10.3.1/new ****   __attribute__((__externally_visible__));
 159:/Library/DaisyToolchain/0.2.0/arm/arm-none-eabi/include/c++/10.3.1/new **** _GLIBCXX_NODISCARD void* operator new[](std::size_t, std::align_val_t, const std::nothrow_t&)
 160:/Library/DaisyToolchain/0.2.0/arm/arm-none-eabi/include/c++/10.3.1/new ****   _GLIBCXX_USE_NOEXCEPT __attribute__((__externally_visible__, __malloc__));
 161:/Library/DaisyToolchain/0.2.0/arm/arm-none-eabi/include/c++/10.3.1/new **** void operator delete[](void*, std::align_val_t)
 162:/Library/DaisyToolchain/0.2.0/arm/arm-none-eabi/include/c++/10.3.1/new ****   _GLIBCXX_USE_NOEXCEPT __attribute__((__externally_visible__));
ARM GAS  /var/folders/wz/z09yph4n0qj4t7mjxhl6ttn80000gn/T//ccNrSY5I.s 			page 19


 163:/Library/DaisyToolchain/0.2.0/arm/arm-none-eabi/include/c++/10.3.1/new **** void operator delete[](void*, std::align_val_t, const std::nothrow_t&)
 164:/Library/DaisyToolchain/0.2.0/arm/arm-none-eabi/include/c++/10.3.1/new ****   _GLIBCXX_USE_NOEXCEPT __attribute__((__externally_visible__));
 165:/Library/DaisyToolchain/0.2.0/arm/arm-none-eabi/include/c++/10.3.1/new **** #if __cpp_sized_deallocation
 166:/Library/DaisyToolchain/0.2.0/arm/arm-none-eabi/include/c++/10.3.1/new **** void operator delete(void*, std::size_t, std::align_val_t)
 167:/Library/DaisyToolchain/0.2.0/arm/arm-none-eabi/include/c++/10.3.1/new ****   _GLIBCXX_USE_NOEXCEPT __attribute__((__externally_visible__));
 168:/Library/DaisyToolchain/0.2.0/arm/arm-none-eabi/include/c++/10.3.1/new **** void operator delete[](void*, std::size_t, std::align_val_t)
 169:/Library/DaisyToolchain/0.2.0/arm/arm-none-eabi/include/c++/10.3.1/new ****   _GLIBCXX_USE_NOEXCEPT __attribute__((__externally_visible__));
 170:/Library/DaisyToolchain/0.2.0/arm/arm-none-eabi/include/c++/10.3.1/new **** #endif // __cpp_sized_deallocation
 171:/Library/DaisyToolchain/0.2.0/arm/arm-none-eabi/include/c++/10.3.1/new **** #endif // __cpp_aligned_new
 172:/Library/DaisyToolchain/0.2.0/arm/arm-none-eabi/include/c++/10.3.1/new **** 
 173:/Library/DaisyToolchain/0.2.0/arm/arm-none-eabi/include/c++/10.3.1/new **** // Default placement versions of operator new.
 174:/Library/DaisyToolchain/0.2.0/arm/arm-none-eabi/include/c++/10.3.1/new **** _GLIBCXX_NODISCARD inline void* operator new(std::size_t, void* __p) _GLIBCXX_USE_NOEXCEPT
 175:/Library/DaisyToolchain/0.2.0/arm/arm-none-eabi/include/c++/10.3.1/new **** { return __p; }
 206              		.loc 5 175 3 view .LVU42
 207              	.LBB493:
 208              	.LBB492:
 209              	.LBB491:
 210              	.LBB490:
 152:/Library/DaisyToolchain/0.2.0/arm/arm-none-eabi/include/c++/10.3.1/bits/std_function.h **** 	}
 211              		.loc 1 152 4 is_stmt 0 view .LVU43
 212 000c 04BF     		itt	eq
 213 000e 0B68     		ldreq	r3, [r1]
 214 0010 0360     		streq	r3, [r0]
 215              	.LVL13:
 152:/Library/DaisyToolchain/0.2.0/arm/arm-none-eabi/include/c++/10.3.1/bits/std_function.h **** 	}
 216              		.loc 1 152 4 view .LVU44
 217              	.LBE490:
 218              	.LBE491:
 197:/Library/DaisyToolchain/0.2.0/arm/arm-none-eabi/include/c++/10.3.1/bits/std_function.h **** 
 219              		.loc 1 197 8 view .LVU45
 220 0012 F8E7     		b	.L5
 221              	.LBE492:
 222              	.LBE493:
 223              		.cfi_endproc
 224              	.LFE6145:
 226              		.section	.text._ZNSt17_Function_handlerIFviEZN10PitchShift4initEPN5daisy9DaisySeedEEUliE0_E10_M_ma
 227              		.align	1
 228              		.syntax unified
 229              		.thumb
 230              		.thumb_func
 232              	_ZNSt17_Function_handlerIFviEZN10PitchShift4initEPN5daisy9DaisySeedEEUliE0_E10_M_managerERSt9_Any_d
 233              	.LVL14:
 234              	.LFB6138:
 268:/Library/DaisyToolchain/0.2.0/arm/arm-none-eabi/include/c++/10.3.1/bits/std_function.h **** 		 _Manager_operation __op)
 235              		.loc 1 268 7 is_stmt 1 view -0
 236              		.cfi_startproc
 237              		@ args = 0, pretend = 0, frame = 0
 238              		@ frame_needed = 0, uses_anonymous_args = 0
 239              		@ link register save eliminated.
 271:/Library/DaisyToolchain/0.2.0/arm/arm-none-eabi/include/c++/10.3.1/bits/std_function.h **** 	  {
 240              		.loc 1 271 2 is_stmt 0 view .LVU47
 241 0000 012A     		cmp	r2, #1
 242 0002 02D1     		bne	.L7
 243              	.LVL15:
  87:/Library/DaisyToolchain/0.2.0/arm/arm-none-eabi/include/c++/10.3.1/bits/std_function.h ****     const void* _M_access() const { return &_M_pod_data[0]; }
 244              		.loc 1 87 37 is_stmt 1 view .LVU48
 245              	.LBB510:
ARM GAS  /var/folders/wz/z09yph4n0qj4t7mjxhl6ttn80000gn/T//ccNrSY5I.s 			page 20


 246              	.LBI510:
 136:/Library/DaisyToolchain/0.2.0/arm/arm-none-eabi/include/c++/10.3.1/bits/std_function.h **** 	{
 247              		.loc 1 136 2 view .LVU49
 248              	.LBB511:
 249              	.LBB512:
 250              	.LBI512:
  97:/Library/DaisyToolchain/0.2.0/arm/arm-none-eabi/include/c++/10.3.1/bits/std_function.h ****       { return *static_cast<const _Tp*>(_M_access()); }
 251              		.loc 1 97 7 view .LVU50
 252              	.LBB513:
 253              	.LBI513:
  88:/Library/DaisyToolchain/0.2.0/arm/arm-none-eabi/include/c++/10.3.1/bits/std_function.h **** 
 254              		.loc 1 88 17 view .LVU51
 255              	.LBB514:
  88:/Library/DaisyToolchain/0.2.0/arm/arm-none-eabi/include/c++/10.3.1/bits/std_function.h **** 
 256              		.loc 1 88 37 view .LVU52
  88:/Library/DaisyToolchain/0.2.0/arm/arm-none-eabi/include/c++/10.3.1/bits/std_function.h **** 
 257              		.loc 1 88 37 is_stmt 0 view .LVU53
 258              	.LBE514:
 259              	.LBE513:
 260              	.LBE512:
 261              	.LBE511:
 262              	.LBE510:
 279:/Library/DaisyToolchain/0.2.0/arm/arm-none-eabi/include/c++/10.3.1/bits/std_function.h **** 	    break;
 263              		.loc 1 279 36 view .LVU54
 264 0004 0160     		str	r1, [r0]
 265              	.LVL16:
 266              	.L8:
 286:/Library/DaisyToolchain/0.2.0/arm/arm-none-eabi/include/c++/10.3.1/bits/std_function.h **** 
 267              		.loc 1 286 7 view .LVU55
 268 0006 0020     		movs	r0, #0
 269              	.LVL17:
 286:/Library/DaisyToolchain/0.2.0/arm/arm-none-eabi/include/c++/10.3.1/bits/std_function.h **** 
 270              		.loc 1 286 7 view .LVU56
 271 0008 7047     		bx	lr
 272              	.LVL18:
 273              	.L7:
 274              	.LBB515:
 275              	.LBI515:
 181:/Library/DaisyToolchain/0.2.0/arm/arm-none-eabi/include/c++/10.3.1/bits/std_function.h **** 		   _Manager_operation __op)
 276              		.loc 1 181 2 is_stmt 1 view .LVU57
 277              	.LBB516:
 184:/Library/DaisyToolchain/0.2.0/arm/arm-none-eabi/include/c++/10.3.1/bits/std_function.h **** 	    {
 278              		.loc 1 184 4 is_stmt 0 view .LVU58
 279 000a 022A     		cmp	r2, #2
 280              	.LVL19:
 281              	.LBB517:
 282              	.LBI517:
 150:/Library/DaisyToolchain/0.2.0/arm/arm-none-eabi/include/c++/10.3.1/bits/std_function.h **** 	{
 283              		.loc 1 150 2 is_stmt 1 view .LVU59
 150:/Library/DaisyToolchain/0.2.0/arm/arm-none-eabi/include/c++/10.3.1/bits/std_function.h **** 	{
 284              		.loc 1 150 2 is_stmt 0 view .LVU60
 285              	.LBE517:
 286              	.LBE516:
 287              	.LBE515:
  88:/Library/DaisyToolchain/0.2.0/arm/arm-none-eabi/include/c++/10.3.1/bits/std_function.h **** 
 288              		.loc 1 88 37 is_stmt 1 view .LVU61
  87:/Library/DaisyToolchain/0.2.0/arm/arm-none-eabi/include/c++/10.3.1/bits/std_function.h ****     const void* _M_access() const { return &_M_pod_data[0]; }
ARM GAS  /var/folders/wz/z09yph4n0qj4t7mjxhl6ttn80000gn/T//ccNrSY5I.s 			page 21


 289              		.loc 1 87 37 view .LVU62
 290              		.loc 5 175 3 view .LVU63
 291              	.LBB521:
 292              	.LBB520:
 293              	.LBB519:
 294              	.LBB518:
 152:/Library/DaisyToolchain/0.2.0/arm/arm-none-eabi/include/c++/10.3.1/bits/std_function.h **** 	}
 295              		.loc 1 152 4 is_stmt 0 view .LVU64
 296 000c 04BF     		itt	eq
 297 000e 0B68     		ldreq	r3, [r1]
 298 0010 0360     		streq	r3, [r0]
 299              	.LVL20:
 152:/Library/DaisyToolchain/0.2.0/arm/arm-none-eabi/include/c++/10.3.1/bits/std_function.h **** 	}
 300              		.loc 1 152 4 view .LVU65
 301              	.LBE518:
 302              	.LBE519:
 197:/Library/DaisyToolchain/0.2.0/arm/arm-none-eabi/include/c++/10.3.1/bits/std_function.h **** 
 303              		.loc 1 197 8 view .LVU66
 304 0012 F8E7     		b	.L8
 305              	.LBE520:
 306              	.LBE521:
 307              		.cfi_endproc
 308              	.LFE6138:
 310              		.section	.text._ZNSt17_Function_handlerIFvfEZN10PitchShift4initEPN5daisy9DaisySeedEEUlfE_E10_M_man
 311              		.align	1
 312              		.syntax unified
 313              		.thumb
 314              		.thumb_func
 316              	_ZNSt17_Function_handlerIFvfEZN10PitchShift4initEPN5daisy9DaisySeedEEUlfE_E10_M_managerERSt9_Any_da
 317              	.LVL21:
 318              	.LFB6130:
 268:/Library/DaisyToolchain/0.2.0/arm/arm-none-eabi/include/c++/10.3.1/bits/std_function.h **** 		 _Manager_operation __op)
 319              		.loc 1 268 7 is_stmt 1 view -0
 320              		.cfi_startproc
 321              		@ args = 0, pretend = 0, frame = 0
 322              		@ frame_needed = 0, uses_anonymous_args = 0
 323              		@ link register save eliminated.
 271:/Library/DaisyToolchain/0.2.0/arm/arm-none-eabi/include/c++/10.3.1/bits/std_function.h **** 	  {
 324              		.loc 1 271 2 is_stmt 0 view .LVU68
 325 0000 012A     		cmp	r2, #1
 326 0002 02D1     		bne	.L10
 327              	.LVL22:
  87:/Library/DaisyToolchain/0.2.0/arm/arm-none-eabi/include/c++/10.3.1/bits/std_function.h ****     const void* _M_access() const { return &_M_pod_data[0]; }
 328              		.loc 1 87 37 is_stmt 1 view .LVU69
 329              	.LBB538:
 330              	.LBI538:
 136:/Library/DaisyToolchain/0.2.0/arm/arm-none-eabi/include/c++/10.3.1/bits/std_function.h **** 	{
 331              		.loc 1 136 2 view .LVU70
 332              	.LBB539:
 333              	.LBB540:
 334              	.LBI540:
  97:/Library/DaisyToolchain/0.2.0/arm/arm-none-eabi/include/c++/10.3.1/bits/std_function.h ****       { return *static_cast<const _Tp*>(_M_access()); }
 335              		.loc 1 97 7 view .LVU71
 336              	.LBB541:
 337              	.LBI541:
  88:/Library/DaisyToolchain/0.2.0/arm/arm-none-eabi/include/c++/10.3.1/bits/std_function.h **** 
 338              		.loc 1 88 17 view .LVU72
ARM GAS  /var/folders/wz/z09yph4n0qj4t7mjxhl6ttn80000gn/T//ccNrSY5I.s 			page 22


 339              	.LBB542:
  88:/Library/DaisyToolchain/0.2.0/arm/arm-none-eabi/include/c++/10.3.1/bits/std_function.h **** 
 340              		.loc 1 88 37 view .LVU73
  88:/Library/DaisyToolchain/0.2.0/arm/arm-none-eabi/include/c++/10.3.1/bits/std_function.h **** 
 341              		.loc 1 88 37 is_stmt 0 view .LVU74
 342              	.LBE542:
 343              	.LBE541:
 344              	.LBE540:
 345              	.LBE539:
 346              	.LBE538:
 279:/Library/DaisyToolchain/0.2.0/arm/arm-none-eabi/include/c++/10.3.1/bits/std_function.h **** 	    break;
 347              		.loc 1 279 36 view .LVU75
 348 0004 0160     		str	r1, [r0]
 349              	.LVL23:
 350              	.L11:
 286:/Library/DaisyToolchain/0.2.0/arm/arm-none-eabi/include/c++/10.3.1/bits/std_function.h **** 
 351              		.loc 1 286 7 view .LVU76
 352 0006 0020     		movs	r0, #0
 353              	.LVL24:
 286:/Library/DaisyToolchain/0.2.0/arm/arm-none-eabi/include/c++/10.3.1/bits/std_function.h **** 
 354              		.loc 1 286 7 view .LVU77
 355 0008 7047     		bx	lr
 356              	.LVL25:
 357              	.L10:
 358              	.LBB543:
 359              	.LBI543:
 181:/Library/DaisyToolchain/0.2.0/arm/arm-none-eabi/include/c++/10.3.1/bits/std_function.h **** 		   _Manager_operation __op)
 360              		.loc 1 181 2 is_stmt 1 view .LVU78
 361              	.LBB544:
 184:/Library/DaisyToolchain/0.2.0/arm/arm-none-eabi/include/c++/10.3.1/bits/std_function.h **** 	    {
 362              		.loc 1 184 4 is_stmt 0 view .LVU79
 363 000a 022A     		cmp	r2, #2
 364              	.LVL26:
 365              	.LBB545:
 366              	.LBI545:
 150:/Library/DaisyToolchain/0.2.0/arm/arm-none-eabi/include/c++/10.3.1/bits/std_function.h **** 	{
 367              		.loc 1 150 2 is_stmt 1 view .LVU80
 150:/Library/DaisyToolchain/0.2.0/arm/arm-none-eabi/include/c++/10.3.1/bits/std_function.h **** 	{
 368              		.loc 1 150 2 is_stmt 0 view .LVU81
 369              	.LBE545:
 370              	.LBE544:
 371              	.LBE543:
  88:/Library/DaisyToolchain/0.2.0/arm/arm-none-eabi/include/c++/10.3.1/bits/std_function.h **** 
 372              		.loc 1 88 37 is_stmt 1 view .LVU82
  87:/Library/DaisyToolchain/0.2.0/arm/arm-none-eabi/include/c++/10.3.1/bits/std_function.h ****     const void* _M_access() const { return &_M_pod_data[0]; }
 373              		.loc 1 87 37 view .LVU83
 374              		.loc 5 175 3 view .LVU84
 375              	.LBB549:
 376              	.LBB548:
 377              	.LBB547:
 378              	.LBB546:
 152:/Library/DaisyToolchain/0.2.0/arm/arm-none-eabi/include/c++/10.3.1/bits/std_function.h **** 	}
 379              		.loc 1 152 4 is_stmt 0 view .LVU85
 380 000c 04BF     		itt	eq
 381 000e 0B68     		ldreq	r3, [r1]
 382 0010 0360     		streq	r3, [r0]
 383              	.LVL27:
ARM GAS  /var/folders/wz/z09yph4n0qj4t7mjxhl6ttn80000gn/T//ccNrSY5I.s 			page 23


 152:/Library/DaisyToolchain/0.2.0/arm/arm-none-eabi/include/c++/10.3.1/bits/std_function.h **** 	}
 384              		.loc 1 152 4 view .LVU86
 385              	.LBE546:
 386              	.LBE547:
 197:/Library/DaisyToolchain/0.2.0/arm/arm-none-eabi/include/c++/10.3.1/bits/std_function.h **** 
 387              		.loc 1 197 8 view .LVU87
 388 0012 F8E7     		b	.L11
 389              	.LBE548:
 390              	.LBE549:
 391              		.cfi_endproc
 392              	.LFE6130:
 394              		.section	.text._ZN7daisysp12PitchShifter16SetTranspositionERKf.isra.0,"ax",%progbits
 395              		.align	1
 396              		.syntax unified
 397              		.thumb
 398              		.thumb_func
 400              	_ZN7daisysp12PitchShifter16SetTranspositionERKf.isra.0:
 401              	.LVL28:
 402              	.LFB6349:
 140:../../../DaisySP//Source/Effects/pitchshifter.h ****     {
 403              		.loc 4 140 10 is_stmt 1 view -0
 404              		.cfi_startproc
 405              		@ args = 0, pretend = 0, frame = 8
 406              		@ frame_needed = 0, uses_anonymous_args = 0
 142:../../../DaisySP//Source/Effects/pitchshifter.h ****         uint8_t idx;
 407              		.loc 4 142 9 view .LVU89
 143:../../../DaisySP//Source/Effects/pitchshifter.h ****         if(transpose_ != transpose || force_recalc_)
 408              		.loc 4 143 9 view .LVU90
 144:../../../DaisySP//Source/Effects/pitchshifter.h ****         {
 409              		.loc 4 144 9 view .LVU91
 140:../../../DaisySP//Source/Effects/pitchshifter.h ****     {
 410              		.loc 4 140 10 is_stmt 0 view .LVU92
 411 0000 73B5     		push	{r0, r1, r4, r5, r6, lr}
 412              		.cfi_def_cfa_offset 24
 413              		.cfi_offset 4, -16
 414              		.cfi_offset 5, -12
 415              		.cfi_offset 6, -8
 416              		.cfi_offset 14, -4
 144:../../../DaisySP//Source/Effects/pitchshifter.h ****         {
 417              		.loc 4 144 12 view .LVU93
 418 0002 00F58044 		add	r4, r0, #16384
 140:../../../DaisySP//Source/Effects/pitchshifter.h ****     {
 419              		.loc 4 140 10 view .LVU94
 420 0006 0546     		mov	r5, r0
 144:../../../DaisySP//Source/Effects/pitchshifter.h ****         {
 421              		.loc 4 144 12 view .LVU95
 422 0008 04F53663 		add	r3, r4, #2912
 144:../../../DaisySP//Source/Effects/pitchshifter.h ****         {
 423              		.loc 4 144 9 view .LVU96
 424 000c D3ED007A 		vldr.32	s15, [r3]
 425 0010 F4EE407A 		vcmp.f32	s15, s0
 426 0014 F1EE10FA 		vmrs	APSR_nzcv, FPSCR
 427 0018 03D1     		bne	.L13
 144:../../../DaisySP//Source/Effects/pitchshifter.h ****         {
 428              		.loc 4 144 36 view .LVU97
 429 001a 94F8243B 		ldrb	r3, [r4, #2852]	@ zero_extendqisi2
 430 001e 002B     		cmp	r3, #0
ARM GAS  /var/folders/wz/z09yph4n0qj4t7mjxhl6ttn80000gn/T//ccNrSY5I.s 			page 24


 431 0020 62D0     		beq	.L12
 432              	.L13:
 146:../../../DaisySP//Source/Effects/pitchshifter.h ****             idx        = (uint8_t)fabsf(transpose);
 433              		.loc 4 146 13 is_stmt 1 view .LVU98
 147:../../../DaisySP//Source/Effects/pitchshifter.h ****             ratio      = semitone_ratios_[idx % 12];
 434              		.loc 4 147 40 is_stmt 0 view .LVU99
 435 0022 F0EEC07A 		vabs.f32	s15, s0
 146:../../../DaisySP//Source/Effects/pitchshifter.h ****             idx        = (uint8_t)fabsf(transpose);
 436              		.loc 4 146 24 view .LVU100
 437 0026 04F53663 		add	r3, r4, #2912
 149:../../../DaisySP//Source/Effects/pitchshifter.h ****             if(transpose > 0.0f)
 438              		.loc 4 149 49 view .LVU101
 439 002a B2EE086A 		vmov.f32	s12, #1.2e+1
 148:../../../DaisySP//Source/Effects/pitchshifter.h ****             ratio *= (uint8_t)(fabsf(transpose) / 12) + 1;
 440              		.loc 4 148 47 view .LVU102
 441 002e 0C22     		movs	r2, #12
 146:../../../DaisySP//Source/Effects/pitchshifter.h ****             idx        = (uint8_t)fabsf(transpose);
 442              		.loc 4 146 24 view .LVU103
 443 0030 83ED000A 		vstr.32	s0, [r3]
 147:../../../DaisySP//Source/Effects/pitchshifter.h ****             ratio      = semitone_ratios_[idx % 12];
 444              		.loc 4 147 13 is_stmt 1 view .LVU104
 445              	.LVL29:
 148:../../../DaisySP//Source/Effects/pitchshifter.h ****             ratio *= (uint8_t)(fabsf(transpose) / 12) + 1;
 446              		.loc 4 148 13 view .LVU105
 150:../../../DaisySP//Source/Effects/pitchshifter.h ****             {
 447              		.loc 4 150 13 is_stmt 0 view .LVU106
 448 0034 B5EEC00A 		vcmpe.f32	s0, #0
 147:../../../DaisySP//Source/Effects/pitchshifter.h ****             ratio      = semitone_ratios_[idx % 12];
 449              		.loc 4 147 24 view .LVU107
 450 0038 BCEEE77A 		vcvt.u32.f32	s14, s15
 158:../../../DaisySP//Source/Effects/pitchshifter.h ****             if(mod_freq_ < 0.0f)
 451              		.loc 4 158 23 view .LVU108
 452 003c 9FED2B0A 		vldr.32	s0, .L21
 453 0040 04F61C36 		addw	r6, r4, #2844
 163:../../../DaisySP//Source/Effects/pitchshifter.h ****             phs_[1].SetFreq(mod_freq_);
 454              		.loc 4 163 28 view .LVU109
 455 0044 05F59640 		add	r0, r5, #19200
 456              	.LVL30:
 150:../../../DaisySP//Source/Effects/pitchshifter.h ****             {
 457              		.loc 4 150 13 view .LVU110
 458 0048 F1EE10FA 		vmrs	APSR_nzcv, FPSCR
 147:../../../DaisySP//Source/Effects/pitchshifter.h ****             ratio      = semitone_ratios_[idx % 12];
 459              		.loc 4 147 24 view .LVU111
 460 004c 8DED017A 		vstr.32	s14, [sp, #4]	@ int
 149:../../../DaisySP//Source/Effects/pitchshifter.h ****             if(transpose > 0.0f)
 461              		.loc 4 149 49 view .LVU112
 462 0050 87EE867A 		vdiv.f32	s14, s15, s12
 148:../../../DaisySP//Source/Effects/pitchshifter.h ****             ratio *= (uint8_t)(fabsf(transpose) / 12) + 1;
 463              		.loc 4 148 47 view .LVU113
 464 0054 9DF80430 		ldrb	r3, [sp, #4]	@ zero_extendqisi2
 163:../../../DaisySP//Source/Effects/pitchshifter.h ****             phs_[1].SetFreq(mod_freq_);
 465              		.loc 4 163 28 view .LVU114
 466 0058 00F13000 		add	r0, r0, #48
 148:../../../DaisySP//Source/Effects/pitchshifter.h ****             ratio *= (uint8_t)(fabsf(transpose) / 12) + 1;
 467              		.loc 4 148 47 view .LVU115
 468 005c B3FBF2F1 		udiv	r1, r3, r2
 469 0060 02FB1133 		mls	r3, r2, r1, r3
ARM GAS  /var/folders/wz/z09yph4n0qj4t7mjxhl6ttn80000gn/T//ccNrSY5I.s 			page 25


 148:../../../DaisySP//Source/Effects/pitchshifter.h ****             ratio *= (uint8_t)(fabsf(transpose) / 12) + 1;
 470              		.loc 4 148 24 view .LVU116
 471 0064 41F2E222 		movw	r2, #4834
 472 0068 52FA83F3 		uxtab	r3, r2, r3
 473 006c 05EB8303 		add	r3, r5, r3, lsl #2
 149:../../../DaisySP//Source/Effects/pitchshifter.h ****             if(transpose > 0.0f)
 474              		.loc 4 149 22 view .LVU117
 475 0070 FCEEC77A 		vcvt.u32.f32	s15, s14
 476              	.LVL31:
 148:../../../DaisySP//Source/Effects/pitchshifter.h ****             ratio *= (uint8_t)(fabsf(transpose) / 12) + 1;
 477              		.loc 4 148 24 view .LVU118
 478 0074 D3ED006A 		vldr.32	s13, [r3]
 479              	.LVL32:
 149:../../../DaisySP//Source/Effects/pitchshifter.h ****             if(transpose > 0.0f)
 480              		.loc 4 149 13 is_stmt 1 view .LVU119
 150:../../../DaisySP//Source/Effects/pitchshifter.h ****             {
 481              		.loc 4 150 13 view .LVU120
 482 0078 CCBF     		ite	gt
 483 007a 0123     		movgt	r3, #1
 484 007c 0023     		movle	r3, #0
 158:../../../DaisySP//Source/Effects/pitchshifter.h ****             if(mod_freq_ < 0.0f)
 485              		.loc 4 158 33 is_stmt 0 view .LVU121
 486 007e BFEE007A 		vmov.f32	s14, #-1.0e+0
 150:../../../DaisySP//Source/Effects/pitchshifter.h ****             {
 487              		.loc 4 150 13 view .LVU122
 488 0082 84F82C3B 		strb	r3, [r4, #2860]
 158:../../../DaisySP//Source/Effects/pitchshifter.h ****             if(mod_freq_ < 0.0f)
 489              		.loc 4 158 13 is_stmt 1 view .LVU123
 149:../../../DaisySP//Source/Effects/pitchshifter.h ****             if(transpose > 0.0f)
 490              		.loc 4 149 22 is_stmt 0 view .LVU124
 491 0086 CDED017A 		vstr.32	s15, [sp, #4]	@ int
 492 008a 9DF80430 		ldrb	r3, [sp, #4]	@ zero_extendqisi2
 149:../../../DaisySP//Source/Effects/pitchshifter.h ****             if(transpose > 0.0f)
 493              		.loc 4 149 55 view .LVU125
 494 008e 0133     		adds	r3, r3, #1
 149:../../../DaisySP//Source/Effects/pitchshifter.h ****             if(transpose > 0.0f)
 495              		.loc 4 149 19 view .LVU126
 496 0090 07EE903A 		vmov	s15, r3	@ int
 158:../../../DaisySP//Source/Effects/pitchshifter.h ****             if(mod_freq_ < 0.0f)
 497              		.loc 4 158 43 view .LVU127
 498 0094 04F62833 		addw	r3, r4, #2856
 149:../../../DaisySP//Source/Effects/pitchshifter.h ****             if(transpose > 0.0f)
 499              		.loc 4 149 19 view .LVU128
 500 0098 F8EEE77A 		vcvt.f32.s32	s15, s15
 158:../../../DaisySP//Source/Effects/pitchshifter.h ****             if(mod_freq_ < 0.0f)
 501              		.loc 4 158 33 view .LVU129
 502 009c A6EEA77A 		vfma.f32	s14, s13, s15
 158:../../../DaisySP//Source/Effects/pitchshifter.h ****             if(mod_freq_ < 0.0f)
 503              		.loc 4 158 41 view .LVU130
 504 00a0 D3ED007A 		vldr.32	s15, [r3]
 158:../../../DaisySP//Source/Effects/pitchshifter.h ****             if(mod_freq_ < 0.0f)
 505              		.loc 4 158 48 view .LVU131
 506 00a4 D4F8203B 		ldr	r3, [r4, #2848]
 158:../../../DaisySP//Source/Effects/pitchshifter.h ****             if(mod_freq_ < 0.0f)
 507              		.loc 4 158 41 view .LVU132
 508 00a8 67EE277A 		vmul.f32	s15, s14, s15
 158:../../../DaisySP//Source/Effects/pitchshifter.h ****             if(mod_freq_ < 0.0f)
ARM GAS  /var/folders/wz/z09yph4n0qj4t7mjxhl6ttn80000gn/T//ccNrSY5I.s 			page 26


 509              		.loc 4 158 48 view .LVU133
 510 00ac 07EE103A 		vmov	s14, r3	@ int
 511 00b0 B8EE477A 		vcvt.f32.u32	s14, s14
 512 00b4 C7EE876A 		vdiv.f32	s13, s15, s14
 159:../../../DaisySP//Source/Effects/pitchshifter.h ****             {
 513              		.loc 4 159 13 is_stmt 1 view .LVU134
 158:../../../DaisySP//Source/Effects/pitchshifter.h ****             if(mod_freq_ < 0.0f)
 514              		.loc 4 158 23 is_stmt 0 view .LVU135
 515 00b8 F5EEC06A 		vcmpe.f32	s13, #0
 516 00bc F1EE10FA 		vmrs	APSR_nzcv, FPSCR
 517 00c0 58BF     		it	pl
 518 00c2 B0EE660A 		vmovpl.f32	s0, s13
 519 00c6 86ED000A 		vstr.32	s0, [r6]
 163:../../../DaisySP//Source/Effects/pitchshifter.h ****             phs_[1].SetFreq(mod_freq_);
 520              		.loc 4 163 13 is_stmt 1 view .LVU136
 163:../../../DaisySP//Source/Effects/pitchshifter.h ****             phs_[1].SetFreq(mod_freq_);
 521              		.loc 4 163 28 is_stmt 0 view .LVU137
 522 00ca FFF7FEFF 		bl	_ZN7daisysp6Phasor7SetFreqEf
 523              	.LVL33:
 164:../../../DaisySP//Source/Effects/pitchshifter.h ****             if(force_recalc_)
 524              		.loc 4 164 13 is_stmt 1 view .LVU138
 164:../../../DaisySP//Source/Effects/pitchshifter.h ****             if(force_recalc_)
 525              		.loc 4 164 28 is_stmt 0 view .LVU139
 526 00ce 05F59640 		add	r0, r5, #19200
 527 00d2 96ED000A 		vldr.32	s0, [r6]
 528 00d6 4030     		adds	r0, r0, #64
 529 00d8 FFF7FEFF 		bl	_ZN7daisysp6Phasor7SetFreqEf
 530              	.LVL34:
 165:../../../DaisySP//Source/Effects/pitchshifter.h ****             {
 531              		.loc 4 165 13 is_stmt 1 view .LVU140
 532 00dc 94F8243B 		ldrb	r3, [r4, #2852]	@ zero_extendqisi2
 533 00e0 13B1     		cbz	r3, .L12
 167:../../../DaisySP//Source/Effects/pitchshifter.h ****             }
 534              		.loc 4 167 17 view .LVU141
 167:../../../DaisySP//Source/Effects/pitchshifter.h ****             }
 535              		.loc 4 167 31 is_stmt 0 view .LVU142
 536 00e2 0023     		movs	r3, #0
 537 00e4 84F8243B 		strb	r3, [r4, #2852]
 538              	.L12:
 170:../../../DaisySP//Source/Effects/pitchshifter.h **** 
 539              		.loc 4 170 5 view .LVU143
 540 00e8 02B0     		add	sp, sp, #8
 541              		.cfi_def_cfa_offset 16
 542              		@ sp needed
 543 00ea 70BD     		pop	{r4, r5, r6, pc}
 544              	.LVL35:
 545              	.L22:
 170:../../../DaisySP//Source/Effects/pitchshifter.h **** 
 546              		.loc 4 170 5 view .LVU144
 547              		.align	2
 548              	.L21:
 549 00ec 00000000 		.word	0
 550              		.cfi_endproc
 551              	.LFE6349:
 553              		.section	.text._ZNSt17_Function_handlerIFviEZN10PitchShift4initEPN5daisy9DaisySeedEEUliE0_E9_M_inv
 554              		.align	1
 555              		.syntax unified
ARM GAS  /var/folders/wz/z09yph4n0qj4t7mjxhl6ttn80000gn/T//ccNrSY5I.s 			page 27


 556              		.thumb
 557              		.thumb_func
 559              	_ZNSt17_Function_handlerIFviEZN10PitchShift4initEPN5daisy9DaisySeedEEUliE0_E9_M_invokeERKSt9_Any_da
 560              	.LVL36:
 561              	.LFB6136:
 289:/Library/DaisyToolchain/0.2.0/arm/arm-none-eabi/include/c++/10.3.1/bits/std_function.h ****       {
 562              		.loc 1 289 7 is_stmt 1 view -0
 563              		.cfi_startproc
 564              		@ args = 0, pretend = 0, frame = 0
 565              		@ frame_needed = 0, uses_anonymous_args = 0
 566              		@ link register save eliminated.
  88:/Library/DaisyToolchain/0.2.0/arm/arm-none-eabi/include/c++/10.3.1/bits/std_function.h **** 
 567              		.loc 1 88 37 view .LVU146
  15:DSP/FX/PitchShift.cpp ****     rand.init(seed, 0, 1, LINEAR, ChannelIDs::AMP4, [this] (float r) { shifter.SetFun(r); });
 568              		.loc 3 15 78 view .LVU147
  15:DSP/FX/PitchShift.cpp ****     rand.init(seed, 0, 1, LINEAR, ChannelIDs::AMP4, [this] (float r) { shifter.SetFun(r); });
 569              		.loc 3 15 102 is_stmt 0 view .LVU148
 570 0000 91ED000A 		vldr.32	s0, [r1]	@ int
 571 0004 0068     		ldr	r0, [r0]
 572              	.LVL37:
  15:DSP/FX/PitchShift.cpp ****     rand.init(seed, 0, 1, LINEAR, ChannelIDs::AMP4, [this] (float r) { shifter.SetFun(r); });
 573              		.loc 3 15 102 view .LVU149
 574 0006 B8EEC00A 		vcvt.f32.s32	s0, s0
 575 000a 2030     		adds	r0, r0, #32
 576 000c FFF7FEBF 		b	_ZN7daisysp12PitchShifter16SetTranspositionERKf.isra.0
 577              	.LVL38:
  15:DSP/FX/PitchShift.cpp ****     rand.init(seed, 0, 1, LINEAR, ChannelIDs::AMP4, [this] (float r) { shifter.SetFun(r); });
 578              		.loc 3 15 102 view .LVU150
 579              		.cfi_endproc
 580              	.LFE6136:
 582              		.section	.text._ZN7daisysp6myrandEv,"axG",%progbits,_ZN7daisysp6myrandEv,comdat
 583              		.align	1
 584              		.weak	_ZN7daisysp6myrandEv
 585              		.syntax unified
 586              		.thumb
 587              		.thumb_func
 589              	_ZN7daisysp6myrandEv:
 590              	.LFB4440:
  33:../../../DaisySP//Source/Effects/pitchshifter.h ****     static uint32_t seed = 1;
 591              		.loc 4 33 1 is_stmt 1 view -0
 592              		.cfi_startproc
 593              		@ args = 0, pretend = 0, frame = 0
 594              		@ frame_needed = 0, uses_anonymous_args = 0
 595              		@ link register save eliminated.
  34:../../../DaisySP//Source/Effects/pitchshifter.h ****     seed                 = hash_xs32(seed);
 596              		.loc 4 34 5 view .LVU152
  35:../../../DaisySP//Source/Effects/pitchshifter.h ****     return seed;
 597              		.loc 4 35 5 view .LVU153
  35:../../../DaisySP//Source/Effects/pitchshifter.h ****     return seed;
 598              		.loc 4 35 37 is_stmt 0 view .LVU154
 599 0000 044B     		ldr	r3, .L25
 600 0002 1868     		ldr	r0, [r3]
 601              	.LVL39:
 602              	.LBB561:
 603              	.LBI561:
  24:../../../DaisySP//Source/Effects/pitchshifter.h **** {
 604              		.loc 4 24 24 is_stmt 1 view .LVU155
ARM GAS  /var/folders/wz/z09yph4n0qj4t7mjxhl6ttn80000gn/T//ccNrSY5I.s 			page 28


 605              	.LBB562:
  26:../../../DaisySP//Source/Effects/pitchshifter.h ****     x ^= x >> 17;
 606              		.loc 4 26 5 view .LVU156
  26:../../../DaisySP//Source/Effects/pitchshifter.h ****     x ^= x >> 17;
 607              		.loc 4 26 7 is_stmt 0 view .LVU157
 608 0004 80EA4030 		eor	r0, r0, r0, lsl #13
 609              	.LVL40:
  27:../../../DaisySP//Source/Effects/pitchshifter.h ****     x ^= x << 5;
 610              		.loc 4 27 5 is_stmt 1 view .LVU158
  27:../../../DaisySP//Source/Effects/pitchshifter.h ****     x ^= x << 5;
 611              		.loc 4 27 7 is_stmt 0 view .LVU159
 612 0008 80EA5040 		eor	r0, r0, r0, lsr #17
 613              	.LVL41:
  28:../../../DaisySP//Source/Effects/pitchshifter.h ****     return x;
 614              		.loc 4 28 5 is_stmt 1 view .LVU160
  28:../../../DaisySP//Source/Effects/pitchshifter.h ****     return x;
 615              		.loc 4 28 7 is_stmt 0 view .LVU161
 616 000c 80EA4010 		eor	r0, r0, r0, lsl #5
 617              	.LVL42:
  29:../../../DaisySP//Source/Effects/pitchshifter.h **** }
 618              		.loc 4 29 5 is_stmt 1 view .LVU162
  29:../../../DaisySP//Source/Effects/pitchshifter.h **** }
 619              		.loc 4 29 5 is_stmt 0 view .LVU163
 620              	.LBE562:
 621              	.LBE561:
  35:../../../DaisySP//Source/Effects/pitchshifter.h ****     return seed;
 622              		.loc 4 35 26 view .LVU164
 623 0010 1860     		str	r0, [r3]
  36:../../../DaisySP//Source/Effects/pitchshifter.h **** }
 624              		.loc 4 36 5 is_stmt 1 view .LVU165
  37:../../../DaisySP//Source/Effects/pitchshifter.h **** 
 625              		.loc 4 37 1 is_stmt 0 view .LVU166
 626 0012 7047     		bx	lr
 627              	.L26:
 628              		.align	2
 629              	.L25:
 630 0014 00000000 		.word	_ZZN7daisysp6myrandEvE4seed
 631              		.cfi_endproc
 632              	.LFE4440:
 634              		.section	.text._ZNSt14_Function_baseD2Ev,"axG",%progbits,_ZNSt14_Function_baseD5Ev,comdat
 635              		.align	1
 636              		.weak	_ZNSt14_Function_baseD2Ev
 637              		.syntax unified
 638              		.thumb
 639              		.thumb_func
 641              	_ZNSt14_Function_baseD2Ev:
 642              	.LVL43:
 643              	.LFB5051:
 242:/Library/DaisyToolchain/0.2.0/arm/arm-none-eabi/include/c++/10.3.1/bits/std_function.h ****     {
 644              		.loc 1 242 5 is_stmt 1 view -0
 645              		.cfi_startproc
 646              		@ args = 0, pretend = 0, frame = 0
 647              		@ frame_needed = 0, uses_anonymous_args = 0
 648              	.LBB563:
 244:/Library/DaisyToolchain/0.2.0/arm/arm-none-eabi/include/c++/10.3.1/bits/std_function.h **** 	_M_manager(_M_functor, _M_functor, __destroy_functor);
 649              		.loc 1 244 7 view .LVU168
 244:/Library/DaisyToolchain/0.2.0/arm/arm-none-eabi/include/c++/10.3.1/bits/std_function.h **** 	_M_manager(_M_functor, _M_functor, __destroy_functor);
ARM GAS  /var/folders/wz/z09yph4n0qj4t7mjxhl6ttn80000gn/T//ccNrSY5I.s 			page 29


 650              		.loc 1 244 11 is_stmt 0 view .LVU169
 651 0000 8368     		ldr	r3, [r0, #8]
 652              	.LBE563:
 242:/Library/DaisyToolchain/0.2.0/arm/arm-none-eabi/include/c++/10.3.1/bits/std_function.h ****     {
 653              		.loc 1 242 5 view .LVU170
 654 0002 10B5     		push	{r4, lr}
 655              		.cfi_def_cfa_offset 8
 656              		.cfi_offset 4, -8
 657              		.cfi_offset 14, -4
 242:/Library/DaisyToolchain/0.2.0/arm/arm-none-eabi/include/c++/10.3.1/bits/std_function.h ****     {
 658              		.loc 1 242 5 view .LVU171
 659 0004 0446     		mov	r4, r0
 660              	.LBB564:
 244:/Library/DaisyToolchain/0.2.0/arm/arm-none-eabi/include/c++/10.3.1/bits/std_function.h **** 	_M_manager(_M_functor, _M_functor, __destroy_functor);
 661              		.loc 1 244 7 view .LVU172
 662 0006 13B1     		cbz	r3, .L28
 245:/Library/DaisyToolchain/0.2.0/arm/arm-none-eabi/include/c++/10.3.1/bits/std_function.h ****     }
 663              		.loc 1 245 2 is_stmt 1 view .LVU173
 245:/Library/DaisyToolchain/0.2.0/arm/arm-none-eabi/include/c++/10.3.1/bits/std_function.h ****     }
 664              		.loc 1 245 12 is_stmt 0 view .LVU174
 665 0008 0322     		movs	r2, #3
 666 000a 0146     		mov	r1, r0
 667 000c 9847     		blx	r3
 668              	.LVL44:
 669              	.L28:
 245:/Library/DaisyToolchain/0.2.0/arm/arm-none-eabi/include/c++/10.3.1/bits/std_function.h ****     }
 670              		.loc 1 245 12 view .LVU175
 671              	.LBE564:
 246:/Library/DaisyToolchain/0.2.0/arm/arm-none-eabi/include/c++/10.3.1/bits/std_function.h **** 
 672              		.loc 1 246 5 view .LVU176
 673 000e 2046     		mov	r0, r4
 674 0010 10BD     		pop	{r4, pc}
 246:/Library/DaisyToolchain/0.2.0/arm/arm-none-eabi/include/c++/10.3.1/bits/std_function.h **** 
 675              		.loc 1 246 5 view .LVU177
 676              		.cfi_endproc
 677              	.LFE5051:
 679              		.weak	_ZNSt14_Function_baseD1Ev
 680              		.thumb_set _ZNSt14_Function_baseD1Ev,_ZNSt14_Function_baseD2Ev
 681              		.section	.text._ZN10PitchShift16setDefaultValuesEv,"ax",%progbits
 682              		.align	1
 683              		.global	_ZN10PitchShift16setDefaultValuesEv
 684              		.syntax unified
 685              		.thumb
 686              		.thumb_func
 688              	_ZN10PitchShift16setDefaultValuesEv:
 689              	.LVL45:
 690              	.LFB5667:
  17:DSP/FX/PitchShift.cpp **** 
  18:DSP/FX/PitchShift.cpp ****     setDefaultValues();
  19:DSP/FX/PitchShift.cpp **** }
  20:DSP/FX/PitchShift.cpp **** 
  21:DSP/FX/PitchShift.cpp **** void PitchShift::setDefaultValues()
  22:DSP/FX/PitchShift.cpp **** {
 691              		.loc 3 22 1 is_stmt 1 view -0
 692              		.cfi_startproc
 693              		@ args = 0, pretend = 0, frame = 8
 694              		@ frame_needed = 0, uses_anonymous_args = 0
ARM GAS  /var/folders/wz/z09yph4n0qj4t7mjxhl6ttn80000gn/T//ccNrSY5I.s 			page 30


  23:DSP/FX/PitchShift.cpp ****     bypass.value = pitchShifterDefs.bypass;
 695              		.loc 3 23 5 view .LVU179
  22:DSP/FX/PitchShift.cpp ****     bypass.value = pitchShifterDefs.bypass;
 696              		.loc 3 22 1 is_stmt 0 view .LVU180
 697 0000 73B5     		push	{r0, r1, r4, r5, r6, lr}
 698              		.cfi_def_cfa_offset 24
 699              		.cfi_offset 4, -16
 700              		.cfi_offset 5, -12
 701              		.cfi_offset 6, -8
 702              		.cfi_offset 14, -4
 703              		.loc 3 23 18 view .LVU181
 704 0002 00F58045 		add	r5, r0, #16384
 705 0006 0126     		movs	r6, #1
  24:DSP/FX/PitchShift.cpp ****     amount.value = pitchShifterDefs.amount;
 706              		.loc 3 24 18 view .LVU182
 707 0008 4FF07C52 		mov	r2, #1056964608
  22:DSP/FX/PitchShift.cpp ****     bypass.value = pitchShifterDefs.bypass;
 708              		.loc 3 22 1 view .LVU183
 709 000c 0446     		mov	r4, r0
 710              		.loc 3 24 18 view .LVU184
 711 000e 05F62843 		addw	r3, r5, #3112
  25:DSP/FX/PitchShift.cpp ****     shifter.SetTransposition(pitchShifterDefs.semitones);
 712              		.loc 3 25 29 view .LVU185
 713 0012 2030     		adds	r0, r0, #32
 714              	.LVL46:
  23:DSP/FX/PitchShift.cpp ****     amount.value = pitchShifterDefs.amount;
 715              		.loc 3 23 18 view .LVU186
 716 0014 85F8F86B 		strb	r6, [r5, #3064]
  24:DSP/FX/PitchShift.cpp ****     amount.value = pitchShifterDefs.amount;
 717              		.loc 3 24 5 is_stmt 1 view .LVU187
 718              		.loc 3 25 29 is_stmt 0 view .LVU188
 719 0018 B2EE080A 		vmov.f32	s0, #1.2e+1
  24:DSP/FX/PitchShift.cpp ****     amount.value = pitchShifterDefs.amount;
 720              		.loc 3 24 18 view .LVU189
 721 001c 1A60     		str	r2, [r3]	@ float
 722              		.loc 3 25 5 is_stmt 1 view .LVU190
 723              	.LBB569:
 724              	.LBB570:
 178:../../../DaisySP//Source/Effects/pitchshifter.h ****     }
 725              		.loc 4 178 25 is_stmt 0 view .LVU191
 726 001e 04F59744 		add	r4, r4, #19328
 727              	.LVL47:
 178:../../../DaisySP//Source/Effects/pitchshifter.h ****     }
 728              		.loc 4 178 25 view .LVU192
 729              	.LBE570:
 730              	.LBE569:
 731              		.loc 3 25 29 view .LVU193
 732 0022 0190     		str	r0, [sp, #4]
 733 0024 FFF7FEFF 		bl	_ZN7daisysp12PitchShifter16SetTranspositionERKf.isra.0
 734              	.LVL48:
  26:DSP/FX/PitchShift.cpp ****     shifter.SetFun(pitchShifterDefs.rand);
 735              		.loc 3 26 5 is_stmt 1 view .LVU194
 736              	.LBB574:
 737              	.LBI574:
 738              		.loc 4 183 17 view .LVU195
 739              	.LBB575:
 740              		.loc 4 183 35 view .LVU196
ARM GAS  /var/folders/wz/z09yph4n0qj4t7mjxhl6ttn80000gn/T//ccNrSY5I.s 			page 31


 741              		.loc 4 183 40 is_stmt 0 view .LVU197
 742 0028 05F68433 		addw	r3, r5, #2948
 743 002c 0022     		movs	r2, #0
 744              	.LBE575:
 745              	.LBE574:
 746              	.LBB577:
 747              	.LBB571:
 178:../../../DaisySP//Source/Effects/pitchshifter.h ****     }
 748              		.loc 4 178 25 view .LVU198
 749 002e 0198     		ldr	r0, [sp, #4]
 750              	.LBE571:
 751              	.LBE577:
 752              	.LBB578:
 753              	.LBB576:
 754              		.loc 4 183 40 view .LVU199
 755 0030 1A60     		str	r2, [r3]	@ float
 756              	.LVL49:
 757              		.loc 4 183 40 view .LVU200
 758              	.LBE576:
 759              	.LBE578:
  27:DSP/FX/PitchShift.cpp **** 
  28:DSP/FX/PitchShift.cpp ****     shifter.SetDelSize(2400);
 760              		.loc 3 28 5 is_stmt 1 view .LVU201
 761              	.LBB579:
 762              	.LBI569:
 174:../../../DaisySP//Source/Effects/pitchshifter.h ****     {
 763              		.loc 4 174 10 view .LVU202
 764              	.LBB572:
 176:../../../DaisySP//Source/Effects/pitchshifter.h ****         force_recalc_ = true;
 765              		.loc 4 176 9 view .LVU203
 176:../../../DaisySP//Source/Effects/pitchshifter.h ****         force_recalc_ = true;
 766              		.loc 4 176 23 is_stmt 0 view .LVU204
 767 0032 4FF41663 		mov	r3, #2400
 178:../../../DaisySP//Source/Effects/pitchshifter.h ****     }
 768              		.loc 4 178 25 view .LVU205
 769 0036 94ED000A 		vldr.32	s0, [r4]
 176:../../../DaisySP//Source/Effects/pitchshifter.h ****         force_recalc_ = true;
 770              		.loc 4 176 23 view .LVU206
 771 003a C5F8403B 		str	r3, [r5, #2880]
 177:../../../DaisySP//Source/Effects/pitchshifter.h ****         SetTransposition(transpose_);
 772              		.loc 4 177 9 is_stmt 1 view .LVU207
 177:../../../DaisySP//Source/Effects/pitchshifter.h ****         SetTransposition(transpose_);
 773              		.loc 4 177 23 is_stmt 0 view .LVU208
 774 003e 85F8446B 		strb	r6, [r5, #2884]
 178:../../../DaisySP//Source/Effects/pitchshifter.h ****     }
 775              		.loc 4 178 9 is_stmt 1 view .LVU209
 776              	.LBE572:
 777              	.LBE579:
  29:DSP/FX/PitchShift.cpp **** }
 778              		.loc 3 29 1 is_stmt 0 view .LVU210
 779 0042 02B0     		add	sp, sp, #8
 780              		.cfi_def_cfa_offset 16
 781              		@ sp needed
 782 0044 BDE87040 		pop	{r4, r5, r6, lr}
 783              		.cfi_restore 14
 784              		.cfi_restore 6
 785              		.cfi_restore 5
ARM GAS  /var/folders/wz/z09yph4n0qj4t7mjxhl6ttn80000gn/T//ccNrSY5I.s 			page 32


 786              		.cfi_restore 4
 787              		.cfi_def_cfa_offset 0
 788              	.LVL50:
 789              	.LBB580:
 790              	.LBB573:
 178:../../../DaisySP//Source/Effects/pitchshifter.h ****     }
 791              		.loc 4 178 25 view .LVU211
 792 0048 FFF7FEBF 		b	_ZN7daisysp12PitchShifter16SetTranspositionERKf.isra.0
 793              	.LVL51:
 178:../../../DaisySP//Source/Effects/pitchshifter.h ****     }
 794              		.loc 4 178 25 view .LVU212
 795              	.LBE573:
 796              	.LBE580:
 797              		.cfi_endproc
 798              	.LFE5667:
 800              		.section	.text._ZN7daisysp9DelayLineIfLj2400EE8SetDelayEf,"axG",%progbits,_ZN7daisysp9DelayLineIfL
 801              		.align	1
 802              		.weak	_ZN7daisysp9DelayLineIfLj2400EE8SetDelayEf
 803              		.syntax unified
 804              		.thumb
 805              		.thumb_func
 807              	_ZN7daisysp9DelayLineIfLj2400EE8SetDelayEf:
 808              	.LVL52:
 809              	.LFB5941:
 810              		.file 6 "../../../DaisySP//Source/Utility/delayline.h"
   1:../../../DaisySP//Source/Utility/delayline.h **** #pragma once
   2:../../../DaisySP//Source/Utility/delayline.h **** #ifndef DSY_DELAY_H
   3:../../../DaisySP//Source/Utility/delayline.h **** #define DSY_DELAY_H
   4:../../../DaisySP//Source/Utility/delayline.h **** #include <stdlib.h>
   5:../../../DaisySP//Source/Utility/delayline.h **** #include <stdint.h>
   6:../../../DaisySP//Source/Utility/delayline.h **** namespace daisysp
   7:../../../DaisySP//Source/Utility/delayline.h **** {
   8:../../../DaisySP//Source/Utility/delayline.h **** /** Simple Delay line.
   9:../../../DaisySP//Source/Utility/delayline.h **** November 2019
  10:../../../DaisySP//Source/Utility/delayline.h **** 
  11:../../../DaisySP//Source/Utility/delayline.h **** Converted to Template December 2019
  12:../../../DaisySP//Source/Utility/delayline.h **** 
  13:../../../DaisySP//Source/Utility/delayline.h **** declaration example: (1 second of floats)
  14:../../../DaisySP//Source/Utility/delayline.h **** 
  15:../../../DaisySP//Source/Utility/delayline.h **** DelayLine<float, SAMPLE_RATE> del;
  16:../../../DaisySP//Source/Utility/delayline.h **** 
  17:../../../DaisySP//Source/Utility/delayline.h **** By: shensley
  18:../../../DaisySP//Source/Utility/delayline.h **** */
  19:../../../DaisySP//Source/Utility/delayline.h **** template <typename T, size_t max_size>
  20:../../../DaisySP//Source/Utility/delayline.h **** class DelayLine
  21:../../../DaisySP//Source/Utility/delayline.h **** {
  22:../../../DaisySP//Source/Utility/delayline.h ****   public:
  23:../../../DaisySP//Source/Utility/delayline.h ****     DelayLine() {}
  24:../../../DaisySP//Source/Utility/delayline.h ****     ~DelayLine() {}
  25:../../../DaisySP//Source/Utility/delayline.h ****     /** initializes the delay line by clearing the values within, and setting delay to 1 sample.
  26:../../../DaisySP//Source/Utility/delayline.h ****     */
  27:../../../DaisySP//Source/Utility/delayline.h ****     void Init() { Reset(); }
  28:../../../DaisySP//Source/Utility/delayline.h ****     /** clears buffer, sets write ptr to 0, and delay to 1 sample.
  29:../../../DaisySP//Source/Utility/delayline.h ****     */
  30:../../../DaisySP//Source/Utility/delayline.h ****     void Reset()
  31:../../../DaisySP//Source/Utility/delayline.h ****     {
  32:../../../DaisySP//Source/Utility/delayline.h ****         for(size_t i = 0; i < max_size; i++)
ARM GAS  /var/folders/wz/z09yph4n0qj4t7mjxhl6ttn80000gn/T//ccNrSY5I.s 			page 33


  33:../../../DaisySP//Source/Utility/delayline.h ****         {
  34:../../../DaisySP//Source/Utility/delayline.h ****             line_[i] = T(0);
  35:../../../DaisySP//Source/Utility/delayline.h ****         }
  36:../../../DaisySP//Source/Utility/delayline.h ****         write_ptr_ = 0;
  37:../../../DaisySP//Source/Utility/delayline.h ****         delay_     = 1;
  38:../../../DaisySP//Source/Utility/delayline.h ****     }
  39:../../../DaisySP//Source/Utility/delayline.h **** 
  40:../../../DaisySP//Source/Utility/delayline.h ****     /** sets the delay time in samples
  41:../../../DaisySP//Source/Utility/delayline.h ****         If a float is passed in, a fractional component will be calculated for interpolating the de
  42:../../../DaisySP//Source/Utility/delayline.h ****     */
  43:../../../DaisySP//Source/Utility/delayline.h ****     inline void SetDelay(size_t delay)
  44:../../../DaisySP//Source/Utility/delayline.h ****     {
  45:../../../DaisySP//Source/Utility/delayline.h ****         frac_  = 0.0f;
  46:../../../DaisySP//Source/Utility/delayline.h ****         delay_ = delay < max_size ? delay : max_size - 1;
  47:../../../DaisySP//Source/Utility/delayline.h ****     }
  48:../../../DaisySP//Source/Utility/delayline.h **** 
  49:../../../DaisySP//Source/Utility/delayline.h ****     /** sets the delay time in samples
  50:../../../DaisySP//Source/Utility/delayline.h ****         If a float is passed in, a fractional component will be calculated for interpolating the de
  51:../../../DaisySP//Source/Utility/delayline.h ****     */
  52:../../../DaisySP//Source/Utility/delayline.h ****     inline void SetDelay(float delay)
 811              		.loc 6 52 17 is_stmt 1 view -0
 812              		.cfi_startproc
 813              		@ args = 0, pretend = 0, frame = 0
 814              		@ frame_needed = 0, uses_anonymous_args = 0
 815              		@ link register save eliminated.
  53:../../../DaisySP//Source/Utility/delayline.h ****     {
  54:../../../DaisySP//Source/Utility/delayline.h ****         int32_t int_delay = static_cast<int32_t>(delay);
 816              		.loc 6 54 17 is_stmt 0 view .LVU214
 817 0000 FDEEC07A 		vcvt.s32.f32	s15, s0
 818              	.LVL53:
  55:../../../DaisySP//Source/Utility/delayline.h ****         frac_             = delay - static_cast<float>(int_delay);
  56:../../../DaisySP//Source/Utility/delayline.h ****         delay_ = static_cast<size_t>(int_delay) < max_size ? int_delay
 819              		.loc 6 56 16 view .LVU215
 820 0004 40F65F13 		movw	r3, #2399
  55:../../../DaisySP//Source/Utility/delayline.h ****         frac_             = delay - static_cast<float>(int_delay);
 821              		.loc 6 55 37 view .LVU216
 822 0008 B8EEE77A 		vcvt.f32.s32	s14, s15
 823              		.loc 6 56 16 view .LVU217
 824 000c 17EE902A 		vmov	r2, s15	@ int
 825 0010 9A42     		cmp	r2, r3
 826 0012 94BF     		ite	ls
 827 0014 8260     		strls	r2, [r0, #8]
 828 0016 8360     		strhi	r3, [r0, #8]
  55:../../../DaisySP//Source/Utility/delayline.h ****         frac_             = delay - static_cast<float>(int_delay);
 829              		.loc 6 55 35 view .LVU218
 830 0018 30EE470A 		vsub.f32	s0, s0, s14
 831              	.LVL54:
  55:../../../DaisySP//Source/Utility/delayline.h ****         frac_             = delay - static_cast<float>(int_delay);
 832              		.loc 6 55 27 view .LVU219
 833 001c 80ED000A 		vstr.32	s0, [r0]
  57:../../../DaisySP//Source/Utility/delayline.h ****                                                            : max_size - 1;
  58:../../../DaisySP//Source/Utility/delayline.h ****     }
 834              		.loc 6 58 5 view .LVU220
 835 0020 7047     		bx	lr
 836              		.cfi_endproc
 837              	.LFE5941:
 839              		.section	.text._ZNK7daisysp9DelayLineIfLj2400EE4ReadEv,"axG",%progbits,_ZNK7daisysp9DelayLineIfLj2
ARM GAS  /var/folders/wz/z09yph4n0qj4t7mjxhl6ttn80000gn/T//ccNrSY5I.s 			page 34


 840              		.align	1
 841              		.weak	_ZNK7daisysp9DelayLineIfLj2400EE4ReadEv
 842              		.syntax unified
 843              		.thumb
 844              		.thumb_func
 846              	_ZNK7daisysp9DelayLineIfLj2400EE4ReadEv:
 847              	.LVL55:
 848              	.LFB5942:
  59:../../../DaisySP//Source/Utility/delayline.h **** 
  60:../../../DaisySP//Source/Utility/delayline.h ****     /** writes the sample of type T to the delay line, and advances the write ptr
  61:../../../DaisySP//Source/Utility/delayline.h ****     */
  62:../../../DaisySP//Source/Utility/delayline.h ****     inline void Write(const T sample)
  63:../../../DaisySP//Source/Utility/delayline.h ****     {
  64:../../../DaisySP//Source/Utility/delayline.h ****         line_[write_ptr_] = sample;
  65:../../../DaisySP//Source/Utility/delayline.h ****         write_ptr_        = (write_ptr_ - 1 + max_size) % max_size;
  66:../../../DaisySP//Source/Utility/delayline.h ****     }
  67:../../../DaisySP//Source/Utility/delayline.h **** 
  68:../../../DaisySP//Source/Utility/delayline.h ****     /** returns the next sample of type T in the delay line, interpolated if necessary.
  69:../../../DaisySP//Source/Utility/delayline.h ****     */
  70:../../../DaisySP//Source/Utility/delayline.h ****     inline const T Read() const
 849              		.loc 6 70 20 is_stmt 1 view -0
 850              		.cfi_startproc
 851              		@ args = 0, pretend = 0, frame = 0
 852              		@ frame_needed = 0, uses_anonymous_args = 0
 853              		@ link register save eliminated.
  71:../../../DaisySP//Source/Utility/delayline.h ****     {
  72:../../../DaisySP//Source/Utility/delayline.h ****         T a = line_[(write_ptr_ + delay_) % max_size];
 854              		.loc 6 72 33 is_stmt 0 view .LVU222
 855 0000 D0E90132 		ldrd	r3, r2, [r0, #4]
 856              		.loc 6 72 43 view .LVU223
 857 0004 4FF41661 		mov	r1, #2400
  73:../../../DaisySP//Source/Utility/delayline.h ****         T b = line_[(write_ptr_ + delay_ + 1) % max_size];
  74:../../../DaisySP//Source/Utility/delayline.h ****         return a + (b - a) * frac_;
 858              		.loc 6 74 30 view .LVU224
 859 0008 90ED007A 		vldr.32	s14, [r0]
  72:../../../DaisySP//Source/Utility/delayline.h ****         T b = line_[(write_ptr_ + delay_ + 1) % max_size];
 860              		.loc 6 72 33 view .LVU225
 861 000c 1344     		add	r3, r3, r2
  72:../../../DaisySP//Source/Utility/delayline.h ****         T b = line_[(write_ptr_ + delay_ + 1) % max_size];
 862              		.loc 6 72 43 view .LVU226
 863 000e B3FBF1F2 		udiv	r2, r3, r1
 864 0012 01FB1232 		mls	r2, r1, r2, r3
  73:../../../DaisySP//Source/Utility/delayline.h ****         T b = line_[(write_ptr_ + delay_ + 1) % max_size];
 865              		.loc 6 73 42 view .LVU227
 866 0016 0133     		adds	r3, r3, #1
  72:../../../DaisySP//Source/Utility/delayline.h ****         T b = line_[(write_ptr_ + delay_ + 1) % max_size];
 867              		.loc 6 72 11 view .LVU228
 868 0018 00EB8202 		add	r2, r0, r2, lsl #2
 869 001c 92ED030A 		vldr.32	s0, [r2, #12]
 870              	.LVL56:
  73:../../../DaisySP//Source/Utility/delayline.h ****         T b = line_[(write_ptr_ + delay_ + 1) % max_size];
 871              		.loc 6 73 47 view .LVU229
 872 0020 B3FBF1F2 		udiv	r2, r3, r1
 873 0024 01FB1233 		mls	r3, r1, r2, r3
  73:../../../DaisySP//Source/Utility/delayline.h ****         T b = line_[(write_ptr_ + delay_ + 1) % max_size];
 874              		.loc 6 73 11 view .LVU230
 875 0028 00EB8303 		add	r3, r0, r3, lsl #2
ARM GAS  /var/folders/wz/z09yph4n0qj4t7mjxhl6ttn80000gn/T//ccNrSY5I.s 			page 35


 876              		.loc 6 74 23 view .LVU231
 877 002c D3ED037A 		vldr.32	s15, [r3, #12]
 878 0030 77EEC07A 		vsub.f32	s15, s15, s0
  75:../../../DaisySP//Source/Utility/delayline.h ****     }
 879              		.loc 6 75 5 view .LVU232
 880 0034 A7EE870A 		vfma.f32	s0, s15, s14
 881              	.LVL57:
 882              		.loc 6 75 5 view .LVU233
 883 0038 7047     		bx	lr
 884              		.cfi_endproc
 885              	.LFE5942:
 887              		.section	.text._ZN7daisysp12PitchShifter7ProcessERf,"axG",%progbits,_ZN7daisysp12PitchShifter7Proc
 888              		.align	1
 889              		.weak	_ZN7daisysp12PitchShifter7ProcessERf
 890              		.syntax unified
 891              		.thumb
 892              		.thumb_func
 894              	_ZN7daisysp12PitchShifter7ProcessERf:
 895              	.LVL58:
 896              	.LFB4448:
  84:../../../DaisySP//Source/Effects/pitchshifter.h ****     {
 897              		.loc 4 84 11 is_stmt 1 view -0
 898              		.cfi_startproc
 899              		@ args = 0, pretend = 0, frame = 0
 900              		@ frame_needed = 0, uses_anonymous_args = 0
  86:../../../DaisySP//Source/Effects/pitchshifter.h ****         // First Process delay mod/crossfade
 901              		.loc 4 86 9 view .LVU235
  88:../../../DaisySP//Source/Effects/pitchshifter.h ****         fade2 = phs_[1].Process();
 902              		.loc 4 88 9 view .LVU236
  84:../../../DaisySP//Source/Effects/pitchshifter.h ****     {
 903              		.loc 4 84 11 is_stmt 0 view .LVU237
 904 0000 2DE9F047 		push	{r4, r5, r6, r7, r8, r9, r10, lr}
 905              		.cfi_def_cfa_offset 32
 906              		.cfi_offset 4, -32
 907              		.cfi_offset 5, -28
 908              		.cfi_offset 6, -24
 909              		.cfi_offset 7, -20
 910              		.cfi_offset 8, -16
 911              		.cfi_offset 9, -12
 912              		.cfi_offset 10, -8
 913              		.cfi_offset 14, -4
 914 0004 0546     		mov	r5, r0
  88:../../../DaisySP//Source/Effects/pitchshifter.h ****         fade2 = phs_[1].Process();
 915              		.loc 4 88 32 view .LVU238
 916 0006 00F59640 		add	r0, r0, #19200
 917              	.LVL59:
  84:../../../DaisySP//Source/Effects/pitchshifter.h ****     {
 918              		.loc 4 84 11 view .LVU239
 919 000a 0E46     		mov	r6, r1
  88:../../../DaisySP//Source/Effects/pitchshifter.h ****         fade2 = phs_[1].Process();
 920              		.loc 4 88 32 view .LVU240
 921 000c 3030     		adds	r0, r0, #48
  90:../../../DaisySP//Source/Effects/pitchshifter.h ****         {
 922              		.loc 4 90 12 view .LVU241
 923 000e 05F58044 		add	r4, r5, #16384
 924 0012 05F59747 		add	r7, r5, #19328
  84:../../../DaisySP//Source/Effects/pitchshifter.h ****     {
ARM GAS  /var/folders/wz/z09yph4n0qj4t7mjxhl6ttn80000gn/T//ccNrSY5I.s 			page 36


 925              		.loc 4 84 11 view .LVU242
 926 0016 2DED068B 		vpush.64	{d8, d9, d10}
 927              		.cfi_def_cfa_offset 56
 928              		.cfi_offset 80, -56
 929              		.cfi_offset 81, -52
 930              		.cfi_offset 82, -48
 931              		.cfi_offset 83, -44
 932              		.cfi_offset 84, -40
 933              		.cfi_offset 85, -36
  88:../../../DaisySP//Source/Effects/pitchshifter.h ****         fade2 = phs_[1].Process();
 934              		.loc 4 88 32 view .LVU243
 935 001a FFF7FEFF 		bl	_ZN7daisysp6Phasor7ProcessEv
 936              	.LVL60:
  89:../../../DaisySP//Source/Effects/pitchshifter.h ****         if(prev_phs_a_ > fade1)
 937              		.loc 4 89 32 view .LVU244
 938 001e 05F59640 		add	r0, r5, #19200
  88:../../../DaisySP//Source/Effects/pitchshifter.h ****         fade2 = phs_[1].Process();
 939              		.loc 4 88 32 view .LVU245
 940 0022 F0EE408A 		vmov.f32	s17, s0
 941              	.LVL61:
  89:../../../DaisySP//Source/Effects/pitchshifter.h ****         if(prev_phs_a_ > fade1)
 942              		.loc 4 89 9 is_stmt 1 view .LVU246
  89:../../../DaisySP//Source/Effects/pitchshifter.h ****         if(prev_phs_a_ > fade1)
 943              		.loc 4 89 32 is_stmt 0 view .LVU247
 944 0026 4030     		adds	r0, r0, #64
 945 0028 FFF7FEFF 		bl	_ZN7daisysp6Phasor7ProcessEv
 946              	.LVL62:
  90:../../../DaisySP//Source/Effects/pitchshifter.h ****         {
 947              		.loc 4 90 12 view .LVU248
 948 002c 04F53763 		add	r3, r4, #2928
  89:../../../DaisySP//Source/Effects/pitchshifter.h ****         if(prev_phs_a_ > fade1)
 949              		.loc 4 89 32 view .LVU249
 950 0030 B0EE408A 		vmov.f32	s16, s0
 951              	.LVL63:
  90:../../../DaisySP//Source/Effects/pitchshifter.h ****         {
 952              		.loc 4 90 9 is_stmt 1 view .LVU250
 953 0034 D3ED007A 		vldr.32	s15, [r3]
 954 0038 F4EEE87A 		vcmpe.f32	s15, s17
 955 003c F1EE10FA 		vmrs	APSR_nzcv, FPSCR
 956 0040 38DD     		ble	.L36
  92:../../../DaisySP//Source/Effects/pitchshifter.h ****                          * (del_size_ * 0.5f);
 957              		.loc 4 92 13 view .LVU251
  92:../../../DaisySP//Source/Effects/pitchshifter.h ****                          * (del_size_ * 0.5f);
 958              		.loc 4 92 26 is_stmt 0 view .LVU252
 959 0042 04F66433 		addw	r3, r4, #2916
  92:../../../DaisySP//Source/Effects/pitchshifter.h ****                          * (del_size_ * 0.5f);
 960              		.loc 4 92 51 view .LVU253
 961 0046 4FF0FF08 		mov	r8, #255
  92:../../../DaisySP//Source/Effects/pitchshifter.h ****                          * (del_size_ * 0.5f);
 962              		.loc 4 92 58 view .LVU254
 963 004a 9FED999A 		vldr.32	s18, .L46
  92:../../../DaisySP//Source/Effects/pitchshifter.h ****                          * (del_size_ * 0.5f);
 964              		.loc 4 92 26 view .LVU255
 965 004e D3ED009A 		vldr.32	s19, [r3]
  92:../../../DaisySP//Source/Effects/pitchshifter.h ****                          * (del_size_ * 0.5f);
 966              		.loc 4 92 48 view .LVU256
 967 0052 FFF7FEFF 		bl	_ZN7daisysp6myrandEv
ARM GAS  /var/folders/wz/z09yph4n0qj4t7mjxhl6ttn80000gn/T//ccNrSY5I.s 			page 37


 968              	.LVL64:
  92:../../../DaisySP//Source/Effects/pitchshifter.h ****                          * (del_size_ * 0.5f);
 969              		.loc 4 92 24 view .LVU257
 970 0056 04F66832 		addw	r2, r4, #2920
  92:../../../DaisySP//Source/Effects/pitchshifter.h ****                          * (del_size_ * 0.5f);
 971              		.loc 4 92 51 view .LVU258
 972 005a B0FBF8F3 		udiv	r3, r0, r8
 973 005e C3EB0323 		rsb	r3, r3, r3, lsl #8
 974 0062 C01A     		subs	r0, r0, r3
  93:../../../DaisySP//Source/Effects/pitchshifter.h ****             mod_coeff_[0]
 975              		.loc 4 93 39 view .LVU259
 976 0064 D4F8203B 		ldr	r3, [r4, #2848]
  92:../../../DaisySP//Source/Effects/pitchshifter.h ****                          * (del_size_ * 0.5f);
 977              		.loc 4 92 34 view .LVU260
 978 0068 07EE900A 		vmov	s15, r0	@ int
 979 006c F8EEE77A 		vcvt.f32.s32	s15, s15
  92:../../../DaisySP//Source/Effects/pitchshifter.h ****                          * (del_size_ * 0.5f);
 980              		.loc 4 92 58 view .LVU261
 981 0070 87EE897A 		vdiv.f32	s14, s15, s18
  92:../../../DaisySP//Source/Effects/pitchshifter.h ****                          * (del_size_ * 0.5f);
 982              		.loc 4 92 31 view .LVU262
 983 0074 67EE297A 		vmul.f32	s15, s14, s19
  93:../../../DaisySP//Source/Effects/pitchshifter.h ****             mod_coeff_[0]
 984              		.loc 4 93 39 view .LVU263
 985 0078 07EE103A 		vmov	s14, r3	@ int
 986 007c BBEEEF7A 		vcvt.f32.u32	s14, s14, #1
  93:../../../DaisySP//Source/Effects/pitchshifter.h ****             mod_coeff_[0]
 987              		.loc 4 93 26 view .LVU264
 988 0080 67EE877A 		vmul.f32	s15, s15, s14
  92:../../../DaisySP//Source/Effects/pitchshifter.h ****                          * (del_size_ * 0.5f);
 989              		.loc 4 92 24 view .LVU265
 990 0084 C2ED007A 		vstr.32	s15, [r2]
  94:../../../DaisySP//Source/Effects/pitchshifter.h ****                 = 0.0002f + (((float)(myrand() % 255) / 255.0f) * 0.001f);
 991              		.loc 4 94 13 is_stmt 1 view .LVU266
  95:../../../DaisySP//Source/Effects/pitchshifter.h ****         }
 992              		.loc 4 95 45 is_stmt 0 view .LVU267
 993 0088 FFF7FEFF 		bl	_ZN7daisysp6myrandEv
 994              	.LVL65:
  95:../../../DaisySP//Source/Effects/pitchshifter.h ****         }
 995              		.loc 4 95 27 view .LVU268
 996 008c 9FED897A 		vldr.32	s14, .L46+4
  95:../../../DaisySP//Source/Effects/pitchshifter.h ****         }
 997              		.loc 4 95 48 view .LVU269
 998 0090 B0FBF8F8 		udiv	r8, r0, r8
 999 0094 C8EB0828 		rsb	r8, r8, r8, lsl #8
 1000 0098 A0EB0800 		sub	r0, r0, r8
  95:../../../DaisySP//Source/Effects/pitchshifter.h ****         }
 1001              		.loc 4 95 31 view .LVU270
 1002 009c 07EE900A 		vmov	s15, r0	@ int
 1003 00a0 F8EEE77A 		vcvt.f32.s32	s15, s15
  95:../../../DaisySP//Source/Effects/pitchshifter.h ****         }
 1004              		.loc 4 95 55 view .LVU271
 1005 00a4 C7EE896A 		vdiv.f32	s13, s15, s18
  95:../../../DaisySP//Source/Effects/pitchshifter.h ****         }
 1006              		.loc 4 95 27 view .LVU272
 1007 00a8 DFED837A 		vldr.32	s15, .L46+8
 1008 00ac E6EE877A 		vfma.f32	s15, s13, s14
ARM GAS  /var/folders/wz/z09yph4n0qj4t7mjxhl6ttn80000gn/T//ccNrSY5I.s 			page 38


  95:../../../DaisySP//Source/Effects/pitchshifter.h ****         }
 1009              		.loc 4 95 17 view .LVU273
 1010 00b0 C7ED007A 		vstr.32	s15, [r7]
 1011              	.L36:
  97:../../../DaisySP//Source/Effects/pitchshifter.h ****         {
 1012              		.loc 4 97 9 is_stmt 1 view .LVU274
  97:../../../DaisySP//Source/Effects/pitchshifter.h ****         {
 1013              		.loc 4 97 12 is_stmt 0 view .LVU275
 1014 00b4 04F67433 		addw	r3, r4, #2932
  97:../../../DaisySP//Source/Effects/pitchshifter.h ****         {
 1015              		.loc 4 97 9 view .LVU276
 1016 00b8 D3ED007A 		vldr.32	s15, [r3]
 1017 00bc F4EEC87A 		vcmpe.f32	s15, s16
 1018 00c0 F1EE10FA 		vmrs	APSR_nzcv, FPSCR
 1019 00c4 3ADD     		ble	.L38
  99:../../../DaisySP//Source/Effects/pitchshifter.h ****                          * (del_size_ * 0.5f);
 1020              		.loc 4 99 13 is_stmt 1 view .LVU277
  99:../../../DaisySP//Source/Effects/pitchshifter.h ****                          * (del_size_ * 0.5f);
 1021              		.loc 4 99 26 is_stmt 0 view .LVU278
 1022 00c6 04F66433 		addw	r3, r4, #2916
  99:../../../DaisySP//Source/Effects/pitchshifter.h ****                          * (del_size_ * 0.5f);
 1023              		.loc 4 99 51 view .LVU279
 1024 00ca 4FF0FF08 		mov	r8, #255
  99:../../../DaisySP//Source/Effects/pitchshifter.h ****                          * (del_size_ * 0.5f);
 1025              		.loc 4 99 58 view .LVU280
 1026 00ce 9FED789A 		vldr.32	s18, .L46
  99:../../../DaisySP//Source/Effects/pitchshifter.h ****                          * (del_size_ * 0.5f);
 1027              		.loc 4 99 26 view .LVU281
 1028 00d2 D3ED009A 		vldr.32	s19, [r3]
  99:../../../DaisySP//Source/Effects/pitchshifter.h ****                          * (del_size_ * 0.5f);
 1029              		.loc 4 99 48 view .LVU282
 1030 00d6 FFF7FEFF 		bl	_ZN7daisysp6myrandEv
 1031              	.LVL66:
  99:../../../DaisySP//Source/Effects/pitchshifter.h ****                          * (del_size_ * 0.5f);
 1032              		.loc 4 99 24 view .LVU283
 1033 00da 04F66C32 		addw	r2, r4, #2924
  99:../../../DaisySP//Source/Effects/pitchshifter.h ****                          * (del_size_ * 0.5f);
 1034              		.loc 4 99 51 view .LVU284
 1035 00de B0FBF8F3 		udiv	r3, r0, r8
 1036 00e2 C3EB0323 		rsb	r3, r3, r3, lsl #8
 1037 00e6 C01A     		subs	r0, r0, r3
 100:../../../DaisySP//Source/Effects/pitchshifter.h ****             mod_coeff_[1]
 1038              		.loc 4 100 39 view .LVU285
 1039 00e8 D4F8203B 		ldr	r3, [r4, #2848]
  99:../../../DaisySP//Source/Effects/pitchshifter.h ****                          * (del_size_ * 0.5f);
 1040              		.loc 4 99 34 view .LVU286
 1041 00ec 07EE900A 		vmov	s15, r0	@ int
 1042 00f0 F8EEE77A 		vcvt.f32.s32	s15, s15
  99:../../../DaisySP//Source/Effects/pitchshifter.h ****                          * (del_size_ * 0.5f);
 1043              		.loc 4 99 58 view .LVU287
 1044 00f4 87EE897A 		vdiv.f32	s14, s15, s18
  99:../../../DaisySP//Source/Effects/pitchshifter.h ****                          * (del_size_ * 0.5f);
 1045              		.loc 4 99 31 view .LVU288
 1046 00f8 67EE297A 		vmul.f32	s15, s14, s19
 100:../../../DaisySP//Source/Effects/pitchshifter.h ****             mod_coeff_[1]
 1047              		.loc 4 100 39 view .LVU289
 1048 00fc 07EE103A 		vmov	s14, r3	@ int
ARM GAS  /var/folders/wz/z09yph4n0qj4t7mjxhl6ttn80000gn/T//ccNrSY5I.s 			page 39


 1049 0100 BBEEEF7A 		vcvt.f32.u32	s14, s14, #1
 100:../../../DaisySP//Source/Effects/pitchshifter.h ****             mod_coeff_[1]
 1050              		.loc 4 100 26 view .LVU290
 1051 0104 67EE877A 		vmul.f32	s15, s15, s14
  99:../../../DaisySP//Source/Effects/pitchshifter.h ****                          * (del_size_ * 0.5f);
 1052              		.loc 4 99 24 view .LVU291
 1053 0108 C2ED007A 		vstr.32	s15, [r2]
 101:../../../DaisySP//Source/Effects/pitchshifter.h ****                 = 0.0002f + (((float)(myrand() % 255) / 255.0f) * 0.001f);
 1054              		.loc 4 101 13 is_stmt 1 view .LVU292
 102:../../../DaisySP//Source/Effects/pitchshifter.h ****         }
 1055              		.loc 4 102 45 is_stmt 0 view .LVU293
 1056 010c FFF7FEFF 		bl	_ZN7daisysp6myrandEv
 1057              	.LVL67:
 102:../../../DaisySP//Source/Effects/pitchshifter.h ****         }
 1058              		.loc 4 102 27 view .LVU294
 1059 0110 9FED687A 		vldr.32	s14, .L46+4
 102:../../../DaisySP//Source/Effects/pitchshifter.h ****         }
 1060              		.loc 4 102 17 view .LVU295
 1061 0114 04F68433 		addw	r3, r4, #2948
 102:../../../DaisySP//Source/Effects/pitchshifter.h ****         }
 1062              		.loc 4 102 48 view .LVU296
 1063 0118 B0FBF8F8 		udiv	r8, r0, r8
 1064 011c C8EB0828 		rsb	r8, r8, r8, lsl #8
 1065 0120 A0EB0800 		sub	r0, r0, r8
 102:../../../DaisySP//Source/Effects/pitchshifter.h ****         }
 1066              		.loc 4 102 31 view .LVU297
 1067 0124 07EE900A 		vmov	s15, r0	@ int
 1068 0128 F8EEE77A 		vcvt.f32.s32	s15, s15
 102:../../../DaisySP//Source/Effects/pitchshifter.h ****         }
 1069              		.loc 4 102 55 view .LVU298
 1070 012c C7EE896A 		vdiv.f32	s13, s15, s18
 102:../../../DaisySP//Source/Effects/pitchshifter.h ****         }
 1071              		.loc 4 102 27 view .LVU299
 1072 0130 DFED617A 		vldr.32	s15, .L46+8
 1073 0134 E6EE877A 		vfma.f32	s15, s13, s14
 102:../../../DaisySP//Source/Effects/pitchshifter.h ****         }
 1074              		.loc 4 102 17 view .LVU300
 1075 0138 C3ED007A 		vstr.32	s15, [r3]
 1076              	.L38:
 104:../../../DaisySP//Source/Effects/pitchshifter.h ****         slewed_mod_[1] += mod_coeff_[1] * (mod_b_amt_ - slewed_mod_[1]);
 1077              		.loc 4 104 9 is_stmt 1 view .LVU301
 104:../../../DaisySP//Source/Effects/pitchshifter.h ****         slewed_mod_[1] += mod_coeff_[1] * (mod_b_amt_ - slewed_mod_[1]);
 1078              		.loc 4 104 24 is_stmt 0 view .LVU302
 1079 013c 04F67833 		addw	r3, r4, #2936
 104:../../../DaisySP//Source/Effects/pitchshifter.h ****         slewed_mod_[1] += mod_coeff_[1] * (mod_b_amt_ - slewed_mod_[1]);
 1080              		.loc 4 104 44 view .LVU303
 1081 0140 04F66832 		addw	r2, r4, #2920
 104:../../../DaisySP//Source/Effects/pitchshifter.h ****         slewed_mod_[1] += mod_coeff_[1] * (mod_b_amt_ - slewed_mod_[1]);
 1082              		.loc 4 104 24 view .LVU304
 1083 0144 D7ED006A 		vldr.32	s13, [r7]
 105:../../../DaisySP//Source/Effects/pitchshifter.h ****         prev_phs_a_ = fade1;
 1084              		.loc 4 105 44 view .LVU305
 1085 0148 04F66C31 		addw	r1, r4, #2924
 104:../../../DaisySP//Source/Effects/pitchshifter.h ****         slewed_mod_[1] += mod_coeff_[1] * (mod_b_amt_ - slewed_mod_[1]);
 1086              		.loc 4 104 24 view .LVU306
 1087 014c D3ED007A 		vldr.32	s15, [r3]
 104:../../../DaisySP//Source/Effects/pitchshifter.h ****         slewed_mod_[1] += mod_coeff_[1] * (mod_b_amt_ - slewed_mod_[1]);
ARM GAS  /var/folders/wz/z09yph4n0qj4t7mjxhl6ttn80000gn/T//ccNrSY5I.s 			page 40


 1088              		.loc 4 104 44 view .LVU307
 1089 0150 D2ED009A 		vldr.32	s19, [r2]
 105:../../../DaisySP//Source/Effects/pitchshifter.h ****         prev_phs_a_ = fade1;
 1090              		.loc 4 105 24 view .LVU308
 1091 0154 04F67C32 		addw	r2, r4, #2940
 104:../../../DaisySP//Source/Effects/pitchshifter.h ****         slewed_mod_[1] += mod_coeff_[1] * (mod_b_amt_ - slewed_mod_[1]);
 1092              		.loc 4 104 55 view .LVU309
 1093 0158 39EEE77A 		vsub.f32	s14, s19, s15
 104:../../../DaisySP//Source/Effects/pitchshifter.h ****         slewed_mod_[1] += mod_coeff_[1] * (mod_b_amt_ - slewed_mod_[1]);
 1094              		.loc 4 104 24 view .LVU310
 1095 015c E6EE877A 		vfma.f32	s15, s13, s14
 105:../../../DaisySP//Source/Effects/pitchshifter.h ****         prev_phs_a_ = fade1;
 1096              		.loc 4 105 55 view .LVU311
 1097 0160 91ED007A 		vldr.32	s14, [r1]
 104:../../../DaisySP//Source/Effects/pitchshifter.h ****         slewed_mod_[1] += mod_coeff_[1] * (mod_b_amt_ - slewed_mod_[1]);
 1098              		.loc 4 104 24 view .LVU312
 1099 0164 C3ED007A 		vstr.32	s15, [r3]
 105:../../../DaisySP//Source/Effects/pitchshifter.h ****         prev_phs_a_ = fade1;
 1100              		.loc 4 105 9 is_stmt 1 view .LVU313
 105:../../../DaisySP//Source/Effects/pitchshifter.h ****         prev_phs_a_ = fade1;
 1101              		.loc 4 105 39 is_stmt 0 view .LVU314
 1102 0168 04F68433 		addw	r3, r4, #2948
 105:../../../DaisySP//Source/Effects/pitchshifter.h ****         prev_phs_a_ = fade1;
 1103              		.loc 4 105 24 view .LVU315
 1104 016c D2ED007A 		vldr.32	s15, [r2]
 1105 0170 D3ED006A 		vldr.32	s13, [r3]
 106:../../../DaisySP//Source/Effects/pitchshifter.h ****         prev_phs_b_ = fade2;
 1106              		.loc 4 106 21 view .LVU316
 1107 0174 04F53763 		add	r3, r4, #2928
 105:../../../DaisySP//Source/Effects/pitchshifter.h ****         prev_phs_a_ = fade1;
 1108              		.loc 4 105 55 view .LVU317
 1109 0178 37EE677A 		vsub.f32	s14, s14, s15
 105:../../../DaisySP//Source/Effects/pitchshifter.h ****         prev_phs_a_ = fade1;
 1110              		.loc 4 105 24 view .LVU318
 1111 017c E6EE877A 		vfma.f32	s15, s13, s14
 1112 0180 C2ED007A 		vstr.32	s15, [r2]
 106:../../../DaisySP//Source/Effects/pitchshifter.h ****         prev_phs_b_ = fade2;
 1113              		.loc 4 106 9 is_stmt 1 view .LVU319
 106:../../../DaisySP//Source/Effects/pitchshifter.h ****         prev_phs_b_ = fade2;
 1114              		.loc 4 106 21 is_stmt 0 view .LVU320
 1115 0184 C3ED008A 		vstr.32	s17, [r3]
 107:../../../DaisySP//Source/Effects/pitchshifter.h ****         if(shift_up_)
 1116              		.loc 4 107 9 is_stmt 1 view .LVU321
 107:../../../DaisySP//Source/Effects/pitchshifter.h ****         if(shift_up_)
 1117              		.loc 4 107 21 is_stmt 0 view .LVU322
 1118 0188 04F67433 		addw	r3, r4, #2932
 1119 018c 83ED008A 		vstr.32	s16, [r3]
 108:../../../DaisySP//Source/Effects/pitchshifter.h ****         {
 1120              		.loc 4 108 9 is_stmt 1 view .LVU323
 1121 0190 94F82C3B 		ldrb	r3, [r4, #2860]	@ zero_extendqisi2
 1122 0194 2BB1     		cbz	r3, .L40
 110:../../../DaisySP//Source/Effects/pitchshifter.h ****             fade2 = 1.0f - fade2;
 1123              		.loc 4 110 13 view .LVU324
 110:../../../DaisySP//Source/Effects/pitchshifter.h ****             fade2 = 1.0f - fade2;
 1124              		.loc 4 110 19 is_stmt 0 view .LVU325
 1125 0196 F7EE007A 		vmov.f32	s15, #1.0e+0
 1126 019a 77EEE88A 		vsub.f32	s17, s15, s17
ARM GAS  /var/folders/wz/z09yph4n0qj4t7mjxhl6ttn80000gn/T//ccNrSY5I.s 			page 41


 1127              	.LVL68:
 111:../../../DaisySP//Source/Effects/pitchshifter.h ****         }
 1128              		.loc 4 111 13 is_stmt 1 view .LVU326
 111:../../../DaisySP//Source/Effects/pitchshifter.h ****         }
 1129              		.loc 4 111 19 is_stmt 0 view .LVU327
 1130 019e 37EEC88A 		vsub.f32	s16, s15, s16
 1131              	.LVL69:
 1132              	.L40:
 113:../../../DaisySP//Source/Effects/pitchshifter.h ****         mod_[1] = fade2 * (del_size_ - 1);
 1133              		.loc 4 113 9 is_stmt 1 view .LVU328
 113:../../../DaisySP//Source/Effects/pitchshifter.h ****         mod_[1] = fade2 * (del_size_ - 1);
 1134              		.loc 4 113 38 is_stmt 0 view .LVU329
 1135 01a2 D4F8203B 		ldr	r3, [r4, #2848]
 114:../../../DaisySP//Source/Effects/pitchshifter.h **** #ifdef USE_ARM_DSP
 1136              		.loc 4 114 17 view .LVU330
 1137 01a6 04F65C37 		addw	r7, r4, #2908
 113:../../../DaisySP//Source/Effects/pitchshifter.h ****         mod_[1] = fade2 * (del_size_ - 1);
 1138              		.loc 4 113 17 view .LVU331
 1139 01aa 04F6583A 		addw	r10, r4, #2904
 119:../../../DaisySP//Source/Effects/pitchshifter.h ****         gain_[1] = sinf(fade2 * PI_F);
 1140              		.loc 4 119 24 view .LVU332
 1141 01ae 9FED43AA 		vldr.32	s20, .L46+12
 113:../../../DaisySP//Source/Effects/pitchshifter.h ****         mod_[1] = fade2 * (del_size_ - 1);
 1142              		.loc 4 113 38 view .LVU333
 1143 01b2 013B     		subs	r3, r3, #1
 119:../../../DaisySP//Source/Effects/pitchshifter.h ****         gain_[1] = sinf(fade2 * PI_F);
 1144              		.loc 4 119 18 view .LVU334
 1145 01b4 04F53569 		add	r9, r4, #2896
 119:../../../DaisySP//Source/Effects/pitchshifter.h ****         gain_[1] = sinf(fade2 * PI_F);
 1146              		.loc 4 119 24 view .LVU335
 1147 01b8 28EE8A0A 		vmul.f32	s0, s17, s20
 120:../../../DaisySP//Source/Effects/pitchshifter.h **** #endif
 1148              		.loc 4 120 18 view .LVU336
 1149 01bc 04F65438 		addw	r8, r4, #2900
 113:../../../DaisySP//Source/Effects/pitchshifter.h ****         mod_[1] = fade2 * (del_size_ - 1);
 1150              		.loc 4 113 25 view .LVU337
 1151 01c0 07EE903A 		vmov	s15, r3	@ int
 1152 01c4 F8EE677A 		vcvt.f32.u32	s15, s15
 1153 01c8 27EEA89A 		vmul.f32	s18, s15, s17
 114:../../../DaisySP//Source/Effects/pitchshifter.h **** #ifdef USE_ARM_DSP
 1154              		.loc 4 114 25 view .LVU338
 1155 01cc 67EE887A 		vmul.f32	s15, s15, s16
 113:../../../DaisySP//Source/Effects/pitchshifter.h ****         mod_[1] = fade2 * (del_size_ - 1);
 1156              		.loc 4 113 17 view .LVU339
 1157 01d0 8AED009A 		vstr.32	s18, [r10]
 114:../../../DaisySP//Source/Effects/pitchshifter.h **** #ifdef USE_ARM_DSP
 1158              		.loc 4 114 9 is_stmt 1 view .LVU340
 114:../../../DaisySP//Source/Effects/pitchshifter.h **** #ifdef USE_ARM_DSP
 1159              		.loc 4 114 17 is_stmt 0 view .LVU341
 1160 01d4 C7ED007A 		vstr.32	s15, [r7]
 119:../../../DaisySP//Source/Effects/pitchshifter.h ****         gain_[1] = sinf(fade2 * PI_F);
 1161              		.loc 4 119 9 is_stmt 1 view .LVU342
 119:../../../DaisySP//Source/Effects/pitchshifter.h ****         gain_[1] = sinf(fade2 * PI_F);
 1162              		.loc 4 119 24 is_stmt 0 view .LVU343
 1163 01d8 FFF7FEFF 		bl	sinf
 1164              	.LVL70:
 119:../../../DaisySP//Source/Effects/pitchshifter.h ****         gain_[1] = sinf(fade2 * PI_F);
ARM GAS  /var/folders/wz/z09yph4n0qj4t7mjxhl6ttn80000gn/T//ccNrSY5I.s 			page 42


 1165              		.loc 4 119 18 view .LVU344
 1166 01dc 89ED000A 		vstr.32	s0, [r9]
 120:../../../DaisySP//Source/Effects/pitchshifter.h **** #endif
 1167              		.loc 4 120 9 is_stmt 1 view .LVU345
 120:../../../DaisySP//Source/Effects/pitchshifter.h **** #endif
 1168              		.loc 4 120 24 is_stmt 0 view .LVU346
 1169 01e0 28EE0A0A 		vmul.f32	s0, s16, s20
 133:../../../DaisySP//Source/Effects/pitchshifter.h ****         val += (d_[1].Read() * gain_[1]);
 1170              		.loc 4 133 13 view .LVU347
 1171 01e4 9FED368A 		vldr.32	s16, .L46+16
 1172              	.LVL71:
 120:../../../DaisySP//Source/Effects/pitchshifter.h **** #endif
 1173              		.loc 4 120 24 view .LVU348
 1174 01e8 FFF7FEFF 		bl	sinf
 1175              	.LVL72:
 1176              	.LBB585:
 1177              	.LBB586:
  64:../../../DaisySP//Source/Utility/delayline.h ****         write_ptr_        = (write_ptr_ - 1 + max_size) % max_size;
 1178              		.loc 6 64 15 view .LVU349
 1179 01ec 6A68     		ldr	r2, [r5, #4]
  65:../../../DaisySP//Source/Utility/delayline.h ****     }
 1180              		.loc 6 65 57 view .LVU350
 1181 01ee 4FF41661 		mov	r1, #2400
 1182              	.LBE586:
 1183              	.LBE585:
 120:../../../DaisySP//Source/Effects/pitchshifter.h **** #endif
 1184              		.loc 4 120 18 view .LVU351
 1185 01f2 88ED000A 		vstr.32	s0, [r8]
 124:../../../DaisySP//Source/Effects/pitchshifter.h ****         d_[1].Write(in);
 1186              		.loc 4 124 9 is_stmt 1 view .LVU352
 1187              	.LBB592:
 1188              	.LBB587:
  64:../../../DaisySP//Source/Utility/delayline.h ****         write_ptr_        = (write_ptr_ - 1 + max_size) % max_size;
 1189              		.loc 6 64 27 is_stmt 0 view .LVU353
 1190 01f6 05EB8203 		add	r3, r5, r2, lsl #2
 1191              	.LBE587:
 1192              	.LBE592:
 124:../../../DaisySP//Source/Effects/pitchshifter.h ****         d_[1].Write(in);
 1193              		.loc 4 124 20 view .LVU354
 1194 01fa D6F800C0 		ldr	ip, [r6]	@ float
 1195              	.LVL73:
 1196              	.LBB593:
 1197              	.LBI585:
  62:../../../DaisySP//Source/Utility/delayline.h ****     {
 1198              		.loc 6 62 17 is_stmt 1 view .LVU355
 1199              	.LBB588:
  65:../../../DaisySP//Source/Utility/delayline.h ****     }
 1200              		.loc 6 65 45 is_stmt 0 view .LVU356
 1201 01fe 02F65F12 		addw	r2, r2, #2399
 1202              	.LBE588:
 1203              	.LBE593:
 128:../../../DaisySP//Source/Effects/pitchshifter.h ****         d_[1].SetDelay(mod_[1] + mod_b_amt_);
 1204              		.loc 4 128 23 view .LVU357
 1205 0202 39EE890A 		vadd.f32	s0, s19, s18
 1206              	.LBB594:
 1207              	.LBB589:
  64:../../../DaisySP//Source/Utility/delayline.h ****         write_ptr_        = (write_ptr_ - 1 + max_size) % max_size;
ARM GAS  /var/folders/wz/z09yph4n0qj4t7mjxhl6ttn80000gn/T//ccNrSY5I.s 			page 43


 1208              		.loc 6 64 27 view .LVU358
 1209 0206 C3F80CC0 		str	ip, [r3, #12]	@ float
 1210              	.LBE589:
 1211              	.LBE594:
 125:../../../DaisySP//Source/Effects/pitchshifter.h ****         // Modulate Delay Lines
 1212              		.loc 4 125 20 view .LVU359
 1213 020a 05F51656 		add	r6, r5, #9600
 1214              	.LVL74:
 1215              	.LBB595:
 1216              	.LBB590:
  65:../../../DaisySP//Source/Utility/delayline.h ****     }
 1217              		.loc 6 65 57 view .LVU360
 1218 020e B2FBF1F3 		udiv	r3, r2, r1
 1219 0212 01FB1322 		mls	r2, r1, r3, r2
 1220              	.LBE590:
 1221              	.LBE595:
 125:../../../DaisySP//Source/Effects/pitchshifter.h ****         // Modulate Delay Lines
 1222              		.loc 4 125 20 view .LVU361
 1223 0216 0C36     		adds	r6, r6, #12
 1224              	.LBB596:
 1225              	.LBB591:
  65:../../../DaisySP//Source/Utility/delayline.h ****     }
 1226              		.loc 6 65 27 view .LVU362
 1227 0218 6A60     		str	r2, [r5, #4]
 1228              	.LVL75:
  65:../../../DaisySP//Source/Utility/delayline.h ****     }
 1229              		.loc 6 65 27 view .LVU363
 1230              	.LBE591:
 1231              	.LBE596:
 125:../../../DaisySP//Source/Effects/pitchshifter.h ****         // Modulate Delay Lines
 1232              		.loc 4 125 9 is_stmt 1 view .LVU364
 1233              	.LBB597:
 1234              	.LBI597:
  62:../../../DaisySP//Source/Utility/delayline.h ****     {
 1235              		.loc 6 62 17 view .LVU365
 1236              	.LBB598:
  64:../../../DaisySP//Source/Utility/delayline.h ****         write_ptr_        = (write_ptr_ - 1 + max_size) % max_size;
 1237              		.loc 6 64 15 is_stmt 0 view .LVU366
 1238 021a 05F50052 		add	r2, r5, #8192
 1239 021e D2F89035 		ldr	r3, [r2, #1424]
  64:../../../DaisySP//Source/Utility/delayline.h ****         write_ptr_        = (write_ptr_ - 1 + max_size) % max_size;
 1240              		.loc 6 64 27 view .LVU367
 1241 0222 02EB8300 		add	r0, r2, r3, lsl #2
  65:../../../DaisySP//Source/Utility/delayline.h ****     }
 1242              		.loc 6 65 45 view .LVU368
 1243 0226 03F65F13 		addw	r3, r3, #2399
  64:../../../DaisySP//Source/Utility/delayline.h ****         write_ptr_        = (write_ptr_ - 1 + max_size) % max_size;
 1244              		.loc 6 64 27 view .LVU369
 1245 022a 00F29450 		addw	r0, r0, #1428
 1246 022e C0F804C0 		str	ip, [r0, #4]	@ float
  65:../../../DaisySP//Source/Utility/delayline.h ****     }
 1247              		.loc 6 65 57 view .LVU370
 1248 0232 B3FBF1F0 		udiv	r0, r3, r1
 1249 0236 01FB1033 		mls	r3, r1, r0, r3
 1250              	.LBE598:
 1251              	.LBE597:
 128:../../../DaisySP//Source/Effects/pitchshifter.h ****         d_[1].SetDelay(mod_[1] + mod_b_amt_);
ARM GAS  /var/folders/wz/z09yph4n0qj4t7mjxhl6ttn80000gn/T//ccNrSY5I.s 			page 44


 1252              		.loc 4 128 23 view .LVU371
 1253 023a 2846     		mov	r0, r5
 1254              	.LBB600:
 1255              	.LBB599:
  65:../../../DaisySP//Source/Utility/delayline.h ****     }
 1256              		.loc 6 65 27 view .LVU372
 1257 023c C2F89035 		str	r3, [r2, #1424]
 1258              	.LVL76:
  65:../../../DaisySP//Source/Utility/delayline.h ****     }
 1259              		.loc 6 65 27 view .LVU373
 1260              	.LBE599:
 1261              	.LBE600:
 128:../../../DaisySP//Source/Effects/pitchshifter.h ****         d_[1].SetDelay(mod_[1] + mod_b_amt_);
 1262              		.loc 4 128 9 is_stmt 1 view .LVU374
 128:../../../DaisySP//Source/Effects/pitchshifter.h ****         d_[1].SetDelay(mod_[1] + mod_b_amt_);
 1263              		.loc 4 128 23 is_stmt 0 view .LVU375
 1264 0240 FFF7FEFF 		bl	_ZN7daisysp9DelayLineIfLj2400EE8SetDelayEf
 1265              	.LVL77:
 129:../../../DaisySP//Source/Effects/pitchshifter.h ****         d_[0].SetDelay(mod_[0] + slewed_mod_[0]);
 1266              		.loc 4 129 9 is_stmt 1 view .LVU376
 129:../../../DaisySP//Source/Effects/pitchshifter.h ****         d_[0].SetDelay(mod_[0] + slewed_mod_[0]);
 1267              		.loc 4 129 34 is_stmt 0 view .LVU377
 1268 0244 04F66C33 		addw	r3, r4, #2924
 129:../../../DaisySP//Source/Effects/pitchshifter.h ****         d_[0].SetDelay(mod_[0] + slewed_mod_[0]);
 1269              		.loc 4 129 23 view .LVU378
 1270 0248 97ED000A 		vldr.32	s0, [r7]
 1271 024c 3046     		mov	r0, r6
 1272 024e D3ED007A 		vldr.32	s15, [r3]
 1273 0252 30EE270A 		vadd.f32	s0, s0, s15
 1274 0256 FFF7FEFF 		bl	_ZN7daisysp9DelayLineIfLj2400EE8SetDelayEf
 1275              	.LVL78:
 130:../../../DaisySP//Source/Effects/pitchshifter.h ****         d_[1].SetDelay(mod_[1] + slewed_mod_[1]);
 1276              		.loc 4 130 9 is_stmt 1 view .LVU379
 130:../../../DaisySP//Source/Effects/pitchshifter.h ****         d_[1].SetDelay(mod_[1] + slewed_mod_[1]);
 1277              		.loc 4 130 47 is_stmt 0 view .LVU380
 1278 025a 04F67833 		addw	r3, r4, #2936
 130:../../../DaisySP//Source/Effects/pitchshifter.h ****         d_[1].SetDelay(mod_[1] + slewed_mod_[1]);
 1279              		.loc 4 130 23 view .LVU381
 1280 025e 9AED000A 		vldr.32	s0, [r10]
 131:../../../DaisySP//Source/Effects/pitchshifter.h ****         val = 0.0f;
 1281              		.loc 4 131 47 view .LVU382
 1282 0262 04F67C34 		addw	r4, r4, #2940
 130:../../../DaisySP//Source/Effects/pitchshifter.h ****         d_[1].SetDelay(mod_[1] + slewed_mod_[1]);
 1283              		.loc 4 130 23 view .LVU383
 1284 0266 D3ED007A 		vldr.32	s15, [r3]
 1285 026a 2846     		mov	r0, r5
 1286 026c 30EE270A 		vadd.f32	s0, s0, s15
 1287 0270 FFF7FEFF 		bl	_ZN7daisysp9DelayLineIfLj2400EE8SetDelayEf
 1288              	.LVL79:
 131:../../../DaisySP//Source/Effects/pitchshifter.h ****         val = 0.0f;
 1289              		.loc 4 131 9 is_stmt 1 view .LVU384
 131:../../../DaisySP//Source/Effects/pitchshifter.h ****         val = 0.0f;
 1290              		.loc 4 131 23 is_stmt 0 view .LVU385
 1291 0274 D4ED007A 		vldr.32	s15, [r4]
 1292 0278 97ED000A 		vldr.32	s0, [r7]
 1293 027c 3046     		mov	r0, r6
 1294 027e 30EE270A 		vadd.f32	s0, s0, s15
ARM GAS  /var/folders/wz/z09yph4n0qj4t7mjxhl6ttn80000gn/T//ccNrSY5I.s 			page 45


 1295 0282 FFF7FEFF 		bl	_ZN7daisysp9DelayLineIfLj2400EE8SetDelayEf
 1296              	.LVL80:
 132:../../../DaisySP//Source/Effects/pitchshifter.h ****         val += (d_[0].Read() * gain_[0]);
 1297              		.loc 4 132 9 is_stmt 1 view .LVU386
 133:../../../DaisySP//Source/Effects/pitchshifter.h ****         val += (d_[1].Read() * gain_[1]);
 1298              		.loc 4 133 9 view .LVU387
 133:../../../DaisySP//Source/Effects/pitchshifter.h ****         val += (d_[1].Read() * gain_[1]);
 1299              		.loc 4 133 27 is_stmt 0 view .LVU388
 1300 0286 2846     		mov	r0, r5
 1301 0288 FFF7FEFF 		bl	_ZNK7daisysp9DelayLineIfLj2400EE4ReadEv
 1302              	.LVL81:
 133:../../../DaisySP//Source/Effects/pitchshifter.h ****         val += (d_[1].Read() * gain_[1]);
 1303              		.loc 4 133 13 view .LVU389
 1304 028c D9ED007A 		vldr.32	s15, [r9]
 134:../../../DaisySP//Source/Effects/pitchshifter.h ****         return val;
 1305              		.loc 4 134 27 view .LVU390
 1306 0290 3046     		mov	r0, r6
 133:../../../DaisySP//Source/Effects/pitchshifter.h ****         val += (d_[1].Read() * gain_[1]);
 1307              		.loc 4 133 13 view .LVU391
 1308 0292 A0EE278A 		vfma.f32	s16, s0, s15
 1309              	.LVL82:
 134:../../../DaisySP//Source/Effects/pitchshifter.h ****         return val;
 1310              		.loc 4 134 9 is_stmt 1 view .LVU392
 134:../../../DaisySP//Source/Effects/pitchshifter.h ****         return val;
 1311              		.loc 4 134 27 is_stmt 0 view .LVU393
 1312 0296 FFF7FEFF 		bl	_ZNK7daisysp9DelayLineIfLj2400EE4ReadEv
 1313              	.LVL83:
 134:../../../DaisySP//Source/Effects/pitchshifter.h ****         return val;
 1314              		.loc 4 134 13 view .LVU394
 1315 029a D8ED007A 		vldr.32	s15, [r8]
 1316              	.LVL84:
 135:../../../DaisySP//Source/Effects/pitchshifter.h ****     }
 1317              		.loc 4 135 9 is_stmt 1 view .LVU395
 136:../../../DaisySP//Source/Effects/pitchshifter.h **** 
 1318              		.loc 4 136 5 is_stmt 0 view .LVU396
 1319 029e A0EE278A 		vfma.f32	s16, s0, s15
 1320              	.LVL85:
 136:../../../DaisySP//Source/Effects/pitchshifter.h **** 
 1321              		.loc 4 136 5 view .LVU397
 1322 02a2 B0EE480A 		vmov.f32	s0, s16
 1323 02a6 BDEC068B 		vldm	sp!, {d8-d10}
 1324              		.cfi_restore 84
 1325              		.cfi_restore 85
 1326              		.cfi_restore 82
 1327              		.cfi_restore 83
 1328              		.cfi_restore 80
 1329              		.cfi_restore 81
 1330              		.cfi_def_cfa_offset 32
 1331              	.LVL86:
 136:../../../DaisySP//Source/Effects/pitchshifter.h **** 
 1332              		.loc 4 136 5 view .LVU398
 1333 02aa BDE8F087 		pop	{r4, r5, r6, r7, r8, r9, r10, pc}
 1334              	.LVL87:
 1335              	.L47:
 136:../../../DaisySP//Source/Effects/pitchshifter.h **** 
 1336              		.loc 4 136 5 view .LVU399
 1337 02ae 00BF     		.align	2
ARM GAS  /var/folders/wz/z09yph4n0qj4t7mjxhl6ttn80000gn/T//ccNrSY5I.s 			page 46


 1338              	.L46:
 1339 02b0 00007F43 		.word	1132396544
 1340 02b4 6F12833A 		.word	981668463
 1341 02b8 17B75139 		.word	961656599
 1342 02bc DB0F4940 		.word	1078530011
 1343 02c0 00000000 		.word	0
 1344              		.cfi_endproc
 1345              	.LFE4448:
 1347              		.section	.text._ZN10PitchShift7processEPPfj,"ax",%progbits
 1348              		.align	1
 1349              		.global	_ZN10PitchShift7processEPPfj
 1350              		.syntax unified
 1351              		.thumb
 1352              		.thumb_func
 1354              	_ZN10PitchShift7processEPPfj:
 1355              	.LVL88:
 1356              	.LFB5669:
  30:DSP/FX/PitchShift.cpp **** 
  31:DSP/FX/PitchShift.cpp **** void PitchShift::tick()
  32:DSP/FX/PitchShift.cpp **** {
  33:DSP/FX/PitchShift.cpp ****     //bypass.tick();
  34:DSP/FX/PitchShift.cpp ****     amount.param.tick();
  35:DSP/FX/PitchShift.cpp ****     semitones.tick();
  36:DSP/FX/PitchShift.cpp ****     rand.tick();
  37:DSP/FX/PitchShift.cpp **** }
  38:DSP/FX/PitchShift.cpp **** 
  39:DSP/FX/PitchShift.cpp **** void PitchShift::process(float* input[2], size_t size)
  40:DSP/FX/PitchShift.cpp **** {
 1357              		.loc 3 40 1 is_stmt 1 view -0
 1358              		.cfi_startproc
 1359              		@ args = 0, pretend = 0, frame = 8
 1360              		@ frame_needed = 0, uses_anonymous_args = 0
  41:DSP/FX/PitchShift.cpp ****     //if(bypass.value)
  42:DSP/FX/PitchShift.cpp ****         //return;
  43:DSP/FX/PitchShift.cpp **** 
  44:DSP/FX/PitchShift.cpp ****     for(size_t i = 0 ; i < size ; i++)
 1361              		.loc 3 44 5 view .LVU401
  40:DSP/FX/PitchShift.cpp ****     //if(bypass.value)
 1362              		.loc 3 40 1 is_stmt 0 view .LVU402
 1363 0000 2DE9F743 		push	{r0, r1, r2, r4, r5, r6, r7, r8, r9, lr}
 1364              		.cfi_def_cfa_offset 40
 1365              		.cfi_offset 4, -28
 1366              		.cfi_offset 5, -24
 1367              		.cfi_offset 6, -20
 1368              		.cfi_offset 7, -16
 1369              		.cfi_offset 8, -12
 1370              		.cfi_offset 9, -8
 1371              		.cfi_offset 14, -4
  40:DSP/FX/PitchShift.cpp ****     //if(bypass.value)
 1372              		.loc 3 40 1 view .LVU403
 1373 0004 0746     		mov	r7, r0
 1374 0006 0C46     		mov	r4, r1
 1375 0008 9046     		mov	r8, r2
 1376 000a 0646     		mov	r6, r0
 1377              	.LBB601:
 1378              		.loc 3 44 16 view .LVU404
 1379 000c 0025     		movs	r5, #0
ARM GAS  /var/folders/wz/z09yph4n0qj4t7mjxhl6ttn80000gn/T//ccNrSY5I.s 			page 47


 1380              	.LVL89:
 1381              	.L50:
 1382              		.loc 3 44 26 is_stmt 1 discriminator 3 view .LVU405
 1383 000e 4545     		cmp	r5, r8
 1384 0010 38D0     		beq	.L48
  45:DSP/FX/PitchShift.cpp ****     {
  46:DSP/FX/PitchShift.cpp ****         buffer[L][i] = shifter.Process(input[L][i]);
 1385              		.loc 3 46 9 discriminator 2 view .LVU406
 1386              		.loc 3 46 50 is_stmt 0 discriminator 2 view .LVU407
 1387 0012 2168     		ldr	r1, [r4]
 1388              		.loc 3 46 39 discriminator 2 view .LVU408
 1389 0014 07F12000 		add	r0, r7, #32
 1390 0018 4FEA8509 		lsl	r9, r5, #2
 1391 001c 01EB8501 		add	r1, r1, r5, lsl #2
 1392 0020 0190     		str	r0, [sp, #4]
 1393 0022 FFF7FEFF 		bl	_ZN7daisysp12PitchShifter7ProcessERf
 1394              	.LVL90:
  47:DSP/FX/PitchShift.cpp ****         buffer[R][i] = shifter.Process(input[R][i]);
 1395              		.loc 3 47 50 discriminator 2 view .LVU409
 1396 0026 6168     		ldr	r1, [r4, #4]
  46:DSP/FX/PitchShift.cpp ****         buffer[R][i] = shifter.Process(input[R][i]);
 1397              		.loc 3 46 22 discriminator 2 view .LVU410
 1398 0028 A6EC010A 		vstmia.32	r6!, {s0}
 1399              		.loc 3 47 9 is_stmt 1 discriminator 2 view .LVU411
  44:DSP/FX/PitchShift.cpp ****     {
 1400              		.loc 3 44 5 is_stmt 0 discriminator 2 view .LVU412
 1401 002c 0135     		adds	r5, r5, #1
 1402              	.LVL91:
 1403              		.loc 3 47 39 discriminator 2 view .LVU413
 1404 002e 4944     		add	r1, r1, r9
 1405 0030 0198     		ldr	r0, [sp, #4]
 1406 0032 FFF7FEFF 		bl	_ZN7daisysp12PitchShifter7ProcessERf
 1407              	.LVL92:
  48:DSP/FX/PitchShift.cpp **** 
  49:DSP/FX/PitchShift.cpp ****         input[L][i] = (input[L][i] * (1.f - amount.value)) + (buffer[L][i] * amount.value);
 1408              		.loc 3 49 52 discriminator 2 view .LVU414
 1409 0036 07F59841 		add	r1, r7, #19456
 1410              		.loc 3 49 34 discriminator 2 view .LVU415
 1411 003a 2068     		ldr	r0, [r4]
 1412              		.loc 3 49 43 discriminator 2 view .LVU416
 1413 003c B7EE007A 		vmov.f32	s14, #1.0e+0
  47:DSP/FX/PitchShift.cpp **** 
 1414              		.loc 3 47 22 discriminator 2 view .LVU417
 1415 0040 86ED030A 		vstr.32	s0, [r6, #12]
 1416              		.loc 3 49 9 is_stmt 1 discriminator 2 view .LVU418
 1417              		.loc 3 49 76 is_stmt 0 discriminator 2 view .LVU419
 1418 0044 16ED016A 		vldr.32	s12, [r6, #-4]
 1419              		.loc 3 49 34 discriminator 2 view .LVU420
 1420 0048 4844     		add	r0, r0, r9
 1421              		.loc 3 49 52 discriminator 2 view .LVU421
 1422 004a D1ED0A7A 		vldr.32	s15, [r1, #40]
  50:DSP/FX/PitchShift.cpp ****         input[R][i] = (input[R][i] * (1.f - amount.value)) + (buffer[R][i] * amount.value);
 1423              		.loc 3 50 34 discriminator 2 view .LVU422
 1424 004e 6368     		ldr	r3, [r4, #4]
  49:DSP/FX/PitchShift.cpp ****         input[R][i] = (input[R][i] * (1.f - amount.value)) + (buffer[R][i] * amount.value);
 1425              		.loc 3 49 43 discriminator 2 view .LVU423
 1426 0050 77EE676A 		vsub.f32	s13, s14, s15
ARM GAS  /var/folders/wz/z09yph4n0qj4t7mjxhl6ttn80000gn/T//ccNrSY5I.s 			page 48


  49:DSP/FX/PitchShift.cpp ****         input[R][i] = (input[R][i] * (1.f - amount.value)) + (buffer[R][i] * amount.value);
 1427              		.loc 3 49 76 discriminator 2 view .LVU424
 1428 0054 67EE867A 		vmul.f32	s15, s15, s12
  49:DSP/FX/PitchShift.cpp ****         input[R][i] = (input[R][i] * (1.f - amount.value)) + (buffer[R][i] * amount.value);
 1429              		.loc 3 49 60 discriminator 2 view .LVU425
 1430 0058 90ED006A 		vldr.32	s12, [r0]
 1431              		.loc 3 50 34 discriminator 2 view .LVU426
 1432 005c 4B44     		add	r3, r3, r9
  49:DSP/FX/PitchShift.cpp ****         input[R][i] = (input[R][i] * (1.f - amount.value)) + (buffer[R][i] * amount.value);
 1433              		.loc 3 49 60 discriminator 2 view .LVU427
 1434 005e E6EE267A 		vfma.f32	s15, s12, s13
  49:DSP/FX/PitchShift.cpp ****         input[R][i] = (input[R][i] * (1.f - amount.value)) + (buffer[R][i] * amount.value);
 1435              		.loc 3 49 21 discriminator 2 view .LVU428
 1436 0062 C0ED007A 		vstr.32	s15, [r0]
 1437              		.loc 3 50 9 is_stmt 1 discriminator 2 view .LVU429
 1438              		.loc 3 50 52 is_stmt 0 discriminator 2 view .LVU430
 1439 0066 D1ED0A7A 		vldr.32	s15, [r1, #40]
 1440              		.loc 3 50 76 discriminator 2 view .LVU431
 1441 006a D6ED036A 		vldr.32	s13, [r6, #12]
 1442              		.loc 3 50 43 discriminator 2 view .LVU432
 1443 006e 37EE677A 		vsub.f32	s14, s14, s15
 1444              		.loc 3 50 76 discriminator 2 view .LVU433
 1445 0072 67EEA67A 		vmul.f32	s15, s15, s13
 1446              		.loc 3 50 60 discriminator 2 view .LVU434
 1447 0076 D3ED006A 		vldr.32	s13, [r3]
 1448 007a E6EE877A 		vfma.f32	s15, s13, s14
 1449              		.loc 3 50 21 discriminator 2 view .LVU435
 1450 007e C3ED007A 		vstr.32	s15, [r3]
  44:DSP/FX/PitchShift.cpp ****     {
 1451              		.loc 3 44 5 is_stmt 1 discriminator 2 view .LVU436
 1452              	.LVL93:
  44:DSP/FX/PitchShift.cpp ****     {
 1453              		.loc 3 44 5 is_stmt 0 discriminator 2 view .LVU437
 1454 0082 C4E7     		b	.L50
 1455              	.L48:
  44:DSP/FX/PitchShift.cpp ****     {
 1456              		.loc 3 44 5 discriminator 2 view .LVU438
 1457              	.LBE601:
  51:DSP/FX/PitchShift.cpp ****     }
  52:DSP/FX/PitchShift.cpp **** }...
 1458              		.loc 3 52 1 view .LVU439
 1459 0084 03B0     		add	sp, sp, #12
 1460              		.cfi_def_cfa_offset 28
 1461              		@ sp needed
 1462 0086 BDE8F083 		pop	{r4, r5, r6, r7, r8, r9, pc}
 1463              		.loc 3 52 1 view .LVU440
 1464              		.cfi_endproc
 1465              	.LFE5669:
 1467              		.section	.text._ZN14AudioParameterIfE4tickEv,"axG",%progbits,_ZN14AudioParameterIfE4tickEv,comdat
 1468              		.align	1
 1469              		.weak	_ZN14AudioParameterIfE4tickEv
 1470              		.syntax unified
 1471              		.thumb
 1472              		.thumb_func
 1474              	_ZN14AudioParameterIfE4tickEv:
 1475              	.LVL94:
 1476              	.LFB5998:
ARM GAS  /var/folders/wz/z09yph4n0qj4t7mjxhl6ttn80000gn/T//ccNrSY5I.s 			page 49


 1477              		.file 7 "DSP/FX/../../Parameters/AudioParameter.h"
   1:DSP/FX/../../Parameters/AudioParameter.h **** #ifndef AUDIOPARAMETER_H
   2:DSP/FX/../../Parameters/AudioParameter.h **** #define AUDIOPARAMETER_H
   3:DSP/FX/../../Parameters/AudioParameter.h **** 
   4:DSP/FX/../../Parameters/AudioParameter.h **** #include "daisy_seed.h"
   5:DSP/FX/../../Parameters/AudioParameter.h **** #include "daisysp.h"
   6:DSP/FX/../../Parameters/AudioParameter.h **** #include "../Utils/Helpers.h"
   7:DSP/FX/../../Parameters/AudioParameter.h **** #include "../Utils/Constants.h"
   8:DSP/FX/../../Parameters/AudioParameter.h **** #include <cstdint>
   9:DSP/FX/../../Parameters/AudioParameter.h **** #include <functional>
  10:DSP/FX/../../Parameters/AudioParameter.h **** #include <memory>
  11:DSP/FX/../../Parameters/AudioParameter.h **** #include <type_traits>
  12:DSP/FX/../../Parameters/AudioParameter.h **** 
  13:DSP/FX/../../Parameters/AudioParameter.h **** /*****************************************************************************//**
  14:DSP/FX/../../Parameters/AudioParameter.h ****  *  Class name: AudioParameter
  15:DSP/FX/../../Parameters/AudioParameter.h ****  *  Function: Parameter object for DSP classes that contains pot boilerplate code
  16:DSP/FX/../../Parameters/AudioParameter.h ****  ********************************************************************************/
  17:DSP/FX/../../Parameters/AudioParameter.h **** 
  18:DSP/FX/../../Parameters/AudioParameter.h **** using namespace daisy;
  19:DSP/FX/../../Parameters/AudioParameter.h **** 
  20:DSP/FX/../../Parameters/AudioParameter.h **** template <class type>
  21:DSP/FX/../../Parameters/AudioParameter.h **** class AudioParameter
  22:DSP/FX/../../Parameters/AudioParameter.h **** {
  23:DSP/FX/../../Parameters/AudioParameter.h **** public:
  24:DSP/FX/../../Parameters/AudioParameter.h **** 
  25:DSP/FX/../../Parameters/AudioParameter.h ****     void init(DaisySeed* seed, type mi, type ma, CurveType c, uint8_t ID, std::function<void(type)>
  26:DSP/FX/../../Parameters/AudioParameter.h ****     {
  27:DSP/FX/../../Parameters/AudioParameter.h ****         hw = seed;
  28:DSP/FX/../../Parameters/AudioParameter.h ****         input = 0;
  29:DSP/FX/../../Parameters/AudioParameter.h **** 
  30:DSP/FX/../../Parameters/AudioParameter.h ****         curVal = 0;
  31:DSP/FX/../../Parameters/AudioParameter.h ****         min = mi;
  32:DSP/FX/../../Parameters/AudioParameter.h ****         max = ma;
  33:DSP/FX/../../Parameters/AudioParameter.h **** 
  34:DSP/FX/../../Parameters/AudioParameter.h ****         curve = c;
  35:DSP/FX/../../Parameters/AudioParameter.h ****         channelID = ID;
  36:DSP/FX/../../Parameters/AudioParameter.h ****         callback = cb;
  37:DSP/FX/../../Parameters/AudioParameter.h **** 
  38:DSP/FX/../../Parameters/AudioParameter.h ****         if(channelID != ChannelIDs::ENCODER)
  39:DSP/FX/../../Parameters/AudioParameter.h ****             isSelected = true;
  40:DSP/FX/../../Parameters/AudioParameter.h ****     }
  41:DSP/FX/../../Parameters/AudioParameter.h ****     
  42:DSP/FX/../../Parameters/AudioParameter.h ****     inline void tick() 
 1478              		.loc 7 42 17 is_stmt 1 view -0
 1479              		.cfi_startproc
 1480              		@ args = 0, pretend = 0, frame = 8
 1481              		@ frame_needed = 0, uses_anonymous_args = 0
  43:DSP/FX/../../Parameters/AudioParameter.h ****     {
  44:DSP/FX/../../Parameters/AudioParameter.h ****         if(!isSelected)
 1482              		.loc 7 44 9 is_stmt 0 view .LVU442
 1483 0000 837E     		ldrb	r3, [r0, #26]	@ zero_extendqisi2
  42:DSP/FX/../../Parameters/AudioParameter.h ****     {
 1484              		.loc 7 42 17 view .LVU443
 1485 0002 13B5     		push	{r0, r1, r4, lr}
 1486              		.cfi_def_cfa_offset 16
 1487              		.cfi_offset 4, -8
 1488              		.cfi_offset 14, -4
ARM GAS  /var/folders/wz/z09yph4n0qj4t7mjxhl6ttn80000gn/T//ccNrSY5I.s 			page 50


  42:DSP/FX/../../Parameters/AudioParameter.h ****     {
 1489              		.loc 7 42 17 view .LVU444
 1490 0004 0446     		mov	r4, r0
 1491              		.loc 7 44 9 view .LVU445
 1492 0006 002B     		cmp	r3, #0
 1493 0008 37D0     		beq	.L51
 1494              	.LVL95:
 1495              	.LBB612:
 1496              	.LBI612:
  42:DSP/FX/../../Parameters/AudioParameter.h ****     {
 1497              		.loc 7 42 17 is_stmt 1 view .LVU446
 1498              	.LBB613:
  45:DSP/FX/../../Parameters/AudioParameter.h ****             return;
  46:DSP/FX/../../Parameters/AudioParameter.h **** 
  47:DSP/FX/../../Parameters/AudioParameter.h ****         float newInput = hw->adc.GetFloat(channelID);
 1499              		.loc 7 47 42 is_stmt 0 view .LVU447
 1500 000a 0068     		ldr	r0, [r0]
 1501              	.LVL96:
 1502              		.loc 7 47 42 view .LVU448
 1503 000c 217E     		ldrb	r1, [r4, #24]	@ zero_extendqisi2
 1504 000e 1830     		adds	r0, r0, #24
 1505 0010 FFF7FEFF 		bl	_ZNK5daisy9AdcHandle8GetFloatEh
 1506              	.LVL97:
  48:DSP/FX/../../Parameters/AudioParameter.h ****         if(newInput > (input + jitter) || newInput < (input - jitter))
 1507              		.loc 7 48 24 view .LVU449
 1508 0014 D4ED017A 		vldr.32	s15, [r4, #4]
 1509              		.loc 7 48 32 view .LVU450
 1510 0018 94ED027A 		vldr.32	s14, [r4, #8]
 1511              		.loc 7 48 30 view .LVU451
 1512 001c 77EE876A 		vadd.f32	s13, s15, s14
 1513              		.loc 7 48 9 view .LVU452
 1514 0020 B4EEE60A 		vcmpe.f32	s0, s13
 1515 0024 F1EE10FA 		vmrs	APSR_nzcv, FPSCR
 1516 0028 06DC     		bgt	.L54
 1517              		.loc 7 48 61 view .LVU453
 1518 002a 77EEC77A 		vsub.f32	s15, s15, s14
 1519              		.loc 7 48 40 view .LVU454
 1520 002e B4EEE70A 		vcmpe.f32	s0, s15
 1521 0032 F1EE10FA 		vmrs	APSR_nzcv, FPSCR
 1522 0036 20D5     		bpl	.L51
 1523              	.L54:
 1524              	.LBB614:
 1525              	.LBB615:
  49:DSP/FX/../../Parameters/AudioParameter.h ****         {
  50:DSP/FX/../../Parameters/AudioParameter.h ****             input = newInput;
  51:DSP/FX/../../Parameters/AudioParameter.h ****             processCurve();
  52:DSP/FX/../../Parameters/AudioParameter.h ****             callback(curVal);
  53:DSP/FX/../../Parameters/AudioParameter.h ****         }
  54:DSP/FX/../../Parameters/AudioParameter.h ****     }
  55:DSP/FX/../../Parameters/AudioParameter.h **** 
  56:DSP/FX/../../Parameters/AudioParameter.h ****     void processCurve()
  57:DSP/FX/../../Parameters/AudioParameter.h ****     {
  58:DSP/FX/../../Parameters/AudioParameter.h ****         switch(curve)
 1526              		.loc 7 58 16 view .LVU455
 1527 0038 637E     		ldrb	r3, [r4, #25]	@ zero_extendqisi2
 1528              	.LBE615:
 1529              	.LBE614:
ARM GAS  /var/folders/wz/z09yph4n0qj4t7mjxhl6ttn80000gn/T//ccNrSY5I.s 			page 51


  50:DSP/FX/../../Parameters/AudioParameter.h ****             processCurve();
 1530              		.loc 7 50 19 view .LVU456
 1531 003a 84ED010A 		vstr.32	s0, [r4, #4]
 1532              	.LVL98:
 1533              	.LBB621:
 1534              	.LBI614:
  56:DSP/FX/../../Parameters/AudioParameter.h ****     {
 1535              		.loc 7 56 10 is_stmt 1 view .LVU457
 1536              	.LBB619:
 1537              		.loc 7 58 9 is_stmt 0 view .LVU458
 1538 003e 3BB1     		cbz	r3, .L57
 1539              		.loc 7 58 9 view .LVU459
 1540 0040 012B     		cmp	r3, #1
 1541 0042 10D0     		beq	.L58
 1542              	.LVL99:
 1543              	.L59:
 1544              		.loc 7 58 9 view .LVU460
 1545 0044 E368     		ldr	r3, [r4, #12]	@ float
 1546 0046 0193     		str	r3, [sp, #4]	@ float
 1547              	.LVL100:
 1548              		.loc 7 58 9 view .LVU461
 1549              	.LBE619:
 1550              	.LBE621:
 1551              	.LBB622:
 1552              	.LBI622:
 294:/Library/DaisyToolchain/0.2.0/arm/arm-none-eabi/include/c++/10.3.1/bits/std_function.h ****     };
 295:/Library/DaisyToolchain/0.2.0/arm/arm-none-eabi/include/c++/10.3.1/bits/std_function.h **** 
 296:/Library/DaisyToolchain/0.2.0/arm/arm-none-eabi/include/c++/10.3.1/bits/std_function.h ****   /**
 297:/Library/DaisyToolchain/0.2.0/arm/arm-none-eabi/include/c++/10.3.1/bits/std_function.h ****    *  @brief Primary class template for std::function.
 298:/Library/DaisyToolchain/0.2.0/arm/arm-none-eabi/include/c++/10.3.1/bits/std_function.h ****    *  @ingroup functors
 299:/Library/DaisyToolchain/0.2.0/arm/arm-none-eabi/include/c++/10.3.1/bits/std_function.h ****    *
 300:/Library/DaisyToolchain/0.2.0/arm/arm-none-eabi/include/c++/10.3.1/bits/std_function.h ****    *  Polymorphic function wrapper.
 301:/Library/DaisyToolchain/0.2.0/arm/arm-none-eabi/include/c++/10.3.1/bits/std_function.h ****    */
 302:/Library/DaisyToolchain/0.2.0/arm/arm-none-eabi/include/c++/10.3.1/bits/std_function.h ****   template<typename _Res, typename... _ArgTypes>
 303:/Library/DaisyToolchain/0.2.0/arm/arm-none-eabi/include/c++/10.3.1/bits/std_function.h ****     class function<_Res(_ArgTypes...)>
 304:/Library/DaisyToolchain/0.2.0/arm/arm-none-eabi/include/c++/10.3.1/bits/std_function.h ****     : public _Maybe_unary_or_binary_function<_Res, _ArgTypes...>,
 305:/Library/DaisyToolchain/0.2.0/arm/arm-none-eabi/include/c++/10.3.1/bits/std_function.h ****       private _Function_base
 306:/Library/DaisyToolchain/0.2.0/arm/arm-none-eabi/include/c++/10.3.1/bits/std_function.h ****     {
 307:/Library/DaisyToolchain/0.2.0/arm/arm-none-eabi/include/c++/10.3.1/bits/std_function.h ****       template<typename _Func,
 308:/Library/DaisyToolchain/0.2.0/arm/arm-none-eabi/include/c++/10.3.1/bits/std_function.h **** 	       typename _Res2 = __invoke_result<_Func&, _ArgTypes...>>
 309:/Library/DaisyToolchain/0.2.0/arm/arm-none-eabi/include/c++/10.3.1/bits/std_function.h **** 	struct _Callable
 310:/Library/DaisyToolchain/0.2.0/arm/arm-none-eabi/include/c++/10.3.1/bits/std_function.h **** 	: __is_invocable_impl<_Res2, _Res>::type
 311:/Library/DaisyToolchain/0.2.0/arm/arm-none-eabi/include/c++/10.3.1/bits/std_function.h **** 	{ };
 312:/Library/DaisyToolchain/0.2.0/arm/arm-none-eabi/include/c++/10.3.1/bits/std_function.h **** 
 313:/Library/DaisyToolchain/0.2.0/arm/arm-none-eabi/include/c++/10.3.1/bits/std_function.h ****       // Used so the return type convertibility checks aren't done when
 314:/Library/DaisyToolchain/0.2.0/arm/arm-none-eabi/include/c++/10.3.1/bits/std_function.h ****       // performing overload resolution for copy construction/assignment.
 315:/Library/DaisyToolchain/0.2.0/arm/arm-none-eabi/include/c++/10.3.1/bits/std_function.h ****       template<typename _Tp>
 316:/Library/DaisyToolchain/0.2.0/arm/arm-none-eabi/include/c++/10.3.1/bits/std_function.h **** 	struct _Callable<function, _Tp> : false_type { };
 317:/Library/DaisyToolchain/0.2.0/arm/arm-none-eabi/include/c++/10.3.1/bits/std_function.h **** 
 318:/Library/DaisyToolchain/0.2.0/arm/arm-none-eabi/include/c++/10.3.1/bits/std_function.h ****       template<typename _Cond, typename _Tp>
 319:/Library/DaisyToolchain/0.2.0/arm/arm-none-eabi/include/c++/10.3.1/bits/std_function.h **** 	using _Requires = typename enable_if<_Cond::value, _Tp>::type;
 320:/Library/DaisyToolchain/0.2.0/arm/arm-none-eabi/include/c++/10.3.1/bits/std_function.h **** 
 321:/Library/DaisyToolchain/0.2.0/arm/arm-none-eabi/include/c++/10.3.1/bits/std_function.h ****     public:
 322:/Library/DaisyToolchain/0.2.0/arm/arm-none-eabi/include/c++/10.3.1/bits/std_function.h ****       typedef _Res result_type;
 323:/Library/DaisyToolchain/0.2.0/arm/arm-none-eabi/include/c++/10.3.1/bits/std_function.h **** 
 324:/Library/DaisyToolchain/0.2.0/arm/arm-none-eabi/include/c++/10.3.1/bits/std_function.h ****       // [3.7.2.1] construct/copy/destroy
 325:/Library/DaisyToolchain/0.2.0/arm/arm-none-eabi/include/c++/10.3.1/bits/std_function.h **** 
ARM GAS  /var/folders/wz/z09yph4n0qj4t7mjxhl6ttn80000gn/T//ccNrSY5I.s 			page 52


 326:/Library/DaisyToolchain/0.2.0/arm/arm-none-eabi/include/c++/10.3.1/bits/std_function.h ****       /**
 327:/Library/DaisyToolchain/0.2.0/arm/arm-none-eabi/include/c++/10.3.1/bits/std_function.h ****        *  @brief Default construct creates an empty function call wrapper.
 328:/Library/DaisyToolchain/0.2.0/arm/arm-none-eabi/include/c++/10.3.1/bits/std_function.h ****        *  @post @c !(bool)*this
 329:/Library/DaisyToolchain/0.2.0/arm/arm-none-eabi/include/c++/10.3.1/bits/std_function.h ****        */
 330:/Library/DaisyToolchain/0.2.0/arm/arm-none-eabi/include/c++/10.3.1/bits/std_function.h ****       function() noexcept
 331:/Library/DaisyToolchain/0.2.0/arm/arm-none-eabi/include/c++/10.3.1/bits/std_function.h ****       : _Function_base() { }
 332:/Library/DaisyToolchain/0.2.0/arm/arm-none-eabi/include/c++/10.3.1/bits/std_function.h **** 
 333:/Library/DaisyToolchain/0.2.0/arm/arm-none-eabi/include/c++/10.3.1/bits/std_function.h ****       /**
 334:/Library/DaisyToolchain/0.2.0/arm/arm-none-eabi/include/c++/10.3.1/bits/std_function.h ****        *  @brief Creates an empty function call wrapper.
 335:/Library/DaisyToolchain/0.2.0/arm/arm-none-eabi/include/c++/10.3.1/bits/std_function.h ****        *  @post @c !(bool)*this
 336:/Library/DaisyToolchain/0.2.0/arm/arm-none-eabi/include/c++/10.3.1/bits/std_function.h ****        */
 337:/Library/DaisyToolchain/0.2.0/arm/arm-none-eabi/include/c++/10.3.1/bits/std_function.h ****       function(nullptr_t) noexcept
 338:/Library/DaisyToolchain/0.2.0/arm/arm-none-eabi/include/c++/10.3.1/bits/std_function.h ****       : _Function_base() { }
 339:/Library/DaisyToolchain/0.2.0/arm/arm-none-eabi/include/c++/10.3.1/bits/std_function.h **** 
 340:/Library/DaisyToolchain/0.2.0/arm/arm-none-eabi/include/c++/10.3.1/bits/std_function.h ****       /**
 341:/Library/DaisyToolchain/0.2.0/arm/arm-none-eabi/include/c++/10.3.1/bits/std_function.h ****        *  @brief %Function copy constructor.
 342:/Library/DaisyToolchain/0.2.0/arm/arm-none-eabi/include/c++/10.3.1/bits/std_function.h ****        *  @param __x A %function object with identical call signature.
 343:/Library/DaisyToolchain/0.2.0/arm/arm-none-eabi/include/c++/10.3.1/bits/std_function.h ****        *  @post @c bool(*this) == bool(__x)
 344:/Library/DaisyToolchain/0.2.0/arm/arm-none-eabi/include/c++/10.3.1/bits/std_function.h ****        *
 345:/Library/DaisyToolchain/0.2.0/arm/arm-none-eabi/include/c++/10.3.1/bits/std_function.h ****        *  The newly-created %function contains a copy of the target of @a
 346:/Library/DaisyToolchain/0.2.0/arm/arm-none-eabi/include/c++/10.3.1/bits/std_function.h ****        *  __x (if it has one).
 347:/Library/DaisyToolchain/0.2.0/arm/arm-none-eabi/include/c++/10.3.1/bits/std_function.h ****        */
 348:/Library/DaisyToolchain/0.2.0/arm/arm-none-eabi/include/c++/10.3.1/bits/std_function.h ****       function(const function& __x);
 349:/Library/DaisyToolchain/0.2.0/arm/arm-none-eabi/include/c++/10.3.1/bits/std_function.h **** 
 350:/Library/DaisyToolchain/0.2.0/arm/arm-none-eabi/include/c++/10.3.1/bits/std_function.h ****       /**
 351:/Library/DaisyToolchain/0.2.0/arm/arm-none-eabi/include/c++/10.3.1/bits/std_function.h ****        *  @brief %Function move constructor.
 352:/Library/DaisyToolchain/0.2.0/arm/arm-none-eabi/include/c++/10.3.1/bits/std_function.h ****        *  @param __x A %function object rvalue with identical call signature.
 353:/Library/DaisyToolchain/0.2.0/arm/arm-none-eabi/include/c++/10.3.1/bits/std_function.h ****        *
 354:/Library/DaisyToolchain/0.2.0/arm/arm-none-eabi/include/c++/10.3.1/bits/std_function.h ****        *  The newly-created %function contains the target of @a __x
 355:/Library/DaisyToolchain/0.2.0/arm/arm-none-eabi/include/c++/10.3.1/bits/std_function.h ****        *  (if it has one).
 356:/Library/DaisyToolchain/0.2.0/arm/arm-none-eabi/include/c++/10.3.1/bits/std_function.h ****        */
 357:/Library/DaisyToolchain/0.2.0/arm/arm-none-eabi/include/c++/10.3.1/bits/std_function.h ****       function(function&& __x) noexcept : _Function_base()
 358:/Library/DaisyToolchain/0.2.0/arm/arm-none-eabi/include/c++/10.3.1/bits/std_function.h ****       {
 359:/Library/DaisyToolchain/0.2.0/arm/arm-none-eabi/include/c++/10.3.1/bits/std_function.h **** 	__x.swap(*this);
 360:/Library/DaisyToolchain/0.2.0/arm/arm-none-eabi/include/c++/10.3.1/bits/std_function.h ****       }
 361:/Library/DaisyToolchain/0.2.0/arm/arm-none-eabi/include/c++/10.3.1/bits/std_function.h **** 
 362:/Library/DaisyToolchain/0.2.0/arm/arm-none-eabi/include/c++/10.3.1/bits/std_function.h ****       /**
 363:/Library/DaisyToolchain/0.2.0/arm/arm-none-eabi/include/c++/10.3.1/bits/std_function.h ****        *  @brief Builds a %function that targets a copy of the incoming
 364:/Library/DaisyToolchain/0.2.0/arm/arm-none-eabi/include/c++/10.3.1/bits/std_function.h ****        *  function object.
 365:/Library/DaisyToolchain/0.2.0/arm/arm-none-eabi/include/c++/10.3.1/bits/std_function.h ****        *  @param __f A %function object that is callable with parameters of
 366:/Library/DaisyToolchain/0.2.0/arm/arm-none-eabi/include/c++/10.3.1/bits/std_function.h ****        *  type @c T1, @c T2, ..., @c TN and returns a value convertible
 367:/Library/DaisyToolchain/0.2.0/arm/arm-none-eabi/include/c++/10.3.1/bits/std_function.h ****        *  to @c Res.
 368:/Library/DaisyToolchain/0.2.0/arm/arm-none-eabi/include/c++/10.3.1/bits/std_function.h ****        *
 369:/Library/DaisyToolchain/0.2.0/arm/arm-none-eabi/include/c++/10.3.1/bits/std_function.h ****        *  The newly-created %function object will target a copy of
 370:/Library/DaisyToolchain/0.2.0/arm/arm-none-eabi/include/c++/10.3.1/bits/std_function.h ****        *  @a __f. If @a __f is @c reference_wrapper<F>, then this function
 371:/Library/DaisyToolchain/0.2.0/arm/arm-none-eabi/include/c++/10.3.1/bits/std_function.h ****        *  object will contain a reference to the function object @c
 372:/Library/DaisyToolchain/0.2.0/arm/arm-none-eabi/include/c++/10.3.1/bits/std_function.h ****        *  __f.get(). If @a __f is a NULL function pointer or NULL
 373:/Library/DaisyToolchain/0.2.0/arm/arm-none-eabi/include/c++/10.3.1/bits/std_function.h ****        *  pointer-to-member, the newly-created object will be empty.
 374:/Library/DaisyToolchain/0.2.0/arm/arm-none-eabi/include/c++/10.3.1/bits/std_function.h ****        *
 375:/Library/DaisyToolchain/0.2.0/arm/arm-none-eabi/include/c++/10.3.1/bits/std_function.h ****        *  If @a __f is a non-NULL function pointer or an object of type @c
 376:/Library/DaisyToolchain/0.2.0/arm/arm-none-eabi/include/c++/10.3.1/bits/std_function.h ****        *  reference_wrapper<F>, this function will not throw.
 377:/Library/DaisyToolchain/0.2.0/arm/arm-none-eabi/include/c++/10.3.1/bits/std_function.h ****        */
 378:/Library/DaisyToolchain/0.2.0/arm/arm-none-eabi/include/c++/10.3.1/bits/std_function.h ****       template<typename _Functor,
 379:/Library/DaisyToolchain/0.2.0/arm/arm-none-eabi/include/c++/10.3.1/bits/std_function.h **** 	       typename = _Requires<__not_<is_same<_Functor, function>>, void>,
 380:/Library/DaisyToolchain/0.2.0/arm/arm-none-eabi/include/c++/10.3.1/bits/std_function.h **** 	       typename = _Requires<_Callable<_Functor>, void>>
 381:/Library/DaisyToolchain/0.2.0/arm/arm-none-eabi/include/c++/10.3.1/bits/std_function.h **** 	function(_Functor);
 382:/Library/DaisyToolchain/0.2.0/arm/arm-none-eabi/include/c++/10.3.1/bits/std_function.h **** 
ARM GAS  /var/folders/wz/z09yph4n0qj4t7mjxhl6ttn80000gn/T//ccNrSY5I.s 			page 53


 383:/Library/DaisyToolchain/0.2.0/arm/arm-none-eabi/include/c++/10.3.1/bits/std_function.h ****       /**
 384:/Library/DaisyToolchain/0.2.0/arm/arm-none-eabi/include/c++/10.3.1/bits/std_function.h ****        *  @brief %Function assignment operator.
 385:/Library/DaisyToolchain/0.2.0/arm/arm-none-eabi/include/c++/10.3.1/bits/std_function.h ****        *  @param __x A %function with identical call signature.
 386:/Library/DaisyToolchain/0.2.0/arm/arm-none-eabi/include/c++/10.3.1/bits/std_function.h ****        *  @post @c (bool)*this == (bool)x
 387:/Library/DaisyToolchain/0.2.0/arm/arm-none-eabi/include/c++/10.3.1/bits/std_function.h ****        *  @returns @c *this
 388:/Library/DaisyToolchain/0.2.0/arm/arm-none-eabi/include/c++/10.3.1/bits/std_function.h ****        *
 389:/Library/DaisyToolchain/0.2.0/arm/arm-none-eabi/include/c++/10.3.1/bits/std_function.h ****        *  The target of @a __x is copied to @c *this. If @a __x has no
 390:/Library/DaisyToolchain/0.2.0/arm/arm-none-eabi/include/c++/10.3.1/bits/std_function.h ****        *  target, then @c *this will be empty.
 391:/Library/DaisyToolchain/0.2.0/arm/arm-none-eabi/include/c++/10.3.1/bits/std_function.h ****        *
 392:/Library/DaisyToolchain/0.2.0/arm/arm-none-eabi/include/c++/10.3.1/bits/std_function.h ****        *  If @a __x targets a function pointer or a reference to a function
 393:/Library/DaisyToolchain/0.2.0/arm/arm-none-eabi/include/c++/10.3.1/bits/std_function.h ****        *  object, then this operation will not throw an %exception.
 394:/Library/DaisyToolchain/0.2.0/arm/arm-none-eabi/include/c++/10.3.1/bits/std_function.h ****        */
 395:/Library/DaisyToolchain/0.2.0/arm/arm-none-eabi/include/c++/10.3.1/bits/std_function.h ****       function&
 396:/Library/DaisyToolchain/0.2.0/arm/arm-none-eabi/include/c++/10.3.1/bits/std_function.h ****       operator=(const function& __x)
 397:/Library/DaisyToolchain/0.2.0/arm/arm-none-eabi/include/c++/10.3.1/bits/std_function.h ****       {
 398:/Library/DaisyToolchain/0.2.0/arm/arm-none-eabi/include/c++/10.3.1/bits/std_function.h **** 	function(__x).swap(*this);
 399:/Library/DaisyToolchain/0.2.0/arm/arm-none-eabi/include/c++/10.3.1/bits/std_function.h **** 	return *this;
 400:/Library/DaisyToolchain/0.2.0/arm/arm-none-eabi/include/c++/10.3.1/bits/std_function.h ****       }
 401:/Library/DaisyToolchain/0.2.0/arm/arm-none-eabi/include/c++/10.3.1/bits/std_function.h **** 
 402:/Library/DaisyToolchain/0.2.0/arm/arm-none-eabi/include/c++/10.3.1/bits/std_function.h ****       /**
 403:/Library/DaisyToolchain/0.2.0/arm/arm-none-eabi/include/c++/10.3.1/bits/std_function.h ****        *  @brief %Function move-assignment operator.
 404:/Library/DaisyToolchain/0.2.0/arm/arm-none-eabi/include/c++/10.3.1/bits/std_function.h ****        *  @param __x A %function rvalue with identical call signature.
 405:/Library/DaisyToolchain/0.2.0/arm/arm-none-eabi/include/c++/10.3.1/bits/std_function.h ****        *  @returns @c *this
 406:/Library/DaisyToolchain/0.2.0/arm/arm-none-eabi/include/c++/10.3.1/bits/std_function.h ****        *
 407:/Library/DaisyToolchain/0.2.0/arm/arm-none-eabi/include/c++/10.3.1/bits/std_function.h ****        *  The target of @a __x is moved to @c *this. If @a __x has no
 408:/Library/DaisyToolchain/0.2.0/arm/arm-none-eabi/include/c++/10.3.1/bits/std_function.h ****        *  target, then @c *this will be empty.
 409:/Library/DaisyToolchain/0.2.0/arm/arm-none-eabi/include/c++/10.3.1/bits/std_function.h ****        *
 410:/Library/DaisyToolchain/0.2.0/arm/arm-none-eabi/include/c++/10.3.1/bits/std_function.h ****        *  If @a __x targets a function pointer or a reference to a function
 411:/Library/DaisyToolchain/0.2.0/arm/arm-none-eabi/include/c++/10.3.1/bits/std_function.h ****        *  object, then this operation will not throw an %exception.
 412:/Library/DaisyToolchain/0.2.0/arm/arm-none-eabi/include/c++/10.3.1/bits/std_function.h ****        */
 413:/Library/DaisyToolchain/0.2.0/arm/arm-none-eabi/include/c++/10.3.1/bits/std_function.h ****       function&
 414:/Library/DaisyToolchain/0.2.0/arm/arm-none-eabi/include/c++/10.3.1/bits/std_function.h ****       operator=(function&& __x) noexcept
 415:/Library/DaisyToolchain/0.2.0/arm/arm-none-eabi/include/c++/10.3.1/bits/std_function.h ****       {
 416:/Library/DaisyToolchain/0.2.0/arm/arm-none-eabi/include/c++/10.3.1/bits/std_function.h **** 	function(std::move(__x)).swap(*this);
 417:/Library/DaisyToolchain/0.2.0/arm/arm-none-eabi/include/c++/10.3.1/bits/std_function.h **** 	return *this;
 418:/Library/DaisyToolchain/0.2.0/arm/arm-none-eabi/include/c++/10.3.1/bits/std_function.h ****       }
 419:/Library/DaisyToolchain/0.2.0/arm/arm-none-eabi/include/c++/10.3.1/bits/std_function.h **** 
 420:/Library/DaisyToolchain/0.2.0/arm/arm-none-eabi/include/c++/10.3.1/bits/std_function.h ****       /**
 421:/Library/DaisyToolchain/0.2.0/arm/arm-none-eabi/include/c++/10.3.1/bits/std_function.h ****        *  @brief %Function assignment to zero.
 422:/Library/DaisyToolchain/0.2.0/arm/arm-none-eabi/include/c++/10.3.1/bits/std_function.h ****        *  @post @c !(bool)*this
 423:/Library/DaisyToolchain/0.2.0/arm/arm-none-eabi/include/c++/10.3.1/bits/std_function.h ****        *  @returns @c *this
 424:/Library/DaisyToolchain/0.2.0/arm/arm-none-eabi/include/c++/10.3.1/bits/std_function.h ****        *
 425:/Library/DaisyToolchain/0.2.0/arm/arm-none-eabi/include/c++/10.3.1/bits/std_function.h ****        *  The target of @c *this is deallocated, leaving it empty.
 426:/Library/DaisyToolchain/0.2.0/arm/arm-none-eabi/include/c++/10.3.1/bits/std_function.h ****        */
 427:/Library/DaisyToolchain/0.2.0/arm/arm-none-eabi/include/c++/10.3.1/bits/std_function.h ****       function&
 428:/Library/DaisyToolchain/0.2.0/arm/arm-none-eabi/include/c++/10.3.1/bits/std_function.h ****       operator=(nullptr_t) noexcept
 429:/Library/DaisyToolchain/0.2.0/arm/arm-none-eabi/include/c++/10.3.1/bits/std_function.h ****       {
 430:/Library/DaisyToolchain/0.2.0/arm/arm-none-eabi/include/c++/10.3.1/bits/std_function.h **** 	if (_M_manager)
 431:/Library/DaisyToolchain/0.2.0/arm/arm-none-eabi/include/c++/10.3.1/bits/std_function.h **** 	  {
 432:/Library/DaisyToolchain/0.2.0/arm/arm-none-eabi/include/c++/10.3.1/bits/std_function.h **** 	    _M_manager(_M_functor, _M_functor, __destroy_functor);
 433:/Library/DaisyToolchain/0.2.0/arm/arm-none-eabi/include/c++/10.3.1/bits/std_function.h **** 	    _M_manager = nullptr;
 434:/Library/DaisyToolchain/0.2.0/arm/arm-none-eabi/include/c++/10.3.1/bits/std_function.h **** 	    _M_invoker = nullptr;
 435:/Library/DaisyToolchain/0.2.0/arm/arm-none-eabi/include/c++/10.3.1/bits/std_function.h **** 	  }
 436:/Library/DaisyToolchain/0.2.0/arm/arm-none-eabi/include/c++/10.3.1/bits/std_function.h **** 	return *this;
 437:/Library/DaisyToolchain/0.2.0/arm/arm-none-eabi/include/c++/10.3.1/bits/std_function.h ****       }
 438:/Library/DaisyToolchain/0.2.0/arm/arm-none-eabi/include/c++/10.3.1/bits/std_function.h **** 
 439:/Library/DaisyToolchain/0.2.0/arm/arm-none-eabi/include/c++/10.3.1/bits/std_function.h ****       /**
ARM GAS  /var/folders/wz/z09yph4n0qj4t7mjxhl6ttn80000gn/T//ccNrSY5I.s 			page 54


 440:/Library/DaisyToolchain/0.2.0/arm/arm-none-eabi/include/c++/10.3.1/bits/std_function.h ****        *  @brief %Function assignment to a new target.
 441:/Library/DaisyToolchain/0.2.0/arm/arm-none-eabi/include/c++/10.3.1/bits/std_function.h ****        *  @param __f A %function object that is callable with parameters of
 442:/Library/DaisyToolchain/0.2.0/arm/arm-none-eabi/include/c++/10.3.1/bits/std_function.h ****        *  type @c T1, @c T2, ..., @c TN and returns a value convertible
 443:/Library/DaisyToolchain/0.2.0/arm/arm-none-eabi/include/c++/10.3.1/bits/std_function.h ****        *  to @c Res.
 444:/Library/DaisyToolchain/0.2.0/arm/arm-none-eabi/include/c++/10.3.1/bits/std_function.h ****        *  @return @c *this
 445:/Library/DaisyToolchain/0.2.0/arm/arm-none-eabi/include/c++/10.3.1/bits/std_function.h ****        *
 446:/Library/DaisyToolchain/0.2.0/arm/arm-none-eabi/include/c++/10.3.1/bits/std_function.h ****        *  This  %function object wrapper will target a copy of @a
 447:/Library/DaisyToolchain/0.2.0/arm/arm-none-eabi/include/c++/10.3.1/bits/std_function.h ****        *  __f. If @a __f is @c reference_wrapper<F>, then this function
 448:/Library/DaisyToolchain/0.2.0/arm/arm-none-eabi/include/c++/10.3.1/bits/std_function.h ****        *  object will contain a reference to the function object @c
 449:/Library/DaisyToolchain/0.2.0/arm/arm-none-eabi/include/c++/10.3.1/bits/std_function.h ****        *  __f.get(). If @a __f is a NULL function pointer or NULL
 450:/Library/DaisyToolchain/0.2.0/arm/arm-none-eabi/include/c++/10.3.1/bits/std_function.h ****        *  pointer-to-member, @c this object will be empty.
 451:/Library/DaisyToolchain/0.2.0/arm/arm-none-eabi/include/c++/10.3.1/bits/std_function.h ****        *
 452:/Library/DaisyToolchain/0.2.0/arm/arm-none-eabi/include/c++/10.3.1/bits/std_function.h ****        *  If @a __f is a non-NULL function pointer or an object of type @c
 453:/Library/DaisyToolchain/0.2.0/arm/arm-none-eabi/include/c++/10.3.1/bits/std_function.h ****        *  reference_wrapper<F>, this function will not throw.
 454:/Library/DaisyToolchain/0.2.0/arm/arm-none-eabi/include/c++/10.3.1/bits/std_function.h ****        */
 455:/Library/DaisyToolchain/0.2.0/arm/arm-none-eabi/include/c++/10.3.1/bits/std_function.h ****       template<typename _Functor>
 456:/Library/DaisyToolchain/0.2.0/arm/arm-none-eabi/include/c++/10.3.1/bits/std_function.h **** 	_Requires<_Callable<typename decay<_Functor>::type>, function&>
 457:/Library/DaisyToolchain/0.2.0/arm/arm-none-eabi/include/c++/10.3.1/bits/std_function.h **** 	operator=(_Functor&& __f)
 458:/Library/DaisyToolchain/0.2.0/arm/arm-none-eabi/include/c++/10.3.1/bits/std_function.h **** 	{
 459:/Library/DaisyToolchain/0.2.0/arm/arm-none-eabi/include/c++/10.3.1/bits/std_function.h **** 	  function(std::forward<_Functor>(__f)).swap(*this);
 460:/Library/DaisyToolchain/0.2.0/arm/arm-none-eabi/include/c++/10.3.1/bits/std_function.h **** 	  return *this;
 461:/Library/DaisyToolchain/0.2.0/arm/arm-none-eabi/include/c++/10.3.1/bits/std_function.h **** 	}
 462:/Library/DaisyToolchain/0.2.0/arm/arm-none-eabi/include/c++/10.3.1/bits/std_function.h **** 
 463:/Library/DaisyToolchain/0.2.0/arm/arm-none-eabi/include/c++/10.3.1/bits/std_function.h ****       /// @overload
 464:/Library/DaisyToolchain/0.2.0/arm/arm-none-eabi/include/c++/10.3.1/bits/std_function.h ****       template<typename _Functor>
 465:/Library/DaisyToolchain/0.2.0/arm/arm-none-eabi/include/c++/10.3.1/bits/std_function.h **** 	function&
 466:/Library/DaisyToolchain/0.2.0/arm/arm-none-eabi/include/c++/10.3.1/bits/std_function.h **** 	operator=(reference_wrapper<_Functor> __f) noexcept
 467:/Library/DaisyToolchain/0.2.0/arm/arm-none-eabi/include/c++/10.3.1/bits/std_function.h **** 	{
 468:/Library/DaisyToolchain/0.2.0/arm/arm-none-eabi/include/c++/10.3.1/bits/std_function.h **** 	  function(__f).swap(*this);
 469:/Library/DaisyToolchain/0.2.0/arm/arm-none-eabi/include/c++/10.3.1/bits/std_function.h **** 	  return *this;
 470:/Library/DaisyToolchain/0.2.0/arm/arm-none-eabi/include/c++/10.3.1/bits/std_function.h **** 	}
 471:/Library/DaisyToolchain/0.2.0/arm/arm-none-eabi/include/c++/10.3.1/bits/std_function.h **** 
 472:/Library/DaisyToolchain/0.2.0/arm/arm-none-eabi/include/c++/10.3.1/bits/std_function.h ****       // [3.7.2.2] function modifiers
 473:/Library/DaisyToolchain/0.2.0/arm/arm-none-eabi/include/c++/10.3.1/bits/std_function.h **** 
 474:/Library/DaisyToolchain/0.2.0/arm/arm-none-eabi/include/c++/10.3.1/bits/std_function.h ****       /**
 475:/Library/DaisyToolchain/0.2.0/arm/arm-none-eabi/include/c++/10.3.1/bits/std_function.h ****        *  @brief Swap the targets of two %function objects.
 476:/Library/DaisyToolchain/0.2.0/arm/arm-none-eabi/include/c++/10.3.1/bits/std_function.h ****        *  @param __x A %function with identical call signature.
 477:/Library/DaisyToolchain/0.2.0/arm/arm-none-eabi/include/c++/10.3.1/bits/std_function.h ****        *
 478:/Library/DaisyToolchain/0.2.0/arm/arm-none-eabi/include/c++/10.3.1/bits/std_function.h ****        *  Swap the targets of @c this function object and @a __f. This
 479:/Library/DaisyToolchain/0.2.0/arm/arm-none-eabi/include/c++/10.3.1/bits/std_function.h ****        *  function will not throw an %exception.
 480:/Library/DaisyToolchain/0.2.0/arm/arm-none-eabi/include/c++/10.3.1/bits/std_function.h ****        */
 481:/Library/DaisyToolchain/0.2.0/arm/arm-none-eabi/include/c++/10.3.1/bits/std_function.h ****       void swap(function& __x) noexcept
 482:/Library/DaisyToolchain/0.2.0/arm/arm-none-eabi/include/c++/10.3.1/bits/std_function.h ****       {
 483:/Library/DaisyToolchain/0.2.0/arm/arm-none-eabi/include/c++/10.3.1/bits/std_function.h **** 	std::swap(_M_functor, __x._M_functor);
 484:/Library/DaisyToolchain/0.2.0/arm/arm-none-eabi/include/c++/10.3.1/bits/std_function.h **** 	std::swap(_M_manager, __x._M_manager);
 485:/Library/DaisyToolchain/0.2.0/arm/arm-none-eabi/include/c++/10.3.1/bits/std_function.h **** 	std::swap(_M_invoker, __x._M_invoker);
 486:/Library/DaisyToolchain/0.2.0/arm/arm-none-eabi/include/c++/10.3.1/bits/std_function.h ****       }
 487:/Library/DaisyToolchain/0.2.0/arm/arm-none-eabi/include/c++/10.3.1/bits/std_function.h **** 
 488:/Library/DaisyToolchain/0.2.0/arm/arm-none-eabi/include/c++/10.3.1/bits/std_function.h ****       // [3.7.2.3] function capacity
 489:/Library/DaisyToolchain/0.2.0/arm/arm-none-eabi/include/c++/10.3.1/bits/std_function.h **** 
 490:/Library/DaisyToolchain/0.2.0/arm/arm-none-eabi/include/c++/10.3.1/bits/std_function.h ****       /**
 491:/Library/DaisyToolchain/0.2.0/arm/arm-none-eabi/include/c++/10.3.1/bits/std_function.h ****        *  @brief Determine if the %function wrapper has a target.
 492:/Library/DaisyToolchain/0.2.0/arm/arm-none-eabi/include/c++/10.3.1/bits/std_function.h ****        *
 493:/Library/DaisyToolchain/0.2.0/arm/arm-none-eabi/include/c++/10.3.1/bits/std_function.h ****        *  @return @c true when this %function object contains a target,
 494:/Library/DaisyToolchain/0.2.0/arm/arm-none-eabi/include/c++/10.3.1/bits/std_function.h ****        *  or @c false when it is empty.
 495:/Library/DaisyToolchain/0.2.0/arm/arm-none-eabi/include/c++/10.3.1/bits/std_function.h ****        *
 496:/Library/DaisyToolchain/0.2.0/arm/arm-none-eabi/include/c++/10.3.1/bits/std_function.h ****        *  This function will not throw an %exception.
ARM GAS  /var/folders/wz/z09yph4n0qj4t7mjxhl6ttn80000gn/T//ccNrSY5I.s 			page 55


 497:/Library/DaisyToolchain/0.2.0/arm/arm-none-eabi/include/c++/10.3.1/bits/std_function.h ****        */
 498:/Library/DaisyToolchain/0.2.0/arm/arm-none-eabi/include/c++/10.3.1/bits/std_function.h ****       explicit operator bool() const noexcept
 499:/Library/DaisyToolchain/0.2.0/arm/arm-none-eabi/include/c++/10.3.1/bits/std_function.h ****       { return !_M_empty(); }
 500:/Library/DaisyToolchain/0.2.0/arm/arm-none-eabi/include/c++/10.3.1/bits/std_function.h **** 
 501:/Library/DaisyToolchain/0.2.0/arm/arm-none-eabi/include/c++/10.3.1/bits/std_function.h ****       // [3.7.2.4] function invocation
 502:/Library/DaisyToolchain/0.2.0/arm/arm-none-eabi/include/c++/10.3.1/bits/std_function.h **** 
 503:/Library/DaisyToolchain/0.2.0/arm/arm-none-eabi/include/c++/10.3.1/bits/std_function.h ****       /**
 504:/Library/DaisyToolchain/0.2.0/arm/arm-none-eabi/include/c++/10.3.1/bits/std_function.h ****        *  @brief Invokes the function targeted by @c *this.
 505:/Library/DaisyToolchain/0.2.0/arm/arm-none-eabi/include/c++/10.3.1/bits/std_function.h ****        *  @returns the result of the target.
 506:/Library/DaisyToolchain/0.2.0/arm/arm-none-eabi/include/c++/10.3.1/bits/std_function.h ****        *  @throws bad_function_call when @c !(bool)*this
 507:/Library/DaisyToolchain/0.2.0/arm/arm-none-eabi/include/c++/10.3.1/bits/std_function.h ****        *
 508:/Library/DaisyToolchain/0.2.0/arm/arm-none-eabi/include/c++/10.3.1/bits/std_function.h ****        *  The function call operator invokes the target function object
 509:/Library/DaisyToolchain/0.2.0/arm/arm-none-eabi/include/c++/10.3.1/bits/std_function.h ****        *  stored by @c this.
 510:/Library/DaisyToolchain/0.2.0/arm/arm-none-eabi/include/c++/10.3.1/bits/std_function.h ****        */
 511:/Library/DaisyToolchain/0.2.0/arm/arm-none-eabi/include/c++/10.3.1/bits/std_function.h ****       _Res operator()(_ArgTypes... __args) const;
 512:/Library/DaisyToolchain/0.2.0/arm/arm-none-eabi/include/c++/10.3.1/bits/std_function.h **** 
 513:/Library/DaisyToolchain/0.2.0/arm/arm-none-eabi/include/c++/10.3.1/bits/std_function.h **** #if __cpp_rtti
 514:/Library/DaisyToolchain/0.2.0/arm/arm-none-eabi/include/c++/10.3.1/bits/std_function.h ****       // [3.7.2.5] function target access
 515:/Library/DaisyToolchain/0.2.0/arm/arm-none-eabi/include/c++/10.3.1/bits/std_function.h ****       /**
 516:/Library/DaisyToolchain/0.2.0/arm/arm-none-eabi/include/c++/10.3.1/bits/std_function.h ****        *  @brief Determine the type of the target of this function object
 517:/Library/DaisyToolchain/0.2.0/arm/arm-none-eabi/include/c++/10.3.1/bits/std_function.h ****        *  wrapper.
 518:/Library/DaisyToolchain/0.2.0/arm/arm-none-eabi/include/c++/10.3.1/bits/std_function.h ****        *
 519:/Library/DaisyToolchain/0.2.0/arm/arm-none-eabi/include/c++/10.3.1/bits/std_function.h ****        *  @returns the type identifier of the target function object, or
 520:/Library/DaisyToolchain/0.2.0/arm/arm-none-eabi/include/c++/10.3.1/bits/std_function.h ****        *  @c typeid(void) if @c !(bool)*this.
 521:/Library/DaisyToolchain/0.2.0/arm/arm-none-eabi/include/c++/10.3.1/bits/std_function.h ****        *
 522:/Library/DaisyToolchain/0.2.0/arm/arm-none-eabi/include/c++/10.3.1/bits/std_function.h ****        *  This function will not throw an %exception.
 523:/Library/DaisyToolchain/0.2.0/arm/arm-none-eabi/include/c++/10.3.1/bits/std_function.h ****        */
 524:/Library/DaisyToolchain/0.2.0/arm/arm-none-eabi/include/c++/10.3.1/bits/std_function.h ****       const type_info& target_type() const noexcept;
 525:/Library/DaisyToolchain/0.2.0/arm/arm-none-eabi/include/c++/10.3.1/bits/std_function.h **** 
 526:/Library/DaisyToolchain/0.2.0/arm/arm-none-eabi/include/c++/10.3.1/bits/std_function.h ****       /**
 527:/Library/DaisyToolchain/0.2.0/arm/arm-none-eabi/include/c++/10.3.1/bits/std_function.h ****        *  @brief Access the stored target function object.
 528:/Library/DaisyToolchain/0.2.0/arm/arm-none-eabi/include/c++/10.3.1/bits/std_function.h ****        *
 529:/Library/DaisyToolchain/0.2.0/arm/arm-none-eabi/include/c++/10.3.1/bits/std_function.h ****        *  @return Returns a pointer to the stored target function object,
 530:/Library/DaisyToolchain/0.2.0/arm/arm-none-eabi/include/c++/10.3.1/bits/std_function.h ****        *  if @c typeid(_Functor).equals(target_type()); otherwise, a NULL
 531:/Library/DaisyToolchain/0.2.0/arm/arm-none-eabi/include/c++/10.3.1/bits/std_function.h ****        *  pointer.
 532:/Library/DaisyToolchain/0.2.0/arm/arm-none-eabi/include/c++/10.3.1/bits/std_function.h ****        *
 533:/Library/DaisyToolchain/0.2.0/arm/arm-none-eabi/include/c++/10.3.1/bits/std_function.h ****        * This function does not throw exceptions.
 534:/Library/DaisyToolchain/0.2.0/arm/arm-none-eabi/include/c++/10.3.1/bits/std_function.h ****        *
 535:/Library/DaisyToolchain/0.2.0/arm/arm-none-eabi/include/c++/10.3.1/bits/std_function.h ****        * @{
 536:/Library/DaisyToolchain/0.2.0/arm/arm-none-eabi/include/c++/10.3.1/bits/std_function.h ****        */
 537:/Library/DaisyToolchain/0.2.0/arm/arm-none-eabi/include/c++/10.3.1/bits/std_function.h ****       template<typename _Functor>       _Functor* target() noexcept;
 538:/Library/DaisyToolchain/0.2.0/arm/arm-none-eabi/include/c++/10.3.1/bits/std_function.h **** 
 539:/Library/DaisyToolchain/0.2.0/arm/arm-none-eabi/include/c++/10.3.1/bits/std_function.h ****       template<typename _Functor> const _Functor* target() const noexcept;
 540:/Library/DaisyToolchain/0.2.0/arm/arm-none-eabi/include/c++/10.3.1/bits/std_function.h ****       /// @}
 541:/Library/DaisyToolchain/0.2.0/arm/arm-none-eabi/include/c++/10.3.1/bits/std_function.h **** #endif
 542:/Library/DaisyToolchain/0.2.0/arm/arm-none-eabi/include/c++/10.3.1/bits/std_function.h **** 
 543:/Library/DaisyToolchain/0.2.0/arm/arm-none-eabi/include/c++/10.3.1/bits/std_function.h ****     private:
 544:/Library/DaisyToolchain/0.2.0/arm/arm-none-eabi/include/c++/10.3.1/bits/std_function.h ****       using _Invoker_type = _Res (*)(const _Any_data&, _ArgTypes&&...);
 545:/Library/DaisyToolchain/0.2.0/arm/arm-none-eabi/include/c++/10.3.1/bits/std_function.h ****       _Invoker_type _M_invoker;
 546:/Library/DaisyToolchain/0.2.0/arm/arm-none-eabi/include/c++/10.3.1/bits/std_function.h ****   };
 547:/Library/DaisyToolchain/0.2.0/arm/arm-none-eabi/include/c++/10.3.1/bits/std_function.h **** 
 548:/Library/DaisyToolchain/0.2.0/arm/arm-none-eabi/include/c++/10.3.1/bits/std_function.h **** #if __cpp_deduction_guides >= 201606
 549:/Library/DaisyToolchain/0.2.0/arm/arm-none-eabi/include/c++/10.3.1/bits/std_function.h ****   template<typename>
 550:/Library/DaisyToolchain/0.2.0/arm/arm-none-eabi/include/c++/10.3.1/bits/std_function.h ****     struct __function_guide_helper
 551:/Library/DaisyToolchain/0.2.0/arm/arm-none-eabi/include/c++/10.3.1/bits/std_function.h ****     { };
 552:/Library/DaisyToolchain/0.2.0/arm/arm-none-eabi/include/c++/10.3.1/bits/std_function.h **** 
 553:/Library/DaisyToolchain/0.2.0/arm/arm-none-eabi/include/c++/10.3.1/bits/std_function.h ****   template<typename _Res, typename _Tp, bool _Nx, typename... _Args>
ARM GAS  /var/folders/wz/z09yph4n0qj4t7mjxhl6ttn80000gn/T//ccNrSY5I.s 			page 56


 554:/Library/DaisyToolchain/0.2.0/arm/arm-none-eabi/include/c++/10.3.1/bits/std_function.h ****     struct __function_guide_helper<
 555:/Library/DaisyToolchain/0.2.0/arm/arm-none-eabi/include/c++/10.3.1/bits/std_function.h ****       _Res (_Tp::*) (_Args...) noexcept(_Nx)
 556:/Library/DaisyToolchain/0.2.0/arm/arm-none-eabi/include/c++/10.3.1/bits/std_function.h ****     >
 557:/Library/DaisyToolchain/0.2.0/arm/arm-none-eabi/include/c++/10.3.1/bits/std_function.h ****     { using type = _Res(_Args...); };
 558:/Library/DaisyToolchain/0.2.0/arm/arm-none-eabi/include/c++/10.3.1/bits/std_function.h **** 
 559:/Library/DaisyToolchain/0.2.0/arm/arm-none-eabi/include/c++/10.3.1/bits/std_function.h ****   template<typename _Res, typename _Tp, bool _Nx, typename... _Args>
 560:/Library/DaisyToolchain/0.2.0/arm/arm-none-eabi/include/c++/10.3.1/bits/std_function.h ****     struct __function_guide_helper<
 561:/Library/DaisyToolchain/0.2.0/arm/arm-none-eabi/include/c++/10.3.1/bits/std_function.h ****       _Res (_Tp::*) (_Args...) & noexcept(_Nx)
 562:/Library/DaisyToolchain/0.2.0/arm/arm-none-eabi/include/c++/10.3.1/bits/std_function.h ****     >
 563:/Library/DaisyToolchain/0.2.0/arm/arm-none-eabi/include/c++/10.3.1/bits/std_function.h ****     { using type = _Res(_Args...); };
 564:/Library/DaisyToolchain/0.2.0/arm/arm-none-eabi/include/c++/10.3.1/bits/std_function.h **** 
 565:/Library/DaisyToolchain/0.2.0/arm/arm-none-eabi/include/c++/10.3.1/bits/std_function.h ****   template<typename _Res, typename _Tp, bool _Nx, typename... _Args>
 566:/Library/DaisyToolchain/0.2.0/arm/arm-none-eabi/include/c++/10.3.1/bits/std_function.h ****     struct __function_guide_helper<
 567:/Library/DaisyToolchain/0.2.0/arm/arm-none-eabi/include/c++/10.3.1/bits/std_function.h ****       _Res (_Tp::*) (_Args...) const noexcept(_Nx)
 568:/Library/DaisyToolchain/0.2.0/arm/arm-none-eabi/include/c++/10.3.1/bits/std_function.h ****     >
 569:/Library/DaisyToolchain/0.2.0/arm/arm-none-eabi/include/c++/10.3.1/bits/std_function.h ****     { using type = _Res(_Args...); };
 570:/Library/DaisyToolchain/0.2.0/arm/arm-none-eabi/include/c++/10.3.1/bits/std_function.h **** 
 571:/Library/DaisyToolchain/0.2.0/arm/arm-none-eabi/include/c++/10.3.1/bits/std_function.h ****   template<typename _Res, typename _Tp, bool _Nx, typename... _Args>
 572:/Library/DaisyToolchain/0.2.0/arm/arm-none-eabi/include/c++/10.3.1/bits/std_function.h ****     struct __function_guide_helper<
 573:/Library/DaisyToolchain/0.2.0/arm/arm-none-eabi/include/c++/10.3.1/bits/std_function.h ****       _Res (_Tp::*) (_Args...) const & noexcept(_Nx)
 574:/Library/DaisyToolchain/0.2.0/arm/arm-none-eabi/include/c++/10.3.1/bits/std_function.h ****     >
 575:/Library/DaisyToolchain/0.2.0/arm/arm-none-eabi/include/c++/10.3.1/bits/std_function.h ****     { using type = _Res(_Args...); };
 576:/Library/DaisyToolchain/0.2.0/arm/arm-none-eabi/include/c++/10.3.1/bits/std_function.h **** 
 577:/Library/DaisyToolchain/0.2.0/arm/arm-none-eabi/include/c++/10.3.1/bits/std_function.h ****   template<typename _Res, typename... _ArgTypes>
 578:/Library/DaisyToolchain/0.2.0/arm/arm-none-eabi/include/c++/10.3.1/bits/std_function.h ****     function(_Res(*)(_ArgTypes...)) -> function<_Res(_ArgTypes...)>;
 579:/Library/DaisyToolchain/0.2.0/arm/arm-none-eabi/include/c++/10.3.1/bits/std_function.h **** 
 580:/Library/DaisyToolchain/0.2.0/arm/arm-none-eabi/include/c++/10.3.1/bits/std_function.h ****   template<typename _Functor, typename _Signature = typename
 581:/Library/DaisyToolchain/0.2.0/arm/arm-none-eabi/include/c++/10.3.1/bits/std_function.h **** 	   __function_guide_helper<decltype(&_Functor::operator())>::type>
 582:/Library/DaisyToolchain/0.2.0/arm/arm-none-eabi/include/c++/10.3.1/bits/std_function.h ****     function(_Functor) -> function<_Signature>;
 583:/Library/DaisyToolchain/0.2.0/arm/arm-none-eabi/include/c++/10.3.1/bits/std_function.h **** #endif
 584:/Library/DaisyToolchain/0.2.0/arm/arm-none-eabi/include/c++/10.3.1/bits/std_function.h **** 
 585:/Library/DaisyToolchain/0.2.0/arm/arm-none-eabi/include/c++/10.3.1/bits/std_function.h ****   // Out-of-line member definitions.
 586:/Library/DaisyToolchain/0.2.0/arm/arm-none-eabi/include/c++/10.3.1/bits/std_function.h ****   template<typename _Res, typename... _ArgTypes>
 587:/Library/DaisyToolchain/0.2.0/arm/arm-none-eabi/include/c++/10.3.1/bits/std_function.h ****     function<_Res(_ArgTypes...)>::
 588:/Library/DaisyToolchain/0.2.0/arm/arm-none-eabi/include/c++/10.3.1/bits/std_function.h ****     function(const function& __x)
 589:/Library/DaisyToolchain/0.2.0/arm/arm-none-eabi/include/c++/10.3.1/bits/std_function.h ****     : _Function_base()
 590:/Library/DaisyToolchain/0.2.0/arm/arm-none-eabi/include/c++/10.3.1/bits/std_function.h ****     {
 591:/Library/DaisyToolchain/0.2.0/arm/arm-none-eabi/include/c++/10.3.1/bits/std_function.h ****       if (static_cast<bool>(__x))
 592:/Library/DaisyToolchain/0.2.0/arm/arm-none-eabi/include/c++/10.3.1/bits/std_function.h **** 	{
 593:/Library/DaisyToolchain/0.2.0/arm/arm-none-eabi/include/c++/10.3.1/bits/std_function.h **** 	  __x._M_manager(_M_functor, __x._M_functor, __clone_functor);
 594:/Library/DaisyToolchain/0.2.0/arm/arm-none-eabi/include/c++/10.3.1/bits/std_function.h **** 	  _M_invoker = __x._M_invoker;
 595:/Library/DaisyToolchain/0.2.0/arm/arm-none-eabi/include/c++/10.3.1/bits/std_function.h **** 	  _M_manager = __x._M_manager;
 596:/Library/DaisyToolchain/0.2.0/arm/arm-none-eabi/include/c++/10.3.1/bits/std_function.h **** 	}
 597:/Library/DaisyToolchain/0.2.0/arm/arm-none-eabi/include/c++/10.3.1/bits/std_function.h ****     }
 598:/Library/DaisyToolchain/0.2.0/arm/arm-none-eabi/include/c++/10.3.1/bits/std_function.h **** 
 599:/Library/DaisyToolchain/0.2.0/arm/arm-none-eabi/include/c++/10.3.1/bits/std_function.h ****   template<typename _Res, typename... _ArgTypes>
 600:/Library/DaisyToolchain/0.2.0/arm/arm-none-eabi/include/c++/10.3.1/bits/std_function.h ****     template<typename _Functor, typename, typename>
 601:/Library/DaisyToolchain/0.2.0/arm/arm-none-eabi/include/c++/10.3.1/bits/std_function.h ****       function<_Res(_ArgTypes...)>::
 602:/Library/DaisyToolchain/0.2.0/arm/arm-none-eabi/include/c++/10.3.1/bits/std_function.h ****       function(_Functor __f)
 603:/Library/DaisyToolchain/0.2.0/arm/arm-none-eabi/include/c++/10.3.1/bits/std_function.h ****       : _Function_base()
 604:/Library/DaisyToolchain/0.2.0/arm/arm-none-eabi/include/c++/10.3.1/bits/std_function.h ****       {
 605:/Library/DaisyToolchain/0.2.0/arm/arm-none-eabi/include/c++/10.3.1/bits/std_function.h **** 	typedef _Function_handler<_Res(_ArgTypes...), _Functor> _My_handler;
 606:/Library/DaisyToolchain/0.2.0/arm/arm-none-eabi/include/c++/10.3.1/bits/std_function.h **** 
 607:/Library/DaisyToolchain/0.2.0/arm/arm-none-eabi/include/c++/10.3.1/bits/std_function.h **** 	if (_My_handler::_M_not_empty_function(__f))
 608:/Library/DaisyToolchain/0.2.0/arm/arm-none-eabi/include/c++/10.3.1/bits/std_function.h **** 	  {
 609:/Library/DaisyToolchain/0.2.0/arm/arm-none-eabi/include/c++/10.3.1/bits/std_function.h **** 	    _My_handler::_M_init_functor(_M_functor, std::move(__f));
 610:/Library/DaisyToolchain/0.2.0/arm/arm-none-eabi/include/c++/10.3.1/bits/std_function.h **** 	    _M_invoker = &_My_handler::_M_invoke;
ARM GAS  /var/folders/wz/z09yph4n0qj4t7mjxhl6ttn80000gn/T//ccNrSY5I.s 			page 57


 611:/Library/DaisyToolchain/0.2.0/arm/arm-none-eabi/include/c++/10.3.1/bits/std_function.h **** 	    _M_manager = &_My_handler::_M_manager;
 612:/Library/DaisyToolchain/0.2.0/arm/arm-none-eabi/include/c++/10.3.1/bits/std_function.h **** 	  }
 613:/Library/DaisyToolchain/0.2.0/arm/arm-none-eabi/include/c++/10.3.1/bits/std_function.h ****       }
 614:/Library/DaisyToolchain/0.2.0/arm/arm-none-eabi/include/c++/10.3.1/bits/std_function.h **** 
 615:/Library/DaisyToolchain/0.2.0/arm/arm-none-eabi/include/c++/10.3.1/bits/std_function.h ****   template<typename _Res, typename... _ArgTypes>
 616:/Library/DaisyToolchain/0.2.0/arm/arm-none-eabi/include/c++/10.3.1/bits/std_function.h ****     _Res
 617:/Library/DaisyToolchain/0.2.0/arm/arm-none-eabi/include/c++/10.3.1/bits/std_function.h ****     function<_Res(_ArgTypes...)>::
 1553              		.loc 1 617 5 is_stmt 1 view .LVU462
 1554              	.LBB623:
 1555              	.LBB624:
 1556              	.LBI624:
 248:/Library/DaisyToolchain/0.2.0/arm/arm-none-eabi/include/c++/10.3.1/bits/std_function.h **** 
 1557              		.loc 1 248 10 view .LVU463
 1558              	.LBB625:
 248:/Library/DaisyToolchain/0.2.0/arm/arm-none-eabi/include/c++/10.3.1/bits/std_function.h **** 
 1559              		.loc 1 248 29 view .LVU464
 248:/Library/DaisyToolchain/0.2.0/arm/arm-none-eabi/include/c++/10.3.1/bits/std_function.h **** 
 1560              		.loc 1 248 29 is_stmt 0 view .LVU465
 1561              	.LBE625:
 1562              	.LBE624:
 618:/Library/DaisyToolchain/0.2.0/arm/arm-none-eabi/include/c++/10.3.1/bits/std_function.h ****     operator()(_ArgTypes... __args) const
 619:/Library/DaisyToolchain/0.2.0/arm/arm-none-eabi/include/c++/10.3.1/bits/std_function.h ****     {
 620:/Library/DaisyToolchain/0.2.0/arm/arm-none-eabi/include/c++/10.3.1/bits/std_function.h ****       if (_M_empty())
 1563              		.loc 1 620 7 view .LVU466
 1564 0048 636A     		ldr	r3, [r4, #36]
 1565              	.LVL101:
 1566              		.loc 1 620 7 view .LVU467
 1567 004a 8BB9     		cbnz	r3, .L60
 621:/Library/DaisyToolchain/0.2.0/arm/arm-none-eabi/include/c++/10.3.1/bits/std_function.h **** 	__throw_bad_function_call();
 1568              		.loc 1 621 27 view .LVU468
 1569 004c FFF7FEFF 		bl	_ZSt25__throw_bad_function_callv
 1570              	.LVL102:
 1571              	.L57:
 1572              		.loc 1 621 27 view .LVU469
 1573              	.LBE623:
 1574              	.LBE622:
 1575              	.LBB627:
 1576              	.LBB620:
  59:DSP/FX/../../Parameters/AudioParameter.h ****         {
  60:DSP/FX/../../Parameters/AudioParameter.h ****             case LINEAR:
  61:DSP/FX/../../Parameters/AudioParameter.h ****                 curVal = ((input / 1.0f) * (max - min)) + min;
 1577              		.loc 7 61 51 view .LVU470
 1578 0050 D4ED047A 		vldr.32	s15, [r4, #16]
 1579              	.LVL103:
 1580              	.L61:
 1581              	.LBB616:
 1582              	.LBB617:
  62:DSP/FX/../../Parameters/AudioParameter.h ****             break;
  63:DSP/FX/../../Parameters/AudioParameter.h ****             case EXP:
  64:DSP/FX/../../Parameters/AudioParameter.h ****                 curVal = ((input * input) * (max - min)) + min;
 1583              		.loc 7 64 50 view .LVU471
 1584 0054 94ED057A 		vldr.32	s14, [r4, #20]
 1585 0058 37EE677A 		vsub.f32	s14, s14, s15
 1586              		.loc 7 64 58 view .LVU472
 1587 005c E0EE077A 		vfma.f32	s15, s0, s14
 1588              		.loc 7 64 24 view .LVU473
 1589 0060 C4ED037A 		vstr.32	s15, [r4, #12]
ARM GAS  /var/folders/wz/z09yph4n0qj4t7mjxhl6ttn80000gn/T//ccNrSY5I.s 			page 58


  65:DSP/FX/../../Parameters/AudioParameter.h ****             break;
  66:DSP/FX/../../Parameters/AudioParameter.h ****         }
  67:DSP/FX/../../Parameters/AudioParameter.h ****     }
 1590              		.loc 7 67 5 view .LVU474
 1591 0064 EEE7     		b	.L59
 1592              	.LVL104:
 1593              	.L58:
 1594              		.loc 7 67 5 view .LVU475
 1595              	.LBE617:
 1596              	.LBI616:
  56:DSP/FX/../../Parameters/AudioParameter.h ****     {
 1597              		.loc 7 56 10 is_stmt 1 view .LVU476
 1598              	.LBB618:
  64:DSP/FX/../../Parameters/AudioParameter.h ****             break;
 1599              		.loc 7 64 34 is_stmt 0 view .LVU477
 1600 0066 20EE000A 		vmul.f32	s0, s0, s0
 1601              	.LVL105:
  64:DSP/FX/../../Parameters/AudioParameter.h ****             break;
 1602              		.loc 7 64 52 view .LVU478
 1603 006a D4ED047A 		vldr.32	s15, [r4, #16]
 1604 006e F1E7     		b	.L61
 1605              	.LVL106:
 1606              	.L60:
  64:DSP/FX/../../Parameters/AudioParameter.h ****             break;
 1607              		.loc 7 64 52 view .LVU479
 1608              	.LBE618:
 1609              	.LBE616:
 1610              	.LBE620:
 1611              	.LBE627:
 1612              	.LBB628:
 1613              	.LBB626:
 622:/Library/DaisyToolchain/0.2.0/arm/arm-none-eabi/include/c++/10.3.1/bits/std_function.h ****       return _M_invoker(_M_functor, std::forward<_ArgTypes>(__args)...);
 1614              		.loc 1 622 14 view .LVU480
 1615 0070 A36A     		ldr	r3, [r4, #40]
 1616 0072 01A9     		add	r1, sp, #4
 1617 0074 04F11C00 		add	r0, r4, #28
 1618 0078 9847     		blx	r3
 1619              	.LVL107:
 1620              	.L51:
 1621              		.loc 1 622 14 view .LVU481
 1622              	.LBE626:
 1623              	.LBE628:
 1624              	.LBE613:
 1625              	.LBE612:
  54:DSP/FX/../../Parameters/AudioParameter.h **** 
 1626              		.loc 7 54 5 view .LVU482
 1627 007a 02B0     		add	sp, sp, #8
 1628              		.cfi_def_cfa_offset 8
 1629              		@ sp needed
 1630 007c 10BD     		pop	{r4, pc}
  54:DSP/FX/../../Parameters/AudioParameter.h **** 
 1631              		.loc 7 54 5 view .LVU483
 1632              		.cfi_endproc
 1633              	.LFE5998:
 1635              		.section	.text._ZN10PitchShift4tickEv,"ax",%progbits
 1636              		.align	1
 1637              		.global	_ZN10PitchShift4tickEv
ARM GAS  /var/folders/wz/z09yph4n0qj4t7mjxhl6ttn80000gn/T//ccNrSY5I.s 			page 59


 1638              		.syntax unified
 1639              		.thumb
 1640              		.thumb_func
 1642              	_ZN10PitchShift4tickEv:
 1643              	.LVL108:
 1644              	.LFB5668:
  32:DSP/FX/PitchShift.cpp **** {
 1645              		.loc 3 32 1 is_stmt 1 view -0
 1646              		.cfi_startproc
 1647              		@ args = 0, pretend = 0, frame = 8
 1648              		@ frame_needed = 0, uses_anonymous_args = 0
  34:DSP/FX/PitchShift.cpp ****     amount.param.tick();
 1649              		.loc 3 34 5 view .LVU485
  32:DSP/FX/PitchShift.cpp **** {
 1650              		.loc 3 32 1 is_stmt 0 view .LVU486
 1651 0000 37B5     		push	{r0, r1, r2, r4, r5, lr}
 1652              		.cfi_def_cfa_offset 24
 1653              		.cfi_offset 4, -12
 1654              		.cfi_offset 5, -8
 1655              		.cfi_offset 14, -4
  32:DSP/FX/PitchShift.cpp **** {
 1656              		.loc 3 32 1 view .LVU487
 1657 0002 0546     		mov	r5, r0
  34:DSP/FX/PitchShift.cpp ****     amount.param.tick();
 1658              		.loc 3 34 22 view .LVU488
 1659 0004 00F59740 		add	r0, r0, #19328
 1660              	.LVL109:
 1661              	.LBB641:
 1662              	.LBB642:
  44:DSP/FX/../../Parameters/AudioParameter.h ****             return;
 1663              		.loc 7 44 13 view .LVU489
 1664 0008 05F58044 		add	r4, r5, #16384
 1665              	.LBE642:
 1666              	.LBE641:
  34:DSP/FX/PitchShift.cpp ****     amount.param.tick();
 1667              		.loc 3 34 22 view .LVU490
 1668 000c 7C30     		adds	r0, r0, #124
 1669 000e FFF7FEFF 		bl	_ZN14AudioParameterIfE4tickEv
 1670              	.LVL110:
  35:DSP/FX/PitchShift.cpp ****     semitones.tick();
 1671              		.loc 3 35 5 is_stmt 1 view .LVU491
 1672              	.LBB658:
 1673              	.LBI641:
  42:DSP/FX/../../Parameters/AudioParameter.h ****     {
 1674              		.loc 7 42 17 view .LVU492
 1675              	.LBB657:
  44:DSP/FX/../../Parameters/AudioParameter.h ****             return;
 1676              		.loc 7 44 9 is_stmt 0 view .LVU493
 1677 0012 94F8463C 		ldrb	r3, [r4, #3142]	@ zero_extendqisi2
 1678 0016 002B     		cmp	r3, #0
 1679 0018 4AD0     		beq	.L64
 1680              	.LVL111:
 1681              	.LBB643:
 1682              	.LBI643:
  42:DSP/FX/../../Parameters/AudioParameter.h ****     {
 1683              		.loc 7 42 17 is_stmt 1 view .LVU494
 1684              	.LBB644:
ARM GAS  /var/folders/wz/z09yph4n0qj4t7mjxhl6ttn80000gn/T//ccNrSY5I.s 			page 60


  47:DSP/FX/../../Parameters/AudioParameter.h ****         if(newInput > (input + jitter) || newInput < (input - jitter))
 1685              		.loc 7 47 42 is_stmt 0 view .LVU495
 1686 001a D4F82C0C 		ldr	r0, [r4, #3116]
 1687 001e 94F8441C 		ldrb	r1, [r4, #3140]	@ zero_extendqisi2
 1688 0022 1830     		adds	r0, r0, #24
 1689 0024 FFF7FEFF 		bl	_ZNK5daisy9AdcHandle8GetFloatEh
 1690              	.LVL112:
  48:DSP/FX/../../Parameters/AudioParameter.h ****         {
 1691              		.loc 7 48 24 view .LVU496
 1692 0028 04F62C43 		addw	r3, r4, #3116
 1693 002c D3ED017A 		vldr.32	s15, [r3, #4]
  48:DSP/FX/../../Parameters/AudioParameter.h ****         {
 1694              		.loc 7 48 32 view .LVU497
 1695 0030 93ED027A 		vldr.32	s14, [r3, #8]
  48:DSP/FX/../../Parameters/AudioParameter.h ****         {
 1696              		.loc 7 48 30 view .LVU498
 1697 0034 77EE876A 		vadd.f32	s13, s15, s14
  48:DSP/FX/../../Parameters/AudioParameter.h ****         {
 1698              		.loc 7 48 9 view .LVU499
 1699 0038 B4EEE60A 		vcmpe.f32	s0, s13
 1700 003c F1EE10FA 		vmrs	APSR_nzcv, FPSCR
 1701 0040 06DC     		bgt	.L65
  48:DSP/FX/../../Parameters/AudioParameter.h ****         {
 1702              		.loc 7 48 61 view .LVU500
 1703 0042 77EEC77A 		vsub.f32	s15, s15, s14
  48:DSP/FX/../../Parameters/AudioParameter.h ****         {
 1704              		.loc 7 48 40 view .LVU501
 1705 0046 B4EEE70A 		vcmpe.f32	s0, s15
 1706 004a F1EE10FA 		vmrs	APSR_nzcv, FPSCR
 1707 004e 2FD5     		bpl	.L64
 1708              	.L65:
  50:DSP/FX/../../Parameters/AudioParameter.h ****             processCurve();
 1709              		.loc 7 50 19 view .LVU502
 1710 0050 04F62C43 		addw	r3, r4, #3116
 1711 0054 83ED010A 		vstr.32	s0, [r3, #4]
 1712              	.LVL113:
 1713              	.LBB645:
 1714              	.LBI645:
  56:DSP/FX/../../Parameters/AudioParameter.h ****     {
 1715              		.loc 7 56 10 is_stmt 1 view .LVU503
 1716              	.LBB646:
  58:DSP/FX/../../Parameters/AudioParameter.h ****         {
 1717              		.loc 7 58 16 is_stmt 0 view .LVU504
 1718 0058 94F8453C 		ldrb	r3, [r4, #3141]	@ zero_extendqisi2
  58:DSP/FX/../../Parameters/AudioParameter.h ****         {
 1719              		.loc 7 58 9 view .LVU505
 1720 005c 5BB1     		cbz	r3, .L72
  58:DSP/FX/../../Parameters/AudioParameter.h ****         {
 1721              		.loc 7 58 9 view .LVU506
 1722 005e 012B     		cmp	r3, #1
 1723 0060 07D0     		beq	.L69
 1724              	.LVL114:
 1725              	.L70:
  58:DSP/FX/../../Parameters/AudioParameter.h ****         {
 1726              		.loc 7 58 9 view .LVU507
 1727 0062 D4F8383C 		ldr	r3, [r4, #3128]
 1728 0066 0193     		str	r3, [sp, #4]
ARM GAS  /var/folders/wz/z09yph4n0qj4t7mjxhl6ttn80000gn/T//ccNrSY5I.s 			page 61


 1729              	.LVL115:
  58:DSP/FX/../../Parameters/AudioParameter.h ****         {
 1730              		.loc 7 58 9 view .LVU508
 1731              	.LBE646:
 1732              	.LBE645:
 1733              	.LBB650:
 1734              	.LBI650:
 617:/Library/DaisyToolchain/0.2.0/arm/arm-none-eabi/include/c++/10.3.1/bits/std_function.h ****     operator()(_ArgTypes... __args) const
 1735              		.loc 1 617 5 is_stmt 1 view .LVU509
 1736              	.LBB651:
 1737              	.LBB652:
 1738              	.LBI652:
 248:/Library/DaisyToolchain/0.2.0/arm/arm-none-eabi/include/c++/10.3.1/bits/std_function.h **** 
 1739              		.loc 1 248 10 view .LVU510
 1740              	.LBB653:
 248:/Library/DaisyToolchain/0.2.0/arm/arm-none-eabi/include/c++/10.3.1/bits/std_function.h **** 
 1741              		.loc 1 248 29 view .LVU511
 248:/Library/DaisyToolchain/0.2.0/arm/arm-none-eabi/include/c++/10.3.1/bits/std_function.h **** 
 1742              		.loc 1 248 29 is_stmt 0 view .LVU512
 1743              	.LBE653:
 1744              	.LBE652:
 620:/Library/DaisyToolchain/0.2.0/arm/arm-none-eabi/include/c++/10.3.1/bits/std_function.h **** 	__throw_bad_function_call();
 1745              		.loc 1 620 7 view .LVU513
 1746 0068 D4F8503C 		ldr	r3, [r4, #3152]
 1747              	.LVL116:
 620:/Library/DaisyToolchain/0.2.0/arm/arm-none-eabi/include/c++/10.3.1/bits/std_function.h **** 	__throw_bad_function_call();
 1748              		.loc 1 620 7 view .LVU514
 1749 006c CBB9     		cbnz	r3, .L71
 621:/Library/DaisyToolchain/0.2.0/arm/arm-none-eabi/include/c++/10.3.1/bits/std_function.h ****       return _M_invoker(_M_functor, std::forward<_ArgTypes>(__args)...);
 1750              		.loc 1 621 27 view .LVU515
 1751 006e FFF7FEFF 		bl	_ZSt25__throw_bad_function_callv
 1752              	.LVL117:
 1753              	.L69:
 621:/Library/DaisyToolchain/0.2.0/arm/arm-none-eabi/include/c++/10.3.1/bits/std_function.h ****       return _M_invoker(_M_functor, std::forward<_ArgTypes>(__args)...);
 1754              		.loc 1 621 27 view .LVU516
 1755              	.LBE651:
 1756              	.LBE650:
 1757              	.LBB655:
 1758              	.LBB649:
 1759              	.LBB647:
 1760              	.LBI647:
  56:DSP/FX/../../Parameters/AudioParameter.h ****     {
 1761              		.loc 7 56 10 is_stmt 1 view .LVU517
 1762              	.LBB648:
  64:DSP/FX/../../Parameters/AudioParameter.h ****             break;
 1763              		.loc 7 64 34 is_stmt 0 view .LVU518
 1764 0072 20EE000A 		vmul.f32	s0, s0, s0
 1765              	.LVL118:
 1766              	.L72:
  64:DSP/FX/../../Parameters/AudioParameter.h ****             break;
 1767              		.loc 7 64 50 view .LVU519
 1768 0076 D4F83C2C 		ldr	r2, [r4, #3132]
 1769 007a D4F8403C 		ldr	r3, [r4, #3136]
 1770 007e 9B1A     		subs	r3, r3, r2
  64:DSP/FX/../../Parameters/AudioParameter.h ****             break;
 1771              		.loc 7 64 43 view .LVU520
 1772 0080 07EE903A 		vmov	s15, r3	@ int
ARM GAS  /var/folders/wz/z09yph4n0qj4t7mjxhl6ttn80000gn/T//ccNrSY5I.s 			page 62


 1773 0084 B8EEE77A 		vcvt.f32.s32	s14, s15
  64:DSP/FX/../../Parameters/AudioParameter.h ****             break;
 1774              		.loc 7 64 58 view .LVU521
 1775 0088 07EE902A 		vmov	s15, r2	@ int
 1776 008c F8EEE77A 		vcvt.f32.s32	s15, s15
 1777 0090 E0EE077A 		vfma.f32	s15, s0, s14
  64:DSP/FX/../../Parameters/AudioParameter.h ****             break;
 1778              		.loc 7 64 24 view .LVU522
 1779 0094 FDEEE77A 		vcvt.s32.f32	s15, s15
 1780 0098 17EE903A 		vmov	r3, s15	@ int
 1781 009c C4F8383C 		str	r3, [r4, #3128]
 1782              		.loc 7 67 5 view .LVU523
 1783 00a0 DFE7     		b	.L70
 1784              	.LVL119:
 1785              	.L71:
 1786              		.loc 7 67 5 view .LVU524
 1787              	.LBE648:
 1788              	.LBE647:
 1789              	.LBE649:
 1790              	.LBE655:
 1791              	.LBB656:
 1792              	.LBB654:
 1793              		.loc 1 622 14 view .LVU525
 1794 00a2 05F59840 		add	r0, r5, #19456
 1795 00a6 D4F8543C 		ldr	r3, [r4, #3156]
 1796 00aa 01A9     		add	r1, sp, #4
 1797 00ac 4830     		adds	r0, r0, #72
 1798 00ae 9847     		blx	r3
 1799              	.LVL120:
 1800              	.L64:
 1801              		.loc 1 622 14 view .LVU526
 1802              	.LBE654:
 1803              	.LBE656:
 1804              	.LBE644:
 1805              	.LBE643:
 1806              	.LBE657:
 1807              	.LBE658:
  36:DSP/FX/PitchShift.cpp ****     rand.tick();
 1808              		.loc 3 36 5 is_stmt 1 view .LVU527
  36:DSP/FX/PitchShift.cpp ****     rand.tick();
 1809              		.loc 3 36 14 is_stmt 0 view .LVU528
 1810 00b0 05F59840 		add	r0, r5, #19456
 1811 00b4 5830     		adds	r0, r0, #88
 1812 00b6 FFF7FEFF 		bl	_ZN14AudioParameterIfE4tickEv
 1813              	.LVL121:
  37:DSP/FX/PitchShift.cpp **** }
 1814              		.loc 3 37 1 view .LVU529
 1815 00ba 03B0     		add	sp, sp, #12
 1816              		.cfi_def_cfa_offset 12
 1817              		@ sp needed
 1818 00bc 30BD     		pop	{r4, r5, pc}
  37:DSP/FX/PitchShift.cpp **** }
 1819              		.loc 3 37 1 view .LVU530
 1820              		.cfi_endproc
 1821              	.LFE5668:
 1823              		.section	.text._ZSt4swapISt9_Any_dataENSt9enable_ifIXsrSt6__and_IJSt6__not_ISt15__is_tuple_likeIT_
 1824              		.align	1
ARM GAS  /var/folders/wz/z09yph4n0qj4t7mjxhl6ttn80000gn/T//ccNrSY5I.s 			page 63


 1825              		.weak	_ZSt4swapISt9_Any_dataENSt9enable_ifIXsrSt6__and_IJSt6__not_ISt15__is_tuple_likeIT_EESt21is_
 1826              		.syntax unified
 1827              		.thumb
 1828              		.thumb_func
 1830              	_ZSt4swapISt9_Any_dataENSt9enable_ifIXsrSt6__and_IJSt6__not_ISt15__is_tuple_likeIT_EESt21is_move_co
 1831              	.LVL122:
 1832              	.LFB6194:
 1833              		.file 8 "/Library/DaisyToolchain/0.2.0/arm/arm-none-eabi/include/c++/10.3.1/bits/move.h"
   1:/Library/DaisyToolchain/0.2.0/arm/arm-none-eabi/include/c++/10.3.1/bits/move.h **** // Move, forward and identity for C++11 + swap -*- C++ -*-
   2:/Library/DaisyToolchain/0.2.0/arm/arm-none-eabi/include/c++/10.3.1/bits/move.h **** 
   3:/Library/DaisyToolchain/0.2.0/arm/arm-none-eabi/include/c++/10.3.1/bits/move.h **** // Copyright (C) 2007-2020 Free Software Foundation, Inc.
   4:/Library/DaisyToolchain/0.2.0/arm/arm-none-eabi/include/c++/10.3.1/bits/move.h **** //
   5:/Library/DaisyToolchain/0.2.0/arm/arm-none-eabi/include/c++/10.3.1/bits/move.h **** // This file is part of the GNU ISO C++ Library.  This library is free
   6:/Library/DaisyToolchain/0.2.0/arm/arm-none-eabi/include/c++/10.3.1/bits/move.h **** // software; you can redistribute it and/or modify it under the
   7:/Library/DaisyToolchain/0.2.0/arm/arm-none-eabi/include/c++/10.3.1/bits/move.h **** // terms of the GNU General Public License as published by the
   8:/Library/DaisyToolchain/0.2.0/arm/arm-none-eabi/include/c++/10.3.1/bits/move.h **** // Free Software Foundation; either version 3, or (at your option)
   9:/Library/DaisyToolchain/0.2.0/arm/arm-none-eabi/include/c++/10.3.1/bits/move.h **** // any later version.
  10:/Library/DaisyToolchain/0.2.0/arm/arm-none-eabi/include/c++/10.3.1/bits/move.h **** 
  11:/Library/DaisyToolchain/0.2.0/arm/arm-none-eabi/include/c++/10.3.1/bits/move.h **** // This library is distributed in the hope that it will be useful,
  12:/Library/DaisyToolchain/0.2.0/arm/arm-none-eabi/include/c++/10.3.1/bits/move.h **** // but WITHOUT ANY WARRANTY; without even the implied warranty of
  13:/Library/DaisyToolchain/0.2.0/arm/arm-none-eabi/include/c++/10.3.1/bits/move.h **** // MERCHANTABILITY or FITNESS FOR A PARTICULAR PURPOSE.  See the
  14:/Library/DaisyToolchain/0.2.0/arm/arm-none-eabi/include/c++/10.3.1/bits/move.h **** // GNU General Public License for more details.
  15:/Library/DaisyToolchain/0.2.0/arm/arm-none-eabi/include/c++/10.3.1/bits/move.h **** 
  16:/Library/DaisyToolchain/0.2.0/arm/arm-none-eabi/include/c++/10.3.1/bits/move.h **** // Under Section 7 of GPL version 3, you are granted additional
  17:/Library/DaisyToolchain/0.2.0/arm/arm-none-eabi/include/c++/10.3.1/bits/move.h **** // permissions described in the GCC Runtime Library Exception, version
  18:/Library/DaisyToolchain/0.2.0/arm/arm-none-eabi/include/c++/10.3.1/bits/move.h **** // 3.1, as published by the Free Software Foundation.
  19:/Library/DaisyToolchain/0.2.0/arm/arm-none-eabi/include/c++/10.3.1/bits/move.h **** 
  20:/Library/DaisyToolchain/0.2.0/arm/arm-none-eabi/include/c++/10.3.1/bits/move.h **** // You should have received a copy of the GNU General Public License and
  21:/Library/DaisyToolchain/0.2.0/arm/arm-none-eabi/include/c++/10.3.1/bits/move.h **** // a copy of the GCC Runtime Library Exception along with this program;
  22:/Library/DaisyToolchain/0.2.0/arm/arm-none-eabi/include/c++/10.3.1/bits/move.h **** // see the files COPYING3 and COPYING.RUNTIME respectively.  If not, see
  23:/Library/DaisyToolchain/0.2.0/arm/arm-none-eabi/include/c++/10.3.1/bits/move.h **** // <http://www.gnu.org/licenses/>.
  24:/Library/DaisyToolchain/0.2.0/arm/arm-none-eabi/include/c++/10.3.1/bits/move.h **** 
  25:/Library/DaisyToolchain/0.2.0/arm/arm-none-eabi/include/c++/10.3.1/bits/move.h **** /** @file bits/move.h
  26:/Library/DaisyToolchain/0.2.0/arm/arm-none-eabi/include/c++/10.3.1/bits/move.h ****  *  This is an internal header file, included by other library headers.
  27:/Library/DaisyToolchain/0.2.0/arm/arm-none-eabi/include/c++/10.3.1/bits/move.h ****  *  Do not attempt to use it directly. @headername{utility}
  28:/Library/DaisyToolchain/0.2.0/arm/arm-none-eabi/include/c++/10.3.1/bits/move.h ****  */
  29:/Library/DaisyToolchain/0.2.0/arm/arm-none-eabi/include/c++/10.3.1/bits/move.h **** 
  30:/Library/DaisyToolchain/0.2.0/arm/arm-none-eabi/include/c++/10.3.1/bits/move.h **** #ifndef _MOVE_H
  31:/Library/DaisyToolchain/0.2.0/arm/arm-none-eabi/include/c++/10.3.1/bits/move.h **** #define _MOVE_H 1
  32:/Library/DaisyToolchain/0.2.0/arm/arm-none-eabi/include/c++/10.3.1/bits/move.h **** 
  33:/Library/DaisyToolchain/0.2.0/arm/arm-none-eabi/include/c++/10.3.1/bits/move.h **** #include <bits/c++config.h>
  34:/Library/DaisyToolchain/0.2.0/arm/arm-none-eabi/include/c++/10.3.1/bits/move.h **** #if __cplusplus < 201103L
  35:/Library/DaisyToolchain/0.2.0/arm/arm-none-eabi/include/c++/10.3.1/bits/move.h **** # include <bits/concept_check.h>
  36:/Library/DaisyToolchain/0.2.0/arm/arm-none-eabi/include/c++/10.3.1/bits/move.h **** #endif
  37:/Library/DaisyToolchain/0.2.0/arm/arm-none-eabi/include/c++/10.3.1/bits/move.h **** 
  38:/Library/DaisyToolchain/0.2.0/arm/arm-none-eabi/include/c++/10.3.1/bits/move.h **** namespace std _GLIBCXX_VISIBILITY(default)
  39:/Library/DaisyToolchain/0.2.0/arm/arm-none-eabi/include/c++/10.3.1/bits/move.h **** {
  40:/Library/DaisyToolchain/0.2.0/arm/arm-none-eabi/include/c++/10.3.1/bits/move.h **** _GLIBCXX_BEGIN_NAMESPACE_VERSION
  41:/Library/DaisyToolchain/0.2.0/arm/arm-none-eabi/include/c++/10.3.1/bits/move.h **** 
  42:/Library/DaisyToolchain/0.2.0/arm/arm-none-eabi/include/c++/10.3.1/bits/move.h ****   // Used, in C++03 mode too, by allocators, etc.
  43:/Library/DaisyToolchain/0.2.0/arm/arm-none-eabi/include/c++/10.3.1/bits/move.h ****   /**
  44:/Library/DaisyToolchain/0.2.0/arm/arm-none-eabi/include/c++/10.3.1/bits/move.h ****    *  @brief Same as C++11 std::addressof
  45:/Library/DaisyToolchain/0.2.0/arm/arm-none-eabi/include/c++/10.3.1/bits/move.h ****    *  @ingroup utilities
  46:/Library/DaisyToolchain/0.2.0/arm/arm-none-eabi/include/c++/10.3.1/bits/move.h ****    */
  47:/Library/DaisyToolchain/0.2.0/arm/arm-none-eabi/include/c++/10.3.1/bits/move.h ****   template<typename _Tp>
  48:/Library/DaisyToolchain/0.2.0/arm/arm-none-eabi/include/c++/10.3.1/bits/move.h ****     inline _GLIBCXX_CONSTEXPR _Tp*
  49:/Library/DaisyToolchain/0.2.0/arm/arm-none-eabi/include/c++/10.3.1/bits/move.h ****     __addressof(_Tp& __r) _GLIBCXX_NOEXCEPT
ARM GAS  /var/folders/wz/z09yph4n0qj4t7mjxhl6ttn80000gn/T//ccNrSY5I.s 			page 64


  50:/Library/DaisyToolchain/0.2.0/arm/arm-none-eabi/include/c++/10.3.1/bits/move.h ****     { return __builtin_addressof(__r); }
  51:/Library/DaisyToolchain/0.2.0/arm/arm-none-eabi/include/c++/10.3.1/bits/move.h **** 
  52:/Library/DaisyToolchain/0.2.0/arm/arm-none-eabi/include/c++/10.3.1/bits/move.h **** #if __cplusplus >= 201103L
  53:/Library/DaisyToolchain/0.2.0/arm/arm-none-eabi/include/c++/10.3.1/bits/move.h **** 
  54:/Library/DaisyToolchain/0.2.0/arm/arm-none-eabi/include/c++/10.3.1/bits/move.h **** _GLIBCXX_END_NAMESPACE_VERSION
  55:/Library/DaisyToolchain/0.2.0/arm/arm-none-eabi/include/c++/10.3.1/bits/move.h **** } // namespace
  56:/Library/DaisyToolchain/0.2.0/arm/arm-none-eabi/include/c++/10.3.1/bits/move.h **** 
  57:/Library/DaisyToolchain/0.2.0/arm/arm-none-eabi/include/c++/10.3.1/bits/move.h **** #include <type_traits> // Brings in std::declval too.
  58:/Library/DaisyToolchain/0.2.0/arm/arm-none-eabi/include/c++/10.3.1/bits/move.h **** 
  59:/Library/DaisyToolchain/0.2.0/arm/arm-none-eabi/include/c++/10.3.1/bits/move.h **** namespace std _GLIBCXX_VISIBILITY(default)
  60:/Library/DaisyToolchain/0.2.0/arm/arm-none-eabi/include/c++/10.3.1/bits/move.h **** {
  61:/Library/DaisyToolchain/0.2.0/arm/arm-none-eabi/include/c++/10.3.1/bits/move.h **** _GLIBCXX_BEGIN_NAMESPACE_VERSION
  62:/Library/DaisyToolchain/0.2.0/arm/arm-none-eabi/include/c++/10.3.1/bits/move.h **** 
  63:/Library/DaisyToolchain/0.2.0/arm/arm-none-eabi/include/c++/10.3.1/bits/move.h ****   /**
  64:/Library/DaisyToolchain/0.2.0/arm/arm-none-eabi/include/c++/10.3.1/bits/move.h ****    *  @addtogroup utilities
  65:/Library/DaisyToolchain/0.2.0/arm/arm-none-eabi/include/c++/10.3.1/bits/move.h ****    *  @{
  66:/Library/DaisyToolchain/0.2.0/arm/arm-none-eabi/include/c++/10.3.1/bits/move.h ****    */
  67:/Library/DaisyToolchain/0.2.0/arm/arm-none-eabi/include/c++/10.3.1/bits/move.h **** 
  68:/Library/DaisyToolchain/0.2.0/arm/arm-none-eabi/include/c++/10.3.1/bits/move.h ****   /**
  69:/Library/DaisyToolchain/0.2.0/arm/arm-none-eabi/include/c++/10.3.1/bits/move.h ****    *  @brief  Forward an lvalue.
  70:/Library/DaisyToolchain/0.2.0/arm/arm-none-eabi/include/c++/10.3.1/bits/move.h ****    *  @return The parameter cast to the specified type.
  71:/Library/DaisyToolchain/0.2.0/arm/arm-none-eabi/include/c++/10.3.1/bits/move.h ****    *
  72:/Library/DaisyToolchain/0.2.0/arm/arm-none-eabi/include/c++/10.3.1/bits/move.h ****    *  This function is used to implement "perfect forwarding".
  73:/Library/DaisyToolchain/0.2.0/arm/arm-none-eabi/include/c++/10.3.1/bits/move.h ****    */
  74:/Library/DaisyToolchain/0.2.0/arm/arm-none-eabi/include/c++/10.3.1/bits/move.h ****   template<typename _Tp>
  75:/Library/DaisyToolchain/0.2.0/arm/arm-none-eabi/include/c++/10.3.1/bits/move.h ****     constexpr _Tp&&
  76:/Library/DaisyToolchain/0.2.0/arm/arm-none-eabi/include/c++/10.3.1/bits/move.h ****     forward(typename std::remove_reference<_Tp>::type& __t) noexcept
  77:/Library/DaisyToolchain/0.2.0/arm/arm-none-eabi/include/c++/10.3.1/bits/move.h ****     { return static_cast<_Tp&&>(__t); }
  78:/Library/DaisyToolchain/0.2.0/arm/arm-none-eabi/include/c++/10.3.1/bits/move.h **** 
  79:/Library/DaisyToolchain/0.2.0/arm/arm-none-eabi/include/c++/10.3.1/bits/move.h ****   /**
  80:/Library/DaisyToolchain/0.2.0/arm/arm-none-eabi/include/c++/10.3.1/bits/move.h ****    *  @brief  Forward an rvalue.
  81:/Library/DaisyToolchain/0.2.0/arm/arm-none-eabi/include/c++/10.3.1/bits/move.h ****    *  @return The parameter cast to the specified type.
  82:/Library/DaisyToolchain/0.2.0/arm/arm-none-eabi/include/c++/10.3.1/bits/move.h ****    *
  83:/Library/DaisyToolchain/0.2.0/arm/arm-none-eabi/include/c++/10.3.1/bits/move.h ****    *  This function is used to implement "perfect forwarding".
  84:/Library/DaisyToolchain/0.2.0/arm/arm-none-eabi/include/c++/10.3.1/bits/move.h ****    */
  85:/Library/DaisyToolchain/0.2.0/arm/arm-none-eabi/include/c++/10.3.1/bits/move.h ****   template<typename _Tp>
  86:/Library/DaisyToolchain/0.2.0/arm/arm-none-eabi/include/c++/10.3.1/bits/move.h ****     constexpr _Tp&&
  87:/Library/DaisyToolchain/0.2.0/arm/arm-none-eabi/include/c++/10.3.1/bits/move.h ****     forward(typename std::remove_reference<_Tp>::type&& __t) noexcept
  88:/Library/DaisyToolchain/0.2.0/arm/arm-none-eabi/include/c++/10.3.1/bits/move.h ****     {
  89:/Library/DaisyToolchain/0.2.0/arm/arm-none-eabi/include/c++/10.3.1/bits/move.h ****       static_assert(!std::is_lvalue_reference<_Tp>::value, "template argument"
  90:/Library/DaisyToolchain/0.2.0/arm/arm-none-eabi/include/c++/10.3.1/bits/move.h **** 		    " substituting _Tp is an lvalue reference type");
  91:/Library/DaisyToolchain/0.2.0/arm/arm-none-eabi/include/c++/10.3.1/bits/move.h ****       return static_cast<_Tp&&>(__t);
  92:/Library/DaisyToolchain/0.2.0/arm/arm-none-eabi/include/c++/10.3.1/bits/move.h ****     }
  93:/Library/DaisyToolchain/0.2.0/arm/arm-none-eabi/include/c++/10.3.1/bits/move.h **** 
  94:/Library/DaisyToolchain/0.2.0/arm/arm-none-eabi/include/c++/10.3.1/bits/move.h ****   /**
  95:/Library/DaisyToolchain/0.2.0/arm/arm-none-eabi/include/c++/10.3.1/bits/move.h ****    *  @brief  Convert a value to an rvalue.
  96:/Library/DaisyToolchain/0.2.0/arm/arm-none-eabi/include/c++/10.3.1/bits/move.h ****    *  @param  __t  A thing of arbitrary type.
  97:/Library/DaisyToolchain/0.2.0/arm/arm-none-eabi/include/c++/10.3.1/bits/move.h ****    *  @return The parameter cast to an rvalue-reference to allow moving it.
  98:/Library/DaisyToolchain/0.2.0/arm/arm-none-eabi/include/c++/10.3.1/bits/move.h ****   */
  99:/Library/DaisyToolchain/0.2.0/arm/arm-none-eabi/include/c++/10.3.1/bits/move.h ****   template<typename _Tp>
 100:/Library/DaisyToolchain/0.2.0/arm/arm-none-eabi/include/c++/10.3.1/bits/move.h ****     constexpr typename std::remove_reference<_Tp>::type&&
 101:/Library/DaisyToolchain/0.2.0/arm/arm-none-eabi/include/c++/10.3.1/bits/move.h ****     move(_Tp&& __t) noexcept
 102:/Library/DaisyToolchain/0.2.0/arm/arm-none-eabi/include/c++/10.3.1/bits/move.h ****     { return static_cast<typename std::remove_reference<_Tp>::type&&>(__t); }
 103:/Library/DaisyToolchain/0.2.0/arm/arm-none-eabi/include/c++/10.3.1/bits/move.h **** 
 104:/Library/DaisyToolchain/0.2.0/arm/arm-none-eabi/include/c++/10.3.1/bits/move.h **** 
 105:/Library/DaisyToolchain/0.2.0/arm/arm-none-eabi/include/c++/10.3.1/bits/move.h ****   template<typename _Tp>
 106:/Library/DaisyToolchain/0.2.0/arm/arm-none-eabi/include/c++/10.3.1/bits/move.h ****     struct __move_if_noexcept_cond
ARM GAS  /var/folders/wz/z09yph4n0qj4t7mjxhl6ttn80000gn/T//ccNrSY5I.s 			page 65


 107:/Library/DaisyToolchain/0.2.0/arm/arm-none-eabi/include/c++/10.3.1/bits/move.h ****     : public __and_<__not_<is_nothrow_move_constructible<_Tp>>,
 108:/Library/DaisyToolchain/0.2.0/arm/arm-none-eabi/include/c++/10.3.1/bits/move.h ****                     is_copy_constructible<_Tp>>::type { };
 109:/Library/DaisyToolchain/0.2.0/arm/arm-none-eabi/include/c++/10.3.1/bits/move.h **** 
 110:/Library/DaisyToolchain/0.2.0/arm/arm-none-eabi/include/c++/10.3.1/bits/move.h ****   /**
 111:/Library/DaisyToolchain/0.2.0/arm/arm-none-eabi/include/c++/10.3.1/bits/move.h ****    *  @brief  Conditionally convert a value to an rvalue.
 112:/Library/DaisyToolchain/0.2.0/arm/arm-none-eabi/include/c++/10.3.1/bits/move.h ****    *  @param  __x  A thing of arbitrary type.
 113:/Library/DaisyToolchain/0.2.0/arm/arm-none-eabi/include/c++/10.3.1/bits/move.h ****    *  @return The parameter, possibly cast to an rvalue-reference.
 114:/Library/DaisyToolchain/0.2.0/arm/arm-none-eabi/include/c++/10.3.1/bits/move.h ****    *
 115:/Library/DaisyToolchain/0.2.0/arm/arm-none-eabi/include/c++/10.3.1/bits/move.h ****    *  Same as std::move unless the type's move constructor could throw and the
 116:/Library/DaisyToolchain/0.2.0/arm/arm-none-eabi/include/c++/10.3.1/bits/move.h ****    *  type is copyable, in which case an lvalue-reference is returned instead.
 117:/Library/DaisyToolchain/0.2.0/arm/arm-none-eabi/include/c++/10.3.1/bits/move.h ****    */
 118:/Library/DaisyToolchain/0.2.0/arm/arm-none-eabi/include/c++/10.3.1/bits/move.h ****   template<typename _Tp>
 119:/Library/DaisyToolchain/0.2.0/arm/arm-none-eabi/include/c++/10.3.1/bits/move.h ****     constexpr typename
 120:/Library/DaisyToolchain/0.2.0/arm/arm-none-eabi/include/c++/10.3.1/bits/move.h ****     conditional<__move_if_noexcept_cond<_Tp>::value, const _Tp&, _Tp&&>::type
 121:/Library/DaisyToolchain/0.2.0/arm/arm-none-eabi/include/c++/10.3.1/bits/move.h ****     move_if_noexcept(_Tp& __x) noexcept
 122:/Library/DaisyToolchain/0.2.0/arm/arm-none-eabi/include/c++/10.3.1/bits/move.h ****     { return std::move(__x); }
 123:/Library/DaisyToolchain/0.2.0/arm/arm-none-eabi/include/c++/10.3.1/bits/move.h **** 
 124:/Library/DaisyToolchain/0.2.0/arm/arm-none-eabi/include/c++/10.3.1/bits/move.h ****   // declval, from type_traits.
 125:/Library/DaisyToolchain/0.2.0/arm/arm-none-eabi/include/c++/10.3.1/bits/move.h **** 
 126:/Library/DaisyToolchain/0.2.0/arm/arm-none-eabi/include/c++/10.3.1/bits/move.h **** #if __cplusplus > 201402L
 127:/Library/DaisyToolchain/0.2.0/arm/arm-none-eabi/include/c++/10.3.1/bits/move.h ****   // _GLIBCXX_RESOLVE_LIB_DEFECTS
 128:/Library/DaisyToolchain/0.2.0/arm/arm-none-eabi/include/c++/10.3.1/bits/move.h ****   // 2296. std::addressof should be constexpr
 129:/Library/DaisyToolchain/0.2.0/arm/arm-none-eabi/include/c++/10.3.1/bits/move.h **** # define __cpp_lib_addressof_constexpr 201603
 130:/Library/DaisyToolchain/0.2.0/arm/arm-none-eabi/include/c++/10.3.1/bits/move.h **** #endif
 131:/Library/DaisyToolchain/0.2.0/arm/arm-none-eabi/include/c++/10.3.1/bits/move.h ****   /**
 132:/Library/DaisyToolchain/0.2.0/arm/arm-none-eabi/include/c++/10.3.1/bits/move.h ****    *  @brief Returns the actual address of the object or function
 133:/Library/DaisyToolchain/0.2.0/arm/arm-none-eabi/include/c++/10.3.1/bits/move.h ****    *         referenced by r, even in the presence of an overloaded
 134:/Library/DaisyToolchain/0.2.0/arm/arm-none-eabi/include/c++/10.3.1/bits/move.h ****    *         operator&.
 135:/Library/DaisyToolchain/0.2.0/arm/arm-none-eabi/include/c++/10.3.1/bits/move.h ****    *  @param  __r  Reference to an object or function.
 136:/Library/DaisyToolchain/0.2.0/arm/arm-none-eabi/include/c++/10.3.1/bits/move.h ****    *  @return   The actual address.
 137:/Library/DaisyToolchain/0.2.0/arm/arm-none-eabi/include/c++/10.3.1/bits/move.h ****   */
 138:/Library/DaisyToolchain/0.2.0/arm/arm-none-eabi/include/c++/10.3.1/bits/move.h ****   template<typename _Tp>
 139:/Library/DaisyToolchain/0.2.0/arm/arm-none-eabi/include/c++/10.3.1/bits/move.h ****     inline _GLIBCXX17_CONSTEXPR _Tp*
 140:/Library/DaisyToolchain/0.2.0/arm/arm-none-eabi/include/c++/10.3.1/bits/move.h ****     addressof(_Tp& __r) noexcept
 141:/Library/DaisyToolchain/0.2.0/arm/arm-none-eabi/include/c++/10.3.1/bits/move.h ****     { return std::__addressof(__r); }
 142:/Library/DaisyToolchain/0.2.0/arm/arm-none-eabi/include/c++/10.3.1/bits/move.h **** 
 143:/Library/DaisyToolchain/0.2.0/arm/arm-none-eabi/include/c++/10.3.1/bits/move.h ****   // _GLIBCXX_RESOLVE_LIB_DEFECTS
 144:/Library/DaisyToolchain/0.2.0/arm/arm-none-eabi/include/c++/10.3.1/bits/move.h ****   // 2598. addressof works on temporaries
 145:/Library/DaisyToolchain/0.2.0/arm/arm-none-eabi/include/c++/10.3.1/bits/move.h ****   template<typename _Tp>
 146:/Library/DaisyToolchain/0.2.0/arm/arm-none-eabi/include/c++/10.3.1/bits/move.h ****     const _Tp* addressof(const _Tp&&) = delete;
 147:/Library/DaisyToolchain/0.2.0/arm/arm-none-eabi/include/c++/10.3.1/bits/move.h **** 
 148:/Library/DaisyToolchain/0.2.0/arm/arm-none-eabi/include/c++/10.3.1/bits/move.h ****   // C++11 version of std::exchange for internal use.
 149:/Library/DaisyToolchain/0.2.0/arm/arm-none-eabi/include/c++/10.3.1/bits/move.h ****   template <typename _Tp, typename _Up = _Tp>
 150:/Library/DaisyToolchain/0.2.0/arm/arm-none-eabi/include/c++/10.3.1/bits/move.h ****     _GLIBCXX20_CONSTEXPR
 151:/Library/DaisyToolchain/0.2.0/arm/arm-none-eabi/include/c++/10.3.1/bits/move.h ****     inline _Tp
 152:/Library/DaisyToolchain/0.2.0/arm/arm-none-eabi/include/c++/10.3.1/bits/move.h ****     __exchange(_Tp& __obj, _Up&& __new_val)
 153:/Library/DaisyToolchain/0.2.0/arm/arm-none-eabi/include/c++/10.3.1/bits/move.h ****     {
 154:/Library/DaisyToolchain/0.2.0/arm/arm-none-eabi/include/c++/10.3.1/bits/move.h ****       _Tp __old_val = std::move(__obj);
 155:/Library/DaisyToolchain/0.2.0/arm/arm-none-eabi/include/c++/10.3.1/bits/move.h ****       __obj = std::forward<_Up>(__new_val);
 156:/Library/DaisyToolchain/0.2.0/arm/arm-none-eabi/include/c++/10.3.1/bits/move.h ****       return __old_val;
 157:/Library/DaisyToolchain/0.2.0/arm/arm-none-eabi/include/c++/10.3.1/bits/move.h ****     }
 158:/Library/DaisyToolchain/0.2.0/arm/arm-none-eabi/include/c++/10.3.1/bits/move.h **** 
 159:/Library/DaisyToolchain/0.2.0/arm/arm-none-eabi/include/c++/10.3.1/bits/move.h ****   /// @} group utilities
 160:/Library/DaisyToolchain/0.2.0/arm/arm-none-eabi/include/c++/10.3.1/bits/move.h **** 
 161:/Library/DaisyToolchain/0.2.0/arm/arm-none-eabi/include/c++/10.3.1/bits/move.h **** #define _GLIBCXX_MOVE(__val) std::move(__val)
 162:/Library/DaisyToolchain/0.2.0/arm/arm-none-eabi/include/c++/10.3.1/bits/move.h **** #define _GLIBCXX_FORWARD(_Tp, __val) std::forward<_Tp>(__val)
 163:/Library/DaisyToolchain/0.2.0/arm/arm-none-eabi/include/c++/10.3.1/bits/move.h **** #else
ARM GAS  /var/folders/wz/z09yph4n0qj4t7mjxhl6ttn80000gn/T//ccNrSY5I.s 			page 66


 164:/Library/DaisyToolchain/0.2.0/arm/arm-none-eabi/include/c++/10.3.1/bits/move.h **** #define _GLIBCXX_MOVE(__val) (__val)
 165:/Library/DaisyToolchain/0.2.0/arm/arm-none-eabi/include/c++/10.3.1/bits/move.h **** #define _GLIBCXX_FORWARD(_Tp, __val) (__val)
 166:/Library/DaisyToolchain/0.2.0/arm/arm-none-eabi/include/c++/10.3.1/bits/move.h **** #endif
 167:/Library/DaisyToolchain/0.2.0/arm/arm-none-eabi/include/c++/10.3.1/bits/move.h **** 
 168:/Library/DaisyToolchain/0.2.0/arm/arm-none-eabi/include/c++/10.3.1/bits/move.h ****   /**
 169:/Library/DaisyToolchain/0.2.0/arm/arm-none-eabi/include/c++/10.3.1/bits/move.h ****    *  @addtogroup utilities
 170:/Library/DaisyToolchain/0.2.0/arm/arm-none-eabi/include/c++/10.3.1/bits/move.h ****    *  @{
 171:/Library/DaisyToolchain/0.2.0/arm/arm-none-eabi/include/c++/10.3.1/bits/move.h ****    */
 172:/Library/DaisyToolchain/0.2.0/arm/arm-none-eabi/include/c++/10.3.1/bits/move.h **** 
 173:/Library/DaisyToolchain/0.2.0/arm/arm-none-eabi/include/c++/10.3.1/bits/move.h ****   /**
 174:/Library/DaisyToolchain/0.2.0/arm/arm-none-eabi/include/c++/10.3.1/bits/move.h ****    *  @brief Swaps two values.
 175:/Library/DaisyToolchain/0.2.0/arm/arm-none-eabi/include/c++/10.3.1/bits/move.h ****    *  @param  __a  A thing of arbitrary type.
 176:/Library/DaisyToolchain/0.2.0/arm/arm-none-eabi/include/c++/10.3.1/bits/move.h ****    *  @param  __b  Another thing of arbitrary type.
 177:/Library/DaisyToolchain/0.2.0/arm/arm-none-eabi/include/c++/10.3.1/bits/move.h ****    *  @return   Nothing.
 178:/Library/DaisyToolchain/0.2.0/arm/arm-none-eabi/include/c++/10.3.1/bits/move.h ****   */
 179:/Library/DaisyToolchain/0.2.0/arm/arm-none-eabi/include/c++/10.3.1/bits/move.h ****   template<typename _Tp>
 180:/Library/DaisyToolchain/0.2.0/arm/arm-none-eabi/include/c++/10.3.1/bits/move.h ****     _GLIBCXX20_CONSTEXPR
 181:/Library/DaisyToolchain/0.2.0/arm/arm-none-eabi/include/c++/10.3.1/bits/move.h ****     inline
 182:/Library/DaisyToolchain/0.2.0/arm/arm-none-eabi/include/c++/10.3.1/bits/move.h **** #if __cplusplus >= 201103L
 183:/Library/DaisyToolchain/0.2.0/arm/arm-none-eabi/include/c++/10.3.1/bits/move.h ****     typename enable_if<__and_<__not_<__is_tuple_like<_Tp>>,
 184:/Library/DaisyToolchain/0.2.0/arm/arm-none-eabi/include/c++/10.3.1/bits/move.h **** 			      is_move_constructible<_Tp>,
 185:/Library/DaisyToolchain/0.2.0/arm/arm-none-eabi/include/c++/10.3.1/bits/move.h **** 			      is_move_assignable<_Tp>>::value>::type
 186:/Library/DaisyToolchain/0.2.0/arm/arm-none-eabi/include/c++/10.3.1/bits/move.h **** #else
 187:/Library/DaisyToolchain/0.2.0/arm/arm-none-eabi/include/c++/10.3.1/bits/move.h ****     void
 188:/Library/DaisyToolchain/0.2.0/arm/arm-none-eabi/include/c++/10.3.1/bits/move.h **** #endif
 189:/Library/DaisyToolchain/0.2.0/arm/arm-none-eabi/include/c++/10.3.1/bits/move.h ****     swap(_Tp& __a, _Tp& __b)
 1834              		.loc 8 189 5 is_stmt 1 view -0
 1835              		.cfi_startproc
 1836              		@ args = 0, pretend = 0, frame = 8
 1837              		@ frame_needed = 0, uses_anonymous_args = 0
 1838              		.loc 8 189 5 is_stmt 0 view .LVU532
 1839 0000 13B5     		push	{r0, r1, r4, lr}
 1840              		.cfi_def_cfa_offset 16
 1841              		.cfi_offset 4, -8
 1842              		.cfi_offset 14, -4
 1843              		.loc 8 189 5 view .LVU533
 1844 0002 0B46     		mov	r3, r1
 1845 0004 0246     		mov	r2, r0
 190:/Library/DaisyToolchain/0.2.0/arm/arm-none-eabi/include/c++/10.3.1/bits/move.h ****     _GLIBCXX_NOEXCEPT_IF(__and_<is_nothrow_move_constructible<_Tp>,
 191:/Library/DaisyToolchain/0.2.0/arm/arm-none-eabi/include/c++/10.3.1/bits/move.h **** 				is_nothrow_move_assignable<_Tp>>::value)
 192:/Library/DaisyToolchain/0.2.0/arm/arm-none-eabi/include/c++/10.3.1/bits/move.h ****     {
 193:/Library/DaisyToolchain/0.2.0/arm/arm-none-eabi/include/c++/10.3.1/bits/move.h **** #if __cplusplus < 201103L
 194:/Library/DaisyToolchain/0.2.0/arm/arm-none-eabi/include/c++/10.3.1/bits/move.h ****       // concept requirements
 195:/Library/DaisyToolchain/0.2.0/arm/arm-none-eabi/include/c++/10.3.1/bits/move.h ****       __glibcxx_function_requires(_SGIAssignableConcept<_Tp>)
 196:/Library/DaisyToolchain/0.2.0/arm/arm-none-eabi/include/c++/10.3.1/bits/move.h **** #endif
 197:/Library/DaisyToolchain/0.2.0/arm/arm-none-eabi/include/c++/10.3.1/bits/move.h ****       _Tp __tmp = _GLIBCXX_MOVE(__a);
 1846              		.loc 8 197 11 view .LVU534
 1847 0006 6C46     		mov	r4, sp
 1848 0008 D0E90001 		ldrd	r0, r1, [r0]
 1849              	.LVL123:
 1850              		.loc 8 197 11 view .LVU535
 1851 000c 84E80300 		stm	r4, {r0, r1}
 198:/Library/DaisyToolchain/0.2.0/arm/arm-none-eabi/include/c++/10.3.1/bits/move.h ****       __a = _GLIBCXX_MOVE(__b);
 1852              		.loc 8 198 7 view .LVU536
 1853 0010 93E80300 		ldm	r3, {r0, r1}
 1854 0014 82E80300 		stm	r2, {r0, r1}
 199:/Library/DaisyToolchain/0.2.0/arm/arm-none-eabi/include/c++/10.3.1/bits/move.h ****       __b = _GLIBCXX_MOVE(__tmp);
ARM GAS  /var/folders/wz/z09yph4n0qj4t7mjxhl6ttn80000gn/T//ccNrSY5I.s 			page 67


 1855              		.loc 8 199 7 view .LVU537
 1856 0018 94E80300 		ldm	r4, {r0, r1}
 1857 001c 83E80300 		stm	r3, {r0, r1}
 200:/Library/DaisyToolchain/0.2.0/arm/arm-none-eabi/include/c++/10.3.1/bits/move.h ****     }
 1858              		.loc 8 200 5 view .LVU538
 1859 0020 02B0     		add	sp, sp, #8
 1860              		.cfi_def_cfa_offset 8
 1861              		@ sp needed
 1862 0022 10BD     		pop	{r4, pc}
 1863              		.cfi_endproc
 1864              	.LFE6194:
 1866              		.section	.text._ZNSt8functionIFvfEEaSERKS1_.isra.0,"ax",%progbits
 1867              		.align	1
 1868              		.syntax unified
 1869              		.thumb
 1870              		.thumb_func
 1872              	_ZNSt8functionIFvfEEaSERKS1_.isra.0:
 1873              	.LVL124:
 1874              	.LFB6351:
 396:/Library/DaisyToolchain/0.2.0/arm/arm-none-eabi/include/c++/10.3.1/bits/std_function.h ****       {
 1875              		.loc 1 396 7 is_stmt 1 view -0
 1876              		.cfi_startproc
 1877              		@ args = 0, pretend = 0, frame = 16
 1878              		@ frame_needed = 0, uses_anonymous_args = 0
 396:/Library/DaisyToolchain/0.2.0/arm/arm-none-eabi/include/c++/10.3.1/bits/std_function.h ****       {
 1879              		.loc 1 396 7 is_stmt 0 view .LVU540
 1880 0000 30B5     		push	{r4, r5, lr}
 1881              		.cfi_def_cfa_offset 12
 1882              		.cfi_offset 4, -12
 1883              		.cfi_offset 5, -8
 1884              		.cfi_offset 14, -4
 1885              	.LBB676:
 1886              	.LBB677:
 1887              	.LBB678:
 1888              	.LBB679:
 1889              	.LBB680:
 1890              	.LBB681:
 240:/Library/DaisyToolchain/0.2.0/arm/arm-none-eabi/include/c++/10.3.1/bits/std_function.h **** 
 1891              		.loc 1 240 42 view .LVU541
 1892 0002 0023     		movs	r3, #0
 1893              	.LBE681:
 1894              	.LBE680:
 1895              	.LBE679:
 1896              	.LBE678:
 1897              	.LBE677:
 1898              	.LBE676:
 396:/Library/DaisyToolchain/0.2.0/arm/arm-none-eabi/include/c++/10.3.1/bits/std_function.h ****       {
 1899              		.loc 1 396 7 view .LVU542
 1900 0004 85B0     		sub	sp, sp, #20
 1901              		.cfi_def_cfa_offset 32
 1902              	.LVL125:
 1903              	.LBB693:
 1904              	.LBI676:
 587:/Library/DaisyToolchain/0.2.0/arm/arm-none-eabi/include/c++/10.3.1/bits/std_function.h ****     function(const function& __x)
 1905              		.loc 1 587 5 is_stmt 1 view .LVU543
 1906              	.LBB691:
 1907              	.LBB689:
ARM GAS  /var/folders/wz/z09yph4n0qj4t7mjxhl6ttn80000gn/T//ccNrSY5I.s 			page 68


 1908              	.LBB684:
 1909              	.LBI679:
 240:/Library/DaisyToolchain/0.2.0/arm/arm-none-eabi/include/c++/10.3.1/bits/std_function.h **** 
 1910              		.loc 1 240 5 view .LVU544
 1911              	.LBE684:
 1912              	.LBE689:
 1913              	.LBE691:
 1914              	.LBE693:
 396:/Library/DaisyToolchain/0.2.0/arm/arm-none-eabi/include/c++/10.3.1/bits/std_function.h ****       {
 1915              		.loc 1 396 7 is_stmt 0 view .LVU545
 1916 0006 0446     		mov	r4, r0
 1917 0008 0D46     		mov	r5, r1
 1918              	.LBB694:
 1919              	.LBB692:
 1920              	.LBB690:
 1921              	.LBB685:
 1922              	.LBB683:
 1923              	.LBB682:
 240:/Library/DaisyToolchain/0.2.0/arm/arm-none-eabi/include/c++/10.3.1/bits/std_function.h **** 
 1924              		.loc 1 240 42 view .LVU546
 1925 000a 0293     		str	r3, [sp, #8]
 1926              	.LVL126:
 240:/Library/DaisyToolchain/0.2.0/arm/arm-none-eabi/include/c++/10.3.1/bits/std_function.h **** 
 1927              		.loc 1 240 42 view .LVU547
 1928              	.LBE682:
 1929              	.LBE683:
 1930              	.LBE685:
 1931              	.LBB686:
 1932              	.LBI686:
 498:/Library/DaisyToolchain/0.2.0/arm/arm-none-eabi/include/c++/10.3.1/bits/std_function.h ****       { return !_M_empty(); }
 1933              		.loc 1 498 16 is_stmt 1 view .LVU548
 1934              	.LBB687:
 1935              	.LBI687:
 248:/Library/DaisyToolchain/0.2.0/arm/arm-none-eabi/include/c++/10.3.1/bits/std_function.h **** 
 1936              		.loc 1 248 10 view .LVU549
 1937              	.LBB688:
 248:/Library/DaisyToolchain/0.2.0/arm/arm-none-eabi/include/c++/10.3.1/bits/std_function.h **** 
 1938              		.loc 1 248 29 view .LVU550
 248:/Library/DaisyToolchain/0.2.0/arm/arm-none-eabi/include/c++/10.3.1/bits/std_function.h **** 
 1939              		.loc 1 248 37 is_stmt 0 view .LVU551
 1940 000c 8B68     		ldr	r3, [r1, #8]
 1941              	.LVL127:
 248:/Library/DaisyToolchain/0.2.0/arm/arm-none-eabi/include/c++/10.3.1/bits/std_function.h **** 
 1942              		.loc 1 248 37 view .LVU552
 1943              	.LBE688:
 1944              	.LBE687:
 1945              	.LBE686:
 591:/Library/DaisyToolchain/0.2.0/arm/arm-none-eabi/include/c++/10.3.1/bits/std_function.h **** 	{
 1946              		.loc 1 591 7 view .LVU553
 1947 000e 33B1     		cbz	r3, .L75
 593:/Library/DaisyToolchain/0.2.0/arm/arm-none-eabi/include/c++/10.3.1/bits/std_function.h **** 	  _M_invoker = __x._M_invoker;
 1948              		.loc 1 593 8 view .LVU554
 1949 0010 0222     		movs	r2, #2
 1950 0012 6846     		mov	r0, sp
 1951              	.LVL128:
 593:/Library/DaisyToolchain/0.2.0/arm/arm-none-eabi/include/c++/10.3.1/bits/std_function.h **** 	  _M_invoker = __x._M_invoker;
 1952              		.loc 1 593 8 view .LVU555
ARM GAS  /var/folders/wz/z09yph4n0qj4t7mjxhl6ttn80000gn/T//ccNrSY5I.s 			page 69


 1953 0014 9847     		blx	r3
 1954              	.LVL129:
 594:/Library/DaisyToolchain/0.2.0/arm/arm-none-eabi/include/c++/10.3.1/bits/std_function.h **** 	  _M_manager = __x._M_manager;
 1955              		.loc 1 594 15 view .LVU556
 1956 0016 EB68     		ldr	r3, [r5, #12]
 1957 0018 0393     		str	r3, [sp, #12]
 595:/Library/DaisyToolchain/0.2.0/arm/arm-none-eabi/include/c++/10.3.1/bits/std_function.h **** 	}
 1958              		.loc 1 595 15 view .LVU557
 1959 001a AB68     		ldr	r3, [r5, #8]
 1960 001c 0293     		str	r3, [sp, #8]
 1961              	.L75:
 1962              	.LVL130:
 595:/Library/DaisyToolchain/0.2.0/arm/arm-none-eabi/include/c++/10.3.1/bits/std_function.h **** 	}
 1963              		.loc 1 595 15 view .LVU558
 1964              	.LBE690:
 1965              	.LBE692:
 1966              	.LBE694:
 1967              	.LBB695:
 1968              	.LBI695:
 481:/Library/DaisyToolchain/0.2.0/arm/arm-none-eabi/include/c++/10.3.1/bits/std_function.h ****       {
 1969              		.loc 1 481 12 is_stmt 1 view .LVU559
 1970              	.LBB696:
 483:/Library/DaisyToolchain/0.2.0/arm/arm-none-eabi/include/c++/10.3.1/bits/std_function.h **** 	std::swap(_M_manager, __x._M_manager);
 1971              		.loc 1 483 11 is_stmt 0 view .LVU560
 1972 001e 2146     		mov	r1, r4
 1973 0020 6846     		mov	r0, sp
 1974 0022 FFF7FEFF 		bl	_ZSt4swapISt9_Any_dataENSt9enable_ifIXsrSt6__and_IJSt6__not_ISt15__is_tuple_likeIT_EESt21is_mov
 1975              	.LVL131:
 1976              	.LBB697:
 1977              	.LBI697:
 189:/Library/DaisyToolchain/0.2.0/arm/arm-none-eabi/include/c++/10.3.1/bits/move.h ****     _GLIBCXX_NOEXCEPT_IF(__and_<is_nothrow_move_constructible<_Tp>,
 1978              		.loc 8 189 5 is_stmt 1 view .LVU561
 1979              	.LBB698:
 197:/Library/DaisyToolchain/0.2.0/arm/arm-none-eabi/include/c++/10.3.1/bits/move.h ****       __a = _GLIBCXX_MOVE(__b);
 1980              		.loc 8 197 11 is_stmt 0 view .LVU562
 1981 0026 029B     		ldr	r3, [sp, #8]
 1982              	.LVL132:
 198:/Library/DaisyToolchain/0.2.0/arm/arm-none-eabi/include/c++/10.3.1/bits/move.h ****       __b = _GLIBCXX_MOVE(__tmp);
 1983              		.loc 8 198 11 view .LVU563
 1984 0028 A268     		ldr	r2, [r4, #8]
 1985              	.LBE698:
 1986              	.LBE697:
 1987              	.LBE696:
 1988              	.LBE695:
 1989              	.LBB708:
 1990              	.LBB709:
 303:/Library/DaisyToolchain/0.2.0/arm/arm-none-eabi/include/c++/10.3.1/bits/std_function.h ****     : public _Maybe_unary_or_binary_function<_Res, _ArgTypes...>,
 1991              		.loc 1 303 11 view .LVU564
 1992 002a 6846     		mov	r0, sp
 1993              	.LBE709:
 1994              	.LBE708:
 1995              	.LBB711:
 1996              	.LBB707:
 1997              	.LBB701:
 1998              	.LBB699:
 199:/Library/DaisyToolchain/0.2.0/arm/arm-none-eabi/include/c++/10.3.1/bits/move.h ****     }
 1999              		.loc 8 199 11 view .LVU565
ARM GAS  /var/folders/wz/z09yph4n0qj4t7mjxhl6ttn80000gn/T//ccNrSY5I.s 			page 70


 2000 002c A360     		str	r3, [r4, #8]
 2001              	.LBE699:
 2002              	.LBE701:
 2003              	.LBB702:
 2004              	.LBB703:
 197:/Library/DaisyToolchain/0.2.0/arm/arm-none-eabi/include/c++/10.3.1/bits/move.h ****       __a = _GLIBCXX_MOVE(__b);
 2005              		.loc 8 197 11 view .LVU566
 2006 002e 039B     		ldr	r3, [sp, #12]
 2007              	.LVL133:
 197:/Library/DaisyToolchain/0.2.0/arm/arm-none-eabi/include/c++/10.3.1/bits/move.h ****       __a = _GLIBCXX_MOVE(__b);
 2008              		.loc 8 197 11 view .LVU567
 2009              	.LBE703:
 2010              	.LBE702:
 2011              	.LBB705:
 2012              	.LBB700:
 198:/Library/DaisyToolchain/0.2.0/arm/arm-none-eabi/include/c++/10.3.1/bits/move.h ****       __b = _GLIBCXX_MOVE(__tmp);
 2013              		.loc 8 198 11 view .LVU568
 2014 0030 0292     		str	r2, [sp, #8]
 2015              	.LVL134:
 198:/Library/DaisyToolchain/0.2.0/arm/arm-none-eabi/include/c++/10.3.1/bits/move.h ****       __b = _GLIBCXX_MOVE(__tmp);
 2016              		.loc 8 198 11 view .LVU569
 2017              	.LBE700:
 2018              	.LBE705:
 2019              	.LBB706:
 2020              	.LBI702:
 189:/Library/DaisyToolchain/0.2.0/arm/arm-none-eabi/include/c++/10.3.1/bits/move.h ****     _GLIBCXX_NOEXCEPT_IF(__and_<is_nothrow_move_constructible<_Tp>,
 2021              		.loc 8 189 5 is_stmt 1 view .LVU570
 2022              	.LBB704:
 198:/Library/DaisyToolchain/0.2.0/arm/arm-none-eabi/include/c++/10.3.1/bits/move.h ****       __b = _GLIBCXX_MOVE(__tmp);
 2023              		.loc 8 198 11 is_stmt 0 view .LVU571
 2024 0032 E268     		ldr	r2, [r4, #12]
 199:/Library/DaisyToolchain/0.2.0/arm/arm-none-eabi/include/c++/10.3.1/bits/move.h ****     }
 2025              		.loc 8 199 11 view .LVU572
 2026 0034 E360     		str	r3, [r4, #12]
 198:/Library/DaisyToolchain/0.2.0/arm/arm-none-eabi/include/c++/10.3.1/bits/move.h ****       __b = _GLIBCXX_MOVE(__tmp);
 2027              		.loc 8 198 11 view .LVU573
 2028 0036 0392     		str	r2, [sp, #12]
 2029              	.LVL135:
 198:/Library/DaisyToolchain/0.2.0/arm/arm-none-eabi/include/c++/10.3.1/bits/move.h ****       __b = _GLIBCXX_MOVE(__tmp);
 2030              		.loc 8 198 11 view .LVU574
 2031              	.LBE704:
 2032              	.LBE706:
 2033              	.LBE707:
 2034              	.LBE711:
 2035              	.LBB712:
 2036              	.LBI708:
 303:/Library/DaisyToolchain/0.2.0/arm/arm-none-eabi/include/c++/10.3.1/bits/std_function.h ****     : public _Maybe_unary_or_binary_function<_Res, _ArgTypes...>,
 2037              		.loc 1 303 11 is_stmt 1 view .LVU575
 2038              	.LBB710:
 2039 0038 FFF7FEFF 		bl	_ZNSt14_Function_baseD2Ev
 2040              	.LVL136:
 303:/Library/DaisyToolchain/0.2.0/arm/arm-none-eabi/include/c++/10.3.1/bits/std_function.h ****     : public _Maybe_unary_or_binary_function<_Res, _ArgTypes...>,
 2041              		.loc 1 303 11 is_stmt 0 view .LVU576
 2042              	.LBE710:
 2043              	.LBE712:
 400:/Library/DaisyToolchain/0.2.0/arm/arm-none-eabi/include/c++/10.3.1/bits/std_function.h **** 
 2044              		.loc 1 400 7 view .LVU577
ARM GAS  /var/folders/wz/z09yph4n0qj4t7mjxhl6ttn80000gn/T//ccNrSY5I.s 			page 71


 2045 003c 05B0     		add	sp, sp, #20
 2046              		.cfi_def_cfa_offset 12
 2047              		@ sp needed
 2048 003e 30BD     		pop	{r4, r5, pc}
 400:/Library/DaisyToolchain/0.2.0/arm/arm-none-eabi/include/c++/10.3.1/bits/std_function.h **** 
 2049              		.loc 1 400 7 view .LVU578
 2050              		.cfi_endproc
 2051              	.LFE6351:
 2053              		.section	.text._ZN10PitchShift4initEPN5daisy9DaisySeedE,"ax",%progbits
 2054              		.align	1
 2055              		.global	_ZN10PitchShift4initEPN5daisy9DaisySeedE
 2056              		.syntax unified
 2057              		.thumb
 2058              		.thumb_func
 2060              	_ZN10PitchShift4initEPN5daisy9DaisySeedE:
 2061              	.LVL137:
 2062              	.LFB5657:
   4:DSP/FX/PitchShift.cpp **** {
 2063              		.loc 3 4 1 is_stmt 1 view -0
 2064              		.cfi_startproc
 2065              		@ args = 0, pretend = 0, frame = 32
 2066              		@ frame_needed = 0, uses_anonymous_args = 0
   5:DSP/FX/PitchShift.cpp ****     for(size_t i = 0 ; i < BLOCKLENGTH ; i++)
 2067              		.loc 3 5 5 view .LVU580
 2068              	.LBB790:
   5:DSP/FX/PitchShift.cpp ****     for(size_t i = 0 ; i < BLOCKLENGTH ; i++)
 2069              		.loc 3 5 26 view .LVU581
   7:DSP/FX/PitchShift.cpp ****         buffer[L][i] = 0.0f;
 2070              		.loc 3 7 9 view .LVU582
 2071              	.LBE790:
   4:DSP/FX/PitchShift.cpp **** {
 2072              		.loc 3 4 1 is_stmt 0 view .LVU583
 2073 0000 2DE9F04F 		push	{r4, r5, r6, r7, r8, r9, r10, fp, lr}
 2074              		.cfi_def_cfa_offset 36
 2075              		.cfi_offset 4, -36
 2076              		.cfi_offset 5, -32
 2077              		.cfi_offset 6, -28
 2078              		.cfi_offset 7, -24
 2079              		.cfi_offset 8, -20
 2080              		.cfi_offset 9, -16
 2081              		.cfi_offset 10, -12
 2082              		.cfi_offset 11, -8
 2083              		.cfi_offset 14, -4
 2084              	.LBB791:
 2085              	.LBB792:
  66:../../../DaisySP//Source/Effects/pitchshifter.h ****         sr_           = sr;
 2086              		.loc 4 66 23 view .LVU584
 2087 0004 00F58046 		add	r6, r0, #16384
 2088              	.LBE792:
 2089              	.LBE791:
 2090              	.LBB841:
   7:DSP/FX/PitchShift.cpp ****         buffer[L][i] = 0.0f;
 2091              		.loc 3 7 22 view .LVU585
 2092 0008 0025     		movs	r5, #0
 2093              	.LBE841:
 2094              	.LBB842:
 2095              	.LBB837:
ARM GAS  /var/folders/wz/z09yph4n0qj4t7mjxhl6ttn80000gn/T//ccNrSY5I.s 			page 72


  67:../../../DaisySP//Source/Effects/pitchshifter.h ****         mod_freq_     = 5.0f;
 2096              		.loc 4 67 23 view .LVU586
 2097 000a 834A     		ldr	r2, .L92
  66:../../../DaisySP//Source/Effects/pitchshifter.h ****         sr_           = sr;
 2098              		.loc 4 66 23 view .LVU587
 2099 000c 0027     		movs	r7, #0
  67:../../../DaisySP//Source/Effects/pitchshifter.h ****         mod_freq_     = 5.0f;
 2100              		.loc 4 67 23 view .LVU588
 2101 000e 06F64833 		addw	r3, r6, #2888
 2102 0012 00F5974A 		add	r10, r0, #19328
 2103              	.LBE837:
 2104              	.LBE842:
 2105              	.LBB843:
   7:DSP/FX/PitchShift.cpp ****         buffer[L][i] = 0.0f;
 2106              		.loc 3 7 22 view .LVU589
 2107 0016 0560     		str	r5, [r0]	@ float
   8:DSP/FX/PitchShift.cpp ****         buffer[R][i] = 0.0f;
 2108              		.loc 3 8 9 is_stmt 1 view .LVU590
 2109              	.LBE843:
   4:DSP/FX/PitchShift.cpp **** {
 2110              		.loc 3 4 1 is_stmt 0 view .LVU591
 2111 0018 89B0     		sub	sp, sp, #36
 2112              		.cfi_def_cfa_offset 72
 2113              	.LBB844:
   8:DSP/FX/PitchShift.cpp ****         buffer[R][i] = 0.0f;
 2114              		.loc 3 8 22 view .LVU592
 2115 001a 0561     		str	r5, [r0, #16]	@ float
   5:DSP/FX/PitchShift.cpp ****     for(size_t i = 0 ; i < BLOCKLENGTH ; i++)
 2116              		.loc 3 5 5 is_stmt 1 view .LVU593
 2117              	.LVL138:
   5:DSP/FX/PitchShift.cpp ****     for(size_t i = 0 ; i < BLOCKLENGTH ; i++)
 2118              		.loc 3 5 26 view .LVU594
   7:DSP/FX/PitchShift.cpp ****         buffer[L][i] = 0.0f;
 2119              		.loc 3 7 9 view .LVU595
 2120              	.LBE844:
   4:DSP/FX/PitchShift.cpp **** {
 2121              		.loc 3 4 1 is_stmt 0 view .LVU596
 2122 001c 0446     		mov	r4, r0
 2123              	.LBB845:
   7:DSP/FX/PitchShift.cpp ****         buffer[L][i] = 0.0f;
 2124              		.loc 3 7 22 view .LVU597
 2125 001e 4560     		str	r5, [r0, #4]	@ float
   8:DSP/FX/PitchShift.cpp ****         buffer[R][i] = 0.0f;
 2126              		.loc 3 8 9 is_stmt 1 view .LVU598
 2127              	.LBE845:
   4:DSP/FX/PitchShift.cpp **** {
 2128              		.loc 3 4 1 is_stmt 0 view .LVU599
 2129 0020 8846     		mov	r8, r1
 2130              	.LBB846:
   8:DSP/FX/PitchShift.cpp ****         buffer[R][i] = 0.0f;
 2131              		.loc 3 8 22 view .LVU600
 2132 0022 4561     		str	r5, [r0, #20]	@ float
   5:DSP/FX/PitchShift.cpp ****     for(size_t i = 0 ; i < BLOCKLENGTH ; i++)
 2133              		.loc 3 5 5 is_stmt 1 view .LVU601
 2134              	.LVL139:
   5:DSP/FX/PitchShift.cpp ****     for(size_t i = 0 ; i < BLOCKLENGTH ; i++)
 2135              		.loc 3 5 26 view .LVU602
ARM GAS  /var/folders/wz/z09yph4n0qj4t7mjxhl6ttn80000gn/T//ccNrSY5I.s 			page 73


   7:DSP/FX/PitchShift.cpp ****         buffer[L][i] = 0.0f;
 2136              		.loc 3 7 9 view .LVU603
 2137              	.LBE846:
  11:DSP/FX/PitchShift.cpp ****     shifter.Init(48000);
 2138              		.loc 3 11 17 is_stmt 0 view .LVU604
 2139 0024 00F12009 		add	r9, r0, #32
 2140              	.LBB847:
   7:DSP/FX/PitchShift.cpp ****         buffer[L][i] = 0.0f;
 2141              		.loc 3 7 22 view .LVU605
 2142 0028 8560     		str	r5, [r0, #8]	@ float
   8:DSP/FX/PitchShift.cpp ****         buffer[R][i] = 0.0f;
 2143              		.loc 3 8 9 is_stmt 1 view .LVU606
 2144 002a 0AF1280A 		add	r10, r10, #40
   8:DSP/FX/PitchShift.cpp ****         buffer[R][i] = 0.0f;
 2145              		.loc 3 8 22 is_stmt 0 view .LVU607
 2146 002e 8561     		str	r5, [r0, #24]	@ float
   5:DSP/FX/PitchShift.cpp ****     for(size_t i = 0 ; i < BLOCKLENGTH ; i++)
 2147              		.loc 3 5 5 is_stmt 1 view .LVU608
 2148              	.LVL140:
   5:DSP/FX/PitchShift.cpp ****     for(size_t i = 0 ; i < BLOCKLENGTH ; i++)
 2149              		.loc 3 5 26 view .LVU609
   7:DSP/FX/PitchShift.cpp ****         buffer[L][i] = 0.0f;
 2150              		.loc 3 7 9 view .LVU610
   7:DSP/FX/PitchShift.cpp ****         buffer[L][i] = 0.0f;
 2151              		.loc 3 7 22 is_stmt 0 view .LVU611
 2152 0030 C560     		str	r5, [r0, #12]	@ float
   8:DSP/FX/PitchShift.cpp ****         buffer[R][i] = 0.0f;
 2153              		.loc 3 8 9 is_stmt 1 view .LVU612
   8:DSP/FX/PitchShift.cpp ****         buffer[R][i] = 0.0f;
 2154              		.loc 3 8 22 is_stmt 0 view .LVU613
 2155 0032 C561     		str	r5, [r0, #28]	@ float
   5:DSP/FX/PitchShift.cpp ****     for(size_t i = 0 ; i < BLOCKLENGTH ; i++)
 2156              		.loc 3 5 5 is_stmt 1 view .LVU614
 2157              	.LVL141:
   5:DSP/FX/PitchShift.cpp ****     for(size_t i = 0 ; i < BLOCKLENGTH ; i++)
 2158              		.loc 3 5 26 view .LVU615
 2159              	.LBE847:
  11:DSP/FX/PitchShift.cpp ****     shifter.Init(48000);
 2160              		.loc 3 11 5 view .LVU616
 2161              	.LBB848:
 2162              	.LBI791:
  64:../../../DaisySP//Source/Effects/pitchshifter.h ****     {
 2163              		.loc 4 64 10 view .LVU617
 2164              	.LBB838:
  66:../../../DaisySP//Source/Effects/pitchshifter.h ****         sr_           = sr;
 2165              		.loc 4 66 9 view .LVU618
  66:../../../DaisySP//Source/Effects/pitchshifter.h ****         sr_           = sr;
 2166              		.loc 4 66 23 is_stmt 0 view .LVU619
 2167 0034 86F8447B 		strb	r7, [r6, #2884]
  67:../../../DaisySP//Source/Effects/pitchshifter.h ****         mod_freq_     = 5.0f;
 2168              		.loc 4 67 9 is_stmt 1 view .LVU620
  67:../../../DaisySP//Source/Effects/pitchshifter.h ****         mod_freq_     = 5.0f;
 2169              		.loc 4 67 23 is_stmt 0 view .LVU621
 2170 0038 1A60     		str	r2, [r3]	@ float
  68:../../../DaisySP//Source/Effects/pitchshifter.h ****         SetSemitones();
 2171              		.loc 4 68 9 is_stmt 1 view .LVU622
  68:../../../DaisySP//Source/Effects/pitchshifter.h ****         SetSemitones();
ARM GAS  /var/folders/wz/z09yph4n0qj4t7mjxhl6ttn80000gn/T//ccNrSY5I.s 			page 74


 2172              		.loc 4 68 23 is_stmt 0 view .LVU623
 2173 003a 06F63C33 		addw	r3, r6, #2876
 2174 003e 774A     		ldr	r2, .L92+4
 2175 0040 1A60     		str	r2, [r3]	@ float
  69:../../../DaisySP//Source/Effects/pitchshifter.h ****         for(uint8_t i = 0; i < 2; i++)
 2176              		.loc 4 69 9 is_stmt 1 view .LVU624
 2177              	.LVL142:
 2178              	.LBB793:
 2179              	.LBI793:
 184:../../../DaisySP//Source/Effects/pitchshifter.h **** 
 185:../../../DaisySP//Source/Effects/pitchshifter.h ****   private:
 186:../../../DaisySP//Source/Effects/pitchshifter.h ****     inline void SetSemitones()
 2180              		.loc 4 186 17 view .LVU625
 2181              	.LBB794:
 187:../../../DaisySP//Source/Effects/pitchshifter.h ****     {
 188:../../../DaisySP//Source/Effects/pitchshifter.h ****         for(size_t i = 0; i < 12; i++)
 2182              		.loc 4 188 29 view .LVU626
 2183              	.L80:
 189:../../../DaisySP//Source/Effects/pitchshifter.h ****         {
 190:../../../DaisySP//Source/Effects/pitchshifter.h ****             semitone_ratios_[i] = powf(2.0f, (float)i / 12);
 2184              		.loc 4 190 13 view .LVU627
 2185              		.loc 4 190 46 is_stmt 0 view .LVU628
 2186 0042 07EE907A 		vmov	s15, r7	@ int
 188:../../../DaisySP//Source/Effects/pitchshifter.h ****         {
 2187              		.loc 4 188 9 view .LVU629
 2188 0046 0137     		adds	r7, r7, #1
 2189              	.LVL143:
 2190              		.loc 4 190 39 view .LVU630
 2191 0048 B0EE000A 		vmov.f32	s0, #2.0e+0
 2192              		.loc 4 190 46 view .LVU631
 2193 004c F8EEE70A 		vcvt.f32.s32	s1, s15
 2194              		.loc 4 190 39 view .LVU632
 2195 0050 F2EE087A 		vmov.f32	s15, #1.2e+1
 2196              	.LVL144:
 2197              		.loc 4 190 39 view .LVU633
 2198 0054 C0EEA70A 		vdiv.f32	s1, s1, s15
 2199 0058 FFF7FEFF 		bl	powf
 2200              	.LVL145:
 188:../../../DaisySP//Source/Effects/pitchshifter.h ****         {
 2201              		.loc 4 188 29 view .LVU634
 2202 005c 0C2F     		cmp	r7, #12
 2203              		.loc 4 190 33 view .LVU635
 2204 005e AAEC010A 		vstmia.32	r10!, {s0}
 188:../../../DaisySP//Source/Effects/pitchshifter.h ****         {
 2205              		.loc 4 188 9 is_stmt 1 view .LVU636
 2206              	.LVL146:
 188:../../../DaisySP//Source/Effects/pitchshifter.h ****         {
 2207              		.loc 4 188 29 view .LVU637
 2208 0062 EED1     		bne	.L80
 2209              	.LVL147:
 188:../../../DaisySP//Source/Effects/pitchshifter.h ****         {
 2210              		.loc 4 188 29 is_stmt 0 view .LVU638
 2211              	.LBE794:
 2212              	.LBE793:
 2213              	.LBB795:
  70:../../../DaisySP//Source/Effects/pitchshifter.h ****         {
 2214              		.loc 4 70 30 is_stmt 1 view .LVU639
ARM GAS  /var/folders/wz/z09yph4n0qj4t7mjxhl6ttn80000gn/T//ccNrSY5I.s 			page 75


  72:../../../DaisySP//Source/Effects/pitchshifter.h ****             d_[i].Init();
 2215              		.loc 4 72 13 view .LVU640
  72:../../../DaisySP//Source/Effects/pitchshifter.h ****             d_[i].Init();
 2216              		.loc 4 72 22 is_stmt 0 view .LVU641
 2217 0064 06F53763 		add	r3, r6, #2928
 2218              	.LBB796:
 2219              	.LBB797:
 2220              	.LBB798:
 2221              	.LBB799:
  34:../../../DaisySP//Source/Utility/delayline.h ****         }
 2222              		.loc 6 34 22 view .LVU642
 2223 0068 4FF41652 		mov	r2, #9600
 2224 006c 0021     		movs	r1, #0
 2225 006e 04F12C00 		add	r0, r4, #44
 2226              	.LBE799:
 2227              	.LBE798:
 2228              	.LBE797:
 2229              	.LBE796:
  72:../../../DaisySP//Source/Effects/pitchshifter.h ****             d_[i].Init();
 2230              		.loc 4 72 22 view .LVU643
 2231 0072 1D60     		str	r5, [r3]	@ float
  73:../../../DaisySP//Source/Effects/pitchshifter.h ****             phs_[i].Init(sr, 50, i == 0 ? 0 : PI_F);
 2232              		.loc 4 73 13 is_stmt 1 view .LVU644
 2233              	.LVL148:
 2234              	.LBB817:
 2235              	.LBI796:
  27:../../../DaisySP//Source/Utility/delayline.h ****     /** clears buffer, sets write ptr to 0, and delay to 1 sample.
 2236              		.loc 6 27 10 view .LVU645
 2237              	.LBB811:
 2238              	.LBI797:
  30:../../../DaisySP//Source/Utility/delayline.h ****     {
 2239              		.loc 6 30 10 view .LVU646
 2240              	.LBB805:
 2241              	.LBB800:
  32:../../../DaisySP//Source/Utility/delayline.h ****         {
 2242              		.loc 6 32 29 view .LVU647
 2243              	.LBE800:
  37:../../../DaisySP//Source/Utility/delayline.h ****     }
 2244              		.loc 6 37 20 is_stmt 0 view .LVU648
 2245 0074 0127     		movs	r7, #1
 2246              	.LBB801:
  34:../../../DaisySP//Source/Utility/delayline.h ****         }
 2247              		.loc 6 34 22 view .LVU649
 2248 0076 FFF7FEFF 		bl	memset
 2249              	.LVL149:
  34:../../../DaisySP//Source/Utility/delayline.h ****         }
 2250              		.loc 6 34 22 view .LVU650
 2251              	.LBE801:
  37:../../../DaisySP//Source/Utility/delayline.h ****     }
 2252              		.loc 6 37 20 view .LVU651
 2253 007a 4FF0000A 		mov	r10, #0
 2254              	.LBE805:
 2255              	.LBE811:
 2256              	.LBE817:
 2257              	.LBB818:
 2258              	.LBB819:
 2259              		.file 9 "../../../DaisySP//Source/Control/phasor.h"
ARM GAS  /var/folders/wz/z09yph4n0qj4t7mjxhl6ttn80000gn/T//ccNrSY5I.s 			page 76


   1:../../../DaisySP//Source/Control/phasor.h **** #pragma once
   2:../../../DaisySP//Source/Control/phasor.h **** #ifndef DSY_PHASOR_H
   3:../../../DaisySP//Source/Control/phasor.h **** #define DSY_PHASOR_H
   4:../../../DaisySP//Source/Control/phasor.h **** #ifdef __cplusplus
   5:../../../DaisySP//Source/Control/phasor.h **** 
   6:../../../DaisySP//Source/Control/phasor.h **** namespace daisysp
   7:../../../DaisySP//Source/Control/phasor.h **** {
   8:../../../DaisySP//Source/Control/phasor.h **** /** Generates a normalized signal moving from 0-1 at the specified frequency.
   9:../../../DaisySP//Source/Control/phasor.h **** 
  10:../../../DaisySP//Source/Control/phasor.h **** \todo Selecting which channels should be initialized/included in the sequence conversion.
  11:../../../DaisySP//Source/Control/phasor.h **** \todo Setup a similar start function for an external mux, but that seems outside the scope of this 
  12:../../../DaisySP//Source/Control/phasor.h **** 
  13:../../../DaisySP//Source/Control/phasor.h **** */
  14:../../../DaisySP//Source/Control/phasor.h **** class Phasor
  15:../../../DaisySP//Source/Control/phasor.h **** {
  16:../../../DaisySP//Source/Control/phasor.h ****   public:
  17:../../../DaisySP//Source/Control/phasor.h ****     Phasor() {}
  18:../../../DaisySP//Source/Control/phasor.h ****     ~Phasor() {}
  19:../../../DaisySP//Source/Control/phasor.h ****     /** Initializes the Phasor module
  20:../../../DaisySP//Source/Control/phasor.h ****     sample rate, and freq are in Hz
  21:../../../DaisySP//Source/Control/phasor.h ****     initial phase is in radians
  22:../../../DaisySP//Source/Control/phasor.h ****     Additional Init functions have defaults when arg is not specified:
  23:../../../DaisySP//Source/Control/phasor.h ****     - phs = 0.0f
  24:../../../DaisySP//Source/Control/phasor.h ****     - freq = 1.0f
  25:../../../DaisySP//Source/Control/phasor.h ****     */
  26:../../../DaisySP//Source/Control/phasor.h ****     inline void Init(float sample_rate, float freq, float initial_phase)
  27:../../../DaisySP//Source/Control/phasor.h ****     {
  28:../../../DaisySP//Source/Control/phasor.h ****         sample_rate_ = sample_rate;
 2260              		.loc 9 28 22 view .LVU652
 2261 007e 06F65433 		addw	r3, r6, #2900
 2262 0082 DFF894B1 		ldr	fp, .L92
  29:../../../DaisySP//Source/Control/phasor.h ****         phs_         = initial_phase;
  30:../../../DaisySP//Source/Control/phasor.h ****         SetFreq(freq);
 2263              		.loc 9 30 16 view .LVU653
 2264 0086 09F59640 		add	r0, r9, #19200
 2265 008a 9FED650A 		vldr.32	s0, .L92+8
 2266              	.LBE819:
 2267              	.LBE818:
 2268              	.LBB823:
 2269              	.LBB812:
 2270              	.LBB806:
  37:../../../DaisySP//Source/Utility/delayline.h ****     }
 2271              		.loc 6 37 20 view .LVU654
 2272 008e C4E909A7 		strd	r10, r7, [r4, #36]
 2273              	.LVL150:
  37:../../../DaisySP//Source/Utility/delayline.h ****     }
 2274              		.loc 6 37 20 view .LVU655
 2275              	.LBE806:
 2276              	.LBE812:
 2277              	.LBE823:
  74:../../../DaisySP//Source/Effects/pitchshifter.h ****         }
 2278              		.loc 4 74 13 is_stmt 1 view .LVU656
 2279              	.LBB824:
 2280              	.LBI818:
  26:../../../DaisySP//Source/Control/phasor.h ****     {
 2281              		.loc 9 26 17 view .LVU657
 2282              	.LBB820:
ARM GAS  /var/folders/wz/z09yph4n0qj4t7mjxhl6ttn80000gn/T//ccNrSY5I.s 			page 77


  28:../../../DaisySP//Source/Control/phasor.h ****         phs_         = initial_phase;
 2283              		.loc 9 28 9 view .LVU658
  28:../../../DaisySP//Source/Control/phasor.h ****         phs_         = initial_phase;
 2284              		.loc 9 28 22 is_stmt 0 view .LVU659
 2285 0092 C3F800B0 		str	fp, [r3]	@ float
  29:../../../DaisySP//Source/Control/phasor.h ****         SetFreq(freq);
 2286              		.loc 9 29 9 is_stmt 1 view .LVU660
  29:../../../DaisySP//Source/Control/phasor.h ****         SetFreq(freq);
 2287              		.loc 9 29 22 is_stmt 0 view .LVU661
 2288 0096 06F65C33 		addw	r3, r6, #2908
 2289              		.loc 9 30 16 view .LVU662
 2290 009a 3030     		adds	r0, r0, #48
  29:../../../DaisySP//Source/Control/phasor.h ****         SetFreq(freq);
 2291              		.loc 9 29 22 view .LVU663
 2292 009c 1D60     		str	r5, [r3]	@ float
 2293              		.loc 9 30 9 is_stmt 1 view .LVU664
 2294              		.loc 9 30 16 is_stmt 0 view .LVU665
 2295 009e FFF7FEFF 		bl	_ZN7daisysp6Phasor7SetFreqEf
 2296              	.LVL151:
 2297              		.loc 9 30 16 view .LVU666
 2298              	.LBE820:
 2299              	.LBE824:
  70:../../../DaisySP//Source/Effects/pitchshifter.h ****         {
 2300              		.loc 4 70 9 is_stmt 1 view .LVU667
  70:../../../DaisySP//Source/Effects/pitchshifter.h ****         {
 2301              		.loc 4 70 30 view .LVU668
  72:../../../DaisySP//Source/Effects/pitchshifter.h ****             d_[i].Init();
 2302              		.loc 4 72 13 view .LVU669
 2303              	.LBB825:
 2304              	.LBB813:
 2305              	.LBB807:
 2306              	.LBB802:
  34:../../../DaisySP//Source/Utility/delayline.h ****         }
 2307              		.loc 6 34 22 is_stmt 0 view .LVU670
 2308 00a2 4FF41652 		mov	r2, #9600
 2309              	.LBE802:
 2310              	.LBE807:
 2311              	.LBE813:
 2312              	.LBE825:
  72:../../../DaisySP//Source/Effects/pitchshifter.h ****             d_[i].Init();
 2313              		.loc 4 72 22 view .LVU671
 2314 00a6 06F67433 		addw	r3, r6, #2932
 2315              	.LBB826:
 2316              	.LBB814:
 2317              	.LBB808:
 2318              	.LBB803:
  34:../../../DaisySP//Source/Utility/delayline.h ****         }
 2319              		.loc 6 34 22 view .LVU672
 2320 00aa 5146     		mov	r1, r10
 2321 00ac A018     		adds	r0, r4, r2
 2322              	.LBE803:
 2323              	.LBE808:
 2324              	.LBE814:
 2325              	.LBE826:
  72:../../../DaisySP//Source/Effects/pitchshifter.h ****             d_[i].Init();
 2326              		.loc 4 72 22 view .LVU673
 2327 00ae 1D60     		str	r5, [r3]	@ float
ARM GAS  /var/folders/wz/z09yph4n0qj4t7mjxhl6ttn80000gn/T//ccNrSY5I.s 			page 78


  73:../../../DaisySP//Source/Effects/pitchshifter.h ****             phs_[i].Init(sr, 50, i == 0 ? 0 : PI_F);
 2328              		.loc 4 73 13 is_stmt 1 view .LVU674
 2329              	.LVL152:
 2330              	.LBB827:
  27:../../../DaisySP//Source/Utility/delayline.h ****     /** clears buffer, sets write ptr to 0, and delay to 1 sample.
 2331              		.loc 6 27 10 view .LVU675
 2332              	.LBB815:
  30:../../../DaisySP//Source/Utility/delayline.h ****     {
 2333              		.loc 6 30 10 view .LVU676
 2334              	.LBB809:
 2335              	.LBB804:
  32:../../../DaisySP//Source/Utility/delayline.h ****         {
 2336              		.loc 6 32 29 view .LVU677
  34:../../../DaisySP//Source/Utility/delayline.h ****         }
 2337              		.loc 6 34 22 is_stmt 0 view .LVU678
 2338 00b0 3830     		adds	r0, r0, #56
 2339 00b2 FFF7FEFF 		bl	memset
 2340              	.LVL153:
  34:../../../DaisySP//Source/Utility/delayline.h ****         }
 2341              		.loc 6 34 22 view .LVU679
 2342              	.LBE804:
  36:../../../DaisySP//Source/Utility/delayline.h ****         delay_     = 1;
 2343              		.loc 6 36 20 view .LVU680
 2344 00b6 04F50053 		add	r3, r4, #8192
 2345              	.LBE809:
 2346              	.LBE815:
 2347              	.LBE827:
 2348              	.LBB828:
 2349              	.LBB821:
  29:../../../DaisySP//Source/Control/phasor.h ****         SetFreq(freq);
 2350              		.loc 9 29 22 view .LVU681
 2351 00ba 5A4A     		ldr	r2, .L92+12
 2352              		.loc 9 30 16 view .LVU682
 2353 00bc 09F59640 		add	r0, r9, #19200
 2354              	.LBE821:
 2355              	.LBE828:
 2356              	.LBB829:
 2357              	.LBB816:
 2358              	.LBB810:
  36:../../../DaisySP//Source/Utility/delayline.h ****         delay_     = 1;
 2359              		.loc 6 36 20 view .LVU683
 2360 00c0 C3F8B0A5 		str	r10, [r3, #1456]
  37:../../../DaisySP//Source/Utility/delayline.h ****     }
 2361              		.loc 6 37 20 view .LVU684
 2362 00c4 C3F8B475 		str	r7, [r3, #1460]
 2363              	.LVL154:
  37:../../../DaisySP//Source/Utility/delayline.h ****     }
 2364              		.loc 6 37 20 view .LVU685
 2365              	.LBE810:
 2366              	.LBE816:
 2367              	.LBE829:
  74:../../../DaisySP//Source/Effects/pitchshifter.h ****         }
 2368              		.loc 4 74 13 is_stmt 1 view .LVU686
 2369              	.LBB830:
  26:../../../DaisySP//Source/Control/phasor.h ****     {
 2370              		.loc 9 26 17 view .LVU687
 2371              	.LBB822:
ARM GAS  /var/folders/wz/z09yph4n0qj4t7mjxhl6ttn80000gn/T//ccNrSY5I.s 			page 79


  28:../../../DaisySP//Source/Control/phasor.h ****         phs_         = initial_phase;
 2372              		.loc 9 28 9 view .LVU688
  28:../../../DaisySP//Source/Control/phasor.h ****         phs_         = initial_phase;
 2373              		.loc 9 28 22 is_stmt 0 view .LVU689
 2374 00c8 06F66433 		addw	r3, r6, #2916
 2375              		.loc 9 30 16 view .LVU690
 2376 00cc 9FED540A 		vldr.32	s0, .L92+8
 2377 00d0 4030     		adds	r0, r0, #64
  28:../../../DaisySP//Source/Control/phasor.h ****         phs_         = initial_phase;
 2378              		.loc 9 28 22 view .LVU691
 2379 00d2 C3F800B0 		str	fp, [r3]	@ float
  29:../../../DaisySP//Source/Control/phasor.h ****         SetFreq(freq);
 2380              		.loc 9 29 9 is_stmt 1 view .LVU692
  29:../../../DaisySP//Source/Control/phasor.h ****         SetFreq(freq);
 2381              		.loc 9 29 22 is_stmt 0 view .LVU693
 2382 00d6 06F66C33 		addw	r3, r6, #2924
 2383 00da 1A60     		str	r2, [r3]	@ float
 2384              		.loc 9 30 9 is_stmt 1 view .LVU694
 2385              		.loc 9 30 16 is_stmt 0 view .LVU695
 2386 00dc FFF7FEFF 		bl	_ZN7daisysp6Phasor7SetFreqEf
 2387              	.LVL155:
 2388              		.loc 9 30 16 view .LVU696
 2389              	.LBE822:
 2390              	.LBE830:
  70:../../../DaisySP//Source/Effects/pitchshifter.h ****         {
 2391              		.loc 4 70 9 is_stmt 1 view .LVU697
  70:../../../DaisySP//Source/Effects/pitchshifter.h ****         {
 2392              		.loc 4 70 30 view .LVU698
 2393              	.LBE795:
  76:../../../DaisySP//Source/Effects/pitchshifter.h ****         del_size_ = SHIFT_BUFFER_SIZE;
 2394              		.loc 4 76 9 view .LVU699
  77:../../../DaisySP//Source/Effects/pitchshifter.h ****         SetDelSize(del_size_);
 2395              		.loc 4 77 19 is_stmt 0 view .LVU700
 2396 00e0 4FF41663 		mov	r3, #2400
 2397              	.LBB831:
 2398              	.LBB832:
 178:../../../DaisySP//Source/Effects/pitchshifter.h ****     }
 2399              		.loc 4 178 25 view .LVU701
 2400 00e4 4846     		mov	r0, r9
 2401              	.LBE832:
 2402              	.LBE831:
  76:../../../DaisySP//Source/Effects/pitchshifter.h ****         del_size_ = SHIFT_BUFFER_SIZE;
 2403              		.loc 4 76 19 view .LVU702
 2404 00e6 86F84C7B 		strb	r7, [r6, #2892]
  77:../../../DaisySP//Source/Effects/pitchshifter.h ****         SetDelSize(del_size_);
 2405              		.loc 4 77 9 is_stmt 1 view .LVU703
  77:../../../DaisySP//Source/Effects/pitchshifter.h ****         SetDelSize(del_size_);
 2406              		.loc 4 77 19 is_stmt 0 view .LVU704
 2407 00ea C6F8403B 		str	r3, [r6, #2880]
  78:../../../DaisySP//Source/Effects/pitchshifter.h ****         fun_ = 0.0f;
 2408              		.loc 4 78 9 is_stmt 1 view .LVU705
 2409              	.LVL156:
 2410              	.LBB835:
 2411              	.LBI831:
 174:../../../DaisySP//Source/Effects/pitchshifter.h ****     {
 2412              		.loc 4 174 10 view .LVU706
 2413              	.LBB833:
ARM GAS  /var/folders/wz/z09yph4n0qj4t7mjxhl6ttn80000gn/T//ccNrSY5I.s 			page 80


 176:../../../DaisySP//Source/Effects/pitchshifter.h ****         force_recalc_ = true;
 2414              		.loc 4 176 9 view .LVU707
 177:../../../DaisySP//Source/Effects/pitchshifter.h ****         SetTransposition(transpose_);
 2415              		.loc 4 177 9 view .LVU708
 178:../../../DaisySP//Source/Effects/pitchshifter.h ****     }
 2416              		.loc 4 178 25 is_stmt 0 view .LVU709
 2417 00ee 04F59743 		add	r3, r4, #19328
 177:../../../DaisySP//Source/Effects/pitchshifter.h ****         SetTransposition(transpose_);
 2418              		.loc 4 177 23 view .LVU710
 2419 00f2 86F8447B 		strb	r7, [r6, #2884]
 178:../../../DaisySP//Source/Effects/pitchshifter.h ****     }
 2420              		.loc 4 178 9 is_stmt 1 view .LVU711
 2421              	.LBE833:
 2422              	.LBE835:
 2423              	.LBE838:
 2424              	.LBE848:
 2425              	.LBB849:
 2426              	.LBB850:
  32:DSP/FX/../../Parameters/AudioParameter.h **** 
 2427              		.loc 7 32 13 is_stmt 0 view .LVU712
 2428 00f6 4FF07E59 		mov	r9, #1065353216
 2429              	.LVL157:
  32:DSP/FX/../../Parameters/AudioParameter.h **** 
 2430              		.loc 7 32 13 view .LVU713
 2431              	.LBE850:
 2432              	.LBE849:
 2433              	.LBB855:
 2434              	.LBB839:
 2435              	.LBB836:
 2436              	.LBB834:
 178:../../../DaisySP//Source/Effects/pitchshifter.h ****     }
 2437              		.loc 4 178 25 view .LVU714
 2438 00fa 93ED000A 		vldr.32	s0, [r3]
 2439 00fe FFF7FEFF 		bl	_ZN7daisysp12PitchShifter16SetTranspositionERKf.isra.0
 2440              	.LVL158:
 178:../../../DaisySP//Source/Effects/pitchshifter.h ****     }
 2441              		.loc 4 178 25 view .LVU715
 2442              	.LBE834:
 2443              	.LBE836:
  79:../../../DaisySP//Source/Effects/pitchshifter.h ****     }
 2444              		.loc 4 79 9 is_stmt 1 view .LVU716
  79:../../../DaisySP//Source/Effects/pitchshifter.h ****     }
 2445              		.loc 4 79 14 is_stmt 0 view .LVU717
 2446 0102 06F68433 		addw	r3, r6, #2948
 2447              	.LBE839:
 2448              	.LBE855:
 2449              	.LBB856:
 2450              	.LBB851:
  36:DSP/FX/../../Parameters/AudioParameter.h **** 
 2451              		.loc 7 36 18 view .LVU718
 2452 0106 04F59840 		add	r0, r4, #19456
 2453 010a 04A9     		add	r1, sp, #16
 2454              	.LBE851:
 2455              	.LBE856:
 2456              	.LBB857:
 2457              	.LBB840:
  79:../../../DaisySP//Source/Effects/pitchshifter.h ****     }
ARM GAS  /var/folders/wz/z09yph4n0qj4t7mjxhl6ttn80000gn/T//ccNrSY5I.s 			page 81


 2458              		.loc 4 79 14 view .LVU719
 2459 010c 1D60     		str	r5, [r3]	@ float
 2460              	.LVL159:
  79:../../../DaisySP//Source/Effects/pitchshifter.h ****     }
 2461              		.loc 4 79 14 view .LVU720
 2462              	.LBE840:
 2463              	.LBE857:
  14:DSP/FX/PitchShift.cpp ****     amount.param.init(seed, 0, 1, LINEAR, ChannelIDs::AMP2, [this] (float a) { amount.value = a; })
 2464              		.loc 3 14 5 is_stmt 1 view .LVU721
 2465              	.LBB858:
 2466              	.LBI858:
 601:/Library/DaisyToolchain/0.2.0/arm/arm-none-eabi/include/c++/10.3.1/bits/std_function.h ****       function(_Functor __f)
 2467              		.loc 1 601 7 view .LVU722
 2468              	.LBB859:
 2469              	.LBB860:
 2470              	.LBI860:
 240:/Library/DaisyToolchain/0.2.0/arm/arm-none-eabi/include/c++/10.3.1/bits/std_function.h **** 
 2471              		.loc 1 240 5 view .LVU723
 240:/Library/DaisyToolchain/0.2.0/arm/arm-none-eabi/include/c++/10.3.1/bits/std_function.h **** 
 2472              		.loc 1 240 5 is_stmt 0 view .LVU724
 2473              	.LBE860:
 2474              	.LBB861:
 2475              	.LBB862:
 2476              	.LBI862:
 227:/Library/DaisyToolchain/0.2.0/arm/arm-none-eabi/include/c++/10.3.1/bits/std_function.h **** 	  { return true; }
 2477              		.loc 1 227 4 is_stmt 1 view .LVU725
 227:/Library/DaisyToolchain/0.2.0/arm/arm-none-eabi/include/c++/10.3.1/bits/std_function.h **** 	  { return true; }
 2478              		.loc 1 227 4 is_stmt 0 view .LVU726
 2479              	.LBE862:
 2480              	.LBB863:
 2481              	.LBI863:
 101:/Library/DaisyToolchain/0.2.0/arm/arm-none-eabi/include/c++/10.3.1/bits/move.h ****     { return static_cast<typename std::remove_reference<_Tp>::type&&>(__t); }
 2482              		.loc 8 101 5 is_stmt 1 view .LVU727
 101:/Library/DaisyToolchain/0.2.0/arm/arm-none-eabi/include/c++/10.3.1/bits/move.h ****     { return static_cast<typename std::remove_reference<_Tp>::type&&>(__t); }
 2483              		.loc 8 101 5 is_stmt 0 view .LVU728
 2484              	.LBE863:
 2485              	.LBB864:
 2486              	.LBI864:
 207:/Library/DaisyToolchain/0.2.0/arm/arm-none-eabi/include/c++/10.3.1/bits/std_function.h **** 	{ _M_init_functor(__functor, std::move(__f), _Local_storage()); }
 2487              		.loc 1 207 2 is_stmt 1 view .LVU729
 2488              	.LBB865:
 2489              	.LBI865:
 232:/Library/DaisyToolchain/0.2.0/arm/arm-none-eabi/include/c++/10.3.1/bits/std_function.h **** 	{ ::new (__functor._M_access()) _Functor(std::move(__f)); }
 2490              		.loc 1 232 2 view .LVU730
 232:/Library/DaisyToolchain/0.2.0/arm/arm-none-eabi/include/c++/10.3.1/bits/std_function.h **** 	{ ::new (__functor._M_access()) _Functor(std::move(__f)); }
 2491              		.loc 1 232 2 is_stmt 0 view .LVU731
 2492              	.LBE865:
 2493              	.LBE864:
 2494              	.LBE861:
 2495              	.LBE859:
 2496              	.LBE858:
  87:/Library/DaisyToolchain/0.2.0/arm/arm-none-eabi/include/c++/10.3.1/bits/std_function.h ****     const void* _M_access() const { return &_M_pod_data[0]; }
 2497              		.loc 1 87 37 is_stmt 1 view .LVU732
 2498              		.loc 5 175 3 view .LVU733
 2499              	.LBB873:
 2500              	.LBB871:
 2501              	.LBB869:
ARM GAS  /var/folders/wz/z09yph4n0qj4t7mjxhl6ttn80000gn/T//ccNrSY5I.s 			page 82


 610:/Library/DaisyToolchain/0.2.0/arm/arm-none-eabi/include/c++/10.3.1/bits/std_function.h **** 	    _M_manager = &_My_handler::_M_manager;
 2502              		.loc 1 610 17 is_stmt 0 view .LVU734
 2503 010e 464B     		ldr	r3, .L92+16
 2504              	.LBE869:
 2505              	.LBE871:
 2506              	.LBE873:
 2507              	.LBB874:
 2508              	.LBB852:
  36:DSP/FX/../../Parameters/AudioParameter.h **** 
 2509              		.loc 7 36 18 view .LVU735
 2510 0110 1830     		adds	r0, r0, #24
  27:DSP/FX/../../Parameters/AudioParameter.h ****         input = 0;
 2511              		.loc 7 27 12 view .LVU736
 2512 0112 C6F8FC8B 		str	r8, [r6, #3068]
 2513              	.LBE852:
 2514              	.LBE874:
 2515              	.LBB875:
 2516              	.LBB872:
 2517              	.LBB870:
 610:/Library/DaisyToolchain/0.2.0/arm/arm-none-eabi/include/c++/10.3.1/bits/std_function.h **** 	    _M_manager = &_My_handler::_M_manager;
 2518              		.loc 1 610 17 view .LVU737
 2519 0116 0793     		str	r3, [sp, #28]
 611:/Library/DaisyToolchain/0.2.0/arm/arm-none-eabi/include/c++/10.3.1/bits/std_function.h **** 	  }
 2520              		.loc 1 611 17 view .LVU738
 2521 0118 444B     		ldr	r3, .L92+20
 2522              	.LBB868:
 2523              	.LBB867:
 2524              	.LBB866:
 233:/Library/DaisyToolchain/0.2.0/arm/arm-none-eabi/include/c++/10.3.1/bits/std_function.h **** 
 2525              		.loc 1 233 4 view .LVU739
 2526 011a 0494     		str	r4, [sp, #16]
 2527              	.LVL160:
 233:/Library/DaisyToolchain/0.2.0/arm/arm-none-eabi/include/c++/10.3.1/bits/std_function.h **** 
 2528              		.loc 1 233 4 view .LVU740
 2529              	.LBE866:
 2530              	.LBE867:
 2531              	.LBE868:
 611:/Library/DaisyToolchain/0.2.0/arm/arm-none-eabi/include/c++/10.3.1/bits/std_function.h **** 	  }
 2532              		.loc 1 611 17 view .LVU741
 2533 011c 0693     		str	r3, [sp, #24]
 2534              	.LVL161:
 611:/Library/DaisyToolchain/0.2.0/arm/arm-none-eabi/include/c++/10.3.1/bits/std_function.h **** 	  }
 2535              		.loc 1 611 17 view .LVU742
 2536              	.LBE870:
 2537              	.LBE872:
 2538              	.LBE875:
 2539              	.LBB876:
 2540              	.LBI849:
  25:DSP/FX/../../Parameters/AudioParameter.h ****     {
 2541              		.loc 7 25 10 is_stmt 1 view .LVU743
 2542              	.LBB853:
  28:DSP/FX/../../Parameters/AudioParameter.h **** 
 2543              		.loc 7 28 15 is_stmt 0 view .LVU744
 2544 011e 06F6FC33 		addw	r3, r6, #3068
 2545              	.LVL162:
  28:DSP/FX/../../Parameters/AudioParameter.h **** 
 2546              		.loc 7 28 15 view .LVU745
ARM GAS  /var/folders/wz/z09yph4n0qj4t7mjxhl6ttn80000gn/T//ccNrSY5I.s 			page 83


 2547 0122 5D60     		str	r5, [r3, #4]	@ float
  30:DSP/FX/../../Parameters/AudioParameter.h ****         min = mi;
 2548              		.loc 7 30 16 view .LVU746
 2549 0124 DD60     		str	r5, [r3, #12]	@ float
  31:DSP/FX/../../Parameters/AudioParameter.h ****         max = ma;
 2550              		.loc 7 31 13 view .LVU747
 2551 0126 1D61     		str	r5, [r3, #16]	@ float
  32:DSP/FX/../../Parameters/AudioParameter.h **** 
 2552              		.loc 7 32 13 view .LVU748
 2553 0128 C3F81490 		str	r9, [r3, #20]	@ float
  35:DSP/FX/../../Parameters/AudioParameter.h ****         callback = cb;
 2554              		.loc 7 35 19 view .LVU749
 2555 012c A6F8147C 		strh	r7, [r6, #3092]	@ movhi
  36:DSP/FX/../../Parameters/AudioParameter.h **** 
 2556              		.loc 7 36 18 view .LVU750
 2557 0130 FFF7FEFF 		bl	_ZNSt8functionIFvfEEaSERKS1_.isra.0
 2558              	.LVL163:
  38:DSP/FX/../../Parameters/AudioParameter.h ****             isSelected = true;
 2559              		.loc 7 38 9 view .LVU751
 2560 0134 96F8143C 		ldrb	r3, [r6, #3092]	@ zero_extendqisi2
 2561 0138 052B     		cmp	r3, #5
 2562 013a 6AD1     		bne	.L81
 2563              	.L82:
 2564              	.LVL164:
  38:DSP/FX/../../Parameters/AudioParameter.h ****             isSelected = true;
 2565              		.loc 7 38 9 view .LVU752
 2566              	.LBE853:
 2567              	.LBE876:
 2568              	.LBB877:
 2569              	.LBI877:
 303:/Library/DaisyToolchain/0.2.0/arm/arm-none-eabi/include/c++/10.3.1/bits/std_function.h ****     : public _Maybe_unary_or_binary_function<_Res, _ArgTypes...>,
 2570              		.loc 1 303 11 is_stmt 1 view .LVU753
 2571              	.LBB878:
 2572 013c 04A8     		add	r0, sp, #16
 2573              	.LVL165:
 303:/Library/DaisyToolchain/0.2.0/arm/arm-none-eabi/include/c++/10.3.1/bits/std_function.h ****     : public _Maybe_unary_or_binary_function<_Res, _ArgTypes...>,
 2574              		.loc 1 303 11 is_stmt 0 view .LVU754
 2575              	.LBE878:
 2576              	.LBE877:
 2577              	.LBB880:
 2578              	.LBB881:
  27:DSP/FX/../../Parameters/AudioParameter.h ****         input = 0;
 2579              		.loc 7 27 12 view .LVU755
 2580 013e 04F58046 		add	r6, r4, #16384
 2581              	.LBE881:
 2582              	.LBE880:
 2583              	.LBB946:
 2584              	.LBB879:
 303:/Library/DaisyToolchain/0.2.0/arm/arm-none-eabi/include/c++/10.3.1/bits/std_function.h ****     : public _Maybe_unary_or_binary_function<_Res, _ArgTypes...>,
 2585              		.loc 1 303 11 view .LVU756
 2586 0142 FFF7FEFF 		bl	_ZNSt14_Function_baseD2Ev
 2587              	.LVL166:
 303:/Library/DaisyToolchain/0.2.0/arm/arm-none-eabi/include/c++/10.3.1/bits/std_function.h ****     : public _Maybe_unary_or_binary_function<_Res, _ArgTypes...>,
 2588              		.loc 1 303 11 view .LVU757
 2589              	.LBE879:
 2590              	.LBE946:
  15:DSP/FX/PitchShift.cpp ****     semitones.init(seed, -12, 12, LINEAR, ChannelIDs::AMP3, [this] (int s) { shifter.SetTranspositi
ARM GAS  /var/folders/wz/z09yph4n0qj4t7mjxhl6ttn80000gn/T//ccNrSY5I.s 			page 84


 2591              		.loc 3 15 5 is_stmt 1 view .LVU758
 2592              	.LBB947:
 2593              	.LBI947:
 601:/Library/DaisyToolchain/0.2.0/arm/arm-none-eabi/include/c++/10.3.1/bits/std_function.h ****       function(_Functor __f)
 2594              		.loc 1 601 7 view .LVU759
 2595              	.LBB948:
 2596              	.LBB949:
 2597              	.LBI949:
 240:/Library/DaisyToolchain/0.2.0/arm/arm-none-eabi/include/c++/10.3.1/bits/std_function.h **** 
 2598              		.loc 1 240 5 view .LVU760
 240:/Library/DaisyToolchain/0.2.0/arm/arm-none-eabi/include/c++/10.3.1/bits/std_function.h **** 
 2599              		.loc 1 240 5 is_stmt 0 view .LVU761
 2600              	.LBE949:
 2601              	.LBB950:
 2602              	.LBB951:
 2603              	.LBI951:
 227:/Library/DaisyToolchain/0.2.0/arm/arm-none-eabi/include/c++/10.3.1/bits/std_function.h **** 	  { return true; }
 2604              		.loc 1 227 4 is_stmt 1 view .LVU762
 227:/Library/DaisyToolchain/0.2.0/arm/arm-none-eabi/include/c++/10.3.1/bits/std_function.h **** 	  { return true; }
 2605              		.loc 1 227 4 is_stmt 0 view .LVU763
 2606              	.LBE951:
 2607              	.LBB952:
 2608              	.LBI952:
 101:/Library/DaisyToolchain/0.2.0/arm/arm-none-eabi/include/c++/10.3.1/bits/move.h ****     { return static_cast<typename std::remove_reference<_Tp>::type&&>(__t); }
 2609              		.loc 8 101 5 is_stmt 1 view .LVU764
 101:/Library/DaisyToolchain/0.2.0/arm/arm-none-eabi/include/c++/10.3.1/bits/move.h ****     { return static_cast<typename std::remove_reference<_Tp>::type&&>(__t); }
 2610              		.loc 8 101 5 is_stmt 0 view .LVU765
 2611              	.LBE952:
 2612              	.LBB953:
 2613              	.LBI953:
 207:/Library/DaisyToolchain/0.2.0/arm/arm-none-eabi/include/c++/10.3.1/bits/std_function.h **** 	{ _M_init_functor(__functor, std::move(__f), _Local_storage()); }
 2614              		.loc 1 207 2 is_stmt 1 view .LVU766
 2615              	.LBB954:
 2616              	.LBI954:
 232:/Library/DaisyToolchain/0.2.0/arm/arm-none-eabi/include/c++/10.3.1/bits/std_function.h **** 	{ ::new (__functor._M_access()) _Functor(std::move(__f)); }
 2617              		.loc 1 232 2 view .LVU767
 232:/Library/DaisyToolchain/0.2.0/arm/arm-none-eabi/include/c++/10.3.1/bits/std_function.h **** 	{ ::new (__functor._M_access()) _Functor(std::move(__f)); }
 2618              		.loc 1 232 2 is_stmt 0 view .LVU768
 2619              	.LBE954:
 2620              	.LBE953:
 2621              	.LBE950:
 2622              	.LBE948:
 2623              	.LBE947:
  87:/Library/DaisyToolchain/0.2.0/arm/arm-none-eabi/include/c++/10.3.1/bits/std_function.h ****     const void* _M_access() const { return &_M_pod_data[0]; }
 2624              		.loc 1 87 37 is_stmt 1 view .LVU769
 2625              		.loc 5 175 3 view .LVU770
 2626              	.LBB966:
 2627              	.LBB962:
 2628              	.LBB958:
 610:/Library/DaisyToolchain/0.2.0/arm/arm-none-eabi/include/c++/10.3.1/bits/std_function.h **** 	    _M_manager = &_My_handler::_M_manager;
 2629              		.loc 1 610 17 is_stmt 0 view .LVU771
 2630 0146 3A4B     		ldr	r3, .L92+24
 2631              	.LBE958:
 2632              	.LBE962:
 2633              	.LBE966:
 2634              	.LBB967:
 2635              	.LBB940:
ARM GAS  /var/folders/wz/z09yph4n0qj4t7mjxhl6ttn80000gn/T//ccNrSY5I.s 			page 85


  31:DSP/FX/../../Parameters/AudioParameter.h ****         max = ma;
 2636              		.loc 7 31 13 view .LVU772
 2637 0148 6FF00B02 		mvn	r2, #11
  27:DSP/FX/../../Parameters/AudioParameter.h ****         input = 0;
 2638              		.loc 7 27 12 view .LVU773
 2639 014c C6F82C8C 		str	r8, [r6, #3116]
 2640              	.LBE940:
 2641              	.LBE967:
 2642              	.LBB968:
 2643              	.LBB963:
 2644              	.LBB959:
 610:/Library/DaisyToolchain/0.2.0/arm/arm-none-eabi/include/c++/10.3.1/bits/std_function.h **** 	    _M_manager = &_My_handler::_M_manager;
 2645              		.loc 1 610 17 view .LVU774
 2646 0150 0393     		str	r3, [sp, #12]
 2647              	.LBE959:
 2648              	.LBE963:
 2649              	.LBE968:
 2650              	.LBB969:
 2651              	.LBB941:
 2652              	.LBB882:
 2653              	.LBB883:
 2654              	.LBB884:
 2655              	.LBB885:
 2656              	.LBB886:
 593:/Library/DaisyToolchain/0.2.0/arm/arm-none-eabi/include/c++/10.3.1/bits/std_function.h **** 	  _M_invoker = __x._M_invoker;
 2657              		.loc 1 593 8 view .LVU775
 2658 0152 6946     		mov	r1, sp
 2659              	.LBE886:
 2660              	.LBE885:
 2661              	.LBE884:
 2662              	.LBE883:
 2663              	.LBE882:
 2664              	.LBE941:
 2665              	.LBE969:
 2666              	.LBB970:
 2667              	.LBB964:
 2668              	.LBB960:
 611:/Library/DaisyToolchain/0.2.0/arm/arm-none-eabi/include/c++/10.3.1/bits/std_function.h **** 	  }
 2669              		.loc 1 611 17 view .LVU776
 2670 0154 374B     		ldr	r3, .L92+28
 2671              	.LBE960:
 2672              	.LBE964:
 2673              	.LBE970:
 2674              	.LBB971:
 2675              	.LBB942:
 2676              	.LBB936:
 2677              	.LBB932:
 2678              	.LBB904:
 2679              	.LBB898:
 2680              	.LBB892:
 593:/Library/DaisyToolchain/0.2.0/arm/arm-none-eabi/include/c++/10.3.1/bits/std_function.h **** 	  _M_invoker = __x._M_invoker;
 2681              		.loc 1 593 8 view .LVU777
 2682 0156 04A8     		add	r0, sp, #16
 2683              	.LBE892:
 2684              	.LBE898:
 2685              	.LBE904:
 2686              	.LBE932:
ARM GAS  /var/folders/wz/z09yph4n0qj4t7mjxhl6ttn80000gn/T//ccNrSY5I.s 			page 86


 2687              	.LBE936:
 2688              	.LBE942:
 2689              	.LBE971:
 2690              	.LBB972:
 2691              	.LBB965:
 2692              	.LBB961:
 2693              	.LBB957:
 2694              	.LBB956:
 2695              	.LBB955:
 233:/Library/DaisyToolchain/0.2.0/arm/arm-none-eabi/include/c++/10.3.1/bits/std_function.h **** 
 2696              		.loc 1 233 4 view .LVU778
 2697 0158 0094     		str	r4, [sp]
 2698              	.LVL167:
 233:/Library/DaisyToolchain/0.2.0/arm/arm-none-eabi/include/c++/10.3.1/bits/std_function.h **** 
 2699              		.loc 1 233 4 view .LVU779
 2700              	.LBE955:
 2701              	.LBE956:
 2702              	.LBE957:
 611:/Library/DaisyToolchain/0.2.0/arm/arm-none-eabi/include/c++/10.3.1/bits/std_function.h **** 	  }
 2703              		.loc 1 611 17 view .LVU780
 2704 015a 0293     		str	r3, [sp, #8]
 2705              	.LVL168:
 611:/Library/DaisyToolchain/0.2.0/arm/arm-none-eabi/include/c++/10.3.1/bits/std_function.h **** 	  }
 2706              		.loc 1 611 17 view .LVU781
 2707              	.LBE961:
 2708              	.LBE965:
 2709              	.LBE972:
 2710              	.LBB973:
 2711              	.LBI880:
  25:DSP/FX/../../Parameters/AudioParameter.h ****     {
 2712              		.loc 7 25 10 is_stmt 1 view .LVU782
 2713              	.LBB943:
  28:DSP/FX/../../Parameters/AudioParameter.h **** 
 2714              		.loc 7 28 15 is_stmt 0 view .LVU783
 2715 015c 06F62C43 		addw	r3, r6, #3116
 2716              	.LVL169:
  28:DSP/FX/../../Parameters/AudioParameter.h **** 
 2717              		.loc 7 28 15 view .LVU784
 2718 0160 5D60     		str	r5, [r3, #4]	@ float
  30:DSP/FX/../../Parameters/AudioParameter.h ****         min = mi;
 2719              		.loc 7 30 16 view .LVU785
 2720 0162 0023     		movs	r3, #0
 2721              	.LVL170:
  31:DSP/FX/../../Parameters/AudioParameter.h ****         max = ma;
 2722              		.loc 7 31 13 view .LVU786
 2723 0164 C6F83C2C 		str	r2, [r6, #3132]
  32:DSP/FX/../../Parameters/AudioParameter.h **** 
 2724              		.loc 7 32 13 view .LVU787
 2725 0168 0C22     		movs	r2, #12
  30:DSP/FX/../../Parameters/AudioParameter.h ****         min = mi;
 2726              		.loc 7 30 16 view .LVU788
 2727 016a C6F8383C 		str	r3, [r6, #3128]
  32:DSP/FX/../../Parameters/AudioParameter.h **** 
 2728              		.loc 7 32 13 view .LVU789
 2729 016e C6F8402C 		str	r2, [r6, #3136]
  35:DSP/FX/../../Parameters/AudioParameter.h ****         callback = cb;
 2730              		.loc 7 35 19 view .LVU790
ARM GAS  /var/folders/wz/z09yph4n0qj4t7mjxhl6ttn80000gn/T//ccNrSY5I.s 			page 87


 2731 0172 0222     		movs	r2, #2
 2732              	.LBB937:
 2733              	.LBB933:
 2734              	.LBB905:
 2735              	.LBB899:
 2736              	.LBB893:
 2737              	.LBB887:
 2738              	.LBB888:
 2739              	.LBB889:
 240:/Library/DaisyToolchain/0.2.0/arm/arm-none-eabi/include/c++/10.3.1/bits/std_function.h **** 
 2740              		.loc 1 240 42 view .LVU791
 2741 0174 0693     		str	r3, [sp, #24]
 2742              	.LBE889:
 2743              	.LBE888:
 2744              	.LBE887:
 2745              	.LBE893:
 2746              	.LBE899:
 2747              	.LBE905:
 2748              	.LBE933:
 2749              	.LBE937:
  35:DSP/FX/../../Parameters/AudioParameter.h ****         callback = cb;
 2750              		.loc 7 35 19 view .LVU792
 2751 0176 A6F8442C 		strh	r2, [r6, #3140]	@ movhi
 2752              	.LVL171:
 2753              	.LBB938:
 2754              	.LBI882:
 396:/Library/DaisyToolchain/0.2.0/arm/arm-none-eabi/include/c++/10.3.1/bits/std_function.h ****       {
 2755              		.loc 1 396 7 is_stmt 1 view .LVU793
 2756              	.LBB934:
 2757              	.LBB906:
 2758              	.LBI884:
 587:/Library/DaisyToolchain/0.2.0/arm/arm-none-eabi/include/c++/10.3.1/bits/std_function.h ****     function(const function& __x)
 2759              		.loc 1 587 5 view .LVU794
 2760              	.LBB900:
 2761              	.LBB894:
 2762              	.LBB890:
 2763              	.LBI887:
 240:/Library/DaisyToolchain/0.2.0/arm/arm-none-eabi/include/c++/10.3.1/bits/std_function.h **** 
 2764              		.loc 1 240 5 view .LVU795
 240:/Library/DaisyToolchain/0.2.0/arm/arm-none-eabi/include/c++/10.3.1/bits/std_function.h **** 
 2765              		.loc 1 240 5 is_stmt 0 view .LVU796
 2766              	.LBE890:
 2767              	.LBB891:
 2768              	.LBI891:
 498:/Library/DaisyToolchain/0.2.0/arm/arm-none-eabi/include/c++/10.3.1/bits/std_function.h ****       { return !_M_empty(); }
 2769              		.loc 1 498 16 is_stmt 1 view .LVU797
 498:/Library/DaisyToolchain/0.2.0/arm/arm-none-eabi/include/c++/10.3.1/bits/std_function.h ****       { return !_M_empty(); }
 2770              		.loc 1 498 16 is_stmt 0 view .LVU798
 2771              	.LBE891:
 2772              	.LBE894:
 2773              	.LBE900:
 2774              	.LBE906:
 2775              	.LBE934:
 2776              	.LBE938:
 2777              	.LBE943:
 2778              	.LBE973:
 248:/Library/DaisyToolchain/0.2.0/arm/arm-none-eabi/include/c++/10.3.1/bits/std_function.h **** 
ARM GAS  /var/folders/wz/z09yph4n0qj4t7mjxhl6ttn80000gn/T//ccNrSY5I.s 			page 88


 2779              		.loc 1 248 29 is_stmt 1 view .LVU799
 2780              	.LBB974:
 2781              	.LBB944:
 2782              	.LBB939:
 2783              	.LBB935:
 2784              	.LBB907:
 2785              	.LBB901:
 2786              	.LBB895:
 593:/Library/DaisyToolchain/0.2.0/arm/arm-none-eabi/include/c++/10.3.1/bits/std_function.h **** 	  _M_invoker = __x._M_invoker;
 2787              		.loc 1 593 8 is_stmt 0 view .LVU800
 2788 017a FFF7FEFF 		bl	_ZNSt17_Function_handlerIFviEZN10PitchShift4initEPN5daisy9DaisySeedEEUliE0_E10_M_managerERSt9_A
 2789              	.LVL172:
 594:/Library/DaisyToolchain/0.2.0/arm/arm-none-eabi/include/c++/10.3.1/bits/std_function.h **** 	  _M_manager = __x._M_manager;
 2790              		.loc 1 594 15 view .LVU801
 2791 017e 039B     		ldr	r3, [sp, #12]
 2792              	.LBE895:
 2793              	.LBE901:
 2794              	.LBE907:
 2795              	.LBB908:
 2796              	.LBB909:
 483:/Library/DaisyToolchain/0.2.0/arm/arm-none-eabi/include/c++/10.3.1/bits/std_function.h **** 	std::swap(_M_manager, __x._M_manager);
 2797              		.loc 1 483 11 view .LVU802
 2798 0180 04F59841 		add	r1, r4, #19456
 2799 0184 04A8     		add	r0, sp, #16
 2800              	.LVL173:
 483:/Library/DaisyToolchain/0.2.0/arm/arm-none-eabi/include/c++/10.3.1/bits/std_function.h **** 	std::swap(_M_manager, __x._M_manager);
 2801              		.loc 1 483 11 view .LVU803
 2802              	.LBE909:
 2803              	.LBE908:
 2804              	.LBB923:
 2805              	.LBB902:
 2806              	.LBB896:
 594:/Library/DaisyToolchain/0.2.0/arm/arm-none-eabi/include/c++/10.3.1/bits/std_function.h **** 	  _M_manager = __x._M_manager;
 2807              		.loc 1 594 15 view .LVU804
 2808 0186 0793     		str	r3, [sp, #28]
 595:/Library/DaisyToolchain/0.2.0/arm/arm-none-eabi/include/c++/10.3.1/bits/std_function.h **** 	}
 2809              		.loc 1 595 15 view .LVU805
 2810 0188 029B     		ldr	r3, [sp, #8]
 2811              	.LBE896:
 2812              	.LBE902:
 2813              	.LBE923:
 2814              	.LBB924:
 2815              	.LBB920:
 483:/Library/DaisyToolchain/0.2.0/arm/arm-none-eabi/include/c++/10.3.1/bits/std_function.h **** 	std::swap(_M_manager, __x._M_manager);
 2816              		.loc 1 483 11 view .LVU806
 2817 018a 4831     		adds	r1, r1, #72
 2818              	.LBE920:
 2819              	.LBE924:
 2820              	.LBB925:
 2821              	.LBB903:
 2822              	.LBB897:
 595:/Library/DaisyToolchain/0.2.0/arm/arm-none-eabi/include/c++/10.3.1/bits/std_function.h **** 	}
 2823              		.loc 1 595 15 view .LVU807
 2824 018c 0693     		str	r3, [sp, #24]
 2825              	.LVL174:
 595:/Library/DaisyToolchain/0.2.0/arm/arm-none-eabi/include/c++/10.3.1/bits/std_function.h **** 	}
 2826              		.loc 1 595 15 view .LVU808
ARM GAS  /var/folders/wz/z09yph4n0qj4t7mjxhl6ttn80000gn/T//ccNrSY5I.s 			page 89


 2827              	.LBE897:
 2828              	.LBE903:
 2829              	.LBE925:
 2830              	.LBB926:
 2831              	.LBI908:
 481:/Library/DaisyToolchain/0.2.0/arm/arm-none-eabi/include/c++/10.3.1/bits/std_function.h ****       {
 2832              		.loc 1 481 12 is_stmt 1 view .LVU809
 2833              	.LBB921:
 483:/Library/DaisyToolchain/0.2.0/arm/arm-none-eabi/include/c++/10.3.1/bits/std_function.h **** 	std::swap(_M_manager, __x._M_manager);
 2834              		.loc 1 483 11 is_stmt 0 view .LVU810
 2835 018e FFF7FEFF 		bl	_ZSt4swapISt9_Any_dataENSt9enable_ifIXsrSt6__and_IJSt6__not_ISt15__is_tuple_likeIT_EESt21is_mov
 2836              	.LVL175:
 2837              	.LBB910:
 2838              	.LBI910:
 189:/Library/DaisyToolchain/0.2.0/arm/arm-none-eabi/include/c++/10.3.1/bits/move.h ****     _GLIBCXX_NOEXCEPT_IF(__and_<is_nothrow_move_constructible<_Tp>,
 2839              		.loc 8 189 5 is_stmt 1 view .LVU811
 2840              	.LBB911:
 197:/Library/DaisyToolchain/0.2.0/arm/arm-none-eabi/include/c++/10.3.1/bits/move.h ****       __a = _GLIBCXX_MOVE(__b);
 2841              		.loc 8 197 11 is_stmt 0 view .LVU812
 2842 0192 069B     		ldr	r3, [sp, #24]
 2843              	.LVL176:
 197:/Library/DaisyToolchain/0.2.0/arm/arm-none-eabi/include/c++/10.3.1/bits/move.h ****       __a = _GLIBCXX_MOVE(__b);
 2844              		.loc 8 197 11 view .LVU813
 2845              	.LBE911:
 2846              	.LBE910:
 2847              	.LBE921:
 2848              	.LBE926:
 2849              	.LBB927:
 2850              	.LBB928:
 303:/Library/DaisyToolchain/0.2.0/arm/arm-none-eabi/include/c++/10.3.1/bits/std_function.h ****     : public _Maybe_unary_or_binary_function<_Res, _ArgTypes...>,
 2851              		.loc 1 303 11 view .LVU814
 2852 0194 04A8     		add	r0, sp, #16
 2853              	.LVL177:
 303:/Library/DaisyToolchain/0.2.0/arm/arm-none-eabi/include/c++/10.3.1/bits/std_function.h ****     : public _Maybe_unary_or_binary_function<_Res, _ArgTypes...>,
 2854              		.loc 1 303 11 view .LVU815
 2855              	.LBE928:
 2856              	.LBE927:
 2857              	.LBB930:
 2858              	.LBB922:
 2859              	.LBB914:
 2860              	.LBB912:
 198:/Library/DaisyToolchain/0.2.0/arm/arm-none-eabi/include/c++/10.3.1/bits/move.h ****       __b = _GLIBCXX_MOVE(__tmp);
 2861              		.loc 8 198 11 view .LVU816
 2862 0196 D6F8502C 		ldr	r2, [r6, #3152]
 199:/Library/DaisyToolchain/0.2.0/arm/arm-none-eabi/include/c++/10.3.1/bits/move.h ****     }
 2863              		.loc 8 199 11 view .LVU817
 2864 019a C6F8503C 		str	r3, [r6, #3152]
 2865              	.LBE912:
 2866              	.LBE914:
 2867              	.LBB915:
 2868              	.LBB916:
 197:/Library/DaisyToolchain/0.2.0/arm/arm-none-eabi/include/c++/10.3.1/bits/move.h ****       __a = _GLIBCXX_MOVE(__b);
 2869              		.loc 8 197 11 view .LVU818
 2870 019e 079B     		ldr	r3, [sp, #28]
 2871              	.LVL178:
 197:/Library/DaisyToolchain/0.2.0/arm/arm-none-eabi/include/c++/10.3.1/bits/move.h ****       __a = _GLIBCXX_MOVE(__b);
 2872              		.loc 8 197 11 view .LVU819
ARM GAS  /var/folders/wz/z09yph4n0qj4t7mjxhl6ttn80000gn/T//ccNrSY5I.s 			page 90


 2873              	.LBE916:
 2874              	.LBE915:
 2875              	.LBB918:
 2876              	.LBB913:
 198:/Library/DaisyToolchain/0.2.0/arm/arm-none-eabi/include/c++/10.3.1/bits/move.h ****       __b = _GLIBCXX_MOVE(__tmp);
 2877              		.loc 8 198 11 view .LVU820
 2878 01a0 0692     		str	r2, [sp, #24]
 2879              	.LVL179:
 198:/Library/DaisyToolchain/0.2.0/arm/arm-none-eabi/include/c++/10.3.1/bits/move.h ****       __b = _GLIBCXX_MOVE(__tmp);
 2880              		.loc 8 198 11 view .LVU821
 2881              	.LBE913:
 2882              	.LBE918:
 2883              	.LBB919:
 2884              	.LBI915:
 189:/Library/DaisyToolchain/0.2.0/arm/arm-none-eabi/include/c++/10.3.1/bits/move.h ****     _GLIBCXX_NOEXCEPT_IF(__and_<is_nothrow_move_constructible<_Tp>,
 2885              		.loc 8 189 5 is_stmt 1 view .LVU822
 2886              	.LBB917:
 198:/Library/DaisyToolchain/0.2.0/arm/arm-none-eabi/include/c++/10.3.1/bits/move.h ****       __b = _GLIBCXX_MOVE(__tmp);
 2887              		.loc 8 198 11 is_stmt 0 view .LVU823
 2888 01a2 D6F8542C 		ldr	r2, [r6, #3156]
 199:/Library/DaisyToolchain/0.2.0/arm/arm-none-eabi/include/c++/10.3.1/bits/move.h ****     }
 2889              		.loc 8 199 11 view .LVU824
 2890 01a6 C6F8543C 		str	r3, [r6, #3156]
 198:/Library/DaisyToolchain/0.2.0/arm/arm-none-eabi/include/c++/10.3.1/bits/move.h ****       __b = _GLIBCXX_MOVE(__tmp);
 2891              		.loc 8 198 11 view .LVU825
 2892 01aa 0792     		str	r2, [sp, #28]
 2893              	.LVL180:
 198:/Library/DaisyToolchain/0.2.0/arm/arm-none-eabi/include/c++/10.3.1/bits/move.h ****       __b = _GLIBCXX_MOVE(__tmp);
 2894              		.loc 8 198 11 view .LVU826
 2895              	.LBE917:
 2896              	.LBE919:
 2897              	.LBE922:
 2898              	.LBE930:
 2899              	.LBB931:
 2900              	.LBI927:
 303:/Library/DaisyToolchain/0.2.0/arm/arm-none-eabi/include/c++/10.3.1/bits/std_function.h ****     : public _Maybe_unary_or_binary_function<_Res, _ArgTypes...>,
 2901              		.loc 1 303 11 is_stmt 1 view .LVU827
 2902              	.LBB929:
 2903 01ac FFF7FEFF 		bl	_ZNSt14_Function_baseD2Ev
 2904              	.LVL181:
 303:/Library/DaisyToolchain/0.2.0/arm/arm-none-eabi/include/c++/10.3.1/bits/std_function.h ****     : public _Maybe_unary_or_binary_function<_Res, _ArgTypes...>,
 2905              		.loc 1 303 11 is_stmt 0 view .LVU828
 2906              	.LBE929:
 2907              	.LBE931:
 2908              	.LBE935:
 2909              	.LBE939:
  38:DSP/FX/../../Parameters/AudioParameter.h ****             isSelected = true;
 2910              		.loc 7 38 9 view .LVU829
 2911 01b0 96F8443C 		ldrb	r3, [r6, #3140]	@ zero_extendqisi2
 2912              	.LBE944:
 2913              	.LBE974:
 2914              	.LBB975:
 2915              	.LBB976:
 303:/Library/DaisyToolchain/0.2.0/arm/arm-none-eabi/include/c++/10.3.1/bits/std_function.h ****     : public _Maybe_unary_or_binary_function<_Res, _ArgTypes...>,
 2916              		.loc 1 303 11 view .LVU830
 2917 01b4 6846     		mov	r0, sp
 2918              	.LBE976:
ARM GAS  /var/folders/wz/z09yph4n0qj4t7mjxhl6ttn80000gn/T//ccNrSY5I.s 			page 91


 2919              	.LBE975:
 2920              	.LBB978:
 2921              	.LBB945:
  38:DSP/FX/../../Parameters/AudioParameter.h ****             isSelected = true;
 2922              		.loc 7 38 9 view .LVU831
 2923 01b6 052B     		cmp	r3, #5
  39:DSP/FX/../../Parameters/AudioParameter.h ****     }
 2924              		.loc 7 39 24 view .LVU832
 2925 01b8 1CBF     		itt	ne
 2926 01ba 0123     		movne	r3, #1
 2927 01bc 86F8463C 		strbne	r3, [r6, #3142]
 2928              	.LVL182:
  39:DSP/FX/../../Parameters/AudioParameter.h ****     }
 2929              		.loc 7 39 24 view .LVU833
 2930              	.LBE945:
 2931              	.LBE978:
 2932              	.LBB979:
 2933              	.LBI975:
 303:/Library/DaisyToolchain/0.2.0/arm/arm-none-eabi/include/c++/10.3.1/bits/std_function.h ****     : public _Maybe_unary_or_binary_function<_Res, _ArgTypes...>,
 2934              		.loc 1 303 11 is_stmt 1 view .LVU834
 2935              	.LBB977:
 2936 01c0 FFF7FEFF 		bl	_ZNSt14_Function_baseD2Ev
 2937              	.LVL183:
 303:/Library/DaisyToolchain/0.2.0/arm/arm-none-eabi/include/c++/10.3.1/bits/std_function.h ****     : public _Maybe_unary_or_binary_function<_Res, _ArgTypes...>,
 2938              		.loc 1 303 11 is_stmt 0 view .LVU835
 2939              	.LBE977:
 2940              	.LBE979:
  16:DSP/FX/PitchShift.cpp ****     rand.init(seed, 0, 1, LINEAR, ChannelIDs::AMP4, [this] (float r) { shifter.SetFun(r); });
 2941              		.loc 3 16 5 is_stmt 1 view .LVU836
 2942              	.LBB980:
 2943              	.LBI980:
 601:/Library/DaisyToolchain/0.2.0/arm/arm-none-eabi/include/c++/10.3.1/bits/std_function.h ****       function(_Functor __f)
 2944              		.loc 1 601 7 view .LVU837
 2945              	.LBB981:
 2946              	.LBB982:
 2947              	.LBI982:
 240:/Library/DaisyToolchain/0.2.0/arm/arm-none-eabi/include/c++/10.3.1/bits/std_function.h **** 
 2948              		.loc 1 240 5 view .LVU838
 240:/Library/DaisyToolchain/0.2.0/arm/arm-none-eabi/include/c++/10.3.1/bits/std_function.h **** 
 2949              		.loc 1 240 5 is_stmt 0 view .LVU839
 2950              	.LBE982:
 2951              	.LBB983:
 2952              	.LBB984:
 2953              	.LBI984:
 227:/Library/DaisyToolchain/0.2.0/arm/arm-none-eabi/include/c++/10.3.1/bits/std_function.h **** 	  { return true; }
 2954              		.loc 1 227 4 is_stmt 1 view .LVU840
 227:/Library/DaisyToolchain/0.2.0/arm/arm-none-eabi/include/c++/10.3.1/bits/std_function.h **** 	  { return true; }
 2955              		.loc 1 227 4 is_stmt 0 view .LVU841
 2956              	.LBE984:
 2957              	.LBB985:
 2958              	.LBI985:
 101:/Library/DaisyToolchain/0.2.0/arm/arm-none-eabi/include/c++/10.3.1/bits/move.h ****     { return static_cast<typename std::remove_reference<_Tp>::type&&>(__t); }
 2959              		.loc 8 101 5 is_stmt 1 view .LVU842
 101:/Library/DaisyToolchain/0.2.0/arm/arm-none-eabi/include/c++/10.3.1/bits/move.h ****     { return static_cast<typename std::remove_reference<_Tp>::type&&>(__t); }
 2960              		.loc 8 101 5 is_stmt 0 view .LVU843
 2961              	.LBE985:
 2962              	.LBB986:
ARM GAS  /var/folders/wz/z09yph4n0qj4t7mjxhl6ttn80000gn/T//ccNrSY5I.s 			page 92


 2963              	.LBI986:
 207:/Library/DaisyToolchain/0.2.0/arm/arm-none-eabi/include/c++/10.3.1/bits/std_function.h **** 	{ _M_init_functor(__functor, std::move(__f), _Local_storage()); }
 2964              		.loc 1 207 2 is_stmt 1 view .LVU844
 2965              	.LBB987:
 2966              	.LBI987:
 232:/Library/DaisyToolchain/0.2.0/arm/arm-none-eabi/include/c++/10.3.1/bits/std_function.h **** 	{ ::new (__functor._M_access()) _Functor(std::move(__f)); }
 2967              		.loc 1 232 2 view .LVU845
 232:/Library/DaisyToolchain/0.2.0/arm/arm-none-eabi/include/c++/10.3.1/bits/std_function.h **** 	{ ::new (__functor._M_access()) _Functor(std::move(__f)); }
 2968              		.loc 1 232 2 is_stmt 0 view .LVU846
 2969              	.LBE987:
 2970              	.LBE986:
 2971              	.LBE983:
 2972              	.LBE981:
 2973              	.LBE980:
  87:/Library/DaisyToolchain/0.2.0/arm/arm-none-eabi/include/c++/10.3.1/bits/std_function.h ****     const void* _M_access() const { return &_M_pod_data[0]; }
 2974              		.loc 1 87 37 is_stmt 1 view .LVU847
 2975              		.loc 5 175 3 view .LVU848
 2976              	.LBB999:
 2977              	.LBB995:
 2978              	.LBB991:
 610:/Library/DaisyToolchain/0.2.0/arm/arm-none-eabi/include/c++/10.3.1/bits/std_function.h **** 	    _M_manager = &_My_handler::_M_manager;
 2979              		.loc 1 610 17 is_stmt 0 view .LVU849
 2980 01c4 1C4B     		ldr	r3, .L92+32
 2981              	.LBE991:
 2982              	.LBE995:
 2983              	.LBE999:
 2984              	.LBB1000:
 2985              	.LBB1001:
  27:DSP/FX/../../Parameters/AudioParameter.h ****         input = 0;
 2986              		.loc 7 27 12 view .LVU850
 2987 01c6 C6F8588C 		str	r8, [r6, #3160]
  36:DSP/FX/../../Parameters/AudioParameter.h **** 
 2988              		.loc 7 36 18 view .LVU851
 2989 01ca 04F59840 		add	r0, r4, #19456
 2990              	.LBE1001:
 2991              	.LBE1000:
 2992              	.LBB1006:
 2993              	.LBB996:
 2994              	.LBB992:
 610:/Library/DaisyToolchain/0.2.0/arm/arm-none-eabi/include/c++/10.3.1/bits/std_function.h **** 	    _M_manager = &_My_handler::_M_manager;
 2995              		.loc 1 610 17 view .LVU852
 2996 01ce 0793     		str	r3, [sp, #28]
 2997              	.LBE992:
 2998              	.LBE996:
 2999              	.LBE1006:
 3000              	.LBB1007:
 3001              	.LBB1002:
  36:DSP/FX/../../Parameters/AudioParameter.h **** 
 3002              		.loc 7 36 18 view .LVU853
 3003 01d0 04A9     		add	r1, sp, #16
 3004              	.LVL184:
  36:DSP/FX/../../Parameters/AudioParameter.h **** 
 3005              		.loc 7 36 18 view .LVU854
 3006              	.LBE1002:
 3007              	.LBE1007:
 3008              	.LBB1008:
 3009              	.LBB997:
ARM GAS  /var/folders/wz/z09yph4n0qj4t7mjxhl6ttn80000gn/T//ccNrSY5I.s 			page 93


 3010              	.LBB993:
 611:/Library/DaisyToolchain/0.2.0/arm/arm-none-eabi/include/c++/10.3.1/bits/std_function.h **** 	  }
 3011              		.loc 1 611 17 view .LVU855
 3012 01d2 1A4B     		ldr	r3, .L92+36
 3013              	.LBE993:
 3014              	.LBE997:
 3015              	.LBE1008:
 3016              	.LBB1009:
 3017              	.LBB1003:
  36:DSP/FX/../../Parameters/AudioParameter.h **** 
 3018              		.loc 7 36 18 view .LVU856
 3019 01d4 7430     		adds	r0, r0, #116
 3020              	.LBE1003:
 3021              	.LBE1009:
 3022              	.LBB1010:
 3023              	.LBB998:
 3024              	.LBB994:
 3025              	.LBB990:
 3026              	.LBB989:
 3027              	.LBB988:
 233:/Library/DaisyToolchain/0.2.0/arm/arm-none-eabi/include/c++/10.3.1/bits/std_function.h **** 
 3028              		.loc 1 233 4 view .LVU857
 3029 01d6 0494     		str	r4, [sp, #16]
 3030              	.LVL185:
 233:/Library/DaisyToolchain/0.2.0/arm/arm-none-eabi/include/c++/10.3.1/bits/std_function.h **** 
 3031              		.loc 1 233 4 view .LVU858
 3032              	.LBE988:
 3033              	.LBE989:
 3034              	.LBE990:
 611:/Library/DaisyToolchain/0.2.0/arm/arm-none-eabi/include/c++/10.3.1/bits/std_function.h **** 	  }
 3035              		.loc 1 611 17 view .LVU859
 3036 01d8 0693     		str	r3, [sp, #24]
 3037              	.LVL186:
 611:/Library/DaisyToolchain/0.2.0/arm/arm-none-eabi/include/c++/10.3.1/bits/std_function.h **** 	  }
 3038              		.loc 1 611 17 view .LVU860
 3039              	.LBE994:
 3040              	.LBE998:
 3041              	.LBE1010:
 3042              	.LBB1011:
 3043              	.LBI1000:
  25:DSP/FX/../../Parameters/AudioParameter.h ****     {
 3044              		.loc 7 25 10 is_stmt 1 view .LVU861
 3045              	.LBB1004:
  28:DSP/FX/../../Parameters/AudioParameter.h **** 
 3046              		.loc 7 28 15 is_stmt 0 view .LVU862
 3047 01da 06F65843 		addw	r3, r6, #3160
 3048 01de 5D60     		str	r5, [r3, #4]	@ float
  30:DSP/FX/../../Parameters/AudioParameter.h ****         min = mi;
 3049              		.loc 7 30 16 view .LVU863
 3050 01e0 DD60     		str	r5, [r3, #12]	@ float
  31:DSP/FX/../../Parameters/AudioParameter.h ****         max = ma;
 3051              		.loc 7 31 13 view .LVU864
 3052 01e2 1D61     		str	r5, [r3, #16]	@ float
  32:DSP/FX/../../Parameters/AudioParameter.h **** 
 3053              		.loc 7 32 13 view .LVU865
 3054 01e4 C3F81490 		str	r9, [r3, #20]	@ float
  35:DSP/FX/../../Parameters/AudioParameter.h ****         callback = cb;
ARM GAS  /var/folders/wz/z09yph4n0qj4t7mjxhl6ttn80000gn/T//ccNrSY5I.s 			page 94


 3055              		.loc 7 35 19 view .LVU866
 3056 01e8 0323     		movs	r3, #3
 3057 01ea A6F8703C 		strh	r3, [r6, #3184]	@ movhi
  36:DSP/FX/../../Parameters/AudioParameter.h **** 
 3058              		.loc 7 36 18 view .LVU867
 3059 01ee FFF7FEFF 		bl	_ZNSt8functionIFvfEEaSERKS1_.isra.0
 3060              	.LVL187:
  38:DSP/FX/../../Parameters/AudioParameter.h ****             isSelected = true;
 3061              		.loc 7 38 9 view .LVU868
 3062 01f2 96F8703C 		ldrb	r3, [r6, #3184]	@ zero_extendqisi2
 3063              	.LBE1004:
 3064              	.LBE1011:
 3065              	.LBB1012:
 3066              	.LBB1013:
 303:/Library/DaisyToolchain/0.2.0/arm/arm-none-eabi/include/c++/10.3.1/bits/std_function.h ****     : public _Maybe_unary_or_binary_function<_Res, _ArgTypes...>,
 3067              		.loc 1 303 11 view .LVU869
 3068 01f6 04A8     		add	r0, sp, #16
 3069              	.LVL188:
 303:/Library/DaisyToolchain/0.2.0/arm/arm-none-eabi/include/c++/10.3.1/bits/std_function.h ****     : public _Maybe_unary_or_binary_function<_Res, _ArgTypes...>,
 3070              		.loc 1 303 11 view .LVU870
 3071              	.LBE1013:
 3072              	.LBE1012:
 3073              	.LBB1015:
 3074              	.LBB1005:
  38:DSP/FX/../../Parameters/AudioParameter.h ****             isSelected = true;
 3075              		.loc 7 38 9 view .LVU871
 3076 01f8 052B     		cmp	r3, #5
  39:DSP/FX/../../Parameters/AudioParameter.h ****     }
 3077              		.loc 7 39 24 view .LVU872
 3078 01fa 1CBF     		itt	ne
 3079 01fc 0123     		movne	r3, #1
 3080 01fe 86F8723C 		strbne	r3, [r6, #3186]
 3081              	.LVL189:
  39:DSP/FX/../../Parameters/AudioParameter.h ****     }
 3082              		.loc 7 39 24 view .LVU873
 3083              	.LBE1005:
 3084              	.LBE1015:
 3085              	.LBB1016:
 3086              	.LBI1012:
 303:/Library/DaisyToolchain/0.2.0/arm/arm-none-eabi/include/c++/10.3.1/bits/std_function.h ****     : public _Maybe_unary_or_binary_function<_Res, _ArgTypes...>,
 3087              		.loc 1 303 11 is_stmt 1 view .LVU874
 3088              	.LBB1014:
 3089 0202 FFF7FEFF 		bl	_ZNSt14_Function_baseD2Ev
 3090              	.LVL190:
 303:/Library/DaisyToolchain/0.2.0/arm/arm-none-eabi/include/c++/10.3.1/bits/std_function.h ****     : public _Maybe_unary_or_binary_function<_Res, _ArgTypes...>,
 3091              		.loc 1 303 11 is_stmt 0 view .LVU875
 3092              	.LBE1014:
 3093              	.LBE1016:
  18:DSP/FX/PitchShift.cpp ****     setDefaultValues();
 3094              		.loc 3 18 5 is_stmt 1 view .LVU876
  18:DSP/FX/PitchShift.cpp ****     setDefaultValues();
 3095              		.loc 3 18 21 is_stmt 0 view .LVU877
 3096 0206 2046     		mov	r0, r4
  19:DSP/FX/PitchShift.cpp **** }
 3097              		.loc 3 19 1 view .LVU878
 3098 0208 09B0     		add	sp, sp, #36
 3099              		.cfi_remember_state
ARM GAS  /var/folders/wz/z09yph4n0qj4t7mjxhl6ttn80000gn/T//ccNrSY5I.s 			page 95


 3100              		.cfi_def_cfa_offset 36
 3101              		@ sp needed
 3102 020a BDE8F04F 		pop	{r4, r5, r6, r7, r8, r9, r10, fp, lr}
 3103              		.cfi_restore 14
 3104              		.cfi_restore 11
 3105              		.cfi_restore 10
 3106              		.cfi_restore 9
 3107              		.cfi_restore 8
 3108              		.cfi_restore 7
 3109              		.cfi_restore 6
 3110              		.cfi_restore 5
 3111              		.cfi_restore 4
 3112              		.cfi_def_cfa_offset 0
 3113              	.LVL191:
  18:DSP/FX/PitchShift.cpp ****     setDefaultValues();
 3114              		.loc 3 18 21 view .LVU879
 3115 020e FFF7FEBF 		b	_ZN10PitchShift16setDefaultValuesEv
 3116              	.LVL192:
 3117              	.L81:
 3118              		.cfi_restore_state
 3119              	.LBB1017:
 3120              	.LBB854:
  39:DSP/FX/../../Parameters/AudioParameter.h ****     }
 3121              		.loc 7 39 24 view .LVU880
 3122 0212 86F8167C 		strb	r7, [r6, #3094]
 3123 0216 91E7     		b	.L82
 3124              	.L93:
 3125              		.align	2
 3126              	.L92:
 3127 0218 00803B47 		.word	1195081728
 3128 021c 0000A040 		.word	1084227584
 3129 0220 00004842 		.word	1112014848
 3130 0224 DB0F4940 		.word	1078530011
 3131 0228 00000000 		.word	_ZNSt17_Function_handlerIFvfEZN10PitchShift4initEPN5daisy9DaisySeedEEUlfE_E9_M_invokeERKSt9_
 3132 022c 00000000 		.word	_ZNSt17_Function_handlerIFvfEZN10PitchShift4initEPN5daisy9DaisySeedEEUlfE_E10_M_managerERSt9
 3133 0230 00000000 		.word	_ZNSt17_Function_handlerIFviEZN10PitchShift4initEPN5daisy9DaisySeedEEUliE0_E9_M_invokeERKSt9
 3134 0234 00000000 		.word	_ZNSt17_Function_handlerIFviEZN10PitchShift4initEPN5daisy9DaisySeedEEUliE0_E10_M_managerERSt
 3135 0238 00000000 		.word	_ZNSt17_Function_handlerIFvfEZN10PitchShift4initEPN5daisy9DaisySeedEEUlfE1_E9_M_invokeERKSt9
 3136 023c 00000000 		.word	_ZNSt17_Function_handlerIFvfEZN10PitchShift4initEPN5daisy9DaisySeedEEUlfE1_E10_M_managerERSt
 3137              	.LBE854:
 3138              	.LBE1017:
 3139              		.cfi_endproc
 3140              	.LFE5657:
 3142              		.weak	_ZZN7daisysp6myrandEvE4seed
 3143              		.section	.data._ZZN7daisysp6myrandEvE4seed,"awG",%progbits,_ZZN7daisysp6myrandEvE4seed,comdat
 3144              		.align	2
 3147              	_ZZN7daisysp6myrandEvE4seed:
 3148 0000 01000000 		.word	1
 3149              		.text
 3150              	.Letext0:
 3151              		.file 10 "/Library/DaisyToolchain/0.2.0/arm/arm-none-eabi/include/machine/_default_types.h"
 3152              		.file 11 "/Library/DaisyToolchain/0.2.0/arm/arm-none-eabi/include/sys/_stdint.h"
 3153              		.file 12 "/Library/DaisyToolchain/0.2.0/arm/arm-none-eabi/include/stdint.h"
 3154              		.file 13 "/Library/DaisyToolchain/0.2.0/arm/lib/gcc/arm-none-eabi/10.3.1/include/stddef.h"
 3155              		.file 14 "/Library/DaisyToolchain/0.2.0/arm/arm-none-eabi/include/c++/10.3.1/cmath"
 3156              		.file 15 "/Library/DaisyToolchain/0.2.0/arm/arm-none-eabi/include/c++/10.3.1/bits/std_abs.h"
 3157              		.file 16 "/Library/DaisyToolchain/0.2.0/arm/arm-none-eabi/include/c++/10.3.1/cstdlib"
ARM GAS  /var/folders/wz/z09yph4n0qj4t7mjxhl6ttn80000gn/T//ccNrSY5I.s 			page 96


 3158              		.file 17 "/Library/DaisyToolchain/0.2.0/arm/arm-none-eabi/include/c++/10.3.1/cstdint"
 3159              		.file 18 "/Library/DaisyToolchain/0.2.0/arm/arm-none-eabi/include/c++/10.3.1/type_traits"
 3160              		.file 19 "/Library/DaisyToolchain/0.2.0/arm/arm-none-eabi/include/c++/10.3.1/arm-none-eabi/thumb/v
 3161              		.file 20 "/Library/DaisyToolchain/0.2.0/arm/arm-none-eabi/include/c++/10.3.1/bits/stl_pair.h"
 3162              		.file 21 "/Library/DaisyToolchain/0.2.0/arm/arm-none-eabi/include/c++/10.3.1/debug/debug.h"
 3163              		.file 22 "/Library/DaisyToolchain/0.2.0/arm/arm-none-eabi/include/c++/10.3.1/bits/algorithmfwd.h"
 3164              		.file 23 "/Library/DaisyToolchain/0.2.0/arm/arm-none-eabi/include/c++/10.3.1/bits/exception_ptr.h"
 3165              		.file 24 "/Library/DaisyToolchain/0.2.0/arm/arm-none-eabi/include/c++/10.3.1/cstdarg"
 3166              		.file 25 "/Library/DaisyToolchain/0.2.0/arm/arm-none-eabi/include/c++/10.3.1/cstdio"
 3167              		.file 26 "/Library/DaisyToolchain/0.2.0/arm/arm-none-eabi/include/c++/10.3.1/cstring"
 3168              		.file 27 "/Library/DaisyToolchain/0.2.0/arm/arm-none-eabi/include/c++/10.3.1/cwchar"
 3169              		.file 28 "/Library/DaisyToolchain/0.2.0/arm/arm-none-eabi/include/c++/10.3.1/clocale"
 3170              		.file 29 "/Library/DaisyToolchain/0.2.0/arm/arm-none-eabi/include/c++/10.3.1/bits/basic_string.h"
 3171              		.file 30 "/Library/DaisyToolchain/0.2.0/arm/arm-none-eabi/include/c++/10.3.1/bits/stl_iterator.h"
 3172              		.file 31 "/Library/DaisyToolchain/0.2.0/arm/arm-none-eabi/include/c++/10.3.1/bits/uses_allocator.h
 3173              		.file 32 "/Library/DaisyToolchain/0.2.0/arm/arm-none-eabi/include/c++/10.3.1/tuple"
 3174              		.file 33 "/Library/DaisyToolchain/0.2.0/arm/arm-none-eabi/include/c++/10.3.1/functional"
 3175              		.file 34 "/Library/DaisyToolchain/0.2.0/arm/arm-none-eabi/include/c++/10.3.1/bits/shared_ptr_base.
 3176              		.file 35 "/Library/DaisyToolchain/0.2.0/arm/arm-none-eabi/include/c++/10.3.1/bits/refwrap.h"
 3177              		.file 36 "/Library/DaisyToolchain/0.2.0/arm/arm-none-eabi/include/c++/10.3.1/bits/stl_function.h"
 3178              		.file 37 "/Library/DaisyToolchain/0.2.0/arm/arm-none-eabi/include/c++/10.3.1/bits/predefined_ops.h
 3179              		.file 38 "/Library/DaisyToolchain/0.2.0/arm/arm-none-eabi/include/c++/10.3.1/ext/concurrence.h"
 3180              		.file 39 "/Library/DaisyToolchain/0.2.0/arm/arm-none-eabi/include/sys/_types.h"
 3181              		.file 40 "/Library/DaisyToolchain/0.2.0/arm/arm-none-eabi/include/sys/reent.h"
 3182              		.file 41 "/Library/DaisyToolchain/0.2.0/arm/arm-none-eabi/include/sys/lock.h"
 3183              		.file 42 "/Library/DaisyToolchain/0.2.0/arm/arm-none-eabi/include/math.h"
 3184              		.file 43 "/Library/DaisyToolchain/0.2.0/arm/arm-none-eabi/include/stdlib.h"
 3185              		.file 44 "/Library/DaisyToolchain/0.2.0/arm/arm-none-eabi/include/c++/10.3.1/math.h"
 3186              		.file 45 "/Library/DaisyToolchain/0.2.0/arm/arm-none-eabi/include/c++/10.3.1/stdlib.h"
 3187              		.file 46 "../../../libDaisy//src/daisy_core.h"
 3188              		.file 47 "../../../libDaisy//src/per/tim.h"
 3189              		.file 48 "../../../libDaisy//src/sys/system.h"
 3190              		.file 49 "../../../libDaisy//src/per/qspi.h"
 3191              		.file 50 "../../../libDaisy//src/per/dac.h"
 3192              		.file 51 "../../../libDaisy//src/per/sai.h"
 3193              		.file 52 "../../../libDaisy//src/hid/audio.h"
 3194              		.file 53 "../../../libDaisy//src/per/adc.h"
 3195              		.file 54 "../../../libDaisy//src/hid/usb.h"
 3196              		.file 55 "../../../libDaisy//src/hid/switch.h"
 3197              		.file 56 "../../../libDaisy//src/util/wav_format.h"
 3198              		.file 57 "../../../libDaisy//src/dev/max11300.h"
 3199              		.file 58 "../../../libDaisy//src/daisy_seed.h"
 3200              		.file 59 "../../../libDaisy//src/per/gpio.h"
 3201              		.file 60 "../../../libDaisy//src/dev/sdram.h"
 3202              		.file 61 "/Library/DaisyToolchain/0.2.0/arm/lib/gcc/arm-none-eabi/10.3.1/include/stdarg.h"
 3203              		.file 62 "/Library/DaisyToolchain/0.2.0/arm/arm-none-eabi/include/stdio.h"
 3204              		.file 63 "/Library/DaisyToolchain/0.2.0/arm/arm-none-eabi/include/string.h"
 3205              		.file 64 "../../../DaisySP//Source/Control/adenv.h"
 3206              		.file 65 "../../../DaisySP//Source/Utility/dsp.h"
 3207              		.file 66 "/Library/DaisyToolchain/0.2.0/arm/arm-none-eabi/include/wchar.h"
 3208              		.file 67 "/Library/DaisyToolchain/0.2.0/arm/arm-none-eabi/include/locale.h"
 3209              		.file 68 "DSP/FX/../../Parameters/../Utils/Helpers.h"
 3210              		.file 69 "DSP/FX/../../Parameters/BinaryParameter.h"
 3211              		.file 70 "DSP/FX/../../Parameters/DefaultValues.h"
 3212              		.file 71 "../../../libDaisy//src/dev/sr_595.h"
 3213              		.file 72 "DSP/FX/PitchShift.h"
 3214              		.file 73 "/Library/DaisyToolchain/0.2.0/arm/arm-none-eabi/include/c++/10.3.1/bits/functexcept.h"
ARM GAS  /var/folders/wz/z09yph4n0qj4t7mjxhl6ttn80000gn/T//ccNrSY5I.s 			page 97


 3215              		.file 74 "<built-in>"
ARM GAS  /var/folders/wz/z09yph4n0qj4t7mjxhl6ttn80000gn/T//ccNrSY5I.s 			page 98


DEFINED SYMBOLS
                            *ABS*:0000000000000000 PitchShift.cpp
/var/folders/wz/z09yph4n0qj4t7mjxhl6ttn80000gn/T//ccNrSY5I.s:19     .text._ZNSt17_Function_handlerIFvfEZN10PitchShift4initEPN5daisy9DaisySeedEEUlfE_E9_M_invokeERKSt9_Any_dataOf:0000000000000000 $t
/var/folders/wz/z09yph4n0qj4t7mjxhl6ttn80000gn/T//ccNrSY5I.s:24     .text._ZNSt17_Function_handlerIFvfEZN10PitchShift4initEPN5daisy9DaisySeedEEUlfE_E9_M_invokeERKSt9_Any_dataOf:0000000000000000 _ZNSt17_Function_handlerIFvfEZN10PitchShift4initEPN5daisy9DaisySeedEEUlfE_E9_M_invokeERKSt9_Any_dataOf
/var/folders/wz/z09yph4n0qj4t7mjxhl6ttn80000gn/T//ccNrSY5I.s:75     .text._ZNSt17_Function_handlerIFvfEZN10PitchShift4initEPN5daisy9DaisySeedEEUlfE1_E9_M_invokeERKSt9_Any_dataOf:0000000000000000 $t
/var/folders/wz/z09yph4n0qj4t7mjxhl6ttn80000gn/T//ccNrSY5I.s:80     .text._ZNSt17_Function_handlerIFvfEZN10PitchShift4initEPN5daisy9DaisySeedEEUlfE1_E9_M_invokeERKSt9_Any_dataOf:0000000000000000 _ZNSt17_Function_handlerIFvfEZN10PitchShift4initEPN5daisy9DaisySeedEEUlfE1_E9_M_invokeERKSt9_Any_dataOf
/var/folders/wz/z09yph4n0qj4t7mjxhl6ttn80000gn/T//ccNrSY5I.s:142    .text._ZNSt17_Function_handlerIFvfEZN10PitchShift4initEPN5daisy9DaisySeedEEUlfE1_E10_M_managerERSt9_Any_dataRKS7_St18_Manager_operation:0000000000000000 $t
/var/folders/wz/z09yph4n0qj4t7mjxhl6ttn80000gn/T//ccNrSY5I.s:147    .text._ZNSt17_Function_handlerIFvfEZN10PitchShift4initEPN5daisy9DaisySeedEEUlfE1_E10_M_managerERSt9_Any_dataRKS7_St18_Manager_operation:0000000000000000 _ZNSt17_Function_handlerIFvfEZN10PitchShift4initEPN5daisy9DaisySeedEEUlfE1_E10_M_managerERSt9_Any_dataRKS7_St18_Manager_operation
/var/folders/wz/z09yph4n0qj4t7mjxhl6ttn80000gn/T//ccNrSY5I.s:227    .text._ZNSt17_Function_handlerIFviEZN10PitchShift4initEPN5daisy9DaisySeedEEUliE0_E10_M_managerERSt9_Any_dataRKS7_St18_Manager_operation:0000000000000000 $t
/var/folders/wz/z09yph4n0qj4t7mjxhl6ttn80000gn/T//ccNrSY5I.s:232    .text._ZNSt17_Function_handlerIFviEZN10PitchShift4initEPN5daisy9DaisySeedEEUliE0_E10_M_managerERSt9_Any_dataRKS7_St18_Manager_operation:0000000000000000 _ZNSt17_Function_handlerIFviEZN10PitchShift4initEPN5daisy9DaisySeedEEUliE0_E10_M_managerERSt9_Any_dataRKS7_St18_Manager_operation
/var/folders/wz/z09yph4n0qj4t7mjxhl6ttn80000gn/T//ccNrSY5I.s:311    .text._ZNSt17_Function_handlerIFvfEZN10PitchShift4initEPN5daisy9DaisySeedEEUlfE_E10_M_managerERSt9_Any_dataRKS7_St18_Manager_operation:0000000000000000 $t
/var/folders/wz/z09yph4n0qj4t7mjxhl6ttn80000gn/T//ccNrSY5I.s:316    .text._ZNSt17_Function_handlerIFvfEZN10PitchShift4initEPN5daisy9DaisySeedEEUlfE_E10_M_managerERSt9_Any_dataRKS7_St18_Manager_operation:0000000000000000 _ZNSt17_Function_handlerIFvfEZN10PitchShift4initEPN5daisy9DaisySeedEEUlfE_E10_M_managerERSt9_Any_dataRKS7_St18_Manager_operation
/var/folders/wz/z09yph4n0qj4t7mjxhl6ttn80000gn/T//ccNrSY5I.s:395    .text._ZN7daisysp12PitchShifter16SetTranspositionERKf.isra.0:0000000000000000 $t
/var/folders/wz/z09yph4n0qj4t7mjxhl6ttn80000gn/T//ccNrSY5I.s:400    .text._ZN7daisysp12PitchShifter16SetTranspositionERKf.isra.0:0000000000000000 _ZN7daisysp12PitchShifter16SetTranspositionERKf.isra.0
/var/folders/wz/z09yph4n0qj4t7mjxhl6ttn80000gn/T//ccNrSY5I.s:549    .text._ZN7daisysp12PitchShifter16SetTranspositionERKf.isra.0:00000000000000ec $d
/var/folders/wz/z09yph4n0qj4t7mjxhl6ttn80000gn/T//ccNrSY5I.s:554    .text._ZNSt17_Function_handlerIFviEZN10PitchShift4initEPN5daisy9DaisySeedEEUliE0_E9_M_invokeERKSt9_Any_dataOi:0000000000000000 $t
/var/folders/wz/z09yph4n0qj4t7mjxhl6ttn80000gn/T//ccNrSY5I.s:559    .text._ZNSt17_Function_handlerIFviEZN10PitchShift4initEPN5daisy9DaisySeedEEUliE0_E9_M_invokeERKSt9_Any_dataOi:0000000000000000 _ZNSt17_Function_handlerIFviEZN10PitchShift4initEPN5daisy9DaisySeedEEUliE0_E9_M_invokeERKSt9_Any_dataOi
/var/folders/wz/z09yph4n0qj4t7mjxhl6ttn80000gn/T//ccNrSY5I.s:583    .text._ZN7daisysp6myrandEv:0000000000000000 $t
/var/folders/wz/z09yph4n0qj4t7mjxhl6ttn80000gn/T//ccNrSY5I.s:589    .text._ZN7daisysp6myrandEv:0000000000000000 _ZN7daisysp6myrandEv
/var/folders/wz/z09yph4n0qj4t7mjxhl6ttn80000gn/T//ccNrSY5I.s:630    .text._ZN7daisysp6myrandEv:0000000000000014 $d
/var/folders/wz/z09yph4n0qj4t7mjxhl6ttn80000gn/T//ccNrSY5I.s:3147   .data._ZZN7daisysp6myrandEvE4seed:0000000000000000 _ZZN7daisysp6myrandEvE4seed
/var/folders/wz/z09yph4n0qj4t7mjxhl6ttn80000gn/T//ccNrSY5I.s:635    .text._ZNSt14_Function_baseD2Ev:0000000000000000 $t
/var/folders/wz/z09yph4n0qj4t7mjxhl6ttn80000gn/T//ccNrSY5I.s:641    .text._ZNSt14_Function_baseD2Ev:0000000000000000 _ZNSt14_Function_baseD2Ev
/var/folders/wz/z09yph4n0qj4t7mjxhl6ttn80000gn/T//ccNrSY5I.s:641    .text._ZNSt14_Function_baseD2Ev:0000000000000000 _ZNSt14_Function_baseD1Ev
/var/folders/wz/z09yph4n0qj4t7mjxhl6ttn80000gn/T//ccNrSY5I.s:682    .text._ZN10PitchShift16setDefaultValuesEv:0000000000000000 $t
/var/folders/wz/z09yph4n0qj4t7mjxhl6ttn80000gn/T//ccNrSY5I.s:688    .text._ZN10PitchShift16setDefaultValuesEv:0000000000000000 _ZN10PitchShift16setDefaultValuesEv
/var/folders/wz/z09yph4n0qj4t7mjxhl6ttn80000gn/T//ccNrSY5I.s:801    .text._ZN7daisysp9DelayLineIfLj2400EE8SetDelayEf:0000000000000000 $t
/var/folders/wz/z09yph4n0qj4t7mjxhl6ttn80000gn/T//ccNrSY5I.s:807    .text._ZN7daisysp9DelayLineIfLj2400EE8SetDelayEf:0000000000000000 _ZN7daisysp9DelayLineIfLj2400EE8SetDelayEf
/var/folders/wz/z09yph4n0qj4t7mjxhl6ttn80000gn/T//ccNrSY5I.s:840    .text._ZNK7daisysp9DelayLineIfLj2400EE4ReadEv:0000000000000000 $t
/var/folders/wz/z09yph4n0qj4t7mjxhl6ttn80000gn/T//ccNrSY5I.s:846    .text._ZNK7daisysp9DelayLineIfLj2400EE4ReadEv:0000000000000000 _ZNK7daisysp9DelayLineIfLj2400EE4ReadEv
/var/folders/wz/z09yph4n0qj4t7mjxhl6ttn80000gn/T//ccNrSY5I.s:888    .text._ZN7daisysp12PitchShifter7ProcessERf:0000000000000000 $t
/var/folders/wz/z09yph4n0qj4t7mjxhl6ttn80000gn/T//ccNrSY5I.s:894    .text._ZN7daisysp12PitchShifter7ProcessERf:0000000000000000 _ZN7daisysp12PitchShifter7ProcessERf
/var/folders/wz/z09yph4n0qj4t7mjxhl6ttn80000gn/T//ccNrSY5I.s:1339   .text._ZN7daisysp12PitchShifter7ProcessERf:00000000000002b0 $d
/var/folders/wz/z09yph4n0qj4t7mjxhl6ttn80000gn/T//ccNrSY5I.s:1348   .text._ZN10PitchShift7processEPPfj:0000000000000000 $t
/var/folders/wz/z09yph4n0qj4t7mjxhl6ttn80000gn/T//ccNrSY5I.s:1354   .text._ZN10PitchShift7processEPPfj:0000000000000000 _ZN10PitchShift7processEPPfj
/var/folders/wz/z09yph4n0qj4t7mjxhl6ttn80000gn/T//ccNrSY5I.s:1468   .text._ZN14AudioParameterIfE4tickEv:0000000000000000 $t
/var/folders/wz/z09yph4n0qj4t7mjxhl6ttn80000gn/T//ccNrSY5I.s:1474   .text._ZN14AudioParameterIfE4tickEv:0000000000000000 _ZN14AudioParameterIfE4tickEv
/var/folders/wz/z09yph4n0qj4t7mjxhl6ttn80000gn/T//ccNrSY5I.s:1636   .text._ZN10PitchShift4tickEv:0000000000000000 $t
/var/folders/wz/z09yph4n0qj4t7mjxhl6ttn80000gn/T//ccNrSY5I.s:1642   .text._ZN10PitchShift4tickEv:0000000000000000 _ZN10PitchShift4tickEv
/var/folders/wz/z09yph4n0qj4t7mjxhl6ttn80000gn/T//ccNrSY5I.s:1824   .text._ZSt4swapISt9_Any_dataENSt9enable_ifIXsrSt6__and_IJSt6__not_ISt15__is_tuple_likeIT_EESt21is_move_constructibleIS5_ESt18is_move_assignableIS5_EEE5valueEvE4typeERS5_SF_:0000000000000000 $t
/var/folders/wz/z09yph4n0qj4t7mjxhl6ttn80000gn/T//ccNrSY5I.s:1830   .text._ZSt4swapISt9_Any_dataENSt9enable_ifIXsrSt6__and_IJSt6__not_ISt15__is_tuple_likeIT_EESt21is_move_constructibleIS5_ESt18is_move_assignableIS5_EEE5valueEvE4typeERS5_SF_:0000000000000000 _ZSt4swapISt9_Any_dataENSt9enable_ifIXsrSt6__and_IJSt6__not_ISt15__is_tuple_likeIT_EESt21is_move_constructibleIS5_ESt18is_move_assignableIS5_EEE5valueEvE4typeERS5_SF_
/var/folders/wz/z09yph4n0qj4t7mjxhl6ttn80000gn/T//ccNrSY5I.s:1867   .text._ZNSt8functionIFvfEEaSERKS1_.isra.0:0000000000000000 $t
/var/folders/wz/z09yph4n0qj4t7mjxhl6ttn80000gn/T//ccNrSY5I.s:1872   .text._ZNSt8functionIFvfEEaSERKS1_.isra.0:0000000000000000 _ZNSt8functionIFvfEEaSERKS1_.isra.0
/var/folders/wz/z09yph4n0qj4t7mjxhl6ttn80000gn/T//ccNrSY5I.s:2054   .text._ZN10PitchShift4initEPN5daisy9DaisySeedE:0000000000000000 $t
/var/folders/wz/z09yph4n0qj4t7mjxhl6ttn80000gn/T//ccNrSY5I.s:2060   .text._ZN10PitchShift4initEPN5daisy9DaisySeedE:0000000000000000 _ZN10PitchShift4initEPN5daisy9DaisySeedE
/var/folders/wz/z09yph4n0qj4t7mjxhl6ttn80000gn/T//ccNrSY5I.s:3127   .text._ZN10PitchShift4initEPN5daisy9DaisySeedE:0000000000000218 $d
/var/folders/wz/z09yph4n0qj4t7mjxhl6ttn80000gn/T//ccNrSY5I.s:3144   .data._ZZN7daisysp6myrandEvE4seed:0000000000000000 $d
                           .group:0000000000000000 _ZNSt14_Function_baseD5Ev

UNDEFINED SYMBOLS
_ZN7daisysp6Phasor7SetFreqEf
_ZN7daisysp6Phasor7ProcessEv
sinf
_ZNK5daisy9AdcHandle8GetFloatEh
_ZSt25__throw_bad_function_callv
powf
memset
ARM GAS  /var/folders/wz/z09yph4n0qj4t7mjxhl6ttn80000gn/T//ccNrSY5I.s 			page 99


