ARM GAS  /var/folders/wz/z09yph4n0qj4t7mjxhl6ttn80000gn/T//ccNJmc12.s 			page 1


   1              		.cpu cortex-m7
   2              		.arch armv7e-m
   3              		.fpu fpv5-d16
   4              		.eabi_attribute 28, 1
   5              		.eabi_attribute 20, 1
   6              		.eabi_attribute 21, 1
   7              		.eabi_attribute 23, 3
   8              		.eabi_attribute 24, 1
   9              		.eabi_attribute 25, 1
  10              		.eabi_attribute 26, 1
  11              		.eabi_attribute 30, 4
  12              		.eabi_attribute 34, 1
  13              		.eabi_attribute 18, 4
  14              		.file	"PitchShift.cpp"
  15              		.text
  16              	.Ltext0:
  17              		.cfi_sections	.debug_frame
  18              		.section	.text._ZNSt17_Function_handlerIFvfEZN10PitchShift4initEPN5daisy9DaisySeedEEUlfE_E9_M_invo
  19              		.align	1
  20              		.syntax unified
  21              		.thumb
  22              		.thumb_func
  24              	_ZNSt17_Function_handlerIFvfEZN10PitchShift4initEPN5daisy9DaisySeedEEUlfE_E9_M_invokeERKSt9_Any_dat
  25              	.LVL0:
  26              	.LFB6127:
  27              		.file 1 "/Library/DaisyToolchain/0.2.0/arm/arm-none-eabi/include/c++/10.3.1/bits/std_function.h"
   1:/Library/DaisyToolchain/0.2.0/arm/arm-none-eabi/include/c++/10.3.1/bits/std_function.h **** // Implementation of std::function -*- C++ -*-
   2:/Library/DaisyToolchain/0.2.0/arm/arm-none-eabi/include/c++/10.3.1/bits/std_function.h **** 
   3:/Library/DaisyToolchain/0.2.0/arm/arm-none-eabi/include/c++/10.3.1/bits/std_function.h **** // Copyright (C) 2004-2020 Free Software Foundation, Inc.
   4:/Library/DaisyToolchain/0.2.0/arm/arm-none-eabi/include/c++/10.3.1/bits/std_function.h **** //
   5:/Library/DaisyToolchain/0.2.0/arm/arm-none-eabi/include/c++/10.3.1/bits/std_function.h **** // This file is part of the GNU ISO C++ Library.  This library is free
   6:/Library/DaisyToolchain/0.2.0/arm/arm-none-eabi/include/c++/10.3.1/bits/std_function.h **** // software; you can redistribute it and/or modify it under the
   7:/Library/DaisyToolchain/0.2.0/arm/arm-none-eabi/include/c++/10.3.1/bits/std_function.h **** // terms of the GNU General Public License as published by the
   8:/Library/DaisyToolchain/0.2.0/arm/arm-none-eabi/include/c++/10.3.1/bits/std_function.h **** // Free Software Foundation; either version 3, or (at your option)
   9:/Library/DaisyToolchain/0.2.0/arm/arm-none-eabi/include/c++/10.3.1/bits/std_function.h **** // any later version.
  10:/Library/DaisyToolchain/0.2.0/arm/arm-none-eabi/include/c++/10.3.1/bits/std_function.h **** 
  11:/Library/DaisyToolchain/0.2.0/arm/arm-none-eabi/include/c++/10.3.1/bits/std_function.h **** // This library is distributed in the hope that it will be useful,
  12:/Library/DaisyToolchain/0.2.0/arm/arm-none-eabi/include/c++/10.3.1/bits/std_function.h **** // but WITHOUT ANY WARRANTY; without even the implied warranty of
  13:/Library/DaisyToolchain/0.2.0/arm/arm-none-eabi/include/c++/10.3.1/bits/std_function.h **** // MERCHANTABILITY or FITNESS FOR A PARTICULAR PURPOSE.  See the
  14:/Library/DaisyToolchain/0.2.0/arm/arm-none-eabi/include/c++/10.3.1/bits/std_function.h **** // GNU General Public License for more details.
  15:/Library/DaisyToolchain/0.2.0/arm/arm-none-eabi/include/c++/10.3.1/bits/std_function.h **** 
  16:/Library/DaisyToolchain/0.2.0/arm/arm-none-eabi/include/c++/10.3.1/bits/std_function.h **** // Under Section 7 of GPL version 3, you are granted additional
  17:/Library/DaisyToolchain/0.2.0/arm/arm-none-eabi/include/c++/10.3.1/bits/std_function.h **** // permissions described in the GCC Runtime Library Exception, version
  18:/Library/DaisyToolchain/0.2.0/arm/arm-none-eabi/include/c++/10.3.1/bits/std_function.h **** // 3.1, as published by the Free Software Foundation.
  19:/Library/DaisyToolchain/0.2.0/arm/arm-none-eabi/include/c++/10.3.1/bits/std_function.h **** 
  20:/Library/DaisyToolchain/0.2.0/arm/arm-none-eabi/include/c++/10.3.1/bits/std_function.h **** // You should have received a copy of the GNU General Public License and
  21:/Library/DaisyToolchain/0.2.0/arm/arm-none-eabi/include/c++/10.3.1/bits/std_function.h **** // a copy of the GCC Runtime Library Exception along with this program;
  22:/Library/DaisyToolchain/0.2.0/arm/arm-none-eabi/include/c++/10.3.1/bits/std_function.h **** // see the files COPYING3 and COPYING.RUNTIME respectively.  If not, see
  23:/Library/DaisyToolchain/0.2.0/arm/arm-none-eabi/include/c++/10.3.1/bits/std_function.h **** // <http://www.gnu.org/licenses/>.
  24:/Library/DaisyToolchain/0.2.0/arm/arm-none-eabi/include/c++/10.3.1/bits/std_function.h **** 
  25:/Library/DaisyToolchain/0.2.0/arm/arm-none-eabi/include/c++/10.3.1/bits/std_function.h **** /** @file include/bits/std_function.h
  26:/Library/DaisyToolchain/0.2.0/arm/arm-none-eabi/include/c++/10.3.1/bits/std_function.h ****  *  This is an internal header file, included by other library headers.
  27:/Library/DaisyToolchain/0.2.0/arm/arm-none-eabi/include/c++/10.3.1/bits/std_function.h ****  *  Do not attempt to use it directly. @headername{functional}
  28:/Library/DaisyToolchain/0.2.0/arm/arm-none-eabi/include/c++/10.3.1/bits/std_function.h ****  */
  29:/Library/DaisyToolchain/0.2.0/arm/arm-none-eabi/include/c++/10.3.1/bits/std_function.h **** 
  30:/Library/DaisyToolchain/0.2.0/arm/arm-none-eabi/include/c++/10.3.1/bits/std_function.h **** #ifndef _GLIBCXX_STD_FUNCTION_H
  31:/Library/DaisyToolchain/0.2.0/arm/arm-none-eabi/include/c++/10.3.1/bits/std_function.h **** #define _GLIBCXX_STD_FUNCTION_H 1
ARM GAS  /var/folders/wz/z09yph4n0qj4t7mjxhl6ttn80000gn/T//ccNJmc12.s 			page 2


  32:/Library/DaisyToolchain/0.2.0/arm/arm-none-eabi/include/c++/10.3.1/bits/std_function.h **** 
  33:/Library/DaisyToolchain/0.2.0/arm/arm-none-eabi/include/c++/10.3.1/bits/std_function.h **** #pragma GCC system_header
  34:/Library/DaisyToolchain/0.2.0/arm/arm-none-eabi/include/c++/10.3.1/bits/std_function.h **** 
  35:/Library/DaisyToolchain/0.2.0/arm/arm-none-eabi/include/c++/10.3.1/bits/std_function.h **** #if __cplusplus < 201103L
  36:/Library/DaisyToolchain/0.2.0/arm/arm-none-eabi/include/c++/10.3.1/bits/std_function.h **** # include <bits/c++0x_warning.h>
  37:/Library/DaisyToolchain/0.2.0/arm/arm-none-eabi/include/c++/10.3.1/bits/std_function.h **** #else
  38:/Library/DaisyToolchain/0.2.0/arm/arm-none-eabi/include/c++/10.3.1/bits/std_function.h **** 
  39:/Library/DaisyToolchain/0.2.0/arm/arm-none-eabi/include/c++/10.3.1/bits/std_function.h **** #if __cpp_rtti
  40:/Library/DaisyToolchain/0.2.0/arm/arm-none-eabi/include/c++/10.3.1/bits/std_function.h **** # include <typeinfo>
  41:/Library/DaisyToolchain/0.2.0/arm/arm-none-eabi/include/c++/10.3.1/bits/std_function.h **** #endif
  42:/Library/DaisyToolchain/0.2.0/arm/arm-none-eabi/include/c++/10.3.1/bits/std_function.h **** #include <bits/stl_function.h>
  43:/Library/DaisyToolchain/0.2.0/arm/arm-none-eabi/include/c++/10.3.1/bits/std_function.h **** #include <bits/invoke.h>
  44:/Library/DaisyToolchain/0.2.0/arm/arm-none-eabi/include/c++/10.3.1/bits/std_function.h **** #include <bits/refwrap.h>
  45:/Library/DaisyToolchain/0.2.0/arm/arm-none-eabi/include/c++/10.3.1/bits/std_function.h **** #include <bits/functexcept.h>
  46:/Library/DaisyToolchain/0.2.0/arm/arm-none-eabi/include/c++/10.3.1/bits/std_function.h **** 
  47:/Library/DaisyToolchain/0.2.0/arm/arm-none-eabi/include/c++/10.3.1/bits/std_function.h **** namespace std _GLIBCXX_VISIBILITY(default)
  48:/Library/DaisyToolchain/0.2.0/arm/arm-none-eabi/include/c++/10.3.1/bits/std_function.h **** {
  49:/Library/DaisyToolchain/0.2.0/arm/arm-none-eabi/include/c++/10.3.1/bits/std_function.h **** _GLIBCXX_BEGIN_NAMESPACE_VERSION
  50:/Library/DaisyToolchain/0.2.0/arm/arm-none-eabi/include/c++/10.3.1/bits/std_function.h **** 
  51:/Library/DaisyToolchain/0.2.0/arm/arm-none-eabi/include/c++/10.3.1/bits/std_function.h ****   /**
  52:/Library/DaisyToolchain/0.2.0/arm/arm-none-eabi/include/c++/10.3.1/bits/std_function.h ****    *  @brief Exception class thrown when class template function's
  53:/Library/DaisyToolchain/0.2.0/arm/arm-none-eabi/include/c++/10.3.1/bits/std_function.h ****    *  operator() is called with an empty target.
  54:/Library/DaisyToolchain/0.2.0/arm/arm-none-eabi/include/c++/10.3.1/bits/std_function.h ****    *  @ingroup exceptions
  55:/Library/DaisyToolchain/0.2.0/arm/arm-none-eabi/include/c++/10.3.1/bits/std_function.h ****    */
  56:/Library/DaisyToolchain/0.2.0/arm/arm-none-eabi/include/c++/10.3.1/bits/std_function.h ****   class bad_function_call : public std::exception
  57:/Library/DaisyToolchain/0.2.0/arm/arm-none-eabi/include/c++/10.3.1/bits/std_function.h ****   {
  58:/Library/DaisyToolchain/0.2.0/arm/arm-none-eabi/include/c++/10.3.1/bits/std_function.h ****   public:
  59:/Library/DaisyToolchain/0.2.0/arm/arm-none-eabi/include/c++/10.3.1/bits/std_function.h ****     virtual ~bad_function_call() noexcept;
  60:/Library/DaisyToolchain/0.2.0/arm/arm-none-eabi/include/c++/10.3.1/bits/std_function.h **** 
  61:/Library/DaisyToolchain/0.2.0/arm/arm-none-eabi/include/c++/10.3.1/bits/std_function.h ****     const char* what() const noexcept;
  62:/Library/DaisyToolchain/0.2.0/arm/arm-none-eabi/include/c++/10.3.1/bits/std_function.h ****   };
  63:/Library/DaisyToolchain/0.2.0/arm/arm-none-eabi/include/c++/10.3.1/bits/std_function.h **** 
  64:/Library/DaisyToolchain/0.2.0/arm/arm-none-eabi/include/c++/10.3.1/bits/std_function.h ****   /**
  65:/Library/DaisyToolchain/0.2.0/arm/arm-none-eabi/include/c++/10.3.1/bits/std_function.h ****    *  Trait identifying "location-invariant" types, meaning that the
  66:/Library/DaisyToolchain/0.2.0/arm/arm-none-eabi/include/c++/10.3.1/bits/std_function.h ****    *  address of the object (or any of its members) will not escape.
  67:/Library/DaisyToolchain/0.2.0/arm/arm-none-eabi/include/c++/10.3.1/bits/std_function.h ****    *  Trivially copyable types are location-invariant and users can
  68:/Library/DaisyToolchain/0.2.0/arm/arm-none-eabi/include/c++/10.3.1/bits/std_function.h ****    *  specialize this trait for other types.
  69:/Library/DaisyToolchain/0.2.0/arm/arm-none-eabi/include/c++/10.3.1/bits/std_function.h ****    */
  70:/Library/DaisyToolchain/0.2.0/arm/arm-none-eabi/include/c++/10.3.1/bits/std_function.h ****   template<typename _Tp>
  71:/Library/DaisyToolchain/0.2.0/arm/arm-none-eabi/include/c++/10.3.1/bits/std_function.h ****     struct __is_location_invariant
  72:/Library/DaisyToolchain/0.2.0/arm/arm-none-eabi/include/c++/10.3.1/bits/std_function.h ****     : is_trivially_copyable<_Tp>::type
  73:/Library/DaisyToolchain/0.2.0/arm/arm-none-eabi/include/c++/10.3.1/bits/std_function.h ****     { };
  74:/Library/DaisyToolchain/0.2.0/arm/arm-none-eabi/include/c++/10.3.1/bits/std_function.h **** 
  75:/Library/DaisyToolchain/0.2.0/arm/arm-none-eabi/include/c++/10.3.1/bits/std_function.h ****   class _Undefined_class;
  76:/Library/DaisyToolchain/0.2.0/arm/arm-none-eabi/include/c++/10.3.1/bits/std_function.h **** 
  77:/Library/DaisyToolchain/0.2.0/arm/arm-none-eabi/include/c++/10.3.1/bits/std_function.h ****   union _Nocopy_types
  78:/Library/DaisyToolchain/0.2.0/arm/arm-none-eabi/include/c++/10.3.1/bits/std_function.h ****   {
  79:/Library/DaisyToolchain/0.2.0/arm/arm-none-eabi/include/c++/10.3.1/bits/std_function.h ****     void*       _M_object;
  80:/Library/DaisyToolchain/0.2.0/arm/arm-none-eabi/include/c++/10.3.1/bits/std_function.h ****     const void* _M_const_object;
  81:/Library/DaisyToolchain/0.2.0/arm/arm-none-eabi/include/c++/10.3.1/bits/std_function.h ****     void (*_M_function_pointer)();
  82:/Library/DaisyToolchain/0.2.0/arm/arm-none-eabi/include/c++/10.3.1/bits/std_function.h ****     void (_Undefined_class::*_M_member_pointer)();
  83:/Library/DaisyToolchain/0.2.0/arm/arm-none-eabi/include/c++/10.3.1/bits/std_function.h ****   };
  84:/Library/DaisyToolchain/0.2.0/arm/arm-none-eabi/include/c++/10.3.1/bits/std_function.h **** 
  85:/Library/DaisyToolchain/0.2.0/arm/arm-none-eabi/include/c++/10.3.1/bits/std_function.h ****   union [[gnu::may_alias]] _Any_data
  86:/Library/DaisyToolchain/0.2.0/arm/arm-none-eabi/include/c++/10.3.1/bits/std_function.h ****   {
  87:/Library/DaisyToolchain/0.2.0/arm/arm-none-eabi/include/c++/10.3.1/bits/std_function.h ****     void*       _M_access()       { return &_M_pod_data[0]; }
  88:/Library/DaisyToolchain/0.2.0/arm/arm-none-eabi/include/c++/10.3.1/bits/std_function.h ****     const void* _M_access() const { return &_M_pod_data[0]; }
ARM GAS  /var/folders/wz/z09yph4n0qj4t7mjxhl6ttn80000gn/T//ccNJmc12.s 			page 3


  89:/Library/DaisyToolchain/0.2.0/arm/arm-none-eabi/include/c++/10.3.1/bits/std_function.h **** 
  90:/Library/DaisyToolchain/0.2.0/arm/arm-none-eabi/include/c++/10.3.1/bits/std_function.h ****     template<typename _Tp>
  91:/Library/DaisyToolchain/0.2.0/arm/arm-none-eabi/include/c++/10.3.1/bits/std_function.h ****       _Tp&
  92:/Library/DaisyToolchain/0.2.0/arm/arm-none-eabi/include/c++/10.3.1/bits/std_function.h ****       _M_access()
  93:/Library/DaisyToolchain/0.2.0/arm/arm-none-eabi/include/c++/10.3.1/bits/std_function.h ****       { return *static_cast<_Tp*>(_M_access()); }
  94:/Library/DaisyToolchain/0.2.0/arm/arm-none-eabi/include/c++/10.3.1/bits/std_function.h **** 
  95:/Library/DaisyToolchain/0.2.0/arm/arm-none-eabi/include/c++/10.3.1/bits/std_function.h ****     template<typename _Tp>
  96:/Library/DaisyToolchain/0.2.0/arm/arm-none-eabi/include/c++/10.3.1/bits/std_function.h ****       const _Tp&
  97:/Library/DaisyToolchain/0.2.0/arm/arm-none-eabi/include/c++/10.3.1/bits/std_function.h ****       _M_access() const
  98:/Library/DaisyToolchain/0.2.0/arm/arm-none-eabi/include/c++/10.3.1/bits/std_function.h ****       { return *static_cast<const _Tp*>(_M_access()); }
  99:/Library/DaisyToolchain/0.2.0/arm/arm-none-eabi/include/c++/10.3.1/bits/std_function.h **** 
 100:/Library/DaisyToolchain/0.2.0/arm/arm-none-eabi/include/c++/10.3.1/bits/std_function.h ****     _Nocopy_types _M_unused;
 101:/Library/DaisyToolchain/0.2.0/arm/arm-none-eabi/include/c++/10.3.1/bits/std_function.h ****     char _M_pod_data[sizeof(_Nocopy_types)];
 102:/Library/DaisyToolchain/0.2.0/arm/arm-none-eabi/include/c++/10.3.1/bits/std_function.h ****   };
 103:/Library/DaisyToolchain/0.2.0/arm/arm-none-eabi/include/c++/10.3.1/bits/std_function.h **** 
 104:/Library/DaisyToolchain/0.2.0/arm/arm-none-eabi/include/c++/10.3.1/bits/std_function.h ****   enum _Manager_operation
 105:/Library/DaisyToolchain/0.2.0/arm/arm-none-eabi/include/c++/10.3.1/bits/std_function.h ****   {
 106:/Library/DaisyToolchain/0.2.0/arm/arm-none-eabi/include/c++/10.3.1/bits/std_function.h ****     __get_type_info,
 107:/Library/DaisyToolchain/0.2.0/arm/arm-none-eabi/include/c++/10.3.1/bits/std_function.h ****     __get_functor_ptr,
 108:/Library/DaisyToolchain/0.2.0/arm/arm-none-eabi/include/c++/10.3.1/bits/std_function.h ****     __clone_functor,
 109:/Library/DaisyToolchain/0.2.0/arm/arm-none-eabi/include/c++/10.3.1/bits/std_function.h ****     __destroy_functor
 110:/Library/DaisyToolchain/0.2.0/arm/arm-none-eabi/include/c++/10.3.1/bits/std_function.h ****   };
 111:/Library/DaisyToolchain/0.2.0/arm/arm-none-eabi/include/c++/10.3.1/bits/std_function.h **** 
 112:/Library/DaisyToolchain/0.2.0/arm/arm-none-eabi/include/c++/10.3.1/bits/std_function.h ****   template<typename _Signature>
 113:/Library/DaisyToolchain/0.2.0/arm/arm-none-eabi/include/c++/10.3.1/bits/std_function.h ****     class function;
 114:/Library/DaisyToolchain/0.2.0/arm/arm-none-eabi/include/c++/10.3.1/bits/std_function.h **** 
 115:/Library/DaisyToolchain/0.2.0/arm/arm-none-eabi/include/c++/10.3.1/bits/std_function.h ****   /// Base class of all polymorphic function object wrappers.
 116:/Library/DaisyToolchain/0.2.0/arm/arm-none-eabi/include/c++/10.3.1/bits/std_function.h ****   class _Function_base
 117:/Library/DaisyToolchain/0.2.0/arm/arm-none-eabi/include/c++/10.3.1/bits/std_function.h ****   {
 118:/Library/DaisyToolchain/0.2.0/arm/arm-none-eabi/include/c++/10.3.1/bits/std_function.h ****   public:
 119:/Library/DaisyToolchain/0.2.0/arm/arm-none-eabi/include/c++/10.3.1/bits/std_function.h ****     static const size_t _M_max_size = sizeof(_Nocopy_types);
 120:/Library/DaisyToolchain/0.2.0/arm/arm-none-eabi/include/c++/10.3.1/bits/std_function.h ****     static const size_t _M_max_align = __alignof__(_Nocopy_types);
 121:/Library/DaisyToolchain/0.2.0/arm/arm-none-eabi/include/c++/10.3.1/bits/std_function.h **** 
 122:/Library/DaisyToolchain/0.2.0/arm/arm-none-eabi/include/c++/10.3.1/bits/std_function.h ****     template<typename _Functor>
 123:/Library/DaisyToolchain/0.2.0/arm/arm-none-eabi/include/c++/10.3.1/bits/std_function.h ****       class _Base_manager
 124:/Library/DaisyToolchain/0.2.0/arm/arm-none-eabi/include/c++/10.3.1/bits/std_function.h ****       {
 125:/Library/DaisyToolchain/0.2.0/arm/arm-none-eabi/include/c++/10.3.1/bits/std_function.h ****       protected:
 126:/Library/DaisyToolchain/0.2.0/arm/arm-none-eabi/include/c++/10.3.1/bits/std_function.h **** 	static const bool __stored_locally =
 127:/Library/DaisyToolchain/0.2.0/arm/arm-none-eabi/include/c++/10.3.1/bits/std_function.h **** 	(__is_location_invariant<_Functor>::value
 128:/Library/DaisyToolchain/0.2.0/arm/arm-none-eabi/include/c++/10.3.1/bits/std_function.h **** 	 && sizeof(_Functor) <= _M_max_size
 129:/Library/DaisyToolchain/0.2.0/arm/arm-none-eabi/include/c++/10.3.1/bits/std_function.h **** 	 && __alignof__(_Functor) <= _M_max_align
 130:/Library/DaisyToolchain/0.2.0/arm/arm-none-eabi/include/c++/10.3.1/bits/std_function.h **** 	 && (_M_max_align % __alignof__(_Functor) == 0));
 131:/Library/DaisyToolchain/0.2.0/arm/arm-none-eabi/include/c++/10.3.1/bits/std_function.h **** 
 132:/Library/DaisyToolchain/0.2.0/arm/arm-none-eabi/include/c++/10.3.1/bits/std_function.h **** 	typedef integral_constant<bool, __stored_locally> _Local_storage;
 133:/Library/DaisyToolchain/0.2.0/arm/arm-none-eabi/include/c++/10.3.1/bits/std_function.h **** 
 134:/Library/DaisyToolchain/0.2.0/arm/arm-none-eabi/include/c++/10.3.1/bits/std_function.h **** 	// Retrieve a pointer to the function object
 135:/Library/DaisyToolchain/0.2.0/arm/arm-none-eabi/include/c++/10.3.1/bits/std_function.h **** 	static _Functor*
 136:/Library/DaisyToolchain/0.2.0/arm/arm-none-eabi/include/c++/10.3.1/bits/std_function.h **** 	_M_get_pointer(const _Any_data& __source)
 137:/Library/DaisyToolchain/0.2.0/arm/arm-none-eabi/include/c++/10.3.1/bits/std_function.h **** 	{
 138:/Library/DaisyToolchain/0.2.0/arm/arm-none-eabi/include/c++/10.3.1/bits/std_function.h **** 	  if _GLIBCXX17_CONSTEXPR (__stored_locally)
 139:/Library/DaisyToolchain/0.2.0/arm/arm-none-eabi/include/c++/10.3.1/bits/std_function.h **** 	    {
 140:/Library/DaisyToolchain/0.2.0/arm/arm-none-eabi/include/c++/10.3.1/bits/std_function.h **** 	      const _Functor& __f = __source._M_access<_Functor>();
 141:/Library/DaisyToolchain/0.2.0/arm/arm-none-eabi/include/c++/10.3.1/bits/std_function.h **** 	      return const_cast<_Functor*>(std::__addressof(__f));
 142:/Library/DaisyToolchain/0.2.0/arm/arm-none-eabi/include/c++/10.3.1/bits/std_function.h **** 	    }
 143:/Library/DaisyToolchain/0.2.0/arm/arm-none-eabi/include/c++/10.3.1/bits/std_function.h **** 	  else // have stored a pointer
 144:/Library/DaisyToolchain/0.2.0/arm/arm-none-eabi/include/c++/10.3.1/bits/std_function.h **** 	    return __source._M_access<_Functor*>();
 145:/Library/DaisyToolchain/0.2.0/arm/arm-none-eabi/include/c++/10.3.1/bits/std_function.h **** 	}
ARM GAS  /var/folders/wz/z09yph4n0qj4t7mjxhl6ttn80000gn/T//ccNJmc12.s 			page 4


 146:/Library/DaisyToolchain/0.2.0/arm/arm-none-eabi/include/c++/10.3.1/bits/std_function.h **** 
 147:/Library/DaisyToolchain/0.2.0/arm/arm-none-eabi/include/c++/10.3.1/bits/std_function.h **** 	// Clone a location-invariant function object that fits within
 148:/Library/DaisyToolchain/0.2.0/arm/arm-none-eabi/include/c++/10.3.1/bits/std_function.h **** 	// an _Any_data structure.
 149:/Library/DaisyToolchain/0.2.0/arm/arm-none-eabi/include/c++/10.3.1/bits/std_function.h **** 	static void
 150:/Library/DaisyToolchain/0.2.0/arm/arm-none-eabi/include/c++/10.3.1/bits/std_function.h **** 	_M_clone(_Any_data& __dest, const _Any_data& __source, true_type)
 151:/Library/DaisyToolchain/0.2.0/arm/arm-none-eabi/include/c++/10.3.1/bits/std_function.h **** 	{
 152:/Library/DaisyToolchain/0.2.0/arm/arm-none-eabi/include/c++/10.3.1/bits/std_function.h **** 	  ::new (__dest._M_access()) _Functor(__source._M_access<_Functor>());
 153:/Library/DaisyToolchain/0.2.0/arm/arm-none-eabi/include/c++/10.3.1/bits/std_function.h **** 	}
 154:/Library/DaisyToolchain/0.2.0/arm/arm-none-eabi/include/c++/10.3.1/bits/std_function.h **** 
 155:/Library/DaisyToolchain/0.2.0/arm/arm-none-eabi/include/c++/10.3.1/bits/std_function.h **** 	// Clone a function object that is not location-invariant or
 156:/Library/DaisyToolchain/0.2.0/arm/arm-none-eabi/include/c++/10.3.1/bits/std_function.h **** 	// that cannot fit into an _Any_data structure.
 157:/Library/DaisyToolchain/0.2.0/arm/arm-none-eabi/include/c++/10.3.1/bits/std_function.h **** 	static void
 158:/Library/DaisyToolchain/0.2.0/arm/arm-none-eabi/include/c++/10.3.1/bits/std_function.h **** 	_M_clone(_Any_data& __dest, const _Any_data& __source, false_type)
 159:/Library/DaisyToolchain/0.2.0/arm/arm-none-eabi/include/c++/10.3.1/bits/std_function.h **** 	{
 160:/Library/DaisyToolchain/0.2.0/arm/arm-none-eabi/include/c++/10.3.1/bits/std_function.h **** 	  __dest._M_access<_Functor*>() =
 161:/Library/DaisyToolchain/0.2.0/arm/arm-none-eabi/include/c++/10.3.1/bits/std_function.h **** 	    new _Functor(*__source._M_access<const _Functor*>());
 162:/Library/DaisyToolchain/0.2.0/arm/arm-none-eabi/include/c++/10.3.1/bits/std_function.h **** 	}
 163:/Library/DaisyToolchain/0.2.0/arm/arm-none-eabi/include/c++/10.3.1/bits/std_function.h **** 
 164:/Library/DaisyToolchain/0.2.0/arm/arm-none-eabi/include/c++/10.3.1/bits/std_function.h **** 	// Destroying a location-invariant object may still require
 165:/Library/DaisyToolchain/0.2.0/arm/arm-none-eabi/include/c++/10.3.1/bits/std_function.h **** 	// destruction.
 166:/Library/DaisyToolchain/0.2.0/arm/arm-none-eabi/include/c++/10.3.1/bits/std_function.h **** 	static void
 167:/Library/DaisyToolchain/0.2.0/arm/arm-none-eabi/include/c++/10.3.1/bits/std_function.h **** 	_M_destroy(_Any_data& __victim, true_type)
 168:/Library/DaisyToolchain/0.2.0/arm/arm-none-eabi/include/c++/10.3.1/bits/std_function.h **** 	{
 169:/Library/DaisyToolchain/0.2.0/arm/arm-none-eabi/include/c++/10.3.1/bits/std_function.h **** 	  __victim._M_access<_Functor>().~_Functor();
 170:/Library/DaisyToolchain/0.2.0/arm/arm-none-eabi/include/c++/10.3.1/bits/std_function.h **** 	}
 171:/Library/DaisyToolchain/0.2.0/arm/arm-none-eabi/include/c++/10.3.1/bits/std_function.h **** 
 172:/Library/DaisyToolchain/0.2.0/arm/arm-none-eabi/include/c++/10.3.1/bits/std_function.h **** 	// Destroying an object located on the heap.
 173:/Library/DaisyToolchain/0.2.0/arm/arm-none-eabi/include/c++/10.3.1/bits/std_function.h **** 	static void
 174:/Library/DaisyToolchain/0.2.0/arm/arm-none-eabi/include/c++/10.3.1/bits/std_function.h **** 	_M_destroy(_Any_data& __victim, false_type)
 175:/Library/DaisyToolchain/0.2.0/arm/arm-none-eabi/include/c++/10.3.1/bits/std_function.h **** 	{
 176:/Library/DaisyToolchain/0.2.0/arm/arm-none-eabi/include/c++/10.3.1/bits/std_function.h **** 	  delete __victim._M_access<_Functor*>();
 177:/Library/DaisyToolchain/0.2.0/arm/arm-none-eabi/include/c++/10.3.1/bits/std_function.h **** 	}
 178:/Library/DaisyToolchain/0.2.0/arm/arm-none-eabi/include/c++/10.3.1/bits/std_function.h **** 
 179:/Library/DaisyToolchain/0.2.0/arm/arm-none-eabi/include/c++/10.3.1/bits/std_function.h ****       public:
 180:/Library/DaisyToolchain/0.2.0/arm/arm-none-eabi/include/c++/10.3.1/bits/std_function.h **** 	static bool
 181:/Library/DaisyToolchain/0.2.0/arm/arm-none-eabi/include/c++/10.3.1/bits/std_function.h **** 	_M_manager(_Any_data& __dest, const _Any_data& __source,
 182:/Library/DaisyToolchain/0.2.0/arm/arm-none-eabi/include/c++/10.3.1/bits/std_function.h **** 		   _Manager_operation __op)
 183:/Library/DaisyToolchain/0.2.0/arm/arm-none-eabi/include/c++/10.3.1/bits/std_function.h **** 	{
 184:/Library/DaisyToolchain/0.2.0/arm/arm-none-eabi/include/c++/10.3.1/bits/std_function.h **** 	  switch (__op)
 185:/Library/DaisyToolchain/0.2.0/arm/arm-none-eabi/include/c++/10.3.1/bits/std_function.h **** 	    {
 186:/Library/DaisyToolchain/0.2.0/arm/arm-none-eabi/include/c++/10.3.1/bits/std_function.h **** #if __cpp_rtti
 187:/Library/DaisyToolchain/0.2.0/arm/arm-none-eabi/include/c++/10.3.1/bits/std_function.h **** 	    case __get_type_info:
 188:/Library/DaisyToolchain/0.2.0/arm/arm-none-eabi/include/c++/10.3.1/bits/std_function.h **** 	      __dest._M_access<const type_info*>() = &typeid(_Functor);
 189:/Library/DaisyToolchain/0.2.0/arm/arm-none-eabi/include/c++/10.3.1/bits/std_function.h **** 	      break;
 190:/Library/DaisyToolchain/0.2.0/arm/arm-none-eabi/include/c++/10.3.1/bits/std_function.h **** #endif
 191:/Library/DaisyToolchain/0.2.0/arm/arm-none-eabi/include/c++/10.3.1/bits/std_function.h **** 	    case __get_functor_ptr:
 192:/Library/DaisyToolchain/0.2.0/arm/arm-none-eabi/include/c++/10.3.1/bits/std_function.h **** 	      __dest._M_access<_Functor*>() = _M_get_pointer(__source);
 193:/Library/DaisyToolchain/0.2.0/arm/arm-none-eabi/include/c++/10.3.1/bits/std_function.h **** 	      break;
 194:/Library/DaisyToolchain/0.2.0/arm/arm-none-eabi/include/c++/10.3.1/bits/std_function.h **** 
 195:/Library/DaisyToolchain/0.2.0/arm/arm-none-eabi/include/c++/10.3.1/bits/std_function.h **** 	    case __clone_functor:
 196:/Library/DaisyToolchain/0.2.0/arm/arm-none-eabi/include/c++/10.3.1/bits/std_function.h **** 	      _M_clone(__dest, __source, _Local_storage());
 197:/Library/DaisyToolchain/0.2.0/arm/arm-none-eabi/include/c++/10.3.1/bits/std_function.h **** 	      break;
 198:/Library/DaisyToolchain/0.2.0/arm/arm-none-eabi/include/c++/10.3.1/bits/std_function.h **** 
 199:/Library/DaisyToolchain/0.2.0/arm/arm-none-eabi/include/c++/10.3.1/bits/std_function.h **** 	    case __destroy_functor:
 200:/Library/DaisyToolchain/0.2.0/arm/arm-none-eabi/include/c++/10.3.1/bits/std_function.h **** 	      _M_destroy(__dest, _Local_storage());
 201:/Library/DaisyToolchain/0.2.0/arm/arm-none-eabi/include/c++/10.3.1/bits/std_function.h **** 	      break;
 202:/Library/DaisyToolchain/0.2.0/arm/arm-none-eabi/include/c++/10.3.1/bits/std_function.h **** 	    }
ARM GAS  /var/folders/wz/z09yph4n0qj4t7mjxhl6ttn80000gn/T//ccNJmc12.s 			page 5


 203:/Library/DaisyToolchain/0.2.0/arm/arm-none-eabi/include/c++/10.3.1/bits/std_function.h **** 	  return false;
 204:/Library/DaisyToolchain/0.2.0/arm/arm-none-eabi/include/c++/10.3.1/bits/std_function.h **** 	}
 205:/Library/DaisyToolchain/0.2.0/arm/arm-none-eabi/include/c++/10.3.1/bits/std_function.h **** 
 206:/Library/DaisyToolchain/0.2.0/arm/arm-none-eabi/include/c++/10.3.1/bits/std_function.h **** 	static void
 207:/Library/DaisyToolchain/0.2.0/arm/arm-none-eabi/include/c++/10.3.1/bits/std_function.h **** 	_M_init_functor(_Any_data& __functor, _Functor&& __f)
 208:/Library/DaisyToolchain/0.2.0/arm/arm-none-eabi/include/c++/10.3.1/bits/std_function.h **** 	{ _M_init_functor(__functor, std::move(__f), _Local_storage()); }
 209:/Library/DaisyToolchain/0.2.0/arm/arm-none-eabi/include/c++/10.3.1/bits/std_function.h **** 
 210:/Library/DaisyToolchain/0.2.0/arm/arm-none-eabi/include/c++/10.3.1/bits/std_function.h **** 	template<typename _Signature>
 211:/Library/DaisyToolchain/0.2.0/arm/arm-none-eabi/include/c++/10.3.1/bits/std_function.h **** 	  static bool
 212:/Library/DaisyToolchain/0.2.0/arm/arm-none-eabi/include/c++/10.3.1/bits/std_function.h **** 	  _M_not_empty_function(const function<_Signature>& __f)
 213:/Library/DaisyToolchain/0.2.0/arm/arm-none-eabi/include/c++/10.3.1/bits/std_function.h **** 	  { return static_cast<bool>(__f); }
 214:/Library/DaisyToolchain/0.2.0/arm/arm-none-eabi/include/c++/10.3.1/bits/std_function.h **** 
 215:/Library/DaisyToolchain/0.2.0/arm/arm-none-eabi/include/c++/10.3.1/bits/std_function.h **** 	template<typename _Tp>
 216:/Library/DaisyToolchain/0.2.0/arm/arm-none-eabi/include/c++/10.3.1/bits/std_function.h **** 	  static bool
 217:/Library/DaisyToolchain/0.2.0/arm/arm-none-eabi/include/c++/10.3.1/bits/std_function.h **** 	  _M_not_empty_function(_Tp* __fp)
 218:/Library/DaisyToolchain/0.2.0/arm/arm-none-eabi/include/c++/10.3.1/bits/std_function.h **** 	  { return __fp != nullptr; }
 219:/Library/DaisyToolchain/0.2.0/arm/arm-none-eabi/include/c++/10.3.1/bits/std_function.h **** 
 220:/Library/DaisyToolchain/0.2.0/arm/arm-none-eabi/include/c++/10.3.1/bits/std_function.h **** 	template<typename _Class, typename _Tp>
 221:/Library/DaisyToolchain/0.2.0/arm/arm-none-eabi/include/c++/10.3.1/bits/std_function.h **** 	  static bool
 222:/Library/DaisyToolchain/0.2.0/arm/arm-none-eabi/include/c++/10.3.1/bits/std_function.h **** 	  _M_not_empty_function(_Tp _Class::* __mp)
 223:/Library/DaisyToolchain/0.2.0/arm/arm-none-eabi/include/c++/10.3.1/bits/std_function.h **** 	  { return __mp != nullptr; }
 224:/Library/DaisyToolchain/0.2.0/arm/arm-none-eabi/include/c++/10.3.1/bits/std_function.h **** 
 225:/Library/DaisyToolchain/0.2.0/arm/arm-none-eabi/include/c++/10.3.1/bits/std_function.h **** 	template<typename _Tp>
 226:/Library/DaisyToolchain/0.2.0/arm/arm-none-eabi/include/c++/10.3.1/bits/std_function.h **** 	  static bool
 227:/Library/DaisyToolchain/0.2.0/arm/arm-none-eabi/include/c++/10.3.1/bits/std_function.h **** 	  _M_not_empty_function(const _Tp&)
 228:/Library/DaisyToolchain/0.2.0/arm/arm-none-eabi/include/c++/10.3.1/bits/std_function.h **** 	  { return true; }
 229:/Library/DaisyToolchain/0.2.0/arm/arm-none-eabi/include/c++/10.3.1/bits/std_function.h **** 
 230:/Library/DaisyToolchain/0.2.0/arm/arm-none-eabi/include/c++/10.3.1/bits/std_function.h ****       private:
 231:/Library/DaisyToolchain/0.2.0/arm/arm-none-eabi/include/c++/10.3.1/bits/std_function.h **** 	static void
 232:/Library/DaisyToolchain/0.2.0/arm/arm-none-eabi/include/c++/10.3.1/bits/std_function.h **** 	_M_init_functor(_Any_data& __functor, _Functor&& __f, true_type)
 233:/Library/DaisyToolchain/0.2.0/arm/arm-none-eabi/include/c++/10.3.1/bits/std_function.h **** 	{ ::new (__functor._M_access()) _Functor(std::move(__f)); }
 234:/Library/DaisyToolchain/0.2.0/arm/arm-none-eabi/include/c++/10.3.1/bits/std_function.h **** 
 235:/Library/DaisyToolchain/0.2.0/arm/arm-none-eabi/include/c++/10.3.1/bits/std_function.h **** 	static void
 236:/Library/DaisyToolchain/0.2.0/arm/arm-none-eabi/include/c++/10.3.1/bits/std_function.h **** 	_M_init_functor(_Any_data& __functor, _Functor&& __f, false_type)
 237:/Library/DaisyToolchain/0.2.0/arm/arm-none-eabi/include/c++/10.3.1/bits/std_function.h **** 	{ __functor._M_access<_Functor*>() = new _Functor(std::move(__f)); }
 238:/Library/DaisyToolchain/0.2.0/arm/arm-none-eabi/include/c++/10.3.1/bits/std_function.h ****       };
 239:/Library/DaisyToolchain/0.2.0/arm/arm-none-eabi/include/c++/10.3.1/bits/std_function.h **** 
 240:/Library/DaisyToolchain/0.2.0/arm/arm-none-eabi/include/c++/10.3.1/bits/std_function.h ****     _Function_base() : _M_manager(nullptr) { }
 241:/Library/DaisyToolchain/0.2.0/arm/arm-none-eabi/include/c++/10.3.1/bits/std_function.h **** 
 242:/Library/DaisyToolchain/0.2.0/arm/arm-none-eabi/include/c++/10.3.1/bits/std_function.h ****     ~_Function_base()
 243:/Library/DaisyToolchain/0.2.0/arm/arm-none-eabi/include/c++/10.3.1/bits/std_function.h ****     {
 244:/Library/DaisyToolchain/0.2.0/arm/arm-none-eabi/include/c++/10.3.1/bits/std_function.h ****       if (_M_manager)
 245:/Library/DaisyToolchain/0.2.0/arm/arm-none-eabi/include/c++/10.3.1/bits/std_function.h **** 	_M_manager(_M_functor, _M_functor, __destroy_functor);
 246:/Library/DaisyToolchain/0.2.0/arm/arm-none-eabi/include/c++/10.3.1/bits/std_function.h ****     }
 247:/Library/DaisyToolchain/0.2.0/arm/arm-none-eabi/include/c++/10.3.1/bits/std_function.h **** 
 248:/Library/DaisyToolchain/0.2.0/arm/arm-none-eabi/include/c++/10.3.1/bits/std_function.h ****     bool _M_empty() const { return !_M_manager; }
 249:/Library/DaisyToolchain/0.2.0/arm/arm-none-eabi/include/c++/10.3.1/bits/std_function.h **** 
 250:/Library/DaisyToolchain/0.2.0/arm/arm-none-eabi/include/c++/10.3.1/bits/std_function.h ****     typedef bool (*_Manager_type)(_Any_data&, const _Any_data&,
 251:/Library/DaisyToolchain/0.2.0/arm/arm-none-eabi/include/c++/10.3.1/bits/std_function.h **** 				  _Manager_operation);
 252:/Library/DaisyToolchain/0.2.0/arm/arm-none-eabi/include/c++/10.3.1/bits/std_function.h **** 
 253:/Library/DaisyToolchain/0.2.0/arm/arm-none-eabi/include/c++/10.3.1/bits/std_function.h ****     _Any_data     _M_functor;
 254:/Library/DaisyToolchain/0.2.0/arm/arm-none-eabi/include/c++/10.3.1/bits/std_function.h ****     _Manager_type _M_manager;
 255:/Library/DaisyToolchain/0.2.0/arm/arm-none-eabi/include/c++/10.3.1/bits/std_function.h ****   };
 256:/Library/DaisyToolchain/0.2.0/arm/arm-none-eabi/include/c++/10.3.1/bits/std_function.h **** 
 257:/Library/DaisyToolchain/0.2.0/arm/arm-none-eabi/include/c++/10.3.1/bits/std_function.h ****   template<typename _Signature, typename _Functor>
 258:/Library/DaisyToolchain/0.2.0/arm/arm-none-eabi/include/c++/10.3.1/bits/std_function.h ****     class _Function_handler;
 259:/Library/DaisyToolchain/0.2.0/arm/arm-none-eabi/include/c++/10.3.1/bits/std_function.h **** 
ARM GAS  /var/folders/wz/z09yph4n0qj4t7mjxhl6ttn80000gn/T//ccNJmc12.s 			page 6


 260:/Library/DaisyToolchain/0.2.0/arm/arm-none-eabi/include/c++/10.3.1/bits/std_function.h ****   template<typename _Res, typename _Functor, typename... _ArgTypes>
 261:/Library/DaisyToolchain/0.2.0/arm/arm-none-eabi/include/c++/10.3.1/bits/std_function.h ****     class _Function_handler<_Res(_ArgTypes...), _Functor>
 262:/Library/DaisyToolchain/0.2.0/arm/arm-none-eabi/include/c++/10.3.1/bits/std_function.h ****     : public _Function_base::_Base_manager<_Functor>
 263:/Library/DaisyToolchain/0.2.0/arm/arm-none-eabi/include/c++/10.3.1/bits/std_function.h ****     {
 264:/Library/DaisyToolchain/0.2.0/arm/arm-none-eabi/include/c++/10.3.1/bits/std_function.h ****       typedef _Function_base::_Base_manager<_Functor> _Base;
 265:/Library/DaisyToolchain/0.2.0/arm/arm-none-eabi/include/c++/10.3.1/bits/std_function.h **** 
 266:/Library/DaisyToolchain/0.2.0/arm/arm-none-eabi/include/c++/10.3.1/bits/std_function.h ****     public:
 267:/Library/DaisyToolchain/0.2.0/arm/arm-none-eabi/include/c++/10.3.1/bits/std_function.h ****       static bool
 268:/Library/DaisyToolchain/0.2.0/arm/arm-none-eabi/include/c++/10.3.1/bits/std_function.h ****       _M_manager(_Any_data& __dest, const _Any_data& __source,
 269:/Library/DaisyToolchain/0.2.0/arm/arm-none-eabi/include/c++/10.3.1/bits/std_function.h **** 		 _Manager_operation __op)
 270:/Library/DaisyToolchain/0.2.0/arm/arm-none-eabi/include/c++/10.3.1/bits/std_function.h ****       {
 271:/Library/DaisyToolchain/0.2.0/arm/arm-none-eabi/include/c++/10.3.1/bits/std_function.h **** 	switch (__op)
 272:/Library/DaisyToolchain/0.2.0/arm/arm-none-eabi/include/c++/10.3.1/bits/std_function.h **** 	  {
 273:/Library/DaisyToolchain/0.2.0/arm/arm-none-eabi/include/c++/10.3.1/bits/std_function.h **** #if __cpp_rtti
 274:/Library/DaisyToolchain/0.2.0/arm/arm-none-eabi/include/c++/10.3.1/bits/std_function.h **** 	  case __get_type_info:
 275:/Library/DaisyToolchain/0.2.0/arm/arm-none-eabi/include/c++/10.3.1/bits/std_function.h **** 	    __dest._M_access<const type_info*>() = &typeid(_Functor);
 276:/Library/DaisyToolchain/0.2.0/arm/arm-none-eabi/include/c++/10.3.1/bits/std_function.h **** 	    break;
 277:/Library/DaisyToolchain/0.2.0/arm/arm-none-eabi/include/c++/10.3.1/bits/std_function.h **** #endif
 278:/Library/DaisyToolchain/0.2.0/arm/arm-none-eabi/include/c++/10.3.1/bits/std_function.h **** 	  case __get_functor_ptr:
 279:/Library/DaisyToolchain/0.2.0/arm/arm-none-eabi/include/c++/10.3.1/bits/std_function.h **** 	    __dest._M_access<_Functor*>() = _Base::_M_get_pointer(__source);
 280:/Library/DaisyToolchain/0.2.0/arm/arm-none-eabi/include/c++/10.3.1/bits/std_function.h **** 	    break;
 281:/Library/DaisyToolchain/0.2.0/arm/arm-none-eabi/include/c++/10.3.1/bits/std_function.h **** 
 282:/Library/DaisyToolchain/0.2.0/arm/arm-none-eabi/include/c++/10.3.1/bits/std_function.h **** 	  default:
 283:/Library/DaisyToolchain/0.2.0/arm/arm-none-eabi/include/c++/10.3.1/bits/std_function.h **** 	    _Base::_M_manager(__dest, __source, __op);
 284:/Library/DaisyToolchain/0.2.0/arm/arm-none-eabi/include/c++/10.3.1/bits/std_function.h **** 	  }
 285:/Library/DaisyToolchain/0.2.0/arm/arm-none-eabi/include/c++/10.3.1/bits/std_function.h **** 	return false;
 286:/Library/DaisyToolchain/0.2.0/arm/arm-none-eabi/include/c++/10.3.1/bits/std_function.h ****       }
 287:/Library/DaisyToolchain/0.2.0/arm/arm-none-eabi/include/c++/10.3.1/bits/std_function.h **** 
 288:/Library/DaisyToolchain/0.2.0/arm/arm-none-eabi/include/c++/10.3.1/bits/std_function.h ****       static _Res
 289:/Library/DaisyToolchain/0.2.0/arm/arm-none-eabi/include/c++/10.3.1/bits/std_function.h ****       _M_invoke(const _Any_data& __functor, _ArgTypes&&... __args)
  28              		.loc 1 289 7 view -0
  29              		.cfi_startproc
  30              		@ args = 0, pretend = 0, frame = 0
  31              		@ frame_needed = 0, uses_anonymous_args = 0
  32              		@ link register save eliminated.
  88:/Library/DaisyToolchain/0.2.0/arm/arm-none-eabi/include/c++/10.3.1/bits/std_function.h **** 
  33              		.loc 1 88 37 view .LVU1
  34              	.LBB452:
  35              	.LBI452:
  36              		.file 2 "/Library/DaisyToolchain/0.2.0/arm/arm-none-eabi/include/c++/10.3.1/bits/invoke.h"
   1:/Library/DaisyToolchain/0.2.0/arm/arm-none-eabi/include/c++/10.3.1/bits/invoke.h **** // Implementation of INVOKE -*- C++ -*-
   2:/Library/DaisyToolchain/0.2.0/arm/arm-none-eabi/include/c++/10.3.1/bits/invoke.h **** 
   3:/Library/DaisyToolchain/0.2.0/arm/arm-none-eabi/include/c++/10.3.1/bits/invoke.h **** // Copyright (C) 2016-2020 Free Software Foundation, Inc.
   4:/Library/DaisyToolchain/0.2.0/arm/arm-none-eabi/include/c++/10.3.1/bits/invoke.h **** //
   5:/Library/DaisyToolchain/0.2.0/arm/arm-none-eabi/include/c++/10.3.1/bits/invoke.h **** // This file is part of the GNU ISO C++ Library.  This library is free
   6:/Library/DaisyToolchain/0.2.0/arm/arm-none-eabi/include/c++/10.3.1/bits/invoke.h **** // software; you can redistribute it and/or modify it under the
   7:/Library/DaisyToolchain/0.2.0/arm/arm-none-eabi/include/c++/10.3.1/bits/invoke.h **** // terms of the GNU General Public License as published by the
   8:/Library/DaisyToolchain/0.2.0/arm/arm-none-eabi/include/c++/10.3.1/bits/invoke.h **** // Free Software Foundation; either version 3, or (at your option)
   9:/Library/DaisyToolchain/0.2.0/arm/arm-none-eabi/include/c++/10.3.1/bits/invoke.h **** // any later version.
  10:/Library/DaisyToolchain/0.2.0/arm/arm-none-eabi/include/c++/10.3.1/bits/invoke.h **** 
  11:/Library/DaisyToolchain/0.2.0/arm/arm-none-eabi/include/c++/10.3.1/bits/invoke.h **** // This library is distributed in the hope that it will be useful,
  12:/Library/DaisyToolchain/0.2.0/arm/arm-none-eabi/include/c++/10.3.1/bits/invoke.h **** // but WITHOUT ANY WARRANTY; without even the implied warranty of
  13:/Library/DaisyToolchain/0.2.0/arm/arm-none-eabi/include/c++/10.3.1/bits/invoke.h **** // MERCHANTABILITY or FITNESS FOR A PARTICULAR PURPOSE.  See the
  14:/Library/DaisyToolchain/0.2.0/arm/arm-none-eabi/include/c++/10.3.1/bits/invoke.h **** // GNU General Public License for more details.
  15:/Library/DaisyToolchain/0.2.0/arm/arm-none-eabi/include/c++/10.3.1/bits/invoke.h **** 
  16:/Library/DaisyToolchain/0.2.0/arm/arm-none-eabi/include/c++/10.3.1/bits/invoke.h **** // Under Section 7 of GPL version 3, you are granted additional
  17:/Library/DaisyToolchain/0.2.0/arm/arm-none-eabi/include/c++/10.3.1/bits/invoke.h **** // permissions described in the GCC Runtime Library Exception, version
ARM GAS  /var/folders/wz/z09yph4n0qj4t7mjxhl6ttn80000gn/T//ccNJmc12.s 			page 7


  18:/Library/DaisyToolchain/0.2.0/arm/arm-none-eabi/include/c++/10.3.1/bits/invoke.h **** // 3.1, as published by the Free Software Foundation.
  19:/Library/DaisyToolchain/0.2.0/arm/arm-none-eabi/include/c++/10.3.1/bits/invoke.h **** 
  20:/Library/DaisyToolchain/0.2.0/arm/arm-none-eabi/include/c++/10.3.1/bits/invoke.h **** // You should have received a copy of the GNU General Public License and
  21:/Library/DaisyToolchain/0.2.0/arm/arm-none-eabi/include/c++/10.3.1/bits/invoke.h **** // a copy of the GCC Runtime Library Exception along with this program;
  22:/Library/DaisyToolchain/0.2.0/arm/arm-none-eabi/include/c++/10.3.1/bits/invoke.h **** // see the files COPYING3 and COPYING.RUNTIME respectively.  If not, see
  23:/Library/DaisyToolchain/0.2.0/arm/arm-none-eabi/include/c++/10.3.1/bits/invoke.h **** // <http://www.gnu.org/licenses/>.
  24:/Library/DaisyToolchain/0.2.0/arm/arm-none-eabi/include/c++/10.3.1/bits/invoke.h **** 
  25:/Library/DaisyToolchain/0.2.0/arm/arm-none-eabi/include/c++/10.3.1/bits/invoke.h **** /** @file include/bits/invoke.h
  26:/Library/DaisyToolchain/0.2.0/arm/arm-none-eabi/include/c++/10.3.1/bits/invoke.h ****  *  This is an internal header file, included by other library headers.
  27:/Library/DaisyToolchain/0.2.0/arm/arm-none-eabi/include/c++/10.3.1/bits/invoke.h ****  *  Do not attempt to use it directly. @headername{functional}
  28:/Library/DaisyToolchain/0.2.0/arm/arm-none-eabi/include/c++/10.3.1/bits/invoke.h ****  */
  29:/Library/DaisyToolchain/0.2.0/arm/arm-none-eabi/include/c++/10.3.1/bits/invoke.h **** 
  30:/Library/DaisyToolchain/0.2.0/arm/arm-none-eabi/include/c++/10.3.1/bits/invoke.h **** #ifndef _GLIBCXX_INVOKE_H
  31:/Library/DaisyToolchain/0.2.0/arm/arm-none-eabi/include/c++/10.3.1/bits/invoke.h **** #define _GLIBCXX_INVOKE_H 1
  32:/Library/DaisyToolchain/0.2.0/arm/arm-none-eabi/include/c++/10.3.1/bits/invoke.h **** 
  33:/Library/DaisyToolchain/0.2.0/arm/arm-none-eabi/include/c++/10.3.1/bits/invoke.h **** #pragma GCC system_header
  34:/Library/DaisyToolchain/0.2.0/arm/arm-none-eabi/include/c++/10.3.1/bits/invoke.h **** 
  35:/Library/DaisyToolchain/0.2.0/arm/arm-none-eabi/include/c++/10.3.1/bits/invoke.h **** #if __cplusplus < 201103L
  36:/Library/DaisyToolchain/0.2.0/arm/arm-none-eabi/include/c++/10.3.1/bits/invoke.h **** # include <bits/c++0x_warning.h>
  37:/Library/DaisyToolchain/0.2.0/arm/arm-none-eabi/include/c++/10.3.1/bits/invoke.h **** #else
  38:/Library/DaisyToolchain/0.2.0/arm/arm-none-eabi/include/c++/10.3.1/bits/invoke.h **** 
  39:/Library/DaisyToolchain/0.2.0/arm/arm-none-eabi/include/c++/10.3.1/bits/invoke.h **** #include <type_traits>
  40:/Library/DaisyToolchain/0.2.0/arm/arm-none-eabi/include/c++/10.3.1/bits/invoke.h **** 
  41:/Library/DaisyToolchain/0.2.0/arm/arm-none-eabi/include/c++/10.3.1/bits/invoke.h **** namespace std _GLIBCXX_VISIBILITY(default)
  42:/Library/DaisyToolchain/0.2.0/arm/arm-none-eabi/include/c++/10.3.1/bits/invoke.h **** {
  43:/Library/DaisyToolchain/0.2.0/arm/arm-none-eabi/include/c++/10.3.1/bits/invoke.h **** _GLIBCXX_BEGIN_NAMESPACE_VERSION
  44:/Library/DaisyToolchain/0.2.0/arm/arm-none-eabi/include/c++/10.3.1/bits/invoke.h **** 
  45:/Library/DaisyToolchain/0.2.0/arm/arm-none-eabi/include/c++/10.3.1/bits/invoke.h ****   /**
  46:/Library/DaisyToolchain/0.2.0/arm/arm-none-eabi/include/c++/10.3.1/bits/invoke.h ****    *  @addtogroup utilities
  47:/Library/DaisyToolchain/0.2.0/arm/arm-none-eabi/include/c++/10.3.1/bits/invoke.h ****    *  @{
  48:/Library/DaisyToolchain/0.2.0/arm/arm-none-eabi/include/c++/10.3.1/bits/invoke.h ****    */
  49:/Library/DaisyToolchain/0.2.0/arm/arm-none-eabi/include/c++/10.3.1/bits/invoke.h **** 
  50:/Library/DaisyToolchain/0.2.0/arm/arm-none-eabi/include/c++/10.3.1/bits/invoke.h ****   // Used by __invoke_impl instead of std::forward<_Tp> so that a
  51:/Library/DaisyToolchain/0.2.0/arm/arm-none-eabi/include/c++/10.3.1/bits/invoke.h ****   // reference_wrapper is converted to an lvalue-reference.
  52:/Library/DaisyToolchain/0.2.0/arm/arm-none-eabi/include/c++/10.3.1/bits/invoke.h ****   template<typename _Tp, typename _Up = typename __inv_unwrap<_Tp>::type>
  53:/Library/DaisyToolchain/0.2.0/arm/arm-none-eabi/include/c++/10.3.1/bits/invoke.h ****     constexpr _Up&&
  54:/Library/DaisyToolchain/0.2.0/arm/arm-none-eabi/include/c++/10.3.1/bits/invoke.h ****     __invfwd(typename remove_reference<_Tp>::type& __t) noexcept
  55:/Library/DaisyToolchain/0.2.0/arm/arm-none-eabi/include/c++/10.3.1/bits/invoke.h ****     { return static_cast<_Up&&>(__t); }
  56:/Library/DaisyToolchain/0.2.0/arm/arm-none-eabi/include/c++/10.3.1/bits/invoke.h **** 
  57:/Library/DaisyToolchain/0.2.0/arm/arm-none-eabi/include/c++/10.3.1/bits/invoke.h ****   template<typename _Res, typename _Fn, typename... _Args>
  58:/Library/DaisyToolchain/0.2.0/arm/arm-none-eabi/include/c++/10.3.1/bits/invoke.h ****     constexpr _Res
  59:/Library/DaisyToolchain/0.2.0/arm/arm-none-eabi/include/c++/10.3.1/bits/invoke.h ****     __invoke_impl(__invoke_other, _Fn&& __f, _Args&&... __args)
  60:/Library/DaisyToolchain/0.2.0/arm/arm-none-eabi/include/c++/10.3.1/bits/invoke.h ****     { return std::forward<_Fn>(__f)(std::forward<_Args>(__args)...); }
  61:/Library/DaisyToolchain/0.2.0/arm/arm-none-eabi/include/c++/10.3.1/bits/invoke.h **** 
  62:/Library/DaisyToolchain/0.2.0/arm/arm-none-eabi/include/c++/10.3.1/bits/invoke.h ****   template<typename _Res, typename _MemFun, typename _Tp, typename... _Args>
  63:/Library/DaisyToolchain/0.2.0/arm/arm-none-eabi/include/c++/10.3.1/bits/invoke.h ****     constexpr _Res
  64:/Library/DaisyToolchain/0.2.0/arm/arm-none-eabi/include/c++/10.3.1/bits/invoke.h ****     __invoke_impl(__invoke_memfun_ref, _MemFun&& __f, _Tp&& __t,
  65:/Library/DaisyToolchain/0.2.0/arm/arm-none-eabi/include/c++/10.3.1/bits/invoke.h **** 		  _Args&&... __args)
  66:/Library/DaisyToolchain/0.2.0/arm/arm-none-eabi/include/c++/10.3.1/bits/invoke.h ****     { return (__invfwd<_Tp>(__t).*__f)(std::forward<_Args>(__args)...); }
  67:/Library/DaisyToolchain/0.2.0/arm/arm-none-eabi/include/c++/10.3.1/bits/invoke.h **** 
  68:/Library/DaisyToolchain/0.2.0/arm/arm-none-eabi/include/c++/10.3.1/bits/invoke.h ****   template<typename _Res, typename _MemFun, typename _Tp, typename... _Args>
  69:/Library/DaisyToolchain/0.2.0/arm/arm-none-eabi/include/c++/10.3.1/bits/invoke.h ****     constexpr _Res
  70:/Library/DaisyToolchain/0.2.0/arm/arm-none-eabi/include/c++/10.3.1/bits/invoke.h ****     __invoke_impl(__invoke_memfun_deref, _MemFun&& __f, _Tp&& __t,
  71:/Library/DaisyToolchain/0.2.0/arm/arm-none-eabi/include/c++/10.3.1/bits/invoke.h **** 		  _Args&&... __args)
  72:/Library/DaisyToolchain/0.2.0/arm/arm-none-eabi/include/c++/10.3.1/bits/invoke.h ****     {
  73:/Library/DaisyToolchain/0.2.0/arm/arm-none-eabi/include/c++/10.3.1/bits/invoke.h ****       return ((*std::forward<_Tp>(__t)).*__f)(std::forward<_Args>(__args)...);
  74:/Library/DaisyToolchain/0.2.0/arm/arm-none-eabi/include/c++/10.3.1/bits/invoke.h ****     }
ARM GAS  /var/folders/wz/z09yph4n0qj4t7mjxhl6ttn80000gn/T//ccNJmc12.s 			page 8


  75:/Library/DaisyToolchain/0.2.0/arm/arm-none-eabi/include/c++/10.3.1/bits/invoke.h **** 
  76:/Library/DaisyToolchain/0.2.0/arm/arm-none-eabi/include/c++/10.3.1/bits/invoke.h ****   template<typename _Res, typename _MemPtr, typename _Tp>
  77:/Library/DaisyToolchain/0.2.0/arm/arm-none-eabi/include/c++/10.3.1/bits/invoke.h ****     constexpr _Res
  78:/Library/DaisyToolchain/0.2.0/arm/arm-none-eabi/include/c++/10.3.1/bits/invoke.h ****     __invoke_impl(__invoke_memobj_ref, _MemPtr&& __f, _Tp&& __t)
  79:/Library/DaisyToolchain/0.2.0/arm/arm-none-eabi/include/c++/10.3.1/bits/invoke.h ****     { return __invfwd<_Tp>(__t).*__f; }
  80:/Library/DaisyToolchain/0.2.0/arm/arm-none-eabi/include/c++/10.3.1/bits/invoke.h **** 
  81:/Library/DaisyToolchain/0.2.0/arm/arm-none-eabi/include/c++/10.3.1/bits/invoke.h ****   template<typename _Res, typename _MemPtr, typename _Tp>
  82:/Library/DaisyToolchain/0.2.0/arm/arm-none-eabi/include/c++/10.3.1/bits/invoke.h ****     constexpr _Res
  83:/Library/DaisyToolchain/0.2.0/arm/arm-none-eabi/include/c++/10.3.1/bits/invoke.h ****     __invoke_impl(__invoke_memobj_deref, _MemPtr&& __f, _Tp&& __t)
  84:/Library/DaisyToolchain/0.2.0/arm/arm-none-eabi/include/c++/10.3.1/bits/invoke.h ****     { return (*std::forward<_Tp>(__t)).*__f; }
  85:/Library/DaisyToolchain/0.2.0/arm/arm-none-eabi/include/c++/10.3.1/bits/invoke.h **** 
  86:/Library/DaisyToolchain/0.2.0/arm/arm-none-eabi/include/c++/10.3.1/bits/invoke.h ****   /// Invoke a callable object.
  87:/Library/DaisyToolchain/0.2.0/arm/arm-none-eabi/include/c++/10.3.1/bits/invoke.h ****   template<typename _Callable, typename... _Args>
  88:/Library/DaisyToolchain/0.2.0/arm/arm-none-eabi/include/c++/10.3.1/bits/invoke.h ****     constexpr typename __invoke_result<_Callable, _Args...>::type
  89:/Library/DaisyToolchain/0.2.0/arm/arm-none-eabi/include/c++/10.3.1/bits/invoke.h ****     __invoke(_Callable&& __fn, _Args&&... __args)
  90:/Library/DaisyToolchain/0.2.0/arm/arm-none-eabi/include/c++/10.3.1/bits/invoke.h ****     noexcept(__is_nothrow_invocable<_Callable, _Args...>::value)
  91:/Library/DaisyToolchain/0.2.0/arm/arm-none-eabi/include/c++/10.3.1/bits/invoke.h ****     {
  92:/Library/DaisyToolchain/0.2.0/arm/arm-none-eabi/include/c++/10.3.1/bits/invoke.h ****       using __result = __invoke_result<_Callable, _Args...>;
  93:/Library/DaisyToolchain/0.2.0/arm/arm-none-eabi/include/c++/10.3.1/bits/invoke.h ****       using __type = typename __result::type;
  94:/Library/DaisyToolchain/0.2.0/arm/arm-none-eabi/include/c++/10.3.1/bits/invoke.h ****       using __tag = typename __result::__invoke_type;
  95:/Library/DaisyToolchain/0.2.0/arm/arm-none-eabi/include/c++/10.3.1/bits/invoke.h ****       return std::__invoke_impl<__type>(__tag{}, std::forward<_Callable>(__fn),
  96:/Library/DaisyToolchain/0.2.0/arm/arm-none-eabi/include/c++/10.3.1/bits/invoke.h **** 					std::forward<_Args>(__args)...);
  97:/Library/DaisyToolchain/0.2.0/arm/arm-none-eabi/include/c++/10.3.1/bits/invoke.h ****     }
  98:/Library/DaisyToolchain/0.2.0/arm/arm-none-eabi/include/c++/10.3.1/bits/invoke.h **** 
  99:/Library/DaisyToolchain/0.2.0/arm/arm-none-eabi/include/c++/10.3.1/bits/invoke.h **** #if __cplusplus >= 201703L
 100:/Library/DaisyToolchain/0.2.0/arm/arm-none-eabi/include/c++/10.3.1/bits/invoke.h ****   // INVOKE<R>: Invoke a callable object and convert the result to R.
 101:/Library/DaisyToolchain/0.2.0/arm/arm-none-eabi/include/c++/10.3.1/bits/invoke.h ****   template<typename _Res, typename _Callable, typename... _Args>
 102:/Library/DaisyToolchain/0.2.0/arm/arm-none-eabi/include/c++/10.3.1/bits/invoke.h ****     constexpr enable_if_t<is_invocable_r_v<_Res, _Callable, _Args...>, _Res>
 103:/Library/DaisyToolchain/0.2.0/arm/arm-none-eabi/include/c++/10.3.1/bits/invoke.h ****     __invoke_r(_Callable&& __fn, _Args&&... __args)
 104:/Library/DaisyToolchain/0.2.0/arm/arm-none-eabi/include/c++/10.3.1/bits/invoke.h ****     noexcept(is_nothrow_invocable_r_v<_Res, _Callable, _Args...>)
 105:/Library/DaisyToolchain/0.2.0/arm/arm-none-eabi/include/c++/10.3.1/bits/invoke.h ****     {
 106:/Library/DaisyToolchain/0.2.0/arm/arm-none-eabi/include/c++/10.3.1/bits/invoke.h ****       using __result = __invoke_result<_Callable, _Args...>;
 107:/Library/DaisyToolchain/0.2.0/arm/arm-none-eabi/include/c++/10.3.1/bits/invoke.h ****       using __type = typename __result::type;
 108:/Library/DaisyToolchain/0.2.0/arm/arm-none-eabi/include/c++/10.3.1/bits/invoke.h ****       using __tag = typename __result::__invoke_type;
 109:/Library/DaisyToolchain/0.2.0/arm/arm-none-eabi/include/c++/10.3.1/bits/invoke.h ****       if constexpr (is_void_v<_Res>)
 110:/Library/DaisyToolchain/0.2.0/arm/arm-none-eabi/include/c++/10.3.1/bits/invoke.h **** 	std::__invoke_impl<__type>(__tag{}, std::forward<_Callable>(__fn),
 111:/Library/DaisyToolchain/0.2.0/arm/arm-none-eabi/include/c++/10.3.1/bits/invoke.h **** 					std::forward<_Args>(__args)...);
 112:/Library/DaisyToolchain/0.2.0/arm/arm-none-eabi/include/c++/10.3.1/bits/invoke.h ****       else
 113:/Library/DaisyToolchain/0.2.0/arm/arm-none-eabi/include/c++/10.3.1/bits/invoke.h **** 	return std::__invoke_impl<__type>(__tag{},
 114:/Library/DaisyToolchain/0.2.0/arm/arm-none-eabi/include/c++/10.3.1/bits/invoke.h **** 					  std::forward<_Callable>(__fn),
 115:/Library/DaisyToolchain/0.2.0/arm/arm-none-eabi/include/c++/10.3.1/bits/invoke.h **** 					  std::forward<_Args>(__args)...);
 116:/Library/DaisyToolchain/0.2.0/arm/arm-none-eabi/include/c++/10.3.1/bits/invoke.h ****     }
 117:/Library/DaisyToolchain/0.2.0/arm/arm-none-eabi/include/c++/10.3.1/bits/invoke.h **** #else // C++11
 118:/Library/DaisyToolchain/0.2.0/arm/arm-none-eabi/include/c++/10.3.1/bits/invoke.h ****   template<typename _Res, typename _Callable, typename... _Args>
 119:/Library/DaisyToolchain/0.2.0/arm/arm-none-eabi/include/c++/10.3.1/bits/invoke.h ****     using __can_invoke_as_void = __enable_if_t<
 120:/Library/DaisyToolchain/0.2.0/arm/arm-none-eabi/include/c++/10.3.1/bits/invoke.h ****       __and_<is_void<_Res>, __is_invocable<_Callable, _Args...>>::value,
 121:/Library/DaisyToolchain/0.2.0/arm/arm-none-eabi/include/c++/10.3.1/bits/invoke.h ****       _Res
 122:/Library/DaisyToolchain/0.2.0/arm/arm-none-eabi/include/c++/10.3.1/bits/invoke.h ****     >;
 123:/Library/DaisyToolchain/0.2.0/arm/arm-none-eabi/include/c++/10.3.1/bits/invoke.h **** 
 124:/Library/DaisyToolchain/0.2.0/arm/arm-none-eabi/include/c++/10.3.1/bits/invoke.h ****   template<typename _Res, typename _Callable, typename... _Args>
 125:/Library/DaisyToolchain/0.2.0/arm/arm-none-eabi/include/c++/10.3.1/bits/invoke.h ****     using __can_invoke_as_nonvoid = __enable_if_t<
 126:/Library/DaisyToolchain/0.2.0/arm/arm-none-eabi/include/c++/10.3.1/bits/invoke.h ****       __and_<__not_<is_void<_Res>>,
 127:/Library/DaisyToolchain/0.2.0/arm/arm-none-eabi/include/c++/10.3.1/bits/invoke.h **** 	     is_convertible<typename __invoke_result<_Callable, _Args...>::type,
 128:/Library/DaisyToolchain/0.2.0/arm/arm-none-eabi/include/c++/10.3.1/bits/invoke.h **** 			    _Res>
 129:/Library/DaisyToolchain/0.2.0/arm/arm-none-eabi/include/c++/10.3.1/bits/invoke.h ****       >::value,
 130:/Library/DaisyToolchain/0.2.0/arm/arm-none-eabi/include/c++/10.3.1/bits/invoke.h ****       _Res
 131:/Library/DaisyToolchain/0.2.0/arm/arm-none-eabi/include/c++/10.3.1/bits/invoke.h ****     >;
ARM GAS  /var/folders/wz/z09yph4n0qj4t7mjxhl6ttn80000gn/T//ccNJmc12.s 			page 9


 132:/Library/DaisyToolchain/0.2.0/arm/arm-none-eabi/include/c++/10.3.1/bits/invoke.h **** 
 133:/Library/DaisyToolchain/0.2.0/arm/arm-none-eabi/include/c++/10.3.1/bits/invoke.h ****   // INVOKE<R>: Invoke a callable object and convert the result to R.
 134:/Library/DaisyToolchain/0.2.0/arm/arm-none-eabi/include/c++/10.3.1/bits/invoke.h ****   template<typename _Res, typename _Callable, typename... _Args>
 135:/Library/DaisyToolchain/0.2.0/arm/arm-none-eabi/include/c++/10.3.1/bits/invoke.h ****     constexpr __can_invoke_as_nonvoid<_Res, _Callable, _Args...>
 136:/Library/DaisyToolchain/0.2.0/arm/arm-none-eabi/include/c++/10.3.1/bits/invoke.h ****     __invoke_r(_Callable&& __fn, _Args&&... __args)
 137:/Library/DaisyToolchain/0.2.0/arm/arm-none-eabi/include/c++/10.3.1/bits/invoke.h ****     {
 138:/Library/DaisyToolchain/0.2.0/arm/arm-none-eabi/include/c++/10.3.1/bits/invoke.h ****       using __result = __invoke_result<_Callable, _Args...>;
 139:/Library/DaisyToolchain/0.2.0/arm/arm-none-eabi/include/c++/10.3.1/bits/invoke.h ****       using __type = typename __result::type;
 140:/Library/DaisyToolchain/0.2.0/arm/arm-none-eabi/include/c++/10.3.1/bits/invoke.h ****       using __tag = typename __result::__invoke_type;
 141:/Library/DaisyToolchain/0.2.0/arm/arm-none-eabi/include/c++/10.3.1/bits/invoke.h ****       return std::__invoke_impl<__type>(__tag{}, std::forward<_Callable>(__fn),
 142:/Library/DaisyToolchain/0.2.0/arm/arm-none-eabi/include/c++/10.3.1/bits/invoke.h **** 					std::forward<_Args>(__args)...);
 143:/Library/DaisyToolchain/0.2.0/arm/arm-none-eabi/include/c++/10.3.1/bits/invoke.h ****     }
 144:/Library/DaisyToolchain/0.2.0/arm/arm-none-eabi/include/c++/10.3.1/bits/invoke.h **** 
 145:/Library/DaisyToolchain/0.2.0/arm/arm-none-eabi/include/c++/10.3.1/bits/invoke.h ****   // INVOKE<R> when R is cv void
 146:/Library/DaisyToolchain/0.2.0/arm/arm-none-eabi/include/c++/10.3.1/bits/invoke.h ****   template<typename _Res, typename _Callable, typename... _Args>
 147:/Library/DaisyToolchain/0.2.0/arm/arm-none-eabi/include/c++/10.3.1/bits/invoke.h ****     _GLIBCXX14_CONSTEXPR __can_invoke_as_void<_Res, _Callable, _Args...>
 148:/Library/DaisyToolchain/0.2.0/arm/arm-none-eabi/include/c++/10.3.1/bits/invoke.h ****     __invoke_r(_Callable&& __fn, _Args&&... __args)
  37              		.loc 2 148 5 view .LVU2
  38              	.LBB453:
  39              	.LBB454:
  40              	.LBI454:
  59:/Library/DaisyToolchain/0.2.0/arm/arm-none-eabi/include/c++/10.3.1/bits/invoke.h ****     { return std::forward<_Fn>(__f)(std::forward<_Args>(__args)...); }
  41              		.loc 2 59 5 view .LVU3
  42              	.LBB455:
  43              	.LBB456:
  44              	.LBB457:
  45              		.file 3 "DSP/FX/PitchShift.cpp"
   1:DSP/FX/PitchShift.cpp **** #include "PitchShift.h"
   2:DSP/FX/PitchShift.cpp **** 
   3:DSP/FX/PitchShift.cpp **** void PitchShift::init(DaisySeed* seed)
   4:DSP/FX/PitchShift.cpp **** {
   5:DSP/FX/PitchShift.cpp ****     for(size_t i = 0 ; i < BLOCKLENGTH ; i++)
   6:DSP/FX/PitchShift.cpp ****     {
   7:DSP/FX/PitchShift.cpp ****         buffer[L][i] = 0.0f;
   8:DSP/FX/PitchShift.cpp ****         buffer[R][i] = 0.0f;
   9:DSP/FX/PitchShift.cpp ****     }
  10:DSP/FX/PitchShift.cpp ****     
  11:DSP/FX/PitchShift.cpp ****     shifter.Init(48000);
  12:DSP/FX/PitchShift.cpp **** 
  13:DSP/FX/PitchShift.cpp ****     //bypass.param.init(daisy::seed::D5, 1000, [this]{ setBypass(); }); // CHECK THIS
  14:DSP/FX/PitchShift.cpp ****     amount.param.init(seed, 0, 1, LINEAR, ChannelIDs::AMP2, [this] (float a) { amount.value = a; })
  46              		.loc 3 14 93 is_stmt 0 view .LVU4
  47 0000 0368     		ldr	r3, [r0]
  48              	.LBE457:
  49              	.LBE456:
  60:/Library/DaisyToolchain/0.2.0/arm/arm-none-eabi/include/c++/10.3.1/bits/invoke.h **** 
  50              		.loc 2 60 36 view .LVU5
  51 0002 0A68     		ldr	r2, [r1]	@ float
  52              	.LVL1:
  53              	.LBB459:
  54              	.LBI456:
  55              		.loc 3 14 61 is_stmt 1 view .LVU6
  56              	.LBB458:
  57              		.loc 3 14 80 view .LVU7
  58              		.loc 3 14 93 is_stmt 0 view .LVU8
  59 0004 03F59843 		add	r3, r3, #19456
  60 0008 9A62     		str	r2, [r3, #40]	@ float
ARM GAS  /var/folders/wz/z09yph4n0qj4t7mjxhl6ttn80000gn/T//ccNJmc12.s 			page 10


  61              	.LVL2:
  62              		.loc 3 14 93 view .LVU9
  63              	.LBE458:
  64              	.LBE459:
  65              	.LBE455:
  66              	.LBE454:
  67              	.LBE453:
  68              	.LBE452:
 290:/Library/DaisyToolchain/0.2.0/arm/arm-none-eabi/include/c++/10.3.1/bits/std_function.h ****       {
 291:/Library/DaisyToolchain/0.2.0/arm/arm-none-eabi/include/c++/10.3.1/bits/std_function.h **** 	return std::__invoke_r<_Res>(*_Base::_M_get_pointer(__functor),
 292:/Library/DaisyToolchain/0.2.0/arm/arm-none-eabi/include/c++/10.3.1/bits/std_function.h **** 				     std::forward<_ArgTypes>(__args)...);
 293:/Library/DaisyToolchain/0.2.0/arm/arm-none-eabi/include/c++/10.3.1/bits/std_function.h ****       }
  69              		.loc 1 293 7 view .LVU10
  70 000a 7047     		bx	lr
  71              		.cfi_endproc
  72              	.LFE6127:
  74              		.section	.text._ZNSt17_Function_handlerIFvfEZN10PitchShift4initEPN5daisy9DaisySeedEEUlfE1_E9_M_inv
  75              		.align	1
  76              		.syntax unified
  77              		.thumb
  78              		.thumb_func
  80              	_ZNSt17_Function_handlerIFvfEZN10PitchShift4initEPN5daisy9DaisySeedEEUlfE1_E9_M_invokeERKSt9_Any_da
  81              	.LVL3:
  82              	.LFB6143:
 289:/Library/DaisyToolchain/0.2.0/arm/arm-none-eabi/include/c++/10.3.1/bits/std_function.h ****       {
  83              		.loc 1 289 7 is_stmt 1 view -0
  84              		.cfi_startproc
  85              		@ args = 0, pretend = 0, frame = 0
  86              		@ frame_needed = 0, uses_anonymous_args = 0
  87              		@ link register save eliminated.
  88:/Library/DaisyToolchain/0.2.0/arm/arm-none-eabi/include/c++/10.3.1/bits/std_function.h **** 
  88              		.loc 1 88 37 view .LVU12
  89              	.LBB460:
  90              	.LBI460:
  91              		.loc 2 148 5 view .LVU13
  92              	.LBB461:
  93              	.LBB462:
  94              	.LBI462:
  59:/Library/DaisyToolchain/0.2.0/arm/arm-none-eabi/include/c++/10.3.1/bits/invoke.h ****     { return std::forward<_Fn>(__f)(std::forward<_Args>(__args)...); }
  95              		.loc 2 59 5 view .LVU14
  96              	.LBB463:
  97              	.LBB464:
  98              	.LBB465:
  99              	.LBB466:
 100              	.LBB467:
 101              		.file 4 "../../../DaisySP//Source/Effects/pitchshifter.h"
   1:../../../DaisySP//Source/Effects/pitchshifter.h **** #pragma once
   2:../../../DaisySP//Source/Effects/pitchshifter.h **** #ifndef DSY_PITCHSHIFTER_H
   3:../../../DaisySP//Source/Effects/pitchshifter.h **** #define DSY_PITCHSHIFTER_H
   4:../../../DaisySP//Source/Effects/pitchshifter.h **** #include <stdint.h>
   5:../../../DaisySP//Source/Effects/pitchshifter.h **** #include <cmath>
   6:../../../DaisySP//Source/Effects/pitchshifter.h **** #ifdef USE_ARM_DSP
   7:../../../DaisySP//Source/Effects/pitchshifter.h **** #include "arm_math.h"
   8:../../../DaisySP//Source/Effects/pitchshifter.h **** #endif
   9:../../../DaisySP//Source/Effects/pitchshifter.h **** #include "Utility/dsp.h"
  10:../../../DaisySP//Source/Effects/pitchshifter.h **** #include "Utility/delayline.h"
  11:../../../DaisySP//Source/Effects/pitchshifter.h **** #include "Control/phasor.h"
ARM GAS  /var/folders/wz/z09yph4n0qj4t7mjxhl6ttn80000gn/T//ccNJmc12.s 			page 11


  12:../../../DaisySP//Source/Effects/pitchshifter.h **** 
  13:../../../DaisySP//Source/Effects/pitchshifter.h **** /** Shift can be 30-100 ms lets just start with 50 for now.
  14:../../../DaisySP//Source/Effects/pitchshifter.h **** 0.050 * SR = 2400 samples (at 48kHz)
  15:../../../DaisySP//Source/Effects/pitchshifter.h **** */
  16:../../../DaisySP//Source/Effects/pitchshifter.h **** //#define SHIFT_BUFFER_SIZE 16384
  17:../../../DaisySP//Source/Effects/pitchshifter.h **** //#define SHIFT_BUFFER_SIZE 4800
  18:../../../DaisySP//Source/Effects/pitchshifter.h **** #define SHIFT_BUFFER_SIZE 2400
  19:../../../DaisySP//Source/Effects/pitchshifter.h **** //#define SHIFT_BUFFER_SIZE 8192
  20:../../../DaisySP//Source/Effects/pitchshifter.h **** //#define SHIFT_BUFFER_SIZE 1024
  21:../../../DaisySP//Source/Effects/pitchshifter.h **** 
  22:../../../DaisySP//Source/Effects/pitchshifter.h **** namespace daisysp
  23:../../../DaisySP//Source/Effects/pitchshifter.h **** {
  24:../../../DaisySP//Source/Effects/pitchshifter.h **** static inline uint32_t hash_xs32(uint32_t x)
  25:../../../DaisySP//Source/Effects/pitchshifter.h **** {
  26:../../../DaisySP//Source/Effects/pitchshifter.h ****     x ^= x << 13;
  27:../../../DaisySP//Source/Effects/pitchshifter.h ****     x ^= x >> 17;
  28:../../../DaisySP//Source/Effects/pitchshifter.h ****     x ^= x << 5;
  29:../../../DaisySP//Source/Effects/pitchshifter.h ****     return x;
  30:../../../DaisySP//Source/Effects/pitchshifter.h **** }
  31:../../../DaisySP//Source/Effects/pitchshifter.h **** 
  32:../../../DaisySP//Source/Effects/pitchshifter.h **** inline uint32_t myrand()
  33:../../../DaisySP//Source/Effects/pitchshifter.h **** {
  34:../../../DaisySP//Source/Effects/pitchshifter.h ****     static uint32_t seed = 1;
  35:../../../DaisySP//Source/Effects/pitchshifter.h ****     seed                 = hash_xs32(seed);
  36:../../../DaisySP//Source/Effects/pitchshifter.h ****     return seed;
  37:../../../DaisySP//Source/Effects/pitchshifter.h **** }
  38:../../../DaisySP//Source/Effects/pitchshifter.h **** 
  39:../../../DaisySP//Source/Effects/pitchshifter.h **** /**  time-domain pitchshifter
  40:../../../DaisySP//Source/Effects/pitchshifter.h **** 
  41:../../../DaisySP//Source/Effects/pitchshifter.h **** Author: shensley
  42:../../../DaisySP//Source/Effects/pitchshifter.h **** 
  43:../../../DaisySP//Source/Effects/pitchshifter.h **** Based on "Pitch Shifting" from ucsd.edu 
  44:../../../DaisySP//Source/Effects/pitchshifter.h **** 
  45:../../../DaisySP//Source/Effects/pitchshifter.h **** t = 1 - ((s *f) / R)
  46:../../../DaisySP//Source/Effects/pitchshifter.h **** 
  47:../../../DaisySP//Source/Effects/pitchshifter.h **** where:
  48:../../../DaisySP//Source/Effects/pitchshifter.h ****     s is the size of the delay
  49:../../../DaisySP//Source/Effects/pitchshifter.h ****     f is the frequency of the lfo
  50:../../../DaisySP//Source/Effects/pitchshifter.h ****     r is the sample_rate
  51:../../../DaisySP//Source/Effects/pitchshifter.h **** 
  52:../../../DaisySP//Source/Effects/pitchshifter.h **** solving for t = 12.0
  53:../../../DaisySP//Source/Effects/pitchshifter.h **** f = (12 - 1) * 48000 / SHIFT_BUFFER_SIZE;
  54:../../../DaisySP//Source/Effects/pitchshifter.h **** 
  55:../../../DaisySP//Source/Effects/pitchshifter.h **** \todo - move hash_xs32 and myrand to dsp.h and give appropriate names
  56:../../../DaisySP//Source/Effects/pitchshifter.h **** */
  57:../../../DaisySP//Source/Effects/pitchshifter.h **** class PitchShifter
  58:../../../DaisySP//Source/Effects/pitchshifter.h **** {
  59:../../../DaisySP//Source/Effects/pitchshifter.h ****   public:
  60:../../../DaisySP//Source/Effects/pitchshifter.h ****     PitchShifter() {}
  61:../../../DaisySP//Source/Effects/pitchshifter.h ****     ~PitchShifter() {}
  62:../../../DaisySP//Source/Effects/pitchshifter.h ****     /** Initialize pitch shifter
  63:../../../DaisySP//Source/Effects/pitchshifter.h ****     */
  64:../../../DaisySP//Source/Effects/pitchshifter.h ****     void Init(float sr)
  65:../../../DaisySP//Source/Effects/pitchshifter.h ****     {
  66:../../../DaisySP//Source/Effects/pitchshifter.h ****         force_recalc_ = false;
  67:../../../DaisySP//Source/Effects/pitchshifter.h ****         sr_           = sr;
  68:../../../DaisySP//Source/Effects/pitchshifter.h ****         mod_freq_     = 5.0f;
ARM GAS  /var/folders/wz/z09yph4n0qj4t7mjxhl6ttn80000gn/T//ccNJmc12.s 			page 12


  69:../../../DaisySP//Source/Effects/pitchshifter.h ****         SetSemitones();
  70:../../../DaisySP//Source/Effects/pitchshifter.h ****         for(uint8_t i = 0; i < 2; i++)
  71:../../../DaisySP//Source/Effects/pitchshifter.h ****         {
  72:../../../DaisySP//Source/Effects/pitchshifter.h ****             gain_[i] = 0.0f;
  73:../../../DaisySP//Source/Effects/pitchshifter.h ****             d_[i].Init();
  74:../../../DaisySP//Source/Effects/pitchshifter.h ****             phs_[i].Init(sr, 50, i == 0 ? 0 : PI_F);
  75:../../../DaisySP//Source/Effects/pitchshifter.h ****         }
  76:../../../DaisySP//Source/Effects/pitchshifter.h ****         shift_up_ = true;
  77:../../../DaisySP//Source/Effects/pitchshifter.h ****         del_size_ = SHIFT_BUFFER_SIZE;
  78:../../../DaisySP//Source/Effects/pitchshifter.h ****         SetDelSize(del_size_);
  79:../../../DaisySP//Source/Effects/pitchshifter.h ****         fun_ = 0.0f;
  80:../../../DaisySP//Source/Effects/pitchshifter.h ****     }
  81:../../../DaisySP//Source/Effects/pitchshifter.h **** 
  82:../../../DaisySP//Source/Effects/pitchshifter.h ****     /** process pitch shifter
  83:../../../DaisySP//Source/Effects/pitchshifter.h ****     */
  84:../../../DaisySP//Source/Effects/pitchshifter.h ****     float Process(float &in)
  85:../../../DaisySP//Source/Effects/pitchshifter.h ****     {
  86:../../../DaisySP//Source/Effects/pitchshifter.h ****         float val, fade1, fade2;
  87:../../../DaisySP//Source/Effects/pitchshifter.h ****         // First Process delay mod/crossfade
  88:../../../DaisySP//Source/Effects/pitchshifter.h ****         fade1 = phs_[0].Process();
  89:../../../DaisySP//Source/Effects/pitchshifter.h ****         fade2 = phs_[1].Process();
  90:../../../DaisySP//Source/Effects/pitchshifter.h ****         if(prev_phs_a_ > fade1)
  91:../../../DaisySP//Source/Effects/pitchshifter.h ****         {
  92:../../../DaisySP//Source/Effects/pitchshifter.h ****             mod_a_amt_ = fun_ * ((float)(myrand() % 255) / 255.0f)
  93:../../../DaisySP//Source/Effects/pitchshifter.h ****                          * (del_size_ * 0.5f);
  94:../../../DaisySP//Source/Effects/pitchshifter.h ****             mod_coeff_[0]
  95:../../../DaisySP//Source/Effects/pitchshifter.h ****                 = 0.0002f + (((float)(myrand() % 255) / 255.0f) * 0.001f);
  96:../../../DaisySP//Source/Effects/pitchshifter.h ****         }
  97:../../../DaisySP//Source/Effects/pitchshifter.h ****         if(prev_phs_b_ > fade2)
  98:../../../DaisySP//Source/Effects/pitchshifter.h ****         {
  99:../../../DaisySP//Source/Effects/pitchshifter.h ****             mod_b_amt_ = fun_ * ((float)(myrand() % 255) / 255.0f)
 100:../../../DaisySP//Source/Effects/pitchshifter.h ****                          * (del_size_ * 0.5f);
 101:../../../DaisySP//Source/Effects/pitchshifter.h ****             mod_coeff_[1]
 102:../../../DaisySP//Source/Effects/pitchshifter.h ****                 = 0.0002f + (((float)(myrand() % 255) / 255.0f) * 0.001f);
 103:../../../DaisySP//Source/Effects/pitchshifter.h ****         }
 104:../../../DaisySP//Source/Effects/pitchshifter.h ****         slewed_mod_[0] += mod_coeff_[0] * (mod_a_amt_ - slewed_mod_[0]);
 105:../../../DaisySP//Source/Effects/pitchshifter.h ****         slewed_mod_[1] += mod_coeff_[1] * (mod_b_amt_ - slewed_mod_[1]);
 106:../../../DaisySP//Source/Effects/pitchshifter.h ****         prev_phs_a_ = fade1;
 107:../../../DaisySP//Source/Effects/pitchshifter.h ****         prev_phs_b_ = fade2;
 108:../../../DaisySP//Source/Effects/pitchshifter.h ****         if(shift_up_)
 109:../../../DaisySP//Source/Effects/pitchshifter.h ****         {
 110:../../../DaisySP//Source/Effects/pitchshifter.h ****             fade1 = 1.0f - fade1;
 111:../../../DaisySP//Source/Effects/pitchshifter.h ****             fade2 = 1.0f - fade2;
 112:../../../DaisySP//Source/Effects/pitchshifter.h ****         }
 113:../../../DaisySP//Source/Effects/pitchshifter.h ****         mod_[0] = fade1 * (del_size_ - 1);
 114:../../../DaisySP//Source/Effects/pitchshifter.h ****         mod_[1] = fade2 * (del_size_ - 1);
 115:../../../DaisySP//Source/Effects/pitchshifter.h **** #ifdef USE_ARM_DSP
 116:../../../DaisySP//Source/Effects/pitchshifter.h ****         gain_[0] = arm_sin_f32(fade1 * (float)M_PI);
 117:../../../DaisySP//Source/Effects/pitchshifter.h ****         gain_[1] = arm_sin_f32(fade2 * (float)M_PI);
 118:../../../DaisySP//Source/Effects/pitchshifter.h **** #else
 119:../../../DaisySP//Source/Effects/pitchshifter.h ****         gain_[0] = sinf(fade1 * PI_F);
 120:../../../DaisySP//Source/Effects/pitchshifter.h ****         gain_[1] = sinf(fade2 * PI_F);
 121:../../../DaisySP//Source/Effects/pitchshifter.h **** #endif
 122:../../../DaisySP//Source/Effects/pitchshifter.h **** 
 123:../../../DaisySP//Source/Effects/pitchshifter.h ****         // Handle Delay Writing
 124:../../../DaisySP//Source/Effects/pitchshifter.h ****         d_[0].Write(in);
 125:../../../DaisySP//Source/Effects/pitchshifter.h ****         d_[1].Write(in);
ARM GAS  /var/folders/wz/z09yph4n0qj4t7mjxhl6ttn80000gn/T//ccNJmc12.s 			page 13


 126:../../../DaisySP//Source/Effects/pitchshifter.h ****         // Modulate Delay Lines
 127:../../../DaisySP//Source/Effects/pitchshifter.h ****         //mod_a_amt = mod_b_amt = 0.0f;
 128:../../../DaisySP//Source/Effects/pitchshifter.h ****         d_[0].SetDelay(mod_[0] + mod_a_amt_);
 129:../../../DaisySP//Source/Effects/pitchshifter.h ****         d_[1].SetDelay(mod_[1] + mod_b_amt_);
 130:../../../DaisySP//Source/Effects/pitchshifter.h ****         d_[0].SetDelay(mod_[0] + slewed_mod_[0]);
 131:../../../DaisySP//Source/Effects/pitchshifter.h ****         d_[1].SetDelay(mod_[1] + slewed_mod_[1]);
 132:../../../DaisySP//Source/Effects/pitchshifter.h ****         val = 0.0f;
 133:../../../DaisySP//Source/Effects/pitchshifter.h ****         val += (d_[0].Read() * gain_[0]);
 134:../../../DaisySP//Source/Effects/pitchshifter.h ****         val += (d_[1].Read() * gain_[1]);
 135:../../../DaisySP//Source/Effects/pitchshifter.h ****         return val;
 136:../../../DaisySP//Source/Effects/pitchshifter.h ****     }
 137:../../../DaisySP//Source/Effects/pitchshifter.h **** 
 138:../../../DaisySP//Source/Effects/pitchshifter.h ****     /** sets transposition in semitones
 139:../../../DaisySP//Source/Effects/pitchshifter.h ****     */
 140:../../../DaisySP//Source/Effects/pitchshifter.h ****     void SetTransposition(const float &transpose)
 141:../../../DaisySP//Source/Effects/pitchshifter.h ****     {
 142:../../../DaisySP//Source/Effects/pitchshifter.h ****         float   ratio;
 143:../../../DaisySP//Source/Effects/pitchshifter.h ****         uint8_t idx;
 144:../../../DaisySP//Source/Effects/pitchshifter.h ****         if(transpose_ != transpose || force_recalc_)
 145:../../../DaisySP//Source/Effects/pitchshifter.h ****         {
 146:../../../DaisySP//Source/Effects/pitchshifter.h ****             transpose_ = transpose;
 147:../../../DaisySP//Source/Effects/pitchshifter.h ****             idx        = (uint8_t)fabsf(transpose);
 148:../../../DaisySP//Source/Effects/pitchshifter.h ****             ratio      = semitone_ratios_[idx % 12];
 149:../../../DaisySP//Source/Effects/pitchshifter.h ****             ratio *= (uint8_t)(fabsf(transpose) / 12) + 1;
 150:../../../DaisySP//Source/Effects/pitchshifter.h ****             if(transpose > 0.0f)
 151:../../../DaisySP//Source/Effects/pitchshifter.h ****             {
 152:../../../DaisySP//Source/Effects/pitchshifter.h ****                 shift_up_ = true;
 153:../../../DaisySP//Source/Effects/pitchshifter.h ****             }
 154:../../../DaisySP//Source/Effects/pitchshifter.h ****             else
 155:../../../DaisySP//Source/Effects/pitchshifter.h ****             {
 156:../../../DaisySP//Source/Effects/pitchshifter.h ****                 shift_up_ = false;
 157:../../../DaisySP//Source/Effects/pitchshifter.h ****             }
 158:../../../DaisySP//Source/Effects/pitchshifter.h ****             mod_freq_ = ((ratio - 1.0f) * sr_) / del_size_;
 159:../../../DaisySP//Source/Effects/pitchshifter.h ****             if(mod_freq_ < 0.0f)
 160:../../../DaisySP//Source/Effects/pitchshifter.h ****             {
 161:../../../DaisySP//Source/Effects/pitchshifter.h ****                 mod_freq_ = 0.0f;
 162:../../../DaisySP//Source/Effects/pitchshifter.h ****             }
 163:../../../DaisySP//Source/Effects/pitchshifter.h ****             phs_[0].SetFreq(mod_freq_);
 164:../../../DaisySP//Source/Effects/pitchshifter.h ****             phs_[1].SetFreq(mod_freq_);
 165:../../../DaisySP//Source/Effects/pitchshifter.h ****             if(force_recalc_)
 166:../../../DaisySP//Source/Effects/pitchshifter.h ****             {
 167:../../../DaisySP//Source/Effects/pitchshifter.h ****                 force_recalc_ = false;
 168:../../../DaisySP//Source/Effects/pitchshifter.h ****             }
 169:../../../DaisySP//Source/Effects/pitchshifter.h ****         }
 170:../../../DaisySP//Source/Effects/pitchshifter.h ****     }
 171:../../../DaisySP//Source/Effects/pitchshifter.h **** 
 172:../../../DaisySP//Source/Effects/pitchshifter.h ****     /** sets delay size changing the timbre of the pitchshifting 
 173:../../../DaisySP//Source/Effects/pitchshifter.h ****     */
 174:../../../DaisySP//Source/Effects/pitchshifter.h ****     void SetDelSize(uint32_t size)
 175:../../../DaisySP//Source/Effects/pitchshifter.h ****     {
 176:../../../DaisySP//Source/Effects/pitchshifter.h ****         del_size_     = size < SHIFT_BUFFER_SIZE ? size : SHIFT_BUFFER_SIZE;
 177:../../../DaisySP//Source/Effects/pitchshifter.h ****         force_recalc_ = true;
 178:../../../DaisySP//Source/Effects/pitchshifter.h ****         SetTransposition(transpose_);
 179:../../../DaisySP//Source/Effects/pitchshifter.h ****     }
 180:../../../DaisySP//Source/Effects/pitchshifter.h **** 
 181:../../../DaisySP//Source/Effects/pitchshifter.h ****     /** sets an amount of internal random modulation, kind of sounds like tape-flutter
 182:../../../DaisySP//Source/Effects/pitchshifter.h ****     */
ARM GAS  /var/folders/wz/z09yph4n0qj4t7mjxhl6ttn80000gn/T//ccNJmc12.s 			page 14


 183:../../../DaisySP//Source/Effects/pitchshifter.h ****     inline void SetFun(float f) { fun_ = f; }
 102              		.loc 4 183 40 is_stmt 0 view .LVU15
 103 0000 0368     		ldr	r3, [r0]
 104              	.LBE467:
 105              	.LBE466:
 106              	.LBE465:
 107              	.LBE464:
  60:/Library/DaisyToolchain/0.2.0/arm/arm-none-eabi/include/c++/10.3.1/bits/invoke.h **** 
 108              		.loc 2 60 36 view .LVU16
 109 0002 0A68     		ldr	r2, [r1]	@ float
 110              	.LVL4:
 111              	.LBB471:
 112              	.LBI464:
  15:DSP/FX/PitchShift.cpp ****     semitones.init(seed, -12, 12, LINEAR, ChannelIDs::AMP3, [this] (int s) { shifter.SetTranspositi
  16:DSP/FX/PitchShift.cpp ****     rand.init(seed, 0, 1, LINEAR, ChannelIDs::AMP4, [this] (float r) { shifter.SetFun(r); });
 113              		.loc 3 16 53 is_stmt 1 view .LVU17
 114              	.LBB470:
 115              		.loc 3 16 72 view .LVU18
 116              	.LBB469:
 117              	.LBI466:
 118              		.loc 4 183 17 view .LVU19
 119              	.LBB468:
 120              		.loc 4 183 35 view .LVU20
 121              		.loc 4 183 40 is_stmt 0 view .LVU21
 122 0004 03F59743 		add	r3, r3, #19328
 123              	.LVL5:
 124              		.loc 4 183 40 view .LVU22
 125 0008 5A60     		str	r2, [r3, #4]	@ float
 126              	.LVL6:
 127              		.loc 4 183 40 view .LVU23
 128              	.LBE468:
 129              	.LBE469:
 130              	.LBE470:
 131              	.LBE471:
 132              	.LBE463:
 133              	.LBE462:
 134              	.LBE461:
 135              	.LBE460:
 136              		.loc 1 293 7 view .LVU24
 137 000a 7047     		bx	lr
 138              		.cfi_endproc
 139              	.LFE6143:
 141              		.section	.text._ZNSt17_Function_handlerIFvfEZN10PitchShift4initEPN5daisy9DaisySeedEEUlfE1_E10_M_ma
 142              		.align	1
 143              		.syntax unified
 144              		.thumb
 145              		.thumb_func
 147              	_ZNSt17_Function_handlerIFvfEZN10PitchShift4initEPN5daisy9DaisySeedEEUlfE1_E10_M_managerERSt9_Any_d
 148              	.LVL7:
 149              	.LFB6144:
 268:/Library/DaisyToolchain/0.2.0/arm/arm-none-eabi/include/c++/10.3.1/bits/std_function.h **** 		 _Manager_operation __op)
 150              		.loc 1 268 7 is_stmt 1 view -0
 151              		.cfi_startproc
 152              		@ args = 0, pretend = 0, frame = 0
 153              		@ frame_needed = 0, uses_anonymous_args = 0
 154              		@ link register save eliminated.
 271:/Library/DaisyToolchain/0.2.0/arm/arm-none-eabi/include/c++/10.3.1/bits/std_function.h **** 	  {
ARM GAS  /var/folders/wz/z09yph4n0qj4t7mjxhl6ttn80000gn/T//ccNJmc12.s 			page 15


 155              		.loc 1 271 2 is_stmt 0 view .LVU26
 156 0000 012A     		cmp	r2, #1
 157 0002 02D1     		bne	.L4
 158              	.LVL8:
  87:/Library/DaisyToolchain/0.2.0/arm/arm-none-eabi/include/c++/10.3.1/bits/std_function.h ****     const void* _M_access() const { return &_M_pod_data[0]; }
 159              		.loc 1 87 37 is_stmt 1 view .LVU27
 160              	.LBB488:
 161              	.LBI488:
 136:/Library/DaisyToolchain/0.2.0/arm/arm-none-eabi/include/c++/10.3.1/bits/std_function.h **** 	{
 162              		.loc 1 136 2 view .LVU28
 163              	.LBB489:
 164              	.LBB490:
 165              	.LBI490:
  97:/Library/DaisyToolchain/0.2.0/arm/arm-none-eabi/include/c++/10.3.1/bits/std_function.h ****       { return *static_cast<const _Tp*>(_M_access()); }
 166              		.loc 1 97 7 view .LVU29
 167              	.LBB491:
 168              	.LBI491:
  88:/Library/DaisyToolchain/0.2.0/arm/arm-none-eabi/include/c++/10.3.1/bits/std_function.h **** 
 169              		.loc 1 88 17 view .LVU30
 170              	.LBB492:
  88:/Library/DaisyToolchain/0.2.0/arm/arm-none-eabi/include/c++/10.3.1/bits/std_function.h **** 
 171              		.loc 1 88 37 view .LVU31
  88:/Library/DaisyToolchain/0.2.0/arm/arm-none-eabi/include/c++/10.3.1/bits/std_function.h **** 
 172              		.loc 1 88 37 is_stmt 0 view .LVU32
 173              	.LBE492:
 174              	.LBE491:
 175              	.LBE490:
 176              	.LBE489:
 177              	.LBE488:
 279:/Library/DaisyToolchain/0.2.0/arm/arm-none-eabi/include/c++/10.3.1/bits/std_function.h **** 	    break;
 178              		.loc 1 279 36 view .LVU33
 179 0004 0160     		str	r1, [r0]
 180              	.LVL9:
 181              	.L5:
 286:/Library/DaisyToolchain/0.2.0/arm/arm-none-eabi/include/c++/10.3.1/bits/std_function.h **** 
 182              		.loc 1 286 7 view .LVU34
 183 0006 0020     		movs	r0, #0
 184              	.LVL10:
 286:/Library/DaisyToolchain/0.2.0/arm/arm-none-eabi/include/c++/10.3.1/bits/std_function.h **** 
 185              		.loc 1 286 7 view .LVU35
 186 0008 7047     		bx	lr
 187              	.LVL11:
 188              	.L4:
 189              	.LBB493:
 190              	.LBI493:
 181:/Library/DaisyToolchain/0.2.0/arm/arm-none-eabi/include/c++/10.3.1/bits/std_function.h **** 		   _Manager_operation __op)
 191              		.loc 1 181 2 is_stmt 1 view .LVU36
 192              	.LBB494:
 184:/Library/DaisyToolchain/0.2.0/arm/arm-none-eabi/include/c++/10.3.1/bits/std_function.h **** 	    {
 193              		.loc 1 184 4 is_stmt 0 view .LVU37
 194 000a 022A     		cmp	r2, #2
 195              	.LVL12:
 196              	.LBB495:
 197              	.LBI495:
 150:/Library/DaisyToolchain/0.2.0/arm/arm-none-eabi/include/c++/10.3.1/bits/std_function.h **** 	{
 198              		.loc 1 150 2 is_stmt 1 view .LVU38
 150:/Library/DaisyToolchain/0.2.0/arm/arm-none-eabi/include/c++/10.3.1/bits/std_function.h **** 	{
ARM GAS  /var/folders/wz/z09yph4n0qj4t7mjxhl6ttn80000gn/T//ccNJmc12.s 			page 16


 199              		.loc 1 150 2 is_stmt 0 view .LVU39
 200              	.LBE495:
 201              	.LBE494:
 202              	.LBE493:
  88:/Library/DaisyToolchain/0.2.0/arm/arm-none-eabi/include/c++/10.3.1/bits/std_function.h **** 
 203              		.loc 1 88 37 is_stmt 1 view .LVU40
  87:/Library/DaisyToolchain/0.2.0/arm/arm-none-eabi/include/c++/10.3.1/bits/std_function.h ****     const void* _M_access() const { return &_M_pod_data[0]; }
 204              		.loc 1 87 37 view .LVU41
 205              		.file 5 "/Library/DaisyToolchain/0.2.0/arm/arm-none-eabi/include/c++/10.3.1/new"
   1:/Library/DaisyToolchain/0.2.0/arm/arm-none-eabi/include/c++/10.3.1/new **** // The -*- C++ -*- dynamic memory management header.
   2:/Library/DaisyToolchain/0.2.0/arm/arm-none-eabi/include/c++/10.3.1/new **** 
   3:/Library/DaisyToolchain/0.2.0/arm/arm-none-eabi/include/c++/10.3.1/new **** // Copyright (C) 1994-2020 Free Software Foundation, Inc.
   4:/Library/DaisyToolchain/0.2.0/arm/arm-none-eabi/include/c++/10.3.1/new **** 
   5:/Library/DaisyToolchain/0.2.0/arm/arm-none-eabi/include/c++/10.3.1/new **** // This file is part of GCC.
   6:/Library/DaisyToolchain/0.2.0/arm/arm-none-eabi/include/c++/10.3.1/new **** //
   7:/Library/DaisyToolchain/0.2.0/arm/arm-none-eabi/include/c++/10.3.1/new **** // GCC is free software; you can redistribute it and/or modify
   8:/Library/DaisyToolchain/0.2.0/arm/arm-none-eabi/include/c++/10.3.1/new **** // it under the terms of the GNU General Public License as published by
   9:/Library/DaisyToolchain/0.2.0/arm/arm-none-eabi/include/c++/10.3.1/new **** // the Free Software Foundation; either version 3, or (at your option)
  10:/Library/DaisyToolchain/0.2.0/arm/arm-none-eabi/include/c++/10.3.1/new **** // any later version.
  11:/Library/DaisyToolchain/0.2.0/arm/arm-none-eabi/include/c++/10.3.1/new **** // 
  12:/Library/DaisyToolchain/0.2.0/arm/arm-none-eabi/include/c++/10.3.1/new **** // GCC is distributed in the hope that it will be useful,
  13:/Library/DaisyToolchain/0.2.0/arm/arm-none-eabi/include/c++/10.3.1/new **** // but WITHOUT ANY WARRANTY; without even the implied warranty of
  14:/Library/DaisyToolchain/0.2.0/arm/arm-none-eabi/include/c++/10.3.1/new **** // MERCHANTABILITY or FITNESS FOR A PARTICULAR PURPOSE.  See the
  15:/Library/DaisyToolchain/0.2.0/arm/arm-none-eabi/include/c++/10.3.1/new **** // GNU General Public License for more details.
  16:/Library/DaisyToolchain/0.2.0/arm/arm-none-eabi/include/c++/10.3.1/new **** // 
  17:/Library/DaisyToolchain/0.2.0/arm/arm-none-eabi/include/c++/10.3.1/new **** // Under Section 7 of GPL version 3, you are granted additional
  18:/Library/DaisyToolchain/0.2.0/arm/arm-none-eabi/include/c++/10.3.1/new **** // permissions described in the GCC Runtime Library Exception, version
  19:/Library/DaisyToolchain/0.2.0/arm/arm-none-eabi/include/c++/10.3.1/new **** // 3.1, as published by the Free Software Foundation.
  20:/Library/DaisyToolchain/0.2.0/arm/arm-none-eabi/include/c++/10.3.1/new **** 
  21:/Library/DaisyToolchain/0.2.0/arm/arm-none-eabi/include/c++/10.3.1/new **** // You should have received a copy of the GNU General Public License and
  22:/Library/DaisyToolchain/0.2.0/arm/arm-none-eabi/include/c++/10.3.1/new **** // a copy of the GCC Runtime Library Exception along with this program;
  23:/Library/DaisyToolchain/0.2.0/arm/arm-none-eabi/include/c++/10.3.1/new **** // see the files COPYING3 and COPYING.RUNTIME respectively.  If not, see
  24:/Library/DaisyToolchain/0.2.0/arm/arm-none-eabi/include/c++/10.3.1/new **** // <http://www.gnu.org/licenses/>.
  25:/Library/DaisyToolchain/0.2.0/arm/arm-none-eabi/include/c++/10.3.1/new **** 
  26:/Library/DaisyToolchain/0.2.0/arm/arm-none-eabi/include/c++/10.3.1/new **** /** @file new
  27:/Library/DaisyToolchain/0.2.0/arm/arm-none-eabi/include/c++/10.3.1/new ****  *  This is a Standard C++ Library header.
  28:/Library/DaisyToolchain/0.2.0/arm/arm-none-eabi/include/c++/10.3.1/new ****  *
  29:/Library/DaisyToolchain/0.2.0/arm/arm-none-eabi/include/c++/10.3.1/new ****  *  The header @c new defines several functions to manage dynamic memory and
  30:/Library/DaisyToolchain/0.2.0/arm/arm-none-eabi/include/c++/10.3.1/new ****  *  handling memory allocation errors; see
  31:/Library/DaisyToolchain/0.2.0/arm/arm-none-eabi/include/c++/10.3.1/new ****  *  https://gcc.gnu.org/onlinedocs/libstdc++/manual/dynamic_memory.html
  32:/Library/DaisyToolchain/0.2.0/arm/arm-none-eabi/include/c++/10.3.1/new ****  *  for more.
  33:/Library/DaisyToolchain/0.2.0/arm/arm-none-eabi/include/c++/10.3.1/new ****  */
  34:/Library/DaisyToolchain/0.2.0/arm/arm-none-eabi/include/c++/10.3.1/new **** 
  35:/Library/DaisyToolchain/0.2.0/arm/arm-none-eabi/include/c++/10.3.1/new **** #ifndef _NEW
  36:/Library/DaisyToolchain/0.2.0/arm/arm-none-eabi/include/c++/10.3.1/new **** #define _NEW
  37:/Library/DaisyToolchain/0.2.0/arm/arm-none-eabi/include/c++/10.3.1/new **** 
  38:/Library/DaisyToolchain/0.2.0/arm/arm-none-eabi/include/c++/10.3.1/new **** #pragma GCC system_header
  39:/Library/DaisyToolchain/0.2.0/arm/arm-none-eabi/include/c++/10.3.1/new **** 
  40:/Library/DaisyToolchain/0.2.0/arm/arm-none-eabi/include/c++/10.3.1/new **** #include <bits/c++config.h>
  41:/Library/DaisyToolchain/0.2.0/arm/arm-none-eabi/include/c++/10.3.1/new **** #include <exception>
  42:/Library/DaisyToolchain/0.2.0/arm/arm-none-eabi/include/c++/10.3.1/new **** 
  43:/Library/DaisyToolchain/0.2.0/arm/arm-none-eabi/include/c++/10.3.1/new **** #pragma GCC visibility push(default)
  44:/Library/DaisyToolchain/0.2.0/arm/arm-none-eabi/include/c++/10.3.1/new **** 
  45:/Library/DaisyToolchain/0.2.0/arm/arm-none-eabi/include/c++/10.3.1/new **** extern "C++" {
  46:/Library/DaisyToolchain/0.2.0/arm/arm-none-eabi/include/c++/10.3.1/new **** 
  47:/Library/DaisyToolchain/0.2.0/arm/arm-none-eabi/include/c++/10.3.1/new **** namespace std 
  48:/Library/DaisyToolchain/0.2.0/arm/arm-none-eabi/include/c++/10.3.1/new **** {
ARM GAS  /var/folders/wz/z09yph4n0qj4t7mjxhl6ttn80000gn/T//ccNJmc12.s 			page 17


  49:/Library/DaisyToolchain/0.2.0/arm/arm-none-eabi/include/c++/10.3.1/new ****   /**
  50:/Library/DaisyToolchain/0.2.0/arm/arm-none-eabi/include/c++/10.3.1/new ****    *  @brief  Exception possibly thrown by @c new.
  51:/Library/DaisyToolchain/0.2.0/arm/arm-none-eabi/include/c++/10.3.1/new ****    *  @ingroup exceptions
  52:/Library/DaisyToolchain/0.2.0/arm/arm-none-eabi/include/c++/10.3.1/new ****    *
  53:/Library/DaisyToolchain/0.2.0/arm/arm-none-eabi/include/c++/10.3.1/new ****    *  @c bad_alloc (or classes derived from it) is used to report allocation
  54:/Library/DaisyToolchain/0.2.0/arm/arm-none-eabi/include/c++/10.3.1/new ****    *  errors from the throwing forms of @c new.  */
  55:/Library/DaisyToolchain/0.2.0/arm/arm-none-eabi/include/c++/10.3.1/new ****   class bad_alloc : public exception 
  56:/Library/DaisyToolchain/0.2.0/arm/arm-none-eabi/include/c++/10.3.1/new ****   {
  57:/Library/DaisyToolchain/0.2.0/arm/arm-none-eabi/include/c++/10.3.1/new ****   public:
  58:/Library/DaisyToolchain/0.2.0/arm/arm-none-eabi/include/c++/10.3.1/new ****     bad_alloc() throw() { }
  59:/Library/DaisyToolchain/0.2.0/arm/arm-none-eabi/include/c++/10.3.1/new **** 
  60:/Library/DaisyToolchain/0.2.0/arm/arm-none-eabi/include/c++/10.3.1/new **** #if __cplusplus >= 201103L
  61:/Library/DaisyToolchain/0.2.0/arm/arm-none-eabi/include/c++/10.3.1/new ****     bad_alloc(const bad_alloc&) = default;
  62:/Library/DaisyToolchain/0.2.0/arm/arm-none-eabi/include/c++/10.3.1/new ****     bad_alloc& operator=(const bad_alloc&) = default;
  63:/Library/DaisyToolchain/0.2.0/arm/arm-none-eabi/include/c++/10.3.1/new **** #endif
  64:/Library/DaisyToolchain/0.2.0/arm/arm-none-eabi/include/c++/10.3.1/new **** 
  65:/Library/DaisyToolchain/0.2.0/arm/arm-none-eabi/include/c++/10.3.1/new ****     // This declaration is not useless:
  66:/Library/DaisyToolchain/0.2.0/arm/arm-none-eabi/include/c++/10.3.1/new ****     // http://gcc.gnu.org/onlinedocs/gcc-3.0.2/gcc_6.html#SEC118
  67:/Library/DaisyToolchain/0.2.0/arm/arm-none-eabi/include/c++/10.3.1/new ****     virtual ~bad_alloc() throw();
  68:/Library/DaisyToolchain/0.2.0/arm/arm-none-eabi/include/c++/10.3.1/new **** 
  69:/Library/DaisyToolchain/0.2.0/arm/arm-none-eabi/include/c++/10.3.1/new ****     // See comment in eh_exception.cc.
  70:/Library/DaisyToolchain/0.2.0/arm/arm-none-eabi/include/c++/10.3.1/new ****     virtual const char* what() const throw();
  71:/Library/DaisyToolchain/0.2.0/arm/arm-none-eabi/include/c++/10.3.1/new ****   };
  72:/Library/DaisyToolchain/0.2.0/arm/arm-none-eabi/include/c++/10.3.1/new **** 
  73:/Library/DaisyToolchain/0.2.0/arm/arm-none-eabi/include/c++/10.3.1/new **** #if __cplusplus >= 201103L
  74:/Library/DaisyToolchain/0.2.0/arm/arm-none-eabi/include/c++/10.3.1/new ****   class bad_array_new_length : public bad_alloc
  75:/Library/DaisyToolchain/0.2.0/arm/arm-none-eabi/include/c++/10.3.1/new ****   {
  76:/Library/DaisyToolchain/0.2.0/arm/arm-none-eabi/include/c++/10.3.1/new ****   public:
  77:/Library/DaisyToolchain/0.2.0/arm/arm-none-eabi/include/c++/10.3.1/new ****     bad_array_new_length() throw() { }
  78:/Library/DaisyToolchain/0.2.0/arm/arm-none-eabi/include/c++/10.3.1/new **** 
  79:/Library/DaisyToolchain/0.2.0/arm/arm-none-eabi/include/c++/10.3.1/new ****     // This declaration is not useless:
  80:/Library/DaisyToolchain/0.2.0/arm/arm-none-eabi/include/c++/10.3.1/new ****     // http://gcc.gnu.org/onlinedocs/gcc-3.0.2/gcc_6.html#SEC118
  81:/Library/DaisyToolchain/0.2.0/arm/arm-none-eabi/include/c++/10.3.1/new ****     virtual ~bad_array_new_length() throw();
  82:/Library/DaisyToolchain/0.2.0/arm/arm-none-eabi/include/c++/10.3.1/new **** 
  83:/Library/DaisyToolchain/0.2.0/arm/arm-none-eabi/include/c++/10.3.1/new ****     // See comment in eh_exception.cc.
  84:/Library/DaisyToolchain/0.2.0/arm/arm-none-eabi/include/c++/10.3.1/new ****     virtual const char* what() const throw();
  85:/Library/DaisyToolchain/0.2.0/arm/arm-none-eabi/include/c++/10.3.1/new ****   };
  86:/Library/DaisyToolchain/0.2.0/arm/arm-none-eabi/include/c++/10.3.1/new **** #endif
  87:/Library/DaisyToolchain/0.2.0/arm/arm-none-eabi/include/c++/10.3.1/new **** 
  88:/Library/DaisyToolchain/0.2.0/arm/arm-none-eabi/include/c++/10.3.1/new **** #if __cpp_aligned_new
  89:/Library/DaisyToolchain/0.2.0/arm/arm-none-eabi/include/c++/10.3.1/new ****   enum class align_val_t: size_t {};
  90:/Library/DaisyToolchain/0.2.0/arm/arm-none-eabi/include/c++/10.3.1/new **** #endif
  91:/Library/DaisyToolchain/0.2.0/arm/arm-none-eabi/include/c++/10.3.1/new **** 
  92:/Library/DaisyToolchain/0.2.0/arm/arm-none-eabi/include/c++/10.3.1/new ****   struct nothrow_t
  93:/Library/DaisyToolchain/0.2.0/arm/arm-none-eabi/include/c++/10.3.1/new ****   {
  94:/Library/DaisyToolchain/0.2.0/arm/arm-none-eabi/include/c++/10.3.1/new **** #if __cplusplus >= 201103L
  95:/Library/DaisyToolchain/0.2.0/arm/arm-none-eabi/include/c++/10.3.1/new ****     explicit nothrow_t() = default;
  96:/Library/DaisyToolchain/0.2.0/arm/arm-none-eabi/include/c++/10.3.1/new **** #endif
  97:/Library/DaisyToolchain/0.2.0/arm/arm-none-eabi/include/c++/10.3.1/new ****   };
  98:/Library/DaisyToolchain/0.2.0/arm/arm-none-eabi/include/c++/10.3.1/new **** 
  99:/Library/DaisyToolchain/0.2.0/arm/arm-none-eabi/include/c++/10.3.1/new ****   extern const nothrow_t nothrow;
 100:/Library/DaisyToolchain/0.2.0/arm/arm-none-eabi/include/c++/10.3.1/new **** 
 101:/Library/DaisyToolchain/0.2.0/arm/arm-none-eabi/include/c++/10.3.1/new ****   /** If you write your own error handler to be called by @c new, it must
 102:/Library/DaisyToolchain/0.2.0/arm/arm-none-eabi/include/c++/10.3.1/new ****    *  be of this type.  */
 103:/Library/DaisyToolchain/0.2.0/arm/arm-none-eabi/include/c++/10.3.1/new ****   typedef void (*new_handler)();
 104:/Library/DaisyToolchain/0.2.0/arm/arm-none-eabi/include/c++/10.3.1/new **** 
 105:/Library/DaisyToolchain/0.2.0/arm/arm-none-eabi/include/c++/10.3.1/new ****   /// Takes a replacement handler as the argument, returns the
ARM GAS  /var/folders/wz/z09yph4n0qj4t7mjxhl6ttn80000gn/T//ccNJmc12.s 			page 18


 106:/Library/DaisyToolchain/0.2.0/arm/arm-none-eabi/include/c++/10.3.1/new ****   /// previous handler.
 107:/Library/DaisyToolchain/0.2.0/arm/arm-none-eabi/include/c++/10.3.1/new ****   new_handler set_new_handler(new_handler) throw();
 108:/Library/DaisyToolchain/0.2.0/arm/arm-none-eabi/include/c++/10.3.1/new **** 
 109:/Library/DaisyToolchain/0.2.0/arm/arm-none-eabi/include/c++/10.3.1/new **** #if __cplusplus >= 201103L
 110:/Library/DaisyToolchain/0.2.0/arm/arm-none-eabi/include/c++/10.3.1/new ****   /// Return the current new handler.
 111:/Library/DaisyToolchain/0.2.0/arm/arm-none-eabi/include/c++/10.3.1/new ****   new_handler get_new_handler() noexcept;
 112:/Library/DaisyToolchain/0.2.0/arm/arm-none-eabi/include/c++/10.3.1/new **** #endif
 113:/Library/DaisyToolchain/0.2.0/arm/arm-none-eabi/include/c++/10.3.1/new **** } // namespace std
 114:/Library/DaisyToolchain/0.2.0/arm/arm-none-eabi/include/c++/10.3.1/new **** 
 115:/Library/DaisyToolchain/0.2.0/arm/arm-none-eabi/include/c++/10.3.1/new **** //@{
 116:/Library/DaisyToolchain/0.2.0/arm/arm-none-eabi/include/c++/10.3.1/new **** /** These are replaceable signatures:
 117:/Library/DaisyToolchain/0.2.0/arm/arm-none-eabi/include/c++/10.3.1/new ****  *  - normal single new and delete (no arguments, throw @c bad_alloc on error)
 118:/Library/DaisyToolchain/0.2.0/arm/arm-none-eabi/include/c++/10.3.1/new ****  *  - normal array new and delete (same)
 119:/Library/DaisyToolchain/0.2.0/arm/arm-none-eabi/include/c++/10.3.1/new ****  *  - @c nothrow single new and delete (take a @c nothrow argument, return
 120:/Library/DaisyToolchain/0.2.0/arm/arm-none-eabi/include/c++/10.3.1/new ****  *    @c NULL on error)
 121:/Library/DaisyToolchain/0.2.0/arm/arm-none-eabi/include/c++/10.3.1/new ****  *  - @c nothrow array new and delete (same)
 122:/Library/DaisyToolchain/0.2.0/arm/arm-none-eabi/include/c++/10.3.1/new ****  *
 123:/Library/DaisyToolchain/0.2.0/arm/arm-none-eabi/include/c++/10.3.1/new ****  *  Placement new and delete signatures (take a memory address argument,
 124:/Library/DaisyToolchain/0.2.0/arm/arm-none-eabi/include/c++/10.3.1/new ****  *  does nothing) may not be replaced by a user's program.
 125:/Library/DaisyToolchain/0.2.0/arm/arm-none-eabi/include/c++/10.3.1/new **** */
 126:/Library/DaisyToolchain/0.2.0/arm/arm-none-eabi/include/c++/10.3.1/new **** _GLIBCXX_NODISCARD void* operator new(std::size_t) _GLIBCXX_THROW (std::bad_alloc)
 127:/Library/DaisyToolchain/0.2.0/arm/arm-none-eabi/include/c++/10.3.1/new ****   __attribute__((__externally_visible__));
 128:/Library/DaisyToolchain/0.2.0/arm/arm-none-eabi/include/c++/10.3.1/new **** _GLIBCXX_NODISCARD void* operator new[](std::size_t) _GLIBCXX_THROW (std::bad_alloc)
 129:/Library/DaisyToolchain/0.2.0/arm/arm-none-eabi/include/c++/10.3.1/new ****   __attribute__((__externally_visible__));
 130:/Library/DaisyToolchain/0.2.0/arm/arm-none-eabi/include/c++/10.3.1/new **** void operator delete(void*) _GLIBCXX_USE_NOEXCEPT
 131:/Library/DaisyToolchain/0.2.0/arm/arm-none-eabi/include/c++/10.3.1/new ****   __attribute__((__externally_visible__));
 132:/Library/DaisyToolchain/0.2.0/arm/arm-none-eabi/include/c++/10.3.1/new **** void operator delete[](void*) _GLIBCXX_USE_NOEXCEPT
 133:/Library/DaisyToolchain/0.2.0/arm/arm-none-eabi/include/c++/10.3.1/new ****   __attribute__((__externally_visible__));
 134:/Library/DaisyToolchain/0.2.0/arm/arm-none-eabi/include/c++/10.3.1/new **** #if __cpp_sized_deallocation
 135:/Library/DaisyToolchain/0.2.0/arm/arm-none-eabi/include/c++/10.3.1/new **** void operator delete(void*, std::size_t) _GLIBCXX_USE_NOEXCEPT
 136:/Library/DaisyToolchain/0.2.0/arm/arm-none-eabi/include/c++/10.3.1/new ****   __attribute__((__externally_visible__));
 137:/Library/DaisyToolchain/0.2.0/arm/arm-none-eabi/include/c++/10.3.1/new **** void operator delete[](void*, std::size_t) _GLIBCXX_USE_NOEXCEPT
 138:/Library/DaisyToolchain/0.2.0/arm/arm-none-eabi/include/c++/10.3.1/new ****   __attribute__((__externally_visible__));
 139:/Library/DaisyToolchain/0.2.0/arm/arm-none-eabi/include/c++/10.3.1/new **** #endif
 140:/Library/DaisyToolchain/0.2.0/arm/arm-none-eabi/include/c++/10.3.1/new **** _GLIBCXX_NODISCARD void* operator new(std::size_t, const std::nothrow_t&) _GLIBCXX_USE_NOEXCEPT
 141:/Library/DaisyToolchain/0.2.0/arm/arm-none-eabi/include/c++/10.3.1/new ****   __attribute__((__externally_visible__, __malloc__));
 142:/Library/DaisyToolchain/0.2.0/arm/arm-none-eabi/include/c++/10.3.1/new **** _GLIBCXX_NODISCARD void* operator new[](std::size_t, const std::nothrow_t&) _GLIBCXX_USE_NOEXCEPT
 143:/Library/DaisyToolchain/0.2.0/arm/arm-none-eabi/include/c++/10.3.1/new ****   __attribute__((__externally_visible__, __malloc__));
 144:/Library/DaisyToolchain/0.2.0/arm/arm-none-eabi/include/c++/10.3.1/new **** void operator delete(void*, const std::nothrow_t&) _GLIBCXX_USE_NOEXCEPT
 145:/Library/DaisyToolchain/0.2.0/arm/arm-none-eabi/include/c++/10.3.1/new ****   __attribute__((__externally_visible__));
 146:/Library/DaisyToolchain/0.2.0/arm/arm-none-eabi/include/c++/10.3.1/new **** void operator delete[](void*, const std::nothrow_t&) _GLIBCXX_USE_NOEXCEPT
 147:/Library/DaisyToolchain/0.2.0/arm/arm-none-eabi/include/c++/10.3.1/new ****   __attribute__((__externally_visible__));
 148:/Library/DaisyToolchain/0.2.0/arm/arm-none-eabi/include/c++/10.3.1/new **** #if __cpp_aligned_new
 149:/Library/DaisyToolchain/0.2.0/arm/arm-none-eabi/include/c++/10.3.1/new **** _GLIBCXX_NODISCARD void* operator new(std::size_t, std::align_val_t)
 150:/Library/DaisyToolchain/0.2.0/arm/arm-none-eabi/include/c++/10.3.1/new ****   __attribute__((__externally_visible__));
 151:/Library/DaisyToolchain/0.2.0/arm/arm-none-eabi/include/c++/10.3.1/new **** _GLIBCXX_NODISCARD void* operator new(std::size_t, std::align_val_t, const std::nothrow_t&)
 152:/Library/DaisyToolchain/0.2.0/arm/arm-none-eabi/include/c++/10.3.1/new ****   _GLIBCXX_USE_NOEXCEPT __attribute__((__externally_visible__, __malloc__));
 153:/Library/DaisyToolchain/0.2.0/arm/arm-none-eabi/include/c++/10.3.1/new **** void operator delete(void*, std::align_val_t)
 154:/Library/DaisyToolchain/0.2.0/arm/arm-none-eabi/include/c++/10.3.1/new ****   _GLIBCXX_USE_NOEXCEPT __attribute__((__externally_visible__));
 155:/Library/DaisyToolchain/0.2.0/arm/arm-none-eabi/include/c++/10.3.1/new **** void operator delete(void*, std::align_val_t, const std::nothrow_t&)
 156:/Library/DaisyToolchain/0.2.0/arm/arm-none-eabi/include/c++/10.3.1/new ****   _GLIBCXX_USE_NOEXCEPT __attribute__((__externally_visible__));
 157:/Library/DaisyToolchain/0.2.0/arm/arm-none-eabi/include/c++/10.3.1/new **** _GLIBCXX_NODISCARD void* operator new[](std::size_t, std::align_val_t)
 158:/Library/DaisyToolchain/0.2.0/arm/arm-none-eabi/include/c++/10.3.1/new ****   __attribute__((__externally_visible__));
 159:/Library/DaisyToolchain/0.2.0/arm/arm-none-eabi/include/c++/10.3.1/new **** _GLIBCXX_NODISCARD void* operator new[](std::size_t, std::align_val_t, const std::nothrow_t&)
 160:/Library/DaisyToolchain/0.2.0/arm/arm-none-eabi/include/c++/10.3.1/new ****   _GLIBCXX_USE_NOEXCEPT __attribute__((__externally_visible__, __malloc__));
 161:/Library/DaisyToolchain/0.2.0/arm/arm-none-eabi/include/c++/10.3.1/new **** void operator delete[](void*, std::align_val_t)
 162:/Library/DaisyToolchain/0.2.0/arm/arm-none-eabi/include/c++/10.3.1/new ****   _GLIBCXX_USE_NOEXCEPT __attribute__((__externally_visible__));
ARM GAS  /var/folders/wz/z09yph4n0qj4t7mjxhl6ttn80000gn/T//ccNJmc12.s 			page 19


 163:/Library/DaisyToolchain/0.2.0/arm/arm-none-eabi/include/c++/10.3.1/new **** void operator delete[](void*, std::align_val_t, const std::nothrow_t&)
 164:/Library/DaisyToolchain/0.2.0/arm/arm-none-eabi/include/c++/10.3.1/new ****   _GLIBCXX_USE_NOEXCEPT __attribute__((__externally_visible__));
 165:/Library/DaisyToolchain/0.2.0/arm/arm-none-eabi/include/c++/10.3.1/new **** #if __cpp_sized_deallocation
 166:/Library/DaisyToolchain/0.2.0/arm/arm-none-eabi/include/c++/10.3.1/new **** void operator delete(void*, std::size_t, std::align_val_t)
 167:/Library/DaisyToolchain/0.2.0/arm/arm-none-eabi/include/c++/10.3.1/new ****   _GLIBCXX_USE_NOEXCEPT __attribute__((__externally_visible__));
 168:/Library/DaisyToolchain/0.2.0/arm/arm-none-eabi/include/c++/10.3.1/new **** void operator delete[](void*, std::size_t, std::align_val_t)
 169:/Library/DaisyToolchain/0.2.0/arm/arm-none-eabi/include/c++/10.3.1/new ****   _GLIBCXX_USE_NOEXCEPT __attribute__((__externally_visible__));
 170:/Library/DaisyToolchain/0.2.0/arm/arm-none-eabi/include/c++/10.3.1/new **** #endif // __cpp_sized_deallocation
 171:/Library/DaisyToolchain/0.2.0/arm/arm-none-eabi/include/c++/10.3.1/new **** #endif // __cpp_aligned_new
 172:/Library/DaisyToolchain/0.2.0/arm/arm-none-eabi/include/c++/10.3.1/new **** 
 173:/Library/DaisyToolchain/0.2.0/arm/arm-none-eabi/include/c++/10.3.1/new **** // Default placement versions of operator new.
 174:/Library/DaisyToolchain/0.2.0/arm/arm-none-eabi/include/c++/10.3.1/new **** _GLIBCXX_NODISCARD inline void* operator new(std::size_t, void* __p) _GLIBCXX_USE_NOEXCEPT
 175:/Library/DaisyToolchain/0.2.0/arm/arm-none-eabi/include/c++/10.3.1/new **** { return __p; }
 206              		.loc 5 175 3 view .LVU42
 207              	.LBB499:
 208              	.LBB498:
 209              	.LBB497:
 210              	.LBB496:
 152:/Library/DaisyToolchain/0.2.0/arm/arm-none-eabi/include/c++/10.3.1/bits/std_function.h **** 	}
 211              		.loc 1 152 4 is_stmt 0 view .LVU43
 212 000c 04BF     		itt	eq
 213 000e 0B68     		ldreq	r3, [r1]
 214 0010 0360     		streq	r3, [r0]
 215              	.LVL13:
 152:/Library/DaisyToolchain/0.2.0/arm/arm-none-eabi/include/c++/10.3.1/bits/std_function.h **** 	}
 216              		.loc 1 152 4 view .LVU44
 217              	.LBE496:
 218              	.LBE497:
 197:/Library/DaisyToolchain/0.2.0/arm/arm-none-eabi/include/c++/10.3.1/bits/std_function.h **** 
 219              		.loc 1 197 8 view .LVU45
 220 0012 F8E7     		b	.L5
 221              	.LBE498:
 222              	.LBE499:
 223              		.cfi_endproc
 224              	.LFE6144:
 226              		.section	.text._ZNSt17_Function_handlerIFviEZN10PitchShift4initEPN5daisy9DaisySeedEEUliE0_E10_M_ma
 227              		.align	1
 228              		.syntax unified
 229              		.thumb
 230              		.thumb_func
 232              	_ZNSt17_Function_handlerIFviEZN10PitchShift4initEPN5daisy9DaisySeedEEUliE0_E10_M_managerERSt9_Any_d
 233              	.LVL14:
 234              	.LFB6137:
 268:/Library/DaisyToolchain/0.2.0/arm/arm-none-eabi/include/c++/10.3.1/bits/std_function.h **** 		 _Manager_operation __op)
 235              		.loc 1 268 7 is_stmt 1 view -0
 236              		.cfi_startproc
 237              		@ args = 0, pretend = 0, frame = 0
 238              		@ frame_needed = 0, uses_anonymous_args = 0
 239              		@ link register save eliminated.
 271:/Library/DaisyToolchain/0.2.0/arm/arm-none-eabi/include/c++/10.3.1/bits/std_function.h **** 	  {
 240              		.loc 1 271 2 is_stmt 0 view .LVU47
 241 0000 012A     		cmp	r2, #1
 242 0002 02D1     		bne	.L7
 243              	.LVL15:
  87:/Library/DaisyToolchain/0.2.0/arm/arm-none-eabi/include/c++/10.3.1/bits/std_function.h ****     const void* _M_access() const { return &_M_pod_data[0]; }
 244              		.loc 1 87 37 is_stmt 1 view .LVU48
 245              	.LBB516:
ARM GAS  /var/folders/wz/z09yph4n0qj4t7mjxhl6ttn80000gn/T//ccNJmc12.s 			page 20


 246              	.LBI516:
 136:/Library/DaisyToolchain/0.2.0/arm/arm-none-eabi/include/c++/10.3.1/bits/std_function.h **** 	{
 247              		.loc 1 136 2 view .LVU49
 248              	.LBB517:
 249              	.LBB518:
 250              	.LBI518:
  97:/Library/DaisyToolchain/0.2.0/arm/arm-none-eabi/include/c++/10.3.1/bits/std_function.h ****       { return *static_cast<const _Tp*>(_M_access()); }
 251              		.loc 1 97 7 view .LVU50
 252              	.LBB519:
 253              	.LBI519:
  88:/Library/DaisyToolchain/0.2.0/arm/arm-none-eabi/include/c++/10.3.1/bits/std_function.h **** 
 254              		.loc 1 88 17 view .LVU51
 255              	.LBB520:
  88:/Library/DaisyToolchain/0.2.0/arm/arm-none-eabi/include/c++/10.3.1/bits/std_function.h **** 
 256              		.loc 1 88 37 view .LVU52
  88:/Library/DaisyToolchain/0.2.0/arm/arm-none-eabi/include/c++/10.3.1/bits/std_function.h **** 
 257              		.loc 1 88 37 is_stmt 0 view .LVU53
 258              	.LBE520:
 259              	.LBE519:
 260              	.LBE518:
 261              	.LBE517:
 262              	.LBE516:
 279:/Library/DaisyToolchain/0.2.0/arm/arm-none-eabi/include/c++/10.3.1/bits/std_function.h **** 	    break;
 263              		.loc 1 279 36 view .LVU54
 264 0004 0160     		str	r1, [r0]
 265              	.LVL16:
 266              	.L8:
 286:/Library/DaisyToolchain/0.2.0/arm/arm-none-eabi/include/c++/10.3.1/bits/std_function.h **** 
 267              		.loc 1 286 7 view .LVU55
 268 0006 0020     		movs	r0, #0
 269              	.LVL17:
 286:/Library/DaisyToolchain/0.2.0/arm/arm-none-eabi/include/c++/10.3.1/bits/std_function.h **** 
 270              		.loc 1 286 7 view .LVU56
 271 0008 7047     		bx	lr
 272              	.LVL18:
 273              	.L7:
 274              	.LBB521:
 275              	.LBI521:
 181:/Library/DaisyToolchain/0.2.0/arm/arm-none-eabi/include/c++/10.3.1/bits/std_function.h **** 		   _Manager_operation __op)
 276              		.loc 1 181 2 is_stmt 1 view .LVU57
 277              	.LBB522:
 184:/Library/DaisyToolchain/0.2.0/arm/arm-none-eabi/include/c++/10.3.1/bits/std_function.h **** 	    {
 278              		.loc 1 184 4 is_stmt 0 view .LVU58
 279 000a 022A     		cmp	r2, #2
 280              	.LVL19:
 281              	.LBB523:
 282              	.LBI523:
 150:/Library/DaisyToolchain/0.2.0/arm/arm-none-eabi/include/c++/10.3.1/bits/std_function.h **** 	{
 283              		.loc 1 150 2 is_stmt 1 view .LVU59
 150:/Library/DaisyToolchain/0.2.0/arm/arm-none-eabi/include/c++/10.3.1/bits/std_function.h **** 	{
 284              		.loc 1 150 2 is_stmt 0 view .LVU60
 285              	.LBE523:
 286              	.LBE522:
 287              	.LBE521:
  88:/Library/DaisyToolchain/0.2.0/arm/arm-none-eabi/include/c++/10.3.1/bits/std_function.h **** 
 288              		.loc 1 88 37 is_stmt 1 view .LVU61
  87:/Library/DaisyToolchain/0.2.0/arm/arm-none-eabi/include/c++/10.3.1/bits/std_function.h ****     const void* _M_access() const { return &_M_pod_data[0]; }
ARM GAS  /var/folders/wz/z09yph4n0qj4t7mjxhl6ttn80000gn/T//ccNJmc12.s 			page 21


 289              		.loc 1 87 37 view .LVU62
 290              		.loc 5 175 3 view .LVU63
 291              	.LBB527:
 292              	.LBB526:
 293              	.LBB525:
 294              	.LBB524:
 152:/Library/DaisyToolchain/0.2.0/arm/arm-none-eabi/include/c++/10.3.1/bits/std_function.h **** 	}
 295              		.loc 1 152 4 is_stmt 0 view .LVU64
 296 000c 04BF     		itt	eq
 297 000e 0B68     		ldreq	r3, [r1]
 298 0010 0360     		streq	r3, [r0]
 299              	.LVL20:
 152:/Library/DaisyToolchain/0.2.0/arm/arm-none-eabi/include/c++/10.3.1/bits/std_function.h **** 	}
 300              		.loc 1 152 4 view .LVU65
 301              	.LBE524:
 302              	.LBE525:
 197:/Library/DaisyToolchain/0.2.0/arm/arm-none-eabi/include/c++/10.3.1/bits/std_function.h **** 
 303              		.loc 1 197 8 view .LVU66
 304 0012 F8E7     		b	.L8
 305              	.LBE526:
 306              	.LBE527:
 307              		.cfi_endproc
 308              	.LFE6137:
 310              		.section	.text._ZNSt17_Function_handlerIFvfEZN10PitchShift4initEPN5daisy9DaisySeedEEUlfE_E10_M_man
 311              		.align	1
 312              		.syntax unified
 313              		.thumb
 314              		.thumb_func
 316              	_ZNSt17_Function_handlerIFvfEZN10PitchShift4initEPN5daisy9DaisySeedEEUlfE_E10_M_managerERSt9_Any_da
 317              	.LVL21:
 318              	.LFB6129:
 268:/Library/DaisyToolchain/0.2.0/arm/arm-none-eabi/include/c++/10.3.1/bits/std_function.h **** 		 _Manager_operation __op)
 319              		.loc 1 268 7 is_stmt 1 view -0
 320              		.cfi_startproc
 321              		@ args = 0, pretend = 0, frame = 0
 322              		@ frame_needed = 0, uses_anonymous_args = 0
 323              		@ link register save eliminated.
 271:/Library/DaisyToolchain/0.2.0/arm/arm-none-eabi/include/c++/10.3.1/bits/std_function.h **** 	  {
 324              		.loc 1 271 2 is_stmt 0 view .LVU68
 325 0000 012A     		cmp	r2, #1
 326 0002 02D1     		bne	.L10
 327              	.LVL22:
  87:/Library/DaisyToolchain/0.2.0/arm/arm-none-eabi/include/c++/10.3.1/bits/std_function.h ****     const void* _M_access() const { return &_M_pod_data[0]; }
 328              		.loc 1 87 37 is_stmt 1 view .LVU69
 329              	.LBB544:
 330              	.LBI544:
 136:/Library/DaisyToolchain/0.2.0/arm/arm-none-eabi/include/c++/10.3.1/bits/std_function.h **** 	{
 331              		.loc 1 136 2 view .LVU70
 332              	.LBB545:
 333              	.LBB546:
 334              	.LBI546:
  97:/Library/DaisyToolchain/0.2.0/arm/arm-none-eabi/include/c++/10.3.1/bits/std_function.h ****       { return *static_cast<const _Tp*>(_M_access()); }
 335              		.loc 1 97 7 view .LVU71
 336              	.LBB547:
 337              	.LBI547:
  88:/Library/DaisyToolchain/0.2.0/arm/arm-none-eabi/include/c++/10.3.1/bits/std_function.h **** 
 338              		.loc 1 88 17 view .LVU72
ARM GAS  /var/folders/wz/z09yph4n0qj4t7mjxhl6ttn80000gn/T//ccNJmc12.s 			page 22


 339              	.LBB548:
  88:/Library/DaisyToolchain/0.2.0/arm/arm-none-eabi/include/c++/10.3.1/bits/std_function.h **** 
 340              		.loc 1 88 37 view .LVU73
  88:/Library/DaisyToolchain/0.2.0/arm/arm-none-eabi/include/c++/10.3.1/bits/std_function.h **** 
 341              		.loc 1 88 37 is_stmt 0 view .LVU74
 342              	.LBE548:
 343              	.LBE547:
 344              	.LBE546:
 345              	.LBE545:
 346              	.LBE544:
 279:/Library/DaisyToolchain/0.2.0/arm/arm-none-eabi/include/c++/10.3.1/bits/std_function.h **** 	    break;
 347              		.loc 1 279 36 view .LVU75
 348 0004 0160     		str	r1, [r0]
 349              	.LVL23:
 350              	.L11:
 286:/Library/DaisyToolchain/0.2.0/arm/arm-none-eabi/include/c++/10.3.1/bits/std_function.h **** 
 351              		.loc 1 286 7 view .LVU76
 352 0006 0020     		movs	r0, #0
 353              	.LVL24:
 286:/Library/DaisyToolchain/0.2.0/arm/arm-none-eabi/include/c++/10.3.1/bits/std_function.h **** 
 354              		.loc 1 286 7 view .LVU77
 355 0008 7047     		bx	lr
 356              	.LVL25:
 357              	.L10:
 358              	.LBB549:
 359              	.LBI549:
 181:/Library/DaisyToolchain/0.2.0/arm/arm-none-eabi/include/c++/10.3.1/bits/std_function.h **** 		   _Manager_operation __op)
 360              		.loc 1 181 2 is_stmt 1 view .LVU78
 361              	.LBB550:
 184:/Library/DaisyToolchain/0.2.0/arm/arm-none-eabi/include/c++/10.3.1/bits/std_function.h **** 	    {
 362              		.loc 1 184 4 is_stmt 0 view .LVU79
 363 000a 022A     		cmp	r2, #2
 364              	.LVL26:
 365              	.LBB551:
 366              	.LBI551:
 150:/Library/DaisyToolchain/0.2.0/arm/arm-none-eabi/include/c++/10.3.1/bits/std_function.h **** 	{
 367              		.loc 1 150 2 is_stmt 1 view .LVU80
 150:/Library/DaisyToolchain/0.2.0/arm/arm-none-eabi/include/c++/10.3.1/bits/std_function.h **** 	{
 368              		.loc 1 150 2 is_stmt 0 view .LVU81
 369              	.LBE551:
 370              	.LBE550:
 371              	.LBE549:
  88:/Library/DaisyToolchain/0.2.0/arm/arm-none-eabi/include/c++/10.3.1/bits/std_function.h **** 
 372              		.loc 1 88 37 is_stmt 1 view .LVU82
  87:/Library/DaisyToolchain/0.2.0/arm/arm-none-eabi/include/c++/10.3.1/bits/std_function.h ****     const void* _M_access() const { return &_M_pod_data[0]; }
 373              		.loc 1 87 37 view .LVU83
 374              		.loc 5 175 3 view .LVU84
 375              	.LBB555:
 376              	.LBB554:
 377              	.LBB553:
 378              	.LBB552:
 152:/Library/DaisyToolchain/0.2.0/arm/arm-none-eabi/include/c++/10.3.1/bits/std_function.h **** 	}
 379              		.loc 1 152 4 is_stmt 0 view .LVU85
 380 000c 04BF     		itt	eq
 381 000e 0B68     		ldreq	r3, [r1]
 382 0010 0360     		streq	r3, [r0]
 383              	.LVL27:
ARM GAS  /var/folders/wz/z09yph4n0qj4t7mjxhl6ttn80000gn/T//ccNJmc12.s 			page 23


 152:/Library/DaisyToolchain/0.2.0/arm/arm-none-eabi/include/c++/10.3.1/bits/std_function.h **** 	}
 384              		.loc 1 152 4 view .LVU86
 385              	.LBE552:
 386              	.LBE553:
 197:/Library/DaisyToolchain/0.2.0/arm/arm-none-eabi/include/c++/10.3.1/bits/std_function.h **** 
 387              		.loc 1 197 8 view .LVU87
 388 0012 F8E7     		b	.L11
 389              	.LBE554:
 390              	.LBE555:
 391              		.cfi_endproc
 392              	.LFE6129:
 394              		.section	.text._ZN7daisysp12PitchShifter16SetTranspositionERKf.isra.0,"ax",%progbits
 395              		.align	1
 396              		.syntax unified
 397              		.thumb
 398              		.thumb_func
 400              	_ZN7daisysp12PitchShifter16SetTranspositionERKf.isra.0:
 401              	.LVL28:
 402              	.LFB6346:
 140:../../../DaisySP//Source/Effects/pitchshifter.h ****     {
 403              		.loc 4 140 10 is_stmt 1 view -0
 404              		.cfi_startproc
 405              		@ args = 0, pretend = 0, frame = 8
 406              		@ frame_needed = 0, uses_anonymous_args = 0
 142:../../../DaisySP//Source/Effects/pitchshifter.h ****         uint8_t idx;
 407              		.loc 4 142 9 view .LVU89
 143:../../../DaisySP//Source/Effects/pitchshifter.h ****         if(transpose_ != transpose || force_recalc_)
 408              		.loc 4 143 9 view .LVU90
 144:../../../DaisySP//Source/Effects/pitchshifter.h ****         {
 409              		.loc 4 144 9 view .LVU91
 140:../../../DaisySP//Source/Effects/pitchshifter.h ****     {
 410              		.loc 4 140 10 is_stmt 0 view .LVU92
 411 0000 73B5     		push	{r0, r1, r4, r5, r6, lr}
 412              		.cfi_def_cfa_offset 24
 413              		.cfi_offset 4, -16
 414              		.cfi_offset 5, -12
 415              		.cfi_offset 6, -8
 416              		.cfi_offset 14, -4
 144:../../../DaisySP//Source/Effects/pitchshifter.h ****         {
 417              		.loc 4 144 12 view .LVU93
 418 0002 00F58044 		add	r4, r0, #16384
 140:../../../DaisySP//Source/Effects/pitchshifter.h ****     {
 419              		.loc 4 140 10 view .LVU94
 420 0006 0546     		mov	r5, r0
 144:../../../DaisySP//Source/Effects/pitchshifter.h ****         {
 421              		.loc 4 144 12 view .LVU95
 422 0008 04F53663 		add	r3, r4, #2912
 144:../../../DaisySP//Source/Effects/pitchshifter.h ****         {
 423              		.loc 4 144 9 view .LVU96
 424 000c D3ED007A 		vldr.32	s15, [r3]
 425 0010 F4EE407A 		vcmp.f32	s15, s0
 426 0014 F1EE10FA 		vmrs	APSR_nzcv, FPSCR
 427 0018 03D1     		bne	.L13
 144:../../../DaisySP//Source/Effects/pitchshifter.h ****         {
 428              		.loc 4 144 36 view .LVU97
 429 001a 94F8243B 		ldrb	r3, [r4, #2852]	@ zero_extendqisi2
 430 001e 002B     		cmp	r3, #0
ARM GAS  /var/folders/wz/z09yph4n0qj4t7mjxhl6ttn80000gn/T//ccNJmc12.s 			page 24


 431 0020 62D0     		beq	.L12
 432              	.L13:
 146:../../../DaisySP//Source/Effects/pitchshifter.h ****             idx        = (uint8_t)fabsf(transpose);
 433              		.loc 4 146 13 is_stmt 1 view .LVU98
 147:../../../DaisySP//Source/Effects/pitchshifter.h ****             ratio      = semitone_ratios_[idx % 12];
 434              		.loc 4 147 40 is_stmt 0 view .LVU99
 435 0022 F0EEC07A 		vabs.f32	s15, s0
 146:../../../DaisySP//Source/Effects/pitchshifter.h ****             idx        = (uint8_t)fabsf(transpose);
 436              		.loc 4 146 24 view .LVU100
 437 0026 04F53663 		add	r3, r4, #2912
 149:../../../DaisySP//Source/Effects/pitchshifter.h ****             if(transpose > 0.0f)
 438              		.loc 4 149 49 view .LVU101
 439 002a B2EE086A 		vmov.f32	s12, #1.2e+1
 148:../../../DaisySP//Source/Effects/pitchshifter.h ****             ratio *= (uint8_t)(fabsf(transpose) / 12) + 1;
 440              		.loc 4 148 47 view .LVU102
 441 002e 0C22     		movs	r2, #12
 146:../../../DaisySP//Source/Effects/pitchshifter.h ****             idx        = (uint8_t)fabsf(transpose);
 442              		.loc 4 146 24 view .LVU103
 443 0030 83ED000A 		vstr.32	s0, [r3]
 147:../../../DaisySP//Source/Effects/pitchshifter.h ****             ratio      = semitone_ratios_[idx % 12];
 444              		.loc 4 147 13 is_stmt 1 view .LVU104
 445              	.LVL29:
 148:../../../DaisySP//Source/Effects/pitchshifter.h ****             ratio *= (uint8_t)(fabsf(transpose) / 12) + 1;
 446              		.loc 4 148 13 view .LVU105
 150:../../../DaisySP//Source/Effects/pitchshifter.h ****             {
 447              		.loc 4 150 13 is_stmt 0 view .LVU106
 448 0034 B5EEC00A 		vcmpe.f32	s0, #0
 147:../../../DaisySP//Source/Effects/pitchshifter.h ****             ratio      = semitone_ratios_[idx % 12];
 449              		.loc 4 147 24 view .LVU107
 450 0038 BCEEE77A 		vcvt.u32.f32	s14, s15
 158:../../../DaisySP//Source/Effects/pitchshifter.h ****             if(mod_freq_ < 0.0f)
 451              		.loc 4 158 23 view .LVU108
 452 003c 9FED2B0A 		vldr.32	s0, .L21
 453 0040 04F61C36 		addw	r6, r4, #2844
 163:../../../DaisySP//Source/Effects/pitchshifter.h ****             phs_[1].SetFreq(mod_freq_);
 454              		.loc 4 163 28 view .LVU109
 455 0044 05F59640 		add	r0, r5, #19200
 456              	.LVL30:
 150:../../../DaisySP//Source/Effects/pitchshifter.h ****             {
 457              		.loc 4 150 13 view .LVU110
 458 0048 F1EE10FA 		vmrs	APSR_nzcv, FPSCR
 147:../../../DaisySP//Source/Effects/pitchshifter.h ****             ratio      = semitone_ratios_[idx % 12];
 459              		.loc 4 147 24 view .LVU111
 460 004c 8DED017A 		vstr.32	s14, [sp, #4]	@ int
 149:../../../DaisySP//Source/Effects/pitchshifter.h ****             if(transpose > 0.0f)
 461              		.loc 4 149 49 view .LVU112
 462 0050 87EE867A 		vdiv.f32	s14, s15, s12
 148:../../../DaisySP//Source/Effects/pitchshifter.h ****             ratio *= (uint8_t)(fabsf(transpose) / 12) + 1;
 463              		.loc 4 148 47 view .LVU113
 464 0054 9DF80430 		ldrb	r3, [sp, #4]	@ zero_extendqisi2
 163:../../../DaisySP//Source/Effects/pitchshifter.h ****             phs_[1].SetFreq(mod_freq_);
 465              		.loc 4 163 28 view .LVU114
 466 0058 00F13000 		add	r0, r0, #48
 148:../../../DaisySP//Source/Effects/pitchshifter.h ****             ratio *= (uint8_t)(fabsf(transpose) / 12) + 1;
 467              		.loc 4 148 47 view .LVU115
 468 005c B3FBF2F1 		udiv	r1, r3, r2
 469 0060 02FB1133 		mls	r3, r2, r1, r3
ARM GAS  /var/folders/wz/z09yph4n0qj4t7mjxhl6ttn80000gn/T//ccNJmc12.s 			page 25


 148:../../../DaisySP//Source/Effects/pitchshifter.h ****             ratio *= (uint8_t)(fabsf(transpose) / 12) + 1;
 470              		.loc 4 148 24 view .LVU116
 471 0064 41F2E222 		movw	r2, #4834
 472 0068 52FA83F3 		uxtab	r3, r2, r3
 473 006c 05EB8303 		add	r3, r5, r3, lsl #2
 149:../../../DaisySP//Source/Effects/pitchshifter.h ****             if(transpose > 0.0f)
 474              		.loc 4 149 22 view .LVU117
 475 0070 FCEEC77A 		vcvt.u32.f32	s15, s14
 476              	.LVL31:
 148:../../../DaisySP//Source/Effects/pitchshifter.h ****             ratio *= (uint8_t)(fabsf(transpose) / 12) + 1;
 477              		.loc 4 148 24 view .LVU118
 478 0074 D3ED006A 		vldr.32	s13, [r3]
 479              	.LVL32:
 149:../../../DaisySP//Source/Effects/pitchshifter.h ****             if(transpose > 0.0f)
 480              		.loc 4 149 13 is_stmt 1 view .LVU119
 150:../../../DaisySP//Source/Effects/pitchshifter.h ****             {
 481              		.loc 4 150 13 view .LVU120
 482 0078 CCBF     		ite	gt
 483 007a 0123     		movgt	r3, #1
 484 007c 0023     		movle	r3, #0
 158:../../../DaisySP//Source/Effects/pitchshifter.h ****             if(mod_freq_ < 0.0f)
 485              		.loc 4 158 33 is_stmt 0 view .LVU121
 486 007e BFEE007A 		vmov.f32	s14, #-1.0e+0
 150:../../../DaisySP//Source/Effects/pitchshifter.h ****             {
 487              		.loc 4 150 13 view .LVU122
 488 0082 84F82C3B 		strb	r3, [r4, #2860]
 158:../../../DaisySP//Source/Effects/pitchshifter.h ****             if(mod_freq_ < 0.0f)
 489              		.loc 4 158 13 is_stmt 1 view .LVU123
 149:../../../DaisySP//Source/Effects/pitchshifter.h ****             if(transpose > 0.0f)
 490              		.loc 4 149 22 is_stmt 0 view .LVU124
 491 0086 CDED017A 		vstr.32	s15, [sp, #4]	@ int
 492 008a 9DF80430 		ldrb	r3, [sp, #4]	@ zero_extendqisi2
 149:../../../DaisySP//Source/Effects/pitchshifter.h ****             if(transpose > 0.0f)
 493              		.loc 4 149 55 view .LVU125
 494 008e 0133     		adds	r3, r3, #1
 149:../../../DaisySP//Source/Effects/pitchshifter.h ****             if(transpose > 0.0f)
 495              		.loc 4 149 19 view .LVU126
 496 0090 07EE903A 		vmov	s15, r3	@ int
 158:../../../DaisySP//Source/Effects/pitchshifter.h ****             if(mod_freq_ < 0.0f)
 497              		.loc 4 158 43 view .LVU127
 498 0094 04F62833 		addw	r3, r4, #2856
 149:../../../DaisySP//Source/Effects/pitchshifter.h ****             if(transpose > 0.0f)
 499              		.loc 4 149 19 view .LVU128
 500 0098 F8EEE77A 		vcvt.f32.s32	s15, s15
 158:../../../DaisySP//Source/Effects/pitchshifter.h ****             if(mod_freq_ < 0.0f)
 501              		.loc 4 158 33 view .LVU129
 502 009c A6EEA77A 		vfma.f32	s14, s13, s15
 158:../../../DaisySP//Source/Effects/pitchshifter.h ****             if(mod_freq_ < 0.0f)
 503              		.loc 4 158 41 view .LVU130
 504 00a0 D3ED007A 		vldr.32	s15, [r3]
 158:../../../DaisySP//Source/Effects/pitchshifter.h ****             if(mod_freq_ < 0.0f)
 505              		.loc 4 158 48 view .LVU131
 506 00a4 D4F8203B 		ldr	r3, [r4, #2848]
 158:../../../DaisySP//Source/Effects/pitchshifter.h ****             if(mod_freq_ < 0.0f)
 507              		.loc 4 158 41 view .LVU132
 508 00a8 67EE277A 		vmul.f32	s15, s14, s15
 158:../../../DaisySP//Source/Effects/pitchshifter.h ****             if(mod_freq_ < 0.0f)
ARM GAS  /var/folders/wz/z09yph4n0qj4t7mjxhl6ttn80000gn/T//ccNJmc12.s 			page 26


 509              		.loc 4 158 48 view .LVU133
 510 00ac 07EE103A 		vmov	s14, r3	@ int
 511 00b0 B8EE477A 		vcvt.f32.u32	s14, s14
 512 00b4 C7EE876A 		vdiv.f32	s13, s15, s14
 159:../../../DaisySP//Source/Effects/pitchshifter.h ****             {
 513              		.loc 4 159 13 is_stmt 1 view .LVU134
 158:../../../DaisySP//Source/Effects/pitchshifter.h ****             if(mod_freq_ < 0.0f)
 514              		.loc 4 158 23 is_stmt 0 view .LVU135
 515 00b8 F5EEC06A 		vcmpe.f32	s13, #0
 516 00bc F1EE10FA 		vmrs	APSR_nzcv, FPSCR
 517 00c0 58BF     		it	pl
 518 00c2 B0EE660A 		vmovpl.f32	s0, s13
 519 00c6 86ED000A 		vstr.32	s0, [r6]
 163:../../../DaisySP//Source/Effects/pitchshifter.h ****             phs_[1].SetFreq(mod_freq_);
 520              		.loc 4 163 13 is_stmt 1 view .LVU136
 163:../../../DaisySP//Source/Effects/pitchshifter.h ****             phs_[1].SetFreq(mod_freq_);
 521              		.loc 4 163 28 is_stmt 0 view .LVU137
 522 00ca FFF7FEFF 		bl	_ZN7daisysp6Phasor7SetFreqEf
 523              	.LVL33:
 164:../../../DaisySP//Source/Effects/pitchshifter.h ****             if(force_recalc_)
 524              		.loc 4 164 13 is_stmt 1 view .LVU138
 164:../../../DaisySP//Source/Effects/pitchshifter.h ****             if(force_recalc_)
 525              		.loc 4 164 28 is_stmt 0 view .LVU139
 526 00ce 05F59640 		add	r0, r5, #19200
 527 00d2 96ED000A 		vldr.32	s0, [r6]
 528 00d6 4030     		adds	r0, r0, #64
 529 00d8 FFF7FEFF 		bl	_ZN7daisysp6Phasor7SetFreqEf
 530              	.LVL34:
 165:../../../DaisySP//Source/Effects/pitchshifter.h ****             {
 531              		.loc 4 165 13 is_stmt 1 view .LVU140
 532 00dc 94F8243B 		ldrb	r3, [r4, #2852]	@ zero_extendqisi2
 533 00e0 13B1     		cbz	r3, .L12
 167:../../../DaisySP//Source/Effects/pitchshifter.h ****             }
 534              		.loc 4 167 17 view .LVU141
 167:../../../DaisySP//Source/Effects/pitchshifter.h ****             }
 535              		.loc 4 167 31 is_stmt 0 view .LVU142
 536 00e2 0023     		movs	r3, #0
 537 00e4 84F8243B 		strb	r3, [r4, #2852]
 538              	.L12:
 170:../../../DaisySP//Source/Effects/pitchshifter.h **** 
 539              		.loc 4 170 5 view .LVU143
 540 00e8 02B0     		add	sp, sp, #8
 541              		.cfi_def_cfa_offset 16
 542              		@ sp needed
 543 00ea 70BD     		pop	{r4, r5, r6, pc}
 544              	.LVL35:
 545              	.L22:
 170:../../../DaisySP//Source/Effects/pitchshifter.h **** 
 546              		.loc 4 170 5 view .LVU144
 547              		.align	2
 548              	.L21:
 549 00ec 00000000 		.word	0
 550              		.cfi_endproc
 551              	.LFE6346:
 553              		.section	.text._ZNSt17_Function_handlerIFviEZN10PitchShift4initEPN5daisy9DaisySeedEEUliE0_E9_M_inv
 554              		.align	1
 555              		.syntax unified
ARM GAS  /var/folders/wz/z09yph4n0qj4t7mjxhl6ttn80000gn/T//ccNJmc12.s 			page 27


 556              		.thumb
 557              		.thumb_func
 559              	_ZNSt17_Function_handlerIFviEZN10PitchShift4initEPN5daisy9DaisySeedEEUliE0_E9_M_invokeERKSt9_Any_da
 560              	.LVL36:
 561              	.LFB6135:
 289:/Library/DaisyToolchain/0.2.0/arm/arm-none-eabi/include/c++/10.3.1/bits/std_function.h ****       {
 562              		.loc 1 289 7 is_stmt 1 view -0
 563              		.cfi_startproc
 564              		@ args = 0, pretend = 0, frame = 0
 565              		@ frame_needed = 0, uses_anonymous_args = 0
 566              		@ link register save eliminated.
  88:/Library/DaisyToolchain/0.2.0/arm/arm-none-eabi/include/c++/10.3.1/bits/std_function.h **** 
 567              		.loc 1 88 37 view .LVU146
  15:DSP/FX/PitchShift.cpp ****     rand.init(seed, 0, 1, LINEAR, ChannelIDs::AMP4, [this] (float r) { shifter.SetFun(r); });
 568              		.loc 3 15 78 view .LVU147
  15:DSP/FX/PitchShift.cpp ****     rand.init(seed, 0, 1, LINEAR, ChannelIDs::AMP4, [this] (float r) { shifter.SetFun(r); });
 569              		.loc 3 15 102 is_stmt 0 view .LVU148
 570 0000 91ED000A 		vldr.32	s0, [r1]	@ int
 571 0004 0068     		ldr	r0, [r0]
 572              	.LVL37:
  15:DSP/FX/PitchShift.cpp ****     rand.init(seed, 0, 1, LINEAR, ChannelIDs::AMP4, [this] (float r) { shifter.SetFun(r); });
 573              		.loc 3 15 102 view .LVU149
 574 0006 B8EEC00A 		vcvt.f32.s32	s0, s0
 575 000a 2030     		adds	r0, r0, #32
 576 000c FFF7FEBF 		b	_ZN7daisysp12PitchShifter16SetTranspositionERKf.isra.0
 577              	.LVL38:
  15:DSP/FX/PitchShift.cpp ****     rand.init(seed, 0, 1, LINEAR, ChannelIDs::AMP4, [this] (float r) { shifter.SetFun(r); });
 578              		.loc 3 15 102 view .LVU150
 579              		.cfi_endproc
 580              	.LFE6135:
 582              		.section	.text._ZN7daisysp6myrandEv,"axG",%progbits,_ZN7daisysp6myrandEv,comdat
 583              		.align	1
 584              		.weak	_ZN7daisysp6myrandEv
 585              		.syntax unified
 586              		.thumb
 587              		.thumb_func
 589              	_ZN7daisysp6myrandEv:
 590              	.LFB4440:
  33:../../../DaisySP//Source/Effects/pitchshifter.h ****     static uint32_t seed = 1;
 591              		.loc 4 33 1 is_stmt 1 view -0
 592              		.cfi_startproc
 593              		@ args = 0, pretend = 0, frame = 0
 594              		@ frame_needed = 0, uses_anonymous_args = 0
 595              		@ link register save eliminated.
  34:../../../DaisySP//Source/Effects/pitchshifter.h ****     seed                 = hash_xs32(seed);
 596              		.loc 4 34 5 view .LVU152
  35:../../../DaisySP//Source/Effects/pitchshifter.h ****     return seed;
 597              		.loc 4 35 5 view .LVU153
  35:../../../DaisySP//Source/Effects/pitchshifter.h ****     return seed;
 598              		.loc 4 35 37 is_stmt 0 view .LVU154
 599 0000 044B     		ldr	r3, .L25
 600 0002 1868     		ldr	r0, [r3]
 601              	.LVL39:
 602              	.LBB567:
 603              	.LBI567:
  24:../../../DaisySP//Source/Effects/pitchshifter.h **** {
 604              		.loc 4 24 24 is_stmt 1 view .LVU155
ARM GAS  /var/folders/wz/z09yph4n0qj4t7mjxhl6ttn80000gn/T//ccNJmc12.s 			page 28


 605              	.LBB568:
  26:../../../DaisySP//Source/Effects/pitchshifter.h ****     x ^= x >> 17;
 606              		.loc 4 26 5 view .LVU156
  26:../../../DaisySP//Source/Effects/pitchshifter.h ****     x ^= x >> 17;
 607              		.loc 4 26 7 is_stmt 0 view .LVU157
 608 0004 80EA4030 		eor	r0, r0, r0, lsl #13
 609              	.LVL40:
  27:../../../DaisySP//Source/Effects/pitchshifter.h ****     x ^= x << 5;
 610              		.loc 4 27 5 is_stmt 1 view .LVU158
  27:../../../DaisySP//Source/Effects/pitchshifter.h ****     x ^= x << 5;
 611              		.loc 4 27 7 is_stmt 0 view .LVU159
 612 0008 80EA5040 		eor	r0, r0, r0, lsr #17
 613              	.LVL41:
  28:../../../DaisySP//Source/Effects/pitchshifter.h ****     return x;
 614              		.loc 4 28 5 is_stmt 1 view .LVU160
  28:../../../DaisySP//Source/Effects/pitchshifter.h ****     return x;
 615              		.loc 4 28 7 is_stmt 0 view .LVU161
 616 000c 80EA4010 		eor	r0, r0, r0, lsl #5
 617              	.LVL42:
  29:../../../DaisySP//Source/Effects/pitchshifter.h **** }
 618              		.loc 4 29 5 is_stmt 1 view .LVU162
  29:../../../DaisySP//Source/Effects/pitchshifter.h **** }
 619              		.loc 4 29 5 is_stmt 0 view .LVU163
 620              	.LBE568:
 621              	.LBE567:
  35:../../../DaisySP//Source/Effects/pitchshifter.h ****     return seed;
 622              		.loc 4 35 26 view .LVU164
 623 0010 1860     		str	r0, [r3]
  36:../../../DaisySP//Source/Effects/pitchshifter.h **** }
 624              		.loc 4 36 5 is_stmt 1 view .LVU165
  37:../../../DaisySP//Source/Effects/pitchshifter.h **** 
 625              		.loc 4 37 1 is_stmt 0 view .LVU166
 626 0012 7047     		bx	lr
 627              	.L26:
 628              		.align	2
 629              	.L25:
 630 0014 00000000 		.word	_ZZN7daisysp6myrandEvE4seed
 631              		.cfi_endproc
 632              	.LFE4440:
 634              		.section	.text._ZNSt14_Function_baseD2Ev,"axG",%progbits,_ZNSt14_Function_baseD5Ev,comdat
 635              		.align	1
 636              		.weak	_ZNSt14_Function_baseD2Ev
 637              		.syntax unified
 638              		.thumb
 639              		.thumb_func
 641              	_ZNSt14_Function_baseD2Ev:
 642              	.LVL43:
 643              	.LFB5051:
 242:/Library/DaisyToolchain/0.2.0/arm/arm-none-eabi/include/c++/10.3.1/bits/std_function.h ****     {
 644              		.loc 1 242 5 is_stmt 1 view -0
 645              		.cfi_startproc
 646              		@ args = 0, pretend = 0, frame = 0
 647              		@ frame_needed = 0, uses_anonymous_args = 0
 648              	.LBB569:
 244:/Library/DaisyToolchain/0.2.0/arm/arm-none-eabi/include/c++/10.3.1/bits/std_function.h **** 	_M_manager(_M_functor, _M_functor, __destroy_functor);
 649              		.loc 1 244 7 view .LVU168
 244:/Library/DaisyToolchain/0.2.0/arm/arm-none-eabi/include/c++/10.3.1/bits/std_function.h **** 	_M_manager(_M_functor, _M_functor, __destroy_functor);
ARM GAS  /var/folders/wz/z09yph4n0qj4t7mjxhl6ttn80000gn/T//ccNJmc12.s 			page 29


 650              		.loc 1 244 11 is_stmt 0 view .LVU169
 651 0000 8368     		ldr	r3, [r0, #8]
 652              	.LBE569:
 242:/Library/DaisyToolchain/0.2.0/arm/arm-none-eabi/include/c++/10.3.1/bits/std_function.h ****     {
 653              		.loc 1 242 5 view .LVU170
 654 0002 10B5     		push	{r4, lr}
 655              		.cfi_def_cfa_offset 8
 656              		.cfi_offset 4, -8
 657              		.cfi_offset 14, -4
 242:/Library/DaisyToolchain/0.2.0/arm/arm-none-eabi/include/c++/10.3.1/bits/std_function.h ****     {
 658              		.loc 1 242 5 view .LVU171
 659 0004 0446     		mov	r4, r0
 660              	.LBB570:
 244:/Library/DaisyToolchain/0.2.0/arm/arm-none-eabi/include/c++/10.3.1/bits/std_function.h **** 	_M_manager(_M_functor, _M_functor, __destroy_functor);
 661              		.loc 1 244 7 view .LVU172
 662 0006 13B1     		cbz	r3, .L28
 245:/Library/DaisyToolchain/0.2.0/arm/arm-none-eabi/include/c++/10.3.1/bits/std_function.h ****     }
 663              		.loc 1 245 2 is_stmt 1 view .LVU173
 245:/Library/DaisyToolchain/0.2.0/arm/arm-none-eabi/include/c++/10.3.1/bits/std_function.h ****     }
 664              		.loc 1 245 12 is_stmt 0 view .LVU174
 665 0008 0322     		movs	r2, #3
 666 000a 0146     		mov	r1, r0
 667 000c 9847     		blx	r3
 668              	.LVL44:
 669              	.L28:
 245:/Library/DaisyToolchain/0.2.0/arm/arm-none-eabi/include/c++/10.3.1/bits/std_function.h ****     }
 670              		.loc 1 245 12 view .LVU175
 671              	.LBE570:
 246:/Library/DaisyToolchain/0.2.0/arm/arm-none-eabi/include/c++/10.3.1/bits/std_function.h **** 
 672              		.loc 1 246 5 view .LVU176
 673 000e 2046     		mov	r0, r4
 674 0010 10BD     		pop	{r4, pc}
 246:/Library/DaisyToolchain/0.2.0/arm/arm-none-eabi/include/c++/10.3.1/bits/std_function.h **** 
 675              		.loc 1 246 5 view .LVU177
 676              		.cfi_endproc
 677              	.LFE5051:
 679              		.weak	_ZNSt14_Function_baseD1Ev
 680              		.thumb_set _ZNSt14_Function_baseD1Ev,_ZNSt14_Function_baseD2Ev
 681              		.section	.text._ZN10PitchShift16setDefaultValuesEv,"ax",%progbits
 682              		.align	1
 683              		.global	_ZN10PitchShift16setDefaultValuesEv
 684              		.syntax unified
 685              		.thumb
 686              		.thumb_func
 688              	_ZN10PitchShift16setDefaultValuesEv:
 689              	.LVL45:
 690              	.LFB5666:
  17:DSP/FX/PitchShift.cpp **** 
  18:DSP/FX/PitchShift.cpp ****     setDefaultValues();
  19:DSP/FX/PitchShift.cpp **** }
  20:DSP/FX/PitchShift.cpp **** 
  21:DSP/FX/PitchShift.cpp **** void PitchShift::setDefaultValues()
  22:DSP/FX/PitchShift.cpp **** {
 691              		.loc 3 22 1 is_stmt 1 view -0
 692              		.cfi_startproc
 693              		@ args = 0, pretend = 0, frame = 8
 694              		@ frame_needed = 0, uses_anonymous_args = 0
ARM GAS  /var/folders/wz/z09yph4n0qj4t7mjxhl6ttn80000gn/T//ccNJmc12.s 			page 30


  23:DSP/FX/PitchShift.cpp ****     bypass.value = pitchShifterDefs.bypass;
 695              		.loc 3 23 5 view .LVU179
  22:DSP/FX/PitchShift.cpp ****     bypass.value = pitchShifterDefs.bypass;
 696              		.loc 3 22 1 is_stmt 0 view .LVU180
 697 0000 73B5     		push	{r0, r1, r4, r5, r6, lr}
 698              		.cfi_def_cfa_offset 24
 699              		.cfi_offset 4, -16
 700              		.cfi_offset 5, -12
 701              		.cfi_offset 6, -8
 702              		.cfi_offset 14, -4
 703              		.loc 3 23 18 view .LVU181
 704 0002 00F58045 		add	r5, r0, #16384
 705 0006 0126     		movs	r6, #1
  24:DSP/FX/PitchShift.cpp ****     amount.value = pitchShifterDefs.amount;
 706              		.loc 3 24 18 view .LVU182
 707 0008 4FF07C52 		mov	r2, #1056964608
  22:DSP/FX/PitchShift.cpp ****     bypass.value = pitchShifterDefs.bypass;
 708              		.loc 3 22 1 view .LVU183
 709 000c 0446     		mov	r4, r0
 710              		.loc 3 24 18 view .LVU184
 711 000e 05F62843 		addw	r3, r5, #3112
  25:DSP/FX/PitchShift.cpp ****     shifter.SetTransposition(pitchShifterDefs.semitones);
 712              		.loc 3 25 29 view .LVU185
 713 0012 2030     		adds	r0, r0, #32
 714              	.LVL46:
  23:DSP/FX/PitchShift.cpp ****     amount.value = pitchShifterDefs.amount;
 715              		.loc 3 23 18 view .LVU186
 716 0014 85F8F86B 		strb	r6, [r5, #3064]
  24:DSP/FX/PitchShift.cpp ****     amount.value = pitchShifterDefs.amount;
 717              		.loc 3 24 5 is_stmt 1 view .LVU187
 718              		.loc 3 25 29 is_stmt 0 view .LVU188
 719 0018 B2EE080A 		vmov.f32	s0, #1.2e+1
  24:DSP/FX/PitchShift.cpp ****     amount.value = pitchShifterDefs.amount;
 720              		.loc 3 24 18 view .LVU189
 721 001c 1A60     		str	r2, [r3]	@ float
 722              		.loc 3 25 5 is_stmt 1 view .LVU190
 723              	.LBB575:
 724              	.LBB576:
 178:../../../DaisySP//Source/Effects/pitchshifter.h ****     }
 725              		.loc 4 178 25 is_stmt 0 view .LVU191
 726 001e 04F59744 		add	r4, r4, #19328
 727              	.LVL47:
 178:../../../DaisySP//Source/Effects/pitchshifter.h ****     }
 728              		.loc 4 178 25 view .LVU192
 729              	.LBE576:
 730              	.LBE575:
 731              		.loc 3 25 29 view .LVU193
 732 0022 0190     		str	r0, [sp, #4]
 733 0024 FFF7FEFF 		bl	_ZN7daisysp12PitchShifter16SetTranspositionERKf.isra.0
 734              	.LVL48:
  26:DSP/FX/PitchShift.cpp ****     shifter.SetFun(pitchShifterDefs.rand);
 735              		.loc 3 26 5 is_stmt 1 view .LVU194
 736              	.LBB580:
 737              	.LBI580:
 738              		.loc 4 183 17 view .LVU195
 739              	.LBB581:
 740              		.loc 4 183 35 view .LVU196
ARM GAS  /var/folders/wz/z09yph4n0qj4t7mjxhl6ttn80000gn/T//ccNJmc12.s 			page 31


 741              		.loc 4 183 40 is_stmt 0 view .LVU197
 742 0028 05F68433 		addw	r3, r5, #2948
 743 002c 0022     		movs	r2, #0
 744              	.LBE581:
 745              	.LBE580:
 746              	.LBB583:
 747              	.LBB577:
 178:../../../DaisySP//Source/Effects/pitchshifter.h ****     }
 748              		.loc 4 178 25 view .LVU198
 749 002e 0198     		ldr	r0, [sp, #4]
 750              	.LBE577:
 751              	.LBE583:
 752              	.LBB584:
 753              	.LBB582:
 754              		.loc 4 183 40 view .LVU199
 755 0030 1A60     		str	r2, [r3]	@ float
 756              	.LVL49:
 757              		.loc 4 183 40 view .LVU200
 758              	.LBE582:
 759              	.LBE584:
  27:DSP/FX/PitchShift.cpp **** 
  28:DSP/FX/PitchShift.cpp ****     shifter.SetDelSize(2400);
 760              		.loc 3 28 5 is_stmt 1 view .LVU201
 761              	.LBB585:
 762              	.LBI575:
 174:../../../DaisySP//Source/Effects/pitchshifter.h ****     {
 763              		.loc 4 174 10 view .LVU202
 764              	.LBB578:
 176:../../../DaisySP//Source/Effects/pitchshifter.h ****         force_recalc_ = true;
 765              		.loc 4 176 9 view .LVU203
 176:../../../DaisySP//Source/Effects/pitchshifter.h ****         force_recalc_ = true;
 766              		.loc 4 176 23 is_stmt 0 view .LVU204
 767 0032 4FF41663 		mov	r3, #2400
 178:../../../DaisySP//Source/Effects/pitchshifter.h ****     }
 768              		.loc 4 178 25 view .LVU205
 769 0036 94ED000A 		vldr.32	s0, [r4]
 176:../../../DaisySP//Source/Effects/pitchshifter.h ****         force_recalc_ = true;
 770              		.loc 4 176 23 view .LVU206
 771 003a C5F8403B 		str	r3, [r5, #2880]
 177:../../../DaisySP//Source/Effects/pitchshifter.h ****         SetTransposition(transpose_);
 772              		.loc 4 177 9 is_stmt 1 view .LVU207
 177:../../../DaisySP//Source/Effects/pitchshifter.h ****         SetTransposition(transpose_);
 773              		.loc 4 177 23 is_stmt 0 view .LVU208
 774 003e 85F8446B 		strb	r6, [r5, #2884]
 178:../../../DaisySP//Source/Effects/pitchshifter.h ****     }
 775              		.loc 4 178 9 is_stmt 1 view .LVU209
 776              	.LBE578:
 777              	.LBE585:
  29:DSP/FX/PitchShift.cpp **** }
 778              		.loc 3 29 1 is_stmt 0 view .LVU210
 779 0042 02B0     		add	sp, sp, #8
 780              		.cfi_def_cfa_offset 16
 781              		@ sp needed
 782 0044 BDE87040 		pop	{r4, r5, r6, lr}
 783              		.cfi_restore 14
 784              		.cfi_restore 6
 785              		.cfi_restore 5
ARM GAS  /var/folders/wz/z09yph4n0qj4t7mjxhl6ttn80000gn/T//ccNJmc12.s 			page 32


 786              		.cfi_restore 4
 787              		.cfi_def_cfa_offset 0
 788              	.LVL50:
 789              	.LBB586:
 790              	.LBB579:
 178:../../../DaisySP//Source/Effects/pitchshifter.h ****     }
 791              		.loc 4 178 25 view .LVU211
 792 0048 FFF7FEBF 		b	_ZN7daisysp12PitchShifter16SetTranspositionERKf.isra.0
 793              	.LVL51:
 178:../../../DaisySP//Source/Effects/pitchshifter.h ****     }
 794              		.loc 4 178 25 view .LVU212
 795              	.LBE579:
 796              	.LBE586:
 797              		.cfi_endproc
 798              	.LFE5666:
 800              		.section	.text._ZN7daisysp9DelayLineIfLj2400EE8SetDelayEf,"axG",%progbits,_ZN7daisysp9DelayLineIfL
 801              		.align	1
 802              		.weak	_ZN7daisysp9DelayLineIfLj2400EE8SetDelayEf
 803              		.syntax unified
 804              		.thumb
 805              		.thumb_func
 807              	_ZN7daisysp9DelayLineIfLj2400EE8SetDelayEf:
 808              	.LVL52:
 809              	.LFB5940:
 810              		.file 6 "../../../DaisySP//Source/Utility/delayline.h"
   1:../../../DaisySP//Source/Utility/delayline.h **** #pragma once
   2:../../../DaisySP//Source/Utility/delayline.h **** #ifndef DSY_DELAY_H
   3:../../../DaisySP//Source/Utility/delayline.h **** #define DSY_DELAY_H
   4:../../../DaisySP//Source/Utility/delayline.h **** #include <stdlib.h>
   5:../../../DaisySP//Source/Utility/delayline.h **** #include <stdint.h>
   6:../../../DaisySP//Source/Utility/delayline.h **** namespace daisysp
   7:../../../DaisySP//Source/Utility/delayline.h **** {
   8:../../../DaisySP//Source/Utility/delayline.h **** /** Simple Delay line.
   9:../../../DaisySP//Source/Utility/delayline.h **** November 2019
  10:../../../DaisySP//Source/Utility/delayline.h **** 
  11:../../../DaisySP//Source/Utility/delayline.h **** Converted to Template December 2019
  12:../../../DaisySP//Source/Utility/delayline.h **** 
  13:../../../DaisySP//Source/Utility/delayline.h **** declaration example: (1 second of floats)
  14:../../../DaisySP//Source/Utility/delayline.h **** 
  15:../../../DaisySP//Source/Utility/delayline.h **** DelayLine<float, SAMPLE_RATE> del;
  16:../../../DaisySP//Source/Utility/delayline.h **** 
  17:../../../DaisySP//Source/Utility/delayline.h **** By: shensley
  18:../../../DaisySP//Source/Utility/delayline.h **** */
  19:../../../DaisySP//Source/Utility/delayline.h **** template <typename T, size_t max_size>
  20:../../../DaisySP//Source/Utility/delayline.h **** class DelayLine
  21:../../../DaisySP//Source/Utility/delayline.h **** {
  22:../../../DaisySP//Source/Utility/delayline.h ****   public:
  23:../../../DaisySP//Source/Utility/delayline.h ****     DelayLine() {}
  24:../../../DaisySP//Source/Utility/delayline.h ****     ~DelayLine() {}
  25:../../../DaisySP//Source/Utility/delayline.h ****     /** initializes the delay line by clearing the values within, and setting delay to 1 sample.
  26:../../../DaisySP//Source/Utility/delayline.h ****     */
  27:../../../DaisySP//Source/Utility/delayline.h ****     void Init() { Reset(); }
  28:../../../DaisySP//Source/Utility/delayline.h ****     /** clears buffer, sets write ptr to 0, and delay to 1 sample.
  29:../../../DaisySP//Source/Utility/delayline.h ****     */
  30:../../../DaisySP//Source/Utility/delayline.h ****     void Reset()
  31:../../../DaisySP//Source/Utility/delayline.h ****     {
  32:../../../DaisySP//Source/Utility/delayline.h ****         for(size_t i = 0; i < max_size; i++)
ARM GAS  /var/folders/wz/z09yph4n0qj4t7mjxhl6ttn80000gn/T//ccNJmc12.s 			page 33


  33:../../../DaisySP//Source/Utility/delayline.h ****         {
  34:../../../DaisySP//Source/Utility/delayline.h ****             line_[i] = T(0);
  35:../../../DaisySP//Source/Utility/delayline.h ****         }
  36:../../../DaisySP//Source/Utility/delayline.h ****         write_ptr_ = 0;
  37:../../../DaisySP//Source/Utility/delayline.h ****         delay_     = 1;
  38:../../../DaisySP//Source/Utility/delayline.h ****     }
  39:../../../DaisySP//Source/Utility/delayline.h **** 
  40:../../../DaisySP//Source/Utility/delayline.h ****     /** sets the delay time in samples
  41:../../../DaisySP//Source/Utility/delayline.h ****         If a float is passed in, a fractional component will be calculated for interpolating the de
  42:../../../DaisySP//Source/Utility/delayline.h ****     */
  43:../../../DaisySP//Source/Utility/delayline.h ****     inline void SetDelay(size_t delay)
  44:../../../DaisySP//Source/Utility/delayline.h ****     {
  45:../../../DaisySP//Source/Utility/delayline.h ****         frac_  = 0.0f;
  46:../../../DaisySP//Source/Utility/delayline.h ****         delay_ = delay < max_size ? delay : max_size - 1;
  47:../../../DaisySP//Source/Utility/delayline.h ****     }
  48:../../../DaisySP//Source/Utility/delayline.h **** 
  49:../../../DaisySP//Source/Utility/delayline.h ****     /** sets the delay time in samples
  50:../../../DaisySP//Source/Utility/delayline.h ****         If a float is passed in, a fractional component will be calculated for interpolating the de
  51:../../../DaisySP//Source/Utility/delayline.h ****     */
  52:../../../DaisySP//Source/Utility/delayline.h ****     inline void SetDelay(float delay)
 811              		.loc 6 52 17 is_stmt 1 view -0
 812              		.cfi_startproc
 813              		@ args = 0, pretend = 0, frame = 0
 814              		@ frame_needed = 0, uses_anonymous_args = 0
 815              		@ link register save eliminated.
  53:../../../DaisySP//Source/Utility/delayline.h ****     {
  54:../../../DaisySP//Source/Utility/delayline.h ****         int32_t int_delay = static_cast<int32_t>(delay);
 816              		.loc 6 54 17 is_stmt 0 view .LVU214
 817 0000 FDEEC07A 		vcvt.s32.f32	s15, s0
 818              	.LVL53:
  55:../../../DaisySP//Source/Utility/delayline.h ****         frac_             = delay - static_cast<float>(int_delay);
  56:../../../DaisySP//Source/Utility/delayline.h ****         delay_ = static_cast<size_t>(int_delay) < max_size ? int_delay
 819              		.loc 6 56 16 view .LVU215
 820 0004 40F65F13 		movw	r3, #2399
  55:../../../DaisySP//Source/Utility/delayline.h ****         frac_             = delay - static_cast<float>(int_delay);
 821              		.loc 6 55 37 view .LVU216
 822 0008 B8EEE77A 		vcvt.f32.s32	s14, s15
 823              		.loc 6 56 16 view .LVU217
 824 000c 17EE902A 		vmov	r2, s15	@ int
 825 0010 9A42     		cmp	r2, r3
 826 0012 94BF     		ite	ls
 827 0014 8260     		strls	r2, [r0, #8]
 828 0016 8360     		strhi	r3, [r0, #8]
  55:../../../DaisySP//Source/Utility/delayline.h ****         frac_             = delay - static_cast<float>(int_delay);
 829              		.loc 6 55 35 view .LVU218
 830 0018 30EE470A 		vsub.f32	s0, s0, s14
 831              	.LVL54:
  55:../../../DaisySP//Source/Utility/delayline.h ****         frac_             = delay - static_cast<float>(int_delay);
 832              		.loc 6 55 27 view .LVU219
 833 001c 80ED000A 		vstr.32	s0, [r0]
  57:../../../DaisySP//Source/Utility/delayline.h ****                                                            : max_size - 1;
  58:../../../DaisySP//Source/Utility/delayline.h ****     }
 834              		.loc 6 58 5 view .LVU220
 835 0020 7047     		bx	lr
 836              		.cfi_endproc
 837              	.LFE5940:
 839              		.section	.text._ZNK7daisysp9DelayLineIfLj2400EE4ReadEv,"axG",%progbits,_ZNK7daisysp9DelayLineIfLj2
ARM GAS  /var/folders/wz/z09yph4n0qj4t7mjxhl6ttn80000gn/T//ccNJmc12.s 			page 34


 840              		.align	1
 841              		.weak	_ZNK7daisysp9DelayLineIfLj2400EE4ReadEv
 842              		.syntax unified
 843              		.thumb
 844              		.thumb_func
 846              	_ZNK7daisysp9DelayLineIfLj2400EE4ReadEv:
 847              	.LVL55:
 848              	.LFB5941:
  59:../../../DaisySP//Source/Utility/delayline.h **** 
  60:../../../DaisySP//Source/Utility/delayline.h ****     /** writes the sample of type T to the delay line, and advances the write ptr
  61:../../../DaisySP//Source/Utility/delayline.h ****     */
  62:../../../DaisySP//Source/Utility/delayline.h ****     inline void Write(const T sample)
  63:../../../DaisySP//Source/Utility/delayline.h ****     {
  64:../../../DaisySP//Source/Utility/delayline.h ****         line_[write_ptr_] = sample;
  65:../../../DaisySP//Source/Utility/delayline.h ****         write_ptr_        = (write_ptr_ - 1 + max_size) % max_size;
  66:../../../DaisySP//Source/Utility/delayline.h ****     }
  67:../../../DaisySP//Source/Utility/delayline.h **** 
  68:../../../DaisySP//Source/Utility/delayline.h ****     /** returns the next sample of type T in the delay line, interpolated if necessary.
  69:../../../DaisySP//Source/Utility/delayline.h ****     */
  70:../../../DaisySP//Source/Utility/delayline.h ****     inline const T Read() const
 849              		.loc 6 70 20 is_stmt 1 view -0
 850              		.cfi_startproc
 851              		@ args = 0, pretend = 0, frame = 0
 852              		@ frame_needed = 0, uses_anonymous_args = 0
 853              		@ link register save eliminated.
  71:../../../DaisySP//Source/Utility/delayline.h ****     {
  72:../../../DaisySP//Source/Utility/delayline.h ****         T a = line_[(write_ptr_ + delay_) % max_size];
 854              		.loc 6 72 33 is_stmt 0 view .LVU222
 855 0000 D0E90132 		ldrd	r3, r2, [r0, #4]
 856              		.loc 6 72 43 view .LVU223
 857 0004 4FF41661 		mov	r1, #2400
  73:../../../DaisySP//Source/Utility/delayline.h ****         T b = line_[(write_ptr_ + delay_ + 1) % max_size];
  74:../../../DaisySP//Source/Utility/delayline.h ****         return a + (b - a) * frac_;
 858              		.loc 6 74 30 view .LVU224
 859 0008 90ED007A 		vldr.32	s14, [r0]
  72:../../../DaisySP//Source/Utility/delayline.h ****         T b = line_[(write_ptr_ + delay_ + 1) % max_size];
 860              		.loc 6 72 33 view .LVU225
 861 000c 1344     		add	r3, r3, r2
  72:../../../DaisySP//Source/Utility/delayline.h ****         T b = line_[(write_ptr_ + delay_ + 1) % max_size];
 862              		.loc 6 72 43 view .LVU226
 863 000e B3FBF1F2 		udiv	r2, r3, r1
 864 0012 01FB1232 		mls	r2, r1, r2, r3
  73:../../../DaisySP//Source/Utility/delayline.h ****         T b = line_[(write_ptr_ + delay_ + 1) % max_size];
 865              		.loc 6 73 42 view .LVU227
 866 0016 0133     		adds	r3, r3, #1
  72:../../../DaisySP//Source/Utility/delayline.h ****         T b = line_[(write_ptr_ + delay_ + 1) % max_size];
 867              		.loc 6 72 11 view .LVU228
 868 0018 00EB8202 		add	r2, r0, r2, lsl #2
 869 001c 92ED030A 		vldr.32	s0, [r2, #12]
 870              	.LVL56:
  73:../../../DaisySP//Source/Utility/delayline.h ****         T b = line_[(write_ptr_ + delay_ + 1) % max_size];
 871              		.loc 6 73 47 view .LVU229
 872 0020 B3FBF1F2 		udiv	r2, r3, r1
 873 0024 01FB1233 		mls	r3, r1, r2, r3
  73:../../../DaisySP//Source/Utility/delayline.h ****         T b = line_[(write_ptr_ + delay_ + 1) % max_size];
 874              		.loc 6 73 11 view .LVU230
 875 0028 00EB8303 		add	r3, r0, r3, lsl #2
ARM GAS  /var/folders/wz/z09yph4n0qj4t7mjxhl6ttn80000gn/T//ccNJmc12.s 			page 35


 876              		.loc 6 74 23 view .LVU231
 877 002c D3ED037A 		vldr.32	s15, [r3, #12]
 878 0030 77EEC07A 		vsub.f32	s15, s15, s0
  75:../../../DaisySP//Source/Utility/delayline.h ****     }
 879              		.loc 6 75 5 view .LVU232
 880 0034 A7EE870A 		vfma.f32	s0, s15, s14
 881              	.LVL57:
 882              		.loc 6 75 5 view .LVU233
 883 0038 7047     		bx	lr
 884              		.cfi_endproc
 885              	.LFE5941:
 887              		.section	.text._ZN7daisysp12PitchShifter7ProcessERf,"axG",%progbits,_ZN7daisysp12PitchShifter7Proc
 888              		.align	1
 889              		.weak	_ZN7daisysp12PitchShifter7ProcessERf
 890              		.syntax unified
 891              		.thumb
 892              		.thumb_func
 894              	_ZN7daisysp12PitchShifter7ProcessERf:
 895              	.LVL58:
 896              	.LFB4448:
  84:../../../DaisySP//Source/Effects/pitchshifter.h ****     {
 897              		.loc 4 84 11 is_stmt 1 view -0
 898              		.cfi_startproc
 899              		@ args = 0, pretend = 0, frame = 0
 900              		@ frame_needed = 0, uses_anonymous_args = 0
  86:../../../DaisySP//Source/Effects/pitchshifter.h ****         // First Process delay mod/crossfade
 901              		.loc 4 86 9 view .LVU235
  88:../../../DaisySP//Source/Effects/pitchshifter.h ****         fade2 = phs_[1].Process();
 902              		.loc 4 88 9 view .LVU236
  84:../../../DaisySP//Source/Effects/pitchshifter.h ****     {
 903              		.loc 4 84 11 is_stmt 0 view .LVU237
 904 0000 2DE9F047 		push	{r4, r5, r6, r7, r8, r9, r10, lr}
 905              		.cfi_def_cfa_offset 32
 906              		.cfi_offset 4, -32
 907              		.cfi_offset 5, -28
 908              		.cfi_offset 6, -24
 909              		.cfi_offset 7, -20
 910              		.cfi_offset 8, -16
 911              		.cfi_offset 9, -12
 912              		.cfi_offset 10, -8
 913              		.cfi_offset 14, -4
 914 0004 0546     		mov	r5, r0
  88:../../../DaisySP//Source/Effects/pitchshifter.h ****         fade2 = phs_[1].Process();
 915              		.loc 4 88 32 view .LVU238
 916 0006 00F59640 		add	r0, r0, #19200
 917              	.LVL59:
  84:../../../DaisySP//Source/Effects/pitchshifter.h ****     {
 918              		.loc 4 84 11 view .LVU239
 919 000a 0E46     		mov	r6, r1
  88:../../../DaisySP//Source/Effects/pitchshifter.h ****         fade2 = phs_[1].Process();
 920              		.loc 4 88 32 view .LVU240
 921 000c 3030     		adds	r0, r0, #48
  90:../../../DaisySP//Source/Effects/pitchshifter.h ****         {
 922              		.loc 4 90 12 view .LVU241
 923 000e 05F58044 		add	r4, r5, #16384
 924 0012 05F59747 		add	r7, r5, #19328
  84:../../../DaisySP//Source/Effects/pitchshifter.h ****     {
ARM GAS  /var/folders/wz/z09yph4n0qj4t7mjxhl6ttn80000gn/T//ccNJmc12.s 			page 36


 925              		.loc 4 84 11 view .LVU242
 926 0016 2DED068B 		vpush.64	{d8, d9, d10}
 927              		.cfi_def_cfa_offset 56
 928              		.cfi_offset 80, -56
 929              		.cfi_offset 81, -52
 930              		.cfi_offset 82, -48
 931              		.cfi_offset 83, -44
 932              		.cfi_offset 84, -40
 933              		.cfi_offset 85, -36
  88:../../../DaisySP//Source/Effects/pitchshifter.h ****         fade2 = phs_[1].Process();
 934              		.loc 4 88 32 view .LVU243
 935 001a FFF7FEFF 		bl	_ZN7daisysp6Phasor7ProcessEv
 936              	.LVL60:
  89:../../../DaisySP//Source/Effects/pitchshifter.h ****         if(prev_phs_a_ > fade1)
 937              		.loc 4 89 32 view .LVU244
 938 001e 05F59640 		add	r0, r5, #19200
  88:../../../DaisySP//Source/Effects/pitchshifter.h ****         fade2 = phs_[1].Process();
 939              		.loc 4 88 32 view .LVU245
 940 0022 F0EE408A 		vmov.f32	s17, s0
 941              	.LVL61:
  89:../../../DaisySP//Source/Effects/pitchshifter.h ****         if(prev_phs_a_ > fade1)
 942              		.loc 4 89 9 is_stmt 1 view .LVU246
  89:../../../DaisySP//Source/Effects/pitchshifter.h ****         if(prev_phs_a_ > fade1)
 943              		.loc 4 89 32 is_stmt 0 view .LVU247
 944 0026 4030     		adds	r0, r0, #64
 945 0028 FFF7FEFF 		bl	_ZN7daisysp6Phasor7ProcessEv
 946              	.LVL62:
  90:../../../DaisySP//Source/Effects/pitchshifter.h ****         {
 947              		.loc 4 90 12 view .LVU248
 948 002c 04F53763 		add	r3, r4, #2928
  89:../../../DaisySP//Source/Effects/pitchshifter.h ****         if(prev_phs_a_ > fade1)
 949              		.loc 4 89 32 view .LVU249
 950 0030 B0EE408A 		vmov.f32	s16, s0
 951              	.LVL63:
  90:../../../DaisySP//Source/Effects/pitchshifter.h ****         {
 952              		.loc 4 90 9 is_stmt 1 view .LVU250
 953 0034 D3ED007A 		vldr.32	s15, [r3]
 954 0038 F4EEE87A 		vcmpe.f32	s15, s17
 955 003c F1EE10FA 		vmrs	APSR_nzcv, FPSCR
 956 0040 38DD     		ble	.L36
  92:../../../DaisySP//Source/Effects/pitchshifter.h ****                          * (del_size_ * 0.5f);
 957              		.loc 4 92 13 view .LVU251
  92:../../../DaisySP//Source/Effects/pitchshifter.h ****                          * (del_size_ * 0.5f);
 958              		.loc 4 92 26 is_stmt 0 view .LVU252
 959 0042 04F66433 		addw	r3, r4, #2916
  92:../../../DaisySP//Source/Effects/pitchshifter.h ****                          * (del_size_ * 0.5f);
 960              		.loc 4 92 51 view .LVU253
 961 0046 4FF0FF08 		mov	r8, #255
  92:../../../DaisySP//Source/Effects/pitchshifter.h ****                          * (del_size_ * 0.5f);
 962              		.loc 4 92 58 view .LVU254
 963 004a 9FED999A 		vldr.32	s18, .L46
  92:../../../DaisySP//Source/Effects/pitchshifter.h ****                          * (del_size_ * 0.5f);
 964              		.loc 4 92 26 view .LVU255
 965 004e D3ED009A 		vldr.32	s19, [r3]
  92:../../../DaisySP//Source/Effects/pitchshifter.h ****                          * (del_size_ * 0.5f);
 966              		.loc 4 92 48 view .LVU256
 967 0052 FFF7FEFF 		bl	_ZN7daisysp6myrandEv
ARM GAS  /var/folders/wz/z09yph4n0qj4t7mjxhl6ttn80000gn/T//ccNJmc12.s 			page 37


 968              	.LVL64:
  92:../../../DaisySP//Source/Effects/pitchshifter.h ****                          * (del_size_ * 0.5f);
 969              		.loc 4 92 24 view .LVU257
 970 0056 04F66832 		addw	r2, r4, #2920
  92:../../../DaisySP//Source/Effects/pitchshifter.h ****                          * (del_size_ * 0.5f);
 971              		.loc 4 92 51 view .LVU258
 972 005a B0FBF8F3 		udiv	r3, r0, r8
 973 005e C3EB0323 		rsb	r3, r3, r3, lsl #8
 974 0062 C01A     		subs	r0, r0, r3
  93:../../../DaisySP//Source/Effects/pitchshifter.h ****             mod_coeff_[0]
 975              		.loc 4 93 39 view .LVU259
 976 0064 D4F8203B 		ldr	r3, [r4, #2848]
  92:../../../DaisySP//Source/Effects/pitchshifter.h ****                          * (del_size_ * 0.5f);
 977              		.loc 4 92 34 view .LVU260
 978 0068 07EE900A 		vmov	s15, r0	@ int
 979 006c F8EEE77A 		vcvt.f32.s32	s15, s15
  92:../../../DaisySP//Source/Effects/pitchshifter.h ****                          * (del_size_ * 0.5f);
 980              		.loc 4 92 58 view .LVU261
 981 0070 87EE897A 		vdiv.f32	s14, s15, s18
  92:../../../DaisySP//Source/Effects/pitchshifter.h ****                          * (del_size_ * 0.5f);
 982              		.loc 4 92 31 view .LVU262
 983 0074 67EE297A 		vmul.f32	s15, s14, s19
  93:../../../DaisySP//Source/Effects/pitchshifter.h ****             mod_coeff_[0]
 984              		.loc 4 93 39 view .LVU263
 985 0078 07EE103A 		vmov	s14, r3	@ int
 986 007c BBEEEF7A 		vcvt.f32.u32	s14, s14, #1
  93:../../../DaisySP//Source/Effects/pitchshifter.h ****             mod_coeff_[0]
 987              		.loc 4 93 26 view .LVU264
 988 0080 67EE877A 		vmul.f32	s15, s15, s14
  92:../../../DaisySP//Source/Effects/pitchshifter.h ****                          * (del_size_ * 0.5f);
 989              		.loc 4 92 24 view .LVU265
 990 0084 C2ED007A 		vstr.32	s15, [r2]
  94:../../../DaisySP//Source/Effects/pitchshifter.h ****                 = 0.0002f + (((float)(myrand() % 255) / 255.0f) * 0.001f);
 991              		.loc 4 94 13 is_stmt 1 view .LVU266
  95:../../../DaisySP//Source/Effects/pitchshifter.h ****         }
 992              		.loc 4 95 45 is_stmt 0 view .LVU267
 993 0088 FFF7FEFF 		bl	_ZN7daisysp6myrandEv
 994              	.LVL65:
  95:../../../DaisySP//Source/Effects/pitchshifter.h ****         }
 995              		.loc 4 95 27 view .LVU268
 996 008c 9FED897A 		vldr.32	s14, .L46+4
  95:../../../DaisySP//Source/Effects/pitchshifter.h ****         }
 997              		.loc 4 95 48 view .LVU269
 998 0090 B0FBF8F8 		udiv	r8, r0, r8
 999 0094 C8EB0828 		rsb	r8, r8, r8, lsl #8
 1000 0098 A0EB0800 		sub	r0, r0, r8
  95:../../../DaisySP//Source/Effects/pitchshifter.h ****         }
 1001              		.loc 4 95 31 view .LVU270
 1002 009c 07EE900A 		vmov	s15, r0	@ int
 1003 00a0 F8EEE77A 		vcvt.f32.s32	s15, s15
  95:../../../DaisySP//Source/Effects/pitchshifter.h ****         }
 1004              		.loc 4 95 55 view .LVU271
 1005 00a4 C7EE896A 		vdiv.f32	s13, s15, s18
  95:../../../DaisySP//Source/Effects/pitchshifter.h ****         }
 1006              		.loc 4 95 27 view .LVU272
 1007 00a8 DFED837A 		vldr.32	s15, .L46+8
 1008 00ac E6EE877A 		vfma.f32	s15, s13, s14
ARM GAS  /var/folders/wz/z09yph4n0qj4t7mjxhl6ttn80000gn/T//ccNJmc12.s 			page 38


  95:../../../DaisySP//Source/Effects/pitchshifter.h ****         }
 1009              		.loc 4 95 17 view .LVU273
 1010 00b0 C7ED007A 		vstr.32	s15, [r7]
 1011              	.L36:
  97:../../../DaisySP//Source/Effects/pitchshifter.h ****         {
 1012              		.loc 4 97 9 is_stmt 1 view .LVU274
  97:../../../DaisySP//Source/Effects/pitchshifter.h ****         {
 1013              		.loc 4 97 12 is_stmt 0 view .LVU275
 1014 00b4 04F67433 		addw	r3, r4, #2932
  97:../../../DaisySP//Source/Effects/pitchshifter.h ****         {
 1015              		.loc 4 97 9 view .LVU276
 1016 00b8 D3ED007A 		vldr.32	s15, [r3]
 1017 00bc F4EEC87A 		vcmpe.f32	s15, s16
 1018 00c0 F1EE10FA 		vmrs	APSR_nzcv, FPSCR
 1019 00c4 3ADD     		ble	.L38
  99:../../../DaisySP//Source/Effects/pitchshifter.h ****                          * (del_size_ * 0.5f);
 1020              		.loc 4 99 13 is_stmt 1 view .LVU277
  99:../../../DaisySP//Source/Effects/pitchshifter.h ****                          * (del_size_ * 0.5f);
 1021              		.loc 4 99 26 is_stmt 0 view .LVU278
 1022 00c6 04F66433 		addw	r3, r4, #2916
  99:../../../DaisySP//Source/Effects/pitchshifter.h ****                          * (del_size_ * 0.5f);
 1023              		.loc 4 99 51 view .LVU279
 1024 00ca 4FF0FF08 		mov	r8, #255
  99:../../../DaisySP//Source/Effects/pitchshifter.h ****                          * (del_size_ * 0.5f);
 1025              		.loc 4 99 58 view .LVU280
 1026 00ce 9FED789A 		vldr.32	s18, .L46
  99:../../../DaisySP//Source/Effects/pitchshifter.h ****                          * (del_size_ * 0.5f);
 1027              		.loc 4 99 26 view .LVU281
 1028 00d2 D3ED009A 		vldr.32	s19, [r3]
  99:../../../DaisySP//Source/Effects/pitchshifter.h ****                          * (del_size_ * 0.5f);
 1029              		.loc 4 99 48 view .LVU282
 1030 00d6 FFF7FEFF 		bl	_ZN7daisysp6myrandEv
 1031              	.LVL66:
  99:../../../DaisySP//Source/Effects/pitchshifter.h ****                          * (del_size_ * 0.5f);
 1032              		.loc 4 99 24 view .LVU283
 1033 00da 04F66C32 		addw	r2, r4, #2924
  99:../../../DaisySP//Source/Effects/pitchshifter.h ****                          * (del_size_ * 0.5f);
 1034              		.loc 4 99 51 view .LVU284
 1035 00de B0FBF8F3 		udiv	r3, r0, r8
 1036 00e2 C3EB0323 		rsb	r3, r3, r3, lsl #8
 1037 00e6 C01A     		subs	r0, r0, r3
 100:../../../DaisySP//Source/Effects/pitchshifter.h ****             mod_coeff_[1]
 1038              		.loc 4 100 39 view .LVU285
 1039 00e8 D4F8203B 		ldr	r3, [r4, #2848]
  99:../../../DaisySP//Source/Effects/pitchshifter.h ****                          * (del_size_ * 0.5f);
 1040              		.loc 4 99 34 view .LVU286
 1041 00ec 07EE900A 		vmov	s15, r0	@ int
 1042 00f0 F8EEE77A 		vcvt.f32.s32	s15, s15
  99:../../../DaisySP//Source/Effects/pitchshifter.h ****                          * (del_size_ * 0.5f);
 1043              		.loc 4 99 58 view .LVU287
 1044 00f4 87EE897A 		vdiv.f32	s14, s15, s18
  99:../../../DaisySP//Source/Effects/pitchshifter.h ****                          * (del_size_ * 0.5f);
 1045              		.loc 4 99 31 view .LVU288
 1046 00f8 67EE297A 		vmul.f32	s15, s14, s19
 100:../../../DaisySP//Source/Effects/pitchshifter.h ****             mod_coeff_[1]
 1047              		.loc 4 100 39 view .LVU289
 1048 00fc 07EE103A 		vmov	s14, r3	@ int
ARM GAS  /var/folders/wz/z09yph4n0qj4t7mjxhl6ttn80000gn/T//ccNJmc12.s 			page 39


 1049 0100 BBEEEF7A 		vcvt.f32.u32	s14, s14, #1
 100:../../../DaisySP//Source/Effects/pitchshifter.h ****             mod_coeff_[1]
 1050              		.loc 4 100 26 view .LVU290
 1051 0104 67EE877A 		vmul.f32	s15, s15, s14
  99:../../../DaisySP//Source/Effects/pitchshifter.h ****                          * (del_size_ * 0.5f);
 1052              		.loc 4 99 24 view .LVU291
 1053 0108 C2ED007A 		vstr.32	s15, [r2]
 101:../../../DaisySP//Source/Effects/pitchshifter.h ****                 = 0.0002f + (((float)(myrand() % 255) / 255.0f) * 0.001f);
 1054              		.loc 4 101 13 is_stmt 1 view .LVU292
 102:../../../DaisySP//Source/Effects/pitchshifter.h ****         }
 1055              		.loc 4 102 45 is_stmt 0 view .LVU293
 1056 010c FFF7FEFF 		bl	_ZN7daisysp6myrandEv
 1057              	.LVL67:
 102:../../../DaisySP//Source/Effects/pitchshifter.h ****         }
 1058              		.loc 4 102 27 view .LVU294
 1059 0110 9FED687A 		vldr.32	s14, .L46+4
 102:../../../DaisySP//Source/Effects/pitchshifter.h ****         }
 1060              		.loc 4 102 17 view .LVU295
 1061 0114 04F68433 		addw	r3, r4, #2948
 102:../../../DaisySP//Source/Effects/pitchshifter.h ****         }
 1062              		.loc 4 102 48 view .LVU296
 1063 0118 B0FBF8F8 		udiv	r8, r0, r8
 1064 011c C8EB0828 		rsb	r8, r8, r8, lsl #8
 1065 0120 A0EB0800 		sub	r0, r0, r8
 102:../../../DaisySP//Source/Effects/pitchshifter.h ****         }
 1066              		.loc 4 102 31 view .LVU297
 1067 0124 07EE900A 		vmov	s15, r0	@ int
 1068 0128 F8EEE77A 		vcvt.f32.s32	s15, s15
 102:../../../DaisySP//Source/Effects/pitchshifter.h ****         }
 1069              		.loc 4 102 55 view .LVU298
 1070 012c C7EE896A 		vdiv.f32	s13, s15, s18
 102:../../../DaisySP//Source/Effects/pitchshifter.h ****         }
 1071              		.loc 4 102 27 view .LVU299
 1072 0130 DFED617A 		vldr.32	s15, .L46+8
 1073 0134 E6EE877A 		vfma.f32	s15, s13, s14
 102:../../../DaisySP//Source/Effects/pitchshifter.h ****         }
 1074              		.loc 4 102 17 view .LVU300
 1075 0138 C3ED007A 		vstr.32	s15, [r3]
 1076              	.L38:
 104:../../../DaisySP//Source/Effects/pitchshifter.h ****         slewed_mod_[1] += mod_coeff_[1] * (mod_b_amt_ - slewed_mod_[1]);
 1077              		.loc 4 104 9 is_stmt 1 view .LVU301
 104:../../../DaisySP//Source/Effects/pitchshifter.h ****         slewed_mod_[1] += mod_coeff_[1] * (mod_b_amt_ - slewed_mod_[1]);
 1078              		.loc 4 104 24 is_stmt 0 view .LVU302
 1079 013c 04F67833 		addw	r3, r4, #2936
 104:../../../DaisySP//Source/Effects/pitchshifter.h ****         slewed_mod_[1] += mod_coeff_[1] * (mod_b_amt_ - slewed_mod_[1]);
 1080              		.loc 4 104 44 view .LVU303
 1081 0140 04F66832 		addw	r2, r4, #2920
 104:../../../DaisySP//Source/Effects/pitchshifter.h ****         slewed_mod_[1] += mod_coeff_[1] * (mod_b_amt_ - slewed_mod_[1]);
 1082              		.loc 4 104 24 view .LVU304
 1083 0144 D7ED006A 		vldr.32	s13, [r7]
 105:../../../DaisySP//Source/Effects/pitchshifter.h ****         prev_phs_a_ = fade1;
 1084              		.loc 4 105 44 view .LVU305
 1085 0148 04F66C31 		addw	r1, r4, #2924
 104:../../../DaisySP//Source/Effects/pitchshifter.h ****         slewed_mod_[1] += mod_coeff_[1] * (mod_b_amt_ - slewed_mod_[1]);
 1086              		.loc 4 104 24 view .LVU306
 1087 014c D3ED007A 		vldr.32	s15, [r3]
 104:../../../DaisySP//Source/Effects/pitchshifter.h ****         slewed_mod_[1] += mod_coeff_[1] * (mod_b_amt_ - slewed_mod_[1]);
ARM GAS  /var/folders/wz/z09yph4n0qj4t7mjxhl6ttn80000gn/T//ccNJmc12.s 			page 40


 1088              		.loc 4 104 44 view .LVU307
 1089 0150 D2ED009A 		vldr.32	s19, [r2]
 105:../../../DaisySP//Source/Effects/pitchshifter.h ****         prev_phs_a_ = fade1;
 1090              		.loc 4 105 24 view .LVU308
 1091 0154 04F67C32 		addw	r2, r4, #2940
 104:../../../DaisySP//Source/Effects/pitchshifter.h ****         slewed_mod_[1] += mod_coeff_[1] * (mod_b_amt_ - slewed_mod_[1]);
 1092              		.loc 4 104 55 view .LVU309
 1093 0158 39EEE77A 		vsub.f32	s14, s19, s15
 104:../../../DaisySP//Source/Effects/pitchshifter.h ****         slewed_mod_[1] += mod_coeff_[1] * (mod_b_amt_ - slewed_mod_[1]);
 1094              		.loc 4 104 24 view .LVU310
 1095 015c E6EE877A 		vfma.f32	s15, s13, s14
 105:../../../DaisySP//Source/Effects/pitchshifter.h ****         prev_phs_a_ = fade1;
 1096              		.loc 4 105 55 view .LVU311
 1097 0160 91ED007A 		vldr.32	s14, [r1]
 104:../../../DaisySP//Source/Effects/pitchshifter.h ****         slewed_mod_[1] += mod_coeff_[1] * (mod_b_amt_ - slewed_mod_[1]);
 1098              		.loc 4 104 24 view .LVU312
 1099 0164 C3ED007A 		vstr.32	s15, [r3]
 105:../../../DaisySP//Source/Effects/pitchshifter.h ****         prev_phs_a_ = fade1;
 1100              		.loc 4 105 9 is_stmt 1 view .LVU313
 105:../../../DaisySP//Source/Effects/pitchshifter.h ****         prev_phs_a_ = fade1;
 1101              		.loc 4 105 39 is_stmt 0 view .LVU314
 1102 0168 04F68433 		addw	r3, r4, #2948
 105:../../../DaisySP//Source/Effects/pitchshifter.h ****         prev_phs_a_ = fade1;
 1103              		.loc 4 105 24 view .LVU315
 1104 016c D2ED007A 		vldr.32	s15, [r2]
 1105 0170 D3ED006A 		vldr.32	s13, [r3]
 106:../../../DaisySP//Source/Effects/pitchshifter.h ****         prev_phs_b_ = fade2;
 1106              		.loc 4 106 21 view .LVU316
 1107 0174 04F53763 		add	r3, r4, #2928
 105:../../../DaisySP//Source/Effects/pitchshifter.h ****         prev_phs_a_ = fade1;
 1108              		.loc 4 105 55 view .LVU317
 1109 0178 37EE677A 		vsub.f32	s14, s14, s15
 105:../../../DaisySP//Source/Effects/pitchshifter.h ****         prev_phs_a_ = fade1;
 1110              		.loc 4 105 24 view .LVU318
 1111 017c E6EE877A 		vfma.f32	s15, s13, s14
 1112 0180 C2ED007A 		vstr.32	s15, [r2]
 106:../../../DaisySP//Source/Effects/pitchshifter.h ****         prev_phs_b_ = fade2;
 1113              		.loc 4 106 9 is_stmt 1 view .LVU319
 106:../../../DaisySP//Source/Effects/pitchshifter.h ****         prev_phs_b_ = fade2;
 1114              		.loc 4 106 21 is_stmt 0 view .LVU320
 1115 0184 C3ED008A 		vstr.32	s17, [r3]
 107:../../../DaisySP//Source/Effects/pitchshifter.h ****         if(shift_up_)
 1116              		.loc 4 107 9 is_stmt 1 view .LVU321
 107:../../../DaisySP//Source/Effects/pitchshifter.h ****         if(shift_up_)
 1117              		.loc 4 107 21 is_stmt 0 view .LVU322
 1118 0188 04F67433 		addw	r3, r4, #2932
 1119 018c 83ED008A 		vstr.32	s16, [r3]
 108:../../../DaisySP//Source/Effects/pitchshifter.h ****         {
 1120              		.loc 4 108 9 is_stmt 1 view .LVU323
 1121 0190 94F82C3B 		ldrb	r3, [r4, #2860]	@ zero_extendqisi2
 1122 0194 2BB1     		cbz	r3, .L40
 110:../../../DaisySP//Source/Effects/pitchshifter.h ****             fade2 = 1.0f - fade2;
 1123              		.loc 4 110 13 view .LVU324
 110:../../../DaisySP//Source/Effects/pitchshifter.h ****             fade2 = 1.0f - fade2;
 1124              		.loc 4 110 19 is_stmt 0 view .LVU325
 1125 0196 F7EE007A 		vmov.f32	s15, #1.0e+0
 1126 019a 77EEE88A 		vsub.f32	s17, s15, s17
ARM GAS  /var/folders/wz/z09yph4n0qj4t7mjxhl6ttn80000gn/T//ccNJmc12.s 			page 41


 1127              	.LVL68:
 111:../../../DaisySP//Source/Effects/pitchshifter.h ****         }
 1128              		.loc 4 111 13 is_stmt 1 view .LVU326
 111:../../../DaisySP//Source/Effects/pitchshifter.h ****         }
 1129              		.loc 4 111 19 is_stmt 0 view .LVU327
 1130 019e 37EEC88A 		vsub.f32	s16, s15, s16
 1131              	.LVL69:
 1132              	.L40:
 113:../../../DaisySP//Source/Effects/pitchshifter.h ****         mod_[1] = fade2 * (del_size_ - 1);
 1133              		.loc 4 113 9 is_stmt 1 view .LVU328
 113:../../../DaisySP//Source/Effects/pitchshifter.h ****         mod_[1] = fade2 * (del_size_ - 1);
 1134              		.loc 4 113 38 is_stmt 0 view .LVU329
 1135 01a2 D4F8203B 		ldr	r3, [r4, #2848]
 114:../../../DaisySP//Source/Effects/pitchshifter.h **** #ifdef USE_ARM_DSP
 1136              		.loc 4 114 17 view .LVU330
 1137 01a6 04F65C37 		addw	r7, r4, #2908
 113:../../../DaisySP//Source/Effects/pitchshifter.h ****         mod_[1] = fade2 * (del_size_ - 1);
 1138              		.loc 4 113 17 view .LVU331
 1139 01aa 04F6583A 		addw	r10, r4, #2904
 119:../../../DaisySP//Source/Effects/pitchshifter.h ****         gain_[1] = sinf(fade2 * PI_F);
 1140              		.loc 4 119 24 view .LVU332
 1141 01ae 9FED43AA 		vldr.32	s20, .L46+12
 113:../../../DaisySP//Source/Effects/pitchshifter.h ****         mod_[1] = fade2 * (del_size_ - 1);
 1142              		.loc 4 113 38 view .LVU333
 1143 01b2 013B     		subs	r3, r3, #1
 119:../../../DaisySP//Source/Effects/pitchshifter.h ****         gain_[1] = sinf(fade2 * PI_F);
 1144              		.loc 4 119 18 view .LVU334
 1145 01b4 04F53569 		add	r9, r4, #2896
 119:../../../DaisySP//Source/Effects/pitchshifter.h ****         gain_[1] = sinf(fade2 * PI_F);
 1146              		.loc 4 119 24 view .LVU335
 1147 01b8 28EE8A0A 		vmul.f32	s0, s17, s20
 120:../../../DaisySP//Source/Effects/pitchshifter.h **** #endif
 1148              		.loc 4 120 18 view .LVU336
 1149 01bc 04F65438 		addw	r8, r4, #2900
 113:../../../DaisySP//Source/Effects/pitchshifter.h ****         mod_[1] = fade2 * (del_size_ - 1);
 1150              		.loc 4 113 25 view .LVU337
 1151 01c0 07EE903A 		vmov	s15, r3	@ int
 1152 01c4 F8EE677A 		vcvt.f32.u32	s15, s15
 1153 01c8 27EEA89A 		vmul.f32	s18, s15, s17
 114:../../../DaisySP//Source/Effects/pitchshifter.h **** #ifdef USE_ARM_DSP
 1154              		.loc 4 114 25 view .LVU338
 1155 01cc 67EE887A 		vmul.f32	s15, s15, s16
 113:../../../DaisySP//Source/Effects/pitchshifter.h ****         mod_[1] = fade2 * (del_size_ - 1);
 1156              		.loc 4 113 17 view .LVU339
 1157 01d0 8AED009A 		vstr.32	s18, [r10]
 114:../../../DaisySP//Source/Effects/pitchshifter.h **** #ifdef USE_ARM_DSP
 1158              		.loc 4 114 9 is_stmt 1 view .LVU340
 114:../../../DaisySP//Source/Effects/pitchshifter.h **** #ifdef USE_ARM_DSP
 1159              		.loc 4 114 17 is_stmt 0 view .LVU341
 1160 01d4 C7ED007A 		vstr.32	s15, [r7]
 119:../../../DaisySP//Source/Effects/pitchshifter.h ****         gain_[1] = sinf(fade2 * PI_F);
 1161              		.loc 4 119 9 is_stmt 1 view .LVU342
 119:../../../DaisySP//Source/Effects/pitchshifter.h ****         gain_[1] = sinf(fade2 * PI_F);
 1162              		.loc 4 119 24 is_stmt 0 view .LVU343
 1163 01d8 FFF7FEFF 		bl	sinf
 1164              	.LVL70:
 119:../../../DaisySP//Source/Effects/pitchshifter.h ****         gain_[1] = sinf(fade2 * PI_F);
ARM GAS  /var/folders/wz/z09yph4n0qj4t7mjxhl6ttn80000gn/T//ccNJmc12.s 			page 42


 1165              		.loc 4 119 18 view .LVU344
 1166 01dc 89ED000A 		vstr.32	s0, [r9]
 120:../../../DaisySP//Source/Effects/pitchshifter.h **** #endif
 1167              		.loc 4 120 9 is_stmt 1 view .LVU345
 120:../../../DaisySP//Source/Effects/pitchshifter.h **** #endif
 1168              		.loc 4 120 24 is_stmt 0 view .LVU346
 1169 01e0 28EE0A0A 		vmul.f32	s0, s16, s20
 133:../../../DaisySP//Source/Effects/pitchshifter.h ****         val += (d_[1].Read() * gain_[1]);
 1170              		.loc 4 133 13 view .LVU347
 1171 01e4 9FED368A 		vldr.32	s16, .L46+16
 1172              	.LVL71:
 120:../../../DaisySP//Source/Effects/pitchshifter.h **** #endif
 1173              		.loc 4 120 24 view .LVU348
 1174 01e8 FFF7FEFF 		bl	sinf
 1175              	.LVL72:
 1176              	.LBB591:
 1177              	.LBB592:
  64:../../../DaisySP//Source/Utility/delayline.h ****         write_ptr_        = (write_ptr_ - 1 + max_size) % max_size;
 1178              		.loc 6 64 15 view .LVU349
 1179 01ec 6A68     		ldr	r2, [r5, #4]
  65:../../../DaisySP//Source/Utility/delayline.h ****     }
 1180              		.loc 6 65 57 view .LVU350
 1181 01ee 4FF41661 		mov	r1, #2400
 1182              	.LBE592:
 1183              	.LBE591:
 120:../../../DaisySP//Source/Effects/pitchshifter.h **** #endif
 1184              		.loc 4 120 18 view .LVU351
 1185 01f2 88ED000A 		vstr.32	s0, [r8]
 124:../../../DaisySP//Source/Effects/pitchshifter.h ****         d_[1].Write(in);
 1186              		.loc 4 124 9 is_stmt 1 view .LVU352
 1187              	.LBB598:
 1188              	.LBB593:
  64:../../../DaisySP//Source/Utility/delayline.h ****         write_ptr_        = (write_ptr_ - 1 + max_size) % max_size;
 1189              		.loc 6 64 27 is_stmt 0 view .LVU353
 1190 01f6 05EB8203 		add	r3, r5, r2, lsl #2
 1191              	.LBE593:
 1192              	.LBE598:
 124:../../../DaisySP//Source/Effects/pitchshifter.h ****         d_[1].Write(in);
 1193              		.loc 4 124 20 view .LVU354
 1194 01fa D6F800C0 		ldr	ip, [r6]	@ float
 1195              	.LVL73:
 1196              	.LBB599:
 1197              	.LBI591:
  62:../../../DaisySP//Source/Utility/delayline.h ****     {
 1198              		.loc 6 62 17 is_stmt 1 view .LVU355
 1199              	.LBB594:
  65:../../../DaisySP//Source/Utility/delayline.h ****     }
 1200              		.loc 6 65 45 is_stmt 0 view .LVU356
 1201 01fe 02F65F12 		addw	r2, r2, #2399
 1202              	.LBE594:
 1203              	.LBE599:
 128:../../../DaisySP//Source/Effects/pitchshifter.h ****         d_[1].SetDelay(mod_[1] + mod_b_amt_);
 1204              		.loc 4 128 23 view .LVU357
 1205 0202 39EE890A 		vadd.f32	s0, s19, s18
 1206              	.LBB600:
 1207              	.LBB595:
  64:../../../DaisySP//Source/Utility/delayline.h ****         write_ptr_        = (write_ptr_ - 1 + max_size) % max_size;
ARM GAS  /var/folders/wz/z09yph4n0qj4t7mjxhl6ttn80000gn/T//ccNJmc12.s 			page 43


 1208              		.loc 6 64 27 view .LVU358
 1209 0206 C3F80CC0 		str	ip, [r3, #12]	@ float
 1210              	.LBE595:
 1211              	.LBE600:
 125:../../../DaisySP//Source/Effects/pitchshifter.h ****         // Modulate Delay Lines
 1212              		.loc 4 125 20 view .LVU359
 1213 020a 05F51656 		add	r6, r5, #9600
 1214              	.LVL74:
 1215              	.LBB601:
 1216              	.LBB596:
  65:../../../DaisySP//Source/Utility/delayline.h ****     }
 1217              		.loc 6 65 57 view .LVU360
 1218 020e B2FBF1F3 		udiv	r3, r2, r1
 1219 0212 01FB1322 		mls	r2, r1, r3, r2
 1220              	.LBE596:
 1221              	.LBE601:
 125:../../../DaisySP//Source/Effects/pitchshifter.h ****         // Modulate Delay Lines
 1222              		.loc 4 125 20 view .LVU361
 1223 0216 0C36     		adds	r6, r6, #12
 1224              	.LBB602:
 1225              	.LBB597:
  65:../../../DaisySP//Source/Utility/delayline.h ****     }
 1226              		.loc 6 65 27 view .LVU362
 1227 0218 6A60     		str	r2, [r5, #4]
 1228              	.LVL75:
  65:../../../DaisySP//Source/Utility/delayline.h ****     }
 1229              		.loc 6 65 27 view .LVU363
 1230              	.LBE597:
 1231              	.LBE602:
 125:../../../DaisySP//Source/Effects/pitchshifter.h ****         // Modulate Delay Lines
 1232              		.loc 4 125 9 is_stmt 1 view .LVU364
 1233              	.LBB603:
 1234              	.LBI603:
  62:../../../DaisySP//Source/Utility/delayline.h ****     {
 1235              		.loc 6 62 17 view .LVU365
 1236              	.LBB604:
  64:../../../DaisySP//Source/Utility/delayline.h ****         write_ptr_        = (write_ptr_ - 1 + max_size) % max_size;
 1237              		.loc 6 64 15 is_stmt 0 view .LVU366
 1238 021a 05F50052 		add	r2, r5, #8192
 1239 021e D2F89035 		ldr	r3, [r2, #1424]
  64:../../../DaisySP//Source/Utility/delayline.h ****         write_ptr_        = (write_ptr_ - 1 + max_size) % max_size;
 1240              		.loc 6 64 27 view .LVU367
 1241 0222 02EB8300 		add	r0, r2, r3, lsl #2
  65:../../../DaisySP//Source/Utility/delayline.h ****     }
 1242              		.loc 6 65 45 view .LVU368
 1243 0226 03F65F13 		addw	r3, r3, #2399
  64:../../../DaisySP//Source/Utility/delayline.h ****         write_ptr_        = (write_ptr_ - 1 + max_size) % max_size;
 1244              		.loc 6 64 27 view .LVU369
 1245 022a 00F29450 		addw	r0, r0, #1428
 1246 022e C0F804C0 		str	ip, [r0, #4]	@ float
  65:../../../DaisySP//Source/Utility/delayline.h ****     }
 1247              		.loc 6 65 57 view .LVU370
 1248 0232 B3FBF1F0 		udiv	r0, r3, r1
 1249 0236 01FB1033 		mls	r3, r1, r0, r3
 1250              	.LBE604:
 1251              	.LBE603:
 128:../../../DaisySP//Source/Effects/pitchshifter.h ****         d_[1].SetDelay(mod_[1] + mod_b_amt_);
ARM GAS  /var/folders/wz/z09yph4n0qj4t7mjxhl6ttn80000gn/T//ccNJmc12.s 			page 44


 1252              		.loc 4 128 23 view .LVU371
 1253 023a 2846     		mov	r0, r5
 1254              	.LBB606:
 1255              	.LBB605:
  65:../../../DaisySP//Source/Utility/delayline.h ****     }
 1256              		.loc 6 65 27 view .LVU372
 1257 023c C2F89035 		str	r3, [r2, #1424]
 1258              	.LVL76:
  65:../../../DaisySP//Source/Utility/delayline.h ****     }
 1259              		.loc 6 65 27 view .LVU373
 1260              	.LBE605:
 1261              	.LBE606:
 128:../../../DaisySP//Source/Effects/pitchshifter.h ****         d_[1].SetDelay(mod_[1] + mod_b_amt_);
 1262              		.loc 4 128 9 is_stmt 1 view .LVU374
 128:../../../DaisySP//Source/Effects/pitchshifter.h ****         d_[1].SetDelay(mod_[1] + mod_b_amt_);
 1263              		.loc 4 128 23 is_stmt 0 view .LVU375
 1264 0240 FFF7FEFF 		bl	_ZN7daisysp9DelayLineIfLj2400EE8SetDelayEf
 1265              	.LVL77:
 129:../../../DaisySP//Source/Effects/pitchshifter.h ****         d_[0].SetDelay(mod_[0] + slewed_mod_[0]);
 1266              		.loc 4 129 9 is_stmt 1 view .LVU376
 129:../../../DaisySP//Source/Effects/pitchshifter.h ****         d_[0].SetDelay(mod_[0] + slewed_mod_[0]);
 1267              		.loc 4 129 34 is_stmt 0 view .LVU377
 1268 0244 04F66C33 		addw	r3, r4, #2924
 129:../../../DaisySP//Source/Effects/pitchshifter.h ****         d_[0].SetDelay(mod_[0] + slewed_mod_[0]);
 1269              		.loc 4 129 23 view .LVU378
 1270 0248 97ED000A 		vldr.32	s0, [r7]
 1271 024c 3046     		mov	r0, r6
 1272 024e D3ED007A 		vldr.32	s15, [r3]
 1273 0252 30EE270A 		vadd.f32	s0, s0, s15
 1274 0256 FFF7FEFF 		bl	_ZN7daisysp9DelayLineIfLj2400EE8SetDelayEf
 1275              	.LVL78:
 130:../../../DaisySP//Source/Effects/pitchshifter.h ****         d_[1].SetDelay(mod_[1] + slewed_mod_[1]);
 1276              		.loc 4 130 9 is_stmt 1 view .LVU379
 130:../../../DaisySP//Source/Effects/pitchshifter.h ****         d_[1].SetDelay(mod_[1] + slewed_mod_[1]);
 1277              		.loc 4 130 47 is_stmt 0 view .LVU380
 1278 025a 04F67833 		addw	r3, r4, #2936
 130:../../../DaisySP//Source/Effects/pitchshifter.h ****         d_[1].SetDelay(mod_[1] + slewed_mod_[1]);
 1279              		.loc 4 130 23 view .LVU381
 1280 025e 9AED000A 		vldr.32	s0, [r10]
 131:../../../DaisySP//Source/Effects/pitchshifter.h ****         val = 0.0f;
 1281              		.loc 4 131 47 view .LVU382
 1282 0262 04F67C34 		addw	r4, r4, #2940
 130:../../../DaisySP//Source/Effects/pitchshifter.h ****         d_[1].SetDelay(mod_[1] + slewed_mod_[1]);
 1283              		.loc 4 130 23 view .LVU383
 1284 0266 D3ED007A 		vldr.32	s15, [r3]
 1285 026a 2846     		mov	r0, r5
 1286 026c 30EE270A 		vadd.f32	s0, s0, s15
 1287 0270 FFF7FEFF 		bl	_ZN7daisysp9DelayLineIfLj2400EE8SetDelayEf
 1288              	.LVL79:
 131:../../../DaisySP//Source/Effects/pitchshifter.h ****         val = 0.0f;
 1289              		.loc 4 131 9 is_stmt 1 view .LVU384
 131:../../../DaisySP//Source/Effects/pitchshifter.h ****         val = 0.0f;
 1290              		.loc 4 131 23 is_stmt 0 view .LVU385
 1291 0274 D4ED007A 		vldr.32	s15, [r4]
 1292 0278 97ED000A 		vldr.32	s0, [r7]
 1293 027c 3046     		mov	r0, r6
 1294 027e 30EE270A 		vadd.f32	s0, s0, s15
ARM GAS  /var/folders/wz/z09yph4n0qj4t7mjxhl6ttn80000gn/T//ccNJmc12.s 			page 45


 1295 0282 FFF7FEFF 		bl	_ZN7daisysp9DelayLineIfLj2400EE8SetDelayEf
 1296              	.LVL80:
 132:../../../DaisySP//Source/Effects/pitchshifter.h ****         val += (d_[0].Read() * gain_[0]);
 1297              		.loc 4 132 9 is_stmt 1 view .LVU386
 133:../../../DaisySP//Source/Effects/pitchshifter.h ****         val += (d_[1].Read() * gain_[1]);
 1298              		.loc 4 133 9 view .LVU387
 133:../../../DaisySP//Source/Effects/pitchshifter.h ****         val += (d_[1].Read() * gain_[1]);
 1299              		.loc 4 133 27 is_stmt 0 view .LVU388
 1300 0286 2846     		mov	r0, r5
 1301 0288 FFF7FEFF 		bl	_ZNK7daisysp9DelayLineIfLj2400EE4ReadEv
 1302              	.LVL81:
 133:../../../DaisySP//Source/Effects/pitchshifter.h ****         val += (d_[1].Read() * gain_[1]);
 1303              		.loc 4 133 13 view .LVU389
 1304 028c D9ED007A 		vldr.32	s15, [r9]
 134:../../../DaisySP//Source/Effects/pitchshifter.h ****         return val;
 1305              		.loc 4 134 27 view .LVU390
 1306 0290 3046     		mov	r0, r6
 133:../../../DaisySP//Source/Effects/pitchshifter.h ****         val += (d_[1].Read() * gain_[1]);
 1307              		.loc 4 133 13 view .LVU391
 1308 0292 A0EE278A 		vfma.f32	s16, s0, s15
 1309              	.LVL82:
 134:../../../DaisySP//Source/Effects/pitchshifter.h ****         return val;
 1310              		.loc 4 134 9 is_stmt 1 view .LVU392
 134:../../../DaisySP//Source/Effects/pitchshifter.h ****         return val;
 1311              		.loc 4 134 27 is_stmt 0 view .LVU393
 1312 0296 FFF7FEFF 		bl	_ZNK7daisysp9DelayLineIfLj2400EE4ReadEv
 1313              	.LVL83:
 134:../../../DaisySP//Source/Effects/pitchshifter.h ****         return val;
 1314              		.loc 4 134 13 view .LVU394
 1315 029a D8ED007A 		vldr.32	s15, [r8]
 1316              	.LVL84:
 135:../../../DaisySP//Source/Effects/pitchshifter.h ****     }
 1317              		.loc 4 135 9 is_stmt 1 view .LVU395
 136:../../../DaisySP//Source/Effects/pitchshifter.h **** 
 1318              		.loc 4 136 5 is_stmt 0 view .LVU396
 1319 029e A0EE278A 		vfma.f32	s16, s0, s15
 1320              	.LVL85:
 136:../../../DaisySP//Source/Effects/pitchshifter.h **** 
 1321              		.loc 4 136 5 view .LVU397
 1322 02a2 B0EE480A 		vmov.f32	s0, s16
 1323 02a6 BDEC068B 		vldm	sp!, {d8-d10}
 1324              		.cfi_restore 84
 1325              		.cfi_restore 85
 1326              		.cfi_restore 82
 1327              		.cfi_restore 83
 1328              		.cfi_restore 80
 1329              		.cfi_restore 81
 1330              		.cfi_def_cfa_offset 32
 1331              	.LVL86:
 136:../../../DaisySP//Source/Effects/pitchshifter.h **** 
 1332              		.loc 4 136 5 view .LVU398
 1333 02aa BDE8F087 		pop	{r4, r5, r6, r7, r8, r9, r10, pc}
 1334              	.LVL87:
 1335              	.L47:
 136:../../../DaisySP//Source/Effects/pitchshifter.h **** 
 1336              		.loc 4 136 5 view .LVU399
 1337 02ae 00BF     		.align	2
ARM GAS  /var/folders/wz/z09yph4n0qj4t7mjxhl6ttn80000gn/T//ccNJmc12.s 			page 46


 1338              	.L46:
 1339 02b0 00007F43 		.word	1132396544
 1340 02b4 6F12833A 		.word	981668463
 1341 02b8 17B75139 		.word	961656599
 1342 02bc DB0F4940 		.word	1078530011
 1343 02c0 00000000 		.word	0
 1344              		.cfi_endproc
 1345              	.LFE4448:
 1347              		.section	.text._ZN10PitchShift7processEPPfj,"ax",%progbits
 1348              		.align	1
 1349              		.global	_ZN10PitchShift7processEPPfj
 1350              		.syntax unified
 1351              		.thumb
 1352              		.thumb_func
 1354              	_ZN10PitchShift7processEPPfj:
 1355              	.LVL88:
 1356              	.LFB5668:
  30:DSP/FX/PitchShift.cpp **** 
  31:DSP/FX/PitchShift.cpp **** void PitchShift::tick()
  32:DSP/FX/PitchShift.cpp **** {
  33:DSP/FX/PitchShift.cpp ****     //bypass.tick();
  34:DSP/FX/PitchShift.cpp ****     amount.param.tick();
  35:DSP/FX/PitchShift.cpp ****     semitones.tick();
  36:DSP/FX/PitchShift.cpp ****     rand.tick();
  37:DSP/FX/PitchShift.cpp **** }
  38:DSP/FX/PitchShift.cpp **** 
  39:DSP/FX/PitchShift.cpp **** void PitchShift::process(float* input[2], size_t size)
  40:DSP/FX/PitchShift.cpp **** {
 1357              		.loc 3 40 1 is_stmt 1 view -0
 1358              		.cfi_startproc
 1359              		@ args = 0, pretend = 0, frame = 8
 1360              		@ frame_needed = 0, uses_anonymous_args = 0
  41:DSP/FX/PitchShift.cpp ****     //if(bypass.value)
  42:DSP/FX/PitchShift.cpp ****         //return;
  43:DSP/FX/PitchShift.cpp **** 
  44:DSP/FX/PitchShift.cpp ****     for(size_t i = 0 ; i < size ; i++)
 1361              		.loc 3 44 5 view .LVU401
  40:DSP/FX/PitchShift.cpp ****     //if(bypass.value)
 1362              		.loc 3 40 1 is_stmt 0 view .LVU402
 1363 0000 2DE9F743 		push	{r0, r1, r2, r4, r5, r6, r7, r8, r9, lr}
 1364              		.cfi_def_cfa_offset 40
 1365              		.cfi_offset 4, -28
 1366              		.cfi_offset 5, -24
 1367              		.cfi_offset 6, -20
 1368              		.cfi_offset 7, -16
 1369              		.cfi_offset 8, -12
 1370              		.cfi_offset 9, -8
 1371              		.cfi_offset 14, -4
  40:DSP/FX/PitchShift.cpp ****     //if(bypass.value)
 1372              		.loc 3 40 1 view .LVU403
 1373 0004 0746     		mov	r7, r0
 1374 0006 0C46     		mov	r4, r1
 1375 0008 9046     		mov	r8, r2
 1376 000a 0646     		mov	r6, r0
 1377              	.LBB607:
 1378              		.loc 3 44 16 view .LVU404
 1379 000c 0025     		movs	r5, #0
ARM GAS  /var/folders/wz/z09yph4n0qj4t7mjxhl6ttn80000gn/T//ccNJmc12.s 			page 47


 1380              	.LVL89:
 1381              	.L50:
 1382              		.loc 3 44 26 is_stmt 1 discriminator 3 view .LVU405
 1383 000e 4545     		cmp	r5, r8
 1384 0010 38D0     		beq	.L48
  45:DSP/FX/PitchShift.cpp ****     {
  46:DSP/FX/PitchShift.cpp ****         buffer[L][i] = shifter.Process(input[L][i]);
 1385              		.loc 3 46 9 discriminator 2 view .LVU406
 1386              		.loc 3 46 50 is_stmt 0 discriminator 2 view .LVU407
 1387 0012 2168     		ldr	r1, [r4]
 1388              		.loc 3 46 39 discriminator 2 view .LVU408
 1389 0014 07F12000 		add	r0, r7, #32
 1390 0018 4FEA8509 		lsl	r9, r5, #2
 1391 001c 01EB8501 		add	r1, r1, r5, lsl #2
 1392 0020 0190     		str	r0, [sp, #4]
 1393 0022 FFF7FEFF 		bl	_ZN7daisysp12PitchShifter7ProcessERf
 1394              	.LVL90:
  47:DSP/FX/PitchShift.cpp ****         buffer[R][i] = shifter.Process(input[R][i]);
 1395              		.loc 3 47 50 discriminator 2 view .LVU409
 1396 0026 6168     		ldr	r1, [r4, #4]
  46:DSP/FX/PitchShift.cpp ****         buffer[R][i] = shifter.Process(input[R][i]);
 1397              		.loc 3 46 22 discriminator 2 view .LVU410
 1398 0028 A6EC010A 		vstmia.32	r6!, {s0}
 1399              		.loc 3 47 9 is_stmt 1 discriminator 2 view .LVU411
  44:DSP/FX/PitchShift.cpp ****     {
 1400              		.loc 3 44 5 is_stmt 0 discriminator 2 view .LVU412
 1401 002c 0135     		adds	r5, r5, #1
 1402              	.LVL91:
 1403              		.loc 3 47 39 discriminator 2 view .LVU413
 1404 002e 4944     		add	r1, r1, r9
 1405 0030 0198     		ldr	r0, [sp, #4]
 1406 0032 FFF7FEFF 		bl	_ZN7daisysp12PitchShifter7ProcessERf
 1407              	.LVL92:
  48:DSP/FX/PitchShift.cpp **** 
  49:DSP/FX/PitchShift.cpp ****         input[L][i] = (input[L][i] * (1.f - amount.value)) + (buffer[L][i] * amount.value);
 1408              		.loc 3 49 52 discriminator 2 view .LVU414
 1409 0036 07F59841 		add	r1, r7, #19456
 1410              		.loc 3 49 34 discriminator 2 view .LVU415
 1411 003a 2068     		ldr	r0, [r4]
 1412              		.loc 3 49 43 discriminator 2 view .LVU416
 1413 003c B7EE007A 		vmov.f32	s14, #1.0e+0
  47:DSP/FX/PitchShift.cpp **** 
 1414              		.loc 3 47 22 discriminator 2 view .LVU417
 1415 0040 86ED030A 		vstr.32	s0, [r6, #12]
 1416              		.loc 3 49 9 is_stmt 1 discriminator 2 view .LVU418
 1417              		.loc 3 49 76 is_stmt 0 discriminator 2 view .LVU419
 1418 0044 16ED016A 		vldr.32	s12, [r6, #-4]
 1419              		.loc 3 49 34 discriminator 2 view .LVU420
 1420 0048 4844     		add	r0, r0, r9
 1421              		.loc 3 49 52 discriminator 2 view .LVU421
 1422 004a D1ED0A7A 		vldr.32	s15, [r1, #40]
  50:DSP/FX/PitchShift.cpp ****         input[R][i] = (input[R][i] * (1.f - amount.value)) + (buffer[R][i] * amount.value);
 1423              		.loc 3 50 34 discriminator 2 view .LVU422
 1424 004e 6368     		ldr	r3, [r4, #4]
  49:DSP/FX/PitchShift.cpp ****         input[R][i] = (input[R][i] * (1.f - amount.value)) + (buffer[R][i] * amount.value);
 1425              		.loc 3 49 43 discriminator 2 view .LVU423
 1426 0050 77EE676A 		vsub.f32	s13, s14, s15
ARM GAS  /var/folders/wz/z09yph4n0qj4t7mjxhl6ttn80000gn/T//ccNJmc12.s 			page 48


  49:DSP/FX/PitchShift.cpp ****         input[R][i] = (input[R][i] * (1.f - amount.value)) + (buffer[R][i] * amount.value);
 1427              		.loc 3 49 76 discriminator 2 view .LVU424
 1428 0054 67EE867A 		vmul.f32	s15, s15, s12
  49:DSP/FX/PitchShift.cpp ****         input[R][i] = (input[R][i] * (1.f - amount.value)) + (buffer[R][i] * amount.value);
 1429              		.loc 3 49 60 discriminator 2 view .LVU425
 1430 0058 90ED006A 		vldr.32	s12, [r0]
 1431              		.loc 3 50 34 discriminator 2 view .LVU426
 1432 005c 4B44     		add	r3, r3, r9
  49:DSP/FX/PitchShift.cpp ****         input[R][i] = (input[R][i] * (1.f - amount.value)) + (buffer[R][i] * amount.value);
 1433              		.loc 3 49 60 discriminator 2 view .LVU427
 1434 005e E6EE267A 		vfma.f32	s15, s12, s13
  49:DSP/FX/PitchShift.cpp ****         input[R][i] = (input[R][i] * (1.f - amount.value)) + (buffer[R][i] * amount.value);
 1435              		.loc 3 49 21 discriminator 2 view .LVU428
 1436 0062 C0ED007A 		vstr.32	s15, [r0]
 1437              		.loc 3 50 9 is_stmt 1 discriminator 2 view .LVU429
 1438              		.loc 3 50 52 is_stmt 0 discriminator 2 view .LVU430
 1439 0066 D1ED0A7A 		vldr.32	s15, [r1, #40]
 1440              		.loc 3 50 76 discriminator 2 view .LVU431
 1441 006a D6ED036A 		vldr.32	s13, [r6, #12]
 1442              		.loc 3 50 43 discriminator 2 view .LVU432
 1443 006e 37EE677A 		vsub.f32	s14, s14, s15
 1444              		.loc 3 50 76 discriminator 2 view .LVU433
 1445 0072 67EEA67A 		vmul.f32	s15, s15, s13
 1446              		.loc 3 50 60 discriminator 2 view .LVU434
 1447 0076 D3ED006A 		vldr.32	s13, [r3]
 1448 007a E6EE877A 		vfma.f32	s15, s13, s14
 1449              		.loc 3 50 21 discriminator 2 view .LVU435
 1450 007e C3ED007A 		vstr.32	s15, [r3]
  44:DSP/FX/PitchShift.cpp ****     {
 1451              		.loc 3 44 5 is_stmt 1 discriminator 2 view .LVU436
 1452              	.LVL93:
  44:DSP/FX/PitchShift.cpp ****     {
 1453              		.loc 3 44 5 is_stmt 0 discriminator 2 view .LVU437
 1454 0082 C4E7     		b	.L50
 1455              	.L48:
  44:DSP/FX/PitchShift.cpp ****     {
 1456              		.loc 3 44 5 discriminator 2 view .LVU438
 1457              	.LBE607:
  51:DSP/FX/PitchShift.cpp ****     }
  52:DSP/FX/PitchShift.cpp **** }...
 1458              		.loc 3 52 1 view .LVU439
 1459 0084 03B0     		add	sp, sp, #12
 1460              		.cfi_def_cfa_offset 28
 1461              		@ sp needed
 1462 0086 BDE8F083 		pop	{r4, r5, r6, r7, r8, r9, pc}
 1463              		.loc 3 52 1 view .LVU440
 1464              		.cfi_endproc
 1465              	.LFE5668:
 1467              		.section	.text._ZN14AudioParameterIfE4tickEv,"axG",%progbits,_ZN14AudioParameterIfE4tickEv,comdat
 1468              		.align	1
 1469              		.weak	_ZN14AudioParameterIfE4tickEv
 1470              		.syntax unified
 1471              		.thumb
 1472              		.thumb_func
 1474              	_ZN14AudioParameterIfE4tickEv:
 1475              	.LVL94:
 1476              	.LFB5997:
ARM GAS  /var/folders/wz/z09yph4n0qj4t7mjxhl6ttn80000gn/T//ccNJmc12.s 			page 49


 1477              		.file 7 "DSP/FX/../../Parameters/AudioParameter.h"
   1:DSP/FX/../../Parameters/AudioParameter.h **** #ifndef AUDIOPARAMETER_H
   2:DSP/FX/../../Parameters/AudioParameter.h **** #define AUDIOPARAMETER_H
   3:DSP/FX/../../Parameters/AudioParameter.h **** 
   4:DSP/FX/../../Parameters/AudioParameter.h **** #include "daisy_seed.h"
   5:DSP/FX/../../Parameters/AudioParameter.h **** #include "daisysp.h"
   6:DSP/FX/../../Parameters/AudioParameter.h **** #include "../Utils/Helpers.h"
   7:DSP/FX/../../Parameters/AudioParameter.h **** #include "../Utils/Constants.h"
   8:DSP/FX/../../Parameters/AudioParameter.h **** #include <cstdint>
   9:DSP/FX/../../Parameters/AudioParameter.h **** #include <functional>
  10:DSP/FX/../../Parameters/AudioParameter.h **** #include <memory>
  11:DSP/FX/../../Parameters/AudioParameter.h **** #include <type_traits>
  12:DSP/FX/../../Parameters/AudioParameter.h **** 
  13:DSP/FX/../../Parameters/AudioParameter.h **** /*****************************************************************************//**
  14:DSP/FX/../../Parameters/AudioParameter.h ****  *  Class name: AudioParameter
  15:DSP/FX/../../Parameters/AudioParameter.h ****  *  Function: Parameter object for DSP classes that contains pot boilerplate code
  16:DSP/FX/../../Parameters/AudioParameter.h ****  ********************************************************************************/
  17:DSP/FX/../../Parameters/AudioParameter.h **** 
  18:DSP/FX/../../Parameters/AudioParameter.h **** using namespace daisy;
  19:DSP/FX/../../Parameters/AudioParameter.h **** 
  20:DSP/FX/../../Parameters/AudioParameter.h **** template <class type>
  21:DSP/FX/../../Parameters/AudioParameter.h **** class AudioParameter
  22:DSP/FX/../../Parameters/AudioParameter.h **** {
  23:DSP/FX/../../Parameters/AudioParameter.h **** public:
  24:DSP/FX/../../Parameters/AudioParameter.h **** 
  25:DSP/FX/../../Parameters/AudioParameter.h ****     void init(DaisySeed* seed, type mi, type ma, CurveType c, uint8_t ID, std::function<void(type)>
  26:DSP/FX/../../Parameters/AudioParameter.h ****     {
  27:DSP/FX/../../Parameters/AudioParameter.h ****         hw = seed;
  28:DSP/FX/../../Parameters/AudioParameter.h ****         input = 0;
  29:DSP/FX/../../Parameters/AudioParameter.h **** 
  30:DSP/FX/../../Parameters/AudioParameter.h ****         curVal = 0;
  31:DSP/FX/../../Parameters/AudioParameter.h ****         min = mi;
  32:DSP/FX/../../Parameters/AudioParameter.h ****         max = ma;
  33:DSP/FX/../../Parameters/AudioParameter.h **** 
  34:DSP/FX/../../Parameters/AudioParameter.h ****         curve = c;
  35:DSP/FX/../../Parameters/AudioParameter.h ****         channelID = ID;
  36:DSP/FX/../../Parameters/AudioParameter.h ****         callback = cb;
  37:DSP/FX/../../Parameters/AudioParameter.h ****     }
  38:DSP/FX/../../Parameters/AudioParameter.h ****     
  39:DSP/FX/../../Parameters/AudioParameter.h ****     inline void tick() 
 1478              		.loc 7 39 17 is_stmt 1 view -0
 1479              		.cfi_startproc
 1480              		@ args = 0, pretend = 0, frame = 8
 1481              		@ frame_needed = 0, uses_anonymous_args = 0
 1482              		.loc 7 39 17 is_stmt 0 view .LVU442
 1483 0000 13B5     		push	{r0, r1, r4, lr}
 1484              		.cfi_def_cfa_offset 16
 1485              		.cfi_offset 4, -8
 1486              		.cfi_offset 14, -4
 1487              		.loc 7 39 17 view .LVU443
 1488 0002 0446     		mov	r4, r0
  40:DSP/FX/../../Parameters/AudioParameter.h ****     {
  41:DSP/FX/../../Parameters/AudioParameter.h ****         float newInput = hw->adc.GetFloat(channelID);
 1489              		.loc 7 41 42 view .LVU444
 1490 0004 0068     		ldr	r0, [r0]
 1491              	.LVL95:
 1492              		.loc 7 41 42 view .LVU445
ARM GAS  /var/folders/wz/z09yph4n0qj4t7mjxhl6ttn80000gn/T//ccNJmc12.s 			page 50


 1493 0006 217E     		ldrb	r1, [r4, #24]	@ zero_extendqisi2
 1494 0008 1830     		adds	r0, r0, #24
 1495 000a FFF7FEFF 		bl	_ZNK5daisy9AdcHandle8GetFloatEh
 1496              	.LVL96:
  42:DSP/FX/../../Parameters/AudioParameter.h ****         if(newInput > (input + jitter) || newInput < (input - jitter))
 1497              		.loc 7 42 24 view .LVU446
 1498 000e D4ED017A 		vldr.32	s15, [r4, #4]
 1499              		.loc 7 42 32 view .LVU447
 1500 0012 94ED027A 		vldr.32	s14, [r4, #8]
 1501              		.loc 7 42 30 view .LVU448
 1502 0016 77EE876A 		vadd.f32	s13, s15, s14
 1503              		.loc 7 42 9 view .LVU449
 1504 001a F4EEC06A 		vcmpe.f32	s13, s0
 1505 001e F1EE10FA 		vmrs	APSR_nzcv, FPSCR
 1506 0022 06D4     		bmi	.L52
 1507              		.loc 7 42 61 discriminator 1 view .LVU450
 1508 0024 77EEC77A 		vsub.f32	s15, s15, s14
 1509              		.loc 7 42 40 discriminator 1 view .LVU451
 1510 0028 F4EEC07A 		vcmpe.f32	s15, s0
 1511 002c F1EE10FA 		vmrs	APSR_nzcv, FPSCR
 1512 0030 20DD     		ble	.L51
 1513              	.L52:
 1514              	.LBB616:
 1515              	.LBB617:
  43:DSP/FX/../../Parameters/AudioParameter.h ****         {
  44:DSP/FX/../../Parameters/AudioParameter.h ****             input = newInput;
  45:DSP/FX/../../Parameters/AudioParameter.h ****             processCurve();
  46:DSP/FX/../../Parameters/AudioParameter.h ****             callback(curVal);
  47:DSP/FX/../../Parameters/AudioParameter.h ****         }
  48:DSP/FX/../../Parameters/AudioParameter.h ****     }
  49:DSP/FX/../../Parameters/AudioParameter.h **** 
  50:DSP/FX/../../Parameters/AudioParameter.h ****     void processCurve()
  51:DSP/FX/../../Parameters/AudioParameter.h ****     {
  52:DSP/FX/../../Parameters/AudioParameter.h ****         switch(curve)
 1516              		.loc 7 52 16 view .LVU452
 1517 0032 637E     		ldrb	r3, [r4, #25]	@ zero_extendqisi2
 1518              	.LBE617:
 1519              	.LBE616:
  44:DSP/FX/../../Parameters/AudioParameter.h ****             processCurve();
 1520              		.loc 7 44 19 view .LVU453
 1521 0034 84ED010A 		vstr.32	s0, [r4, #4]
 1522              	.LVL97:
 1523              	.LBB623:
 1524              	.LBI616:
  50:DSP/FX/../../Parameters/AudioParameter.h ****     {
 1525              		.loc 7 50 10 is_stmt 1 view .LVU454
 1526              	.LBB621:
 1527              		.loc 7 52 9 is_stmt 0 view .LVU455
 1528 0038 3BB1     		cbz	r3, .L55
 1529              		.loc 7 52 9 view .LVU456
 1530 003a 012B     		cmp	r3, #1
 1531 003c 10D0     		beq	.L56
 1532              	.LVL98:
 1533              	.L57:
 1534              		.loc 7 52 9 view .LVU457
 1535 003e E368     		ldr	r3, [r4, #12]	@ float
 1536 0040 0193     		str	r3, [sp, #4]	@ float
ARM GAS  /var/folders/wz/z09yph4n0qj4t7mjxhl6ttn80000gn/T//ccNJmc12.s 			page 51


 1537              	.LVL99:
 1538              		.loc 7 52 9 view .LVU458
 1539              	.LBE621:
 1540              	.LBE623:
 1541              	.LBB624:
 1542              	.LBI624:
 294:/Library/DaisyToolchain/0.2.0/arm/arm-none-eabi/include/c++/10.3.1/bits/std_function.h ****     };
 295:/Library/DaisyToolchain/0.2.0/arm/arm-none-eabi/include/c++/10.3.1/bits/std_function.h **** 
 296:/Library/DaisyToolchain/0.2.0/arm/arm-none-eabi/include/c++/10.3.1/bits/std_function.h ****   /**
 297:/Library/DaisyToolchain/0.2.0/arm/arm-none-eabi/include/c++/10.3.1/bits/std_function.h ****    *  @brief Primary class template for std::function.
 298:/Library/DaisyToolchain/0.2.0/arm/arm-none-eabi/include/c++/10.3.1/bits/std_function.h ****    *  @ingroup functors
 299:/Library/DaisyToolchain/0.2.0/arm/arm-none-eabi/include/c++/10.3.1/bits/std_function.h ****    *
 300:/Library/DaisyToolchain/0.2.0/arm/arm-none-eabi/include/c++/10.3.1/bits/std_function.h ****    *  Polymorphic function wrapper.
 301:/Library/DaisyToolchain/0.2.0/arm/arm-none-eabi/include/c++/10.3.1/bits/std_function.h ****    */
 302:/Library/DaisyToolchain/0.2.0/arm/arm-none-eabi/include/c++/10.3.1/bits/std_function.h ****   template<typename _Res, typename... _ArgTypes>
 303:/Library/DaisyToolchain/0.2.0/arm/arm-none-eabi/include/c++/10.3.1/bits/std_function.h ****     class function<_Res(_ArgTypes...)>
 304:/Library/DaisyToolchain/0.2.0/arm/arm-none-eabi/include/c++/10.3.1/bits/std_function.h ****     : public _Maybe_unary_or_binary_function<_Res, _ArgTypes...>,
 305:/Library/DaisyToolchain/0.2.0/arm/arm-none-eabi/include/c++/10.3.1/bits/std_function.h ****       private _Function_base
 306:/Library/DaisyToolchain/0.2.0/arm/arm-none-eabi/include/c++/10.3.1/bits/std_function.h ****     {
 307:/Library/DaisyToolchain/0.2.0/arm/arm-none-eabi/include/c++/10.3.1/bits/std_function.h ****       template<typename _Func,
 308:/Library/DaisyToolchain/0.2.0/arm/arm-none-eabi/include/c++/10.3.1/bits/std_function.h **** 	       typename _Res2 = __invoke_result<_Func&, _ArgTypes...>>
 309:/Library/DaisyToolchain/0.2.0/arm/arm-none-eabi/include/c++/10.3.1/bits/std_function.h **** 	struct _Callable
 310:/Library/DaisyToolchain/0.2.0/arm/arm-none-eabi/include/c++/10.3.1/bits/std_function.h **** 	: __is_invocable_impl<_Res2, _Res>::type
 311:/Library/DaisyToolchain/0.2.0/arm/arm-none-eabi/include/c++/10.3.1/bits/std_function.h **** 	{ };
 312:/Library/DaisyToolchain/0.2.0/arm/arm-none-eabi/include/c++/10.3.1/bits/std_function.h **** 
 313:/Library/DaisyToolchain/0.2.0/arm/arm-none-eabi/include/c++/10.3.1/bits/std_function.h ****       // Used so the return type convertibility checks aren't done when
 314:/Library/DaisyToolchain/0.2.0/arm/arm-none-eabi/include/c++/10.3.1/bits/std_function.h ****       // performing overload resolution for copy construction/assignment.
 315:/Library/DaisyToolchain/0.2.0/arm/arm-none-eabi/include/c++/10.3.1/bits/std_function.h ****       template<typename _Tp>
 316:/Library/DaisyToolchain/0.2.0/arm/arm-none-eabi/include/c++/10.3.1/bits/std_function.h **** 	struct _Callable<function, _Tp> : false_type { };
 317:/Library/DaisyToolchain/0.2.0/arm/arm-none-eabi/include/c++/10.3.1/bits/std_function.h **** 
 318:/Library/DaisyToolchain/0.2.0/arm/arm-none-eabi/include/c++/10.3.1/bits/std_function.h ****       template<typename _Cond, typename _Tp>
 319:/Library/DaisyToolchain/0.2.0/arm/arm-none-eabi/include/c++/10.3.1/bits/std_function.h **** 	using _Requires = typename enable_if<_Cond::value, _Tp>::type;
 320:/Library/DaisyToolchain/0.2.0/arm/arm-none-eabi/include/c++/10.3.1/bits/std_function.h **** 
 321:/Library/DaisyToolchain/0.2.0/arm/arm-none-eabi/include/c++/10.3.1/bits/std_function.h ****     public:
 322:/Library/DaisyToolchain/0.2.0/arm/arm-none-eabi/include/c++/10.3.1/bits/std_function.h ****       typedef _Res result_type;
 323:/Library/DaisyToolchain/0.2.0/arm/arm-none-eabi/include/c++/10.3.1/bits/std_function.h **** 
 324:/Library/DaisyToolchain/0.2.0/arm/arm-none-eabi/include/c++/10.3.1/bits/std_function.h ****       // [3.7.2.1] construct/copy/destroy
 325:/Library/DaisyToolchain/0.2.0/arm/arm-none-eabi/include/c++/10.3.1/bits/std_function.h **** 
 326:/Library/DaisyToolchain/0.2.0/arm/arm-none-eabi/include/c++/10.3.1/bits/std_function.h ****       /**
 327:/Library/DaisyToolchain/0.2.0/arm/arm-none-eabi/include/c++/10.3.1/bits/std_function.h ****        *  @brief Default construct creates an empty function call wrapper.
 328:/Library/DaisyToolchain/0.2.0/arm/arm-none-eabi/include/c++/10.3.1/bits/std_function.h ****        *  @post @c !(bool)*this
 329:/Library/DaisyToolchain/0.2.0/arm/arm-none-eabi/include/c++/10.3.1/bits/std_function.h ****        */
 330:/Library/DaisyToolchain/0.2.0/arm/arm-none-eabi/include/c++/10.3.1/bits/std_function.h ****       function() noexcept
 331:/Library/DaisyToolchain/0.2.0/arm/arm-none-eabi/include/c++/10.3.1/bits/std_function.h ****       : _Function_base() { }
 332:/Library/DaisyToolchain/0.2.0/arm/arm-none-eabi/include/c++/10.3.1/bits/std_function.h **** 
 333:/Library/DaisyToolchain/0.2.0/arm/arm-none-eabi/include/c++/10.3.1/bits/std_function.h ****       /**
 334:/Library/DaisyToolchain/0.2.0/arm/arm-none-eabi/include/c++/10.3.1/bits/std_function.h ****        *  @brief Creates an empty function call wrapper.
 335:/Library/DaisyToolchain/0.2.0/arm/arm-none-eabi/include/c++/10.3.1/bits/std_function.h ****        *  @post @c !(bool)*this
 336:/Library/DaisyToolchain/0.2.0/arm/arm-none-eabi/include/c++/10.3.1/bits/std_function.h ****        */
 337:/Library/DaisyToolchain/0.2.0/arm/arm-none-eabi/include/c++/10.3.1/bits/std_function.h ****       function(nullptr_t) noexcept
 338:/Library/DaisyToolchain/0.2.0/arm/arm-none-eabi/include/c++/10.3.1/bits/std_function.h ****       : _Function_base() { }
 339:/Library/DaisyToolchain/0.2.0/arm/arm-none-eabi/include/c++/10.3.1/bits/std_function.h **** 
 340:/Library/DaisyToolchain/0.2.0/arm/arm-none-eabi/include/c++/10.3.1/bits/std_function.h ****       /**
 341:/Library/DaisyToolchain/0.2.0/arm/arm-none-eabi/include/c++/10.3.1/bits/std_function.h ****        *  @brief %Function copy constructor.
 342:/Library/DaisyToolchain/0.2.0/arm/arm-none-eabi/include/c++/10.3.1/bits/std_function.h ****        *  @param __x A %function object with identical call signature.
 343:/Library/DaisyToolchain/0.2.0/arm/arm-none-eabi/include/c++/10.3.1/bits/std_function.h ****        *  @post @c bool(*this) == bool(__x)
 344:/Library/DaisyToolchain/0.2.0/arm/arm-none-eabi/include/c++/10.3.1/bits/std_function.h ****        *
ARM GAS  /var/folders/wz/z09yph4n0qj4t7mjxhl6ttn80000gn/T//ccNJmc12.s 			page 52


 345:/Library/DaisyToolchain/0.2.0/arm/arm-none-eabi/include/c++/10.3.1/bits/std_function.h ****        *  The newly-created %function contains a copy of the target of @a
 346:/Library/DaisyToolchain/0.2.0/arm/arm-none-eabi/include/c++/10.3.1/bits/std_function.h ****        *  __x (if it has one).
 347:/Library/DaisyToolchain/0.2.0/arm/arm-none-eabi/include/c++/10.3.1/bits/std_function.h ****        */
 348:/Library/DaisyToolchain/0.2.0/arm/arm-none-eabi/include/c++/10.3.1/bits/std_function.h ****       function(const function& __x);
 349:/Library/DaisyToolchain/0.2.0/arm/arm-none-eabi/include/c++/10.3.1/bits/std_function.h **** 
 350:/Library/DaisyToolchain/0.2.0/arm/arm-none-eabi/include/c++/10.3.1/bits/std_function.h ****       /**
 351:/Library/DaisyToolchain/0.2.0/arm/arm-none-eabi/include/c++/10.3.1/bits/std_function.h ****        *  @brief %Function move constructor.
 352:/Library/DaisyToolchain/0.2.0/arm/arm-none-eabi/include/c++/10.3.1/bits/std_function.h ****        *  @param __x A %function object rvalue with identical call signature.
 353:/Library/DaisyToolchain/0.2.0/arm/arm-none-eabi/include/c++/10.3.1/bits/std_function.h ****        *
 354:/Library/DaisyToolchain/0.2.0/arm/arm-none-eabi/include/c++/10.3.1/bits/std_function.h ****        *  The newly-created %function contains the target of @a __x
 355:/Library/DaisyToolchain/0.2.0/arm/arm-none-eabi/include/c++/10.3.1/bits/std_function.h ****        *  (if it has one).
 356:/Library/DaisyToolchain/0.2.0/arm/arm-none-eabi/include/c++/10.3.1/bits/std_function.h ****        */
 357:/Library/DaisyToolchain/0.2.0/arm/arm-none-eabi/include/c++/10.3.1/bits/std_function.h ****       function(function&& __x) noexcept : _Function_base()
 358:/Library/DaisyToolchain/0.2.0/arm/arm-none-eabi/include/c++/10.3.1/bits/std_function.h ****       {
 359:/Library/DaisyToolchain/0.2.0/arm/arm-none-eabi/include/c++/10.3.1/bits/std_function.h **** 	__x.swap(*this);
 360:/Library/DaisyToolchain/0.2.0/arm/arm-none-eabi/include/c++/10.3.1/bits/std_function.h ****       }
 361:/Library/DaisyToolchain/0.2.0/arm/arm-none-eabi/include/c++/10.3.1/bits/std_function.h **** 
 362:/Library/DaisyToolchain/0.2.0/arm/arm-none-eabi/include/c++/10.3.1/bits/std_function.h ****       /**
 363:/Library/DaisyToolchain/0.2.0/arm/arm-none-eabi/include/c++/10.3.1/bits/std_function.h ****        *  @brief Builds a %function that targets a copy of the incoming
 364:/Library/DaisyToolchain/0.2.0/arm/arm-none-eabi/include/c++/10.3.1/bits/std_function.h ****        *  function object.
 365:/Library/DaisyToolchain/0.2.0/arm/arm-none-eabi/include/c++/10.3.1/bits/std_function.h ****        *  @param __f A %function object that is callable with parameters of
 366:/Library/DaisyToolchain/0.2.0/arm/arm-none-eabi/include/c++/10.3.1/bits/std_function.h ****        *  type @c T1, @c T2, ..., @c TN and returns a value convertible
 367:/Library/DaisyToolchain/0.2.0/arm/arm-none-eabi/include/c++/10.3.1/bits/std_function.h ****        *  to @c Res.
 368:/Library/DaisyToolchain/0.2.0/arm/arm-none-eabi/include/c++/10.3.1/bits/std_function.h ****        *
 369:/Library/DaisyToolchain/0.2.0/arm/arm-none-eabi/include/c++/10.3.1/bits/std_function.h ****        *  The newly-created %function object will target a copy of
 370:/Library/DaisyToolchain/0.2.0/arm/arm-none-eabi/include/c++/10.3.1/bits/std_function.h ****        *  @a __f. If @a __f is @c reference_wrapper<F>, then this function
 371:/Library/DaisyToolchain/0.2.0/arm/arm-none-eabi/include/c++/10.3.1/bits/std_function.h ****        *  object will contain a reference to the function object @c
 372:/Library/DaisyToolchain/0.2.0/arm/arm-none-eabi/include/c++/10.3.1/bits/std_function.h ****        *  __f.get(). If @a __f is a NULL function pointer or NULL
 373:/Library/DaisyToolchain/0.2.0/arm/arm-none-eabi/include/c++/10.3.1/bits/std_function.h ****        *  pointer-to-member, the newly-created object will be empty.
 374:/Library/DaisyToolchain/0.2.0/arm/arm-none-eabi/include/c++/10.3.1/bits/std_function.h ****        *
 375:/Library/DaisyToolchain/0.2.0/arm/arm-none-eabi/include/c++/10.3.1/bits/std_function.h ****        *  If @a __f is a non-NULL function pointer or an object of type @c
 376:/Library/DaisyToolchain/0.2.0/arm/arm-none-eabi/include/c++/10.3.1/bits/std_function.h ****        *  reference_wrapper<F>, this function will not throw.
 377:/Library/DaisyToolchain/0.2.0/arm/arm-none-eabi/include/c++/10.3.1/bits/std_function.h ****        */
 378:/Library/DaisyToolchain/0.2.0/arm/arm-none-eabi/include/c++/10.3.1/bits/std_function.h ****       template<typename _Functor,
 379:/Library/DaisyToolchain/0.2.0/arm/arm-none-eabi/include/c++/10.3.1/bits/std_function.h **** 	       typename = _Requires<__not_<is_same<_Functor, function>>, void>,
 380:/Library/DaisyToolchain/0.2.0/arm/arm-none-eabi/include/c++/10.3.1/bits/std_function.h **** 	       typename = _Requires<_Callable<_Functor>, void>>
 381:/Library/DaisyToolchain/0.2.0/arm/arm-none-eabi/include/c++/10.3.1/bits/std_function.h **** 	function(_Functor);
 382:/Library/DaisyToolchain/0.2.0/arm/arm-none-eabi/include/c++/10.3.1/bits/std_function.h **** 
 383:/Library/DaisyToolchain/0.2.0/arm/arm-none-eabi/include/c++/10.3.1/bits/std_function.h ****       /**
 384:/Library/DaisyToolchain/0.2.0/arm/arm-none-eabi/include/c++/10.3.1/bits/std_function.h ****        *  @brief %Function assignment operator.
 385:/Library/DaisyToolchain/0.2.0/arm/arm-none-eabi/include/c++/10.3.1/bits/std_function.h ****        *  @param __x A %function with identical call signature.
 386:/Library/DaisyToolchain/0.2.0/arm/arm-none-eabi/include/c++/10.3.1/bits/std_function.h ****        *  @post @c (bool)*this == (bool)x
 387:/Library/DaisyToolchain/0.2.0/arm/arm-none-eabi/include/c++/10.3.1/bits/std_function.h ****        *  @returns @c *this
 388:/Library/DaisyToolchain/0.2.0/arm/arm-none-eabi/include/c++/10.3.1/bits/std_function.h ****        *
 389:/Library/DaisyToolchain/0.2.0/arm/arm-none-eabi/include/c++/10.3.1/bits/std_function.h ****        *  The target of @a __x is copied to @c *this. If @a __x has no
 390:/Library/DaisyToolchain/0.2.0/arm/arm-none-eabi/include/c++/10.3.1/bits/std_function.h ****        *  target, then @c *this will be empty.
 391:/Library/DaisyToolchain/0.2.0/arm/arm-none-eabi/include/c++/10.3.1/bits/std_function.h ****        *
 392:/Library/DaisyToolchain/0.2.0/arm/arm-none-eabi/include/c++/10.3.1/bits/std_function.h ****        *  If @a __x targets a function pointer or a reference to a function
 393:/Library/DaisyToolchain/0.2.0/arm/arm-none-eabi/include/c++/10.3.1/bits/std_function.h ****        *  object, then this operation will not throw an %exception.
 394:/Library/DaisyToolchain/0.2.0/arm/arm-none-eabi/include/c++/10.3.1/bits/std_function.h ****        */
 395:/Library/DaisyToolchain/0.2.0/arm/arm-none-eabi/include/c++/10.3.1/bits/std_function.h ****       function&
 396:/Library/DaisyToolchain/0.2.0/arm/arm-none-eabi/include/c++/10.3.1/bits/std_function.h ****       operator=(const function& __x)
 397:/Library/DaisyToolchain/0.2.0/arm/arm-none-eabi/include/c++/10.3.1/bits/std_function.h ****       {
 398:/Library/DaisyToolchain/0.2.0/arm/arm-none-eabi/include/c++/10.3.1/bits/std_function.h **** 	function(__x).swap(*this);
 399:/Library/DaisyToolchain/0.2.0/arm/arm-none-eabi/include/c++/10.3.1/bits/std_function.h **** 	return *this;
 400:/Library/DaisyToolchain/0.2.0/arm/arm-none-eabi/include/c++/10.3.1/bits/std_function.h ****       }
 401:/Library/DaisyToolchain/0.2.0/arm/arm-none-eabi/include/c++/10.3.1/bits/std_function.h **** 
ARM GAS  /var/folders/wz/z09yph4n0qj4t7mjxhl6ttn80000gn/T//ccNJmc12.s 			page 53


 402:/Library/DaisyToolchain/0.2.0/arm/arm-none-eabi/include/c++/10.3.1/bits/std_function.h ****       /**
 403:/Library/DaisyToolchain/0.2.0/arm/arm-none-eabi/include/c++/10.3.1/bits/std_function.h ****        *  @brief %Function move-assignment operator.
 404:/Library/DaisyToolchain/0.2.0/arm/arm-none-eabi/include/c++/10.3.1/bits/std_function.h ****        *  @param __x A %function rvalue with identical call signature.
 405:/Library/DaisyToolchain/0.2.0/arm/arm-none-eabi/include/c++/10.3.1/bits/std_function.h ****        *  @returns @c *this
 406:/Library/DaisyToolchain/0.2.0/arm/arm-none-eabi/include/c++/10.3.1/bits/std_function.h ****        *
 407:/Library/DaisyToolchain/0.2.0/arm/arm-none-eabi/include/c++/10.3.1/bits/std_function.h ****        *  The target of @a __x is moved to @c *this. If @a __x has no
 408:/Library/DaisyToolchain/0.2.0/arm/arm-none-eabi/include/c++/10.3.1/bits/std_function.h ****        *  target, then @c *this will be empty.
 409:/Library/DaisyToolchain/0.2.0/arm/arm-none-eabi/include/c++/10.3.1/bits/std_function.h ****        *
 410:/Library/DaisyToolchain/0.2.0/arm/arm-none-eabi/include/c++/10.3.1/bits/std_function.h ****        *  If @a __x targets a function pointer or a reference to a function
 411:/Library/DaisyToolchain/0.2.0/arm/arm-none-eabi/include/c++/10.3.1/bits/std_function.h ****        *  object, then this operation will not throw an %exception.
 412:/Library/DaisyToolchain/0.2.0/arm/arm-none-eabi/include/c++/10.3.1/bits/std_function.h ****        */
 413:/Library/DaisyToolchain/0.2.0/arm/arm-none-eabi/include/c++/10.3.1/bits/std_function.h ****       function&
 414:/Library/DaisyToolchain/0.2.0/arm/arm-none-eabi/include/c++/10.3.1/bits/std_function.h ****       operator=(function&& __x) noexcept
 415:/Library/DaisyToolchain/0.2.0/arm/arm-none-eabi/include/c++/10.3.1/bits/std_function.h ****       {
 416:/Library/DaisyToolchain/0.2.0/arm/arm-none-eabi/include/c++/10.3.1/bits/std_function.h **** 	function(std::move(__x)).swap(*this);
 417:/Library/DaisyToolchain/0.2.0/arm/arm-none-eabi/include/c++/10.3.1/bits/std_function.h **** 	return *this;
 418:/Library/DaisyToolchain/0.2.0/arm/arm-none-eabi/include/c++/10.3.1/bits/std_function.h ****       }
 419:/Library/DaisyToolchain/0.2.0/arm/arm-none-eabi/include/c++/10.3.1/bits/std_function.h **** 
 420:/Library/DaisyToolchain/0.2.0/arm/arm-none-eabi/include/c++/10.3.1/bits/std_function.h ****       /**
 421:/Library/DaisyToolchain/0.2.0/arm/arm-none-eabi/include/c++/10.3.1/bits/std_function.h ****        *  @brief %Function assignment to zero.
 422:/Library/DaisyToolchain/0.2.0/arm/arm-none-eabi/include/c++/10.3.1/bits/std_function.h ****        *  @post @c !(bool)*this
 423:/Library/DaisyToolchain/0.2.0/arm/arm-none-eabi/include/c++/10.3.1/bits/std_function.h ****        *  @returns @c *this
 424:/Library/DaisyToolchain/0.2.0/arm/arm-none-eabi/include/c++/10.3.1/bits/std_function.h ****        *
 425:/Library/DaisyToolchain/0.2.0/arm/arm-none-eabi/include/c++/10.3.1/bits/std_function.h ****        *  The target of @c *this is deallocated, leaving it empty.
 426:/Library/DaisyToolchain/0.2.0/arm/arm-none-eabi/include/c++/10.3.1/bits/std_function.h ****        */
 427:/Library/DaisyToolchain/0.2.0/arm/arm-none-eabi/include/c++/10.3.1/bits/std_function.h ****       function&
 428:/Library/DaisyToolchain/0.2.0/arm/arm-none-eabi/include/c++/10.3.1/bits/std_function.h ****       operator=(nullptr_t) noexcept
 429:/Library/DaisyToolchain/0.2.0/arm/arm-none-eabi/include/c++/10.3.1/bits/std_function.h ****       {
 430:/Library/DaisyToolchain/0.2.0/arm/arm-none-eabi/include/c++/10.3.1/bits/std_function.h **** 	if (_M_manager)
 431:/Library/DaisyToolchain/0.2.0/arm/arm-none-eabi/include/c++/10.3.1/bits/std_function.h **** 	  {
 432:/Library/DaisyToolchain/0.2.0/arm/arm-none-eabi/include/c++/10.3.1/bits/std_function.h **** 	    _M_manager(_M_functor, _M_functor, __destroy_functor);
 433:/Library/DaisyToolchain/0.2.0/arm/arm-none-eabi/include/c++/10.3.1/bits/std_function.h **** 	    _M_manager = nullptr;
 434:/Library/DaisyToolchain/0.2.0/arm/arm-none-eabi/include/c++/10.3.1/bits/std_function.h **** 	    _M_invoker = nullptr;
 435:/Library/DaisyToolchain/0.2.0/arm/arm-none-eabi/include/c++/10.3.1/bits/std_function.h **** 	  }
 436:/Library/DaisyToolchain/0.2.0/arm/arm-none-eabi/include/c++/10.3.1/bits/std_function.h **** 	return *this;
 437:/Library/DaisyToolchain/0.2.0/arm/arm-none-eabi/include/c++/10.3.1/bits/std_function.h ****       }
 438:/Library/DaisyToolchain/0.2.0/arm/arm-none-eabi/include/c++/10.3.1/bits/std_function.h **** 
 439:/Library/DaisyToolchain/0.2.0/arm/arm-none-eabi/include/c++/10.3.1/bits/std_function.h ****       /**
 440:/Library/DaisyToolchain/0.2.0/arm/arm-none-eabi/include/c++/10.3.1/bits/std_function.h ****        *  @brief %Function assignment to a new target.
 441:/Library/DaisyToolchain/0.2.0/arm/arm-none-eabi/include/c++/10.3.1/bits/std_function.h ****        *  @param __f A %function object that is callable with parameters of
 442:/Library/DaisyToolchain/0.2.0/arm/arm-none-eabi/include/c++/10.3.1/bits/std_function.h ****        *  type @c T1, @c T2, ..., @c TN and returns a value convertible
 443:/Library/DaisyToolchain/0.2.0/arm/arm-none-eabi/include/c++/10.3.1/bits/std_function.h ****        *  to @c Res.
 444:/Library/DaisyToolchain/0.2.0/arm/arm-none-eabi/include/c++/10.3.1/bits/std_function.h ****        *  @return @c *this
 445:/Library/DaisyToolchain/0.2.0/arm/arm-none-eabi/include/c++/10.3.1/bits/std_function.h ****        *
 446:/Library/DaisyToolchain/0.2.0/arm/arm-none-eabi/include/c++/10.3.1/bits/std_function.h ****        *  This  %function object wrapper will target a copy of @a
 447:/Library/DaisyToolchain/0.2.0/arm/arm-none-eabi/include/c++/10.3.1/bits/std_function.h ****        *  __f. If @a __f is @c reference_wrapper<F>, then this function
 448:/Library/DaisyToolchain/0.2.0/arm/arm-none-eabi/include/c++/10.3.1/bits/std_function.h ****        *  object will contain a reference to the function object @c
 449:/Library/DaisyToolchain/0.2.0/arm/arm-none-eabi/include/c++/10.3.1/bits/std_function.h ****        *  __f.get(). If @a __f is a NULL function pointer or NULL
 450:/Library/DaisyToolchain/0.2.0/arm/arm-none-eabi/include/c++/10.3.1/bits/std_function.h ****        *  pointer-to-member, @c this object will be empty.
 451:/Library/DaisyToolchain/0.2.0/arm/arm-none-eabi/include/c++/10.3.1/bits/std_function.h ****        *
 452:/Library/DaisyToolchain/0.2.0/arm/arm-none-eabi/include/c++/10.3.1/bits/std_function.h ****        *  If @a __f is a non-NULL function pointer or an object of type @c
 453:/Library/DaisyToolchain/0.2.0/arm/arm-none-eabi/include/c++/10.3.1/bits/std_function.h ****        *  reference_wrapper<F>, this function will not throw.
 454:/Library/DaisyToolchain/0.2.0/arm/arm-none-eabi/include/c++/10.3.1/bits/std_function.h ****        */
 455:/Library/DaisyToolchain/0.2.0/arm/arm-none-eabi/include/c++/10.3.1/bits/std_function.h ****       template<typename _Functor>
 456:/Library/DaisyToolchain/0.2.0/arm/arm-none-eabi/include/c++/10.3.1/bits/std_function.h **** 	_Requires<_Callable<typename decay<_Functor>::type>, function&>
 457:/Library/DaisyToolchain/0.2.0/arm/arm-none-eabi/include/c++/10.3.1/bits/std_function.h **** 	operator=(_Functor&& __f)
 458:/Library/DaisyToolchain/0.2.0/arm/arm-none-eabi/include/c++/10.3.1/bits/std_function.h **** 	{
ARM GAS  /var/folders/wz/z09yph4n0qj4t7mjxhl6ttn80000gn/T//ccNJmc12.s 			page 54


 459:/Library/DaisyToolchain/0.2.0/arm/arm-none-eabi/include/c++/10.3.1/bits/std_function.h **** 	  function(std::forward<_Functor>(__f)).swap(*this);
 460:/Library/DaisyToolchain/0.2.0/arm/arm-none-eabi/include/c++/10.3.1/bits/std_function.h **** 	  return *this;
 461:/Library/DaisyToolchain/0.2.0/arm/arm-none-eabi/include/c++/10.3.1/bits/std_function.h **** 	}
 462:/Library/DaisyToolchain/0.2.0/arm/arm-none-eabi/include/c++/10.3.1/bits/std_function.h **** 
 463:/Library/DaisyToolchain/0.2.0/arm/arm-none-eabi/include/c++/10.3.1/bits/std_function.h ****       /// @overload
 464:/Library/DaisyToolchain/0.2.0/arm/arm-none-eabi/include/c++/10.3.1/bits/std_function.h ****       template<typename _Functor>
 465:/Library/DaisyToolchain/0.2.0/arm/arm-none-eabi/include/c++/10.3.1/bits/std_function.h **** 	function&
 466:/Library/DaisyToolchain/0.2.0/arm/arm-none-eabi/include/c++/10.3.1/bits/std_function.h **** 	operator=(reference_wrapper<_Functor> __f) noexcept
 467:/Library/DaisyToolchain/0.2.0/arm/arm-none-eabi/include/c++/10.3.1/bits/std_function.h **** 	{
 468:/Library/DaisyToolchain/0.2.0/arm/arm-none-eabi/include/c++/10.3.1/bits/std_function.h **** 	  function(__f).swap(*this);
 469:/Library/DaisyToolchain/0.2.0/arm/arm-none-eabi/include/c++/10.3.1/bits/std_function.h **** 	  return *this;
 470:/Library/DaisyToolchain/0.2.0/arm/arm-none-eabi/include/c++/10.3.1/bits/std_function.h **** 	}
 471:/Library/DaisyToolchain/0.2.0/arm/arm-none-eabi/include/c++/10.3.1/bits/std_function.h **** 
 472:/Library/DaisyToolchain/0.2.0/arm/arm-none-eabi/include/c++/10.3.1/bits/std_function.h ****       // [3.7.2.2] function modifiers
 473:/Library/DaisyToolchain/0.2.0/arm/arm-none-eabi/include/c++/10.3.1/bits/std_function.h **** 
 474:/Library/DaisyToolchain/0.2.0/arm/arm-none-eabi/include/c++/10.3.1/bits/std_function.h ****       /**
 475:/Library/DaisyToolchain/0.2.0/arm/arm-none-eabi/include/c++/10.3.1/bits/std_function.h ****        *  @brief Swap the targets of two %function objects.
 476:/Library/DaisyToolchain/0.2.0/arm/arm-none-eabi/include/c++/10.3.1/bits/std_function.h ****        *  @param __x A %function with identical call signature.
 477:/Library/DaisyToolchain/0.2.0/arm/arm-none-eabi/include/c++/10.3.1/bits/std_function.h ****        *
 478:/Library/DaisyToolchain/0.2.0/arm/arm-none-eabi/include/c++/10.3.1/bits/std_function.h ****        *  Swap the targets of @c this function object and @a __f. This
 479:/Library/DaisyToolchain/0.2.0/arm/arm-none-eabi/include/c++/10.3.1/bits/std_function.h ****        *  function will not throw an %exception.
 480:/Library/DaisyToolchain/0.2.0/arm/arm-none-eabi/include/c++/10.3.1/bits/std_function.h ****        */
 481:/Library/DaisyToolchain/0.2.0/arm/arm-none-eabi/include/c++/10.3.1/bits/std_function.h ****       void swap(function& __x) noexcept
 482:/Library/DaisyToolchain/0.2.0/arm/arm-none-eabi/include/c++/10.3.1/bits/std_function.h ****       {
 483:/Library/DaisyToolchain/0.2.0/arm/arm-none-eabi/include/c++/10.3.1/bits/std_function.h **** 	std::swap(_M_functor, __x._M_functor);
 484:/Library/DaisyToolchain/0.2.0/arm/arm-none-eabi/include/c++/10.3.1/bits/std_function.h **** 	std::swap(_M_manager, __x._M_manager);
 485:/Library/DaisyToolchain/0.2.0/arm/arm-none-eabi/include/c++/10.3.1/bits/std_function.h **** 	std::swap(_M_invoker, __x._M_invoker);
 486:/Library/DaisyToolchain/0.2.0/arm/arm-none-eabi/include/c++/10.3.1/bits/std_function.h ****       }
 487:/Library/DaisyToolchain/0.2.0/arm/arm-none-eabi/include/c++/10.3.1/bits/std_function.h **** 
 488:/Library/DaisyToolchain/0.2.0/arm/arm-none-eabi/include/c++/10.3.1/bits/std_function.h ****       // [3.7.2.3] function capacity
 489:/Library/DaisyToolchain/0.2.0/arm/arm-none-eabi/include/c++/10.3.1/bits/std_function.h **** 
 490:/Library/DaisyToolchain/0.2.0/arm/arm-none-eabi/include/c++/10.3.1/bits/std_function.h ****       /**
 491:/Library/DaisyToolchain/0.2.0/arm/arm-none-eabi/include/c++/10.3.1/bits/std_function.h ****        *  @brief Determine if the %function wrapper has a target.
 492:/Library/DaisyToolchain/0.2.0/arm/arm-none-eabi/include/c++/10.3.1/bits/std_function.h ****        *
 493:/Library/DaisyToolchain/0.2.0/arm/arm-none-eabi/include/c++/10.3.1/bits/std_function.h ****        *  @return @c true when this %function object contains a target,
 494:/Library/DaisyToolchain/0.2.0/arm/arm-none-eabi/include/c++/10.3.1/bits/std_function.h ****        *  or @c false when it is empty.
 495:/Library/DaisyToolchain/0.2.0/arm/arm-none-eabi/include/c++/10.3.1/bits/std_function.h ****        *
 496:/Library/DaisyToolchain/0.2.0/arm/arm-none-eabi/include/c++/10.3.1/bits/std_function.h ****        *  This function will not throw an %exception.
 497:/Library/DaisyToolchain/0.2.0/arm/arm-none-eabi/include/c++/10.3.1/bits/std_function.h ****        */
 498:/Library/DaisyToolchain/0.2.0/arm/arm-none-eabi/include/c++/10.3.1/bits/std_function.h ****       explicit operator bool() const noexcept
 499:/Library/DaisyToolchain/0.2.0/arm/arm-none-eabi/include/c++/10.3.1/bits/std_function.h ****       { return !_M_empty(); }
 500:/Library/DaisyToolchain/0.2.0/arm/arm-none-eabi/include/c++/10.3.1/bits/std_function.h **** 
 501:/Library/DaisyToolchain/0.2.0/arm/arm-none-eabi/include/c++/10.3.1/bits/std_function.h ****       // [3.7.2.4] function invocation
 502:/Library/DaisyToolchain/0.2.0/arm/arm-none-eabi/include/c++/10.3.1/bits/std_function.h **** 
 503:/Library/DaisyToolchain/0.2.0/arm/arm-none-eabi/include/c++/10.3.1/bits/std_function.h ****       /**
 504:/Library/DaisyToolchain/0.2.0/arm/arm-none-eabi/include/c++/10.3.1/bits/std_function.h ****        *  @brief Invokes the function targeted by @c *this.
 505:/Library/DaisyToolchain/0.2.0/arm/arm-none-eabi/include/c++/10.3.1/bits/std_function.h ****        *  @returns the result of the target.
 506:/Library/DaisyToolchain/0.2.0/arm/arm-none-eabi/include/c++/10.3.1/bits/std_function.h ****        *  @throws bad_function_call when @c !(bool)*this
 507:/Library/DaisyToolchain/0.2.0/arm/arm-none-eabi/include/c++/10.3.1/bits/std_function.h ****        *
 508:/Library/DaisyToolchain/0.2.0/arm/arm-none-eabi/include/c++/10.3.1/bits/std_function.h ****        *  The function call operator invokes the target function object
 509:/Library/DaisyToolchain/0.2.0/arm/arm-none-eabi/include/c++/10.3.1/bits/std_function.h ****        *  stored by @c this.
 510:/Library/DaisyToolchain/0.2.0/arm/arm-none-eabi/include/c++/10.3.1/bits/std_function.h ****        */
 511:/Library/DaisyToolchain/0.2.0/arm/arm-none-eabi/include/c++/10.3.1/bits/std_function.h ****       _Res operator()(_ArgTypes... __args) const;
 512:/Library/DaisyToolchain/0.2.0/arm/arm-none-eabi/include/c++/10.3.1/bits/std_function.h **** 
 513:/Library/DaisyToolchain/0.2.0/arm/arm-none-eabi/include/c++/10.3.1/bits/std_function.h **** #if __cpp_rtti
 514:/Library/DaisyToolchain/0.2.0/arm/arm-none-eabi/include/c++/10.3.1/bits/std_function.h ****       // [3.7.2.5] function target access
 515:/Library/DaisyToolchain/0.2.0/arm/arm-none-eabi/include/c++/10.3.1/bits/std_function.h ****       /**
ARM GAS  /var/folders/wz/z09yph4n0qj4t7mjxhl6ttn80000gn/T//ccNJmc12.s 			page 55


 516:/Library/DaisyToolchain/0.2.0/arm/arm-none-eabi/include/c++/10.3.1/bits/std_function.h ****        *  @brief Determine the type of the target of this function object
 517:/Library/DaisyToolchain/0.2.0/arm/arm-none-eabi/include/c++/10.3.1/bits/std_function.h ****        *  wrapper.
 518:/Library/DaisyToolchain/0.2.0/arm/arm-none-eabi/include/c++/10.3.1/bits/std_function.h ****        *
 519:/Library/DaisyToolchain/0.2.0/arm/arm-none-eabi/include/c++/10.3.1/bits/std_function.h ****        *  @returns the type identifier of the target function object, or
 520:/Library/DaisyToolchain/0.2.0/arm/arm-none-eabi/include/c++/10.3.1/bits/std_function.h ****        *  @c typeid(void) if @c !(bool)*this.
 521:/Library/DaisyToolchain/0.2.0/arm/arm-none-eabi/include/c++/10.3.1/bits/std_function.h ****        *
 522:/Library/DaisyToolchain/0.2.0/arm/arm-none-eabi/include/c++/10.3.1/bits/std_function.h ****        *  This function will not throw an %exception.
 523:/Library/DaisyToolchain/0.2.0/arm/arm-none-eabi/include/c++/10.3.1/bits/std_function.h ****        */
 524:/Library/DaisyToolchain/0.2.0/arm/arm-none-eabi/include/c++/10.3.1/bits/std_function.h ****       const type_info& target_type() const noexcept;
 525:/Library/DaisyToolchain/0.2.0/arm/arm-none-eabi/include/c++/10.3.1/bits/std_function.h **** 
 526:/Library/DaisyToolchain/0.2.0/arm/arm-none-eabi/include/c++/10.3.1/bits/std_function.h ****       /**
 527:/Library/DaisyToolchain/0.2.0/arm/arm-none-eabi/include/c++/10.3.1/bits/std_function.h ****        *  @brief Access the stored target function object.
 528:/Library/DaisyToolchain/0.2.0/arm/arm-none-eabi/include/c++/10.3.1/bits/std_function.h ****        *
 529:/Library/DaisyToolchain/0.2.0/arm/arm-none-eabi/include/c++/10.3.1/bits/std_function.h ****        *  @return Returns a pointer to the stored target function object,
 530:/Library/DaisyToolchain/0.2.0/arm/arm-none-eabi/include/c++/10.3.1/bits/std_function.h ****        *  if @c typeid(_Functor).equals(target_type()); otherwise, a NULL
 531:/Library/DaisyToolchain/0.2.0/arm/arm-none-eabi/include/c++/10.3.1/bits/std_function.h ****        *  pointer.
 532:/Library/DaisyToolchain/0.2.0/arm/arm-none-eabi/include/c++/10.3.1/bits/std_function.h ****        *
 533:/Library/DaisyToolchain/0.2.0/arm/arm-none-eabi/include/c++/10.3.1/bits/std_function.h ****        * This function does not throw exceptions.
 534:/Library/DaisyToolchain/0.2.0/arm/arm-none-eabi/include/c++/10.3.1/bits/std_function.h ****        *
 535:/Library/DaisyToolchain/0.2.0/arm/arm-none-eabi/include/c++/10.3.1/bits/std_function.h ****        * @{
 536:/Library/DaisyToolchain/0.2.0/arm/arm-none-eabi/include/c++/10.3.1/bits/std_function.h ****        */
 537:/Library/DaisyToolchain/0.2.0/arm/arm-none-eabi/include/c++/10.3.1/bits/std_function.h ****       template<typename _Functor>       _Functor* target() noexcept;
 538:/Library/DaisyToolchain/0.2.0/arm/arm-none-eabi/include/c++/10.3.1/bits/std_function.h **** 
 539:/Library/DaisyToolchain/0.2.0/arm/arm-none-eabi/include/c++/10.3.1/bits/std_function.h ****       template<typename _Functor> const _Functor* target() const noexcept;
 540:/Library/DaisyToolchain/0.2.0/arm/arm-none-eabi/include/c++/10.3.1/bits/std_function.h ****       /// @}
 541:/Library/DaisyToolchain/0.2.0/arm/arm-none-eabi/include/c++/10.3.1/bits/std_function.h **** #endif
 542:/Library/DaisyToolchain/0.2.0/arm/arm-none-eabi/include/c++/10.3.1/bits/std_function.h **** 
 543:/Library/DaisyToolchain/0.2.0/arm/arm-none-eabi/include/c++/10.3.1/bits/std_function.h ****     private:
 544:/Library/DaisyToolchain/0.2.0/arm/arm-none-eabi/include/c++/10.3.1/bits/std_function.h ****       using _Invoker_type = _Res (*)(const _Any_data&, _ArgTypes&&...);
 545:/Library/DaisyToolchain/0.2.0/arm/arm-none-eabi/include/c++/10.3.1/bits/std_function.h ****       _Invoker_type _M_invoker;
 546:/Library/DaisyToolchain/0.2.0/arm/arm-none-eabi/include/c++/10.3.1/bits/std_function.h ****   };
 547:/Library/DaisyToolchain/0.2.0/arm/arm-none-eabi/include/c++/10.3.1/bits/std_function.h **** 
 548:/Library/DaisyToolchain/0.2.0/arm/arm-none-eabi/include/c++/10.3.1/bits/std_function.h **** #if __cpp_deduction_guides >= 201606
 549:/Library/DaisyToolchain/0.2.0/arm/arm-none-eabi/include/c++/10.3.1/bits/std_function.h ****   template<typename>
 550:/Library/DaisyToolchain/0.2.0/arm/arm-none-eabi/include/c++/10.3.1/bits/std_function.h ****     struct __function_guide_helper
 551:/Library/DaisyToolchain/0.2.0/arm/arm-none-eabi/include/c++/10.3.1/bits/std_function.h ****     { };
 552:/Library/DaisyToolchain/0.2.0/arm/arm-none-eabi/include/c++/10.3.1/bits/std_function.h **** 
 553:/Library/DaisyToolchain/0.2.0/arm/arm-none-eabi/include/c++/10.3.1/bits/std_function.h ****   template<typename _Res, typename _Tp, bool _Nx, typename... _Args>
 554:/Library/DaisyToolchain/0.2.0/arm/arm-none-eabi/include/c++/10.3.1/bits/std_function.h ****     struct __function_guide_helper<
 555:/Library/DaisyToolchain/0.2.0/arm/arm-none-eabi/include/c++/10.3.1/bits/std_function.h ****       _Res (_Tp::*) (_Args...) noexcept(_Nx)
 556:/Library/DaisyToolchain/0.2.0/arm/arm-none-eabi/include/c++/10.3.1/bits/std_function.h ****     >
 557:/Library/DaisyToolchain/0.2.0/arm/arm-none-eabi/include/c++/10.3.1/bits/std_function.h ****     { using type = _Res(_Args...); };
 558:/Library/DaisyToolchain/0.2.0/arm/arm-none-eabi/include/c++/10.3.1/bits/std_function.h **** 
 559:/Library/DaisyToolchain/0.2.0/arm/arm-none-eabi/include/c++/10.3.1/bits/std_function.h ****   template<typename _Res, typename _Tp, bool _Nx, typename... _Args>
 560:/Library/DaisyToolchain/0.2.0/arm/arm-none-eabi/include/c++/10.3.1/bits/std_function.h ****     struct __function_guide_helper<
 561:/Library/DaisyToolchain/0.2.0/arm/arm-none-eabi/include/c++/10.3.1/bits/std_function.h ****       _Res (_Tp::*) (_Args...) & noexcept(_Nx)
 562:/Library/DaisyToolchain/0.2.0/arm/arm-none-eabi/include/c++/10.3.1/bits/std_function.h ****     >
 563:/Library/DaisyToolchain/0.2.0/arm/arm-none-eabi/include/c++/10.3.1/bits/std_function.h ****     { using type = _Res(_Args...); };
 564:/Library/DaisyToolchain/0.2.0/arm/arm-none-eabi/include/c++/10.3.1/bits/std_function.h **** 
 565:/Library/DaisyToolchain/0.2.0/arm/arm-none-eabi/include/c++/10.3.1/bits/std_function.h ****   template<typename _Res, typename _Tp, bool _Nx, typename... _Args>
 566:/Library/DaisyToolchain/0.2.0/arm/arm-none-eabi/include/c++/10.3.1/bits/std_function.h ****     struct __function_guide_helper<
 567:/Library/DaisyToolchain/0.2.0/arm/arm-none-eabi/include/c++/10.3.1/bits/std_function.h ****       _Res (_Tp::*) (_Args...) const noexcept(_Nx)
 568:/Library/DaisyToolchain/0.2.0/arm/arm-none-eabi/include/c++/10.3.1/bits/std_function.h ****     >
 569:/Library/DaisyToolchain/0.2.0/arm/arm-none-eabi/include/c++/10.3.1/bits/std_function.h ****     { using type = _Res(_Args...); };
 570:/Library/DaisyToolchain/0.2.0/arm/arm-none-eabi/include/c++/10.3.1/bits/std_function.h **** 
 571:/Library/DaisyToolchain/0.2.0/arm/arm-none-eabi/include/c++/10.3.1/bits/std_function.h ****   template<typename _Res, typename _Tp, bool _Nx, typename... _Args>
 572:/Library/DaisyToolchain/0.2.0/arm/arm-none-eabi/include/c++/10.3.1/bits/std_function.h ****     struct __function_guide_helper<
ARM GAS  /var/folders/wz/z09yph4n0qj4t7mjxhl6ttn80000gn/T//ccNJmc12.s 			page 56


 573:/Library/DaisyToolchain/0.2.0/arm/arm-none-eabi/include/c++/10.3.1/bits/std_function.h ****       _Res (_Tp::*) (_Args...) const & noexcept(_Nx)
 574:/Library/DaisyToolchain/0.2.0/arm/arm-none-eabi/include/c++/10.3.1/bits/std_function.h ****     >
 575:/Library/DaisyToolchain/0.2.0/arm/arm-none-eabi/include/c++/10.3.1/bits/std_function.h ****     { using type = _Res(_Args...); };
 576:/Library/DaisyToolchain/0.2.0/arm/arm-none-eabi/include/c++/10.3.1/bits/std_function.h **** 
 577:/Library/DaisyToolchain/0.2.0/arm/arm-none-eabi/include/c++/10.3.1/bits/std_function.h ****   template<typename _Res, typename... _ArgTypes>
 578:/Library/DaisyToolchain/0.2.0/arm/arm-none-eabi/include/c++/10.3.1/bits/std_function.h ****     function(_Res(*)(_ArgTypes...)) -> function<_Res(_ArgTypes...)>;
 579:/Library/DaisyToolchain/0.2.0/arm/arm-none-eabi/include/c++/10.3.1/bits/std_function.h **** 
 580:/Library/DaisyToolchain/0.2.0/arm/arm-none-eabi/include/c++/10.3.1/bits/std_function.h ****   template<typename _Functor, typename _Signature = typename
 581:/Library/DaisyToolchain/0.2.0/arm/arm-none-eabi/include/c++/10.3.1/bits/std_function.h **** 	   __function_guide_helper<decltype(&_Functor::operator())>::type>
 582:/Library/DaisyToolchain/0.2.0/arm/arm-none-eabi/include/c++/10.3.1/bits/std_function.h ****     function(_Functor) -> function<_Signature>;
 583:/Library/DaisyToolchain/0.2.0/arm/arm-none-eabi/include/c++/10.3.1/bits/std_function.h **** #endif
 584:/Library/DaisyToolchain/0.2.0/arm/arm-none-eabi/include/c++/10.3.1/bits/std_function.h **** 
 585:/Library/DaisyToolchain/0.2.0/arm/arm-none-eabi/include/c++/10.3.1/bits/std_function.h ****   // Out-of-line member definitions.
 586:/Library/DaisyToolchain/0.2.0/arm/arm-none-eabi/include/c++/10.3.1/bits/std_function.h ****   template<typename _Res, typename... _ArgTypes>
 587:/Library/DaisyToolchain/0.2.0/arm/arm-none-eabi/include/c++/10.3.1/bits/std_function.h ****     function<_Res(_ArgTypes...)>::
 588:/Library/DaisyToolchain/0.2.0/arm/arm-none-eabi/include/c++/10.3.1/bits/std_function.h ****     function(const function& __x)
 589:/Library/DaisyToolchain/0.2.0/arm/arm-none-eabi/include/c++/10.3.1/bits/std_function.h ****     : _Function_base()
 590:/Library/DaisyToolchain/0.2.0/arm/arm-none-eabi/include/c++/10.3.1/bits/std_function.h ****     {
 591:/Library/DaisyToolchain/0.2.0/arm/arm-none-eabi/include/c++/10.3.1/bits/std_function.h ****       if (static_cast<bool>(__x))
 592:/Library/DaisyToolchain/0.2.0/arm/arm-none-eabi/include/c++/10.3.1/bits/std_function.h **** 	{
 593:/Library/DaisyToolchain/0.2.0/arm/arm-none-eabi/include/c++/10.3.1/bits/std_function.h **** 	  __x._M_manager(_M_functor, __x._M_functor, __clone_functor);
 594:/Library/DaisyToolchain/0.2.0/arm/arm-none-eabi/include/c++/10.3.1/bits/std_function.h **** 	  _M_invoker = __x._M_invoker;
 595:/Library/DaisyToolchain/0.2.0/arm/arm-none-eabi/include/c++/10.3.1/bits/std_function.h **** 	  _M_manager = __x._M_manager;
 596:/Library/DaisyToolchain/0.2.0/arm/arm-none-eabi/include/c++/10.3.1/bits/std_function.h **** 	}
 597:/Library/DaisyToolchain/0.2.0/arm/arm-none-eabi/include/c++/10.3.1/bits/std_function.h ****     }
 598:/Library/DaisyToolchain/0.2.0/arm/arm-none-eabi/include/c++/10.3.1/bits/std_function.h **** 
 599:/Library/DaisyToolchain/0.2.0/arm/arm-none-eabi/include/c++/10.3.1/bits/std_function.h ****   template<typename _Res, typename... _ArgTypes>
 600:/Library/DaisyToolchain/0.2.0/arm/arm-none-eabi/include/c++/10.3.1/bits/std_function.h ****     template<typename _Functor, typename, typename>
 601:/Library/DaisyToolchain/0.2.0/arm/arm-none-eabi/include/c++/10.3.1/bits/std_function.h ****       function<_Res(_ArgTypes...)>::
 602:/Library/DaisyToolchain/0.2.0/arm/arm-none-eabi/include/c++/10.3.1/bits/std_function.h ****       function(_Functor __f)
 603:/Library/DaisyToolchain/0.2.0/arm/arm-none-eabi/include/c++/10.3.1/bits/std_function.h ****       : _Function_base()
 604:/Library/DaisyToolchain/0.2.0/arm/arm-none-eabi/include/c++/10.3.1/bits/std_function.h ****       {
 605:/Library/DaisyToolchain/0.2.0/arm/arm-none-eabi/include/c++/10.3.1/bits/std_function.h **** 	typedef _Function_handler<_Res(_ArgTypes...), _Functor> _My_handler;
 606:/Library/DaisyToolchain/0.2.0/arm/arm-none-eabi/include/c++/10.3.1/bits/std_function.h **** 
 607:/Library/DaisyToolchain/0.2.0/arm/arm-none-eabi/include/c++/10.3.1/bits/std_function.h **** 	if (_My_handler::_M_not_empty_function(__f))
 608:/Library/DaisyToolchain/0.2.0/arm/arm-none-eabi/include/c++/10.3.1/bits/std_function.h **** 	  {
 609:/Library/DaisyToolchain/0.2.0/arm/arm-none-eabi/include/c++/10.3.1/bits/std_function.h **** 	    _My_handler::_M_init_functor(_M_functor, std::move(__f));
 610:/Library/DaisyToolchain/0.2.0/arm/arm-none-eabi/include/c++/10.3.1/bits/std_function.h **** 	    _M_invoker = &_My_handler::_M_invoke;
 611:/Library/DaisyToolchain/0.2.0/arm/arm-none-eabi/include/c++/10.3.1/bits/std_function.h **** 	    _M_manager = &_My_handler::_M_manager;
 612:/Library/DaisyToolchain/0.2.0/arm/arm-none-eabi/include/c++/10.3.1/bits/std_function.h **** 	  }
 613:/Library/DaisyToolchain/0.2.0/arm/arm-none-eabi/include/c++/10.3.1/bits/std_function.h ****       }
 614:/Library/DaisyToolchain/0.2.0/arm/arm-none-eabi/include/c++/10.3.1/bits/std_function.h **** 
 615:/Library/DaisyToolchain/0.2.0/arm/arm-none-eabi/include/c++/10.3.1/bits/std_function.h ****   template<typename _Res, typename... _ArgTypes>
 616:/Library/DaisyToolchain/0.2.0/arm/arm-none-eabi/include/c++/10.3.1/bits/std_function.h ****     _Res
 617:/Library/DaisyToolchain/0.2.0/arm/arm-none-eabi/include/c++/10.3.1/bits/std_function.h ****     function<_Res(_ArgTypes...)>::
 1543              		.loc 1 617 5 is_stmt 1 view .LVU459
 1544              	.LBB625:
 1545              	.LBB626:
 1546              	.LBI626:
 248:/Library/DaisyToolchain/0.2.0/arm/arm-none-eabi/include/c++/10.3.1/bits/std_function.h **** 
 1547              		.loc 1 248 10 view .LVU460
 1548              	.LBB627:
 248:/Library/DaisyToolchain/0.2.0/arm/arm-none-eabi/include/c++/10.3.1/bits/std_function.h **** 
 1549              		.loc 1 248 29 view .LVU461
 248:/Library/DaisyToolchain/0.2.0/arm/arm-none-eabi/include/c++/10.3.1/bits/std_function.h **** 
 1550              		.loc 1 248 29 is_stmt 0 view .LVU462
 1551              	.LBE627:
ARM GAS  /var/folders/wz/z09yph4n0qj4t7mjxhl6ttn80000gn/T//ccNJmc12.s 			page 57


 1552              	.LBE626:
 618:/Library/DaisyToolchain/0.2.0/arm/arm-none-eabi/include/c++/10.3.1/bits/std_function.h ****     operator()(_ArgTypes... __args) const
 619:/Library/DaisyToolchain/0.2.0/arm/arm-none-eabi/include/c++/10.3.1/bits/std_function.h ****     {
 620:/Library/DaisyToolchain/0.2.0/arm/arm-none-eabi/include/c++/10.3.1/bits/std_function.h ****       if (_M_empty())
 1553              		.loc 1 620 7 view .LVU463
 1554 0042 636A     		ldr	r3, [r4, #36]
 1555              	.LVL100:
 1556              		.loc 1 620 7 view .LVU464
 1557 0044 8BB9     		cbnz	r3, .L58
 621:/Library/DaisyToolchain/0.2.0/arm/arm-none-eabi/include/c++/10.3.1/bits/std_function.h **** 	__throw_bad_function_call();
 1558              		.loc 1 621 27 view .LVU465
 1559 0046 FFF7FEFF 		bl	_ZSt25__throw_bad_function_callv
 1560              	.LVL101:
 1561              	.L55:
 1562              		.loc 1 621 27 view .LVU466
 1563              	.LBE625:
 1564              	.LBE624:
 1565              	.LBB629:
 1566              	.LBB622:
  53:DSP/FX/../../Parameters/AudioParameter.h ****         {
  54:DSP/FX/../../Parameters/AudioParameter.h ****             case LINEAR:
  55:DSP/FX/../../Parameters/AudioParameter.h ****                 curVal = ((input / 1.0f) * (max - min)) + min;
 1567              		.loc 7 55 51 view .LVU467
 1568 004a D4ED047A 		vldr.32	s15, [r4, #16]
 1569              	.LVL102:
 1570              	.L59:
 1571              	.LBB618:
 1572              	.LBB619:
  56:DSP/FX/../../Parameters/AudioParameter.h ****             break;
  57:DSP/FX/../../Parameters/AudioParameter.h ****             case EXP:
  58:DSP/FX/../../Parameters/AudioParameter.h ****                 curVal = ((input * input) * (max - min)) + min;
 1573              		.loc 7 58 50 view .LVU468
 1574 004e 94ED057A 		vldr.32	s14, [r4, #20]
 1575 0052 37EE677A 		vsub.f32	s14, s14, s15
 1576              		.loc 7 58 58 view .LVU469
 1577 0056 E0EE077A 		vfma.f32	s15, s0, s14
 1578              		.loc 7 58 24 view .LVU470
 1579 005a C4ED037A 		vstr.32	s15, [r4, #12]
  59:DSP/FX/../../Parameters/AudioParameter.h ****             break;
  60:DSP/FX/../../Parameters/AudioParameter.h ****         }
  61:DSP/FX/../../Parameters/AudioParameter.h ****     }
 1580              		.loc 7 61 5 view .LVU471
 1581 005e EEE7     		b	.L57
 1582              	.LVL103:
 1583              	.L56:
 1584              		.loc 7 61 5 view .LVU472
 1585              	.LBE619:
 1586              	.LBI618:
  50:DSP/FX/../../Parameters/AudioParameter.h ****     {
 1587              		.loc 7 50 10 is_stmt 1 view .LVU473
 1588              	.LBB620:
  58:DSP/FX/../../Parameters/AudioParameter.h ****             break;
 1589              		.loc 7 58 34 is_stmt 0 view .LVU474
 1590 0060 20EE000A 		vmul.f32	s0, s0, s0
 1591              	.LVL104:
  58:DSP/FX/../../Parameters/AudioParameter.h ****             break;
 1592              		.loc 7 58 52 view .LVU475
ARM GAS  /var/folders/wz/z09yph4n0qj4t7mjxhl6ttn80000gn/T//ccNJmc12.s 			page 58


 1593 0064 D4ED047A 		vldr.32	s15, [r4, #16]
 1594 0068 F1E7     		b	.L59
 1595              	.LVL105:
 1596              	.L58:
  58:DSP/FX/../../Parameters/AudioParameter.h ****             break;
 1597              		.loc 7 58 52 view .LVU476
 1598              	.LBE620:
 1599              	.LBE618:
 1600              	.LBE622:
 1601              	.LBE629:
 1602              	.LBB630:
 1603              	.LBB628:
 622:/Library/DaisyToolchain/0.2.0/arm/arm-none-eabi/include/c++/10.3.1/bits/std_function.h ****       return _M_invoker(_M_functor, std::forward<_ArgTypes>(__args)...);
 1604              		.loc 1 622 14 view .LVU477
 1605 006a A36A     		ldr	r3, [r4, #40]
 1606 006c 01A9     		add	r1, sp, #4
 1607 006e 04F11C00 		add	r0, r4, #28
 1608 0072 9847     		blx	r3
 1609              	.LVL106:
 1610              	.L51:
 1611              		.loc 1 622 14 view .LVU478
 1612              	.LBE628:
 1613              	.LBE630:
  48:DSP/FX/../../Parameters/AudioParameter.h **** 
 1614              		.loc 7 48 5 view .LVU479
 1615 0074 02B0     		add	sp, sp, #8
 1616              		.cfi_def_cfa_offset 8
 1617              		@ sp needed
 1618 0076 10BD     		pop	{r4, pc}
  48:DSP/FX/../../Parameters/AudioParameter.h **** 
 1619              		.loc 7 48 5 view .LVU480
 1620              		.cfi_endproc
 1621              	.LFE5997:
 1623              		.section	.text._ZN10PitchShift4tickEv,"ax",%progbits
 1624              		.align	1
 1625              		.global	_ZN10PitchShift4tickEv
 1626              		.syntax unified
 1627              		.thumb
 1628              		.thumb_func
 1630              	_ZN10PitchShift4tickEv:
 1631              	.LVL107:
 1632              	.LFB5667:
  32:DSP/FX/PitchShift.cpp **** {
 1633              		.loc 3 32 1 is_stmt 1 view -0
 1634              		.cfi_startproc
 1635              		@ args = 0, pretend = 0, frame = 8
 1636              		@ frame_needed = 0, uses_anonymous_args = 0
  34:DSP/FX/PitchShift.cpp ****     amount.param.tick();
 1637              		.loc 3 34 5 view .LVU482
  32:DSP/FX/PitchShift.cpp **** {
 1638              		.loc 3 32 1 is_stmt 0 view .LVU483
 1639 0000 37B5     		push	{r0, r1, r2, r4, r5, lr}
 1640              		.cfi_def_cfa_offset 24
 1641              		.cfi_offset 4, -12
 1642              		.cfi_offset 5, -8
 1643              		.cfi_offset 14, -4
  32:DSP/FX/PitchShift.cpp **** {
ARM GAS  /var/folders/wz/z09yph4n0qj4t7mjxhl6ttn80000gn/T//ccNJmc12.s 			page 59


 1644              		.loc 3 32 1 view .LVU484
 1645 0002 0546     		mov	r5, r0
  34:DSP/FX/PitchShift.cpp ****     amount.param.tick();
 1646              		.loc 3 34 22 view .LVU485
 1647 0004 00F59740 		add	r0, r0, #19328
 1648              	.LVL108:
 1649              	.LBB641:
 1650              	.LBB642:
  41:DSP/FX/../../Parameters/AudioParameter.h ****         if(newInput > (input + jitter) || newInput < (input - jitter))
 1651              		.loc 7 41 42 view .LVU486
 1652 0008 05F58044 		add	r4, r5, #16384
 1653              	.LBE642:
 1654              	.LBE641:
  34:DSP/FX/PitchShift.cpp ****     amount.param.tick();
 1655              		.loc 3 34 22 view .LVU487
 1656 000c 7C30     		adds	r0, r0, #124
 1657 000e FFF7FEFF 		bl	_ZN14AudioParameterIfE4tickEv
 1658              	.LVL109:
  35:DSP/FX/PitchShift.cpp ****     semitones.tick();
 1659              		.loc 3 35 5 is_stmt 1 view .LVU488
 1660              	.LBB656:
 1661              	.LBI641:
  39:DSP/FX/../../Parameters/AudioParameter.h ****     {
 1662              		.loc 7 39 17 view .LVU489
 1663              	.LBB655:
  41:DSP/FX/../../Parameters/AudioParameter.h ****         if(newInput > (input + jitter) || newInput < (input - jitter))
 1664              		.loc 7 41 42 is_stmt 0 view .LVU490
 1665 0012 D4F82C0C 		ldr	r0, [r4, #3116]
 1666 0016 94F8441C 		ldrb	r1, [r4, #3140]	@ zero_extendqisi2
 1667 001a 1830     		adds	r0, r0, #24
 1668 001c FFF7FEFF 		bl	_ZNK5daisy9AdcHandle8GetFloatEh
 1669              	.LVL110:
  42:DSP/FX/../../Parameters/AudioParameter.h ****         {
 1670              		.loc 7 42 24 view .LVU491
 1671 0020 04F62C43 		addw	r3, r4, #3116
 1672 0024 D3ED017A 		vldr.32	s15, [r3, #4]
  42:DSP/FX/../../Parameters/AudioParameter.h ****         {
 1673              		.loc 7 42 32 view .LVU492
 1674 0028 93ED027A 		vldr.32	s14, [r3, #8]
  42:DSP/FX/../../Parameters/AudioParameter.h ****         {
 1675              		.loc 7 42 30 view .LVU493
 1676 002c 77EE876A 		vadd.f32	s13, s15, s14
  42:DSP/FX/../../Parameters/AudioParameter.h ****         {
 1677              		.loc 7 42 9 view .LVU494
 1678 0030 B4EEE60A 		vcmpe.f32	s0, s13
 1679 0034 F1EE10FA 		vmrs	APSR_nzcv, FPSCR
 1680 0038 06DC     		bgt	.L61
  42:DSP/FX/../../Parameters/AudioParameter.h ****         {
 1681              		.loc 7 42 61 view .LVU495
 1682 003a 77EEC77A 		vsub.f32	s15, s15, s14
  42:DSP/FX/../../Parameters/AudioParameter.h ****         {
 1683              		.loc 7 42 40 view .LVU496
 1684 003e B4EEE70A 		vcmpe.f32	s0, s15
 1685 0042 F1EE10FA 		vmrs	APSR_nzcv, FPSCR
 1686 0046 2FD5     		bpl	.L62
 1687              	.L61:
  44:DSP/FX/../../Parameters/AudioParameter.h ****             processCurve();
ARM GAS  /var/folders/wz/z09yph4n0qj4t7mjxhl6ttn80000gn/T//ccNJmc12.s 			page 60


 1688              		.loc 7 44 19 view .LVU497
 1689 0048 04F62C43 		addw	r3, r4, #3116
 1690 004c 83ED010A 		vstr.32	s0, [r3, #4]
 1691              	.LVL111:
 1692              	.LBB643:
 1693              	.LBI643:
  50:DSP/FX/../../Parameters/AudioParameter.h ****     {
 1694              		.loc 7 50 10 is_stmt 1 view .LVU498
 1695              	.LBB644:
  52:DSP/FX/../../Parameters/AudioParameter.h ****         {
 1696              		.loc 7 52 16 is_stmt 0 view .LVU499
 1697 0050 94F8453C 		ldrb	r3, [r4, #3141]	@ zero_extendqisi2
  52:DSP/FX/../../Parameters/AudioParameter.h ****         {
 1698              		.loc 7 52 9 view .LVU500
 1699 0054 5BB1     		cbz	r3, .L68
  52:DSP/FX/../../Parameters/AudioParameter.h ****         {
 1700              		.loc 7 52 9 view .LVU501
 1701 0056 012B     		cmp	r3, #1
 1702 0058 07D0     		beq	.L65
 1703              	.LVL112:
 1704              	.L66:
  52:DSP/FX/../../Parameters/AudioParameter.h ****         {
 1705              		.loc 7 52 9 view .LVU502
 1706 005a D4F8383C 		ldr	r3, [r4, #3128]
 1707 005e 0193     		str	r3, [sp, #4]
 1708              	.LVL113:
  52:DSP/FX/../../Parameters/AudioParameter.h ****         {
 1709              		.loc 7 52 9 view .LVU503
 1710              	.LBE644:
 1711              	.LBE643:
 1712              	.LBB648:
 1713              	.LBI648:
 617:/Library/DaisyToolchain/0.2.0/arm/arm-none-eabi/include/c++/10.3.1/bits/std_function.h ****     operator()(_ArgTypes... __args) const
 1714              		.loc 1 617 5 is_stmt 1 view .LVU504
 1715              	.LBB649:
 1716              	.LBB650:
 1717              	.LBI650:
 248:/Library/DaisyToolchain/0.2.0/arm/arm-none-eabi/include/c++/10.3.1/bits/std_function.h **** 
 1718              		.loc 1 248 10 view .LVU505
 1719              	.LBB651:
 248:/Library/DaisyToolchain/0.2.0/arm/arm-none-eabi/include/c++/10.3.1/bits/std_function.h **** 
 1720              		.loc 1 248 29 view .LVU506
 248:/Library/DaisyToolchain/0.2.0/arm/arm-none-eabi/include/c++/10.3.1/bits/std_function.h **** 
 1721              		.loc 1 248 29 is_stmt 0 view .LVU507
 1722              	.LBE651:
 1723              	.LBE650:
 620:/Library/DaisyToolchain/0.2.0/arm/arm-none-eabi/include/c++/10.3.1/bits/std_function.h **** 	__throw_bad_function_call();
 1724              		.loc 1 620 7 view .LVU508
 1725 0060 D4F8503C 		ldr	r3, [r4, #3152]
 1726              	.LVL114:
 620:/Library/DaisyToolchain/0.2.0/arm/arm-none-eabi/include/c++/10.3.1/bits/std_function.h **** 	__throw_bad_function_call();
 1727              		.loc 1 620 7 view .LVU509
 1728 0064 CBB9     		cbnz	r3, .L67
 621:/Library/DaisyToolchain/0.2.0/arm/arm-none-eabi/include/c++/10.3.1/bits/std_function.h ****       return _M_invoker(_M_functor, std::forward<_ArgTypes>(__args)...);
 1729              		.loc 1 621 27 view .LVU510
 1730 0066 FFF7FEFF 		bl	_ZSt25__throw_bad_function_callv
 1731              	.LVL115:
ARM GAS  /var/folders/wz/z09yph4n0qj4t7mjxhl6ttn80000gn/T//ccNJmc12.s 			page 61


 1732              	.L65:
 621:/Library/DaisyToolchain/0.2.0/arm/arm-none-eabi/include/c++/10.3.1/bits/std_function.h ****       return _M_invoker(_M_functor, std::forward<_ArgTypes>(__args)...);
 1733              		.loc 1 621 27 view .LVU511
 1734              	.LBE649:
 1735              	.LBE648:
 1736              	.LBB653:
 1737              	.LBB647:
 1738              	.LBB645:
 1739              	.LBI645:
  50:DSP/FX/../../Parameters/AudioParameter.h ****     {
 1740              		.loc 7 50 10 is_stmt 1 view .LVU512
 1741              	.LBB646:
  58:DSP/FX/../../Parameters/AudioParameter.h ****             break;
 1742              		.loc 7 58 34 is_stmt 0 view .LVU513
 1743 006a 20EE000A 		vmul.f32	s0, s0, s0
 1744              	.LVL116:
 1745              	.L68:
  58:DSP/FX/../../Parameters/AudioParameter.h ****             break;
 1746              		.loc 7 58 50 view .LVU514
 1747 006e D4F83C2C 		ldr	r2, [r4, #3132]
 1748 0072 D4F8403C 		ldr	r3, [r4, #3136]
 1749 0076 9B1A     		subs	r3, r3, r2
  58:DSP/FX/../../Parameters/AudioParameter.h ****             break;
 1750              		.loc 7 58 43 view .LVU515
 1751 0078 07EE903A 		vmov	s15, r3	@ int
 1752 007c B8EEE77A 		vcvt.f32.s32	s14, s15
  58:DSP/FX/../../Parameters/AudioParameter.h ****             break;
 1753              		.loc 7 58 58 view .LVU516
 1754 0080 07EE902A 		vmov	s15, r2	@ int
 1755 0084 F8EEE77A 		vcvt.f32.s32	s15, s15
 1756 0088 E0EE077A 		vfma.f32	s15, s0, s14
  58:DSP/FX/../../Parameters/AudioParameter.h ****             break;
 1757              		.loc 7 58 24 view .LVU517
 1758 008c FDEEE77A 		vcvt.s32.f32	s15, s15
 1759 0090 17EE903A 		vmov	r3, s15	@ int
 1760 0094 C4F8383C 		str	r3, [r4, #3128]
 1761              		.loc 7 61 5 view .LVU518
 1762 0098 DFE7     		b	.L66
 1763              	.LVL117:
 1764              	.L67:
 1765              		.loc 7 61 5 view .LVU519
 1766              	.LBE646:
 1767              	.LBE645:
 1768              	.LBE647:
 1769              	.LBE653:
 1770              	.LBB654:
 1771              	.LBB652:
 1772              		.loc 1 622 14 view .LVU520
 1773 009a 05F59840 		add	r0, r5, #19456
 1774 009e D4F8543C 		ldr	r3, [r4, #3156]
 1775 00a2 01A9     		add	r1, sp, #4
 1776 00a4 4830     		adds	r0, r0, #72
 1777 00a6 9847     		blx	r3
 1778              	.LVL118:
 1779              	.L62:
 1780              		.loc 1 622 14 view .LVU521
 1781              	.LBE652:
ARM GAS  /var/folders/wz/z09yph4n0qj4t7mjxhl6ttn80000gn/T//ccNJmc12.s 			page 62


 1782              	.LBE654:
 1783              	.LBE655:
 1784              	.LBE656:
  36:DSP/FX/PitchShift.cpp ****     rand.tick();
 1785              		.loc 3 36 5 is_stmt 1 view .LVU522
  36:DSP/FX/PitchShift.cpp ****     rand.tick();
 1786              		.loc 3 36 14 is_stmt 0 view .LVU523
 1787 00a8 05F59840 		add	r0, r5, #19456
 1788 00ac 5830     		adds	r0, r0, #88
 1789 00ae FFF7FEFF 		bl	_ZN14AudioParameterIfE4tickEv
 1790              	.LVL119:
  37:DSP/FX/PitchShift.cpp **** }
 1791              		.loc 3 37 1 view .LVU524
 1792 00b2 03B0     		add	sp, sp, #12
 1793              		.cfi_def_cfa_offset 12
 1794              		@ sp needed
 1795 00b4 30BD     		pop	{r4, r5, pc}
  37:DSP/FX/PitchShift.cpp **** }
 1796              		.loc 3 37 1 view .LVU525
 1797              		.cfi_endproc
 1798              	.LFE5667:
 1800              		.section	.text._ZSt4swapISt9_Any_dataENSt9enable_ifIXsrSt6__and_IJSt6__not_ISt15__is_tuple_likeIT_
 1801              		.align	1
 1802              		.weak	_ZSt4swapISt9_Any_dataENSt9enable_ifIXsrSt6__and_IJSt6__not_ISt15__is_tuple_likeIT_EESt21is_
 1803              		.syntax unified
 1804              		.thumb
 1805              		.thumb_func
 1807              	_ZSt4swapISt9_Any_dataENSt9enable_ifIXsrSt6__and_IJSt6__not_ISt15__is_tuple_likeIT_EESt21is_move_co
 1808              	.LVL120:
 1809              	.LFB6193:
 1810              		.file 8 "/Library/DaisyToolchain/0.2.0/arm/arm-none-eabi/include/c++/10.3.1/bits/move.h"
   1:/Library/DaisyToolchain/0.2.0/arm/arm-none-eabi/include/c++/10.3.1/bits/move.h **** // Move, forward and identity for C++11 + swap -*- C++ -*-
   2:/Library/DaisyToolchain/0.2.0/arm/arm-none-eabi/include/c++/10.3.1/bits/move.h **** 
   3:/Library/DaisyToolchain/0.2.0/arm/arm-none-eabi/include/c++/10.3.1/bits/move.h **** // Copyright (C) 2007-2020 Free Software Foundation, Inc.
   4:/Library/DaisyToolchain/0.2.0/arm/arm-none-eabi/include/c++/10.3.1/bits/move.h **** //
   5:/Library/DaisyToolchain/0.2.0/arm/arm-none-eabi/include/c++/10.3.1/bits/move.h **** // This file is part of the GNU ISO C++ Library.  This library is free
   6:/Library/DaisyToolchain/0.2.0/arm/arm-none-eabi/include/c++/10.3.1/bits/move.h **** // software; you can redistribute it and/or modify it under the
   7:/Library/DaisyToolchain/0.2.0/arm/arm-none-eabi/include/c++/10.3.1/bits/move.h **** // terms of the GNU General Public License as published by the
   8:/Library/DaisyToolchain/0.2.0/arm/arm-none-eabi/include/c++/10.3.1/bits/move.h **** // Free Software Foundation; either version 3, or (at your option)
   9:/Library/DaisyToolchain/0.2.0/arm/arm-none-eabi/include/c++/10.3.1/bits/move.h **** // any later version.
  10:/Library/DaisyToolchain/0.2.0/arm/arm-none-eabi/include/c++/10.3.1/bits/move.h **** 
  11:/Library/DaisyToolchain/0.2.0/arm/arm-none-eabi/include/c++/10.3.1/bits/move.h **** // This library is distributed in the hope that it will be useful,
  12:/Library/DaisyToolchain/0.2.0/arm/arm-none-eabi/include/c++/10.3.1/bits/move.h **** // but WITHOUT ANY WARRANTY; without even the implied warranty of
  13:/Library/DaisyToolchain/0.2.0/arm/arm-none-eabi/include/c++/10.3.1/bits/move.h **** // MERCHANTABILITY or FITNESS FOR A PARTICULAR PURPOSE.  See the
  14:/Library/DaisyToolchain/0.2.0/arm/arm-none-eabi/include/c++/10.3.1/bits/move.h **** // GNU General Public License for more details.
  15:/Library/DaisyToolchain/0.2.0/arm/arm-none-eabi/include/c++/10.3.1/bits/move.h **** 
  16:/Library/DaisyToolchain/0.2.0/arm/arm-none-eabi/include/c++/10.3.1/bits/move.h **** // Under Section 7 of GPL version 3, you are granted additional
  17:/Library/DaisyToolchain/0.2.0/arm/arm-none-eabi/include/c++/10.3.1/bits/move.h **** // permissions described in the GCC Runtime Library Exception, version
  18:/Library/DaisyToolchain/0.2.0/arm/arm-none-eabi/include/c++/10.3.1/bits/move.h **** // 3.1, as published by the Free Software Foundation.
  19:/Library/DaisyToolchain/0.2.0/arm/arm-none-eabi/include/c++/10.3.1/bits/move.h **** 
  20:/Library/DaisyToolchain/0.2.0/arm/arm-none-eabi/include/c++/10.3.1/bits/move.h **** // You should have received a copy of the GNU General Public License and
  21:/Library/DaisyToolchain/0.2.0/arm/arm-none-eabi/include/c++/10.3.1/bits/move.h **** // a copy of the GCC Runtime Library Exception along with this program;
  22:/Library/DaisyToolchain/0.2.0/arm/arm-none-eabi/include/c++/10.3.1/bits/move.h **** // see the files COPYING3 and COPYING.RUNTIME respectively.  If not, see
  23:/Library/DaisyToolchain/0.2.0/arm/arm-none-eabi/include/c++/10.3.1/bits/move.h **** // <http://www.gnu.org/licenses/>.
  24:/Library/DaisyToolchain/0.2.0/arm/arm-none-eabi/include/c++/10.3.1/bits/move.h **** 
  25:/Library/DaisyToolchain/0.2.0/arm/arm-none-eabi/include/c++/10.3.1/bits/move.h **** /** @file bits/move.h
  26:/Library/DaisyToolchain/0.2.0/arm/arm-none-eabi/include/c++/10.3.1/bits/move.h ****  *  This is an internal header file, included by other library headers.
ARM GAS  /var/folders/wz/z09yph4n0qj4t7mjxhl6ttn80000gn/T//ccNJmc12.s 			page 63


  27:/Library/DaisyToolchain/0.2.0/arm/arm-none-eabi/include/c++/10.3.1/bits/move.h ****  *  Do not attempt to use it directly. @headername{utility}
  28:/Library/DaisyToolchain/0.2.0/arm/arm-none-eabi/include/c++/10.3.1/bits/move.h ****  */
  29:/Library/DaisyToolchain/0.2.0/arm/arm-none-eabi/include/c++/10.3.1/bits/move.h **** 
  30:/Library/DaisyToolchain/0.2.0/arm/arm-none-eabi/include/c++/10.3.1/bits/move.h **** #ifndef _MOVE_H
  31:/Library/DaisyToolchain/0.2.0/arm/arm-none-eabi/include/c++/10.3.1/bits/move.h **** #define _MOVE_H 1
  32:/Library/DaisyToolchain/0.2.0/arm/arm-none-eabi/include/c++/10.3.1/bits/move.h **** 
  33:/Library/DaisyToolchain/0.2.0/arm/arm-none-eabi/include/c++/10.3.1/bits/move.h **** #include <bits/c++config.h>
  34:/Library/DaisyToolchain/0.2.0/arm/arm-none-eabi/include/c++/10.3.1/bits/move.h **** #if __cplusplus < 201103L
  35:/Library/DaisyToolchain/0.2.0/arm/arm-none-eabi/include/c++/10.3.1/bits/move.h **** # include <bits/concept_check.h>
  36:/Library/DaisyToolchain/0.2.0/arm/arm-none-eabi/include/c++/10.3.1/bits/move.h **** #endif
  37:/Library/DaisyToolchain/0.2.0/arm/arm-none-eabi/include/c++/10.3.1/bits/move.h **** 
  38:/Library/DaisyToolchain/0.2.0/arm/arm-none-eabi/include/c++/10.3.1/bits/move.h **** namespace std _GLIBCXX_VISIBILITY(default)
  39:/Library/DaisyToolchain/0.2.0/arm/arm-none-eabi/include/c++/10.3.1/bits/move.h **** {
  40:/Library/DaisyToolchain/0.2.0/arm/arm-none-eabi/include/c++/10.3.1/bits/move.h **** _GLIBCXX_BEGIN_NAMESPACE_VERSION
  41:/Library/DaisyToolchain/0.2.0/arm/arm-none-eabi/include/c++/10.3.1/bits/move.h **** 
  42:/Library/DaisyToolchain/0.2.0/arm/arm-none-eabi/include/c++/10.3.1/bits/move.h ****   // Used, in C++03 mode too, by allocators, etc.
  43:/Library/DaisyToolchain/0.2.0/arm/arm-none-eabi/include/c++/10.3.1/bits/move.h ****   /**
  44:/Library/DaisyToolchain/0.2.0/arm/arm-none-eabi/include/c++/10.3.1/bits/move.h ****    *  @brief Same as C++11 std::addressof
  45:/Library/DaisyToolchain/0.2.0/arm/arm-none-eabi/include/c++/10.3.1/bits/move.h ****    *  @ingroup utilities
  46:/Library/DaisyToolchain/0.2.0/arm/arm-none-eabi/include/c++/10.3.1/bits/move.h ****    */
  47:/Library/DaisyToolchain/0.2.0/arm/arm-none-eabi/include/c++/10.3.1/bits/move.h ****   template<typename _Tp>
  48:/Library/DaisyToolchain/0.2.0/arm/arm-none-eabi/include/c++/10.3.1/bits/move.h ****     inline _GLIBCXX_CONSTEXPR _Tp*
  49:/Library/DaisyToolchain/0.2.0/arm/arm-none-eabi/include/c++/10.3.1/bits/move.h ****     __addressof(_Tp& __r) _GLIBCXX_NOEXCEPT
  50:/Library/DaisyToolchain/0.2.0/arm/arm-none-eabi/include/c++/10.3.1/bits/move.h ****     { return __builtin_addressof(__r); }
  51:/Library/DaisyToolchain/0.2.0/arm/arm-none-eabi/include/c++/10.3.1/bits/move.h **** 
  52:/Library/DaisyToolchain/0.2.0/arm/arm-none-eabi/include/c++/10.3.1/bits/move.h **** #if __cplusplus >= 201103L
  53:/Library/DaisyToolchain/0.2.0/arm/arm-none-eabi/include/c++/10.3.1/bits/move.h **** 
  54:/Library/DaisyToolchain/0.2.0/arm/arm-none-eabi/include/c++/10.3.1/bits/move.h **** _GLIBCXX_END_NAMESPACE_VERSION
  55:/Library/DaisyToolchain/0.2.0/arm/arm-none-eabi/include/c++/10.3.1/bits/move.h **** } // namespace
  56:/Library/DaisyToolchain/0.2.0/arm/arm-none-eabi/include/c++/10.3.1/bits/move.h **** 
  57:/Library/DaisyToolchain/0.2.0/arm/arm-none-eabi/include/c++/10.3.1/bits/move.h **** #include <type_traits> // Brings in std::declval too.
  58:/Library/DaisyToolchain/0.2.0/arm/arm-none-eabi/include/c++/10.3.1/bits/move.h **** 
  59:/Library/DaisyToolchain/0.2.0/arm/arm-none-eabi/include/c++/10.3.1/bits/move.h **** namespace std _GLIBCXX_VISIBILITY(default)
  60:/Library/DaisyToolchain/0.2.0/arm/arm-none-eabi/include/c++/10.3.1/bits/move.h **** {
  61:/Library/DaisyToolchain/0.2.0/arm/arm-none-eabi/include/c++/10.3.1/bits/move.h **** _GLIBCXX_BEGIN_NAMESPACE_VERSION
  62:/Library/DaisyToolchain/0.2.0/arm/arm-none-eabi/include/c++/10.3.1/bits/move.h **** 
  63:/Library/DaisyToolchain/0.2.0/arm/arm-none-eabi/include/c++/10.3.1/bits/move.h ****   /**
  64:/Library/DaisyToolchain/0.2.0/arm/arm-none-eabi/include/c++/10.3.1/bits/move.h ****    *  @addtogroup utilities
  65:/Library/DaisyToolchain/0.2.0/arm/arm-none-eabi/include/c++/10.3.1/bits/move.h ****    *  @{
  66:/Library/DaisyToolchain/0.2.0/arm/arm-none-eabi/include/c++/10.3.1/bits/move.h ****    */
  67:/Library/DaisyToolchain/0.2.0/arm/arm-none-eabi/include/c++/10.3.1/bits/move.h **** 
  68:/Library/DaisyToolchain/0.2.0/arm/arm-none-eabi/include/c++/10.3.1/bits/move.h ****   /**
  69:/Library/DaisyToolchain/0.2.0/arm/arm-none-eabi/include/c++/10.3.1/bits/move.h ****    *  @brief  Forward an lvalue.
  70:/Library/DaisyToolchain/0.2.0/arm/arm-none-eabi/include/c++/10.3.1/bits/move.h ****    *  @return The parameter cast to the specified type.
  71:/Library/DaisyToolchain/0.2.0/arm/arm-none-eabi/include/c++/10.3.1/bits/move.h ****    *
  72:/Library/DaisyToolchain/0.2.0/arm/arm-none-eabi/include/c++/10.3.1/bits/move.h ****    *  This function is used to implement "perfect forwarding".
  73:/Library/DaisyToolchain/0.2.0/arm/arm-none-eabi/include/c++/10.3.1/bits/move.h ****    */
  74:/Library/DaisyToolchain/0.2.0/arm/arm-none-eabi/include/c++/10.3.1/bits/move.h ****   template<typename _Tp>
  75:/Library/DaisyToolchain/0.2.0/arm/arm-none-eabi/include/c++/10.3.1/bits/move.h ****     constexpr _Tp&&
  76:/Library/DaisyToolchain/0.2.0/arm/arm-none-eabi/include/c++/10.3.1/bits/move.h ****     forward(typename std::remove_reference<_Tp>::type& __t) noexcept
  77:/Library/DaisyToolchain/0.2.0/arm/arm-none-eabi/include/c++/10.3.1/bits/move.h ****     { return static_cast<_Tp&&>(__t); }
  78:/Library/DaisyToolchain/0.2.0/arm/arm-none-eabi/include/c++/10.3.1/bits/move.h **** 
  79:/Library/DaisyToolchain/0.2.0/arm/arm-none-eabi/include/c++/10.3.1/bits/move.h ****   /**
  80:/Library/DaisyToolchain/0.2.0/arm/arm-none-eabi/include/c++/10.3.1/bits/move.h ****    *  @brief  Forward an rvalue.
  81:/Library/DaisyToolchain/0.2.0/arm/arm-none-eabi/include/c++/10.3.1/bits/move.h ****    *  @return The parameter cast to the specified type.
  82:/Library/DaisyToolchain/0.2.0/arm/arm-none-eabi/include/c++/10.3.1/bits/move.h ****    *
  83:/Library/DaisyToolchain/0.2.0/arm/arm-none-eabi/include/c++/10.3.1/bits/move.h ****    *  This function is used to implement "perfect forwarding".
ARM GAS  /var/folders/wz/z09yph4n0qj4t7mjxhl6ttn80000gn/T//ccNJmc12.s 			page 64


  84:/Library/DaisyToolchain/0.2.0/arm/arm-none-eabi/include/c++/10.3.1/bits/move.h ****    */
  85:/Library/DaisyToolchain/0.2.0/arm/arm-none-eabi/include/c++/10.3.1/bits/move.h ****   template<typename _Tp>
  86:/Library/DaisyToolchain/0.2.0/arm/arm-none-eabi/include/c++/10.3.1/bits/move.h ****     constexpr _Tp&&
  87:/Library/DaisyToolchain/0.2.0/arm/arm-none-eabi/include/c++/10.3.1/bits/move.h ****     forward(typename std::remove_reference<_Tp>::type&& __t) noexcept
  88:/Library/DaisyToolchain/0.2.0/arm/arm-none-eabi/include/c++/10.3.1/bits/move.h ****     {
  89:/Library/DaisyToolchain/0.2.0/arm/arm-none-eabi/include/c++/10.3.1/bits/move.h ****       static_assert(!std::is_lvalue_reference<_Tp>::value, "template argument"
  90:/Library/DaisyToolchain/0.2.0/arm/arm-none-eabi/include/c++/10.3.1/bits/move.h **** 		    " substituting _Tp is an lvalue reference type");
  91:/Library/DaisyToolchain/0.2.0/arm/arm-none-eabi/include/c++/10.3.1/bits/move.h ****       return static_cast<_Tp&&>(__t);
  92:/Library/DaisyToolchain/0.2.0/arm/arm-none-eabi/include/c++/10.3.1/bits/move.h ****     }
  93:/Library/DaisyToolchain/0.2.0/arm/arm-none-eabi/include/c++/10.3.1/bits/move.h **** 
  94:/Library/DaisyToolchain/0.2.0/arm/arm-none-eabi/include/c++/10.3.1/bits/move.h ****   /**
  95:/Library/DaisyToolchain/0.2.0/arm/arm-none-eabi/include/c++/10.3.1/bits/move.h ****    *  @brief  Convert a value to an rvalue.
  96:/Library/DaisyToolchain/0.2.0/arm/arm-none-eabi/include/c++/10.3.1/bits/move.h ****    *  @param  __t  A thing of arbitrary type.
  97:/Library/DaisyToolchain/0.2.0/arm/arm-none-eabi/include/c++/10.3.1/bits/move.h ****    *  @return The parameter cast to an rvalue-reference to allow moving it.
  98:/Library/DaisyToolchain/0.2.0/arm/arm-none-eabi/include/c++/10.3.1/bits/move.h ****   */
  99:/Library/DaisyToolchain/0.2.0/arm/arm-none-eabi/include/c++/10.3.1/bits/move.h ****   template<typename _Tp>
 100:/Library/DaisyToolchain/0.2.0/arm/arm-none-eabi/include/c++/10.3.1/bits/move.h ****     constexpr typename std::remove_reference<_Tp>::type&&
 101:/Library/DaisyToolchain/0.2.0/arm/arm-none-eabi/include/c++/10.3.1/bits/move.h ****     move(_Tp&& __t) noexcept
 102:/Library/DaisyToolchain/0.2.0/arm/arm-none-eabi/include/c++/10.3.1/bits/move.h ****     { return static_cast<typename std::remove_reference<_Tp>::type&&>(__t); }
 103:/Library/DaisyToolchain/0.2.0/arm/arm-none-eabi/include/c++/10.3.1/bits/move.h **** 
 104:/Library/DaisyToolchain/0.2.0/arm/arm-none-eabi/include/c++/10.3.1/bits/move.h **** 
 105:/Library/DaisyToolchain/0.2.0/arm/arm-none-eabi/include/c++/10.3.1/bits/move.h ****   template<typename _Tp>
 106:/Library/DaisyToolchain/0.2.0/arm/arm-none-eabi/include/c++/10.3.1/bits/move.h ****     struct __move_if_noexcept_cond
 107:/Library/DaisyToolchain/0.2.0/arm/arm-none-eabi/include/c++/10.3.1/bits/move.h ****     : public __and_<__not_<is_nothrow_move_constructible<_Tp>>,
 108:/Library/DaisyToolchain/0.2.0/arm/arm-none-eabi/include/c++/10.3.1/bits/move.h ****                     is_copy_constructible<_Tp>>::type { };
 109:/Library/DaisyToolchain/0.2.0/arm/arm-none-eabi/include/c++/10.3.1/bits/move.h **** 
 110:/Library/DaisyToolchain/0.2.0/arm/arm-none-eabi/include/c++/10.3.1/bits/move.h ****   /**
 111:/Library/DaisyToolchain/0.2.0/arm/arm-none-eabi/include/c++/10.3.1/bits/move.h ****    *  @brief  Conditionally convert a value to an rvalue.
 112:/Library/DaisyToolchain/0.2.0/arm/arm-none-eabi/include/c++/10.3.1/bits/move.h ****    *  @param  __x  A thing of arbitrary type.
 113:/Library/DaisyToolchain/0.2.0/arm/arm-none-eabi/include/c++/10.3.1/bits/move.h ****    *  @return The parameter, possibly cast to an rvalue-reference.
 114:/Library/DaisyToolchain/0.2.0/arm/arm-none-eabi/include/c++/10.3.1/bits/move.h ****    *
 115:/Library/DaisyToolchain/0.2.0/arm/arm-none-eabi/include/c++/10.3.1/bits/move.h ****    *  Same as std::move unless the type's move constructor could throw and the
 116:/Library/DaisyToolchain/0.2.0/arm/arm-none-eabi/include/c++/10.3.1/bits/move.h ****    *  type is copyable, in which case an lvalue-reference is returned instead.
 117:/Library/DaisyToolchain/0.2.0/arm/arm-none-eabi/include/c++/10.3.1/bits/move.h ****    */
 118:/Library/DaisyToolchain/0.2.0/arm/arm-none-eabi/include/c++/10.3.1/bits/move.h ****   template<typename _Tp>
 119:/Library/DaisyToolchain/0.2.0/arm/arm-none-eabi/include/c++/10.3.1/bits/move.h ****     constexpr typename
 120:/Library/DaisyToolchain/0.2.0/arm/arm-none-eabi/include/c++/10.3.1/bits/move.h ****     conditional<__move_if_noexcept_cond<_Tp>::value, const _Tp&, _Tp&&>::type
 121:/Library/DaisyToolchain/0.2.0/arm/arm-none-eabi/include/c++/10.3.1/bits/move.h ****     move_if_noexcept(_Tp& __x) noexcept
 122:/Library/DaisyToolchain/0.2.0/arm/arm-none-eabi/include/c++/10.3.1/bits/move.h ****     { return std::move(__x); }
 123:/Library/DaisyToolchain/0.2.0/arm/arm-none-eabi/include/c++/10.3.1/bits/move.h **** 
 124:/Library/DaisyToolchain/0.2.0/arm/arm-none-eabi/include/c++/10.3.1/bits/move.h ****   // declval, from type_traits.
 125:/Library/DaisyToolchain/0.2.0/arm/arm-none-eabi/include/c++/10.3.1/bits/move.h **** 
 126:/Library/DaisyToolchain/0.2.0/arm/arm-none-eabi/include/c++/10.3.1/bits/move.h **** #if __cplusplus > 201402L
 127:/Library/DaisyToolchain/0.2.0/arm/arm-none-eabi/include/c++/10.3.1/bits/move.h ****   // _GLIBCXX_RESOLVE_LIB_DEFECTS
 128:/Library/DaisyToolchain/0.2.0/arm/arm-none-eabi/include/c++/10.3.1/bits/move.h ****   // 2296. std::addressof should be constexpr
 129:/Library/DaisyToolchain/0.2.0/arm/arm-none-eabi/include/c++/10.3.1/bits/move.h **** # define __cpp_lib_addressof_constexpr 201603
 130:/Library/DaisyToolchain/0.2.0/arm/arm-none-eabi/include/c++/10.3.1/bits/move.h **** #endif
 131:/Library/DaisyToolchain/0.2.0/arm/arm-none-eabi/include/c++/10.3.1/bits/move.h ****   /**
 132:/Library/DaisyToolchain/0.2.0/arm/arm-none-eabi/include/c++/10.3.1/bits/move.h ****    *  @brief Returns the actual address of the object or function
 133:/Library/DaisyToolchain/0.2.0/arm/arm-none-eabi/include/c++/10.3.1/bits/move.h ****    *         referenced by r, even in the presence of an overloaded
 134:/Library/DaisyToolchain/0.2.0/arm/arm-none-eabi/include/c++/10.3.1/bits/move.h ****    *         operator&.
 135:/Library/DaisyToolchain/0.2.0/arm/arm-none-eabi/include/c++/10.3.1/bits/move.h ****    *  @param  __r  Reference to an object or function.
 136:/Library/DaisyToolchain/0.2.0/arm/arm-none-eabi/include/c++/10.3.1/bits/move.h ****    *  @return   The actual address.
 137:/Library/DaisyToolchain/0.2.0/arm/arm-none-eabi/include/c++/10.3.1/bits/move.h ****   */
 138:/Library/DaisyToolchain/0.2.0/arm/arm-none-eabi/include/c++/10.3.1/bits/move.h ****   template<typename _Tp>
 139:/Library/DaisyToolchain/0.2.0/arm/arm-none-eabi/include/c++/10.3.1/bits/move.h ****     inline _GLIBCXX17_CONSTEXPR _Tp*
 140:/Library/DaisyToolchain/0.2.0/arm/arm-none-eabi/include/c++/10.3.1/bits/move.h ****     addressof(_Tp& __r) noexcept
ARM GAS  /var/folders/wz/z09yph4n0qj4t7mjxhl6ttn80000gn/T//ccNJmc12.s 			page 65


 141:/Library/DaisyToolchain/0.2.0/arm/arm-none-eabi/include/c++/10.3.1/bits/move.h ****     { return std::__addressof(__r); }
 142:/Library/DaisyToolchain/0.2.0/arm/arm-none-eabi/include/c++/10.3.1/bits/move.h **** 
 143:/Library/DaisyToolchain/0.2.0/arm/arm-none-eabi/include/c++/10.3.1/bits/move.h ****   // _GLIBCXX_RESOLVE_LIB_DEFECTS
 144:/Library/DaisyToolchain/0.2.0/arm/arm-none-eabi/include/c++/10.3.1/bits/move.h ****   // 2598. addressof works on temporaries
 145:/Library/DaisyToolchain/0.2.0/arm/arm-none-eabi/include/c++/10.3.1/bits/move.h ****   template<typename _Tp>
 146:/Library/DaisyToolchain/0.2.0/arm/arm-none-eabi/include/c++/10.3.1/bits/move.h ****     const _Tp* addressof(const _Tp&&) = delete;
 147:/Library/DaisyToolchain/0.2.0/arm/arm-none-eabi/include/c++/10.3.1/bits/move.h **** 
 148:/Library/DaisyToolchain/0.2.0/arm/arm-none-eabi/include/c++/10.3.1/bits/move.h ****   // C++11 version of std::exchange for internal use.
 149:/Library/DaisyToolchain/0.2.0/arm/arm-none-eabi/include/c++/10.3.1/bits/move.h ****   template <typename _Tp, typename _Up = _Tp>
 150:/Library/DaisyToolchain/0.2.0/arm/arm-none-eabi/include/c++/10.3.1/bits/move.h ****     _GLIBCXX20_CONSTEXPR
 151:/Library/DaisyToolchain/0.2.0/arm/arm-none-eabi/include/c++/10.3.1/bits/move.h ****     inline _Tp
 152:/Library/DaisyToolchain/0.2.0/arm/arm-none-eabi/include/c++/10.3.1/bits/move.h ****     __exchange(_Tp& __obj, _Up&& __new_val)
 153:/Library/DaisyToolchain/0.2.0/arm/arm-none-eabi/include/c++/10.3.1/bits/move.h ****     {
 154:/Library/DaisyToolchain/0.2.0/arm/arm-none-eabi/include/c++/10.3.1/bits/move.h ****       _Tp __old_val = std::move(__obj);
 155:/Library/DaisyToolchain/0.2.0/arm/arm-none-eabi/include/c++/10.3.1/bits/move.h ****       __obj = std::forward<_Up>(__new_val);
 156:/Library/DaisyToolchain/0.2.0/arm/arm-none-eabi/include/c++/10.3.1/bits/move.h ****       return __old_val;
 157:/Library/DaisyToolchain/0.2.0/arm/arm-none-eabi/include/c++/10.3.1/bits/move.h ****     }
 158:/Library/DaisyToolchain/0.2.0/arm/arm-none-eabi/include/c++/10.3.1/bits/move.h **** 
 159:/Library/DaisyToolchain/0.2.0/arm/arm-none-eabi/include/c++/10.3.1/bits/move.h ****   /// @} group utilities
 160:/Library/DaisyToolchain/0.2.0/arm/arm-none-eabi/include/c++/10.3.1/bits/move.h **** 
 161:/Library/DaisyToolchain/0.2.0/arm/arm-none-eabi/include/c++/10.3.1/bits/move.h **** #define _GLIBCXX_MOVE(__val) std::move(__val)
 162:/Library/DaisyToolchain/0.2.0/arm/arm-none-eabi/include/c++/10.3.1/bits/move.h **** #define _GLIBCXX_FORWARD(_Tp, __val) std::forward<_Tp>(__val)
 163:/Library/DaisyToolchain/0.2.0/arm/arm-none-eabi/include/c++/10.3.1/bits/move.h **** #else
 164:/Library/DaisyToolchain/0.2.0/arm/arm-none-eabi/include/c++/10.3.1/bits/move.h **** #define _GLIBCXX_MOVE(__val) (__val)
 165:/Library/DaisyToolchain/0.2.0/arm/arm-none-eabi/include/c++/10.3.1/bits/move.h **** #define _GLIBCXX_FORWARD(_Tp, __val) (__val)
 166:/Library/DaisyToolchain/0.2.0/arm/arm-none-eabi/include/c++/10.3.1/bits/move.h **** #endif
 167:/Library/DaisyToolchain/0.2.0/arm/arm-none-eabi/include/c++/10.3.1/bits/move.h **** 
 168:/Library/DaisyToolchain/0.2.0/arm/arm-none-eabi/include/c++/10.3.1/bits/move.h ****   /**
 169:/Library/DaisyToolchain/0.2.0/arm/arm-none-eabi/include/c++/10.3.1/bits/move.h ****    *  @addtogroup utilities
 170:/Library/DaisyToolchain/0.2.0/arm/arm-none-eabi/include/c++/10.3.1/bits/move.h ****    *  @{
 171:/Library/DaisyToolchain/0.2.0/arm/arm-none-eabi/include/c++/10.3.1/bits/move.h ****    */
 172:/Library/DaisyToolchain/0.2.0/arm/arm-none-eabi/include/c++/10.3.1/bits/move.h **** 
 173:/Library/DaisyToolchain/0.2.0/arm/arm-none-eabi/include/c++/10.3.1/bits/move.h ****   /**
 174:/Library/DaisyToolchain/0.2.0/arm/arm-none-eabi/include/c++/10.3.1/bits/move.h ****    *  @brief Swaps two values.
 175:/Library/DaisyToolchain/0.2.0/arm/arm-none-eabi/include/c++/10.3.1/bits/move.h ****    *  @param  __a  A thing of arbitrary type.
 176:/Library/DaisyToolchain/0.2.0/arm/arm-none-eabi/include/c++/10.3.1/bits/move.h ****    *  @param  __b  Another thing of arbitrary type.
 177:/Library/DaisyToolchain/0.2.0/arm/arm-none-eabi/include/c++/10.3.1/bits/move.h ****    *  @return   Nothing.
 178:/Library/DaisyToolchain/0.2.0/arm/arm-none-eabi/include/c++/10.3.1/bits/move.h ****   */
 179:/Library/DaisyToolchain/0.2.0/arm/arm-none-eabi/include/c++/10.3.1/bits/move.h ****   template<typename _Tp>
 180:/Library/DaisyToolchain/0.2.0/arm/arm-none-eabi/include/c++/10.3.1/bits/move.h ****     _GLIBCXX20_CONSTEXPR
 181:/Library/DaisyToolchain/0.2.0/arm/arm-none-eabi/include/c++/10.3.1/bits/move.h ****     inline
 182:/Library/DaisyToolchain/0.2.0/arm/arm-none-eabi/include/c++/10.3.1/bits/move.h **** #if __cplusplus >= 201103L
 183:/Library/DaisyToolchain/0.2.0/arm/arm-none-eabi/include/c++/10.3.1/bits/move.h ****     typename enable_if<__and_<__not_<__is_tuple_like<_Tp>>,
 184:/Library/DaisyToolchain/0.2.0/arm/arm-none-eabi/include/c++/10.3.1/bits/move.h **** 			      is_move_constructible<_Tp>,
 185:/Library/DaisyToolchain/0.2.0/arm/arm-none-eabi/include/c++/10.3.1/bits/move.h **** 			      is_move_assignable<_Tp>>::value>::type
 186:/Library/DaisyToolchain/0.2.0/arm/arm-none-eabi/include/c++/10.3.1/bits/move.h **** #else
 187:/Library/DaisyToolchain/0.2.0/arm/arm-none-eabi/include/c++/10.3.1/bits/move.h ****     void
 188:/Library/DaisyToolchain/0.2.0/arm/arm-none-eabi/include/c++/10.3.1/bits/move.h **** #endif
 189:/Library/DaisyToolchain/0.2.0/arm/arm-none-eabi/include/c++/10.3.1/bits/move.h ****     swap(_Tp& __a, _Tp& __b)
 1811              		.loc 8 189 5 is_stmt 1 view -0
 1812              		.cfi_startproc
 1813              		@ args = 0, pretend = 0, frame = 8
 1814              		@ frame_needed = 0, uses_anonymous_args = 0
 1815              		.loc 8 189 5 is_stmt 0 view .LVU527
 1816 0000 13B5     		push	{r0, r1, r4, lr}
 1817              		.cfi_def_cfa_offset 16
 1818              		.cfi_offset 4, -8
ARM GAS  /var/folders/wz/z09yph4n0qj4t7mjxhl6ttn80000gn/T//ccNJmc12.s 			page 66


 1819              		.cfi_offset 14, -4
 1820              		.loc 8 189 5 view .LVU528
 1821 0002 0B46     		mov	r3, r1
 1822 0004 0246     		mov	r2, r0
 190:/Library/DaisyToolchain/0.2.0/arm/arm-none-eabi/include/c++/10.3.1/bits/move.h ****     _GLIBCXX_NOEXCEPT_IF(__and_<is_nothrow_move_constructible<_Tp>,
 191:/Library/DaisyToolchain/0.2.0/arm/arm-none-eabi/include/c++/10.3.1/bits/move.h **** 				is_nothrow_move_assignable<_Tp>>::value)
 192:/Library/DaisyToolchain/0.2.0/arm/arm-none-eabi/include/c++/10.3.1/bits/move.h ****     {
 193:/Library/DaisyToolchain/0.2.0/arm/arm-none-eabi/include/c++/10.3.1/bits/move.h **** #if __cplusplus < 201103L
 194:/Library/DaisyToolchain/0.2.0/arm/arm-none-eabi/include/c++/10.3.1/bits/move.h ****       // concept requirements
 195:/Library/DaisyToolchain/0.2.0/arm/arm-none-eabi/include/c++/10.3.1/bits/move.h ****       __glibcxx_function_requires(_SGIAssignableConcept<_Tp>)
 196:/Library/DaisyToolchain/0.2.0/arm/arm-none-eabi/include/c++/10.3.1/bits/move.h **** #endif
 197:/Library/DaisyToolchain/0.2.0/arm/arm-none-eabi/include/c++/10.3.1/bits/move.h ****       _Tp __tmp = _GLIBCXX_MOVE(__a);
 1823              		.loc 8 197 11 view .LVU529
 1824 0006 6C46     		mov	r4, sp
 1825 0008 D0E90001 		ldrd	r0, r1, [r0]
 1826              	.LVL121:
 1827              		.loc 8 197 11 view .LVU530
 1828 000c 84E80300 		stm	r4, {r0, r1}
 198:/Library/DaisyToolchain/0.2.0/arm/arm-none-eabi/include/c++/10.3.1/bits/move.h ****       __a = _GLIBCXX_MOVE(__b);
 1829              		.loc 8 198 7 view .LVU531
 1830 0010 93E80300 		ldm	r3, {r0, r1}
 1831 0014 82E80300 		stm	r2, {r0, r1}
 199:/Library/DaisyToolchain/0.2.0/arm/arm-none-eabi/include/c++/10.3.1/bits/move.h ****       __b = _GLIBCXX_MOVE(__tmp);
 1832              		.loc 8 199 7 view .LVU532
 1833 0018 94E80300 		ldm	r4, {r0, r1}
 1834 001c 83E80300 		stm	r3, {r0, r1}
 200:/Library/DaisyToolchain/0.2.0/arm/arm-none-eabi/include/c++/10.3.1/bits/move.h ****     }
 1835              		.loc 8 200 5 view .LVU533
 1836 0020 02B0     		add	sp, sp, #8
 1837              		.cfi_def_cfa_offset 8
 1838              		@ sp needed
 1839 0022 10BD     		pop	{r4, pc}
 1840              		.cfi_endproc
 1841              	.LFE6193:
 1843              		.section	.text._ZNSt8functionIFvfEEaSERKS1_.isra.0,"ax",%progbits
 1844              		.align	1
 1845              		.syntax unified
 1846              		.thumb
 1847              		.thumb_func
 1849              	_ZNSt8functionIFvfEEaSERKS1_.isra.0:
 1850              	.LVL122:
 1851              	.LFB6348:
 396:/Library/DaisyToolchain/0.2.0/arm/arm-none-eabi/include/c++/10.3.1/bits/std_function.h ****       {
 1852              		.loc 1 396 7 is_stmt 1 view -0
 1853              		.cfi_startproc
 1854              		@ args = 0, pretend = 0, frame = 16
 1855              		@ frame_needed = 0, uses_anonymous_args = 0
 396:/Library/DaisyToolchain/0.2.0/arm/arm-none-eabi/include/c++/10.3.1/bits/std_function.h ****       {
 1856              		.loc 1 396 7 is_stmt 0 view .LVU535
 1857 0000 30B5     		push	{r4, r5, lr}
 1858              		.cfi_def_cfa_offset 12
 1859              		.cfi_offset 4, -12
 1860              		.cfi_offset 5, -8
 1861              		.cfi_offset 14, -4
 1862              	.LBB674:
 1863              	.LBB675:
 1864              	.LBB676:
ARM GAS  /var/folders/wz/z09yph4n0qj4t7mjxhl6ttn80000gn/T//ccNJmc12.s 			page 67


 1865              	.LBB677:
 1866              	.LBB678:
 1867              	.LBB679:
 240:/Library/DaisyToolchain/0.2.0/arm/arm-none-eabi/include/c++/10.3.1/bits/std_function.h **** 
 1868              		.loc 1 240 42 view .LVU536
 1869 0002 0023     		movs	r3, #0
 1870              	.LBE679:
 1871              	.LBE678:
 1872              	.LBE677:
 1873              	.LBE676:
 1874              	.LBE675:
 1875              	.LBE674:
 396:/Library/DaisyToolchain/0.2.0/arm/arm-none-eabi/include/c++/10.3.1/bits/std_function.h ****       {
 1876              		.loc 1 396 7 view .LVU537
 1877 0004 85B0     		sub	sp, sp, #20
 1878              		.cfi_def_cfa_offset 32
 1879              	.LVL123:
 1880              	.LBB691:
 1881              	.LBI674:
 587:/Library/DaisyToolchain/0.2.0/arm/arm-none-eabi/include/c++/10.3.1/bits/std_function.h ****     function(const function& __x)
 1882              		.loc 1 587 5 is_stmt 1 view .LVU538
 1883              	.LBB689:
 1884              	.LBB687:
 1885              	.LBB682:
 1886              	.LBI677:
 240:/Library/DaisyToolchain/0.2.0/arm/arm-none-eabi/include/c++/10.3.1/bits/std_function.h **** 
 1887              		.loc 1 240 5 view .LVU539
 1888              	.LBE682:
 1889              	.LBE687:
 1890              	.LBE689:
 1891              	.LBE691:
 396:/Library/DaisyToolchain/0.2.0/arm/arm-none-eabi/include/c++/10.3.1/bits/std_function.h ****       {
 1892              		.loc 1 396 7 is_stmt 0 view .LVU540
 1893 0006 0446     		mov	r4, r0
 1894 0008 0D46     		mov	r5, r1
 1895              	.LBB692:
 1896              	.LBB690:
 1897              	.LBB688:
 1898              	.LBB683:
 1899              	.LBB681:
 1900              	.LBB680:
 240:/Library/DaisyToolchain/0.2.0/arm/arm-none-eabi/include/c++/10.3.1/bits/std_function.h **** 
 1901              		.loc 1 240 42 view .LVU541
 1902 000a 0293     		str	r3, [sp, #8]
 1903              	.LVL124:
 240:/Library/DaisyToolchain/0.2.0/arm/arm-none-eabi/include/c++/10.3.1/bits/std_function.h **** 
 1904              		.loc 1 240 42 view .LVU542
 1905              	.LBE680:
 1906              	.LBE681:
 1907              	.LBE683:
 1908              	.LBB684:
 1909              	.LBI684:
 498:/Library/DaisyToolchain/0.2.0/arm/arm-none-eabi/include/c++/10.3.1/bits/std_function.h ****       { return !_M_empty(); }
 1910              		.loc 1 498 16 is_stmt 1 view .LVU543
 1911              	.LBB685:
 1912              	.LBI685:
 248:/Library/DaisyToolchain/0.2.0/arm/arm-none-eabi/include/c++/10.3.1/bits/std_function.h **** 
ARM GAS  /var/folders/wz/z09yph4n0qj4t7mjxhl6ttn80000gn/T//ccNJmc12.s 			page 68


 1913              		.loc 1 248 10 view .LVU544
 1914              	.LBB686:
 248:/Library/DaisyToolchain/0.2.0/arm/arm-none-eabi/include/c++/10.3.1/bits/std_function.h **** 
 1915              		.loc 1 248 29 view .LVU545
 248:/Library/DaisyToolchain/0.2.0/arm/arm-none-eabi/include/c++/10.3.1/bits/std_function.h **** 
 1916              		.loc 1 248 37 is_stmt 0 view .LVU546
 1917 000c 8B68     		ldr	r3, [r1, #8]
 1918              	.LVL125:
 248:/Library/DaisyToolchain/0.2.0/arm/arm-none-eabi/include/c++/10.3.1/bits/std_function.h **** 
 1919              		.loc 1 248 37 view .LVU547
 1920              	.LBE686:
 1921              	.LBE685:
 1922              	.LBE684:
 591:/Library/DaisyToolchain/0.2.0/arm/arm-none-eabi/include/c++/10.3.1/bits/std_function.h **** 	{
 1923              		.loc 1 591 7 view .LVU548
 1924 000e 33B1     		cbz	r3, .L71
 593:/Library/DaisyToolchain/0.2.0/arm/arm-none-eabi/include/c++/10.3.1/bits/std_function.h **** 	  _M_invoker = __x._M_invoker;
 1925              		.loc 1 593 8 view .LVU549
 1926 0010 0222     		movs	r2, #2
 1927 0012 6846     		mov	r0, sp
 1928              	.LVL126:
 593:/Library/DaisyToolchain/0.2.0/arm/arm-none-eabi/include/c++/10.3.1/bits/std_function.h **** 	  _M_invoker = __x._M_invoker;
 1929              		.loc 1 593 8 view .LVU550
 1930 0014 9847     		blx	r3
 1931              	.LVL127:
 594:/Library/DaisyToolchain/0.2.0/arm/arm-none-eabi/include/c++/10.3.1/bits/std_function.h **** 	  _M_manager = __x._M_manager;
 1932              		.loc 1 594 15 view .LVU551
 1933 0016 EB68     		ldr	r3, [r5, #12]
 1934 0018 0393     		str	r3, [sp, #12]
 595:/Library/DaisyToolchain/0.2.0/arm/arm-none-eabi/include/c++/10.3.1/bits/std_function.h **** 	}
 1935              		.loc 1 595 15 view .LVU552
 1936 001a AB68     		ldr	r3, [r5, #8]
 1937 001c 0293     		str	r3, [sp, #8]
 1938              	.L71:
 1939              	.LVL128:
 595:/Library/DaisyToolchain/0.2.0/arm/arm-none-eabi/include/c++/10.3.1/bits/std_function.h **** 	}
 1940              		.loc 1 595 15 view .LVU553
 1941              	.LBE688:
 1942              	.LBE690:
 1943              	.LBE692:
 1944              	.LBB693:
 1945              	.LBI693:
 481:/Library/DaisyToolchain/0.2.0/arm/arm-none-eabi/include/c++/10.3.1/bits/std_function.h ****       {
 1946              		.loc 1 481 12 is_stmt 1 view .LVU554
 1947              	.LBB694:
 483:/Library/DaisyToolchain/0.2.0/arm/arm-none-eabi/include/c++/10.3.1/bits/std_function.h **** 	std::swap(_M_manager, __x._M_manager);
 1948              		.loc 1 483 11 is_stmt 0 view .LVU555
 1949 001e 2146     		mov	r1, r4
 1950 0020 6846     		mov	r0, sp
 1951 0022 FFF7FEFF 		bl	_ZSt4swapISt9_Any_dataENSt9enable_ifIXsrSt6__and_IJSt6__not_ISt15__is_tuple_likeIT_EESt21is_mov
 1952              	.LVL129:
 1953              	.LBB695:
 1954              	.LBI695:
 189:/Library/DaisyToolchain/0.2.0/arm/arm-none-eabi/include/c++/10.3.1/bits/move.h ****     _GLIBCXX_NOEXCEPT_IF(__and_<is_nothrow_move_constructible<_Tp>,
 1955              		.loc 8 189 5 is_stmt 1 view .LVU556
 1956              	.LBB696:
 197:/Library/DaisyToolchain/0.2.0/arm/arm-none-eabi/include/c++/10.3.1/bits/move.h ****       __a = _GLIBCXX_MOVE(__b);
ARM GAS  /var/folders/wz/z09yph4n0qj4t7mjxhl6ttn80000gn/T//ccNJmc12.s 			page 69


 1957              		.loc 8 197 11 is_stmt 0 view .LVU557
 1958 0026 029B     		ldr	r3, [sp, #8]
 1959              	.LVL130:
 198:/Library/DaisyToolchain/0.2.0/arm/arm-none-eabi/include/c++/10.3.1/bits/move.h ****       __b = _GLIBCXX_MOVE(__tmp);
 1960              		.loc 8 198 11 view .LVU558
 1961 0028 A268     		ldr	r2, [r4, #8]
 1962              	.LBE696:
 1963              	.LBE695:
 1964              	.LBE694:
 1965              	.LBE693:
 1966              	.LBB706:
 1967              	.LBB707:
 303:/Library/DaisyToolchain/0.2.0/arm/arm-none-eabi/include/c++/10.3.1/bits/std_function.h ****     : public _Maybe_unary_or_binary_function<_Res, _ArgTypes...>,
 1968              		.loc 1 303 11 view .LVU559
 1969 002a 6846     		mov	r0, sp
 1970              	.LBE707:
 1971              	.LBE706:
 1972              	.LBB709:
 1973              	.LBB705:
 1974              	.LBB699:
 1975              	.LBB697:
 199:/Library/DaisyToolchain/0.2.0/arm/arm-none-eabi/include/c++/10.3.1/bits/move.h ****     }
 1976              		.loc 8 199 11 view .LVU560
 1977 002c A360     		str	r3, [r4, #8]
 1978              	.LBE697:
 1979              	.LBE699:
 1980              	.LBB700:
 1981              	.LBB701:
 197:/Library/DaisyToolchain/0.2.0/arm/arm-none-eabi/include/c++/10.3.1/bits/move.h ****       __a = _GLIBCXX_MOVE(__b);
 1982              		.loc 8 197 11 view .LVU561
 1983 002e 039B     		ldr	r3, [sp, #12]
 1984              	.LVL131:
 197:/Library/DaisyToolchain/0.2.0/arm/arm-none-eabi/include/c++/10.3.1/bits/move.h ****       __a = _GLIBCXX_MOVE(__b);
 1985              		.loc 8 197 11 view .LVU562
 1986              	.LBE701:
 1987              	.LBE700:
 1988              	.LBB703:
 1989              	.LBB698:
 198:/Library/DaisyToolchain/0.2.0/arm/arm-none-eabi/include/c++/10.3.1/bits/move.h ****       __b = _GLIBCXX_MOVE(__tmp);
 1990              		.loc 8 198 11 view .LVU563
 1991 0030 0292     		str	r2, [sp, #8]
 1992              	.LVL132:
 198:/Library/DaisyToolchain/0.2.0/arm/arm-none-eabi/include/c++/10.3.1/bits/move.h ****       __b = _GLIBCXX_MOVE(__tmp);
 1993              		.loc 8 198 11 view .LVU564
 1994              	.LBE698:
 1995              	.LBE703:
 1996              	.LBB704:
 1997              	.LBI700:
 189:/Library/DaisyToolchain/0.2.0/arm/arm-none-eabi/include/c++/10.3.1/bits/move.h ****     _GLIBCXX_NOEXCEPT_IF(__and_<is_nothrow_move_constructible<_Tp>,
 1998              		.loc 8 189 5 is_stmt 1 view .LVU565
 1999              	.LBB702:
 198:/Library/DaisyToolchain/0.2.0/arm/arm-none-eabi/include/c++/10.3.1/bits/move.h ****       __b = _GLIBCXX_MOVE(__tmp);
 2000              		.loc 8 198 11 is_stmt 0 view .LVU566
 2001 0032 E268     		ldr	r2, [r4, #12]
 199:/Library/DaisyToolchain/0.2.0/arm/arm-none-eabi/include/c++/10.3.1/bits/move.h ****     }
 2002              		.loc 8 199 11 view .LVU567
 2003 0034 E360     		str	r3, [r4, #12]
ARM GAS  /var/folders/wz/z09yph4n0qj4t7mjxhl6ttn80000gn/T//ccNJmc12.s 			page 70


 198:/Library/DaisyToolchain/0.2.0/arm/arm-none-eabi/include/c++/10.3.1/bits/move.h ****       __b = _GLIBCXX_MOVE(__tmp);
 2004              		.loc 8 198 11 view .LVU568
 2005 0036 0392     		str	r2, [sp, #12]
 2006              	.LVL133:
 198:/Library/DaisyToolchain/0.2.0/arm/arm-none-eabi/include/c++/10.3.1/bits/move.h ****       __b = _GLIBCXX_MOVE(__tmp);
 2007              		.loc 8 198 11 view .LVU569
 2008              	.LBE702:
 2009              	.LBE704:
 2010              	.LBE705:
 2011              	.LBE709:
 2012              	.LBB710:
 2013              	.LBI706:
 303:/Library/DaisyToolchain/0.2.0/arm/arm-none-eabi/include/c++/10.3.1/bits/std_function.h ****     : public _Maybe_unary_or_binary_function<_Res, _ArgTypes...>,
 2014              		.loc 1 303 11 is_stmt 1 view .LVU570
 2015              	.LBB708:
 2016 0038 FFF7FEFF 		bl	_ZNSt14_Function_baseD2Ev
 2017              	.LVL134:
 303:/Library/DaisyToolchain/0.2.0/arm/arm-none-eabi/include/c++/10.3.1/bits/std_function.h ****     : public _Maybe_unary_or_binary_function<_Res, _ArgTypes...>,
 2018              		.loc 1 303 11 is_stmt 0 view .LVU571
 2019              	.LBE708:
 2020              	.LBE710:
 400:/Library/DaisyToolchain/0.2.0/arm/arm-none-eabi/include/c++/10.3.1/bits/std_function.h **** 
 2021              		.loc 1 400 7 view .LVU572
 2022 003c 05B0     		add	sp, sp, #20
 2023              		.cfi_def_cfa_offset 12
 2024              		@ sp needed
 2025 003e 30BD     		pop	{r4, r5, pc}
 400:/Library/DaisyToolchain/0.2.0/arm/arm-none-eabi/include/c++/10.3.1/bits/std_function.h **** 
 2026              		.loc 1 400 7 view .LVU573
 2027              		.cfi_endproc
 2028              	.LFE6348:
 2030              		.section	.text._ZN10PitchShift4initEPN5daisy9DaisySeedE,"ax",%progbits
 2031              		.align	1
 2032              		.global	_ZN10PitchShift4initEPN5daisy9DaisySeedE
 2033              		.syntax unified
 2034              		.thumb
 2035              		.thumb_func
 2037              	_ZN10PitchShift4initEPN5daisy9DaisySeedE:
 2038              	.LVL135:
 2039              	.LFB5656:
   4:DSP/FX/PitchShift.cpp **** {
 2040              		.loc 3 4 1 is_stmt 1 view -0
 2041              		.cfi_startproc
 2042              		@ args = 0, pretend = 0, frame = 40
 2043              		@ frame_needed = 0, uses_anonymous_args = 0
   5:DSP/FX/PitchShift.cpp ****     for(size_t i = 0 ; i < BLOCKLENGTH ; i++)
 2044              		.loc 3 5 5 view .LVU575
 2045              	.LBB788:
   5:DSP/FX/PitchShift.cpp ****     for(size_t i = 0 ; i < BLOCKLENGTH ; i++)
 2046              		.loc 3 5 26 view .LVU576
   7:DSP/FX/PitchShift.cpp ****         buffer[L][i] = 0.0f;
 2047              		.loc 3 7 9 view .LVU577
 2048              	.LBE788:
   4:DSP/FX/PitchShift.cpp **** {
 2049              		.loc 3 4 1 is_stmt 0 view .LVU578
 2050 0000 2DE9F04F 		push	{r4, r5, r6, r7, r8, r9, r10, fp, lr}
 2051              		.cfi_def_cfa_offset 36
ARM GAS  /var/folders/wz/z09yph4n0qj4t7mjxhl6ttn80000gn/T//ccNJmc12.s 			page 71


 2052              		.cfi_offset 4, -36
 2053              		.cfi_offset 5, -32
 2054              		.cfi_offset 6, -28
 2055              		.cfi_offset 7, -24
 2056              		.cfi_offset 8, -20
 2057              		.cfi_offset 9, -16
 2058              		.cfi_offset 10, -12
 2059              		.cfi_offset 11, -8
 2060              		.cfi_offset 14, -4
 2061              	.LBB789:
 2062              	.LBB790:
  66:../../../DaisySP//Source/Effects/pitchshifter.h ****         sr_           = sr;
 2063              		.loc 4 66 23 view .LVU579
 2064 0004 00F58044 		add	r4, r0, #16384
 2065              	.LBE790:
 2066              	.LBE789:
 2067              	.LBB837:
   7:DSP/FX/PitchShift.cpp ****         buffer[L][i] = 0.0f;
 2068              		.loc 3 7 22 view .LVU580
 2069 0008 0026     		movs	r6, #0
 2070              	.LBE837:
 2071              	.LBB838:
 2072              	.LBB833:
  67:../../../DaisySP//Source/Effects/pitchshifter.h ****         mod_freq_     = 5.0f;
 2073              		.loc 4 67 23 view .LVU581
 2074 000a 7C4A     		ldr	r2, .L78
  66:../../../DaisySP//Source/Effects/pitchshifter.h ****         sr_           = sr;
 2075              		.loc 4 66 23 view .LVU582
 2076 000c 0027     		movs	r7, #0
  67:../../../DaisySP//Source/Effects/pitchshifter.h ****         mod_freq_     = 5.0f;
 2077              		.loc 4 67 23 view .LVU583
 2078 000e 04F64833 		addw	r3, r4, #2888
 2079 0012 00F59749 		add	r9, r0, #19328
 2080              	.LBE833:
 2081              	.LBE838:
   4:DSP/FX/PitchShift.cpp **** {
 2082              		.loc 3 4 1 view .LVU584
 2083 0016 0546     		mov	r5, r0
 2084 0018 8846     		mov	r8, r1
  11:DSP/FX/PitchShift.cpp ****     shifter.Init(48000);
 2085              		.loc 3 11 17 view .LVU585
 2086 001a 00F1200B 		add	fp, r0, #32
 2087 001e 09F12809 		add	r9, r9, #40
   4:DSP/FX/PitchShift.cpp **** {
 2088              		.loc 3 4 1 view .LVU586
 2089 0022 2DED028B 		vpush.64	{d8}
 2090              		.cfi_def_cfa_offset 44
 2091              		.cfi_offset 80, -44
 2092              		.cfi_offset 81, -40
 2093              	.LBB839:
   7:DSP/FX/PitchShift.cpp ****         buffer[L][i] = 0.0f;
 2094              		.loc 3 7 22 view .LVU587
 2095 0026 0660     		str	r6, [r0]	@ float
   8:DSP/FX/PitchShift.cpp ****         buffer[R][i] = 0.0f;
 2096              		.loc 3 8 9 is_stmt 1 view .LVU588
 2097              	.LBE839:
   4:DSP/FX/PitchShift.cpp **** {
ARM GAS  /var/folders/wz/z09yph4n0qj4t7mjxhl6ttn80000gn/T//ccNJmc12.s 			page 72


 2098              		.loc 3 4 1 is_stmt 0 view .LVU589
 2099 0028 8BB0     		sub	sp, sp, #44
 2100              		.cfi_def_cfa_offset 88
 2101              	.LBB840:
   8:DSP/FX/PitchShift.cpp ****         buffer[R][i] = 0.0f;
 2102              		.loc 3 8 22 view .LVU590
 2103 002a 0661     		str	r6, [r0, #16]	@ float
   5:DSP/FX/PitchShift.cpp ****     for(size_t i = 0 ; i < BLOCKLENGTH ; i++)
 2104              		.loc 3 5 5 is_stmt 1 view .LVU591
 2105              	.LVL136:
   5:DSP/FX/PitchShift.cpp ****     for(size_t i = 0 ; i < BLOCKLENGTH ; i++)
 2106              		.loc 3 5 26 view .LVU592
   7:DSP/FX/PitchShift.cpp ****         buffer[L][i] = 0.0f;
 2107              		.loc 3 7 9 view .LVU593
   7:DSP/FX/PitchShift.cpp ****         buffer[L][i] = 0.0f;
 2108              		.loc 3 7 22 is_stmt 0 view .LVU594
 2109 002c 4660     		str	r6, [r0, #4]	@ float
   8:DSP/FX/PitchShift.cpp ****         buffer[R][i] = 0.0f;
 2110              		.loc 3 8 9 is_stmt 1 view .LVU595
   8:DSP/FX/PitchShift.cpp ****         buffer[R][i] = 0.0f;
 2111              		.loc 3 8 22 is_stmt 0 view .LVU596
 2112 002e 4661     		str	r6, [r0, #20]	@ float
   5:DSP/FX/PitchShift.cpp ****     for(size_t i = 0 ; i < BLOCKLENGTH ; i++)
 2113              		.loc 3 5 5 is_stmt 1 view .LVU597
 2114              	.LVL137:
   5:DSP/FX/PitchShift.cpp ****     for(size_t i = 0 ; i < BLOCKLENGTH ; i++)
 2115              		.loc 3 5 26 view .LVU598
   7:DSP/FX/PitchShift.cpp ****         buffer[L][i] = 0.0f;
 2116              		.loc 3 7 9 view .LVU599
   7:DSP/FX/PitchShift.cpp ****         buffer[L][i] = 0.0f;
 2117              		.loc 3 7 22 is_stmt 0 view .LVU600
 2118 0030 8660     		str	r6, [r0, #8]	@ float
   8:DSP/FX/PitchShift.cpp ****         buffer[R][i] = 0.0f;
 2119              		.loc 3 8 9 is_stmt 1 view .LVU601
   8:DSP/FX/PitchShift.cpp ****         buffer[R][i] = 0.0f;
 2120              		.loc 3 8 22 is_stmt 0 view .LVU602
 2121 0032 8661     		str	r6, [r0, #24]	@ float
   5:DSP/FX/PitchShift.cpp ****     for(size_t i = 0 ; i < BLOCKLENGTH ; i++)
 2122              		.loc 3 5 5 is_stmt 1 view .LVU603
 2123              	.LVL138:
   5:DSP/FX/PitchShift.cpp ****     for(size_t i = 0 ; i < BLOCKLENGTH ; i++)
 2124              		.loc 3 5 26 view .LVU604
   7:DSP/FX/PitchShift.cpp ****         buffer[L][i] = 0.0f;
 2125              		.loc 3 7 9 view .LVU605
   7:DSP/FX/PitchShift.cpp ****         buffer[L][i] = 0.0f;
 2126              		.loc 3 7 22 is_stmt 0 view .LVU606
 2127 0034 C660     		str	r6, [r0, #12]	@ float
   8:DSP/FX/PitchShift.cpp ****         buffer[R][i] = 0.0f;
 2128              		.loc 3 8 9 is_stmt 1 view .LVU607
   8:DSP/FX/PitchShift.cpp ****         buffer[R][i] = 0.0f;
 2129              		.loc 3 8 22 is_stmt 0 view .LVU608
 2130 0036 C661     		str	r6, [r0, #28]	@ float
   5:DSP/FX/PitchShift.cpp ****     for(size_t i = 0 ; i < BLOCKLENGTH ; i++)
 2131              		.loc 3 5 5 is_stmt 1 view .LVU609
 2132              	.LVL139:
   5:DSP/FX/PitchShift.cpp ****     for(size_t i = 0 ; i < BLOCKLENGTH ; i++)
 2133              		.loc 3 5 26 view .LVU610
ARM GAS  /var/folders/wz/z09yph4n0qj4t7mjxhl6ttn80000gn/T//ccNJmc12.s 			page 73


 2134              	.LBE840:
  11:DSP/FX/PitchShift.cpp ****     shifter.Init(48000);
 2135              		.loc 3 11 5 view .LVU611
 2136              	.LBB841:
 2137              	.LBI789:
  64:../../../DaisySP//Source/Effects/pitchshifter.h ****     {
 2138              		.loc 4 64 10 view .LVU612
 2139              	.LBB834:
  66:../../../DaisySP//Source/Effects/pitchshifter.h ****         sr_           = sr;
 2140              		.loc 4 66 9 view .LVU613
  66:../../../DaisySP//Source/Effects/pitchshifter.h ****         sr_           = sr;
 2141              		.loc 4 66 23 is_stmt 0 view .LVU614
 2142 0038 84F8447B 		strb	r7, [r4, #2884]
  67:../../../DaisySP//Source/Effects/pitchshifter.h ****         mod_freq_     = 5.0f;
 2143              		.loc 4 67 9 is_stmt 1 view .LVU615
  67:../../../DaisySP//Source/Effects/pitchshifter.h ****         mod_freq_     = 5.0f;
 2144              		.loc 4 67 23 is_stmt 0 view .LVU616
 2145 003c 1A60     		str	r2, [r3]	@ float
  68:../../../DaisySP//Source/Effects/pitchshifter.h ****         SetSemitones();
 2146              		.loc 4 68 9 is_stmt 1 view .LVU617
  68:../../../DaisySP//Source/Effects/pitchshifter.h ****         SetSemitones();
 2147              		.loc 4 68 23 is_stmt 0 view .LVU618
 2148 003e 04F63C33 		addw	r3, r4, #2876
 2149 0042 6F4A     		ldr	r2, .L78+4
 2150 0044 1A60     		str	r2, [r3]	@ float
  69:../../../DaisySP//Source/Effects/pitchshifter.h ****         for(uint8_t i = 0; i < 2; i++)
 2151              		.loc 4 69 9 is_stmt 1 view .LVU619
 2152              	.LVL140:
 2153              	.LBB791:
 2154              	.LBI791:
 184:../../../DaisySP//Source/Effects/pitchshifter.h **** 
 185:../../../DaisySP//Source/Effects/pitchshifter.h ****   private:
 186:../../../DaisySP//Source/Effects/pitchshifter.h ****     inline void SetSemitones()
 2155              		.loc 4 186 17 view .LVU620
 2156              	.LBB792:
 187:../../../DaisySP//Source/Effects/pitchshifter.h ****     {
 188:../../../DaisySP//Source/Effects/pitchshifter.h ****         for(size_t i = 0; i < 12; i++)
 2157              		.loc 4 188 29 view .LVU621
 2158              	.L76:
 189:../../../DaisySP//Source/Effects/pitchshifter.h ****         {
 190:../../../DaisySP//Source/Effects/pitchshifter.h ****             semitone_ratios_[i] = powf(2.0f, (float)i / 12);
 2159              		.loc 4 190 13 view .LVU622
 2160              		.loc 4 190 46 is_stmt 0 view .LVU623
 2161 0046 07EE907A 		vmov	s15, r7	@ int
 188:../../../DaisySP//Source/Effects/pitchshifter.h ****         {
 2162              		.loc 4 188 9 view .LVU624
 2163 004a 0137     		adds	r7, r7, #1
 2164              	.LVL141:
 2165              		.loc 4 190 39 view .LVU625
 2166 004c B0EE000A 		vmov.f32	s0, #2.0e+0
 2167              		.loc 4 190 46 view .LVU626
 2168 0050 F8EEE70A 		vcvt.f32.s32	s1, s15
 2169              		.loc 4 190 39 view .LVU627
 2170 0054 F2EE087A 		vmov.f32	s15, #1.2e+1
 2171              	.LVL142:
 2172              		.loc 4 190 39 view .LVU628
 2173 0058 C0EEA70A 		vdiv.f32	s1, s1, s15
ARM GAS  /var/folders/wz/z09yph4n0qj4t7mjxhl6ttn80000gn/T//ccNJmc12.s 			page 74


 2174 005c FFF7FEFF 		bl	powf
 2175              	.LVL143:
 188:../../../DaisySP//Source/Effects/pitchshifter.h ****         {
 2176              		.loc 4 188 29 view .LVU629
 2177 0060 0C2F     		cmp	r7, #12
 2178              		.loc 4 190 33 view .LVU630
 2179 0062 A9EC010A 		vstmia.32	r9!, {s0}
 188:../../../DaisySP//Source/Effects/pitchshifter.h ****         {
 2180              		.loc 4 188 9 is_stmt 1 view .LVU631
 2181              	.LVL144:
 188:../../../DaisySP//Source/Effects/pitchshifter.h ****         {
 2182              		.loc 4 188 29 view .LVU632
 2183 0066 EED1     		bne	.L76
 2184              	.LVL145:
 188:../../../DaisySP//Source/Effects/pitchshifter.h ****         {
 2185              		.loc 4 188 29 is_stmt 0 view .LVU633
 2186              	.LBE792:
 2187              	.LBE791:
 2188              	.LBB793:
  70:../../../DaisySP//Source/Effects/pitchshifter.h ****         {
 2189              		.loc 4 70 30 is_stmt 1 view .LVU634
  72:../../../DaisySP//Source/Effects/pitchshifter.h ****             d_[i].Init();
 2190              		.loc 4 72 13 view .LVU635
  72:../../../DaisySP//Source/Effects/pitchshifter.h ****             d_[i].Init();
 2191              		.loc 4 72 22 is_stmt 0 view .LVU636
 2192 0068 04F53763 		add	r3, r4, #2928
 2193              	.LBB794:
 2194              	.LBB795:
 2195              	.LBB796:
 2196              	.LBB797:
  34:../../../DaisySP//Source/Utility/delayline.h ****         }
 2197              		.loc 6 34 22 view .LVU637
 2198 006c 4FF41652 		mov	r2, #9600
 2199 0070 0021     		movs	r1, #0
 2200 0072 05F12C00 		add	r0, r5, #44
 2201              	.LBE797:
 2202              	.LBE796:
 2203              	.LBE795:
 2204              	.LBE794:
  72:../../../DaisySP//Source/Effects/pitchshifter.h ****             d_[i].Init();
 2205              		.loc 4 72 22 view .LVU638
 2206 0076 1E60     		str	r6, [r3]	@ float
  73:../../../DaisySP//Source/Effects/pitchshifter.h ****             phs_[i].Init(sr, 50, i == 0 ? 0 : PI_F);
 2207              		.loc 4 73 13 is_stmt 1 view .LVU639
 2208              	.LVL146:
 2209              	.LBB812:
 2210              	.LBI794:
  27:../../../DaisySP//Source/Utility/delayline.h ****     /** clears buffer, sets write ptr to 0, and delay to 1 sample.
 2211              		.loc 6 27 10 view .LVU640
 2212              	.LBB807:
 2213              	.LBI795:
  30:../../../DaisySP//Source/Utility/delayline.h ****     {
 2214              		.loc 6 30 10 view .LVU641
 2215              	.LBB802:
 2216              	.LBB798:
  32:../../../DaisySP//Source/Utility/delayline.h ****         {
 2217              		.loc 6 32 29 view .LVU642
ARM GAS  /var/folders/wz/z09yph4n0qj4t7mjxhl6ttn80000gn/T//ccNJmc12.s 			page 75


 2218              	.LBE798:
  37:../../../DaisySP//Source/Utility/delayline.h ****     }
 2219              		.loc 6 37 20 is_stmt 0 view .LVU643
 2220 0078 4FF00009 		mov	r9, #0
 2221              	.LBB799:
  34:../../../DaisySP//Source/Utility/delayline.h ****         }
 2222              		.loc 6 34 22 view .LVU644
 2223 007c FFF7FEFF 		bl	memset
 2224              	.LVL147:
  34:../../../DaisySP//Source/Utility/delayline.h ****         }
 2225              		.loc 6 34 22 view .LVU645
 2226              	.LBE799:
  37:../../../DaisySP//Source/Utility/delayline.h ****     }
 2227              		.loc 6 37 20 view .LVU646
 2228 0080 4FF0010A 		mov	r10, #1
 2229              	.LBE802:
 2230              	.LBE807:
 2231              	.LBE812:
 2232              	.LBB813:
 2233              	.LBB814:
 2234              		.file 9 "../../../DaisySP//Source/Control/phasor.h"
   1:../../../DaisySP//Source/Control/phasor.h **** #pragma once
   2:../../../DaisySP//Source/Control/phasor.h **** #ifndef DSY_PHASOR_H
   3:../../../DaisySP//Source/Control/phasor.h **** #define DSY_PHASOR_H
   4:../../../DaisySP//Source/Control/phasor.h **** #ifdef __cplusplus
   5:../../../DaisySP//Source/Control/phasor.h **** 
   6:../../../DaisySP//Source/Control/phasor.h **** namespace daisysp
   7:../../../DaisySP//Source/Control/phasor.h **** {
   8:../../../DaisySP//Source/Control/phasor.h **** /** Generates a normalized signal moving from 0-1 at the specified frequency.
   9:../../../DaisySP//Source/Control/phasor.h **** 
  10:../../../DaisySP//Source/Control/phasor.h **** \todo Selecting which channels should be initialized/included in the sequence conversion.
  11:../../../DaisySP//Source/Control/phasor.h **** \todo Setup a similar start function for an external mux, but that seems outside the scope of this 
  12:../../../DaisySP//Source/Control/phasor.h **** 
  13:../../../DaisySP//Source/Control/phasor.h **** */
  14:../../../DaisySP//Source/Control/phasor.h **** class Phasor
  15:../../../DaisySP//Source/Control/phasor.h **** {
  16:../../../DaisySP//Source/Control/phasor.h ****   public:
  17:../../../DaisySP//Source/Control/phasor.h ****     Phasor() {}
  18:../../../DaisySP//Source/Control/phasor.h ****     ~Phasor() {}
  19:../../../DaisySP//Source/Control/phasor.h ****     /** Initializes the Phasor module
  20:../../../DaisySP//Source/Control/phasor.h ****     sample rate, and freq are in Hz
  21:../../../DaisySP//Source/Control/phasor.h ****     initial phase is in radians
  22:../../../DaisySP//Source/Control/phasor.h ****     Additional Init functions have defaults when arg is not specified:
  23:../../../DaisySP//Source/Control/phasor.h ****     - phs = 0.0f
  24:../../../DaisySP//Source/Control/phasor.h ****     - freq = 1.0f
  25:../../../DaisySP//Source/Control/phasor.h ****     */
  26:../../../DaisySP//Source/Control/phasor.h ****     inline void Init(float sample_rate, float freq, float initial_phase)
  27:../../../DaisySP//Source/Control/phasor.h ****     {
  28:../../../DaisySP//Source/Control/phasor.h ****         sample_rate_ = sample_rate;
 2235              		.loc 9 28 22 view .LVU647
 2236 0084 04F65433 		addw	r3, r4, #2900
 2237 0088 9FED5E8A 		vldr.32	s16, .L78+8
  29:../../../DaisySP//Source/Control/phasor.h ****         phs_         = initial_phase;
  30:../../../DaisySP//Source/Control/phasor.h ****         SetFreq(freq);
 2238              		.loc 9 30 16 view .LVU648
 2239 008c 05F59640 		add	r0, r5, #19200
 2240 0090 9FED5D0A 		vldr.32	s0, .L78+12
ARM GAS  /var/folders/wz/z09yph4n0qj4t7mjxhl6ttn80000gn/T//ccNJmc12.s 			page 76


 2241              	.LBE814:
 2242              	.LBE813:
 2243              	.LBB819:
 2244              	.LBB808:
 2245              	.LBB803:
  37:../../../DaisySP//Source/Utility/delayline.h ****     }
 2246              		.loc 6 37 20 view .LVU649
 2247 0094 C5E9099A 		strd	r9, r10, [r5, #36]
 2248              	.LVL148:
  37:../../../DaisySP//Source/Utility/delayline.h ****     }
 2249              		.loc 6 37 20 view .LVU650
 2250              	.LBE803:
 2251              	.LBE808:
 2252              	.LBE819:
  74:../../../DaisySP//Source/Effects/pitchshifter.h ****         }
 2253              		.loc 4 74 13 is_stmt 1 view .LVU651
 2254              	.LBB820:
 2255              	.LBI813:
  26:../../../DaisySP//Source/Control/phasor.h ****     {
 2256              		.loc 9 26 17 view .LVU652
 2257              	.LBB815:
  28:../../../DaisySP//Source/Control/phasor.h ****         phs_         = initial_phase;
 2258              		.loc 9 28 9 view .LVU653
  28:../../../DaisySP//Source/Control/phasor.h ****         phs_         = initial_phase;
 2259              		.loc 9 28 22 is_stmt 0 view .LVU654
 2260 0098 83ED008A 		vstr.32	s16, [r3]
  29:../../../DaisySP//Source/Control/phasor.h ****         SetFreq(freq);
 2261              		.loc 9 29 9 is_stmt 1 view .LVU655
  29:../../../DaisySP//Source/Control/phasor.h ****         SetFreq(freq);
 2262              		.loc 9 29 22 is_stmt 0 view .LVU656
 2263 009c 04F65C33 		addw	r3, r4, #2908
 2264              		.loc 9 30 16 view .LVU657
 2265 00a0 5030     		adds	r0, r0, #80
  29:../../../DaisySP//Source/Control/phasor.h ****         SetFreq(freq);
 2266              		.loc 9 29 22 view .LVU658
 2267 00a2 1E60     		str	r6, [r3]	@ float
 2268              		.loc 9 30 9 is_stmt 1 view .LVU659
 2269              	.LBE815:
 2270              	.LBE820:
  74:../../../DaisySP//Source/Effects/pitchshifter.h ****         }
 2271              		.loc 4 74 25 is_stmt 0 view .LVU660
 2272 00a4 05F12003 		add	r3, r5, #32
 2273 00a8 0193     		str	r3, [sp, #4]
 2274              	.LBB821:
 2275              	.LBB816:
 2276              		.loc 9 30 16 view .LVU661
 2277 00aa FFF7FEFF 		bl	_ZN7daisysp6Phasor7SetFreqEf
 2278              	.LVL149:
 2279              		.loc 9 30 16 view .LVU662
 2280              	.LBE816:
 2281              	.LBE821:
  70:../../../DaisySP//Source/Effects/pitchshifter.h ****         {
 2282              		.loc 4 70 9 is_stmt 1 view .LVU663
  70:../../../DaisySP//Source/Effects/pitchshifter.h ****         {
 2283              		.loc 4 70 30 view .LVU664
  72:../../../DaisySP//Source/Effects/pitchshifter.h ****             d_[i].Init();
 2284              		.loc 4 72 13 view .LVU665
ARM GAS  /var/folders/wz/z09yph4n0qj4t7mjxhl6ttn80000gn/T//ccNJmc12.s 			page 77


  72:../../../DaisySP//Source/Effects/pitchshifter.h ****             d_[i].Init();
 2285              		.loc 4 72 22 is_stmt 0 view .LVU666
 2286 00ae 04F67432 		addw	r2, r4, #2932
 2287              	.LBB822:
 2288              	.LBB809:
 2289              	.LBB804:
 2290              	.LBB800:
  34:../../../DaisySP//Source/Utility/delayline.h ****         }
 2291              		.loc 6 34 22 view .LVU667
 2292 00b2 4946     		mov	r1, r9
 2293              	.LBE800:
 2294              	.LBE804:
 2295              	.LBE809:
 2296              	.LBE822:
  72:../../../DaisySP//Source/Effects/pitchshifter.h ****             d_[i].Init();
 2297              		.loc 4 72 22 view .LVU668
 2298 00b4 1660     		str	r6, [r2]	@ float
  73:../../../DaisySP//Source/Effects/pitchshifter.h ****             phs_[i].Init(sr, 50, i == 0 ? 0 : PI_F);
 2299              		.loc 4 73 13 is_stmt 1 view .LVU669
 2300              	.LVL150:
 2301              	.LBB823:
  27:../../../DaisySP//Source/Utility/delayline.h ****     /** clears buffer, sets write ptr to 0, and delay to 1 sample.
 2302              		.loc 6 27 10 view .LVU670
 2303              	.LBB810:
  30:../../../DaisySP//Source/Utility/delayline.h ****     {
 2304              		.loc 6 30 10 view .LVU671
 2305              	.LBB805:
 2306              	.LBB801:
  32:../../../DaisySP//Source/Utility/delayline.h ****         {
 2307              		.loc 6 32 29 view .LVU672
  34:../../../DaisySP//Source/Utility/delayline.h ****         }
 2308              		.loc 6 34 22 is_stmt 0 view .LVU673
 2309 00b6 4FF41652 		mov	r2, #9600
 2310 00ba A818     		adds	r0, r5, r2
 2311 00bc 3830     		adds	r0, r0, #56
 2312 00be FFF7FEFF 		bl	memset
 2313              	.LVL151:
  34:../../../DaisySP//Source/Utility/delayline.h ****         }
 2314              		.loc 6 34 22 view .LVU674
 2315              	.LBE801:
  36:../../../DaisySP//Source/Utility/delayline.h ****         delay_     = 1;
 2316              		.loc 6 36 20 view .LVU675
 2317 00c2 05F50052 		add	r2, r5, #8192
 2318              	.LBE805:
 2319              	.LBE810:
 2320              	.LBE823:
 2321              	.LBB824:
 2322              	.LBB817:
 2323              		.loc 9 30 16 view .LVU676
 2324 00c6 019B     		ldr	r3, [sp, #4]
 2325              	.LBE817:
 2326              	.LBE824:
 2327              	.LBB825:
 2328              	.LBB811:
 2329              	.LBB806:
  36:../../../DaisySP//Source/Utility/delayline.h ****         delay_     = 1;
 2330              		.loc 6 36 20 view .LVU677
ARM GAS  /var/folders/wz/z09yph4n0qj4t7mjxhl6ttn80000gn/T//ccNJmc12.s 			page 78


 2331 00c8 C2F8B095 		str	r9, [r2, #1456]
  37:../../../DaisySP//Source/Utility/delayline.h ****     }
 2332              		.loc 6 37 20 view .LVU678
 2333 00cc C2F8B4A5 		str	r10, [r2, #1460]
 2334              	.LVL152:
  37:../../../DaisySP//Source/Utility/delayline.h ****     }
 2335              		.loc 6 37 20 view .LVU679
 2336              	.LBE806:
 2337              	.LBE811:
 2338              	.LBE825:
  74:../../../DaisySP//Source/Effects/pitchshifter.h ****         }
 2339              		.loc 4 74 13 is_stmt 1 view .LVU680
 2340              	.LBB826:
  26:../../../DaisySP//Source/Control/phasor.h ****     {
 2341              		.loc 9 26 17 view .LVU681
 2342              	.LBB818:
  28:../../../DaisySP//Source/Control/phasor.h ****         phs_         = initial_phase;
 2343              		.loc 9 28 9 view .LVU682
  28:../../../DaisySP//Source/Control/phasor.h ****         phs_         = initial_phase;
 2344              		.loc 9 28 22 is_stmt 0 view .LVU683
 2345 00d0 04F66432 		addw	r2, r4, #2916
  29:../../../DaisySP//Source/Control/phasor.h ****         SetFreq(freq);
 2346              		.loc 9 29 22 view .LVU684
 2347 00d4 4D49     		ldr	r1, .L78+16
 2348              		.loc 9 30 16 view .LVU685
 2349 00d6 03F59640 		add	r0, r3, #19200
  28:../../../DaisySP//Source/Control/phasor.h ****         phs_         = initial_phase;
 2350              		.loc 9 28 22 view .LVU686
 2351 00da 82ED008A 		vstr.32	s16, [r2]
  29:../../../DaisySP//Source/Control/phasor.h ****         SetFreq(freq);
 2352              		.loc 9 29 9 is_stmt 1 view .LVU687
  29:../../../DaisySP//Source/Control/phasor.h ****         SetFreq(freq);
 2353              		.loc 9 29 22 is_stmt 0 view .LVU688
 2354 00de 04F66C32 		addw	r2, r4, #2924
 2355              		.loc 9 30 16 view .LVU689
 2356 00e2 9FED490A 		vldr.32	s0, .L78+12
 2357 00e6 4030     		adds	r0, r0, #64
  29:../../../DaisySP//Source/Control/phasor.h ****         SetFreq(freq);
 2358              		.loc 9 29 22 view .LVU690
 2359 00e8 1160     		str	r1, [r2]	@ float
 2360              		.loc 9 30 9 is_stmt 1 view .LVU691
 2361              		.loc 9 30 16 is_stmt 0 view .LVU692
 2362 00ea FFF7FEFF 		bl	_ZN7daisysp6Phasor7SetFreqEf
 2363              	.LVL153:
 2364              		.loc 9 30 16 view .LVU693
 2365              	.LBE818:
 2366              	.LBE826:
  70:../../../DaisySP//Source/Effects/pitchshifter.h ****         {
 2367              		.loc 4 70 9 is_stmt 1 view .LVU694
  70:../../../DaisySP//Source/Effects/pitchshifter.h ****         {
 2368              		.loc 4 70 30 view .LVU695
 2369              	.LBE793:
  76:../../../DaisySP//Source/Effects/pitchshifter.h ****         del_size_ = SHIFT_BUFFER_SIZE;
 2370              		.loc 4 76 9 view .LVU696
  77:../../../DaisySP//Source/Effects/pitchshifter.h ****         SetDelSize(del_size_);
 2371              		.loc 4 77 19 is_stmt 0 view .LVU697
 2372 00ee 4FF41663 		mov	r3, #2400
ARM GAS  /var/folders/wz/z09yph4n0qj4t7mjxhl6ttn80000gn/T//ccNJmc12.s 			page 79


 2373              	.LBB827:
 2374              	.LBB828:
 178:../../../DaisySP//Source/Effects/pitchshifter.h ****     }
 2375              		.loc 4 178 25 view .LVU698
 2376 00f2 5846     		mov	r0, fp
 2377              	.LBE828:
 2378              	.LBE827:
  76:../../../DaisySP//Source/Effects/pitchshifter.h ****         del_size_ = SHIFT_BUFFER_SIZE;
 2379              		.loc 4 76 19 view .LVU699
 2380 00f4 84F84CAB 		strb	r10, [r4, #2892]
  77:../../../DaisySP//Source/Effects/pitchshifter.h ****         SetDelSize(del_size_);
 2381              		.loc 4 77 9 is_stmt 1 view .LVU700
  77:../../../DaisySP//Source/Effects/pitchshifter.h ****         SetDelSize(del_size_);
 2382              		.loc 4 77 19 is_stmt 0 view .LVU701
 2383 00f8 C4F8403B 		str	r3, [r4, #2880]
  78:../../../DaisySP//Source/Effects/pitchshifter.h ****         fun_ = 0.0f;
 2384              		.loc 4 78 9 is_stmt 1 view .LVU702
 2385              	.LVL154:
 2386              	.LBB831:
 2387              	.LBI827:
 174:../../../DaisySP//Source/Effects/pitchshifter.h ****     {
 2388              		.loc 4 174 10 view .LVU703
 2389              	.LBB829:
 176:../../../DaisySP//Source/Effects/pitchshifter.h ****         force_recalc_ = true;
 2390              		.loc 4 176 9 view .LVU704
 177:../../../DaisySP//Source/Effects/pitchshifter.h ****         SetTransposition(transpose_);
 2391              		.loc 4 177 9 view .LVU705
 178:../../../DaisySP//Source/Effects/pitchshifter.h ****     }
 2392              		.loc 4 178 25 is_stmt 0 view .LVU706
 2393 00fc 05F59743 		add	r3, r5, #19328
 177:../../../DaisySP//Source/Effects/pitchshifter.h ****         SetTransposition(transpose_);
 2394              		.loc 4 177 23 view .LVU707
 2395 0100 84F844AB 		strb	r10, [r4, #2884]
 178:../../../DaisySP//Source/Effects/pitchshifter.h ****     }
 2396              		.loc 4 178 9 is_stmt 1 view .LVU708
 2397              	.LBE829:
 2398              	.LBE831:
 2399              	.LBE834:
 2400              	.LBE841:
 2401              	.LBB842:
 2402              	.LBB843:
  32:DSP/FX/../../Parameters/AudioParameter.h **** 
 2403              		.loc 7 32 13 is_stmt 0 view .LVU709
 2404 0104 4FF07E5B 		mov	fp, #1065353216
 2405              	.LVL155:
  32:DSP/FX/../../Parameters/AudioParameter.h **** 
 2406              		.loc 7 32 13 view .LVU710
 2407              	.LBE843:
 2408              	.LBE842:
 2409              	.LBB847:
 2410              	.LBB835:
 2411              	.LBB832:
 2412              	.LBB830:
 178:../../../DaisySP//Source/Effects/pitchshifter.h ****     }
 2413              		.loc 4 178 25 view .LVU711
 2414 0108 93ED000A 		vldr.32	s0, [r3]
 2415 010c FFF7FEFF 		bl	_ZN7daisysp12PitchShifter16SetTranspositionERKf.isra.0
ARM GAS  /var/folders/wz/z09yph4n0qj4t7mjxhl6ttn80000gn/T//ccNJmc12.s 			page 80


 2416              	.LVL156:
 178:../../../DaisySP//Source/Effects/pitchshifter.h ****     }
 2417              		.loc 4 178 25 view .LVU712
 2418              	.LBE830:
 2419              	.LBE832:
  79:../../../DaisySP//Source/Effects/pitchshifter.h ****     }
 2420              		.loc 4 79 9 is_stmt 1 view .LVU713
  79:../../../DaisySP//Source/Effects/pitchshifter.h ****     }
 2421              		.loc 4 79 14 is_stmt 0 view .LVU714
 2422 0110 04F68433 		addw	r3, r4, #2948
 2423              	.LBE835:
 2424              	.LBE847:
 2425              	.LBB848:
 2426              	.LBB844:
  36:DSP/FX/../../Parameters/AudioParameter.h ****     }
 2427              		.loc 7 36 18 view .LVU715
 2428 0114 05F59840 		add	r0, r5, #19456
 2429 0118 06A9     		add	r1, sp, #24
 2430              	.LBE844:
 2431              	.LBE848:
 2432              	.LBB849:
 2433              	.LBB836:
  79:../../../DaisySP//Source/Effects/pitchshifter.h ****     }
 2434              		.loc 4 79 14 view .LVU716
 2435 011a 1E60     		str	r6, [r3]	@ float
 2436              	.LVL157:
  79:../../../DaisySP//Source/Effects/pitchshifter.h ****     }
 2437              		.loc 4 79 14 view .LVU717
 2438              	.LBE836:
 2439              	.LBE849:
  14:DSP/FX/PitchShift.cpp ****     amount.param.init(seed, 0, 1, LINEAR, ChannelIDs::AMP2, [this] (float a) { amount.value = a; })
 2440              		.loc 3 14 5 is_stmt 1 view .LVU718
 2441              	.LBB850:
 2442              	.LBI850:
 601:/Library/DaisyToolchain/0.2.0/arm/arm-none-eabi/include/c++/10.3.1/bits/std_function.h ****       function(_Functor __f)
 2443              		.loc 1 601 7 view .LVU719
 2444              	.LBB851:
 2445              	.LBB852:
 2446              	.LBI852:
 240:/Library/DaisyToolchain/0.2.0/arm/arm-none-eabi/include/c++/10.3.1/bits/std_function.h **** 
 2447              		.loc 1 240 5 view .LVU720
 240:/Library/DaisyToolchain/0.2.0/arm/arm-none-eabi/include/c++/10.3.1/bits/std_function.h **** 
 2448              		.loc 1 240 5 is_stmt 0 view .LVU721
 2449              	.LBE852:
 2450              	.LBB853:
 2451              	.LBB854:
 2452              	.LBI854:
 227:/Library/DaisyToolchain/0.2.0/arm/arm-none-eabi/include/c++/10.3.1/bits/std_function.h **** 	  { return true; }
 2453              		.loc 1 227 4 is_stmt 1 view .LVU722
 227:/Library/DaisyToolchain/0.2.0/arm/arm-none-eabi/include/c++/10.3.1/bits/std_function.h **** 	  { return true; }
 2454              		.loc 1 227 4 is_stmt 0 view .LVU723
 2455              	.LBE854:
 2456              	.LBB855:
 2457              	.LBI855:
 101:/Library/DaisyToolchain/0.2.0/arm/arm-none-eabi/include/c++/10.3.1/bits/move.h ****     { return static_cast<typename std::remove_reference<_Tp>::type&&>(__t); }
 2458              		.loc 8 101 5 is_stmt 1 view .LVU724
 101:/Library/DaisyToolchain/0.2.0/arm/arm-none-eabi/include/c++/10.3.1/bits/move.h ****     { return static_cast<typename std::remove_reference<_Tp>::type&&>(__t); }
ARM GAS  /var/folders/wz/z09yph4n0qj4t7mjxhl6ttn80000gn/T//ccNJmc12.s 			page 81


 2459              		.loc 8 101 5 is_stmt 0 view .LVU725
 2460              	.LBE855:
 2461              	.LBB856:
 2462              	.LBI856:
 207:/Library/DaisyToolchain/0.2.0/arm/arm-none-eabi/include/c++/10.3.1/bits/std_function.h **** 	{ _M_init_functor(__functor, std::move(__f), _Local_storage()); }
 2463              		.loc 1 207 2 is_stmt 1 view .LVU726
 2464              	.LBB857:
 2465              	.LBI857:
 232:/Library/DaisyToolchain/0.2.0/arm/arm-none-eabi/include/c++/10.3.1/bits/std_function.h **** 	{ ::new (__functor._M_access()) _Functor(std::move(__f)); }
 2466              		.loc 1 232 2 view .LVU727
 232:/Library/DaisyToolchain/0.2.0/arm/arm-none-eabi/include/c++/10.3.1/bits/std_function.h **** 	{ ::new (__functor._M_access()) _Functor(std::move(__f)); }
 2467              		.loc 1 232 2 is_stmt 0 view .LVU728
 2468              	.LBE857:
 2469              	.LBE856:
 2470              	.LBE853:
 2471              	.LBE851:
 2472              	.LBE850:
  87:/Library/DaisyToolchain/0.2.0/arm/arm-none-eabi/include/c++/10.3.1/bits/std_function.h ****     const void* _M_access() const { return &_M_pod_data[0]; }
 2473              		.loc 1 87 37 is_stmt 1 view .LVU729
 2474              		.loc 5 175 3 view .LVU730
 2475              	.LBB865:
 2476              	.LBB863:
 2477              	.LBB861:
 610:/Library/DaisyToolchain/0.2.0/arm/arm-none-eabi/include/c++/10.3.1/bits/std_function.h **** 	    _M_manager = &_My_handler::_M_manager;
 2478              		.loc 1 610 17 is_stmt 0 view .LVU731
 2479 011c 3C4B     		ldr	r3, .L78+20
 2480              	.LBE861:
 2481              	.LBE863:
 2482              	.LBE865:
 2483              	.LBB866:
 2484              	.LBB845:
  36:DSP/FX/../../Parameters/AudioParameter.h ****     }
 2485              		.loc 7 36 18 view .LVU732
 2486 011e 1830     		adds	r0, r0, #24
  27:DSP/FX/../../Parameters/AudioParameter.h ****         input = 0;
 2487              		.loc 7 27 12 view .LVU733
 2488 0120 C4F8FC8B 		str	r8, [r4, #3068]
 2489              	.LBE845:
 2490              	.LBE866:
 2491              	.LBB867:
 2492              	.LBB864:
 2493              	.LBB862:
 610:/Library/DaisyToolchain/0.2.0/arm/arm-none-eabi/include/c++/10.3.1/bits/std_function.h **** 	    _M_manager = &_My_handler::_M_manager;
 2494              		.loc 1 610 17 view .LVU734
 2495 0124 0993     		str	r3, [sp, #36]
 611:/Library/DaisyToolchain/0.2.0/arm/arm-none-eabi/include/c++/10.3.1/bits/std_function.h **** 	  }
 2496              		.loc 1 611 17 view .LVU735
 2497 0126 3B4B     		ldr	r3, .L78+24
 2498              	.LBB860:
 2499              	.LBB859:
 2500              	.LBB858:
 233:/Library/DaisyToolchain/0.2.0/arm/arm-none-eabi/include/c++/10.3.1/bits/std_function.h **** 
 2501              		.loc 1 233 4 view .LVU736
 2502 0128 0695     		str	r5, [sp, #24]
 2503              	.LVL158:
 233:/Library/DaisyToolchain/0.2.0/arm/arm-none-eabi/include/c++/10.3.1/bits/std_function.h **** 
 2504              		.loc 1 233 4 view .LVU737
ARM GAS  /var/folders/wz/z09yph4n0qj4t7mjxhl6ttn80000gn/T//ccNJmc12.s 			page 82


 2505              	.LBE858:
 2506              	.LBE859:
 2507              	.LBE860:
 611:/Library/DaisyToolchain/0.2.0/arm/arm-none-eabi/include/c++/10.3.1/bits/std_function.h **** 	  }
 2508              		.loc 1 611 17 view .LVU738
 2509 012a 0893     		str	r3, [sp, #32]
 2510              	.LVL159:
 611:/Library/DaisyToolchain/0.2.0/arm/arm-none-eabi/include/c++/10.3.1/bits/std_function.h **** 	  }
 2511              		.loc 1 611 17 view .LVU739
 2512              	.LBE862:
 2513              	.LBE864:
 2514              	.LBE867:
 2515              	.LBB868:
 2516              	.LBI842:
  25:DSP/FX/../../Parameters/AudioParameter.h ****     {
 2517              		.loc 7 25 10 is_stmt 1 view .LVU740
 2518              	.LBB846:
  28:DSP/FX/../../Parameters/AudioParameter.h **** 
 2519              		.loc 7 28 15 is_stmt 0 view .LVU741
 2520 012c 04F6FC33 		addw	r3, r4, #3068
 2521              	.LVL160:
  28:DSP/FX/../../Parameters/AudioParameter.h **** 
 2522              		.loc 7 28 15 view .LVU742
 2523 0130 5E60     		str	r6, [r3, #4]	@ float
  30:DSP/FX/../../Parameters/AudioParameter.h ****         min = mi;
 2524              		.loc 7 30 16 view .LVU743
 2525 0132 DE60     		str	r6, [r3, #12]	@ float
  31:DSP/FX/../../Parameters/AudioParameter.h ****         max = ma;
 2526              		.loc 7 31 13 view .LVU744
 2527 0134 1E61     		str	r6, [r3, #16]	@ float
  32:DSP/FX/../../Parameters/AudioParameter.h **** 
 2528              		.loc 7 32 13 view .LVU745
 2529 0136 C3F814B0 		str	fp, [r3, #20]	@ float
  35:DSP/FX/../../Parameters/AudioParameter.h ****         callback = cb;
 2530              		.loc 7 35 19 view .LVU746
 2531 013a A4F814AC 		strh	r10, [r4, #3092]	@ movhi
  36:DSP/FX/../../Parameters/AudioParameter.h ****     }
 2532              		.loc 7 36 18 view .LVU747
 2533 013e FFF7FEFF 		bl	_ZNSt8functionIFvfEEaSERKS1_.isra.0
 2534              	.LVL161:
  36:DSP/FX/../../Parameters/AudioParameter.h ****     }
 2535              		.loc 7 36 18 view .LVU748
 2536              	.LBE846:
 2537              	.LBE868:
 2538              	.LBB869:
 2539              	.LBI869:
 303:/Library/DaisyToolchain/0.2.0/arm/arm-none-eabi/include/c++/10.3.1/bits/std_function.h ****     : public _Maybe_unary_or_binary_function<_Res, _ArgTypes...>,
 2540              		.loc 1 303 11 is_stmt 1 view .LVU749
 2541              	.LBB870:
 2542 0142 06A8     		add	r0, sp, #24
 2543              	.LVL162:
 303:/Library/DaisyToolchain/0.2.0/arm/arm-none-eabi/include/c++/10.3.1/bits/std_function.h ****     : public _Maybe_unary_or_binary_function<_Res, _ArgTypes...>,
 2544              		.loc 1 303 11 is_stmt 0 view .LVU750
 2545 0144 FFF7FEFF 		bl	_ZNSt14_Function_baseD2Ev
 2546              	.LVL163:
 303:/Library/DaisyToolchain/0.2.0/arm/arm-none-eabi/include/c++/10.3.1/bits/std_function.h ****     : public _Maybe_unary_or_binary_function<_Res, _ArgTypes...>,
 2547              		.loc 1 303 11 view .LVU751
ARM GAS  /var/folders/wz/z09yph4n0qj4t7mjxhl6ttn80000gn/T//ccNJmc12.s 			page 83


 2548              	.LBE870:
 2549              	.LBE869:
  15:DSP/FX/PitchShift.cpp ****     semitones.init(seed, -12, 12, LINEAR, ChannelIDs::AMP3, [this] (int s) { shifter.SetTranspositi
 2550              		.loc 3 15 5 is_stmt 1 view .LVU752
 2551              	.LBB871:
 2552              	.LBI871:
 601:/Library/DaisyToolchain/0.2.0/arm/arm-none-eabi/include/c++/10.3.1/bits/std_function.h ****       function(_Functor __f)
 2553              		.loc 1 601 7 view .LVU753
 2554              	.LBB872:
 2555              	.LBB873:
 2556              	.LBI873:
 240:/Library/DaisyToolchain/0.2.0/arm/arm-none-eabi/include/c++/10.3.1/bits/std_function.h **** 
 2557              		.loc 1 240 5 view .LVU754
 240:/Library/DaisyToolchain/0.2.0/arm/arm-none-eabi/include/c++/10.3.1/bits/std_function.h **** 
 2558              		.loc 1 240 5 is_stmt 0 view .LVU755
 2559              	.LBE873:
 2560              	.LBB874:
 2561              	.LBB875:
 2562              	.LBI875:
 227:/Library/DaisyToolchain/0.2.0/arm/arm-none-eabi/include/c++/10.3.1/bits/std_function.h **** 	  { return true; }
 2563              		.loc 1 227 4 is_stmt 1 view .LVU756
 227:/Library/DaisyToolchain/0.2.0/arm/arm-none-eabi/include/c++/10.3.1/bits/std_function.h **** 	  { return true; }
 2564              		.loc 1 227 4 is_stmt 0 view .LVU757
 2565              	.LBE875:
 2566              	.LBB876:
 2567              	.LBI876:
 101:/Library/DaisyToolchain/0.2.0/arm/arm-none-eabi/include/c++/10.3.1/bits/move.h ****     { return static_cast<typename std::remove_reference<_Tp>::type&&>(__t); }
 2568              		.loc 8 101 5 is_stmt 1 view .LVU758
 101:/Library/DaisyToolchain/0.2.0/arm/arm-none-eabi/include/c++/10.3.1/bits/move.h ****     { return static_cast<typename std::remove_reference<_Tp>::type&&>(__t); }
 2569              		.loc 8 101 5 is_stmt 0 view .LVU759
 2570              	.LBE876:
 2571              	.LBB877:
 2572              	.LBI877:
 207:/Library/DaisyToolchain/0.2.0/arm/arm-none-eabi/include/c++/10.3.1/bits/std_function.h **** 	{ _M_init_functor(__functor, std::move(__f), _Local_storage()); }
 2573              		.loc 1 207 2 is_stmt 1 view .LVU760
 2574              	.LBB878:
 2575              	.LBI878:
 232:/Library/DaisyToolchain/0.2.0/arm/arm-none-eabi/include/c++/10.3.1/bits/std_function.h **** 	{ ::new (__functor._M_access()) _Functor(std::move(__f)); }
 2576              		.loc 1 232 2 view .LVU761
 232:/Library/DaisyToolchain/0.2.0/arm/arm-none-eabi/include/c++/10.3.1/bits/std_function.h **** 	{ ::new (__functor._M_access()) _Functor(std::move(__f)); }
 2577              		.loc 1 232 2 is_stmt 0 view .LVU762
 2578              	.LBE878:
 2579              	.LBE877:
 2580              	.LBE874:
 2581              	.LBE872:
 2582              	.LBE871:
  87:/Library/DaisyToolchain/0.2.0/arm/arm-none-eabi/include/c++/10.3.1/bits/std_function.h ****     const void* _M_access() const { return &_M_pod_data[0]; }
 2583              		.loc 1 87 37 is_stmt 1 view .LVU763
 2584              		.loc 5 175 3 view .LVU764
 2585              	.LBB890:
 2586              	.LBB886:
 2587              	.LBB882:
 610:/Library/DaisyToolchain/0.2.0/arm/arm-none-eabi/include/c++/10.3.1/bits/std_function.h **** 	    _M_manager = &_My_handler::_M_manager;
 2588              		.loc 1 610 17 is_stmt 0 view .LVU765
 2589 0148 334B     		ldr	r3, .L78+28
 2590              	.LBE882:
 2591              	.LBE886:
ARM GAS  /var/folders/wz/z09yph4n0qj4t7mjxhl6ttn80000gn/T//ccNJmc12.s 			page 84


 2592              	.LBE890:
 2593              	.LBB891:
 2594              	.LBB892:
  35:DSP/FX/../../Parameters/AudioParameter.h ****         callback = cb;
 2595              		.loc 7 35 19 view .LVU766
 2596 014a 0222     		movs	r2, #2
  27:DSP/FX/../../Parameters/AudioParameter.h ****         input = 0;
 2597              		.loc 7 27 12 view .LVU767
 2598 014c C4F82C8C 		str	r8, [r4, #3116]
 2599              	.LBE892:
 2600              	.LBE891:
 2601              	.LBB955:
 2602              	.LBB887:
 2603              	.LBB883:
 610:/Library/DaisyToolchain/0.2.0/arm/arm-none-eabi/include/c++/10.3.1/bits/std_function.h **** 	    _M_manager = &_My_handler::_M_manager;
 2604              		.loc 1 610 17 view .LVU768
 2605 0150 0593     		str	r3, [sp, #20]
 2606              	.LBE883:
 2607              	.LBE887:
 2608              	.LBE955:
 2609              	.LBB956:
 2610              	.LBB951:
 2611              	.LBB893:
 2612              	.LBB894:
 2613              	.LBB895:
 2614              	.LBB896:
 2615              	.LBB897:
 593:/Library/DaisyToolchain/0.2.0/arm/arm-none-eabi/include/c++/10.3.1/bits/std_function.h **** 	  _M_invoker = __x._M_invoker;
 2616              		.loc 1 593 8 view .LVU769
 2617 0152 02A9     		add	r1, sp, #8
 2618              	.LVL164:
 593:/Library/DaisyToolchain/0.2.0/arm/arm-none-eabi/include/c++/10.3.1/bits/std_function.h **** 	  _M_invoker = __x._M_invoker;
 2619              		.loc 1 593 8 view .LVU770
 2620              	.LBE897:
 2621              	.LBE896:
 2622              	.LBE895:
 2623              	.LBE894:
 2624              	.LBE893:
 2625              	.LBE951:
 2626              	.LBE956:
 2627              	.LBB957:
 2628              	.LBB888:
 2629              	.LBB884:
 611:/Library/DaisyToolchain/0.2.0/arm/arm-none-eabi/include/c++/10.3.1/bits/std_function.h **** 	  }
 2630              		.loc 1 611 17 view .LVU771
 2631 0154 314B     		ldr	r3, .L78+32
 2632              	.LBE884:
 2633              	.LBE888:
 2634              	.LBE957:
 2635              	.LBB958:
 2636              	.LBB952:
 2637              	.LBB947:
 2638              	.LBB943:
 2639              	.LBB915:
 2640              	.LBB909:
 2641              	.LBB903:
 593:/Library/DaisyToolchain/0.2.0/arm/arm-none-eabi/include/c++/10.3.1/bits/std_function.h **** 	  _M_invoker = __x._M_invoker;
ARM GAS  /var/folders/wz/z09yph4n0qj4t7mjxhl6ttn80000gn/T//ccNJmc12.s 			page 85


 2642              		.loc 1 593 8 view .LVU772
 2643 0156 06A8     		add	r0, sp, #24
 2644              	.LBE903:
 2645              	.LBE909:
 2646              	.LBE915:
 2647              	.LBE943:
 2648              	.LBE947:
 2649              	.LBE952:
 2650              	.LBE958:
 2651              	.LBB959:
 2652              	.LBB889:
 2653              	.LBB885:
 2654              	.LBB881:
 2655              	.LBB880:
 2656              	.LBB879:
 233:/Library/DaisyToolchain/0.2.0/arm/arm-none-eabi/include/c++/10.3.1/bits/std_function.h **** 
 2657              		.loc 1 233 4 view .LVU773
 2658 0158 0295     		str	r5, [sp, #8]
 2659              	.LVL165:
 233:/Library/DaisyToolchain/0.2.0/arm/arm-none-eabi/include/c++/10.3.1/bits/std_function.h **** 
 2660              		.loc 1 233 4 view .LVU774
 2661              	.LBE879:
 2662              	.LBE880:
 2663              	.LBE881:
 611:/Library/DaisyToolchain/0.2.0/arm/arm-none-eabi/include/c++/10.3.1/bits/std_function.h **** 	  }
 2664              		.loc 1 611 17 view .LVU775
 2665 015a 0493     		str	r3, [sp, #16]
 2666              	.LVL166:
 611:/Library/DaisyToolchain/0.2.0/arm/arm-none-eabi/include/c++/10.3.1/bits/std_function.h **** 	  }
 2667              		.loc 1 611 17 view .LVU776
 2668              	.LBE885:
 2669              	.LBE889:
 2670              	.LBE959:
 2671              	.LBB960:
 2672              	.LBI891:
  25:DSP/FX/../../Parameters/AudioParameter.h ****     {
 2673              		.loc 7 25 10 is_stmt 1 view .LVU777
 2674              	.LBB953:
  28:DSP/FX/../../Parameters/AudioParameter.h **** 
 2675              		.loc 7 28 15 is_stmt 0 view .LVU778
 2676 015c 04F62C43 		addw	r3, r4, #3116
 2677              	.LBB948:
 2678              	.LBB944:
 2679              	.LBB916:
 2680              	.LBB910:
 2681              	.LBB904:
 2682              	.LBB898:
 2683              	.LBB899:
 2684              	.LBB900:
 240:/Library/DaisyToolchain/0.2.0/arm/arm-none-eabi/include/c++/10.3.1/bits/std_function.h **** 
 2685              		.loc 1 240 42 view .LVU779
 2686 0160 CDF82090 		str	r9, [sp, #32]
 2687              	.LBE900:
 2688              	.LBE899:
 2689              	.LBE898:
 2690              	.LBE904:
 2691              	.LBE910:
ARM GAS  /var/folders/wz/z09yph4n0qj4t7mjxhl6ttn80000gn/T//ccNJmc12.s 			page 86


 2692              	.LBE916:
 2693              	.LBE944:
 2694              	.LBE948:
  28:DSP/FX/../../Parameters/AudioParameter.h **** 
 2695              		.loc 7 28 15 view .LVU780
 2696 0164 5E60     		str	r6, [r3, #4]	@ float
  31:DSP/FX/../../Parameters/AudioParameter.h ****         max = ma;
 2697              		.loc 7 31 13 view .LVU781
 2698 0166 6FF00B03 		mvn	r3, #11
  35:DSP/FX/../../Parameters/AudioParameter.h ****         callback = cb;
 2699              		.loc 7 35 19 view .LVU782
 2700 016a A4F8442C 		strh	r2, [r4, #3140]	@ movhi
 2701              	.LVL167:
 2702              	.LBB949:
 2703              	.LBI893:
 396:/Library/DaisyToolchain/0.2.0/arm/arm-none-eabi/include/c++/10.3.1/bits/std_function.h ****       {
 2704              		.loc 1 396 7 is_stmt 1 view .LVU783
 2705              	.LBB945:
 2706              	.LBB917:
 2707              	.LBI895:
 587:/Library/DaisyToolchain/0.2.0/arm/arm-none-eabi/include/c++/10.3.1/bits/std_function.h ****     function(const function& __x)
 2708              		.loc 1 587 5 view .LVU784
 2709              	.LBB911:
 2710              	.LBB905:
 2711              	.LBB901:
 2712              	.LBI898:
 240:/Library/DaisyToolchain/0.2.0/arm/arm-none-eabi/include/c++/10.3.1/bits/std_function.h **** 
 2713              		.loc 1 240 5 view .LVU785
 240:/Library/DaisyToolchain/0.2.0/arm/arm-none-eabi/include/c++/10.3.1/bits/std_function.h **** 
 2714              		.loc 1 240 5 is_stmt 0 view .LVU786
 2715              	.LBE901:
 2716              	.LBB902:
 2717              	.LBI902:
 498:/Library/DaisyToolchain/0.2.0/arm/arm-none-eabi/include/c++/10.3.1/bits/std_function.h ****       { return !_M_empty(); }
 2718              		.loc 1 498 16 is_stmt 1 view .LVU787
 498:/Library/DaisyToolchain/0.2.0/arm/arm-none-eabi/include/c++/10.3.1/bits/std_function.h ****       { return !_M_empty(); }
 2719              		.loc 1 498 16 is_stmt 0 view .LVU788
 2720              	.LBE902:
 2721              	.LBE905:
 2722              	.LBE911:
 2723              	.LBE917:
 2724              	.LBE945:
 2725              	.LBE949:
 2726              	.LBE953:
 2727              	.LBE960:
 248:/Library/DaisyToolchain/0.2.0/arm/arm-none-eabi/include/c++/10.3.1/bits/std_function.h **** 
 2728              		.loc 1 248 29 is_stmt 1 view .LVU789
 2729              	.LBB961:
 2730              	.LBB954:
  31:DSP/FX/../../Parameters/AudioParameter.h ****         max = ma;
 2731              		.loc 7 31 13 is_stmt 0 view .LVU790
 2732 016e C4F83C3C 		str	r3, [r4, #3132]
  30:DSP/FX/../../Parameters/AudioParameter.h ****         min = mi;
 2733              		.loc 7 30 16 view .LVU791
 2734 0172 C4F8389C 		str	r9, [r4, #3128]
  32:DSP/FX/../../Parameters/AudioParameter.h **** 
 2735              		.loc 7 32 13 view .LVU792
ARM GAS  /var/folders/wz/z09yph4n0qj4t7mjxhl6ttn80000gn/T//ccNJmc12.s 			page 87


 2736 0176 C4F8407C 		str	r7, [r4, #3136]
 2737              	.LBB950:
 2738              	.LBB946:
 2739              	.LBB918:
 2740              	.LBB912:
 2741              	.LBB906:
 593:/Library/DaisyToolchain/0.2.0/arm/arm-none-eabi/include/c++/10.3.1/bits/std_function.h **** 	  _M_invoker = __x._M_invoker;
 2742              		.loc 1 593 8 view .LVU793
 2743 017a FFF7FEFF 		bl	_ZNSt17_Function_handlerIFviEZN10PitchShift4initEPN5daisy9DaisySeedEEUliE0_E10_M_managerERSt9_A
 2744              	.LVL168:
 594:/Library/DaisyToolchain/0.2.0/arm/arm-none-eabi/include/c++/10.3.1/bits/std_function.h **** 	  _M_manager = __x._M_manager;
 2745              		.loc 1 594 15 view .LVU794
 2746 017e 059B     		ldr	r3, [sp, #20]
 2747              	.LBE906:
 2748              	.LBE912:
 2749              	.LBE918:
 2750              	.LBB919:
 2751              	.LBB920:
 483:/Library/DaisyToolchain/0.2.0/arm/arm-none-eabi/include/c++/10.3.1/bits/std_function.h **** 	std::swap(_M_manager, __x._M_manager);
 2752              		.loc 1 483 11 view .LVU795
 2753 0180 05F59841 		add	r1, r5, #19456
 2754              	.LVL169:
 483:/Library/DaisyToolchain/0.2.0/arm/arm-none-eabi/include/c++/10.3.1/bits/std_function.h **** 	std::swap(_M_manager, __x._M_manager);
 2755              		.loc 1 483 11 view .LVU796
 2756 0184 06A8     		add	r0, sp, #24
 2757              	.LVL170:
 483:/Library/DaisyToolchain/0.2.0/arm/arm-none-eabi/include/c++/10.3.1/bits/std_function.h **** 	std::swap(_M_manager, __x._M_manager);
 2758              		.loc 1 483 11 view .LVU797
 2759              	.LBE920:
 2760              	.LBE919:
 2761              	.LBB934:
 2762              	.LBB913:
 2763              	.LBB907:
 594:/Library/DaisyToolchain/0.2.0/arm/arm-none-eabi/include/c++/10.3.1/bits/std_function.h **** 	  _M_manager = __x._M_manager;
 2764              		.loc 1 594 15 view .LVU798
 2765 0186 0993     		str	r3, [sp, #36]
 595:/Library/DaisyToolchain/0.2.0/arm/arm-none-eabi/include/c++/10.3.1/bits/std_function.h **** 	}
 2766              		.loc 1 595 15 view .LVU799
 2767 0188 049B     		ldr	r3, [sp, #16]
 2768              	.LBE907:
 2769              	.LBE913:
 2770              	.LBE934:
 2771              	.LBB935:
 2772              	.LBB931:
 483:/Library/DaisyToolchain/0.2.0/arm/arm-none-eabi/include/c++/10.3.1/bits/std_function.h **** 	std::swap(_M_manager, __x._M_manager);
 2773              		.loc 1 483 11 view .LVU800
 2774 018a 4831     		adds	r1, r1, #72
 2775              	.LBE931:
 2776              	.LBE935:
 2777              	.LBB936:
 2778              	.LBB914:
 2779              	.LBB908:
 595:/Library/DaisyToolchain/0.2.0/arm/arm-none-eabi/include/c++/10.3.1/bits/std_function.h **** 	}
 2780              		.loc 1 595 15 view .LVU801
 2781 018c 0893     		str	r3, [sp, #32]
 2782              	.LVL171:
 595:/Library/DaisyToolchain/0.2.0/arm/arm-none-eabi/include/c++/10.3.1/bits/std_function.h **** 	}
ARM GAS  /var/folders/wz/z09yph4n0qj4t7mjxhl6ttn80000gn/T//ccNJmc12.s 			page 88


 2783              		.loc 1 595 15 view .LVU802
 2784              	.LBE908:
 2785              	.LBE914:
 2786              	.LBE936:
 2787              	.LBB937:
 2788              	.LBI919:
 481:/Library/DaisyToolchain/0.2.0/arm/arm-none-eabi/include/c++/10.3.1/bits/std_function.h ****       {
 2789              		.loc 1 481 12 is_stmt 1 view .LVU803
 2790              	.LBB932:
 483:/Library/DaisyToolchain/0.2.0/arm/arm-none-eabi/include/c++/10.3.1/bits/std_function.h **** 	std::swap(_M_manager, __x._M_manager);
 2791              		.loc 1 483 11 is_stmt 0 view .LVU804
 2792 018e FFF7FEFF 		bl	_ZSt4swapISt9_Any_dataENSt9enable_ifIXsrSt6__and_IJSt6__not_ISt15__is_tuple_likeIT_EESt21is_mov
 2793              	.LVL172:
 2794              	.LBB921:
 2795              	.LBI921:
 189:/Library/DaisyToolchain/0.2.0/arm/arm-none-eabi/include/c++/10.3.1/bits/move.h ****     _GLIBCXX_NOEXCEPT_IF(__and_<is_nothrow_move_constructible<_Tp>,
 2796              		.loc 8 189 5 is_stmt 1 view .LVU805
 2797              	.LBB922:
 197:/Library/DaisyToolchain/0.2.0/arm/arm-none-eabi/include/c++/10.3.1/bits/move.h ****       __a = _GLIBCXX_MOVE(__b);
 2798              		.loc 8 197 11 is_stmt 0 view .LVU806
 2799 0192 089B     		ldr	r3, [sp, #32]
 2800              	.LVL173:
 197:/Library/DaisyToolchain/0.2.0/arm/arm-none-eabi/include/c++/10.3.1/bits/move.h ****       __a = _GLIBCXX_MOVE(__b);
 2801              		.loc 8 197 11 view .LVU807
 2802              	.LBE922:
 2803              	.LBE921:
 2804              	.LBE932:
 2805              	.LBE937:
 2806              	.LBB938:
 2807              	.LBB939:
 303:/Library/DaisyToolchain/0.2.0/arm/arm-none-eabi/include/c++/10.3.1/bits/std_function.h ****     : public _Maybe_unary_or_binary_function<_Res, _ArgTypes...>,
 2808              		.loc 1 303 11 view .LVU808
 2809 0194 06A8     		add	r0, sp, #24
 2810              	.LVL174:
 303:/Library/DaisyToolchain/0.2.0/arm/arm-none-eabi/include/c++/10.3.1/bits/std_function.h ****     : public _Maybe_unary_or_binary_function<_Res, _ArgTypes...>,
 2811              		.loc 1 303 11 view .LVU809
 2812              	.LBE939:
 2813              	.LBE938:
 2814              	.LBB941:
 2815              	.LBB933:
 2816              	.LBB925:
 2817              	.LBB923:
 198:/Library/DaisyToolchain/0.2.0/arm/arm-none-eabi/include/c++/10.3.1/bits/move.h ****       __b = _GLIBCXX_MOVE(__tmp);
 2818              		.loc 8 198 11 view .LVU810
 2819 0196 D4F8502C 		ldr	r2, [r4, #3152]
 199:/Library/DaisyToolchain/0.2.0/arm/arm-none-eabi/include/c++/10.3.1/bits/move.h ****     }
 2820              		.loc 8 199 11 view .LVU811
 2821 019a C4F8503C 		str	r3, [r4, #3152]
 2822              	.LBE923:
 2823              	.LBE925:
 2824              	.LBB926:
 2825              	.LBB927:
 197:/Library/DaisyToolchain/0.2.0/arm/arm-none-eabi/include/c++/10.3.1/bits/move.h ****       __a = _GLIBCXX_MOVE(__b);
 2826              		.loc 8 197 11 view .LVU812
 2827 019e 099B     		ldr	r3, [sp, #36]
 2828              	.LVL175:
 197:/Library/DaisyToolchain/0.2.0/arm/arm-none-eabi/include/c++/10.3.1/bits/move.h ****       __a = _GLIBCXX_MOVE(__b);
ARM GAS  /var/folders/wz/z09yph4n0qj4t7mjxhl6ttn80000gn/T//ccNJmc12.s 			page 89


 2829              		.loc 8 197 11 view .LVU813
 2830              	.LBE927:
 2831              	.LBE926:
 2832              	.LBB929:
 2833              	.LBB924:
 198:/Library/DaisyToolchain/0.2.0/arm/arm-none-eabi/include/c++/10.3.1/bits/move.h ****       __b = _GLIBCXX_MOVE(__tmp);
 2834              		.loc 8 198 11 view .LVU814
 2835 01a0 0892     		str	r2, [sp, #32]
 2836              	.LVL176:
 198:/Library/DaisyToolchain/0.2.0/arm/arm-none-eabi/include/c++/10.3.1/bits/move.h ****       __b = _GLIBCXX_MOVE(__tmp);
 2837              		.loc 8 198 11 view .LVU815
 2838              	.LBE924:
 2839              	.LBE929:
 2840              	.LBB930:
 2841              	.LBI926:
 189:/Library/DaisyToolchain/0.2.0/arm/arm-none-eabi/include/c++/10.3.1/bits/move.h ****     _GLIBCXX_NOEXCEPT_IF(__and_<is_nothrow_move_constructible<_Tp>,
 2842              		.loc 8 189 5 is_stmt 1 view .LVU816
 2843              	.LBB928:
 198:/Library/DaisyToolchain/0.2.0/arm/arm-none-eabi/include/c++/10.3.1/bits/move.h ****       __b = _GLIBCXX_MOVE(__tmp);
 2844              		.loc 8 198 11 is_stmt 0 view .LVU817
 2845 01a2 D4F8542C 		ldr	r2, [r4, #3156]
 199:/Library/DaisyToolchain/0.2.0/arm/arm-none-eabi/include/c++/10.3.1/bits/move.h ****     }
 2846              		.loc 8 199 11 view .LVU818
 2847 01a6 C4F8543C 		str	r3, [r4, #3156]
 198:/Library/DaisyToolchain/0.2.0/arm/arm-none-eabi/include/c++/10.3.1/bits/move.h ****       __b = _GLIBCXX_MOVE(__tmp);
 2848              		.loc 8 198 11 view .LVU819
 2849 01aa 0992     		str	r2, [sp, #36]
 2850              	.LVL177:
 198:/Library/DaisyToolchain/0.2.0/arm/arm-none-eabi/include/c++/10.3.1/bits/move.h ****       __b = _GLIBCXX_MOVE(__tmp);
 2851              		.loc 8 198 11 view .LVU820
 2852              	.LBE928:
 2853              	.LBE930:
 2854              	.LBE933:
 2855              	.LBE941:
 2856              	.LBB942:
 2857              	.LBI938:
 303:/Library/DaisyToolchain/0.2.0/arm/arm-none-eabi/include/c++/10.3.1/bits/std_function.h ****     : public _Maybe_unary_or_binary_function<_Res, _ArgTypes...>,
 2858              		.loc 1 303 11 is_stmt 1 view .LVU821
 2859              	.LBB940:
 2860 01ac FFF7FEFF 		bl	_ZNSt14_Function_baseD2Ev
 2861              	.LVL178:
 303:/Library/DaisyToolchain/0.2.0/arm/arm-none-eabi/include/c++/10.3.1/bits/std_function.h ****     : public _Maybe_unary_or_binary_function<_Res, _ArgTypes...>,
 2862              		.loc 1 303 11 is_stmt 0 view .LVU822
 2863              	.LBE940:
 2864              	.LBE942:
 2865              	.LBE946:
 2866              	.LBE950:
 2867              	.LBE954:
 2868              	.LBE961:
 2869              	.LBB962:
 2870              	.LBI962:
 303:/Library/DaisyToolchain/0.2.0/arm/arm-none-eabi/include/c++/10.3.1/bits/std_function.h ****     : public _Maybe_unary_or_binary_function<_Res, _ArgTypes...>,
 2871              		.loc 1 303 11 is_stmt 1 view .LVU823
 2872              	.LBB963:
 2873 01b0 02A8     		add	r0, sp, #8
 2874              	.LVL179:
 303:/Library/DaisyToolchain/0.2.0/arm/arm-none-eabi/include/c++/10.3.1/bits/std_function.h ****     : public _Maybe_unary_or_binary_function<_Res, _ArgTypes...>,
ARM GAS  /var/folders/wz/z09yph4n0qj4t7mjxhl6ttn80000gn/T//ccNJmc12.s 			page 90


 2875              		.loc 1 303 11 is_stmt 0 view .LVU824
 2876 01b2 FFF7FEFF 		bl	_ZNSt14_Function_baseD2Ev
 2877              	.LVL180:
 303:/Library/DaisyToolchain/0.2.0/arm/arm-none-eabi/include/c++/10.3.1/bits/std_function.h ****     : public _Maybe_unary_or_binary_function<_Res, _ArgTypes...>,
 2878              		.loc 1 303 11 view .LVU825
 2879              	.LBE963:
 2880              	.LBE962:
  16:DSP/FX/PitchShift.cpp ****     rand.init(seed, 0, 1, LINEAR, ChannelIDs::AMP4, [this] (float r) { shifter.SetFun(r); });
 2881              		.loc 3 16 5 is_stmt 1 view .LVU826
 2882              	.LBB964:
 2883              	.LBI964:
 601:/Library/DaisyToolchain/0.2.0/arm/arm-none-eabi/include/c++/10.3.1/bits/std_function.h ****       function(_Functor __f)
 2884              		.loc 1 601 7 view .LVU827
 2885              	.LBB965:
 2886              	.LBB966:
 2887              	.LBI966:
 240:/Library/DaisyToolchain/0.2.0/arm/arm-none-eabi/include/c++/10.3.1/bits/std_function.h **** 
 2888              		.loc 1 240 5 view .LVU828
 240:/Library/DaisyToolchain/0.2.0/arm/arm-none-eabi/include/c++/10.3.1/bits/std_function.h **** 
 2889              		.loc 1 240 5 is_stmt 0 view .LVU829
 2890              	.LBE966:
 2891              	.LBB967:
 2892              	.LBB968:
 2893              	.LBI968:
 227:/Library/DaisyToolchain/0.2.0/arm/arm-none-eabi/include/c++/10.3.1/bits/std_function.h **** 	  { return true; }
 2894              		.loc 1 227 4 is_stmt 1 view .LVU830
 227:/Library/DaisyToolchain/0.2.0/arm/arm-none-eabi/include/c++/10.3.1/bits/std_function.h **** 	  { return true; }
 2895              		.loc 1 227 4 is_stmt 0 view .LVU831
 2896              	.LBE968:
 2897              	.LBB969:
 2898              	.LBI969:
 101:/Library/DaisyToolchain/0.2.0/arm/arm-none-eabi/include/c++/10.3.1/bits/move.h ****     { return static_cast<typename std::remove_reference<_Tp>::type&&>(__t); }
 2899              		.loc 8 101 5 is_stmt 1 view .LVU832
 101:/Library/DaisyToolchain/0.2.0/arm/arm-none-eabi/include/c++/10.3.1/bits/move.h ****     { return static_cast<typename std::remove_reference<_Tp>::type&&>(__t); }
 2900              		.loc 8 101 5 is_stmt 0 view .LVU833
 2901              	.LBE969:
 2902              	.LBB970:
 2903              	.LBI970:
 207:/Library/DaisyToolchain/0.2.0/arm/arm-none-eabi/include/c++/10.3.1/bits/std_function.h **** 	{ _M_init_functor(__functor, std::move(__f), _Local_storage()); }
 2904              		.loc 1 207 2 is_stmt 1 view .LVU834
 2905              	.LBB971:
 2906              	.LBI971:
 232:/Library/DaisyToolchain/0.2.0/arm/arm-none-eabi/include/c++/10.3.1/bits/std_function.h **** 	{ ::new (__functor._M_access()) _Functor(std::move(__f)); }
 2907              		.loc 1 232 2 view .LVU835
 232:/Library/DaisyToolchain/0.2.0/arm/arm-none-eabi/include/c++/10.3.1/bits/std_function.h **** 	{ ::new (__functor._M_access()) _Functor(std::move(__f)); }
 2908              		.loc 1 232 2 is_stmt 0 view .LVU836
 2909              	.LBE971:
 2910              	.LBE970:
 2911              	.LBE967:
 2912              	.LBE965:
 2913              	.LBE964:
  87:/Library/DaisyToolchain/0.2.0/arm/arm-none-eabi/include/c++/10.3.1/bits/std_function.h ****     const void* _M_access() const { return &_M_pod_data[0]; }
 2914              		.loc 1 87 37 is_stmt 1 view .LVU837
 2915              		.loc 5 175 3 view .LVU838
 2916              	.LBB983:
 2917              	.LBB979:
 2918              	.LBB975:
ARM GAS  /var/folders/wz/z09yph4n0qj4t7mjxhl6ttn80000gn/T//ccNJmc12.s 			page 91


 610:/Library/DaisyToolchain/0.2.0/arm/arm-none-eabi/include/c++/10.3.1/bits/std_function.h **** 	    _M_manager = &_My_handler::_M_manager;
 2919              		.loc 1 610 17 is_stmt 0 view .LVU839
 2920 01b6 1A4B     		ldr	r3, .L78+36
 2921              	.LBE975:
 2922              	.LBE979:
 2923              	.LBE983:
 2924              	.LBB984:
 2925              	.LBB985:
  27:DSP/FX/../../Parameters/AudioParameter.h ****         input = 0;
 2926              		.loc 7 27 12 view .LVU840
 2927 01b8 C4F8588C 		str	r8, [r4, #3160]
  36:DSP/FX/../../Parameters/AudioParameter.h ****     }
 2928              		.loc 7 36 18 view .LVU841
 2929 01bc 05F59840 		add	r0, r5, #19456
 2930              	.LBE985:
 2931              	.LBE984:
 2932              	.LBB989:
 2933              	.LBB980:
 2934              	.LBB976:
 610:/Library/DaisyToolchain/0.2.0/arm/arm-none-eabi/include/c++/10.3.1/bits/std_function.h **** 	    _M_manager = &_My_handler::_M_manager;
 2935              		.loc 1 610 17 view .LVU842
 2936 01c0 0993     		str	r3, [sp, #36]
 2937              	.LBE976:
 2938              	.LBE980:
 2939              	.LBE989:
 2940              	.LBB990:
 2941              	.LBB986:
  36:DSP/FX/../../Parameters/AudioParameter.h ****     }
 2942              		.loc 7 36 18 view .LVU843
 2943 01c2 06A9     		add	r1, sp, #24
 2944              	.LVL181:
  36:DSP/FX/../../Parameters/AudioParameter.h ****     }
 2945              		.loc 7 36 18 view .LVU844
 2946              	.LBE986:
 2947              	.LBE990:
 2948              	.LBB991:
 2949              	.LBB981:
 2950              	.LBB977:
 611:/Library/DaisyToolchain/0.2.0/arm/arm-none-eabi/include/c++/10.3.1/bits/std_function.h **** 	  }
 2951              		.loc 1 611 17 view .LVU845
 2952 01c4 174B     		ldr	r3, .L78+40
 2953              	.LBE977:
 2954              	.LBE981:
 2955              	.LBE991:
 2956              	.LBB992:
 2957              	.LBB987:
  36:DSP/FX/../../Parameters/AudioParameter.h ****     }
 2958              		.loc 7 36 18 view .LVU846
 2959 01c6 7430     		adds	r0, r0, #116
 2960              	.LBE987:
 2961              	.LBE992:
 2962              	.LBB993:
 2963              	.LBB982:
 2964              	.LBB978:
 2965              	.LBB974:
 2966              	.LBB973:
 2967              	.LBB972:
ARM GAS  /var/folders/wz/z09yph4n0qj4t7mjxhl6ttn80000gn/T//ccNJmc12.s 			page 92


 233:/Library/DaisyToolchain/0.2.0/arm/arm-none-eabi/include/c++/10.3.1/bits/std_function.h **** 
 2968              		.loc 1 233 4 view .LVU847
 2969 01c8 0695     		str	r5, [sp, #24]
 2970              	.LVL182:
 233:/Library/DaisyToolchain/0.2.0/arm/arm-none-eabi/include/c++/10.3.1/bits/std_function.h **** 
 2971              		.loc 1 233 4 view .LVU848
 2972              	.LBE972:
 2973              	.LBE973:
 2974              	.LBE974:
 611:/Library/DaisyToolchain/0.2.0/arm/arm-none-eabi/include/c++/10.3.1/bits/std_function.h **** 	  }
 2975              		.loc 1 611 17 view .LVU849
 2976 01ca 0893     		str	r3, [sp, #32]
 2977              	.LVL183:
 611:/Library/DaisyToolchain/0.2.0/arm/arm-none-eabi/include/c++/10.3.1/bits/std_function.h **** 	  }
 2978              		.loc 1 611 17 view .LVU850
 2979              	.LBE978:
 2980              	.LBE982:
 2981              	.LBE993:
 2982              	.LBB994:
 2983              	.LBI984:
  25:DSP/FX/../../Parameters/AudioParameter.h ****     {
 2984              		.loc 7 25 10 is_stmt 1 view .LVU851
 2985              	.LBB988:
  28:DSP/FX/../../Parameters/AudioParameter.h **** 
 2986              		.loc 7 28 15 is_stmt 0 view .LVU852
 2987 01cc 04F65843 		addw	r3, r4, #3160
 2988 01d0 5E60     		str	r6, [r3, #4]	@ float
  30:DSP/FX/../../Parameters/AudioParameter.h ****         min = mi;
 2989              		.loc 7 30 16 view .LVU853
 2990 01d2 DE60     		str	r6, [r3, #12]	@ float
  31:DSP/FX/../../Parameters/AudioParameter.h ****         max = ma;
 2991              		.loc 7 31 13 view .LVU854
 2992 01d4 1E61     		str	r6, [r3, #16]	@ float
  32:DSP/FX/../../Parameters/AudioParameter.h **** 
 2993              		.loc 7 32 13 view .LVU855
 2994 01d6 C3F814B0 		str	fp, [r3, #20]	@ float
  35:DSP/FX/../../Parameters/AudioParameter.h ****         callback = cb;
 2995              		.loc 7 35 19 view .LVU856
 2996 01da 0323     		movs	r3, #3
 2997 01dc A4F8703C 		strh	r3, [r4, #3184]	@ movhi
  36:DSP/FX/../../Parameters/AudioParameter.h ****     }
 2998              		.loc 7 36 18 view .LVU857
 2999 01e0 FFF7FEFF 		bl	_ZNSt8functionIFvfEEaSERKS1_.isra.0
 3000              	.LVL184:
  36:DSP/FX/../../Parameters/AudioParameter.h ****     }
 3001              		.loc 7 36 18 view .LVU858
 3002              	.LBE988:
 3003              	.LBE994:
 3004              	.LBB995:
 3005              	.LBI995:
 303:/Library/DaisyToolchain/0.2.0/arm/arm-none-eabi/include/c++/10.3.1/bits/std_function.h ****     : public _Maybe_unary_or_binary_function<_Res, _ArgTypes...>,
 3006              		.loc 1 303 11 is_stmt 1 view .LVU859
 3007              	.LBB996:
 3008 01e4 06A8     		add	r0, sp, #24
 3009              	.LVL185:
 303:/Library/DaisyToolchain/0.2.0/arm/arm-none-eabi/include/c++/10.3.1/bits/std_function.h ****     : public _Maybe_unary_or_binary_function<_Res, _ArgTypes...>,
 3010              		.loc 1 303 11 is_stmt 0 view .LVU860
ARM GAS  /var/folders/wz/z09yph4n0qj4t7mjxhl6ttn80000gn/T//ccNJmc12.s 			page 93


 3011 01e6 FFF7FEFF 		bl	_ZNSt14_Function_baseD2Ev
 3012              	.LVL186:
 303:/Library/DaisyToolchain/0.2.0/arm/arm-none-eabi/include/c++/10.3.1/bits/std_function.h ****     : public _Maybe_unary_or_binary_function<_Res, _ArgTypes...>,
 3013              		.loc 1 303 11 view .LVU861
 3014              	.LBE996:
 3015              	.LBE995:
  18:DSP/FX/PitchShift.cpp ****     setDefaultValues();
 3016              		.loc 3 18 5 is_stmt 1 view .LVU862
  18:DSP/FX/PitchShift.cpp ****     setDefaultValues();
 3017              		.loc 3 18 21 is_stmt 0 view .LVU863
 3018 01ea 2846     		mov	r0, r5
  19:DSP/FX/PitchShift.cpp **** }
 3019              		.loc 3 19 1 view .LVU864
 3020 01ec 0BB0     		add	sp, sp, #44
 3021              		.cfi_def_cfa_offset 44
 3022              		@ sp needed
 3023 01ee BDEC028B 		vldm	sp!, {d8}
 3024              		.cfi_restore 80
 3025              		.cfi_restore 81
 3026              		.cfi_def_cfa_offset 36
 3027 01f2 BDE8F04F 		pop	{r4, r5, r6, r7, r8, r9, r10, fp, lr}
 3028              		.cfi_restore 14
 3029              		.cfi_restore 11
 3030              		.cfi_restore 10
 3031              		.cfi_restore 9
 3032              		.cfi_restore 8
 3033              		.cfi_restore 7
 3034              		.cfi_restore 6
 3035              		.cfi_restore 5
 3036              		.cfi_restore 4
 3037              		.cfi_def_cfa_offset 0
 3038              	.LVL187:
  18:DSP/FX/PitchShift.cpp ****     setDefaultValues();
 3039              		.loc 3 18 21 view .LVU865
 3040 01f6 FFF7FEBF 		b	_ZN10PitchShift16setDefaultValuesEv
 3041              	.LVL188:
 3042              	.L79:
  18:DSP/FX/PitchShift.cpp ****     setDefaultValues();
 3043              		.loc 3 18 21 view .LVU866
 3044 01fa 00BF     		.align	2
 3045              	.L78:
 3046 01fc 00803B47 		.word	1195081728
 3047 0200 0000A040 		.word	1084227584
 3048 0204 00803B47 		.word	1195081728
 3049 0208 00004842 		.word	1112014848
 3050 020c DB0F4940 		.word	1078530011
 3051 0210 00000000 		.word	_ZNSt17_Function_handlerIFvfEZN10PitchShift4initEPN5daisy9DaisySeedEEUlfE_E9_M_invokeERKSt9_
 3052 0214 00000000 		.word	_ZNSt17_Function_handlerIFvfEZN10PitchShift4initEPN5daisy9DaisySeedEEUlfE_E10_M_managerERSt9
 3053 0218 00000000 		.word	_ZNSt17_Function_handlerIFviEZN10PitchShift4initEPN5daisy9DaisySeedEEUliE0_E9_M_invokeERKSt9
 3054 021c 00000000 		.word	_ZNSt17_Function_handlerIFviEZN10PitchShift4initEPN5daisy9DaisySeedEEUliE0_E10_M_managerERSt
 3055 0220 00000000 		.word	_ZNSt17_Function_handlerIFvfEZN10PitchShift4initEPN5daisy9DaisySeedEEUlfE1_E9_M_invokeERKSt9
 3056 0224 00000000 		.word	_ZNSt17_Function_handlerIFvfEZN10PitchShift4initEPN5daisy9DaisySeedEEUlfE1_E10_M_managerERSt
 3057              		.cfi_endproc
 3058              	.LFE5656:
 3060              		.weak	_ZZN7daisysp6myrandEvE4seed
 3061              		.section	.data._ZZN7daisysp6myrandEvE4seed,"awG",%progbits,_ZZN7daisysp6myrandEvE4seed,comdat
 3062              		.align	2
ARM GAS  /var/folders/wz/z09yph4n0qj4t7mjxhl6ttn80000gn/T//ccNJmc12.s 			page 94


 3065              	_ZZN7daisysp6myrandEvE4seed:
 3066 0000 01000000 		.word	1
 3067              		.text
 3068              	.Letext0:
 3069              		.file 10 "/Library/DaisyToolchain/0.2.0/arm/arm-none-eabi/include/machine/_default_types.h"
 3070              		.file 11 "/Library/DaisyToolchain/0.2.0/arm/arm-none-eabi/include/sys/_stdint.h"
 3071              		.file 12 "/Library/DaisyToolchain/0.2.0/arm/arm-none-eabi/include/stdint.h"
 3072              		.file 13 "/Library/DaisyToolchain/0.2.0/arm/lib/gcc/arm-none-eabi/10.3.1/include/stddef.h"
 3073              		.file 14 "/Library/DaisyToolchain/0.2.0/arm/arm-none-eabi/include/c++/10.3.1/cmath"
 3074              		.file 15 "/Library/DaisyToolchain/0.2.0/arm/arm-none-eabi/include/c++/10.3.1/bits/std_abs.h"
 3075              		.file 16 "/Library/DaisyToolchain/0.2.0/arm/arm-none-eabi/include/c++/10.3.1/cstdlib"
 3076              		.file 17 "/Library/DaisyToolchain/0.2.0/arm/arm-none-eabi/include/c++/10.3.1/cstdint"
 3077              		.file 18 "/Library/DaisyToolchain/0.2.0/arm/arm-none-eabi/include/c++/10.3.1/type_traits"
 3078              		.file 19 "/Library/DaisyToolchain/0.2.0/arm/arm-none-eabi/include/c++/10.3.1/arm-none-eabi/thumb/v
 3079              		.file 20 "/Library/DaisyToolchain/0.2.0/arm/arm-none-eabi/include/c++/10.3.1/bits/stl_pair.h"
 3080              		.file 21 "/Library/DaisyToolchain/0.2.0/arm/arm-none-eabi/include/c++/10.3.1/debug/debug.h"
 3081              		.file 22 "/Library/DaisyToolchain/0.2.0/arm/arm-none-eabi/include/c++/10.3.1/bits/algorithmfwd.h"
 3082              		.file 23 "/Library/DaisyToolchain/0.2.0/arm/arm-none-eabi/include/c++/10.3.1/bits/exception_ptr.h"
 3083              		.file 24 "/Library/DaisyToolchain/0.2.0/arm/arm-none-eabi/include/c++/10.3.1/cstdarg"
 3084              		.file 25 "/Library/DaisyToolchain/0.2.0/arm/arm-none-eabi/include/c++/10.3.1/cstdio"
 3085              		.file 26 "/Library/DaisyToolchain/0.2.0/arm/arm-none-eabi/include/c++/10.3.1/cstring"
 3086              		.file 27 "/Library/DaisyToolchain/0.2.0/arm/arm-none-eabi/include/c++/10.3.1/cwchar"
 3087              		.file 28 "/Library/DaisyToolchain/0.2.0/arm/arm-none-eabi/include/c++/10.3.1/clocale"
 3088              		.file 29 "/Library/DaisyToolchain/0.2.0/arm/arm-none-eabi/include/c++/10.3.1/bits/basic_string.h"
 3089              		.file 30 "/Library/DaisyToolchain/0.2.0/arm/arm-none-eabi/include/c++/10.3.1/bits/stl_iterator.h"
 3090              		.file 31 "/Library/DaisyToolchain/0.2.0/arm/arm-none-eabi/include/c++/10.3.1/bits/uses_allocator.h
 3091              		.file 32 "/Library/DaisyToolchain/0.2.0/arm/arm-none-eabi/include/c++/10.3.1/tuple"
 3092              		.file 33 "/Library/DaisyToolchain/0.2.0/arm/arm-none-eabi/include/c++/10.3.1/functional"
 3093              		.file 34 "/Library/DaisyToolchain/0.2.0/arm/arm-none-eabi/include/c++/10.3.1/bits/shared_ptr_base.
 3094              		.file 35 "/Library/DaisyToolchain/0.2.0/arm/arm-none-eabi/include/c++/10.3.1/bits/refwrap.h"
 3095              		.file 36 "/Library/DaisyToolchain/0.2.0/arm/arm-none-eabi/include/c++/10.3.1/bits/stl_function.h"
 3096              		.file 37 "/Library/DaisyToolchain/0.2.0/arm/arm-none-eabi/include/c++/10.3.1/bits/predefined_ops.h
 3097              		.file 38 "/Library/DaisyToolchain/0.2.0/arm/arm-none-eabi/include/c++/10.3.1/ext/concurrence.h"
 3098              		.file 39 "/Library/DaisyToolchain/0.2.0/arm/arm-none-eabi/include/sys/_types.h"
 3099              		.file 40 "/Library/DaisyToolchain/0.2.0/arm/arm-none-eabi/include/sys/reent.h"
 3100              		.file 41 "/Library/DaisyToolchain/0.2.0/arm/arm-none-eabi/include/sys/lock.h"
 3101              		.file 42 "/Library/DaisyToolchain/0.2.0/arm/arm-none-eabi/include/math.h"
 3102              		.file 43 "/Library/DaisyToolchain/0.2.0/arm/arm-none-eabi/include/stdlib.h"
 3103              		.file 44 "/Library/DaisyToolchain/0.2.0/arm/arm-none-eabi/include/c++/10.3.1/math.h"
 3104              		.file 45 "/Library/DaisyToolchain/0.2.0/arm/arm-none-eabi/include/c++/10.3.1/stdlib.h"
 3105              		.file 46 "../../../libDaisy//src/daisy_core.h"
 3106              		.file 47 "../../../libDaisy//src/per/tim.h"
 3107              		.file 48 "../../../libDaisy//src/sys/system.h"
 3108              		.file 49 "../../../libDaisy//src/per/qspi.h"
 3109              		.file 50 "../../../libDaisy//src/per/dac.h"
 3110              		.file 51 "../../../libDaisy//src/per/sai.h"
 3111              		.file 52 "../../../libDaisy//src/hid/audio.h"
 3112              		.file 53 "../../../libDaisy//src/per/adc.h"
 3113              		.file 54 "../../../libDaisy//src/hid/usb.h"
 3114              		.file 55 "../../../libDaisy//src/hid/switch.h"
 3115              		.file 56 "../../../libDaisy//src/util/wav_format.h"
 3116              		.file 57 "../../../libDaisy//src/dev/max11300.h"
 3117              		.file 58 "../../../libDaisy//src/daisy_seed.h"
 3118              		.file 59 "../../../libDaisy//src/per/gpio.h"
 3119              		.file 60 "../../../libDaisy//src/dev/sdram.h"
 3120              		.file 61 "/Library/DaisyToolchain/0.2.0/arm/lib/gcc/arm-none-eabi/10.3.1/include/stdarg.h"
 3121              		.file 62 "/Library/DaisyToolchain/0.2.0/arm/arm-none-eabi/include/stdio.h"
ARM GAS  /var/folders/wz/z09yph4n0qj4t7mjxhl6ttn80000gn/T//ccNJmc12.s 			page 95


 3122              		.file 63 "/Library/DaisyToolchain/0.2.0/arm/arm-none-eabi/include/string.h"
 3123              		.file 64 "../../../DaisySP//Source/Control/adenv.h"
 3124              		.file 65 "../../../DaisySP//Source/Utility/dsp.h"
 3125              		.file 66 "/Library/DaisyToolchain/0.2.0/arm/arm-none-eabi/include/wchar.h"
 3126              		.file 67 "/Library/DaisyToolchain/0.2.0/arm/arm-none-eabi/include/locale.h"
 3127              		.file 68 "DSP/FX/../../Parameters/../Utils/Helpers.h"
 3128              		.file 69 "DSP/FX/../../Parameters/BinaryParameter.h"
 3129              		.file 70 "DSP/FX/../../Parameters/DefaultValues.h"
 3130              		.file 71 "../../../libDaisy//src/dev/sr_595.h"
 3131              		.file 72 "DSP/FX/PitchShift.h"
 3132              		.file 73 "/Library/DaisyToolchain/0.2.0/arm/arm-none-eabi/include/c++/10.3.1/bits/functexcept.h"
 3133              		.file 74 "<built-in>"
ARM GAS  /var/folders/wz/z09yph4n0qj4t7mjxhl6ttn80000gn/T//ccNJmc12.s 			page 96


DEFINED SYMBOLS
                            *ABS*:0000000000000000 PitchShift.cpp
/var/folders/wz/z09yph4n0qj4t7mjxhl6ttn80000gn/T//ccNJmc12.s:19     .text._ZNSt17_Function_handlerIFvfEZN10PitchShift4initEPN5daisy9DaisySeedEEUlfE_E9_M_invokeERKSt9_Any_dataOf:0000000000000000 $t
/var/folders/wz/z09yph4n0qj4t7mjxhl6ttn80000gn/T//ccNJmc12.s:24     .text._ZNSt17_Function_handlerIFvfEZN10PitchShift4initEPN5daisy9DaisySeedEEUlfE_E9_M_invokeERKSt9_Any_dataOf:0000000000000000 _ZNSt17_Function_handlerIFvfEZN10PitchShift4initEPN5daisy9DaisySeedEEUlfE_E9_M_invokeERKSt9_Any_dataOf
/var/folders/wz/z09yph4n0qj4t7mjxhl6ttn80000gn/T//ccNJmc12.s:75     .text._ZNSt17_Function_handlerIFvfEZN10PitchShift4initEPN5daisy9DaisySeedEEUlfE1_E9_M_invokeERKSt9_Any_dataOf:0000000000000000 $t
/var/folders/wz/z09yph4n0qj4t7mjxhl6ttn80000gn/T//ccNJmc12.s:80     .text._ZNSt17_Function_handlerIFvfEZN10PitchShift4initEPN5daisy9DaisySeedEEUlfE1_E9_M_invokeERKSt9_Any_dataOf:0000000000000000 _ZNSt17_Function_handlerIFvfEZN10PitchShift4initEPN5daisy9DaisySeedEEUlfE1_E9_M_invokeERKSt9_Any_dataOf
/var/folders/wz/z09yph4n0qj4t7mjxhl6ttn80000gn/T//ccNJmc12.s:142    .text._ZNSt17_Function_handlerIFvfEZN10PitchShift4initEPN5daisy9DaisySeedEEUlfE1_E10_M_managerERSt9_Any_dataRKS7_St18_Manager_operation:0000000000000000 $t
/var/folders/wz/z09yph4n0qj4t7mjxhl6ttn80000gn/T//ccNJmc12.s:147    .text._ZNSt17_Function_handlerIFvfEZN10PitchShift4initEPN5daisy9DaisySeedEEUlfE1_E10_M_managerERSt9_Any_dataRKS7_St18_Manager_operation:0000000000000000 _ZNSt17_Function_handlerIFvfEZN10PitchShift4initEPN5daisy9DaisySeedEEUlfE1_E10_M_managerERSt9_Any_dataRKS7_St18_Manager_operation
/var/folders/wz/z09yph4n0qj4t7mjxhl6ttn80000gn/T//ccNJmc12.s:227    .text._ZNSt17_Function_handlerIFviEZN10PitchShift4initEPN5daisy9DaisySeedEEUliE0_E10_M_managerERSt9_Any_dataRKS7_St18_Manager_operation:0000000000000000 $t
/var/folders/wz/z09yph4n0qj4t7mjxhl6ttn80000gn/T//ccNJmc12.s:232    .text._ZNSt17_Function_handlerIFviEZN10PitchShift4initEPN5daisy9DaisySeedEEUliE0_E10_M_managerERSt9_Any_dataRKS7_St18_Manager_operation:0000000000000000 _ZNSt17_Function_handlerIFviEZN10PitchShift4initEPN5daisy9DaisySeedEEUliE0_E10_M_managerERSt9_Any_dataRKS7_St18_Manager_operation
/var/folders/wz/z09yph4n0qj4t7mjxhl6ttn80000gn/T//ccNJmc12.s:311    .text._ZNSt17_Function_handlerIFvfEZN10PitchShift4initEPN5daisy9DaisySeedEEUlfE_E10_M_managerERSt9_Any_dataRKS7_St18_Manager_operation:0000000000000000 $t
/var/folders/wz/z09yph4n0qj4t7mjxhl6ttn80000gn/T//ccNJmc12.s:316    .text._ZNSt17_Function_handlerIFvfEZN10PitchShift4initEPN5daisy9DaisySeedEEUlfE_E10_M_managerERSt9_Any_dataRKS7_St18_Manager_operation:0000000000000000 _ZNSt17_Function_handlerIFvfEZN10PitchShift4initEPN5daisy9DaisySeedEEUlfE_E10_M_managerERSt9_Any_dataRKS7_St18_Manager_operation
/var/folders/wz/z09yph4n0qj4t7mjxhl6ttn80000gn/T//ccNJmc12.s:395    .text._ZN7daisysp12PitchShifter16SetTranspositionERKf.isra.0:0000000000000000 $t
/var/folders/wz/z09yph4n0qj4t7mjxhl6ttn80000gn/T//ccNJmc12.s:400    .text._ZN7daisysp12PitchShifter16SetTranspositionERKf.isra.0:0000000000000000 _ZN7daisysp12PitchShifter16SetTranspositionERKf.isra.0
/var/folders/wz/z09yph4n0qj4t7mjxhl6ttn80000gn/T//ccNJmc12.s:549    .text._ZN7daisysp12PitchShifter16SetTranspositionERKf.isra.0:00000000000000ec $d
/var/folders/wz/z09yph4n0qj4t7mjxhl6ttn80000gn/T//ccNJmc12.s:554    .text._ZNSt17_Function_handlerIFviEZN10PitchShift4initEPN5daisy9DaisySeedEEUliE0_E9_M_invokeERKSt9_Any_dataOi:0000000000000000 $t
/var/folders/wz/z09yph4n0qj4t7mjxhl6ttn80000gn/T//ccNJmc12.s:559    .text._ZNSt17_Function_handlerIFviEZN10PitchShift4initEPN5daisy9DaisySeedEEUliE0_E9_M_invokeERKSt9_Any_dataOi:0000000000000000 _ZNSt17_Function_handlerIFviEZN10PitchShift4initEPN5daisy9DaisySeedEEUliE0_E9_M_invokeERKSt9_Any_dataOi
/var/folders/wz/z09yph4n0qj4t7mjxhl6ttn80000gn/T//ccNJmc12.s:583    .text._ZN7daisysp6myrandEv:0000000000000000 $t
/var/folders/wz/z09yph4n0qj4t7mjxhl6ttn80000gn/T//ccNJmc12.s:589    .text._ZN7daisysp6myrandEv:0000000000000000 _ZN7daisysp6myrandEv
/var/folders/wz/z09yph4n0qj4t7mjxhl6ttn80000gn/T//ccNJmc12.s:630    .text._ZN7daisysp6myrandEv:0000000000000014 $d
/var/folders/wz/z09yph4n0qj4t7mjxhl6ttn80000gn/T//ccNJmc12.s:3065   .data._ZZN7daisysp6myrandEvE4seed:0000000000000000 _ZZN7daisysp6myrandEvE4seed
/var/folders/wz/z09yph4n0qj4t7mjxhl6ttn80000gn/T//ccNJmc12.s:635    .text._ZNSt14_Function_baseD2Ev:0000000000000000 $t
/var/folders/wz/z09yph4n0qj4t7mjxhl6ttn80000gn/T//ccNJmc12.s:641    .text._ZNSt14_Function_baseD2Ev:0000000000000000 _ZNSt14_Function_baseD2Ev
/var/folders/wz/z09yph4n0qj4t7mjxhl6ttn80000gn/T//ccNJmc12.s:641    .text._ZNSt14_Function_baseD2Ev:0000000000000000 _ZNSt14_Function_baseD1Ev
/var/folders/wz/z09yph4n0qj4t7mjxhl6ttn80000gn/T//ccNJmc12.s:682    .text._ZN10PitchShift16setDefaultValuesEv:0000000000000000 $t
/var/folders/wz/z09yph4n0qj4t7mjxhl6ttn80000gn/T//ccNJmc12.s:688    .text._ZN10PitchShift16setDefaultValuesEv:0000000000000000 _ZN10PitchShift16setDefaultValuesEv
/var/folders/wz/z09yph4n0qj4t7mjxhl6ttn80000gn/T//ccNJmc12.s:801    .text._ZN7daisysp9DelayLineIfLj2400EE8SetDelayEf:0000000000000000 $t
/var/folders/wz/z09yph4n0qj4t7mjxhl6ttn80000gn/T//ccNJmc12.s:807    .text._ZN7daisysp9DelayLineIfLj2400EE8SetDelayEf:0000000000000000 _ZN7daisysp9DelayLineIfLj2400EE8SetDelayEf
/var/folders/wz/z09yph4n0qj4t7mjxhl6ttn80000gn/T//ccNJmc12.s:840    .text._ZNK7daisysp9DelayLineIfLj2400EE4ReadEv:0000000000000000 $t
/var/folders/wz/z09yph4n0qj4t7mjxhl6ttn80000gn/T//ccNJmc12.s:846    .text._ZNK7daisysp9DelayLineIfLj2400EE4ReadEv:0000000000000000 _ZNK7daisysp9DelayLineIfLj2400EE4ReadEv
/var/folders/wz/z09yph4n0qj4t7mjxhl6ttn80000gn/T//ccNJmc12.s:888    .text._ZN7daisysp12PitchShifter7ProcessERf:0000000000000000 $t
/var/folders/wz/z09yph4n0qj4t7mjxhl6ttn80000gn/T//ccNJmc12.s:894    .text._ZN7daisysp12PitchShifter7ProcessERf:0000000000000000 _ZN7daisysp12PitchShifter7ProcessERf
/var/folders/wz/z09yph4n0qj4t7mjxhl6ttn80000gn/T//ccNJmc12.s:1339   .text._ZN7daisysp12PitchShifter7ProcessERf:00000000000002b0 $d
/var/folders/wz/z09yph4n0qj4t7mjxhl6ttn80000gn/T//ccNJmc12.s:1348   .text._ZN10PitchShift7processEPPfj:0000000000000000 $t
/var/folders/wz/z09yph4n0qj4t7mjxhl6ttn80000gn/T//ccNJmc12.s:1354   .text._ZN10PitchShift7processEPPfj:0000000000000000 _ZN10PitchShift7processEPPfj
/var/folders/wz/z09yph4n0qj4t7mjxhl6ttn80000gn/T//ccNJmc12.s:1468   .text._ZN14AudioParameterIfE4tickEv:0000000000000000 $t
/var/folders/wz/z09yph4n0qj4t7mjxhl6ttn80000gn/T//ccNJmc12.s:1474   .text._ZN14AudioParameterIfE4tickEv:0000000000000000 _ZN14AudioParameterIfE4tickEv
/var/folders/wz/z09yph4n0qj4t7mjxhl6ttn80000gn/T//ccNJmc12.s:1624   .text._ZN10PitchShift4tickEv:0000000000000000 $t
/var/folders/wz/z09yph4n0qj4t7mjxhl6ttn80000gn/T//ccNJmc12.s:1630   .text._ZN10PitchShift4tickEv:0000000000000000 _ZN10PitchShift4tickEv
/var/folders/wz/z09yph4n0qj4t7mjxhl6ttn80000gn/T//ccNJmc12.s:1801   .text._ZSt4swapISt9_Any_dataENSt9enable_ifIXsrSt6__and_IJSt6__not_ISt15__is_tuple_likeIT_EESt21is_move_constructibleIS5_ESt18is_move_assignableIS5_EEE5valueEvE4typeERS5_SF_:0000000000000000 $t
/var/folders/wz/z09yph4n0qj4t7mjxhl6ttn80000gn/T//ccNJmc12.s:1807   .text._ZSt4swapISt9_Any_dataENSt9enable_ifIXsrSt6__and_IJSt6__not_ISt15__is_tuple_likeIT_EESt21is_move_constructibleIS5_ESt18is_move_assignableIS5_EEE5valueEvE4typeERS5_SF_:0000000000000000 _ZSt4swapISt9_Any_dataENSt9enable_ifIXsrSt6__and_IJSt6__not_ISt15__is_tuple_likeIT_EESt21is_move_constructibleIS5_ESt18is_move_assignableIS5_EEE5valueEvE4typeERS5_SF_
/var/folders/wz/z09yph4n0qj4t7mjxhl6ttn80000gn/T//ccNJmc12.s:1844   .text._ZNSt8functionIFvfEEaSERKS1_.isra.0:0000000000000000 $t
/var/folders/wz/z09yph4n0qj4t7mjxhl6ttn80000gn/T//ccNJmc12.s:1849   .text._ZNSt8functionIFvfEEaSERKS1_.isra.0:0000000000000000 _ZNSt8functionIFvfEEaSERKS1_.isra.0
/var/folders/wz/z09yph4n0qj4t7mjxhl6ttn80000gn/T//ccNJmc12.s:2031   .text._ZN10PitchShift4initEPN5daisy9DaisySeedE:0000000000000000 $t
/var/folders/wz/z09yph4n0qj4t7mjxhl6ttn80000gn/T//ccNJmc12.s:2037   .text._ZN10PitchShift4initEPN5daisy9DaisySeedE:0000000000000000 _ZN10PitchShift4initEPN5daisy9DaisySeedE
/var/folders/wz/z09yph4n0qj4t7mjxhl6ttn80000gn/T//ccNJmc12.s:3046   .text._ZN10PitchShift4initEPN5daisy9DaisySeedE:00000000000001fc $d
/var/folders/wz/z09yph4n0qj4t7mjxhl6ttn80000gn/T//ccNJmc12.s:3062   .data._ZZN7daisysp6myrandEvE4seed:0000000000000000 $d
                           .group:0000000000000000 _ZNSt14_Function_baseD5Ev

UNDEFINED SYMBOLS
_ZN7daisysp6Phasor7SetFreqEf
_ZN7daisysp6Phasor7ProcessEv
sinf
_ZNK5daisy9AdcHandle8GetFloatEh
_ZSt25__throw_bad_function_callv
powf
memset
ARM GAS  /var/folders/wz/z09yph4n0qj4t7mjxhl6ttn80000gn/T//ccNJmc12.s 			page 97


