ARM GAS  /var/folders/wz/z09yph4n0qj4t7mjxhl6ttn80000gn/T//ccPO7ASC.s 			page 1


   1              		.cpu cortex-m7
   2              		.arch armv7e-m
   3              		.fpu fpv5-d16
   4              		.eabi_attribute 28, 1
   5              		.eabi_attribute 20, 1
   6              		.eabi_attribute 21, 1
   7              		.eabi_attribute 23, 3
   8              		.eabi_attribute 24, 1
   9              		.eabi_attribute 25, 1
  10              		.eabi_attribute 26, 1
  11              		.eabi_attribute 30, 2
  12              		.eabi_attribute 34, 1
  13              		.eabi_attribute 18, 4
  14              		.file	"PitchShift.cpp"
  15              		.text
  16              	.Ltext0:
  17              		.cfi_sections	.debug_frame
  18              		.section	.text._ZNSt17_Function_handlerIFvfEZN10PitchShift4initEPN5daisy9DaisySeedEEUlfE1_E9_M_inv
  19              		.align	1
  20              		.p2align 2,,3
  21              		.syntax unified
  22              		.thumb
  23              		.thumb_func
  25              	_ZNSt17_Function_handlerIFvfEZN10PitchShift4initEPN5daisy9DaisySeedEEUlfE1_E9_M_invokeERKSt9_Any_da
  26              	.LVL0:
  27              	.LFB6145:
  28              		.file 1 "/Library/DaisyToolchain/0.2.0/arm/arm-none-eabi/include/c++/10.3.1/bits/std_function.h"
   1:/Library/DaisyToolchain/0.2.0/arm/arm-none-eabi/include/c++/10.3.1/bits/std_function.h **** // Implementation of std::function -*- C++ -*-
   2:/Library/DaisyToolchain/0.2.0/arm/arm-none-eabi/include/c++/10.3.1/bits/std_function.h **** 
   3:/Library/DaisyToolchain/0.2.0/arm/arm-none-eabi/include/c++/10.3.1/bits/std_function.h **** // Copyright (C) 2004-2020 Free Software Foundation, Inc.
   4:/Library/DaisyToolchain/0.2.0/arm/arm-none-eabi/include/c++/10.3.1/bits/std_function.h **** //
   5:/Library/DaisyToolchain/0.2.0/arm/arm-none-eabi/include/c++/10.3.1/bits/std_function.h **** // This file is part of the GNU ISO C++ Library.  This library is free
   6:/Library/DaisyToolchain/0.2.0/arm/arm-none-eabi/include/c++/10.3.1/bits/std_function.h **** // software; you can redistribute it and/or modify it under the
   7:/Library/DaisyToolchain/0.2.0/arm/arm-none-eabi/include/c++/10.3.1/bits/std_function.h **** // terms of the GNU General Public License as published by the
   8:/Library/DaisyToolchain/0.2.0/arm/arm-none-eabi/include/c++/10.3.1/bits/std_function.h **** // Free Software Foundation; either version 3, or (at your option)
   9:/Library/DaisyToolchain/0.2.0/arm/arm-none-eabi/include/c++/10.3.1/bits/std_function.h **** // any later version.
  10:/Library/DaisyToolchain/0.2.0/arm/arm-none-eabi/include/c++/10.3.1/bits/std_function.h **** 
  11:/Library/DaisyToolchain/0.2.0/arm/arm-none-eabi/include/c++/10.3.1/bits/std_function.h **** // This library is distributed in the hope that it will be useful,
  12:/Library/DaisyToolchain/0.2.0/arm/arm-none-eabi/include/c++/10.3.1/bits/std_function.h **** // but WITHOUT ANY WARRANTY; without even the implied warranty of
  13:/Library/DaisyToolchain/0.2.0/arm/arm-none-eabi/include/c++/10.3.1/bits/std_function.h **** // MERCHANTABILITY or FITNESS FOR A PARTICULAR PURPOSE.  See the
  14:/Library/DaisyToolchain/0.2.0/arm/arm-none-eabi/include/c++/10.3.1/bits/std_function.h **** // GNU General Public License for more details.
  15:/Library/DaisyToolchain/0.2.0/arm/arm-none-eabi/include/c++/10.3.1/bits/std_function.h **** 
  16:/Library/DaisyToolchain/0.2.0/arm/arm-none-eabi/include/c++/10.3.1/bits/std_function.h **** // Under Section 7 of GPL version 3, you are granted additional
  17:/Library/DaisyToolchain/0.2.0/arm/arm-none-eabi/include/c++/10.3.1/bits/std_function.h **** // permissions described in the GCC Runtime Library Exception, version
  18:/Library/DaisyToolchain/0.2.0/arm/arm-none-eabi/include/c++/10.3.1/bits/std_function.h **** // 3.1, as published by the Free Software Foundation.
  19:/Library/DaisyToolchain/0.2.0/arm/arm-none-eabi/include/c++/10.3.1/bits/std_function.h **** 
  20:/Library/DaisyToolchain/0.2.0/arm/arm-none-eabi/include/c++/10.3.1/bits/std_function.h **** // You should have received a copy of the GNU General Public License and
  21:/Library/DaisyToolchain/0.2.0/arm/arm-none-eabi/include/c++/10.3.1/bits/std_function.h **** // a copy of the GCC Runtime Library Exception along with this program;
  22:/Library/DaisyToolchain/0.2.0/arm/arm-none-eabi/include/c++/10.3.1/bits/std_function.h **** // see the files COPYING3 and COPYING.RUNTIME respectively.  If not, see
  23:/Library/DaisyToolchain/0.2.0/arm/arm-none-eabi/include/c++/10.3.1/bits/std_function.h **** // <http://www.gnu.org/licenses/>.
  24:/Library/DaisyToolchain/0.2.0/arm/arm-none-eabi/include/c++/10.3.1/bits/std_function.h **** 
  25:/Library/DaisyToolchain/0.2.0/arm/arm-none-eabi/include/c++/10.3.1/bits/std_function.h **** /** @file include/bits/std_function.h
  26:/Library/DaisyToolchain/0.2.0/arm/arm-none-eabi/include/c++/10.3.1/bits/std_function.h ****  *  This is an internal header file, included by other library headers.
  27:/Library/DaisyToolchain/0.2.0/arm/arm-none-eabi/include/c++/10.3.1/bits/std_function.h ****  *  Do not attempt to use it directly. @headername{functional}
  28:/Library/DaisyToolchain/0.2.0/arm/arm-none-eabi/include/c++/10.3.1/bits/std_function.h ****  */
  29:/Library/DaisyToolchain/0.2.0/arm/arm-none-eabi/include/c++/10.3.1/bits/std_function.h **** 
  30:/Library/DaisyToolchain/0.2.0/arm/arm-none-eabi/include/c++/10.3.1/bits/std_function.h **** #ifndef _GLIBCXX_STD_FUNCTION_H
ARM GAS  /var/folders/wz/z09yph4n0qj4t7mjxhl6ttn80000gn/T//ccPO7ASC.s 			page 2


  31:/Library/DaisyToolchain/0.2.0/arm/arm-none-eabi/include/c++/10.3.1/bits/std_function.h **** #define _GLIBCXX_STD_FUNCTION_H 1
  32:/Library/DaisyToolchain/0.2.0/arm/arm-none-eabi/include/c++/10.3.1/bits/std_function.h **** 
  33:/Library/DaisyToolchain/0.2.0/arm/arm-none-eabi/include/c++/10.3.1/bits/std_function.h **** #pragma GCC system_header
  34:/Library/DaisyToolchain/0.2.0/arm/arm-none-eabi/include/c++/10.3.1/bits/std_function.h **** 
  35:/Library/DaisyToolchain/0.2.0/arm/arm-none-eabi/include/c++/10.3.1/bits/std_function.h **** #if __cplusplus < 201103L
  36:/Library/DaisyToolchain/0.2.0/arm/arm-none-eabi/include/c++/10.3.1/bits/std_function.h **** # include <bits/c++0x_warning.h>
  37:/Library/DaisyToolchain/0.2.0/arm/arm-none-eabi/include/c++/10.3.1/bits/std_function.h **** #else
  38:/Library/DaisyToolchain/0.2.0/arm/arm-none-eabi/include/c++/10.3.1/bits/std_function.h **** 
  39:/Library/DaisyToolchain/0.2.0/arm/arm-none-eabi/include/c++/10.3.1/bits/std_function.h **** #if __cpp_rtti
  40:/Library/DaisyToolchain/0.2.0/arm/arm-none-eabi/include/c++/10.3.1/bits/std_function.h **** # include <typeinfo>
  41:/Library/DaisyToolchain/0.2.0/arm/arm-none-eabi/include/c++/10.3.1/bits/std_function.h **** #endif
  42:/Library/DaisyToolchain/0.2.0/arm/arm-none-eabi/include/c++/10.3.1/bits/std_function.h **** #include <bits/stl_function.h>
  43:/Library/DaisyToolchain/0.2.0/arm/arm-none-eabi/include/c++/10.3.1/bits/std_function.h **** #include <bits/invoke.h>
  44:/Library/DaisyToolchain/0.2.0/arm/arm-none-eabi/include/c++/10.3.1/bits/std_function.h **** #include <bits/refwrap.h>
  45:/Library/DaisyToolchain/0.2.0/arm/arm-none-eabi/include/c++/10.3.1/bits/std_function.h **** #include <bits/functexcept.h>
  46:/Library/DaisyToolchain/0.2.0/arm/arm-none-eabi/include/c++/10.3.1/bits/std_function.h **** 
  47:/Library/DaisyToolchain/0.2.0/arm/arm-none-eabi/include/c++/10.3.1/bits/std_function.h **** namespace std _GLIBCXX_VISIBILITY(default)
  48:/Library/DaisyToolchain/0.2.0/arm/arm-none-eabi/include/c++/10.3.1/bits/std_function.h **** {
  49:/Library/DaisyToolchain/0.2.0/arm/arm-none-eabi/include/c++/10.3.1/bits/std_function.h **** _GLIBCXX_BEGIN_NAMESPACE_VERSION
  50:/Library/DaisyToolchain/0.2.0/arm/arm-none-eabi/include/c++/10.3.1/bits/std_function.h **** 
  51:/Library/DaisyToolchain/0.2.0/arm/arm-none-eabi/include/c++/10.3.1/bits/std_function.h ****   /**
  52:/Library/DaisyToolchain/0.2.0/arm/arm-none-eabi/include/c++/10.3.1/bits/std_function.h ****    *  @brief Exception class thrown when class template function's
  53:/Library/DaisyToolchain/0.2.0/arm/arm-none-eabi/include/c++/10.3.1/bits/std_function.h ****    *  operator() is called with an empty target.
  54:/Library/DaisyToolchain/0.2.0/arm/arm-none-eabi/include/c++/10.3.1/bits/std_function.h ****    *  @ingroup exceptions
  55:/Library/DaisyToolchain/0.2.0/arm/arm-none-eabi/include/c++/10.3.1/bits/std_function.h ****    */
  56:/Library/DaisyToolchain/0.2.0/arm/arm-none-eabi/include/c++/10.3.1/bits/std_function.h ****   class bad_function_call : public std::exception
  57:/Library/DaisyToolchain/0.2.0/arm/arm-none-eabi/include/c++/10.3.1/bits/std_function.h ****   {
  58:/Library/DaisyToolchain/0.2.0/arm/arm-none-eabi/include/c++/10.3.1/bits/std_function.h ****   public:
  59:/Library/DaisyToolchain/0.2.0/arm/arm-none-eabi/include/c++/10.3.1/bits/std_function.h ****     virtual ~bad_function_call() noexcept;
  60:/Library/DaisyToolchain/0.2.0/arm/arm-none-eabi/include/c++/10.3.1/bits/std_function.h **** 
  61:/Library/DaisyToolchain/0.2.0/arm/arm-none-eabi/include/c++/10.3.1/bits/std_function.h ****     const char* what() const noexcept;
  62:/Library/DaisyToolchain/0.2.0/arm/arm-none-eabi/include/c++/10.3.1/bits/std_function.h ****   };
  63:/Library/DaisyToolchain/0.2.0/arm/arm-none-eabi/include/c++/10.3.1/bits/std_function.h **** 
  64:/Library/DaisyToolchain/0.2.0/arm/arm-none-eabi/include/c++/10.3.1/bits/std_function.h ****   /**
  65:/Library/DaisyToolchain/0.2.0/arm/arm-none-eabi/include/c++/10.3.1/bits/std_function.h ****    *  Trait identifying "location-invariant" types, meaning that the
  66:/Library/DaisyToolchain/0.2.0/arm/arm-none-eabi/include/c++/10.3.1/bits/std_function.h ****    *  address of the object (or any of its members) will not escape.
  67:/Library/DaisyToolchain/0.2.0/arm/arm-none-eabi/include/c++/10.3.1/bits/std_function.h ****    *  Trivially copyable types are location-invariant and users can
  68:/Library/DaisyToolchain/0.2.0/arm/arm-none-eabi/include/c++/10.3.1/bits/std_function.h ****    *  specialize this trait for other types.
  69:/Library/DaisyToolchain/0.2.0/arm/arm-none-eabi/include/c++/10.3.1/bits/std_function.h ****    */
  70:/Library/DaisyToolchain/0.2.0/arm/arm-none-eabi/include/c++/10.3.1/bits/std_function.h ****   template<typename _Tp>
  71:/Library/DaisyToolchain/0.2.0/arm/arm-none-eabi/include/c++/10.3.1/bits/std_function.h ****     struct __is_location_invariant
  72:/Library/DaisyToolchain/0.2.0/arm/arm-none-eabi/include/c++/10.3.1/bits/std_function.h ****     : is_trivially_copyable<_Tp>::type
  73:/Library/DaisyToolchain/0.2.0/arm/arm-none-eabi/include/c++/10.3.1/bits/std_function.h ****     { };
  74:/Library/DaisyToolchain/0.2.0/arm/arm-none-eabi/include/c++/10.3.1/bits/std_function.h **** 
  75:/Library/DaisyToolchain/0.2.0/arm/arm-none-eabi/include/c++/10.3.1/bits/std_function.h ****   class _Undefined_class;
  76:/Library/DaisyToolchain/0.2.0/arm/arm-none-eabi/include/c++/10.3.1/bits/std_function.h **** 
  77:/Library/DaisyToolchain/0.2.0/arm/arm-none-eabi/include/c++/10.3.1/bits/std_function.h ****   union _Nocopy_types
  78:/Library/DaisyToolchain/0.2.0/arm/arm-none-eabi/include/c++/10.3.1/bits/std_function.h ****   {
  79:/Library/DaisyToolchain/0.2.0/arm/arm-none-eabi/include/c++/10.3.1/bits/std_function.h ****     void*       _M_object;
  80:/Library/DaisyToolchain/0.2.0/arm/arm-none-eabi/include/c++/10.3.1/bits/std_function.h ****     const void* _M_const_object;
  81:/Library/DaisyToolchain/0.2.0/arm/arm-none-eabi/include/c++/10.3.1/bits/std_function.h ****     void (*_M_function_pointer)();
  82:/Library/DaisyToolchain/0.2.0/arm/arm-none-eabi/include/c++/10.3.1/bits/std_function.h ****     void (_Undefined_class::*_M_member_pointer)();
  83:/Library/DaisyToolchain/0.2.0/arm/arm-none-eabi/include/c++/10.3.1/bits/std_function.h ****   };
  84:/Library/DaisyToolchain/0.2.0/arm/arm-none-eabi/include/c++/10.3.1/bits/std_function.h **** 
  85:/Library/DaisyToolchain/0.2.0/arm/arm-none-eabi/include/c++/10.3.1/bits/std_function.h ****   union [[gnu::may_alias]] _Any_data
  86:/Library/DaisyToolchain/0.2.0/arm/arm-none-eabi/include/c++/10.3.1/bits/std_function.h ****   {
  87:/Library/DaisyToolchain/0.2.0/arm/arm-none-eabi/include/c++/10.3.1/bits/std_function.h ****     void*       _M_access()       { return &_M_pod_data[0]; }
ARM GAS  /var/folders/wz/z09yph4n0qj4t7mjxhl6ttn80000gn/T//ccPO7ASC.s 			page 3


  88:/Library/DaisyToolchain/0.2.0/arm/arm-none-eabi/include/c++/10.3.1/bits/std_function.h ****     const void* _M_access() const { return &_M_pod_data[0]; }
  89:/Library/DaisyToolchain/0.2.0/arm/arm-none-eabi/include/c++/10.3.1/bits/std_function.h **** 
  90:/Library/DaisyToolchain/0.2.0/arm/arm-none-eabi/include/c++/10.3.1/bits/std_function.h ****     template<typename _Tp>
  91:/Library/DaisyToolchain/0.2.0/arm/arm-none-eabi/include/c++/10.3.1/bits/std_function.h ****       _Tp&
  92:/Library/DaisyToolchain/0.2.0/arm/arm-none-eabi/include/c++/10.3.1/bits/std_function.h ****       _M_access()
  93:/Library/DaisyToolchain/0.2.0/arm/arm-none-eabi/include/c++/10.3.1/bits/std_function.h ****       { return *static_cast<_Tp*>(_M_access()); }
  94:/Library/DaisyToolchain/0.2.0/arm/arm-none-eabi/include/c++/10.3.1/bits/std_function.h **** 
  95:/Library/DaisyToolchain/0.2.0/arm/arm-none-eabi/include/c++/10.3.1/bits/std_function.h ****     template<typename _Tp>
  96:/Library/DaisyToolchain/0.2.0/arm/arm-none-eabi/include/c++/10.3.1/bits/std_function.h ****       const _Tp&
  97:/Library/DaisyToolchain/0.2.0/arm/arm-none-eabi/include/c++/10.3.1/bits/std_function.h ****       _M_access() const
  98:/Library/DaisyToolchain/0.2.0/arm/arm-none-eabi/include/c++/10.3.1/bits/std_function.h ****       { return *static_cast<const _Tp*>(_M_access()); }
  99:/Library/DaisyToolchain/0.2.0/arm/arm-none-eabi/include/c++/10.3.1/bits/std_function.h **** 
 100:/Library/DaisyToolchain/0.2.0/arm/arm-none-eabi/include/c++/10.3.1/bits/std_function.h ****     _Nocopy_types _M_unused;
 101:/Library/DaisyToolchain/0.2.0/arm/arm-none-eabi/include/c++/10.3.1/bits/std_function.h ****     char _M_pod_data[sizeof(_Nocopy_types)];
 102:/Library/DaisyToolchain/0.2.0/arm/arm-none-eabi/include/c++/10.3.1/bits/std_function.h ****   };
 103:/Library/DaisyToolchain/0.2.0/arm/arm-none-eabi/include/c++/10.3.1/bits/std_function.h **** 
 104:/Library/DaisyToolchain/0.2.0/arm/arm-none-eabi/include/c++/10.3.1/bits/std_function.h ****   enum _Manager_operation
 105:/Library/DaisyToolchain/0.2.0/arm/arm-none-eabi/include/c++/10.3.1/bits/std_function.h ****   {
 106:/Library/DaisyToolchain/0.2.0/arm/arm-none-eabi/include/c++/10.3.1/bits/std_function.h ****     __get_type_info,
 107:/Library/DaisyToolchain/0.2.0/arm/arm-none-eabi/include/c++/10.3.1/bits/std_function.h ****     __get_functor_ptr,
 108:/Library/DaisyToolchain/0.2.0/arm/arm-none-eabi/include/c++/10.3.1/bits/std_function.h ****     __clone_functor,
 109:/Library/DaisyToolchain/0.2.0/arm/arm-none-eabi/include/c++/10.3.1/bits/std_function.h ****     __destroy_functor
 110:/Library/DaisyToolchain/0.2.0/arm/arm-none-eabi/include/c++/10.3.1/bits/std_function.h ****   };
 111:/Library/DaisyToolchain/0.2.0/arm/arm-none-eabi/include/c++/10.3.1/bits/std_function.h **** 
 112:/Library/DaisyToolchain/0.2.0/arm/arm-none-eabi/include/c++/10.3.1/bits/std_function.h ****   template<typename _Signature>
 113:/Library/DaisyToolchain/0.2.0/arm/arm-none-eabi/include/c++/10.3.1/bits/std_function.h ****     class function;
 114:/Library/DaisyToolchain/0.2.0/arm/arm-none-eabi/include/c++/10.3.1/bits/std_function.h **** 
 115:/Library/DaisyToolchain/0.2.0/arm/arm-none-eabi/include/c++/10.3.1/bits/std_function.h ****   /// Base class of all polymorphic function object wrappers.
 116:/Library/DaisyToolchain/0.2.0/arm/arm-none-eabi/include/c++/10.3.1/bits/std_function.h ****   class _Function_base
 117:/Library/DaisyToolchain/0.2.0/arm/arm-none-eabi/include/c++/10.3.1/bits/std_function.h ****   {
 118:/Library/DaisyToolchain/0.2.0/arm/arm-none-eabi/include/c++/10.3.1/bits/std_function.h ****   public:
 119:/Library/DaisyToolchain/0.2.0/arm/arm-none-eabi/include/c++/10.3.1/bits/std_function.h ****     static const size_t _M_max_size = sizeof(_Nocopy_types);
 120:/Library/DaisyToolchain/0.2.0/arm/arm-none-eabi/include/c++/10.3.1/bits/std_function.h ****     static const size_t _M_max_align = __alignof__(_Nocopy_types);
 121:/Library/DaisyToolchain/0.2.0/arm/arm-none-eabi/include/c++/10.3.1/bits/std_function.h **** 
 122:/Library/DaisyToolchain/0.2.0/arm/arm-none-eabi/include/c++/10.3.1/bits/std_function.h ****     template<typename _Functor>
 123:/Library/DaisyToolchain/0.2.0/arm/arm-none-eabi/include/c++/10.3.1/bits/std_function.h ****       class _Base_manager
 124:/Library/DaisyToolchain/0.2.0/arm/arm-none-eabi/include/c++/10.3.1/bits/std_function.h ****       {
 125:/Library/DaisyToolchain/0.2.0/arm/arm-none-eabi/include/c++/10.3.1/bits/std_function.h ****       protected:
 126:/Library/DaisyToolchain/0.2.0/arm/arm-none-eabi/include/c++/10.3.1/bits/std_function.h **** 	static const bool __stored_locally =
 127:/Library/DaisyToolchain/0.2.0/arm/arm-none-eabi/include/c++/10.3.1/bits/std_function.h **** 	(__is_location_invariant<_Functor>::value
 128:/Library/DaisyToolchain/0.2.0/arm/arm-none-eabi/include/c++/10.3.1/bits/std_function.h **** 	 && sizeof(_Functor) <= _M_max_size
 129:/Library/DaisyToolchain/0.2.0/arm/arm-none-eabi/include/c++/10.3.1/bits/std_function.h **** 	 && __alignof__(_Functor) <= _M_max_align
 130:/Library/DaisyToolchain/0.2.0/arm/arm-none-eabi/include/c++/10.3.1/bits/std_function.h **** 	 && (_M_max_align % __alignof__(_Functor) == 0));
 131:/Library/DaisyToolchain/0.2.0/arm/arm-none-eabi/include/c++/10.3.1/bits/std_function.h **** 
 132:/Library/DaisyToolchain/0.2.0/arm/arm-none-eabi/include/c++/10.3.1/bits/std_function.h **** 	typedef integral_constant<bool, __stored_locally> _Local_storage;
 133:/Library/DaisyToolchain/0.2.0/arm/arm-none-eabi/include/c++/10.3.1/bits/std_function.h **** 
 134:/Library/DaisyToolchain/0.2.0/arm/arm-none-eabi/include/c++/10.3.1/bits/std_function.h **** 	// Retrieve a pointer to the function object
 135:/Library/DaisyToolchain/0.2.0/arm/arm-none-eabi/include/c++/10.3.1/bits/std_function.h **** 	static _Functor*
 136:/Library/DaisyToolchain/0.2.0/arm/arm-none-eabi/include/c++/10.3.1/bits/std_function.h **** 	_M_get_pointer(const _Any_data& __source)
 137:/Library/DaisyToolchain/0.2.0/arm/arm-none-eabi/include/c++/10.3.1/bits/std_function.h **** 	{
 138:/Library/DaisyToolchain/0.2.0/arm/arm-none-eabi/include/c++/10.3.1/bits/std_function.h **** 	  if _GLIBCXX17_CONSTEXPR (__stored_locally)
 139:/Library/DaisyToolchain/0.2.0/arm/arm-none-eabi/include/c++/10.3.1/bits/std_function.h **** 	    {
 140:/Library/DaisyToolchain/0.2.0/arm/arm-none-eabi/include/c++/10.3.1/bits/std_function.h **** 	      const _Functor& __f = __source._M_access<_Functor>();
 141:/Library/DaisyToolchain/0.2.0/arm/arm-none-eabi/include/c++/10.3.1/bits/std_function.h **** 	      return const_cast<_Functor*>(std::__addressof(__f));
 142:/Library/DaisyToolchain/0.2.0/arm/arm-none-eabi/include/c++/10.3.1/bits/std_function.h **** 	    }
 143:/Library/DaisyToolchain/0.2.0/arm/arm-none-eabi/include/c++/10.3.1/bits/std_function.h **** 	  else // have stored a pointer
 144:/Library/DaisyToolchain/0.2.0/arm/arm-none-eabi/include/c++/10.3.1/bits/std_function.h **** 	    return __source._M_access<_Functor*>();
ARM GAS  /var/folders/wz/z09yph4n0qj4t7mjxhl6ttn80000gn/T//ccPO7ASC.s 			page 4


 145:/Library/DaisyToolchain/0.2.0/arm/arm-none-eabi/include/c++/10.3.1/bits/std_function.h **** 	}
 146:/Library/DaisyToolchain/0.2.0/arm/arm-none-eabi/include/c++/10.3.1/bits/std_function.h **** 
 147:/Library/DaisyToolchain/0.2.0/arm/arm-none-eabi/include/c++/10.3.1/bits/std_function.h **** 	// Clone a location-invariant function object that fits within
 148:/Library/DaisyToolchain/0.2.0/arm/arm-none-eabi/include/c++/10.3.1/bits/std_function.h **** 	// an _Any_data structure.
 149:/Library/DaisyToolchain/0.2.0/arm/arm-none-eabi/include/c++/10.3.1/bits/std_function.h **** 	static void
 150:/Library/DaisyToolchain/0.2.0/arm/arm-none-eabi/include/c++/10.3.1/bits/std_function.h **** 	_M_clone(_Any_data& __dest, const _Any_data& __source, true_type)
 151:/Library/DaisyToolchain/0.2.0/arm/arm-none-eabi/include/c++/10.3.1/bits/std_function.h **** 	{
 152:/Library/DaisyToolchain/0.2.0/arm/arm-none-eabi/include/c++/10.3.1/bits/std_function.h **** 	  ::new (__dest._M_access()) _Functor(__source._M_access<_Functor>());
 153:/Library/DaisyToolchain/0.2.0/arm/arm-none-eabi/include/c++/10.3.1/bits/std_function.h **** 	}
 154:/Library/DaisyToolchain/0.2.0/arm/arm-none-eabi/include/c++/10.3.1/bits/std_function.h **** 
 155:/Library/DaisyToolchain/0.2.0/arm/arm-none-eabi/include/c++/10.3.1/bits/std_function.h **** 	// Clone a function object that is not location-invariant or
 156:/Library/DaisyToolchain/0.2.0/arm/arm-none-eabi/include/c++/10.3.1/bits/std_function.h **** 	// that cannot fit into an _Any_data structure.
 157:/Library/DaisyToolchain/0.2.0/arm/arm-none-eabi/include/c++/10.3.1/bits/std_function.h **** 	static void
 158:/Library/DaisyToolchain/0.2.0/arm/arm-none-eabi/include/c++/10.3.1/bits/std_function.h **** 	_M_clone(_Any_data& __dest, const _Any_data& __source, false_type)
 159:/Library/DaisyToolchain/0.2.0/arm/arm-none-eabi/include/c++/10.3.1/bits/std_function.h **** 	{
 160:/Library/DaisyToolchain/0.2.0/arm/arm-none-eabi/include/c++/10.3.1/bits/std_function.h **** 	  __dest._M_access<_Functor*>() =
 161:/Library/DaisyToolchain/0.2.0/arm/arm-none-eabi/include/c++/10.3.1/bits/std_function.h **** 	    new _Functor(*__source._M_access<const _Functor*>());
 162:/Library/DaisyToolchain/0.2.0/arm/arm-none-eabi/include/c++/10.3.1/bits/std_function.h **** 	}
 163:/Library/DaisyToolchain/0.2.0/arm/arm-none-eabi/include/c++/10.3.1/bits/std_function.h **** 
 164:/Library/DaisyToolchain/0.2.0/arm/arm-none-eabi/include/c++/10.3.1/bits/std_function.h **** 	// Destroying a location-invariant object may still require
 165:/Library/DaisyToolchain/0.2.0/arm/arm-none-eabi/include/c++/10.3.1/bits/std_function.h **** 	// destruction.
 166:/Library/DaisyToolchain/0.2.0/arm/arm-none-eabi/include/c++/10.3.1/bits/std_function.h **** 	static void
 167:/Library/DaisyToolchain/0.2.0/arm/arm-none-eabi/include/c++/10.3.1/bits/std_function.h **** 	_M_destroy(_Any_data& __victim, true_type)
 168:/Library/DaisyToolchain/0.2.0/arm/arm-none-eabi/include/c++/10.3.1/bits/std_function.h **** 	{
 169:/Library/DaisyToolchain/0.2.0/arm/arm-none-eabi/include/c++/10.3.1/bits/std_function.h **** 	  __victim._M_access<_Functor>().~_Functor();
 170:/Library/DaisyToolchain/0.2.0/arm/arm-none-eabi/include/c++/10.3.1/bits/std_function.h **** 	}
 171:/Library/DaisyToolchain/0.2.0/arm/arm-none-eabi/include/c++/10.3.1/bits/std_function.h **** 
 172:/Library/DaisyToolchain/0.2.0/arm/arm-none-eabi/include/c++/10.3.1/bits/std_function.h **** 	// Destroying an object located on the heap.
 173:/Library/DaisyToolchain/0.2.0/arm/arm-none-eabi/include/c++/10.3.1/bits/std_function.h **** 	static void
 174:/Library/DaisyToolchain/0.2.0/arm/arm-none-eabi/include/c++/10.3.1/bits/std_function.h **** 	_M_destroy(_Any_data& __victim, false_type)
 175:/Library/DaisyToolchain/0.2.0/arm/arm-none-eabi/include/c++/10.3.1/bits/std_function.h **** 	{
 176:/Library/DaisyToolchain/0.2.0/arm/arm-none-eabi/include/c++/10.3.1/bits/std_function.h **** 	  delete __victim._M_access<_Functor*>();
 177:/Library/DaisyToolchain/0.2.0/arm/arm-none-eabi/include/c++/10.3.1/bits/std_function.h **** 	}
 178:/Library/DaisyToolchain/0.2.0/arm/arm-none-eabi/include/c++/10.3.1/bits/std_function.h **** 
 179:/Library/DaisyToolchain/0.2.0/arm/arm-none-eabi/include/c++/10.3.1/bits/std_function.h ****       public:
 180:/Library/DaisyToolchain/0.2.0/arm/arm-none-eabi/include/c++/10.3.1/bits/std_function.h **** 	static bool
 181:/Library/DaisyToolchain/0.2.0/arm/arm-none-eabi/include/c++/10.3.1/bits/std_function.h **** 	_M_manager(_Any_data& __dest, const _Any_data& __source,
 182:/Library/DaisyToolchain/0.2.0/arm/arm-none-eabi/include/c++/10.3.1/bits/std_function.h **** 		   _Manager_operation __op)
 183:/Library/DaisyToolchain/0.2.0/arm/arm-none-eabi/include/c++/10.3.1/bits/std_function.h **** 	{
 184:/Library/DaisyToolchain/0.2.0/arm/arm-none-eabi/include/c++/10.3.1/bits/std_function.h **** 	  switch (__op)
 185:/Library/DaisyToolchain/0.2.0/arm/arm-none-eabi/include/c++/10.3.1/bits/std_function.h **** 	    {
 186:/Library/DaisyToolchain/0.2.0/arm/arm-none-eabi/include/c++/10.3.1/bits/std_function.h **** #if __cpp_rtti
 187:/Library/DaisyToolchain/0.2.0/arm/arm-none-eabi/include/c++/10.3.1/bits/std_function.h **** 	    case __get_type_info:
 188:/Library/DaisyToolchain/0.2.0/arm/arm-none-eabi/include/c++/10.3.1/bits/std_function.h **** 	      __dest._M_access<const type_info*>() = &typeid(_Functor);
 189:/Library/DaisyToolchain/0.2.0/arm/arm-none-eabi/include/c++/10.3.1/bits/std_function.h **** 	      break;
 190:/Library/DaisyToolchain/0.2.0/arm/arm-none-eabi/include/c++/10.3.1/bits/std_function.h **** #endif
 191:/Library/DaisyToolchain/0.2.0/arm/arm-none-eabi/include/c++/10.3.1/bits/std_function.h **** 	    case __get_functor_ptr:
 192:/Library/DaisyToolchain/0.2.0/arm/arm-none-eabi/include/c++/10.3.1/bits/std_function.h **** 	      __dest._M_access<_Functor*>() = _M_get_pointer(__source);
 193:/Library/DaisyToolchain/0.2.0/arm/arm-none-eabi/include/c++/10.3.1/bits/std_function.h **** 	      break;
 194:/Library/DaisyToolchain/0.2.0/arm/arm-none-eabi/include/c++/10.3.1/bits/std_function.h **** 
 195:/Library/DaisyToolchain/0.2.0/arm/arm-none-eabi/include/c++/10.3.1/bits/std_function.h **** 	    case __clone_functor:
 196:/Library/DaisyToolchain/0.2.0/arm/arm-none-eabi/include/c++/10.3.1/bits/std_function.h **** 	      _M_clone(__dest, __source, _Local_storage());
 197:/Library/DaisyToolchain/0.2.0/arm/arm-none-eabi/include/c++/10.3.1/bits/std_function.h **** 	      break;
 198:/Library/DaisyToolchain/0.2.0/arm/arm-none-eabi/include/c++/10.3.1/bits/std_function.h **** 
 199:/Library/DaisyToolchain/0.2.0/arm/arm-none-eabi/include/c++/10.3.1/bits/std_function.h **** 	    case __destroy_functor:
 200:/Library/DaisyToolchain/0.2.0/arm/arm-none-eabi/include/c++/10.3.1/bits/std_function.h **** 	      _M_destroy(__dest, _Local_storage());
 201:/Library/DaisyToolchain/0.2.0/arm/arm-none-eabi/include/c++/10.3.1/bits/std_function.h **** 	      break;
ARM GAS  /var/folders/wz/z09yph4n0qj4t7mjxhl6ttn80000gn/T//ccPO7ASC.s 			page 5


 202:/Library/DaisyToolchain/0.2.0/arm/arm-none-eabi/include/c++/10.3.1/bits/std_function.h **** 	    }
 203:/Library/DaisyToolchain/0.2.0/arm/arm-none-eabi/include/c++/10.3.1/bits/std_function.h **** 	  return false;
 204:/Library/DaisyToolchain/0.2.0/arm/arm-none-eabi/include/c++/10.3.1/bits/std_function.h **** 	}
 205:/Library/DaisyToolchain/0.2.0/arm/arm-none-eabi/include/c++/10.3.1/bits/std_function.h **** 
 206:/Library/DaisyToolchain/0.2.0/arm/arm-none-eabi/include/c++/10.3.1/bits/std_function.h **** 	static void
 207:/Library/DaisyToolchain/0.2.0/arm/arm-none-eabi/include/c++/10.3.1/bits/std_function.h **** 	_M_init_functor(_Any_data& __functor, _Functor&& __f)
 208:/Library/DaisyToolchain/0.2.0/arm/arm-none-eabi/include/c++/10.3.1/bits/std_function.h **** 	{ _M_init_functor(__functor, std::move(__f), _Local_storage()); }
 209:/Library/DaisyToolchain/0.2.0/arm/arm-none-eabi/include/c++/10.3.1/bits/std_function.h **** 
 210:/Library/DaisyToolchain/0.2.0/arm/arm-none-eabi/include/c++/10.3.1/bits/std_function.h **** 	template<typename _Signature>
 211:/Library/DaisyToolchain/0.2.0/arm/arm-none-eabi/include/c++/10.3.1/bits/std_function.h **** 	  static bool
 212:/Library/DaisyToolchain/0.2.0/arm/arm-none-eabi/include/c++/10.3.1/bits/std_function.h **** 	  _M_not_empty_function(const function<_Signature>& __f)
 213:/Library/DaisyToolchain/0.2.0/arm/arm-none-eabi/include/c++/10.3.1/bits/std_function.h **** 	  { return static_cast<bool>(__f); }
 214:/Library/DaisyToolchain/0.2.0/arm/arm-none-eabi/include/c++/10.3.1/bits/std_function.h **** 
 215:/Library/DaisyToolchain/0.2.0/arm/arm-none-eabi/include/c++/10.3.1/bits/std_function.h **** 	template<typename _Tp>
 216:/Library/DaisyToolchain/0.2.0/arm/arm-none-eabi/include/c++/10.3.1/bits/std_function.h **** 	  static bool
 217:/Library/DaisyToolchain/0.2.0/arm/arm-none-eabi/include/c++/10.3.1/bits/std_function.h **** 	  _M_not_empty_function(_Tp* __fp)
 218:/Library/DaisyToolchain/0.2.0/arm/arm-none-eabi/include/c++/10.3.1/bits/std_function.h **** 	  { return __fp != nullptr; }
 219:/Library/DaisyToolchain/0.2.0/arm/arm-none-eabi/include/c++/10.3.1/bits/std_function.h **** 
 220:/Library/DaisyToolchain/0.2.0/arm/arm-none-eabi/include/c++/10.3.1/bits/std_function.h **** 	template<typename _Class, typename _Tp>
 221:/Library/DaisyToolchain/0.2.0/arm/arm-none-eabi/include/c++/10.3.1/bits/std_function.h **** 	  static bool
 222:/Library/DaisyToolchain/0.2.0/arm/arm-none-eabi/include/c++/10.3.1/bits/std_function.h **** 	  _M_not_empty_function(_Tp _Class::* __mp)
 223:/Library/DaisyToolchain/0.2.0/arm/arm-none-eabi/include/c++/10.3.1/bits/std_function.h **** 	  { return __mp != nullptr; }
 224:/Library/DaisyToolchain/0.2.0/arm/arm-none-eabi/include/c++/10.3.1/bits/std_function.h **** 
 225:/Library/DaisyToolchain/0.2.0/arm/arm-none-eabi/include/c++/10.3.1/bits/std_function.h **** 	template<typename _Tp>
 226:/Library/DaisyToolchain/0.2.0/arm/arm-none-eabi/include/c++/10.3.1/bits/std_function.h **** 	  static bool
 227:/Library/DaisyToolchain/0.2.0/arm/arm-none-eabi/include/c++/10.3.1/bits/std_function.h **** 	  _M_not_empty_function(const _Tp&)
 228:/Library/DaisyToolchain/0.2.0/arm/arm-none-eabi/include/c++/10.3.1/bits/std_function.h **** 	  { return true; }
 229:/Library/DaisyToolchain/0.2.0/arm/arm-none-eabi/include/c++/10.3.1/bits/std_function.h **** 
 230:/Library/DaisyToolchain/0.2.0/arm/arm-none-eabi/include/c++/10.3.1/bits/std_function.h ****       private:
 231:/Library/DaisyToolchain/0.2.0/arm/arm-none-eabi/include/c++/10.3.1/bits/std_function.h **** 	static void
 232:/Library/DaisyToolchain/0.2.0/arm/arm-none-eabi/include/c++/10.3.1/bits/std_function.h **** 	_M_init_functor(_Any_data& __functor, _Functor&& __f, true_type)
 233:/Library/DaisyToolchain/0.2.0/arm/arm-none-eabi/include/c++/10.3.1/bits/std_function.h **** 	{ ::new (__functor._M_access()) _Functor(std::move(__f)); }
 234:/Library/DaisyToolchain/0.2.0/arm/arm-none-eabi/include/c++/10.3.1/bits/std_function.h **** 
 235:/Library/DaisyToolchain/0.2.0/arm/arm-none-eabi/include/c++/10.3.1/bits/std_function.h **** 	static void
 236:/Library/DaisyToolchain/0.2.0/arm/arm-none-eabi/include/c++/10.3.1/bits/std_function.h **** 	_M_init_functor(_Any_data& __functor, _Functor&& __f, false_type)
 237:/Library/DaisyToolchain/0.2.0/arm/arm-none-eabi/include/c++/10.3.1/bits/std_function.h **** 	{ __functor._M_access<_Functor*>() = new _Functor(std::move(__f)); }
 238:/Library/DaisyToolchain/0.2.0/arm/arm-none-eabi/include/c++/10.3.1/bits/std_function.h ****       };
 239:/Library/DaisyToolchain/0.2.0/arm/arm-none-eabi/include/c++/10.3.1/bits/std_function.h **** 
 240:/Library/DaisyToolchain/0.2.0/arm/arm-none-eabi/include/c++/10.3.1/bits/std_function.h ****     _Function_base() : _M_manager(nullptr) { }
 241:/Library/DaisyToolchain/0.2.0/arm/arm-none-eabi/include/c++/10.3.1/bits/std_function.h **** 
 242:/Library/DaisyToolchain/0.2.0/arm/arm-none-eabi/include/c++/10.3.1/bits/std_function.h ****     ~_Function_base()
 243:/Library/DaisyToolchain/0.2.0/arm/arm-none-eabi/include/c++/10.3.1/bits/std_function.h ****     {
 244:/Library/DaisyToolchain/0.2.0/arm/arm-none-eabi/include/c++/10.3.1/bits/std_function.h ****       if (_M_manager)
 245:/Library/DaisyToolchain/0.2.0/arm/arm-none-eabi/include/c++/10.3.1/bits/std_function.h **** 	_M_manager(_M_functor, _M_functor, __destroy_functor);
 246:/Library/DaisyToolchain/0.2.0/arm/arm-none-eabi/include/c++/10.3.1/bits/std_function.h ****     }
 247:/Library/DaisyToolchain/0.2.0/arm/arm-none-eabi/include/c++/10.3.1/bits/std_function.h **** 
 248:/Library/DaisyToolchain/0.2.0/arm/arm-none-eabi/include/c++/10.3.1/bits/std_function.h ****     bool _M_empty() const { return !_M_manager; }
 249:/Library/DaisyToolchain/0.2.0/arm/arm-none-eabi/include/c++/10.3.1/bits/std_function.h **** 
 250:/Library/DaisyToolchain/0.2.0/arm/arm-none-eabi/include/c++/10.3.1/bits/std_function.h ****     typedef bool (*_Manager_type)(_Any_data&, const _Any_data&,
 251:/Library/DaisyToolchain/0.2.0/arm/arm-none-eabi/include/c++/10.3.1/bits/std_function.h **** 				  _Manager_operation);
 252:/Library/DaisyToolchain/0.2.0/arm/arm-none-eabi/include/c++/10.3.1/bits/std_function.h **** 
 253:/Library/DaisyToolchain/0.2.0/arm/arm-none-eabi/include/c++/10.3.1/bits/std_function.h ****     _Any_data     _M_functor;
 254:/Library/DaisyToolchain/0.2.0/arm/arm-none-eabi/include/c++/10.3.1/bits/std_function.h ****     _Manager_type _M_manager;
 255:/Library/DaisyToolchain/0.2.0/arm/arm-none-eabi/include/c++/10.3.1/bits/std_function.h ****   };
 256:/Library/DaisyToolchain/0.2.0/arm/arm-none-eabi/include/c++/10.3.1/bits/std_function.h **** 
 257:/Library/DaisyToolchain/0.2.0/arm/arm-none-eabi/include/c++/10.3.1/bits/std_function.h ****   template<typename _Signature, typename _Functor>
 258:/Library/DaisyToolchain/0.2.0/arm/arm-none-eabi/include/c++/10.3.1/bits/std_function.h ****     class _Function_handler;
ARM GAS  /var/folders/wz/z09yph4n0qj4t7mjxhl6ttn80000gn/T//ccPO7ASC.s 			page 6


 259:/Library/DaisyToolchain/0.2.0/arm/arm-none-eabi/include/c++/10.3.1/bits/std_function.h **** 
 260:/Library/DaisyToolchain/0.2.0/arm/arm-none-eabi/include/c++/10.3.1/bits/std_function.h ****   template<typename _Res, typename _Functor, typename... _ArgTypes>
 261:/Library/DaisyToolchain/0.2.0/arm/arm-none-eabi/include/c++/10.3.1/bits/std_function.h ****     class _Function_handler<_Res(_ArgTypes...), _Functor>
 262:/Library/DaisyToolchain/0.2.0/arm/arm-none-eabi/include/c++/10.3.1/bits/std_function.h ****     : public _Function_base::_Base_manager<_Functor>
 263:/Library/DaisyToolchain/0.2.0/arm/arm-none-eabi/include/c++/10.3.1/bits/std_function.h ****     {
 264:/Library/DaisyToolchain/0.2.0/arm/arm-none-eabi/include/c++/10.3.1/bits/std_function.h ****       typedef _Function_base::_Base_manager<_Functor> _Base;
 265:/Library/DaisyToolchain/0.2.0/arm/arm-none-eabi/include/c++/10.3.1/bits/std_function.h **** 
 266:/Library/DaisyToolchain/0.2.0/arm/arm-none-eabi/include/c++/10.3.1/bits/std_function.h ****     public:
 267:/Library/DaisyToolchain/0.2.0/arm/arm-none-eabi/include/c++/10.3.1/bits/std_function.h ****       static bool
 268:/Library/DaisyToolchain/0.2.0/arm/arm-none-eabi/include/c++/10.3.1/bits/std_function.h ****       _M_manager(_Any_data& __dest, const _Any_data& __source,
 269:/Library/DaisyToolchain/0.2.0/arm/arm-none-eabi/include/c++/10.3.1/bits/std_function.h **** 		 _Manager_operation __op)
 270:/Library/DaisyToolchain/0.2.0/arm/arm-none-eabi/include/c++/10.3.1/bits/std_function.h ****       {
 271:/Library/DaisyToolchain/0.2.0/arm/arm-none-eabi/include/c++/10.3.1/bits/std_function.h **** 	switch (__op)
 272:/Library/DaisyToolchain/0.2.0/arm/arm-none-eabi/include/c++/10.3.1/bits/std_function.h **** 	  {
 273:/Library/DaisyToolchain/0.2.0/arm/arm-none-eabi/include/c++/10.3.1/bits/std_function.h **** #if __cpp_rtti
 274:/Library/DaisyToolchain/0.2.0/arm/arm-none-eabi/include/c++/10.3.1/bits/std_function.h **** 	  case __get_type_info:
 275:/Library/DaisyToolchain/0.2.0/arm/arm-none-eabi/include/c++/10.3.1/bits/std_function.h **** 	    __dest._M_access<const type_info*>() = &typeid(_Functor);
 276:/Library/DaisyToolchain/0.2.0/arm/arm-none-eabi/include/c++/10.3.1/bits/std_function.h **** 	    break;
 277:/Library/DaisyToolchain/0.2.0/arm/arm-none-eabi/include/c++/10.3.1/bits/std_function.h **** #endif
 278:/Library/DaisyToolchain/0.2.0/arm/arm-none-eabi/include/c++/10.3.1/bits/std_function.h **** 	  case __get_functor_ptr:
 279:/Library/DaisyToolchain/0.2.0/arm/arm-none-eabi/include/c++/10.3.1/bits/std_function.h **** 	    __dest._M_access<_Functor*>() = _Base::_M_get_pointer(__source);
 280:/Library/DaisyToolchain/0.2.0/arm/arm-none-eabi/include/c++/10.3.1/bits/std_function.h **** 	    break;
 281:/Library/DaisyToolchain/0.2.0/arm/arm-none-eabi/include/c++/10.3.1/bits/std_function.h **** 
 282:/Library/DaisyToolchain/0.2.0/arm/arm-none-eabi/include/c++/10.3.1/bits/std_function.h **** 	  default:
 283:/Library/DaisyToolchain/0.2.0/arm/arm-none-eabi/include/c++/10.3.1/bits/std_function.h **** 	    _Base::_M_manager(__dest, __source, __op);
 284:/Library/DaisyToolchain/0.2.0/arm/arm-none-eabi/include/c++/10.3.1/bits/std_function.h **** 	  }
 285:/Library/DaisyToolchain/0.2.0/arm/arm-none-eabi/include/c++/10.3.1/bits/std_function.h **** 	return false;
 286:/Library/DaisyToolchain/0.2.0/arm/arm-none-eabi/include/c++/10.3.1/bits/std_function.h ****       }
 287:/Library/DaisyToolchain/0.2.0/arm/arm-none-eabi/include/c++/10.3.1/bits/std_function.h **** 
 288:/Library/DaisyToolchain/0.2.0/arm/arm-none-eabi/include/c++/10.3.1/bits/std_function.h ****       static _Res
 289:/Library/DaisyToolchain/0.2.0/arm/arm-none-eabi/include/c++/10.3.1/bits/std_function.h ****       _M_invoke(const _Any_data& __functor, _ArgTypes&&... __args)
  29              		.loc 1 289 7 view -0
  30              		.cfi_startproc
  31              		@ args = 0, pretend = 0, frame = 0
  32              		@ frame_needed = 0, uses_anonymous_args = 0
  33              		@ link register save eliminated.
  88:/Library/DaisyToolchain/0.2.0/arm/arm-none-eabi/include/c++/10.3.1/bits/std_function.h **** 
  34              		.loc 1 88 37 view .LVU1
  35              	.LBB765:
  36              	.LBI765:
  37              		.file 2 "/Library/DaisyToolchain/0.2.0/arm/arm-none-eabi/include/c++/10.3.1/bits/invoke.h"
   1:/Library/DaisyToolchain/0.2.0/arm/arm-none-eabi/include/c++/10.3.1/bits/invoke.h **** // Implementation of INVOKE -*- C++ -*-
   2:/Library/DaisyToolchain/0.2.0/arm/arm-none-eabi/include/c++/10.3.1/bits/invoke.h **** 
   3:/Library/DaisyToolchain/0.2.0/arm/arm-none-eabi/include/c++/10.3.1/bits/invoke.h **** // Copyright (C) 2016-2020 Free Software Foundation, Inc.
   4:/Library/DaisyToolchain/0.2.0/arm/arm-none-eabi/include/c++/10.3.1/bits/invoke.h **** //
   5:/Library/DaisyToolchain/0.2.0/arm/arm-none-eabi/include/c++/10.3.1/bits/invoke.h **** // This file is part of the GNU ISO C++ Library.  This library is free
   6:/Library/DaisyToolchain/0.2.0/arm/arm-none-eabi/include/c++/10.3.1/bits/invoke.h **** // software; you can redistribute it and/or modify it under the
   7:/Library/DaisyToolchain/0.2.0/arm/arm-none-eabi/include/c++/10.3.1/bits/invoke.h **** // terms of the GNU General Public License as published by the
   8:/Library/DaisyToolchain/0.2.0/arm/arm-none-eabi/include/c++/10.3.1/bits/invoke.h **** // Free Software Foundation; either version 3, or (at your option)
   9:/Library/DaisyToolchain/0.2.0/arm/arm-none-eabi/include/c++/10.3.1/bits/invoke.h **** // any later version.
  10:/Library/DaisyToolchain/0.2.0/arm/arm-none-eabi/include/c++/10.3.1/bits/invoke.h **** 
  11:/Library/DaisyToolchain/0.2.0/arm/arm-none-eabi/include/c++/10.3.1/bits/invoke.h **** // This library is distributed in the hope that it will be useful,
  12:/Library/DaisyToolchain/0.2.0/arm/arm-none-eabi/include/c++/10.3.1/bits/invoke.h **** // but WITHOUT ANY WARRANTY; without even the implied warranty of
  13:/Library/DaisyToolchain/0.2.0/arm/arm-none-eabi/include/c++/10.3.1/bits/invoke.h **** // MERCHANTABILITY or FITNESS FOR A PARTICULAR PURPOSE.  See the
  14:/Library/DaisyToolchain/0.2.0/arm/arm-none-eabi/include/c++/10.3.1/bits/invoke.h **** // GNU General Public License for more details.
  15:/Library/DaisyToolchain/0.2.0/arm/arm-none-eabi/include/c++/10.3.1/bits/invoke.h **** 
  16:/Library/DaisyToolchain/0.2.0/arm/arm-none-eabi/include/c++/10.3.1/bits/invoke.h **** // Under Section 7 of GPL version 3, you are granted additional
ARM GAS  /var/folders/wz/z09yph4n0qj4t7mjxhl6ttn80000gn/T//ccPO7ASC.s 			page 7


  17:/Library/DaisyToolchain/0.2.0/arm/arm-none-eabi/include/c++/10.3.1/bits/invoke.h **** // permissions described in the GCC Runtime Library Exception, version
  18:/Library/DaisyToolchain/0.2.0/arm/arm-none-eabi/include/c++/10.3.1/bits/invoke.h **** // 3.1, as published by the Free Software Foundation.
  19:/Library/DaisyToolchain/0.2.0/arm/arm-none-eabi/include/c++/10.3.1/bits/invoke.h **** 
  20:/Library/DaisyToolchain/0.2.0/arm/arm-none-eabi/include/c++/10.3.1/bits/invoke.h **** // You should have received a copy of the GNU General Public License and
  21:/Library/DaisyToolchain/0.2.0/arm/arm-none-eabi/include/c++/10.3.1/bits/invoke.h **** // a copy of the GCC Runtime Library Exception along with this program;
  22:/Library/DaisyToolchain/0.2.0/arm/arm-none-eabi/include/c++/10.3.1/bits/invoke.h **** // see the files COPYING3 and COPYING.RUNTIME respectively.  If not, see
  23:/Library/DaisyToolchain/0.2.0/arm/arm-none-eabi/include/c++/10.3.1/bits/invoke.h **** // <http://www.gnu.org/licenses/>.
  24:/Library/DaisyToolchain/0.2.0/arm/arm-none-eabi/include/c++/10.3.1/bits/invoke.h **** 
  25:/Library/DaisyToolchain/0.2.0/arm/arm-none-eabi/include/c++/10.3.1/bits/invoke.h **** /** @file include/bits/invoke.h
  26:/Library/DaisyToolchain/0.2.0/arm/arm-none-eabi/include/c++/10.3.1/bits/invoke.h ****  *  This is an internal header file, included by other library headers.
  27:/Library/DaisyToolchain/0.2.0/arm/arm-none-eabi/include/c++/10.3.1/bits/invoke.h ****  *  Do not attempt to use it directly. @headername{functional}
  28:/Library/DaisyToolchain/0.2.0/arm/arm-none-eabi/include/c++/10.3.1/bits/invoke.h ****  */
  29:/Library/DaisyToolchain/0.2.0/arm/arm-none-eabi/include/c++/10.3.1/bits/invoke.h **** 
  30:/Library/DaisyToolchain/0.2.0/arm/arm-none-eabi/include/c++/10.3.1/bits/invoke.h **** #ifndef _GLIBCXX_INVOKE_H
  31:/Library/DaisyToolchain/0.2.0/arm/arm-none-eabi/include/c++/10.3.1/bits/invoke.h **** #define _GLIBCXX_INVOKE_H 1
  32:/Library/DaisyToolchain/0.2.0/arm/arm-none-eabi/include/c++/10.3.1/bits/invoke.h **** 
  33:/Library/DaisyToolchain/0.2.0/arm/arm-none-eabi/include/c++/10.3.1/bits/invoke.h **** #pragma GCC system_header
  34:/Library/DaisyToolchain/0.2.0/arm/arm-none-eabi/include/c++/10.3.1/bits/invoke.h **** 
  35:/Library/DaisyToolchain/0.2.0/arm/arm-none-eabi/include/c++/10.3.1/bits/invoke.h **** #if __cplusplus < 201103L
  36:/Library/DaisyToolchain/0.2.0/arm/arm-none-eabi/include/c++/10.3.1/bits/invoke.h **** # include <bits/c++0x_warning.h>
  37:/Library/DaisyToolchain/0.2.0/arm/arm-none-eabi/include/c++/10.3.1/bits/invoke.h **** #else
  38:/Library/DaisyToolchain/0.2.0/arm/arm-none-eabi/include/c++/10.3.1/bits/invoke.h **** 
  39:/Library/DaisyToolchain/0.2.0/arm/arm-none-eabi/include/c++/10.3.1/bits/invoke.h **** #include <type_traits>
  40:/Library/DaisyToolchain/0.2.0/arm/arm-none-eabi/include/c++/10.3.1/bits/invoke.h **** 
  41:/Library/DaisyToolchain/0.2.0/arm/arm-none-eabi/include/c++/10.3.1/bits/invoke.h **** namespace std _GLIBCXX_VISIBILITY(default)
  42:/Library/DaisyToolchain/0.2.0/arm/arm-none-eabi/include/c++/10.3.1/bits/invoke.h **** {
  43:/Library/DaisyToolchain/0.2.0/arm/arm-none-eabi/include/c++/10.3.1/bits/invoke.h **** _GLIBCXX_BEGIN_NAMESPACE_VERSION
  44:/Library/DaisyToolchain/0.2.0/arm/arm-none-eabi/include/c++/10.3.1/bits/invoke.h **** 
  45:/Library/DaisyToolchain/0.2.0/arm/arm-none-eabi/include/c++/10.3.1/bits/invoke.h ****   /**
  46:/Library/DaisyToolchain/0.2.0/arm/arm-none-eabi/include/c++/10.3.1/bits/invoke.h ****    *  @addtogroup utilities
  47:/Library/DaisyToolchain/0.2.0/arm/arm-none-eabi/include/c++/10.3.1/bits/invoke.h ****    *  @{
  48:/Library/DaisyToolchain/0.2.0/arm/arm-none-eabi/include/c++/10.3.1/bits/invoke.h ****    */
  49:/Library/DaisyToolchain/0.2.0/arm/arm-none-eabi/include/c++/10.3.1/bits/invoke.h **** 
  50:/Library/DaisyToolchain/0.2.0/arm/arm-none-eabi/include/c++/10.3.1/bits/invoke.h ****   // Used by __invoke_impl instead of std::forward<_Tp> so that a
  51:/Library/DaisyToolchain/0.2.0/arm/arm-none-eabi/include/c++/10.3.1/bits/invoke.h ****   // reference_wrapper is converted to an lvalue-reference.
  52:/Library/DaisyToolchain/0.2.0/arm/arm-none-eabi/include/c++/10.3.1/bits/invoke.h ****   template<typename _Tp, typename _Up = typename __inv_unwrap<_Tp>::type>
  53:/Library/DaisyToolchain/0.2.0/arm/arm-none-eabi/include/c++/10.3.1/bits/invoke.h ****     constexpr _Up&&
  54:/Library/DaisyToolchain/0.2.0/arm/arm-none-eabi/include/c++/10.3.1/bits/invoke.h ****     __invfwd(typename remove_reference<_Tp>::type& __t) noexcept
  55:/Library/DaisyToolchain/0.2.0/arm/arm-none-eabi/include/c++/10.3.1/bits/invoke.h ****     { return static_cast<_Up&&>(__t); }
  56:/Library/DaisyToolchain/0.2.0/arm/arm-none-eabi/include/c++/10.3.1/bits/invoke.h **** 
  57:/Library/DaisyToolchain/0.2.0/arm/arm-none-eabi/include/c++/10.3.1/bits/invoke.h ****   template<typename _Res, typename _Fn, typename... _Args>
  58:/Library/DaisyToolchain/0.2.0/arm/arm-none-eabi/include/c++/10.3.1/bits/invoke.h ****     constexpr _Res
  59:/Library/DaisyToolchain/0.2.0/arm/arm-none-eabi/include/c++/10.3.1/bits/invoke.h ****     __invoke_impl(__invoke_other, _Fn&& __f, _Args&&... __args)
  60:/Library/DaisyToolchain/0.2.0/arm/arm-none-eabi/include/c++/10.3.1/bits/invoke.h ****     { return std::forward<_Fn>(__f)(std::forward<_Args>(__args)...); }
  61:/Library/DaisyToolchain/0.2.0/arm/arm-none-eabi/include/c++/10.3.1/bits/invoke.h **** 
  62:/Library/DaisyToolchain/0.2.0/arm/arm-none-eabi/include/c++/10.3.1/bits/invoke.h ****   template<typename _Res, typename _MemFun, typename _Tp, typename... _Args>
  63:/Library/DaisyToolchain/0.2.0/arm/arm-none-eabi/include/c++/10.3.1/bits/invoke.h ****     constexpr _Res
  64:/Library/DaisyToolchain/0.2.0/arm/arm-none-eabi/include/c++/10.3.1/bits/invoke.h ****     __invoke_impl(__invoke_memfun_ref, _MemFun&& __f, _Tp&& __t,
  65:/Library/DaisyToolchain/0.2.0/arm/arm-none-eabi/include/c++/10.3.1/bits/invoke.h **** 		  _Args&&... __args)
  66:/Library/DaisyToolchain/0.2.0/arm/arm-none-eabi/include/c++/10.3.1/bits/invoke.h ****     { return (__invfwd<_Tp>(__t).*__f)(std::forward<_Args>(__args)...); }
  67:/Library/DaisyToolchain/0.2.0/arm/arm-none-eabi/include/c++/10.3.1/bits/invoke.h **** 
  68:/Library/DaisyToolchain/0.2.0/arm/arm-none-eabi/include/c++/10.3.1/bits/invoke.h ****   template<typename _Res, typename _MemFun, typename _Tp, typename... _Args>
  69:/Library/DaisyToolchain/0.2.0/arm/arm-none-eabi/include/c++/10.3.1/bits/invoke.h ****     constexpr _Res
  70:/Library/DaisyToolchain/0.2.0/arm/arm-none-eabi/include/c++/10.3.1/bits/invoke.h ****     __invoke_impl(__invoke_memfun_deref, _MemFun&& __f, _Tp&& __t,
  71:/Library/DaisyToolchain/0.2.0/arm/arm-none-eabi/include/c++/10.3.1/bits/invoke.h **** 		  _Args&&... __args)
  72:/Library/DaisyToolchain/0.2.0/arm/arm-none-eabi/include/c++/10.3.1/bits/invoke.h ****     {
  73:/Library/DaisyToolchain/0.2.0/arm/arm-none-eabi/include/c++/10.3.1/bits/invoke.h ****       return ((*std::forward<_Tp>(__t)).*__f)(std::forward<_Args>(__args)...);
ARM GAS  /var/folders/wz/z09yph4n0qj4t7mjxhl6ttn80000gn/T//ccPO7ASC.s 			page 8


  74:/Library/DaisyToolchain/0.2.0/arm/arm-none-eabi/include/c++/10.3.1/bits/invoke.h ****     }
  75:/Library/DaisyToolchain/0.2.0/arm/arm-none-eabi/include/c++/10.3.1/bits/invoke.h **** 
  76:/Library/DaisyToolchain/0.2.0/arm/arm-none-eabi/include/c++/10.3.1/bits/invoke.h ****   template<typename _Res, typename _MemPtr, typename _Tp>
  77:/Library/DaisyToolchain/0.2.0/arm/arm-none-eabi/include/c++/10.3.1/bits/invoke.h ****     constexpr _Res
  78:/Library/DaisyToolchain/0.2.0/arm/arm-none-eabi/include/c++/10.3.1/bits/invoke.h ****     __invoke_impl(__invoke_memobj_ref, _MemPtr&& __f, _Tp&& __t)
  79:/Library/DaisyToolchain/0.2.0/arm/arm-none-eabi/include/c++/10.3.1/bits/invoke.h ****     { return __invfwd<_Tp>(__t).*__f; }
  80:/Library/DaisyToolchain/0.2.0/arm/arm-none-eabi/include/c++/10.3.1/bits/invoke.h **** 
  81:/Library/DaisyToolchain/0.2.0/arm/arm-none-eabi/include/c++/10.3.1/bits/invoke.h ****   template<typename _Res, typename _MemPtr, typename _Tp>
  82:/Library/DaisyToolchain/0.2.0/arm/arm-none-eabi/include/c++/10.3.1/bits/invoke.h ****     constexpr _Res
  83:/Library/DaisyToolchain/0.2.0/arm/arm-none-eabi/include/c++/10.3.1/bits/invoke.h ****     __invoke_impl(__invoke_memobj_deref, _MemPtr&& __f, _Tp&& __t)
  84:/Library/DaisyToolchain/0.2.0/arm/arm-none-eabi/include/c++/10.3.1/bits/invoke.h ****     { return (*std::forward<_Tp>(__t)).*__f; }
  85:/Library/DaisyToolchain/0.2.0/arm/arm-none-eabi/include/c++/10.3.1/bits/invoke.h **** 
  86:/Library/DaisyToolchain/0.2.0/arm/arm-none-eabi/include/c++/10.3.1/bits/invoke.h ****   /// Invoke a callable object.
  87:/Library/DaisyToolchain/0.2.0/arm/arm-none-eabi/include/c++/10.3.1/bits/invoke.h ****   template<typename _Callable, typename... _Args>
  88:/Library/DaisyToolchain/0.2.0/arm/arm-none-eabi/include/c++/10.3.1/bits/invoke.h ****     constexpr typename __invoke_result<_Callable, _Args...>::type
  89:/Library/DaisyToolchain/0.2.0/arm/arm-none-eabi/include/c++/10.3.1/bits/invoke.h ****     __invoke(_Callable&& __fn, _Args&&... __args)
  90:/Library/DaisyToolchain/0.2.0/arm/arm-none-eabi/include/c++/10.3.1/bits/invoke.h ****     noexcept(__is_nothrow_invocable<_Callable, _Args...>::value)
  91:/Library/DaisyToolchain/0.2.0/arm/arm-none-eabi/include/c++/10.3.1/bits/invoke.h ****     {
  92:/Library/DaisyToolchain/0.2.0/arm/arm-none-eabi/include/c++/10.3.1/bits/invoke.h ****       using __result = __invoke_result<_Callable, _Args...>;
  93:/Library/DaisyToolchain/0.2.0/arm/arm-none-eabi/include/c++/10.3.1/bits/invoke.h ****       using __type = typename __result::type;
  94:/Library/DaisyToolchain/0.2.0/arm/arm-none-eabi/include/c++/10.3.1/bits/invoke.h ****       using __tag = typename __result::__invoke_type;
  95:/Library/DaisyToolchain/0.2.0/arm/arm-none-eabi/include/c++/10.3.1/bits/invoke.h ****       return std::__invoke_impl<__type>(__tag{}, std::forward<_Callable>(__fn),
  96:/Library/DaisyToolchain/0.2.0/arm/arm-none-eabi/include/c++/10.3.1/bits/invoke.h **** 					std::forward<_Args>(__args)...);
  97:/Library/DaisyToolchain/0.2.0/arm/arm-none-eabi/include/c++/10.3.1/bits/invoke.h ****     }
  98:/Library/DaisyToolchain/0.2.0/arm/arm-none-eabi/include/c++/10.3.1/bits/invoke.h **** 
  99:/Library/DaisyToolchain/0.2.0/arm/arm-none-eabi/include/c++/10.3.1/bits/invoke.h **** #if __cplusplus >= 201703L
 100:/Library/DaisyToolchain/0.2.0/arm/arm-none-eabi/include/c++/10.3.1/bits/invoke.h ****   // INVOKE<R>: Invoke a callable object and convert the result to R.
 101:/Library/DaisyToolchain/0.2.0/arm/arm-none-eabi/include/c++/10.3.1/bits/invoke.h ****   template<typename _Res, typename _Callable, typename... _Args>
 102:/Library/DaisyToolchain/0.2.0/arm/arm-none-eabi/include/c++/10.3.1/bits/invoke.h ****     constexpr enable_if_t<is_invocable_r_v<_Res, _Callable, _Args...>, _Res>
 103:/Library/DaisyToolchain/0.2.0/arm/arm-none-eabi/include/c++/10.3.1/bits/invoke.h ****     __invoke_r(_Callable&& __fn, _Args&&... __args)
 104:/Library/DaisyToolchain/0.2.0/arm/arm-none-eabi/include/c++/10.3.1/bits/invoke.h ****     noexcept(is_nothrow_invocable_r_v<_Res, _Callable, _Args...>)
 105:/Library/DaisyToolchain/0.2.0/arm/arm-none-eabi/include/c++/10.3.1/bits/invoke.h ****     {
 106:/Library/DaisyToolchain/0.2.0/arm/arm-none-eabi/include/c++/10.3.1/bits/invoke.h ****       using __result = __invoke_result<_Callable, _Args...>;
 107:/Library/DaisyToolchain/0.2.0/arm/arm-none-eabi/include/c++/10.3.1/bits/invoke.h ****       using __type = typename __result::type;
 108:/Library/DaisyToolchain/0.2.0/arm/arm-none-eabi/include/c++/10.3.1/bits/invoke.h ****       using __tag = typename __result::__invoke_type;
 109:/Library/DaisyToolchain/0.2.0/arm/arm-none-eabi/include/c++/10.3.1/bits/invoke.h ****       if constexpr (is_void_v<_Res>)
 110:/Library/DaisyToolchain/0.2.0/arm/arm-none-eabi/include/c++/10.3.1/bits/invoke.h **** 	std::__invoke_impl<__type>(__tag{}, std::forward<_Callable>(__fn),
 111:/Library/DaisyToolchain/0.2.0/arm/arm-none-eabi/include/c++/10.3.1/bits/invoke.h **** 					std::forward<_Args>(__args)...);
 112:/Library/DaisyToolchain/0.2.0/arm/arm-none-eabi/include/c++/10.3.1/bits/invoke.h ****       else
 113:/Library/DaisyToolchain/0.2.0/arm/arm-none-eabi/include/c++/10.3.1/bits/invoke.h **** 	return std::__invoke_impl<__type>(__tag{},
 114:/Library/DaisyToolchain/0.2.0/arm/arm-none-eabi/include/c++/10.3.1/bits/invoke.h **** 					  std::forward<_Callable>(__fn),
 115:/Library/DaisyToolchain/0.2.0/arm/arm-none-eabi/include/c++/10.3.1/bits/invoke.h **** 					  std::forward<_Args>(__args)...);
 116:/Library/DaisyToolchain/0.2.0/arm/arm-none-eabi/include/c++/10.3.1/bits/invoke.h ****     }
 117:/Library/DaisyToolchain/0.2.0/arm/arm-none-eabi/include/c++/10.3.1/bits/invoke.h **** #else // C++11
 118:/Library/DaisyToolchain/0.2.0/arm/arm-none-eabi/include/c++/10.3.1/bits/invoke.h ****   template<typename _Res, typename _Callable, typename... _Args>
 119:/Library/DaisyToolchain/0.2.0/arm/arm-none-eabi/include/c++/10.3.1/bits/invoke.h ****     using __can_invoke_as_void = __enable_if_t<
 120:/Library/DaisyToolchain/0.2.0/arm/arm-none-eabi/include/c++/10.3.1/bits/invoke.h ****       __and_<is_void<_Res>, __is_invocable<_Callable, _Args...>>::value,
 121:/Library/DaisyToolchain/0.2.0/arm/arm-none-eabi/include/c++/10.3.1/bits/invoke.h ****       _Res
 122:/Library/DaisyToolchain/0.2.0/arm/arm-none-eabi/include/c++/10.3.1/bits/invoke.h ****     >;
 123:/Library/DaisyToolchain/0.2.0/arm/arm-none-eabi/include/c++/10.3.1/bits/invoke.h **** 
 124:/Library/DaisyToolchain/0.2.0/arm/arm-none-eabi/include/c++/10.3.1/bits/invoke.h ****   template<typename _Res, typename _Callable, typename... _Args>
 125:/Library/DaisyToolchain/0.2.0/arm/arm-none-eabi/include/c++/10.3.1/bits/invoke.h ****     using __can_invoke_as_nonvoid = __enable_if_t<
 126:/Library/DaisyToolchain/0.2.0/arm/arm-none-eabi/include/c++/10.3.1/bits/invoke.h ****       __and_<__not_<is_void<_Res>>,
 127:/Library/DaisyToolchain/0.2.0/arm/arm-none-eabi/include/c++/10.3.1/bits/invoke.h **** 	     is_convertible<typename __invoke_result<_Callable, _Args...>::type,
 128:/Library/DaisyToolchain/0.2.0/arm/arm-none-eabi/include/c++/10.3.1/bits/invoke.h **** 			    _Res>
 129:/Library/DaisyToolchain/0.2.0/arm/arm-none-eabi/include/c++/10.3.1/bits/invoke.h ****       >::value,
 130:/Library/DaisyToolchain/0.2.0/arm/arm-none-eabi/include/c++/10.3.1/bits/invoke.h ****       _Res
ARM GAS  /var/folders/wz/z09yph4n0qj4t7mjxhl6ttn80000gn/T//ccPO7ASC.s 			page 9


 131:/Library/DaisyToolchain/0.2.0/arm/arm-none-eabi/include/c++/10.3.1/bits/invoke.h ****     >;
 132:/Library/DaisyToolchain/0.2.0/arm/arm-none-eabi/include/c++/10.3.1/bits/invoke.h **** 
 133:/Library/DaisyToolchain/0.2.0/arm/arm-none-eabi/include/c++/10.3.1/bits/invoke.h ****   // INVOKE<R>: Invoke a callable object and convert the result to R.
 134:/Library/DaisyToolchain/0.2.0/arm/arm-none-eabi/include/c++/10.3.1/bits/invoke.h ****   template<typename _Res, typename _Callable, typename... _Args>
 135:/Library/DaisyToolchain/0.2.0/arm/arm-none-eabi/include/c++/10.3.1/bits/invoke.h ****     constexpr __can_invoke_as_nonvoid<_Res, _Callable, _Args...>
 136:/Library/DaisyToolchain/0.2.0/arm/arm-none-eabi/include/c++/10.3.1/bits/invoke.h ****     __invoke_r(_Callable&& __fn, _Args&&... __args)
 137:/Library/DaisyToolchain/0.2.0/arm/arm-none-eabi/include/c++/10.3.1/bits/invoke.h ****     {
 138:/Library/DaisyToolchain/0.2.0/arm/arm-none-eabi/include/c++/10.3.1/bits/invoke.h ****       using __result = __invoke_result<_Callable, _Args...>;
 139:/Library/DaisyToolchain/0.2.0/arm/arm-none-eabi/include/c++/10.3.1/bits/invoke.h ****       using __type = typename __result::type;
 140:/Library/DaisyToolchain/0.2.0/arm/arm-none-eabi/include/c++/10.3.1/bits/invoke.h ****       using __tag = typename __result::__invoke_type;
 141:/Library/DaisyToolchain/0.2.0/arm/arm-none-eabi/include/c++/10.3.1/bits/invoke.h ****       return std::__invoke_impl<__type>(__tag{}, std::forward<_Callable>(__fn),
 142:/Library/DaisyToolchain/0.2.0/arm/arm-none-eabi/include/c++/10.3.1/bits/invoke.h **** 					std::forward<_Args>(__args)...);
 143:/Library/DaisyToolchain/0.2.0/arm/arm-none-eabi/include/c++/10.3.1/bits/invoke.h ****     }
 144:/Library/DaisyToolchain/0.2.0/arm/arm-none-eabi/include/c++/10.3.1/bits/invoke.h **** 
 145:/Library/DaisyToolchain/0.2.0/arm/arm-none-eabi/include/c++/10.3.1/bits/invoke.h ****   // INVOKE<R> when R is cv void
 146:/Library/DaisyToolchain/0.2.0/arm/arm-none-eabi/include/c++/10.3.1/bits/invoke.h ****   template<typename _Res, typename _Callable, typename... _Args>
 147:/Library/DaisyToolchain/0.2.0/arm/arm-none-eabi/include/c++/10.3.1/bits/invoke.h ****     _GLIBCXX14_CONSTEXPR __can_invoke_as_void<_Res, _Callable, _Args...>
 148:/Library/DaisyToolchain/0.2.0/arm/arm-none-eabi/include/c++/10.3.1/bits/invoke.h ****     __invoke_r(_Callable&& __fn, _Args&&... __args)
  38              		.loc 2 148 5 view .LVU2
  39              	.LBB766:
  40              	.LBB767:
  41              	.LBI767:
  59:/Library/DaisyToolchain/0.2.0/arm/arm-none-eabi/include/c++/10.3.1/bits/invoke.h ****     { return std::forward<_Fn>(__f)(std::forward<_Args>(__args)...); }
  42              		.loc 2 59 5 view .LVU3
  43              	.LBB768:
  44              	.LBB769:
  45              	.LBB770:
  46              	.LBB771:
  47              	.LBB772:
  48              		.file 3 "../../../DaisySP//Source/Effects/pitchshifter.h"
   1:../../../DaisySP//Source/Effects/pitchshifter.h **** #pragma once
   2:../../../DaisySP//Source/Effects/pitchshifter.h **** #ifndef DSY_PITCHSHIFTER_H
   3:../../../DaisySP//Source/Effects/pitchshifter.h **** #define DSY_PITCHSHIFTER_H
   4:../../../DaisySP//Source/Effects/pitchshifter.h **** #include <stdint.h>
   5:../../../DaisySP//Source/Effects/pitchshifter.h **** #include <cmath>
   6:../../../DaisySP//Source/Effects/pitchshifter.h **** #ifdef USE_ARM_DSP
   7:../../../DaisySP//Source/Effects/pitchshifter.h **** #include "arm_math.h"
   8:../../../DaisySP//Source/Effects/pitchshifter.h **** #endif
   9:../../../DaisySP//Source/Effects/pitchshifter.h **** #include "Utility/dsp.h"
  10:../../../DaisySP//Source/Effects/pitchshifter.h **** #include "Utility/delayline.h"
  11:../../../DaisySP//Source/Effects/pitchshifter.h **** #include "Control/phasor.h"
  12:../../../DaisySP//Source/Effects/pitchshifter.h **** 
  13:../../../DaisySP//Source/Effects/pitchshifter.h **** /** Shift can be 30-100 ms lets just start with 50 for now.
  14:../../../DaisySP//Source/Effects/pitchshifter.h **** 0.050 * SR = 2400 samples (at 48kHz)
  15:../../../DaisySP//Source/Effects/pitchshifter.h **** */
  16:../../../DaisySP//Source/Effects/pitchshifter.h **** #define SHIFT_BUFFER_SIZE 16384
  17:../../../DaisySP//Source/Effects/pitchshifter.h **** //#define SHIFT_BUFFER_SIZE 4800
  18:../../../DaisySP//Source/Effects/pitchshifter.h **** //#define SHIFT_BUFFER_SIZE 8192
  19:../../../DaisySP//Source/Effects/pitchshifter.h **** //#define SHIFT_BUFFER_SIZE 1024
  20:../../../DaisySP//Source/Effects/pitchshifter.h **** 
  21:../../../DaisySP//Source/Effects/pitchshifter.h **** namespace daisysp
  22:../../../DaisySP//Source/Effects/pitchshifter.h **** {
  23:../../../DaisySP//Source/Effects/pitchshifter.h **** static inline uint32_t hash_xs32(uint32_t x)
  24:../../../DaisySP//Source/Effects/pitchshifter.h **** {
  25:../../../DaisySP//Source/Effects/pitchshifter.h ****     x ^= x << 13;
  26:../../../DaisySP//Source/Effects/pitchshifter.h ****     x ^= x >> 17;
  27:../../../DaisySP//Source/Effects/pitchshifter.h ****     x ^= x << 5;
ARM GAS  /var/folders/wz/z09yph4n0qj4t7mjxhl6ttn80000gn/T//ccPO7ASC.s 			page 10


  28:../../../DaisySP//Source/Effects/pitchshifter.h ****     return x;
  29:../../../DaisySP//Source/Effects/pitchshifter.h **** }
  30:../../../DaisySP//Source/Effects/pitchshifter.h **** 
  31:../../../DaisySP//Source/Effects/pitchshifter.h **** inline uint32_t myrand()
  32:../../../DaisySP//Source/Effects/pitchshifter.h **** {
  33:../../../DaisySP//Source/Effects/pitchshifter.h ****     static uint32_t seed = 1;
  34:../../../DaisySP//Source/Effects/pitchshifter.h ****     seed                 = hash_xs32(seed);
  35:../../../DaisySP//Source/Effects/pitchshifter.h ****     return seed;
  36:../../../DaisySP//Source/Effects/pitchshifter.h **** }
  37:../../../DaisySP//Source/Effects/pitchshifter.h **** 
  38:../../../DaisySP//Source/Effects/pitchshifter.h **** /**  time-domain pitchshifter
  39:../../../DaisySP//Source/Effects/pitchshifter.h **** 
  40:../../../DaisySP//Source/Effects/pitchshifter.h **** Author: shensley
  41:../../../DaisySP//Source/Effects/pitchshifter.h **** 
  42:../../../DaisySP//Source/Effects/pitchshifter.h **** Based on "Pitch Shifting" from ucsd.edu 
  43:../../../DaisySP//Source/Effects/pitchshifter.h **** 
  44:../../../DaisySP//Source/Effects/pitchshifter.h **** t = 1 - ((s *f) / R)
  45:../../../DaisySP//Source/Effects/pitchshifter.h **** 
  46:../../../DaisySP//Source/Effects/pitchshifter.h **** where:
  47:../../../DaisySP//Source/Effects/pitchshifter.h ****     s is the size of the delay
  48:../../../DaisySP//Source/Effects/pitchshifter.h ****     f is the frequency of the lfo
  49:../../../DaisySP//Source/Effects/pitchshifter.h ****     r is the sample_rate
  50:../../../DaisySP//Source/Effects/pitchshifter.h **** 
  51:../../../DaisySP//Source/Effects/pitchshifter.h **** solving for t = 12.0
  52:../../../DaisySP//Source/Effects/pitchshifter.h **** f = (12 - 1) * 48000 / SHIFT_BUFFER_SIZE;
  53:../../../DaisySP//Source/Effects/pitchshifter.h **** 
  54:../../../DaisySP//Source/Effects/pitchshifter.h **** \todo - move hash_xs32 and myrand to dsp.h and give appropriate names
  55:../../../DaisySP//Source/Effects/pitchshifter.h **** */
  56:../../../DaisySP//Source/Effects/pitchshifter.h **** class PitchShifter
  57:../../../DaisySP//Source/Effects/pitchshifter.h **** {
  58:../../../DaisySP//Source/Effects/pitchshifter.h ****   public:
  59:../../../DaisySP//Source/Effects/pitchshifter.h ****     PitchShifter() {}
  60:../../../DaisySP//Source/Effects/pitchshifter.h ****     ~PitchShifter() {}
  61:../../../DaisySP//Source/Effects/pitchshifter.h ****     /** Initialize pitch shifter
  62:../../../DaisySP//Source/Effects/pitchshifter.h ****     */
  63:../../../DaisySP//Source/Effects/pitchshifter.h ****     void Init(float sr)
  64:../../../DaisySP//Source/Effects/pitchshifter.h ****     {
  65:../../../DaisySP//Source/Effects/pitchshifter.h ****         force_recalc_ = false;
  66:../../../DaisySP//Source/Effects/pitchshifter.h ****         sr_           = sr;
  67:../../../DaisySP//Source/Effects/pitchshifter.h ****         mod_freq_     = 5.0f;
  68:../../../DaisySP//Source/Effects/pitchshifter.h ****         SetSemitones();
  69:../../../DaisySP//Source/Effects/pitchshifter.h ****         for(uint8_t i = 0; i < 2; i++)
  70:../../../DaisySP//Source/Effects/pitchshifter.h ****         {
  71:../../../DaisySP//Source/Effects/pitchshifter.h ****             gain_[i] = 0.0f;
  72:../../../DaisySP//Source/Effects/pitchshifter.h ****             d_[i].Init();
  73:../../../DaisySP//Source/Effects/pitchshifter.h ****             phs_[i].Init(sr, 50, i == 0 ? 0 : PI_F);
  74:../../../DaisySP//Source/Effects/pitchshifter.h ****         }
  75:../../../DaisySP//Source/Effects/pitchshifter.h ****         shift_up_ = true;
  76:../../../DaisySP//Source/Effects/pitchshifter.h ****         del_size_ = SHIFT_BUFFER_SIZE;
  77:../../../DaisySP//Source/Effects/pitchshifter.h ****         SetDelSize(del_size_);
  78:../../../DaisySP//Source/Effects/pitchshifter.h ****         fun_ = 0.0f;
  79:../../../DaisySP//Source/Effects/pitchshifter.h ****     }
  80:../../../DaisySP//Source/Effects/pitchshifter.h **** 
  81:../../../DaisySP//Source/Effects/pitchshifter.h ****     /** process pitch shifter
  82:../../../DaisySP//Source/Effects/pitchshifter.h ****     */
  83:../../../DaisySP//Source/Effects/pitchshifter.h ****     float Process(float &in)
  84:../../../DaisySP//Source/Effects/pitchshifter.h ****     {
ARM GAS  /var/folders/wz/z09yph4n0qj4t7mjxhl6ttn80000gn/T//ccPO7ASC.s 			page 11


  85:../../../DaisySP//Source/Effects/pitchshifter.h ****         float val, fade1, fade2;
  86:../../../DaisySP//Source/Effects/pitchshifter.h ****         // First Process delay mod/crossfade
  87:../../../DaisySP//Source/Effects/pitchshifter.h ****         fade1 = phs_[0].Process();
  88:../../../DaisySP//Source/Effects/pitchshifter.h ****         fade2 = phs_[1].Process();
  89:../../../DaisySP//Source/Effects/pitchshifter.h ****         if(prev_phs_a_ > fade1)
  90:../../../DaisySP//Source/Effects/pitchshifter.h ****         {
  91:../../../DaisySP//Source/Effects/pitchshifter.h ****             mod_a_amt_ = fun_ * ((float)(myrand() % 255) / 255.0f)
  92:../../../DaisySP//Source/Effects/pitchshifter.h ****                          * (del_size_ * 0.5f);
  93:../../../DaisySP//Source/Effects/pitchshifter.h ****             mod_coeff_[0]
  94:../../../DaisySP//Source/Effects/pitchshifter.h ****                 = 0.0002f + (((float)(myrand() % 255) / 255.0f) * 0.001f);
  95:../../../DaisySP//Source/Effects/pitchshifter.h ****         }
  96:../../../DaisySP//Source/Effects/pitchshifter.h ****         if(prev_phs_b_ > fade2)
  97:../../../DaisySP//Source/Effects/pitchshifter.h ****         {
  98:../../../DaisySP//Source/Effects/pitchshifter.h ****             mod_b_amt_ = fun_ * ((float)(myrand() % 255) / 255.0f)
  99:../../../DaisySP//Source/Effects/pitchshifter.h ****                          * (del_size_ * 0.5f);
 100:../../../DaisySP//Source/Effects/pitchshifter.h ****             mod_coeff_[1]
 101:../../../DaisySP//Source/Effects/pitchshifter.h ****                 = 0.0002f + (((float)(myrand() % 255) / 255.0f) * 0.001f);
 102:../../../DaisySP//Source/Effects/pitchshifter.h ****         }
 103:../../../DaisySP//Source/Effects/pitchshifter.h ****         slewed_mod_[0] += mod_coeff_[0] * (mod_a_amt_ - slewed_mod_[0]);
 104:../../../DaisySP//Source/Effects/pitchshifter.h ****         slewed_mod_[1] += mod_coeff_[1] * (mod_b_amt_ - slewed_mod_[1]);
 105:../../../DaisySP//Source/Effects/pitchshifter.h ****         prev_phs_a_ = fade1;
 106:../../../DaisySP//Source/Effects/pitchshifter.h ****         prev_phs_b_ = fade2;
 107:../../../DaisySP//Source/Effects/pitchshifter.h ****         if(shift_up_)
 108:../../../DaisySP//Source/Effects/pitchshifter.h ****         {
 109:../../../DaisySP//Source/Effects/pitchshifter.h ****             fade1 = 1.0f - fade1;
 110:../../../DaisySP//Source/Effects/pitchshifter.h ****             fade2 = 1.0f - fade2;
 111:../../../DaisySP//Source/Effects/pitchshifter.h ****         }
 112:../../../DaisySP//Source/Effects/pitchshifter.h ****         mod_[0] = fade1 * (del_size_ - 1);
 113:../../../DaisySP//Source/Effects/pitchshifter.h ****         mod_[1] = fade2 * (del_size_ - 1);
 114:../../../DaisySP//Source/Effects/pitchshifter.h **** #ifdef USE_ARM_DSP
 115:../../../DaisySP//Source/Effects/pitchshifter.h ****         gain_[0] = arm_sin_f32(fade1 * (float)M_PI);
 116:../../../DaisySP//Source/Effects/pitchshifter.h ****         gain_[1] = arm_sin_f32(fade2 * (float)M_PI);
 117:../../../DaisySP//Source/Effects/pitchshifter.h **** #else
 118:../../../DaisySP//Source/Effects/pitchshifter.h ****         gain_[0] = sinf(fade1 * PI_F);
 119:../../../DaisySP//Source/Effects/pitchshifter.h ****         gain_[1] = sinf(fade2 * PI_F);
 120:../../../DaisySP//Source/Effects/pitchshifter.h **** #endif
 121:../../../DaisySP//Source/Effects/pitchshifter.h **** 
 122:../../../DaisySP//Source/Effects/pitchshifter.h ****         // Handle Delay Writing
 123:../../../DaisySP//Source/Effects/pitchshifter.h ****         d_[0].Write(in);
 124:../../../DaisySP//Source/Effects/pitchshifter.h ****         d_[1].Write(in);
 125:../../../DaisySP//Source/Effects/pitchshifter.h ****         // Modulate Delay Lines
 126:../../../DaisySP//Source/Effects/pitchshifter.h ****         //mod_a_amt = mod_b_amt = 0.0f;
 127:../../../DaisySP//Source/Effects/pitchshifter.h ****         d_[0].SetDelay(mod_[0] + mod_a_amt_);
 128:../../../DaisySP//Source/Effects/pitchshifter.h ****         d_[1].SetDelay(mod_[1] + mod_b_amt_);
 129:../../../DaisySP//Source/Effects/pitchshifter.h ****         d_[0].SetDelay(mod_[0] + slewed_mod_[0]);
 130:../../../DaisySP//Source/Effects/pitchshifter.h ****         d_[1].SetDelay(mod_[1] + slewed_mod_[1]);
 131:../../../DaisySP//Source/Effects/pitchshifter.h ****         val = 0.0f;
 132:../../../DaisySP//Source/Effects/pitchshifter.h ****         val += (d_[0].Read() * gain_[0]);
 133:../../../DaisySP//Source/Effects/pitchshifter.h ****         val += (d_[1].Read() * gain_[1]);
 134:../../../DaisySP//Source/Effects/pitchshifter.h ****         return val;
 135:../../../DaisySP//Source/Effects/pitchshifter.h ****     }
 136:../../../DaisySP//Source/Effects/pitchshifter.h **** 
 137:../../../DaisySP//Source/Effects/pitchshifter.h ****     /** sets transposition in semitones
 138:../../../DaisySP//Source/Effects/pitchshifter.h ****     */
 139:../../../DaisySP//Source/Effects/pitchshifter.h ****     void SetTransposition(const float &transpose)
 140:../../../DaisySP//Source/Effects/pitchshifter.h ****     {
 141:../../../DaisySP//Source/Effects/pitchshifter.h ****         float   ratio;
ARM GAS  /var/folders/wz/z09yph4n0qj4t7mjxhl6ttn80000gn/T//ccPO7ASC.s 			page 12


 142:../../../DaisySP//Source/Effects/pitchshifter.h ****         uint8_t idx;
 143:../../../DaisySP//Source/Effects/pitchshifter.h ****         if(transpose_ != transpose || force_recalc_)
 144:../../../DaisySP//Source/Effects/pitchshifter.h ****         {
 145:../../../DaisySP//Source/Effects/pitchshifter.h ****             transpose_ = transpose;
 146:../../../DaisySP//Source/Effects/pitchshifter.h ****             idx        = (uint8_t)fabsf(transpose);
 147:../../../DaisySP//Source/Effects/pitchshifter.h ****             ratio      = semitone_ratios_[idx % 12];
 148:../../../DaisySP//Source/Effects/pitchshifter.h ****             ratio *= (uint8_t)(fabsf(transpose) / 12) + 1;
 149:../../../DaisySP//Source/Effects/pitchshifter.h ****             if(transpose > 0.0f)
 150:../../../DaisySP//Source/Effects/pitchshifter.h ****             {
 151:../../../DaisySP//Source/Effects/pitchshifter.h ****                 shift_up_ = true;
 152:../../../DaisySP//Source/Effects/pitchshifter.h ****             }
 153:../../../DaisySP//Source/Effects/pitchshifter.h ****             else
 154:../../../DaisySP//Source/Effects/pitchshifter.h ****             {
 155:../../../DaisySP//Source/Effects/pitchshifter.h ****                 shift_up_ = false;
 156:../../../DaisySP//Source/Effects/pitchshifter.h ****             }
 157:../../../DaisySP//Source/Effects/pitchshifter.h ****             mod_freq_ = ((ratio - 1.0f) * sr_) / del_size_;
 158:../../../DaisySP//Source/Effects/pitchshifter.h ****             if(mod_freq_ < 0.0f)
 159:../../../DaisySP//Source/Effects/pitchshifter.h ****             {
 160:../../../DaisySP//Source/Effects/pitchshifter.h ****                 mod_freq_ = 0.0f;
 161:../../../DaisySP//Source/Effects/pitchshifter.h ****             }
 162:../../../DaisySP//Source/Effects/pitchshifter.h ****             phs_[0].SetFreq(mod_freq_);
 163:../../../DaisySP//Source/Effects/pitchshifter.h ****             phs_[1].SetFreq(mod_freq_);
 164:../../../DaisySP//Source/Effects/pitchshifter.h ****             if(force_recalc_)
 165:../../../DaisySP//Source/Effects/pitchshifter.h ****             {
 166:../../../DaisySP//Source/Effects/pitchshifter.h ****                 force_recalc_ = false;
 167:../../../DaisySP//Source/Effects/pitchshifter.h ****             }
 168:../../../DaisySP//Source/Effects/pitchshifter.h ****         }
 169:../../../DaisySP//Source/Effects/pitchshifter.h ****     }
 170:../../../DaisySP//Source/Effects/pitchshifter.h **** 
 171:../../../DaisySP//Source/Effects/pitchshifter.h ****     /** sets delay size changing the timbre of the pitchshifting 
 172:../../../DaisySP//Source/Effects/pitchshifter.h ****     */
 173:../../../DaisySP//Source/Effects/pitchshifter.h ****     void SetDelSize(uint32_t size)
 174:../../../DaisySP//Source/Effects/pitchshifter.h ****     {
 175:../../../DaisySP//Source/Effects/pitchshifter.h ****         del_size_     = size < SHIFT_BUFFER_SIZE ? size : SHIFT_BUFFER_SIZE;
 176:../../../DaisySP//Source/Effects/pitchshifter.h ****         force_recalc_ = true;
 177:../../../DaisySP//Source/Effects/pitchshifter.h ****         SetTransposition(transpose_);
 178:../../../DaisySP//Source/Effects/pitchshifter.h ****     }
 179:../../../DaisySP//Source/Effects/pitchshifter.h **** 
 180:../../../DaisySP//Source/Effects/pitchshifter.h ****     /** sets an amount of internal random modulation, kind of sounds like tape-flutter
 181:../../../DaisySP//Source/Effects/pitchshifter.h ****     */
 182:../../../DaisySP//Source/Effects/pitchshifter.h ****     inline void SetFun(float f) { fun_ = f; }
  49              		.loc 3 182 40 is_stmt 0 view .LVU4
  50 0000 0368     		ldr	r3, [r0]
  51              	.LBE772:
  52              	.LBE771:
  53              	.LBE770:
  54              	.LBE769:
  60:/Library/DaisyToolchain/0.2.0/arm/arm-none-eabi/include/c++/10.3.1/bits/invoke.h **** 
  55              		.loc 2 60 36 view .LVU5
  56 0002 0A68     		ldr	r2, [r1]	@ float
  57              	.LVL1:
  58              	.LBB776:
  59              	.LBI769:
  60              		.file 4 "DSP/FX/PitchShift.cpp"
   1:DSP/FX/PitchShift.cpp **** #include "PitchShift.h"
   2:DSP/FX/PitchShift.cpp **** 
   3:DSP/FX/PitchShift.cpp **** void PitchShift::init(DaisySeed* seed)
ARM GAS  /var/folders/wz/z09yph4n0qj4t7mjxhl6ttn80000gn/T//ccPO7ASC.s 			page 13


   4:DSP/FX/PitchShift.cpp **** {
   5:DSP/FX/PitchShift.cpp ****     for(size_t i = 0 ; i < BLOCKLENGTH ; i++)
   6:DSP/FX/PitchShift.cpp ****     {
   7:DSP/FX/PitchShift.cpp ****         buffer[L][i] = 0.0f;
   8:DSP/FX/PitchShift.cpp ****         buffer[R][i] = 0.0f;
   9:DSP/FX/PitchShift.cpp ****     }
  10:DSP/FX/PitchShift.cpp ****     
  11:DSP/FX/PitchShift.cpp ****     shifter.Init(seed->AudioSampleRate());
  12:DSP/FX/PitchShift.cpp **** 
  13:DSP/FX/PitchShift.cpp ****     //bypass.param.init(daisy::seed::D5, 1000, [this]{ setBypass(); }); // CHECK THIS
  14:DSP/FX/PitchShift.cpp ****     semitones.init(seed, 0, 1, LINEAR, ChannelIDs::AMP2, [this] (int s) { shifter.SetTransposition(
  15:DSP/FX/PitchShift.cpp ****     timbre.init(seed, 0, 1, LINEAR, ChannelIDs::AMP3, [this] (u_int32_t t) { shifter.SetDelSize(t);
  16:DSP/FX/PitchShift.cpp ****     rand.init(seed, 0, 1, LINEAR, ChannelIDs::AMP4, [this] (float r) { shifter.SetFun(r); });
  61              		.loc 4 16 53 is_stmt 1 view .LVU6
  62              	.LBB775:
  63              		.loc 4 16 72 view .LVU7
  64              	.LBB774:
  65              	.LBI771:
  66              		.loc 3 182 17 view .LVU8
  67              	.LBB773:
  68              		.loc 3 182 35 view .LVU9
  69              		.loc 3 182 40 is_stmt 0 view .LVU10
  70 0004 03F50033 		add	r3, r3, #131072
  71 0008 C3F88420 		str	r2, [r3, #132]	@ float
  72              	.LVL2:
  73              		.loc 3 182 40 view .LVU11
  74              	.LBE773:
  75              	.LBE774:
  76              	.LBE775:
  77              	.LBE776:
  78              	.LBE768:
  79              	.LBE767:
  80              	.LBE766:
  81              	.LBE765:
 290:/Library/DaisyToolchain/0.2.0/arm/arm-none-eabi/include/c++/10.3.1/bits/std_function.h ****       {
 291:/Library/DaisyToolchain/0.2.0/arm/arm-none-eabi/include/c++/10.3.1/bits/std_function.h **** 	return std::__invoke_r<_Res>(*_Base::_M_get_pointer(__functor),
 292:/Library/DaisyToolchain/0.2.0/arm/arm-none-eabi/include/c++/10.3.1/bits/std_function.h **** 				     std::forward<_ArgTypes>(__args)...);
 293:/Library/DaisyToolchain/0.2.0/arm/arm-none-eabi/include/c++/10.3.1/bits/std_function.h ****       }
  82              		.loc 1 293 7 view .LVU12
  83 000c 7047     		bx	lr
  84              		.cfi_endproc
  85              	.LFE6145:
  87 000e 00BF     		.section	.text._ZNSt17_Function_handlerIFviEZN10PitchShift4initEPN5daisy9DaisySeedEEUliE_E10_M_man
  88              		.align	1
  89              		.p2align 2,,3
  90              		.syntax unified
  91              		.thumb
  92              		.thumb_func
  94              	_ZNSt17_Function_handlerIFviEZN10PitchShift4initEPN5daisy9DaisySeedEEUliE_E10_M_managerERSt9_Any_da
  95              	.LVL3:
  96              	.LFB6131:
 268:/Library/DaisyToolchain/0.2.0/arm/arm-none-eabi/include/c++/10.3.1/bits/std_function.h **** 		 _Manager_operation __op)
  97              		.loc 1 268 7 is_stmt 1 view -0
  98              		.cfi_startproc
  99              		@ args = 0, pretend = 0, frame = 0
 100              		@ frame_needed = 0, uses_anonymous_args = 0
 101              		@ link register save eliminated.
ARM GAS  /var/folders/wz/z09yph4n0qj4t7mjxhl6ttn80000gn/T//ccPO7ASC.s 			page 14


 271:/Library/DaisyToolchain/0.2.0/arm/arm-none-eabi/include/c++/10.3.1/bits/std_function.h **** 	  {
 102              		.loc 1 271 2 is_stmt 0 view .LVU14
 103 0000 012A     		cmp	r2, #1
 104 0002 03D0     		beq	.L6
 105              	.LVL4:
 106              	.LBB808:
 107              	.LBI808:
 268:/Library/DaisyToolchain/0.2.0/arm/arm-none-eabi/include/c++/10.3.1/bits/std_function.h **** 		 _Manager_operation __op)
 108              		.loc 1 268 7 is_stmt 1 view .LVU15
 109              	.LBB809:
 110              	.LBI809:
 181:/Library/DaisyToolchain/0.2.0/arm/arm-none-eabi/include/c++/10.3.1/bits/std_function.h **** 		   _Manager_operation __op)
 111              		.loc 1 181 2 view .LVU16
 112              	.LBB810:
 184:/Library/DaisyToolchain/0.2.0/arm/arm-none-eabi/include/c++/10.3.1/bits/std_function.h **** 	    {
 113              		.loc 1 184 4 is_stmt 0 view .LVU17
 114 0004 022A     		cmp	r2, #2
 115 0006 04D0     		beq	.L7
 116              	.LVL5:
 184:/Library/DaisyToolchain/0.2.0/arm/arm-none-eabi/include/c++/10.3.1/bits/std_function.h **** 	    {
 117              		.loc 1 184 4 view .LVU18
 118              	.LBE810:
 119              	.LBE809:
 120              	.LBE808:
 286:/Library/DaisyToolchain/0.2.0/arm/arm-none-eabi/include/c++/10.3.1/bits/std_function.h **** 
 121              		.loc 1 286 7 view .LVU19
 122 0008 0020     		movs	r0, #0
 123              	.LVL6:
 286:/Library/DaisyToolchain/0.2.0/arm/arm-none-eabi/include/c++/10.3.1/bits/std_function.h **** 
 124              		.loc 1 286 7 view .LVU20
 125 000a 7047     		bx	lr
 126              	.LVL7:
 127              	.L6:
  87:/Library/DaisyToolchain/0.2.0/arm/arm-none-eabi/include/c++/10.3.1/bits/std_function.h ****     const void* _M_access() const { return &_M_pod_data[0]; }
 128              		.loc 1 87 37 is_stmt 1 view .LVU21
 129              	.LBB818:
 130              	.LBI818:
 136:/Library/DaisyToolchain/0.2.0/arm/arm-none-eabi/include/c++/10.3.1/bits/std_function.h **** 	{
 131              		.loc 1 136 2 view .LVU22
 132              	.LBB819:
 133              	.LBB820:
 134              	.LBI820:
  97:/Library/DaisyToolchain/0.2.0/arm/arm-none-eabi/include/c++/10.3.1/bits/std_function.h ****       { return *static_cast<const _Tp*>(_M_access()); }
 135              		.loc 1 97 7 view .LVU23
 136              	.LBB821:
 137              	.LBI821:
  88:/Library/DaisyToolchain/0.2.0/arm/arm-none-eabi/include/c++/10.3.1/bits/std_function.h **** 
 138              		.loc 1 88 17 view .LVU24
 139              	.LBB822:
  88:/Library/DaisyToolchain/0.2.0/arm/arm-none-eabi/include/c++/10.3.1/bits/std_function.h **** 
 140              		.loc 1 88 37 view .LVU25
  88:/Library/DaisyToolchain/0.2.0/arm/arm-none-eabi/include/c++/10.3.1/bits/std_function.h **** 
 141              		.loc 1 88 37 is_stmt 0 view .LVU26
 142              	.LBE822:
 143              	.LBE821:
 144              	.LBE820:
 145              	.LBE819:
ARM GAS  /var/folders/wz/z09yph4n0qj4t7mjxhl6ttn80000gn/T//ccPO7ASC.s 			page 15


 146              	.LBE818:
 279:/Library/DaisyToolchain/0.2.0/arm/arm-none-eabi/include/c++/10.3.1/bits/std_function.h **** 	    break;
 147              		.loc 1 279 36 view .LVU27
 148 000c 0160     		str	r1, [r0]
 286:/Library/DaisyToolchain/0.2.0/arm/arm-none-eabi/include/c++/10.3.1/bits/std_function.h **** 
 149              		.loc 1 286 7 view .LVU28
 150 000e 0020     		movs	r0, #0
 151              	.LVL8:
 286:/Library/DaisyToolchain/0.2.0/arm/arm-none-eabi/include/c++/10.3.1/bits/std_function.h **** 
 152              		.loc 1 286 7 view .LVU29
 153 0010 7047     		bx	lr
 154              	.LVL9:
 155              	.L7:
 156              	.LBB823:
 157              	.LBB816:
 158              	.LBB814:
 159              	.LBB811:
 160              	.LBI811:
 150:/Library/DaisyToolchain/0.2.0/arm/arm-none-eabi/include/c++/10.3.1/bits/std_function.h **** 	{
 161              		.loc 1 150 2 is_stmt 1 view .LVU30
 150:/Library/DaisyToolchain/0.2.0/arm/arm-none-eabi/include/c++/10.3.1/bits/std_function.h **** 	{
 162              		.loc 1 150 2 is_stmt 0 view .LVU31
 163              	.LBE811:
 164              	.LBE814:
 165              	.LBE816:
 166              	.LBE823:
  88:/Library/DaisyToolchain/0.2.0/arm/arm-none-eabi/include/c++/10.3.1/bits/std_function.h **** 
 167              		.loc 1 88 37 is_stmt 1 view .LVU32
  87:/Library/DaisyToolchain/0.2.0/arm/arm-none-eabi/include/c++/10.3.1/bits/std_function.h ****     const void* _M_access() const { return &_M_pod_data[0]; }
 168              		.loc 1 87 37 view .LVU33
 169              		.file 5 "/Library/DaisyToolchain/0.2.0/arm/arm-none-eabi/include/c++/10.3.1/new"
   1:/Library/DaisyToolchain/0.2.0/arm/arm-none-eabi/include/c++/10.3.1/new **** // The -*- C++ -*- dynamic memory management header.
   2:/Library/DaisyToolchain/0.2.0/arm/arm-none-eabi/include/c++/10.3.1/new **** 
   3:/Library/DaisyToolchain/0.2.0/arm/arm-none-eabi/include/c++/10.3.1/new **** // Copyright (C) 1994-2020 Free Software Foundation, Inc.
   4:/Library/DaisyToolchain/0.2.0/arm/arm-none-eabi/include/c++/10.3.1/new **** 
   5:/Library/DaisyToolchain/0.2.0/arm/arm-none-eabi/include/c++/10.3.1/new **** // This file is part of GCC.
   6:/Library/DaisyToolchain/0.2.0/arm/arm-none-eabi/include/c++/10.3.1/new **** //
   7:/Library/DaisyToolchain/0.2.0/arm/arm-none-eabi/include/c++/10.3.1/new **** // GCC is free software; you can redistribute it and/or modify
   8:/Library/DaisyToolchain/0.2.0/arm/arm-none-eabi/include/c++/10.3.1/new **** // it under the terms of the GNU General Public License as published by
   9:/Library/DaisyToolchain/0.2.0/arm/arm-none-eabi/include/c++/10.3.1/new **** // the Free Software Foundation; either version 3, or (at your option)
  10:/Library/DaisyToolchain/0.2.0/arm/arm-none-eabi/include/c++/10.3.1/new **** // any later version.
  11:/Library/DaisyToolchain/0.2.0/arm/arm-none-eabi/include/c++/10.3.1/new **** // 
  12:/Library/DaisyToolchain/0.2.0/arm/arm-none-eabi/include/c++/10.3.1/new **** // GCC is distributed in the hope that it will be useful,
  13:/Library/DaisyToolchain/0.2.0/arm/arm-none-eabi/include/c++/10.3.1/new **** // but WITHOUT ANY WARRANTY; without even the implied warranty of
  14:/Library/DaisyToolchain/0.2.0/arm/arm-none-eabi/include/c++/10.3.1/new **** // MERCHANTABILITY or FITNESS FOR A PARTICULAR PURPOSE.  See the
  15:/Library/DaisyToolchain/0.2.0/arm/arm-none-eabi/include/c++/10.3.1/new **** // GNU General Public License for more details.
  16:/Library/DaisyToolchain/0.2.0/arm/arm-none-eabi/include/c++/10.3.1/new **** // 
  17:/Library/DaisyToolchain/0.2.0/arm/arm-none-eabi/include/c++/10.3.1/new **** // Under Section 7 of GPL version 3, you are granted additional
  18:/Library/DaisyToolchain/0.2.0/arm/arm-none-eabi/include/c++/10.3.1/new **** // permissions described in the GCC Runtime Library Exception, version
  19:/Library/DaisyToolchain/0.2.0/arm/arm-none-eabi/include/c++/10.3.1/new **** // 3.1, as published by the Free Software Foundation.
  20:/Library/DaisyToolchain/0.2.0/arm/arm-none-eabi/include/c++/10.3.1/new **** 
  21:/Library/DaisyToolchain/0.2.0/arm/arm-none-eabi/include/c++/10.3.1/new **** // You should have received a copy of the GNU General Public License and
  22:/Library/DaisyToolchain/0.2.0/arm/arm-none-eabi/include/c++/10.3.1/new **** // a copy of the GCC Runtime Library Exception along with this program;
  23:/Library/DaisyToolchain/0.2.0/arm/arm-none-eabi/include/c++/10.3.1/new **** // see the files COPYING3 and COPYING.RUNTIME respectively.  If not, see
  24:/Library/DaisyToolchain/0.2.0/arm/arm-none-eabi/include/c++/10.3.1/new **** // <http://www.gnu.org/licenses/>.
  25:/Library/DaisyToolchain/0.2.0/arm/arm-none-eabi/include/c++/10.3.1/new **** 
  26:/Library/DaisyToolchain/0.2.0/arm/arm-none-eabi/include/c++/10.3.1/new **** /** @file new
ARM GAS  /var/folders/wz/z09yph4n0qj4t7mjxhl6ttn80000gn/T//ccPO7ASC.s 			page 16


  27:/Library/DaisyToolchain/0.2.0/arm/arm-none-eabi/include/c++/10.3.1/new ****  *  This is a Standard C++ Library header.
  28:/Library/DaisyToolchain/0.2.0/arm/arm-none-eabi/include/c++/10.3.1/new ****  *
  29:/Library/DaisyToolchain/0.2.0/arm/arm-none-eabi/include/c++/10.3.1/new ****  *  The header @c new defines several functions to manage dynamic memory and
  30:/Library/DaisyToolchain/0.2.0/arm/arm-none-eabi/include/c++/10.3.1/new ****  *  handling memory allocation errors; see
  31:/Library/DaisyToolchain/0.2.0/arm/arm-none-eabi/include/c++/10.3.1/new ****  *  https://gcc.gnu.org/onlinedocs/libstdc++/manual/dynamic_memory.html
  32:/Library/DaisyToolchain/0.2.0/arm/arm-none-eabi/include/c++/10.3.1/new ****  *  for more.
  33:/Library/DaisyToolchain/0.2.0/arm/arm-none-eabi/include/c++/10.3.1/new ****  */
  34:/Library/DaisyToolchain/0.2.0/arm/arm-none-eabi/include/c++/10.3.1/new **** 
  35:/Library/DaisyToolchain/0.2.0/arm/arm-none-eabi/include/c++/10.3.1/new **** #ifndef _NEW
  36:/Library/DaisyToolchain/0.2.0/arm/arm-none-eabi/include/c++/10.3.1/new **** #define _NEW
  37:/Library/DaisyToolchain/0.2.0/arm/arm-none-eabi/include/c++/10.3.1/new **** 
  38:/Library/DaisyToolchain/0.2.0/arm/arm-none-eabi/include/c++/10.3.1/new **** #pragma GCC system_header
  39:/Library/DaisyToolchain/0.2.0/arm/arm-none-eabi/include/c++/10.3.1/new **** 
  40:/Library/DaisyToolchain/0.2.0/arm/arm-none-eabi/include/c++/10.3.1/new **** #include <bits/c++config.h>
  41:/Library/DaisyToolchain/0.2.0/arm/arm-none-eabi/include/c++/10.3.1/new **** #include <exception>
  42:/Library/DaisyToolchain/0.2.0/arm/arm-none-eabi/include/c++/10.3.1/new **** 
  43:/Library/DaisyToolchain/0.2.0/arm/arm-none-eabi/include/c++/10.3.1/new **** #pragma GCC visibility push(default)
  44:/Library/DaisyToolchain/0.2.0/arm/arm-none-eabi/include/c++/10.3.1/new **** 
  45:/Library/DaisyToolchain/0.2.0/arm/arm-none-eabi/include/c++/10.3.1/new **** extern "C++" {
  46:/Library/DaisyToolchain/0.2.0/arm/arm-none-eabi/include/c++/10.3.1/new **** 
  47:/Library/DaisyToolchain/0.2.0/arm/arm-none-eabi/include/c++/10.3.1/new **** namespace std 
  48:/Library/DaisyToolchain/0.2.0/arm/arm-none-eabi/include/c++/10.3.1/new **** {
  49:/Library/DaisyToolchain/0.2.0/arm/arm-none-eabi/include/c++/10.3.1/new ****   /**
  50:/Library/DaisyToolchain/0.2.0/arm/arm-none-eabi/include/c++/10.3.1/new ****    *  @brief  Exception possibly thrown by @c new.
  51:/Library/DaisyToolchain/0.2.0/arm/arm-none-eabi/include/c++/10.3.1/new ****    *  @ingroup exceptions
  52:/Library/DaisyToolchain/0.2.0/arm/arm-none-eabi/include/c++/10.3.1/new ****    *
  53:/Library/DaisyToolchain/0.2.0/arm/arm-none-eabi/include/c++/10.3.1/new ****    *  @c bad_alloc (or classes derived from it) is used to report allocation
  54:/Library/DaisyToolchain/0.2.0/arm/arm-none-eabi/include/c++/10.3.1/new ****    *  errors from the throwing forms of @c new.  */
  55:/Library/DaisyToolchain/0.2.0/arm/arm-none-eabi/include/c++/10.3.1/new ****   class bad_alloc : public exception 
  56:/Library/DaisyToolchain/0.2.0/arm/arm-none-eabi/include/c++/10.3.1/new ****   {
  57:/Library/DaisyToolchain/0.2.0/arm/arm-none-eabi/include/c++/10.3.1/new ****   public:
  58:/Library/DaisyToolchain/0.2.0/arm/arm-none-eabi/include/c++/10.3.1/new ****     bad_alloc() throw() { }
  59:/Library/DaisyToolchain/0.2.0/arm/arm-none-eabi/include/c++/10.3.1/new **** 
  60:/Library/DaisyToolchain/0.2.0/arm/arm-none-eabi/include/c++/10.3.1/new **** #if __cplusplus >= 201103L
  61:/Library/DaisyToolchain/0.2.0/arm/arm-none-eabi/include/c++/10.3.1/new ****     bad_alloc(const bad_alloc&) = default;
  62:/Library/DaisyToolchain/0.2.0/arm/arm-none-eabi/include/c++/10.3.1/new ****     bad_alloc& operator=(const bad_alloc&) = default;
  63:/Library/DaisyToolchain/0.2.0/arm/arm-none-eabi/include/c++/10.3.1/new **** #endif
  64:/Library/DaisyToolchain/0.2.0/arm/arm-none-eabi/include/c++/10.3.1/new **** 
  65:/Library/DaisyToolchain/0.2.0/arm/arm-none-eabi/include/c++/10.3.1/new ****     // This declaration is not useless:
  66:/Library/DaisyToolchain/0.2.0/arm/arm-none-eabi/include/c++/10.3.1/new ****     // http://gcc.gnu.org/onlinedocs/gcc-3.0.2/gcc_6.html#SEC118
  67:/Library/DaisyToolchain/0.2.0/arm/arm-none-eabi/include/c++/10.3.1/new ****     virtual ~bad_alloc() throw();
  68:/Library/DaisyToolchain/0.2.0/arm/arm-none-eabi/include/c++/10.3.1/new **** 
  69:/Library/DaisyToolchain/0.2.0/arm/arm-none-eabi/include/c++/10.3.1/new ****     // See comment in eh_exception.cc.
  70:/Library/DaisyToolchain/0.2.0/arm/arm-none-eabi/include/c++/10.3.1/new ****     virtual const char* what() const throw();
  71:/Library/DaisyToolchain/0.2.0/arm/arm-none-eabi/include/c++/10.3.1/new ****   };
  72:/Library/DaisyToolchain/0.2.0/arm/arm-none-eabi/include/c++/10.3.1/new **** 
  73:/Library/DaisyToolchain/0.2.0/arm/arm-none-eabi/include/c++/10.3.1/new **** #if __cplusplus >= 201103L
  74:/Library/DaisyToolchain/0.2.0/arm/arm-none-eabi/include/c++/10.3.1/new ****   class bad_array_new_length : public bad_alloc
  75:/Library/DaisyToolchain/0.2.0/arm/arm-none-eabi/include/c++/10.3.1/new ****   {
  76:/Library/DaisyToolchain/0.2.0/arm/arm-none-eabi/include/c++/10.3.1/new ****   public:
  77:/Library/DaisyToolchain/0.2.0/arm/arm-none-eabi/include/c++/10.3.1/new ****     bad_array_new_length() throw() { }
  78:/Library/DaisyToolchain/0.2.0/arm/arm-none-eabi/include/c++/10.3.1/new **** 
  79:/Library/DaisyToolchain/0.2.0/arm/arm-none-eabi/include/c++/10.3.1/new ****     // This declaration is not useless:
  80:/Library/DaisyToolchain/0.2.0/arm/arm-none-eabi/include/c++/10.3.1/new ****     // http://gcc.gnu.org/onlinedocs/gcc-3.0.2/gcc_6.html#SEC118
  81:/Library/DaisyToolchain/0.2.0/arm/arm-none-eabi/include/c++/10.3.1/new ****     virtual ~bad_array_new_length() throw();
  82:/Library/DaisyToolchain/0.2.0/arm/arm-none-eabi/include/c++/10.3.1/new **** 
  83:/Library/DaisyToolchain/0.2.0/arm/arm-none-eabi/include/c++/10.3.1/new ****     // See comment in eh_exception.cc.
ARM GAS  /var/folders/wz/z09yph4n0qj4t7mjxhl6ttn80000gn/T//ccPO7ASC.s 			page 17


  84:/Library/DaisyToolchain/0.2.0/arm/arm-none-eabi/include/c++/10.3.1/new ****     virtual const char* what() const throw();
  85:/Library/DaisyToolchain/0.2.0/arm/arm-none-eabi/include/c++/10.3.1/new ****   };
  86:/Library/DaisyToolchain/0.2.0/arm/arm-none-eabi/include/c++/10.3.1/new **** #endif
  87:/Library/DaisyToolchain/0.2.0/arm/arm-none-eabi/include/c++/10.3.1/new **** 
  88:/Library/DaisyToolchain/0.2.0/arm/arm-none-eabi/include/c++/10.3.1/new **** #if __cpp_aligned_new
  89:/Library/DaisyToolchain/0.2.0/arm/arm-none-eabi/include/c++/10.3.1/new ****   enum class align_val_t: size_t {};
  90:/Library/DaisyToolchain/0.2.0/arm/arm-none-eabi/include/c++/10.3.1/new **** #endif
  91:/Library/DaisyToolchain/0.2.0/arm/arm-none-eabi/include/c++/10.3.1/new **** 
  92:/Library/DaisyToolchain/0.2.0/arm/arm-none-eabi/include/c++/10.3.1/new ****   struct nothrow_t
  93:/Library/DaisyToolchain/0.2.0/arm/arm-none-eabi/include/c++/10.3.1/new ****   {
  94:/Library/DaisyToolchain/0.2.0/arm/arm-none-eabi/include/c++/10.3.1/new **** #if __cplusplus >= 201103L
  95:/Library/DaisyToolchain/0.2.0/arm/arm-none-eabi/include/c++/10.3.1/new ****     explicit nothrow_t() = default;
  96:/Library/DaisyToolchain/0.2.0/arm/arm-none-eabi/include/c++/10.3.1/new **** #endif
  97:/Library/DaisyToolchain/0.2.0/arm/arm-none-eabi/include/c++/10.3.1/new ****   };
  98:/Library/DaisyToolchain/0.2.0/arm/arm-none-eabi/include/c++/10.3.1/new **** 
  99:/Library/DaisyToolchain/0.2.0/arm/arm-none-eabi/include/c++/10.3.1/new ****   extern const nothrow_t nothrow;
 100:/Library/DaisyToolchain/0.2.0/arm/arm-none-eabi/include/c++/10.3.1/new **** 
 101:/Library/DaisyToolchain/0.2.0/arm/arm-none-eabi/include/c++/10.3.1/new ****   /** If you write your own error handler to be called by @c new, it must
 102:/Library/DaisyToolchain/0.2.0/arm/arm-none-eabi/include/c++/10.3.1/new ****    *  be of this type.  */
 103:/Library/DaisyToolchain/0.2.0/arm/arm-none-eabi/include/c++/10.3.1/new ****   typedef void (*new_handler)();
 104:/Library/DaisyToolchain/0.2.0/arm/arm-none-eabi/include/c++/10.3.1/new **** 
 105:/Library/DaisyToolchain/0.2.0/arm/arm-none-eabi/include/c++/10.3.1/new ****   /// Takes a replacement handler as the argument, returns the
 106:/Library/DaisyToolchain/0.2.0/arm/arm-none-eabi/include/c++/10.3.1/new ****   /// previous handler.
 107:/Library/DaisyToolchain/0.2.0/arm/arm-none-eabi/include/c++/10.3.1/new ****   new_handler set_new_handler(new_handler) throw();
 108:/Library/DaisyToolchain/0.2.0/arm/arm-none-eabi/include/c++/10.3.1/new **** 
 109:/Library/DaisyToolchain/0.2.0/arm/arm-none-eabi/include/c++/10.3.1/new **** #if __cplusplus >= 201103L
 110:/Library/DaisyToolchain/0.2.0/arm/arm-none-eabi/include/c++/10.3.1/new ****   /// Return the current new handler.
 111:/Library/DaisyToolchain/0.2.0/arm/arm-none-eabi/include/c++/10.3.1/new ****   new_handler get_new_handler() noexcept;
 112:/Library/DaisyToolchain/0.2.0/arm/arm-none-eabi/include/c++/10.3.1/new **** #endif
 113:/Library/DaisyToolchain/0.2.0/arm/arm-none-eabi/include/c++/10.3.1/new **** } // namespace std
 114:/Library/DaisyToolchain/0.2.0/arm/arm-none-eabi/include/c++/10.3.1/new **** 
 115:/Library/DaisyToolchain/0.2.0/arm/arm-none-eabi/include/c++/10.3.1/new **** //@{
 116:/Library/DaisyToolchain/0.2.0/arm/arm-none-eabi/include/c++/10.3.1/new **** /** These are replaceable signatures:
 117:/Library/DaisyToolchain/0.2.0/arm/arm-none-eabi/include/c++/10.3.1/new ****  *  - normal single new and delete (no arguments, throw @c bad_alloc on error)
 118:/Library/DaisyToolchain/0.2.0/arm/arm-none-eabi/include/c++/10.3.1/new ****  *  - normal array new and delete (same)
 119:/Library/DaisyToolchain/0.2.0/arm/arm-none-eabi/include/c++/10.3.1/new ****  *  - @c nothrow single new and delete (take a @c nothrow argument, return
 120:/Library/DaisyToolchain/0.2.0/arm/arm-none-eabi/include/c++/10.3.1/new ****  *    @c NULL on error)
 121:/Library/DaisyToolchain/0.2.0/arm/arm-none-eabi/include/c++/10.3.1/new ****  *  - @c nothrow array new and delete (same)
 122:/Library/DaisyToolchain/0.2.0/arm/arm-none-eabi/include/c++/10.3.1/new ****  *
 123:/Library/DaisyToolchain/0.2.0/arm/arm-none-eabi/include/c++/10.3.1/new ****  *  Placement new and delete signatures (take a memory address argument,
 124:/Library/DaisyToolchain/0.2.0/arm/arm-none-eabi/include/c++/10.3.1/new ****  *  does nothing) may not be replaced by a user's program.
 125:/Library/DaisyToolchain/0.2.0/arm/arm-none-eabi/include/c++/10.3.1/new **** */
 126:/Library/DaisyToolchain/0.2.0/arm/arm-none-eabi/include/c++/10.3.1/new **** _GLIBCXX_NODISCARD void* operator new(std::size_t) _GLIBCXX_THROW (std::bad_alloc)
 127:/Library/DaisyToolchain/0.2.0/arm/arm-none-eabi/include/c++/10.3.1/new ****   __attribute__((__externally_visible__));
 128:/Library/DaisyToolchain/0.2.0/arm/arm-none-eabi/include/c++/10.3.1/new **** _GLIBCXX_NODISCARD void* operator new[](std::size_t) _GLIBCXX_THROW (std::bad_alloc)
 129:/Library/DaisyToolchain/0.2.0/arm/arm-none-eabi/include/c++/10.3.1/new ****   __attribute__((__externally_visible__));
 130:/Library/DaisyToolchain/0.2.0/arm/arm-none-eabi/include/c++/10.3.1/new **** void operator delete(void*) _GLIBCXX_USE_NOEXCEPT
 131:/Library/DaisyToolchain/0.2.0/arm/arm-none-eabi/include/c++/10.3.1/new ****   __attribute__((__externally_visible__));
 132:/Library/DaisyToolchain/0.2.0/arm/arm-none-eabi/include/c++/10.3.1/new **** void operator delete[](void*) _GLIBCXX_USE_NOEXCEPT
 133:/Library/DaisyToolchain/0.2.0/arm/arm-none-eabi/include/c++/10.3.1/new ****   __attribute__((__externally_visible__));
 134:/Library/DaisyToolchain/0.2.0/arm/arm-none-eabi/include/c++/10.3.1/new **** #if __cpp_sized_deallocation
 135:/Library/DaisyToolchain/0.2.0/arm/arm-none-eabi/include/c++/10.3.1/new **** void operator delete(void*, std::size_t) _GLIBCXX_USE_NOEXCEPT
 136:/Library/DaisyToolchain/0.2.0/arm/arm-none-eabi/include/c++/10.3.1/new ****   __attribute__((__externally_visible__));
 137:/Library/DaisyToolchain/0.2.0/arm/arm-none-eabi/include/c++/10.3.1/new **** void operator delete[](void*, std::size_t) _GLIBCXX_USE_NOEXCEPT
 138:/Library/DaisyToolchain/0.2.0/arm/arm-none-eabi/include/c++/10.3.1/new ****   __attribute__((__externally_visible__));
 139:/Library/DaisyToolchain/0.2.0/arm/arm-none-eabi/include/c++/10.3.1/new **** #endif
 140:/Library/DaisyToolchain/0.2.0/arm/arm-none-eabi/include/c++/10.3.1/new **** _GLIBCXX_NODISCARD void* operator new(std::size_t, const std::nothrow_t&) _GLIBCXX_USE_NOEXCEPT
ARM GAS  /var/folders/wz/z09yph4n0qj4t7mjxhl6ttn80000gn/T//ccPO7ASC.s 			page 18


 141:/Library/DaisyToolchain/0.2.0/arm/arm-none-eabi/include/c++/10.3.1/new ****   __attribute__((__externally_visible__, __malloc__));
 142:/Library/DaisyToolchain/0.2.0/arm/arm-none-eabi/include/c++/10.3.1/new **** _GLIBCXX_NODISCARD void* operator new[](std::size_t, const std::nothrow_t&) _GLIBCXX_USE_NOEXCEPT
 143:/Library/DaisyToolchain/0.2.0/arm/arm-none-eabi/include/c++/10.3.1/new ****   __attribute__((__externally_visible__, __malloc__));
 144:/Library/DaisyToolchain/0.2.0/arm/arm-none-eabi/include/c++/10.3.1/new **** void operator delete(void*, const std::nothrow_t&) _GLIBCXX_USE_NOEXCEPT
 145:/Library/DaisyToolchain/0.2.0/arm/arm-none-eabi/include/c++/10.3.1/new ****   __attribute__((__externally_visible__));
 146:/Library/DaisyToolchain/0.2.0/arm/arm-none-eabi/include/c++/10.3.1/new **** void operator delete[](void*, const std::nothrow_t&) _GLIBCXX_USE_NOEXCEPT
 147:/Library/DaisyToolchain/0.2.0/arm/arm-none-eabi/include/c++/10.3.1/new ****   __attribute__((__externally_visible__));
 148:/Library/DaisyToolchain/0.2.0/arm/arm-none-eabi/include/c++/10.3.1/new **** #if __cpp_aligned_new
 149:/Library/DaisyToolchain/0.2.0/arm/arm-none-eabi/include/c++/10.3.1/new **** _GLIBCXX_NODISCARD void* operator new(std::size_t, std::align_val_t)
 150:/Library/DaisyToolchain/0.2.0/arm/arm-none-eabi/include/c++/10.3.1/new ****   __attribute__((__externally_visible__));
 151:/Library/DaisyToolchain/0.2.0/arm/arm-none-eabi/include/c++/10.3.1/new **** _GLIBCXX_NODISCARD void* operator new(std::size_t, std::align_val_t, const std::nothrow_t&)
 152:/Library/DaisyToolchain/0.2.0/arm/arm-none-eabi/include/c++/10.3.1/new ****   _GLIBCXX_USE_NOEXCEPT __attribute__((__externally_visible__, __malloc__));
 153:/Library/DaisyToolchain/0.2.0/arm/arm-none-eabi/include/c++/10.3.1/new **** void operator delete(void*, std::align_val_t)
 154:/Library/DaisyToolchain/0.2.0/arm/arm-none-eabi/include/c++/10.3.1/new ****   _GLIBCXX_USE_NOEXCEPT __attribute__((__externally_visible__));
 155:/Library/DaisyToolchain/0.2.0/arm/arm-none-eabi/include/c++/10.3.1/new **** void operator delete(void*, std::align_val_t, const std::nothrow_t&)
 156:/Library/DaisyToolchain/0.2.0/arm/arm-none-eabi/include/c++/10.3.1/new ****   _GLIBCXX_USE_NOEXCEPT __attribute__((__externally_visible__));
 157:/Library/DaisyToolchain/0.2.0/arm/arm-none-eabi/include/c++/10.3.1/new **** _GLIBCXX_NODISCARD void* operator new[](std::size_t, std::align_val_t)
 158:/Library/DaisyToolchain/0.2.0/arm/arm-none-eabi/include/c++/10.3.1/new ****   __attribute__((__externally_visible__));
 159:/Library/DaisyToolchain/0.2.0/arm/arm-none-eabi/include/c++/10.3.1/new **** _GLIBCXX_NODISCARD void* operator new[](std::size_t, std::align_val_t, const std::nothrow_t&)
 160:/Library/DaisyToolchain/0.2.0/arm/arm-none-eabi/include/c++/10.3.1/new ****   _GLIBCXX_USE_NOEXCEPT __attribute__((__externally_visible__, __malloc__));
 161:/Library/DaisyToolchain/0.2.0/arm/arm-none-eabi/include/c++/10.3.1/new **** void operator delete[](void*, std::align_val_t)
 162:/Library/DaisyToolchain/0.2.0/arm/arm-none-eabi/include/c++/10.3.1/new ****   _GLIBCXX_USE_NOEXCEPT __attribute__((__externally_visible__));
 163:/Library/DaisyToolchain/0.2.0/arm/arm-none-eabi/include/c++/10.3.1/new **** void operator delete[](void*, std::align_val_t, const std::nothrow_t&)
 164:/Library/DaisyToolchain/0.2.0/arm/arm-none-eabi/include/c++/10.3.1/new ****   _GLIBCXX_USE_NOEXCEPT __attribute__((__externally_visible__));
 165:/Library/DaisyToolchain/0.2.0/arm/arm-none-eabi/include/c++/10.3.1/new **** #if __cpp_sized_deallocation
 166:/Library/DaisyToolchain/0.2.0/arm/arm-none-eabi/include/c++/10.3.1/new **** void operator delete(void*, std::size_t, std::align_val_t)
 167:/Library/DaisyToolchain/0.2.0/arm/arm-none-eabi/include/c++/10.3.1/new ****   _GLIBCXX_USE_NOEXCEPT __attribute__((__externally_visible__));
 168:/Library/DaisyToolchain/0.2.0/arm/arm-none-eabi/include/c++/10.3.1/new **** void operator delete[](void*, std::size_t, std::align_val_t)
 169:/Library/DaisyToolchain/0.2.0/arm/arm-none-eabi/include/c++/10.3.1/new ****   _GLIBCXX_USE_NOEXCEPT __attribute__((__externally_visible__));
 170:/Library/DaisyToolchain/0.2.0/arm/arm-none-eabi/include/c++/10.3.1/new **** #endif // __cpp_sized_deallocation
 171:/Library/DaisyToolchain/0.2.0/arm/arm-none-eabi/include/c++/10.3.1/new **** #endif // __cpp_aligned_new
 172:/Library/DaisyToolchain/0.2.0/arm/arm-none-eabi/include/c++/10.3.1/new **** 
 173:/Library/DaisyToolchain/0.2.0/arm/arm-none-eabi/include/c++/10.3.1/new **** // Default placement versions of operator new.
 174:/Library/DaisyToolchain/0.2.0/arm/arm-none-eabi/include/c++/10.3.1/new **** _GLIBCXX_NODISCARD inline void* operator new(std::size_t, void* __p) _GLIBCXX_USE_NOEXCEPT
 175:/Library/DaisyToolchain/0.2.0/arm/arm-none-eabi/include/c++/10.3.1/new **** { return __p; }
 170              		.loc 5 175 3 view .LVU34
 171              	.LBB824:
 172              	.LBB817:
 173              	.LBB815:
 174              	.LBB813:
 175              	.LBB812:
 152:/Library/DaisyToolchain/0.2.0/arm/arm-none-eabi/include/c++/10.3.1/bits/std_function.h **** 	}
 176              		.loc 1 152 4 is_stmt 0 view .LVU35
 177 0012 0B68     		ldr	r3, [r1]
 178 0014 0360     		str	r3, [r0]
 179              	.LVL10:
 152:/Library/DaisyToolchain/0.2.0/arm/arm-none-eabi/include/c++/10.3.1/bits/std_function.h **** 	}
 180              		.loc 1 152 4 view .LVU36
 181              	.LBE812:
 182              	.LBE813:
 183              	.LBE815:
 184              	.LBE817:
 185              	.LBE824:
 286:/Library/DaisyToolchain/0.2.0/arm/arm-none-eabi/include/c++/10.3.1/bits/std_function.h **** 
 186              		.loc 1 286 7 view .LVU37
 187 0016 0020     		movs	r0, #0
 188              	.LVL11:
ARM GAS  /var/folders/wz/z09yph4n0qj4t7mjxhl6ttn80000gn/T//ccPO7ASC.s 			page 19


 286:/Library/DaisyToolchain/0.2.0/arm/arm-none-eabi/include/c++/10.3.1/bits/std_function.h **** 
 189              		.loc 1 286 7 view .LVU38
 190 0018 7047     		bx	lr
 191              		.cfi_endproc
 192              	.LFE6131:
 194 001a 00BF     		.section	.text._ZNSt17_Function_handlerIFvmEZN10PitchShift4initEPN5daisy9DaisySeedEEUlmE0_E10_M_ma
 195              		.align	1
 196              		.p2align 2,,3
 197              		.syntax unified
 198              		.thumb
 199              		.thumb_func
 201              	_ZNSt17_Function_handlerIFvmEZN10PitchShift4initEPN5daisy9DaisySeedEEUlmE0_E10_M_managerERSt9_Any_d
 202              	.LVL12:
 203              	.LFB6139:
 268:/Library/DaisyToolchain/0.2.0/arm/arm-none-eabi/include/c++/10.3.1/bits/std_function.h **** 		 _Manager_operation __op)
 204              		.loc 1 268 7 is_stmt 1 view -0
 205              		.cfi_startproc
 206              		@ args = 0, pretend = 0, frame = 0
 207              		@ frame_needed = 0, uses_anonymous_args = 0
 208              		@ link register save eliminated.
 271:/Library/DaisyToolchain/0.2.0/arm/arm-none-eabi/include/c++/10.3.1/bits/std_function.h **** 	  {
 209              		.loc 1 271 2 is_stmt 0 view .LVU40
 210 0000 012A     		cmp	r2, #1
 211 0002 03D0     		beq	.L11
 212              	.LVL13:
 213              	.LBB856:
 214              	.LBI856:
 268:/Library/DaisyToolchain/0.2.0/arm/arm-none-eabi/include/c++/10.3.1/bits/std_function.h **** 		 _Manager_operation __op)
 215              		.loc 1 268 7 is_stmt 1 view .LVU41
 216              	.LBB857:
 217              	.LBI857:
 181:/Library/DaisyToolchain/0.2.0/arm/arm-none-eabi/include/c++/10.3.1/bits/std_function.h **** 		   _Manager_operation __op)
 218              		.loc 1 181 2 view .LVU42
 219              	.LBB858:
 184:/Library/DaisyToolchain/0.2.0/arm/arm-none-eabi/include/c++/10.3.1/bits/std_function.h **** 	    {
 220              		.loc 1 184 4 is_stmt 0 view .LVU43
 221 0004 022A     		cmp	r2, #2
 222 0006 04D0     		beq	.L12
 223              	.LVL14:
 184:/Library/DaisyToolchain/0.2.0/arm/arm-none-eabi/include/c++/10.3.1/bits/std_function.h **** 	    {
 224              		.loc 1 184 4 view .LVU44
 225              	.LBE858:
 226              	.LBE857:
 227              	.LBE856:
 286:/Library/DaisyToolchain/0.2.0/arm/arm-none-eabi/include/c++/10.3.1/bits/std_function.h **** 
 228              		.loc 1 286 7 view .LVU45
 229 0008 0020     		movs	r0, #0
 230              	.LVL15:
 286:/Library/DaisyToolchain/0.2.0/arm/arm-none-eabi/include/c++/10.3.1/bits/std_function.h **** 
 231              		.loc 1 286 7 view .LVU46
 232 000a 7047     		bx	lr
 233              	.LVL16:
 234              	.L11:
  87:/Library/DaisyToolchain/0.2.0/arm/arm-none-eabi/include/c++/10.3.1/bits/std_function.h ****     const void* _M_access() const { return &_M_pod_data[0]; }
 235              		.loc 1 87 37 is_stmt 1 view .LVU47
 236              	.LBB866:
 237              	.LBI866:
ARM GAS  /var/folders/wz/z09yph4n0qj4t7mjxhl6ttn80000gn/T//ccPO7ASC.s 			page 20


 136:/Library/DaisyToolchain/0.2.0/arm/arm-none-eabi/include/c++/10.3.1/bits/std_function.h **** 	{
 238              		.loc 1 136 2 view .LVU48
 239              	.LBB867:
 240              	.LBB868:
 241              	.LBI868:
  97:/Library/DaisyToolchain/0.2.0/arm/arm-none-eabi/include/c++/10.3.1/bits/std_function.h ****       { return *static_cast<const _Tp*>(_M_access()); }
 242              		.loc 1 97 7 view .LVU49
 243              	.LBB869:
 244              	.LBI869:
  88:/Library/DaisyToolchain/0.2.0/arm/arm-none-eabi/include/c++/10.3.1/bits/std_function.h **** 
 245              		.loc 1 88 17 view .LVU50
 246              	.LBB870:
  88:/Library/DaisyToolchain/0.2.0/arm/arm-none-eabi/include/c++/10.3.1/bits/std_function.h **** 
 247              		.loc 1 88 37 view .LVU51
  88:/Library/DaisyToolchain/0.2.0/arm/arm-none-eabi/include/c++/10.3.1/bits/std_function.h **** 
 248              		.loc 1 88 37 is_stmt 0 view .LVU52
 249              	.LBE870:
 250              	.LBE869:
 251              	.LBE868:
 252              	.LBE867:
 253              	.LBE866:
 279:/Library/DaisyToolchain/0.2.0/arm/arm-none-eabi/include/c++/10.3.1/bits/std_function.h **** 	    break;
 254              		.loc 1 279 36 view .LVU53
 255 000c 0160     		str	r1, [r0]
 286:/Library/DaisyToolchain/0.2.0/arm/arm-none-eabi/include/c++/10.3.1/bits/std_function.h **** 
 256              		.loc 1 286 7 view .LVU54
 257 000e 0020     		movs	r0, #0
 258              	.LVL17:
 286:/Library/DaisyToolchain/0.2.0/arm/arm-none-eabi/include/c++/10.3.1/bits/std_function.h **** 
 259              		.loc 1 286 7 view .LVU55
 260 0010 7047     		bx	lr
 261              	.LVL18:
 262              	.L12:
 263              	.LBB871:
 264              	.LBB864:
 265              	.LBB862:
 266              	.LBB859:
 267              	.LBI859:
 150:/Library/DaisyToolchain/0.2.0/arm/arm-none-eabi/include/c++/10.3.1/bits/std_function.h **** 	{
 268              		.loc 1 150 2 is_stmt 1 view .LVU56
 150:/Library/DaisyToolchain/0.2.0/arm/arm-none-eabi/include/c++/10.3.1/bits/std_function.h **** 	{
 269              		.loc 1 150 2 is_stmt 0 view .LVU57
 270              	.LBE859:
 271              	.LBE862:
 272              	.LBE864:
 273              	.LBE871:
  88:/Library/DaisyToolchain/0.2.0/arm/arm-none-eabi/include/c++/10.3.1/bits/std_function.h **** 
 274              		.loc 1 88 37 is_stmt 1 view .LVU58
  87:/Library/DaisyToolchain/0.2.0/arm/arm-none-eabi/include/c++/10.3.1/bits/std_function.h ****     const void* _M_access() const { return &_M_pod_data[0]; }
 275              		.loc 1 87 37 view .LVU59
 276              		.loc 5 175 3 view .LVU60
 277              	.LBB872:
 278              	.LBB865:
 279              	.LBB863:
 280              	.LBB861:
 281              	.LBB860:
 152:/Library/DaisyToolchain/0.2.0/arm/arm-none-eabi/include/c++/10.3.1/bits/std_function.h **** 	}
ARM GAS  /var/folders/wz/z09yph4n0qj4t7mjxhl6ttn80000gn/T//ccPO7ASC.s 			page 21


 282              		.loc 1 152 4 is_stmt 0 view .LVU61
 283 0012 0B68     		ldr	r3, [r1]
 284 0014 0360     		str	r3, [r0]
 285              	.LVL19:
 152:/Library/DaisyToolchain/0.2.0/arm/arm-none-eabi/include/c++/10.3.1/bits/std_function.h **** 	}
 286              		.loc 1 152 4 view .LVU62
 287              	.LBE860:
 288              	.LBE861:
 289              	.LBE863:
 290              	.LBE865:
 291              	.LBE872:
 286:/Library/DaisyToolchain/0.2.0/arm/arm-none-eabi/include/c++/10.3.1/bits/std_function.h **** 
 292              		.loc 1 286 7 view .LVU63
 293 0016 0020     		movs	r0, #0
 294              	.LVL20:
 286:/Library/DaisyToolchain/0.2.0/arm/arm-none-eabi/include/c++/10.3.1/bits/std_function.h **** 
 295              		.loc 1 286 7 view .LVU64
 296 0018 7047     		bx	lr
 297              		.cfi_endproc
 298              	.LFE6139:
 300 001a 00BF     		.section	.text._ZNSt17_Function_handlerIFvfEZN10PitchShift4initEPN5daisy9DaisySeedEEUlfE1_E10_M_ma
 301              		.align	1
 302              		.p2align 2,,3
 303              		.syntax unified
 304              		.thumb
 305              		.thumb_func
 307              	_ZNSt17_Function_handlerIFvfEZN10PitchShift4initEPN5daisy9DaisySeedEEUlfE1_E10_M_managerERSt9_Any_d
 308              	.LVL21:
 309              	.LFB6147:
 268:/Library/DaisyToolchain/0.2.0/arm/arm-none-eabi/include/c++/10.3.1/bits/std_function.h **** 		 _Manager_operation __op)
 310              		.loc 1 268 7 is_stmt 1 view -0
 311              		.cfi_startproc
 312              		@ args = 0, pretend = 0, frame = 0
 313              		@ frame_needed = 0, uses_anonymous_args = 0
 314              		@ link register save eliminated.
 271:/Library/DaisyToolchain/0.2.0/arm/arm-none-eabi/include/c++/10.3.1/bits/std_function.h **** 	  {
 315              		.loc 1 271 2 is_stmt 0 view .LVU66
 316 0000 012A     		cmp	r2, #1
 317 0002 03D0     		beq	.L16
 318              	.LVL22:
 319              	.LBB904:
 320              	.LBI904:
 268:/Library/DaisyToolchain/0.2.0/arm/arm-none-eabi/include/c++/10.3.1/bits/std_function.h **** 		 _Manager_operation __op)
 321              		.loc 1 268 7 is_stmt 1 view .LVU67
 322              	.LBB905:
 323              	.LBI905:
 181:/Library/DaisyToolchain/0.2.0/arm/arm-none-eabi/include/c++/10.3.1/bits/std_function.h **** 		   _Manager_operation __op)
 324              		.loc 1 181 2 view .LVU68
 325              	.LBB906:
 184:/Library/DaisyToolchain/0.2.0/arm/arm-none-eabi/include/c++/10.3.1/bits/std_function.h **** 	    {
 326              		.loc 1 184 4 is_stmt 0 view .LVU69
 327 0004 022A     		cmp	r2, #2
 328 0006 04D0     		beq	.L17
 329              	.LVL23:
 184:/Library/DaisyToolchain/0.2.0/arm/arm-none-eabi/include/c++/10.3.1/bits/std_function.h **** 	    {
 330              		.loc 1 184 4 view .LVU70
 331              	.LBE906:
ARM GAS  /var/folders/wz/z09yph4n0qj4t7mjxhl6ttn80000gn/T//ccPO7ASC.s 			page 22


 332              	.LBE905:
 333              	.LBE904:
 286:/Library/DaisyToolchain/0.2.0/arm/arm-none-eabi/include/c++/10.3.1/bits/std_function.h **** 
 334              		.loc 1 286 7 view .LVU71
 335 0008 0020     		movs	r0, #0
 336              	.LVL24:
 286:/Library/DaisyToolchain/0.2.0/arm/arm-none-eabi/include/c++/10.3.1/bits/std_function.h **** 
 337              		.loc 1 286 7 view .LVU72
 338 000a 7047     		bx	lr
 339              	.LVL25:
 340              	.L16:
  87:/Library/DaisyToolchain/0.2.0/arm/arm-none-eabi/include/c++/10.3.1/bits/std_function.h ****     const void* _M_access() const { return &_M_pod_data[0]; }
 341              		.loc 1 87 37 is_stmt 1 view .LVU73
 342              	.LBB914:
 343              	.LBI914:
 136:/Library/DaisyToolchain/0.2.0/arm/arm-none-eabi/include/c++/10.3.1/bits/std_function.h **** 	{
 344              		.loc 1 136 2 view .LVU74
 345              	.LBB915:
 346              	.LBB916:
 347              	.LBI916:
  97:/Library/DaisyToolchain/0.2.0/arm/arm-none-eabi/include/c++/10.3.1/bits/std_function.h ****       { return *static_cast<const _Tp*>(_M_access()); }
 348              		.loc 1 97 7 view .LVU75
 349              	.LBB917:
 350              	.LBI917:
  88:/Library/DaisyToolchain/0.2.0/arm/arm-none-eabi/include/c++/10.3.1/bits/std_function.h **** 
 351              		.loc 1 88 17 view .LVU76
 352              	.LBB918:
  88:/Library/DaisyToolchain/0.2.0/arm/arm-none-eabi/include/c++/10.3.1/bits/std_function.h **** 
 353              		.loc 1 88 37 view .LVU77
  88:/Library/DaisyToolchain/0.2.0/arm/arm-none-eabi/include/c++/10.3.1/bits/std_function.h **** 
 354              		.loc 1 88 37 is_stmt 0 view .LVU78
 355              	.LBE918:
 356              	.LBE917:
 357              	.LBE916:
 358              	.LBE915:
 359              	.LBE914:
 279:/Library/DaisyToolchain/0.2.0/arm/arm-none-eabi/include/c++/10.3.1/bits/std_function.h **** 	    break;
 360              		.loc 1 279 36 view .LVU79
 361 000c 0160     		str	r1, [r0]
 286:/Library/DaisyToolchain/0.2.0/arm/arm-none-eabi/include/c++/10.3.1/bits/std_function.h **** 
 362              		.loc 1 286 7 view .LVU80
 363 000e 0020     		movs	r0, #0
 364              	.LVL26:
 286:/Library/DaisyToolchain/0.2.0/arm/arm-none-eabi/include/c++/10.3.1/bits/std_function.h **** 
 365              		.loc 1 286 7 view .LVU81
 366 0010 7047     		bx	lr
 367              	.LVL27:
 368              	.L17:
 369              	.LBB919:
 370              	.LBB912:
 371              	.LBB910:
 372              	.LBB907:
 373              	.LBI907:
 150:/Library/DaisyToolchain/0.2.0/arm/arm-none-eabi/include/c++/10.3.1/bits/std_function.h **** 	{
 374              		.loc 1 150 2 is_stmt 1 view .LVU82
 150:/Library/DaisyToolchain/0.2.0/arm/arm-none-eabi/include/c++/10.3.1/bits/std_function.h **** 	{
 375              		.loc 1 150 2 is_stmt 0 view .LVU83
ARM GAS  /var/folders/wz/z09yph4n0qj4t7mjxhl6ttn80000gn/T//ccPO7ASC.s 			page 23


 376              	.LBE907:
 377              	.LBE910:
 378              	.LBE912:
 379              	.LBE919:
  88:/Library/DaisyToolchain/0.2.0/arm/arm-none-eabi/include/c++/10.3.1/bits/std_function.h **** 
 380              		.loc 1 88 37 is_stmt 1 view .LVU84
  87:/Library/DaisyToolchain/0.2.0/arm/arm-none-eabi/include/c++/10.3.1/bits/std_function.h ****     const void* _M_access() const { return &_M_pod_data[0]; }
 381              		.loc 1 87 37 view .LVU85
 382              		.loc 5 175 3 view .LVU86
 383              	.LBB920:
 384              	.LBB913:
 385              	.LBB911:
 386              	.LBB909:
 387              	.LBB908:
 152:/Library/DaisyToolchain/0.2.0/arm/arm-none-eabi/include/c++/10.3.1/bits/std_function.h **** 	}
 388              		.loc 1 152 4 is_stmt 0 view .LVU87
 389 0012 0B68     		ldr	r3, [r1]
 390 0014 0360     		str	r3, [r0]
 391              	.LVL28:
 152:/Library/DaisyToolchain/0.2.0/arm/arm-none-eabi/include/c++/10.3.1/bits/std_function.h **** 	}
 392              		.loc 1 152 4 view .LVU88
 393              	.LBE908:
 394              	.LBE909:
 395              	.LBE911:
 396              	.LBE913:
 397              	.LBE920:
 286:/Library/DaisyToolchain/0.2.0/arm/arm-none-eabi/include/c++/10.3.1/bits/std_function.h **** 
 398              		.loc 1 286 7 view .LVU89
 399 0016 0020     		movs	r0, #0
 400              	.LVL29:
 286:/Library/DaisyToolchain/0.2.0/arm/arm-none-eabi/include/c++/10.3.1/bits/std_function.h **** 
 401              		.loc 1 286 7 view .LVU90
 402 0018 7047     		bx	lr
 403              		.cfi_endproc
 404              	.LFE6147:
 406 001a 00BF     		.section	.text._ZNSt17_Function_handlerIFviEZN10PitchShift4initEPN5daisy9DaisySeedEEUliE_E9_M_invo
 407              		.align	1
 408              		.p2align 2,,3
 409              		.syntax unified
 410              		.thumb
 411              		.thumb_func
 413              	_ZNSt17_Function_handlerIFviEZN10PitchShift4initEPN5daisy9DaisySeedEEUliE_E9_M_invokeERKSt9_Any_dat
 414              	.LVL30:
 415              	.LFB6129:
 289:/Library/DaisyToolchain/0.2.0/arm/arm-none-eabi/include/c++/10.3.1/bits/std_function.h ****       {
 416              		.loc 1 289 7 is_stmt 1 view -0
 417              		.cfi_startproc
 418              		@ args = 0, pretend = 0, frame = 8
 419              		@ frame_needed = 0, uses_anonymous_args = 0
  88:/Library/DaisyToolchain/0.2.0/arm/arm-none-eabi/include/c++/10.3.1/bits/std_function.h **** 
 420              		.loc 1 88 37 view .LVU92
 421              	.LBB929:
 422              	.LBI929:
 423              		.loc 2 148 5 view .LVU93
 424              	.LBB930:
 425              	.LBB931:
 426              	.LBI931:
ARM GAS  /var/folders/wz/z09yph4n0qj4t7mjxhl6ttn80000gn/T//ccPO7ASC.s 			page 24


  59:/Library/DaisyToolchain/0.2.0/arm/arm-none-eabi/include/c++/10.3.1/bits/invoke.h ****     { return std::forward<_Fn>(__f)(std::forward<_Args>(__args)...); }
 427              		.loc 2 59 5 view .LVU94
 428              	.LBB932:
 429              	.LBB933:
 430              	.LBI933:
  14:DSP/FX/PitchShift.cpp ****     timbre.init(seed, 0, 1, LINEAR, ChannelIDs::AMP3, [this] (u_int32_t t) { shifter.SetDelSize(t);
 431              		.loc 4 14 58 view .LVU95
 432              	.LBB934:
  14:DSP/FX/PitchShift.cpp ****     timbre.init(seed, 0, 1, LINEAR, ChannelIDs::AMP3, [this] (u_int32_t t) { shifter.SetDelSize(t);
 433              		.loc 4 14 75 view .LVU96
 434              	.LBE934:
 435              	.LBE933:
 436              	.LBE932:
 437              	.LBE931:
 438              	.LBE930:
 439              	.LBE929:
 289:/Library/DaisyToolchain/0.2.0/arm/arm-none-eabi/include/c++/10.3.1/bits/std_function.h ****       {
 440              		.loc 1 289 7 is_stmt 0 view .LVU97
 441 0000 70B5     		push	{r4, r5, r6, lr}
 442              		.cfi_def_cfa_offset 16
 443              		.cfi_offset 4, -16
 444              		.cfi_offset 5, -12
 445              		.cfi_offset 6, -8
 446              		.cfi_offset 14, -4
 447              	.LBB956:
 448              	.LBB953:
 449              	.LBB950:
 450              	.LBB947:
 451              	.LBB944:
 452              	.LBB941:
  14:DSP/FX/PitchShift.cpp ****     timbre.init(seed, 0, 1, LINEAR, ChannelIDs::AMP3, [this] (u_int32_t t) { shifter.SetDelSize(t);
 453              		.loc 4 14 71 view .LVU98
 454 0002 0568     		ldr	r5, [r0]
 455              	.LBE941:
 456              	.LBE944:
 457              	.LBE947:
 458              	.LBE950:
 459              	.LBE953:
 460              	.LBE956:
 289:/Library/DaisyToolchain/0.2.0/arm/arm-none-eabi/include/c++/10.3.1/bits/std_function.h ****       {
 461              		.loc 1 289 7 view .LVU99
 462 0004 82B0     		sub	sp, sp, #8
 463              		.cfi_def_cfa_offset 24
 464              	.LBB957:
 465              	.LBB954:
 466              	.LBB951:
 467              	.LBB948:
 468              	.LBB945:
 469              	.LBB942:
  14:DSP/FX/PitchShift.cpp ****     timbre.init(seed, 0, 1, LINEAR, ChannelIDs::AMP3, [this] (u_int32_t t) { shifter.SetDelSize(t);
 470              		.loc 4 14 99 view .LVU100
 471 0006 D1ED007A 		vldr.32	s15, [r1]	@ int
 472              	.LBB935:
 473              	.LBB936:
 143:../../../DaisySP//Source/Effects/pitchshifter.h ****         {
 474              		.loc 3 143 12 view .LVU101
 475 000a 05F50034 		add	r4, r5, #131072
ARM GAS  /var/folders/wz/z09yph4n0qj4t7mjxhl6ttn80000gn/T//ccPO7ASC.s 			page 25


 476              	.LBE936:
 477              	.LBE935:
  14:DSP/FX/PitchShift.cpp ****     timbre.init(seed, 0, 1, LINEAR, ChannelIDs::AMP3, [this] (u_int32_t t) { shifter.SetDelSize(t);
 478              		.loc 4 14 99 view .LVU102
 479 000e F8EEE77A 		vcvt.f32.s32	s15, s15
 480              	.LVL31:
 481              	.LBB939:
 482              	.LBI935:
 139:../../../DaisySP//Source/Effects/pitchshifter.h ****     {
 483              		.loc 3 139 10 is_stmt 1 view .LVU103
 484              	.LBB937:
 141:../../../DaisySP//Source/Effects/pitchshifter.h ****         uint8_t idx;
 485              		.loc 3 141 9 view .LVU104
 142:../../../DaisySP//Source/Effects/pitchshifter.h ****         if(transpose_ != transpose || force_recalc_)
 486              		.loc 3 142 9 view .LVU105
 143:../../../DaisySP//Source/Effects/pitchshifter.h ****         {
 487              		.loc 3 143 9 view .LVU106
 488 0012 94ED207A 		vldr.32	s14, [r4, #128]
 489 0016 F4EE477A 		vcmp.f32	s15, s14
 490 001a F1EE10FA 		vmrs	APSR_nzcv, FPSCR
 491 001e 03D1     		bne	.L19
 143:../../../DaisySP//Source/Effects/pitchshifter.h ****         {
 492              		.loc 3 143 36 is_stmt 0 view .LVU107
 493 0020 94F84430 		ldrb	r3, [r4, #68]	@ zero_extendqisi2
 494 0024 002B     		cmp	r3, #0
 495 0026 5BD0     		beq	.L18
 496              	.L19:
 145:../../../DaisySP//Source/Effects/pitchshifter.h ****             idx        = (uint8_t)fabsf(transpose);
 497              		.loc 3 145 13 is_stmt 1 view .LVU108
 146:../../../DaisySP//Source/Effects/pitchshifter.h ****             ratio      = semitone_ratios_[idx % 12];
 498              		.loc 3 146 40 is_stmt 0 view .LVU109
 499 0028 F0EEE76A 		vabs.f32	s13, s15
 147:../../../DaisySP//Source/Effects/pitchshifter.h ****             ratio *= (uint8_t)(fabsf(transpose) / 12) + 1;
 500              		.loc 3 147 47 view .LVU110
 501 002c 304A     		ldr	r2, .L28
 148:../../../DaisySP//Source/Effects/pitchshifter.h ****             if(transpose > 0.0f)
 502              		.loc 3 148 49 view .LVU111
 503 002e B2EE085A 		vmov.f32	s10, #1.2e+1
 147:../../../DaisySP//Source/Effects/pitchshifter.h ****             ratio *= (uint8_t)(fabsf(transpose) / 12) + 1;
 504              		.loc 3 147 24 view .LVU112
 505 0032 48F22201 		movw	r1, #32802
 506              	.LVL32:
 149:../../../DaisySP//Source/Effects/pitchshifter.h ****             {
 507              		.loc 3 149 13 view .LVU113
 508 0036 F5EEC07A 		vcmpe.f32	s15, #0
 145:../../../DaisySP//Source/Effects/pitchshifter.h ****             idx        = (uint8_t)fabsf(transpose);
 509              		.loc 3 145 24 view .LVU114
 510 003a C4ED207A 		vstr.32	s15, [r4, #128]
 511              	.LVL33:
 157:../../../DaisySP//Source/Effects/pitchshifter.h ****             if(mod_freq_ < 0.0f)
 512              		.loc 3 157 48 view .LVU115
 513 003e D4ED107A 		vldr.32	s15, [r4, #64]	@ int
 157:../../../DaisySP//Source/Effects/pitchshifter.h ****             if(mod_freq_ < 0.0f)
 514              		.loc 3 157 33 view .LVU116
 515 0042 BFEE007A 		vmov.f32	s14, #-1.0e+0
 148:../../../DaisySP//Source/Effects/pitchshifter.h ****             if(transpose > 0.0f)
 516              		.loc 3 148 49 view .LVU117
ARM GAS  /var/folders/wz/z09yph4n0qj4t7mjxhl6ttn80000gn/T//ccPO7ASC.s 			page 26


 517 0046 C6EE855A 		vdiv.f32	s11, s13, s10
 146:../../../DaisySP//Source/Effects/pitchshifter.h ****             ratio      = semitone_ratios_[idx % 12];
 518              		.loc 3 146 13 is_stmt 1 view .LVU118
 519              	.LVL34:
 147:../../../DaisySP//Source/Effects/pitchshifter.h ****             ratio *= (uint8_t)(fabsf(transpose) / 12) + 1;
 520              		.loc 3 147 13 view .LVU119
 157:../../../DaisySP//Source/Effects/pitchshifter.h ****             if(mod_freq_ < 0.0f)
 521              		.loc 3 157 41 is_stmt 0 view .LVU120
 522 004a 94ED126A 		vldr.32	s12, [r4, #72]
 158:../../../DaisySP//Source/Effects/pitchshifter.h ****             {
 523              		.loc 3 158 13 view .LVU121
 524 004e 9FED295A 		vldr.32	s10, .L28+4
 146:../../../DaisySP//Source/Effects/pitchshifter.h ****             ratio      = semitone_ratios_[idx % 12];
 525              		.loc 3 146 24 view .LVU122
 526 0052 FCEEE66A 		vcvt.u32.f32	s13, s13
 527              	.LVL35:
 149:../../../DaisySP//Source/Effects/pitchshifter.h ****             {
 528              		.loc 3 149 13 view .LVU123
 529 0056 F1EE10FA 		vmrs	APSR_nzcv, FPSCR
 146:../../../DaisySP//Source/Effects/pitchshifter.h ****             ratio      = semitone_ratios_[idx % 12];
 530              		.loc 3 146 24 view .LVU124
 531 005a CDED016A 		vstr.32	s13, [sp, #4]	@ int
 157:../../../DaisySP//Source/Effects/pitchshifter.h ****             if(mod_freq_ < 0.0f)
 532              		.loc 3 157 48 view .LVU125
 533 005e F8EE676A 		vcvt.f32.u32	s13, s15
 147:../../../DaisySP//Source/Effects/pitchshifter.h ****             ratio *= (uint8_t)(fabsf(transpose) / 12) + 1;
 534              		.loc 3 147 47 view .LVU126
 535 0062 9DF80430 		ldrb	r3, [sp, #4]	@ zero_extendqisi2
 536 0066 A2FB0302 		umull	r0, r2, r2, r3
 537              	.LVL36:
 147:../../../DaisySP//Source/Effects/pitchshifter.h ****             ratio *= (uint8_t)(fabsf(transpose) / 12) + 1;
 538              		.loc 3 147 47 view .LVU127
 539 006a 4FEAD202 		lsr	r2, r2, #3
 540 006e 02EB4202 		add	r2, r2, r2, lsl #1
 148:../../../DaisySP//Source/Effects/pitchshifter.h ****             if(transpose > 0.0f)
 541              		.loc 3 148 22 view .LVU128
 542 0072 FCEEE57A 		vcvt.u32.f32	s15, s11
 147:../../../DaisySP//Source/Effects/pitchshifter.h ****             ratio *= (uint8_t)(fabsf(transpose) / 12) + 1;
 543              		.loc 3 147 47 view .LVU129
 544 0076 A3EB8203 		sub	r3, r3, r2, lsl #2
 149:../../../DaisySP//Source/Effects/pitchshifter.h ****             {
 545              		.loc 3 149 13 view .LVU130
 546 007a CCBF     		ite	gt
 547 007c 0122     		movgt	r2, #1
 548 007e 0022     		movle	r2, #0
 147:../../../DaisySP//Source/Effects/pitchshifter.h ****             ratio *= (uint8_t)(fabsf(transpose) / 12) + 1;
 549              		.loc 3 147 24 view .LVU131
 550 0080 51FA83F3 		uxtab	r3, r1, r3
 148:../../../DaisySP//Source/Effects/pitchshifter.h ****             if(transpose > 0.0f)
 551              		.loc 3 148 22 view .LVU132
 552 0084 CDED017A 		vstr.32	s15, [sp, #4]	@ int
 147:../../../DaisySP//Source/Effects/pitchshifter.h ****             ratio *= (uint8_t)(fabsf(transpose) / 12) + 1;
 553              		.loc 3 147 24 view .LVU133
 554 0088 05EB8303 		add	r3, r5, r3, lsl #2
 555 008c D3ED085A 		vldr.32	s11, [r3, #32]
 556              	.LVL37:
 148:../../../DaisySP//Source/Effects/pitchshifter.h ****             if(transpose > 0.0f)
ARM GAS  /var/folders/wz/z09yph4n0qj4t7mjxhl6ttn80000gn/T//ccPO7ASC.s 			page 27


 557              		.loc 3 148 13 is_stmt 1 view .LVU134
 149:../../../DaisySP//Source/Effects/pitchshifter.h ****             {
 558              		.loc 3 149 13 view .LVU135
 148:../../../DaisySP//Source/Effects/pitchshifter.h ****             if(transpose > 0.0f)
 559              		.loc 3 148 22 is_stmt 0 view .LVU136
 560 0090 9DF80430 		ldrb	r3, [sp, #4]	@ zero_extendqisi2
 149:../../../DaisySP//Source/Effects/pitchshifter.h ****             {
 561              		.loc 3 149 13 view .LVU137
 562 0094 84F84C20 		strb	r2, [r4, #76]
 157:../../../DaisySP//Source/Effects/pitchshifter.h ****             if(mod_freq_ < 0.0f)
 563              		.loc 3 157 13 is_stmt 1 view .LVU138
 148:../../../DaisySP//Source/Effects/pitchshifter.h ****             if(transpose > 0.0f)
 564              		.loc 3 148 55 is_stmt 0 view .LVU139
 565 0098 0133     		adds	r3, r3, #1
 148:../../../DaisySP//Source/Effects/pitchshifter.h ****             if(transpose > 0.0f)
 566              		.loc 3 148 19 view .LVU140
 567 009a 07EE903A 		vmov	s15, r3	@ int
 568 009e F8EEE77A 		vcvt.f32.s32	s15, s15
 157:../../../DaisySP//Source/Effects/pitchshifter.h ****             if(mod_freq_ < 0.0f)
 569              		.loc 3 157 33 view .LVU141
 570 00a2 A5EEA77A 		vfma.f32	s14, s11, s15
 157:../../../DaisySP//Source/Effects/pitchshifter.h ****             if(mod_freq_ < 0.0f)
 571              		.loc 3 157 41 view .LVU142
 572 00a6 67EE067A 		vmul.f32	s15, s14, s12
 157:../../../DaisySP//Source/Effects/pitchshifter.h ****             if(mod_freq_ < 0.0f)
 573              		.loc 3 157 48 view .LVU143
 574 00aa 87EEA60A 		vdiv.f32	s0, s15, s13
 158:../../../DaisySP//Source/Effects/pitchshifter.h ****             {
 575              		.loc 3 158 13 is_stmt 1 view .LVU144
 576 00ae B4EEC50A 		vcmpe.f32	s0, s10
 577 00b2 F1EE10FA 		vmrs	APSR_nzcv, FPSCR
 578 00b6 15D4     		bmi	.L21
 157:../../../DaisySP//Source/Effects/pitchshifter.h ****             if(mod_freq_ < 0.0f)
 579              		.loc 3 157 23 is_stmt 0 view .LVU145
 580 00b8 84ED0F0A 		vstr.32	s0, [r4, #60]
 581              	.L22:
 162:../../../DaisySP//Source/Effects/pitchshifter.h ****             phs_[1].SetFreq(mod_freq_);
 582              		.loc 3 162 13 is_stmt 1 view .LVU146
 162:../../../DaisySP//Source/Effects/pitchshifter.h ****             phs_[1].SetFreq(mod_freq_);
 583              		.loc 3 162 28 is_stmt 0 view .LVU147
 584 00bc 0E48     		ldr	r0, .L28+8
 585 00be 05F12006 		add	r6, r5, #32
 586 00c2 2844     		add	r0, r0, r5
 587 00c4 FFF7FEFF 		bl	_ZN7daisysp6Phasor7SetFreqEf
 588              	.LVL38:
 163:../../../DaisySP//Source/Effects/pitchshifter.h ****             if(force_recalc_)
 589              		.loc 3 163 13 is_stmt 1 view .LVU148
 163:../../../DaisySP//Source/Effects/pitchshifter.h ****             if(force_recalc_)
 590              		.loc 3 163 28 is_stmt 0 view .LVU149
 591 00c8 0C48     		ldr	r0, .L28+12
 592 00ca 94ED0F0A 		vldr.32	s0, [r4, #60]
 593 00ce 3044     		add	r0, r0, r6
 594 00d0 FFF7FEFF 		bl	_ZN7daisysp6Phasor7SetFreqEf
 595              	.LVL39:
 164:../../../DaisySP//Source/Effects/pitchshifter.h ****             {
 596              		.loc 3 164 13 is_stmt 1 view .LVU150
 597 00d4 94F84430 		ldrb	r3, [r4, #68]	@ zero_extendqisi2
ARM GAS  /var/folders/wz/z09yph4n0qj4t7mjxhl6ttn80000gn/T//ccPO7ASC.s 			page 28


 598 00d8 13B1     		cbz	r3, .L18
 166:../../../DaisySP//Source/Effects/pitchshifter.h ****             }
 599              		.loc 3 166 17 view .LVU151
 166:../../../DaisySP//Source/Effects/pitchshifter.h ****             }
 600              		.loc 3 166 31 is_stmt 0 view .LVU152
 601 00da 0023     		movs	r3, #0
 602 00dc 84F84430 		strb	r3, [r4, #68]
 603              	.LVL40:
 604              	.L18:
 166:../../../DaisySP//Source/Effects/pitchshifter.h ****             }
 605              		.loc 3 166 31 view .LVU153
 606              	.LBE937:
 607              	.LBE939:
 608              	.LBE942:
 609              	.LBE945:
 610              	.LBE948:
 611              	.LBE951:
 612              	.LBE954:
 613              	.LBE957:
 614              		.loc 1 293 7 view .LVU154
 615 00e0 02B0     		add	sp, sp, #8
 616              		.cfi_remember_state
 617              		.cfi_def_cfa_offset 16
 618              		@ sp needed
 619 00e2 70BD     		pop	{r4, r5, r6, pc}
 620              	.LVL41:
 621              	.L21:
 622              		.cfi_restore_state
 623              	.LBB958:
 624              	.LBB955:
 625              	.LBB952:
 626              	.LBB949:
 627              	.LBB946:
 628              	.LBB943:
 629              	.LBB940:
 630              	.LBB938:
 160:../../../DaisySP//Source/Effects/pitchshifter.h ****             }
 631              		.loc 3 160 17 is_stmt 1 view .LVU155
 632 00e4 B0EE450A 		vmov.f32	s0, s10
 160:../../../DaisySP//Source/Effects/pitchshifter.h ****             }
 633              		.loc 3 160 27 is_stmt 0 view .LVU156
 634 00e8 84ED0F5A 		vstr.32	s10, [r4, #60]
 635 00ec E6E7     		b	.L22
 636              	.L29:
 637 00ee 00BF     		.align	2
 638              	.L28:
 639 00f0 ABAAAAAA 		.word	-1431655765
 640 00f4 00000000 		.word	0
 641 00f8 50000200 		.word	131152
 642 00fc 40000200 		.word	131136
 643              	.LBE938:
 644              	.LBE940:
 645              	.LBE943:
 646              	.LBE946:
 647              	.LBE949:
 648              	.LBE952:
 649              	.LBE955:
ARM GAS  /var/folders/wz/z09yph4n0qj4t7mjxhl6ttn80000gn/T//ccPO7ASC.s 			page 29


 650              	.LBE958:
 651              		.cfi_endproc
 652              	.LFE6129:
 654              		.section	.text._ZNSt17_Function_handlerIFvmEZN10PitchShift4initEPN5daisy9DaisySeedEEUlmE0_E9_M_inv
 655              		.align	1
 656              		.p2align 2,,3
 657              		.syntax unified
 658              		.thumb
 659              		.thumb_func
 661              	_ZNSt17_Function_handlerIFvmEZN10PitchShift4initEPN5daisy9DaisySeedEEUlmE0_E9_M_invokeERKSt9_Any_da
 662              	.LVL42:
 663              	.LFB6137:
 289:/Library/DaisyToolchain/0.2.0/arm/arm-none-eabi/include/c++/10.3.1/bits/std_function.h ****       {
 664              		.loc 1 289 7 is_stmt 1 view -0
 665              		.cfi_startproc
 666              		@ args = 0, pretend = 0, frame = 8
 667              		@ frame_needed = 0, uses_anonymous_args = 0
  88:/Library/DaisyToolchain/0.2.0/arm/arm-none-eabi/include/c++/10.3.1/bits/std_function.h **** 
 668              		.loc 1 88 37 view .LVU158
 289:/Library/DaisyToolchain/0.2.0/arm/arm-none-eabi/include/c++/10.3.1/bits/std_function.h ****       {
 669              		.loc 1 289 7 is_stmt 0 view .LVU159
 670 0000 70B5     		push	{r4, r5, r6, lr}
 671              		.cfi_def_cfa_offset 16
 672              		.cfi_offset 4, -16
 673              		.cfi_offset 5, -12
 674              		.cfi_offset 6, -8
 675              		.cfi_offset 14, -4
 676              	.LBB969:
 677              	.LBB970:
 678              	.LBB971:
 679              	.LBB972:
 680              	.LBB973:
 681              	.LBB974:
  15:DSP/FX/PitchShift.cpp ****     rand.init(seed, 0, 1, LINEAR, ChannelIDs::AMP4, [this] (float r) { shifter.SetFun(r); });
 682              		.loc 4 15 74 view .LVU160
 683 0002 0568     		ldr	r5, [r0]
 684              	.LBB975:
 685              	.LBB976:
 686              	.LBB977:
 687              	.LBB978:
 148:../../../DaisySP//Source/Effects/pitchshifter.h ****             if(transpose > 0.0f)
 688              		.loc 3 148 49 view .LVU161
 689 0004 F2EE084A 		vmov.f32	s9, #1.2e+1
 690              	.LBE978:
 691              	.LBE977:
 175:../../../DaisySP//Source/Effects/pitchshifter.h ****         force_recalc_ = true;
 692              		.loc 3 175 50 view .LVU162
 693 0008 0968     		ldr	r1, [r1]
 694              	.LVL43:
 175:../../../DaisySP//Source/Effects/pitchshifter.h ****         force_recalc_ = true;
 695              		.loc 3 175 50 view .LVU163
 696              	.LBE976:
 697              	.LBE975:
 698              	.LBE974:
 699              	.LBE973:
 700              	.LBE972:
 701              	.LBE971:
ARM GAS  /var/folders/wz/z09yph4n0qj4t7mjxhl6ttn80000gn/T//ccPO7ASC.s 			page 30


 702              	.LBE970:
 703              	.LBE969:
 289:/Library/DaisyToolchain/0.2.0/arm/arm-none-eabi/include/c++/10.3.1/bits/std_function.h ****       {
 704              		.loc 1 289 7 view .LVU164
 705 000a 82B0     		sub	sp, sp, #8
 706              		.cfi_def_cfa_offset 24
 707              	.LBB1014:
 708              	.LBB1011:
 709              	.LBB1008:
 710              	.LBB1005:
 711              	.LBB1002:
 712              	.LBB999:
 713              	.LBB996:
 714              	.LBB993:
 175:../../../DaisySP//Source/Effects/pitchshifter.h ****         force_recalc_ = true;
 715              		.loc 3 175 23 view .LVU165
 716 000c 05F50034 		add	r4, r5, #131072
 717              	.LBB986:
 718              	.LBB979:
 158:../../../DaisySP//Source/Effects/pitchshifter.h ****             {
 719              		.loc 3 158 13 view .LVU166
 720 0010 9FED354A 		vldr.32	s8, .L38
 721              	.LBE979:
 722              	.LBE986:
 175:../../../DaisySP//Source/Effects/pitchshifter.h ****         force_recalc_ = true;
 723              		.loc 3 175 50 view .LVU167
 724 0014 B1F5804F 		cmp	r1, #16384
 176:../../../DaisySP//Source/Effects/pitchshifter.h ****         SetTransposition(transpose_);
 725              		.loc 3 176 23 view .LVU168
 726 0018 4FF00103 		mov	r3, #1
 727 001c D4ED206A 		vldr.32	s13, [r4, #128]
 728              	.LBB987:
 729              	.LBB980:
 147:../../../DaisySP//Source/Effects/pitchshifter.h ****             ratio *= (uint8_t)(fabsf(transpose) / 12) + 1;
 730              		.loc 3 147 24 view .LVU169
 731 0020 48F2220C 		movw	ip, #32802
 732              	.LBE980:
 733              	.LBE987:
 175:../../../DaisySP//Source/Effects/pitchshifter.h ****         force_recalc_ = true;
 734              		.loc 3 175 50 view .LVU170
 735 0024 28BF     		it	cs
 736 0026 4FF48041 		movcs	r1, #16384
 737              	.LBB988:
 738              	.LBB981:
 147:../../../DaisySP//Source/Effects/pitchshifter.h ****             ratio *= (uint8_t)(fabsf(transpose) / 12) + 1;
 739              		.loc 3 147 47 view .LVU171
 740 002a 304A     		ldr	r2, .L38+4
 146:../../../DaisySP//Source/Effects/pitchshifter.h ****             ratio      = semitone_ratios_[idx % 12];
 741              		.loc 3 146 40 view .LVU172
 742 002c B0EEE66A 		vabs.f32	s12, s13
 743              	.LBE981:
 744              	.LBE988:
 176:../../../DaisySP//Source/Effects/pitchshifter.h ****         SetTransposition(transpose_);
 745              		.loc 3 176 23 view .LVU173
 746 0030 84F84430 		strb	r3, [r4, #68]
 747              	.LBB989:
 748              	.LBB982:
ARM GAS  /var/folders/wz/z09yph4n0qj4t7mjxhl6ttn80000gn/T//ccPO7ASC.s 			page 31


 157:../../../DaisySP//Source/Effects/pitchshifter.h ****             if(mod_freq_ < 0.0f)
 749              		.loc 3 157 48 view .LVU174
 750 0034 07EE901A 		vmov	s15, r1	@ int
 149:../../../DaisySP//Source/Effects/pitchshifter.h ****             {
 751              		.loc 3 149 13 view .LVU175
 752 0038 F4EEC46A 		vcmpe.f32	s13, s8
 753              	.LBE982:
 754              	.LBE989:
 175:../../../DaisySP//Source/Effects/pitchshifter.h ****         force_recalc_ = true;
 755              		.loc 3 175 23 view .LVU176
 756 003c 2164     		str	r1, [r4, #64]
 757              	.LBB990:
 758              	.LBB983:
 157:../../../DaisySP//Source/Effects/pitchshifter.h ****             if(mod_freq_ < 0.0f)
 759              		.loc 3 157 33 view .LVU177
 760 003e BFEE007A 		vmov.f32	s14, #-1.0e+0
 761              	.LBE983:
 762              	.LBE990:
 763              	.LBE993:
 764              	.LBE996:
 765              	.LBE999:
 766              	.LBE1002:
 767              	.LBE1005:
 768              	.LBE1008:
 769              	.LBE1011:
 770              	.LBI969:
 771              		.loc 2 148 5 is_stmt 1 view .LVU178
 772              	.LVL44:
 773              	.LBB1012:
 774              	.LBB1009:
 775              	.LBI971:
  59:/Library/DaisyToolchain/0.2.0/arm/arm-none-eabi/include/c++/10.3.1/bits/invoke.h ****     { return std::forward<_Fn>(__f)(std::forward<_Args>(__args)...); }
 776              		.loc 2 59 5 view .LVU179
 777              	.LBB1006:
 778              	.LBB1003:
 779              	.LBI973:
  15:DSP/FX/PitchShift.cpp ****     rand.init(seed, 0, 1, LINEAR, ChannelIDs::AMP4, [this] (float r) { shifter.SetFun(r); });
 780              		.loc 4 15 55 view .LVU180
 781              	.LBB1000:
  15:DSP/FX/PitchShift.cpp ****     rand.init(seed, 0, 1, LINEAR, ChannelIDs::AMP4, [this] (float r) { shifter.SetFun(r); });
 782              		.loc 4 15 78 view .LVU181
 783              	.LBB997:
 784              	.LBI975:
 173:../../../DaisySP//Source/Effects/pitchshifter.h ****     {
 785              		.loc 3 173 10 view .LVU182
 786              	.LBB994:
 175:../../../DaisySP//Source/Effects/pitchshifter.h ****         force_recalc_ = true;
 787              		.loc 3 175 9 view .LVU183
 176:../../../DaisySP//Source/Effects/pitchshifter.h ****         SetTransposition(transpose_);
 788              		.loc 3 176 9 view .LVU184
 177:../../../DaisySP//Source/Effects/pitchshifter.h ****     }
 789              		.loc 3 177 9 view .LVU185
 790              	.LBB991:
 791              	.LBI977:
 139:../../../DaisySP//Source/Effects/pitchshifter.h ****     {
 792              		.loc 3 139 10 view .LVU186
 793              	.LBB984:
ARM GAS  /var/folders/wz/z09yph4n0qj4t7mjxhl6ttn80000gn/T//ccPO7ASC.s 			page 32


 141:../../../DaisySP//Source/Effects/pitchshifter.h ****         uint8_t idx;
 794              		.loc 3 141 9 view .LVU187
 142:../../../DaisySP//Source/Effects/pitchshifter.h ****         if(transpose_ != transpose || force_recalc_)
 795              		.loc 3 142 9 view .LVU188
 143:../../../DaisySP//Source/Effects/pitchshifter.h ****         {
 796              		.loc 3 143 9 view .LVU189
 145:../../../DaisySP//Source/Effects/pitchshifter.h ****             idx        = (uint8_t)fabsf(transpose);
 797              		.loc 3 145 13 view .LVU190
 146:../../../DaisySP//Source/Effects/pitchshifter.h ****             ratio      = semitone_ratios_[idx % 12];
 798              		.loc 3 146 13 view .LVU191
 147:../../../DaisySP//Source/Effects/pitchshifter.h ****             ratio *= (uint8_t)(fabsf(transpose) / 12) + 1;
 799              		.loc 3 147 13 view .LVU192
 157:../../../DaisySP//Source/Effects/pitchshifter.h ****             if(mod_freq_ < 0.0f)
 800              		.loc 3 157 48 is_stmt 0 view .LVU193
 801 0042 F8EEE75A 		vcvt.f32.s32	s11, s15
 157:../../../DaisySP//Source/Effects/pitchshifter.h ****             if(mod_freq_ < 0.0f)
 802              		.loc 3 157 41 view .LVU194
 803 0046 94ED125A 		vldr.32	s10, [r4, #72]
 148:../../../DaisySP//Source/Effects/pitchshifter.h ****             if(transpose > 0.0f)
 804              		.loc 3 148 49 view .LVU195
 805 004a C6EE247A 		vdiv.f32	s15, s12, s9
 146:../../../DaisySP//Source/Effects/pitchshifter.h ****             ratio      = semitone_ratios_[idx % 12];
 806              		.loc 3 146 24 view .LVU196
 807 004e FCEEC66A 		vcvt.u32.f32	s13, s12
 149:../../../DaisySP//Source/Effects/pitchshifter.h ****             {
 808              		.loc 3 149 13 view .LVU197
 809 0052 F1EE10FA 		vmrs	APSR_nzcv, FPSCR
 146:../../../DaisySP//Source/Effects/pitchshifter.h ****             ratio      = semitone_ratios_[idx % 12];
 810              		.loc 3 146 24 view .LVU198
 811 0056 CDED016A 		vstr.32	s13, [sp, #4]	@ int
 147:../../../DaisySP//Source/Effects/pitchshifter.h ****             ratio *= (uint8_t)(fabsf(transpose) / 12) + 1;
 812              		.loc 3 147 47 view .LVU199
 813 005a 9DF80430 		ldrb	r3, [sp, #4]	@ zero_extendqisi2
 814 005e A2FB0312 		umull	r1, r2, r2, r3
 815 0062 4FEAD202 		lsr	r2, r2, #3
 816 0066 02EB4202 		add	r2, r2, r2, lsl #1
 148:../../../DaisySP//Source/Effects/pitchshifter.h ****             if(transpose > 0.0f)
 817              		.loc 3 148 22 view .LVU200
 818 006a FCEEE77A 		vcvt.u32.f32	s15, s15
 147:../../../DaisySP//Source/Effects/pitchshifter.h ****             ratio *= (uint8_t)(fabsf(transpose) / 12) + 1;
 819              		.loc 3 147 47 view .LVU201
 820 006e A3EB8203 		sub	r3, r3, r2, lsl #2
 149:../../../DaisySP//Source/Effects/pitchshifter.h ****             {
 821              		.loc 3 149 13 view .LVU202
 822 0072 CCBF     		ite	gt
 823 0074 0122     		movgt	r2, #1
 824 0076 0022     		movle	r2, #0
 147:../../../DaisySP//Source/Effects/pitchshifter.h ****             ratio *= (uint8_t)(fabsf(transpose) / 12) + 1;
 825              		.loc 3 147 24 view .LVU203
 826 0078 5CFA83F3 		uxtab	r3, ip, r3
 148:../../../DaisySP//Source/Effects/pitchshifter.h ****             if(transpose > 0.0f)
 827              		.loc 3 148 22 view .LVU204
 828 007c CDED017A 		vstr.32	s15, [sp, #4]	@ int
 147:../../../DaisySP//Source/Effects/pitchshifter.h ****             ratio *= (uint8_t)(fabsf(transpose) / 12) + 1;
 829              		.loc 3 147 24 view .LVU205
 830 0080 05EB8303 		add	r3, r5, r3, lsl #2
 831 0084 D3ED086A 		vldr.32	s13, [r3, #32]
ARM GAS  /var/folders/wz/z09yph4n0qj4t7mjxhl6ttn80000gn/T//ccPO7ASC.s 			page 33


 832              	.LVL45:
 148:../../../DaisySP//Source/Effects/pitchshifter.h ****             if(transpose > 0.0f)
 833              		.loc 3 148 13 is_stmt 1 view .LVU206
 149:../../../DaisySP//Source/Effects/pitchshifter.h ****             {
 834              		.loc 3 149 13 view .LVU207
 148:../../../DaisySP//Source/Effects/pitchshifter.h ****             if(transpose > 0.0f)
 835              		.loc 3 148 22 is_stmt 0 view .LVU208
 836 0088 9DF80430 		ldrb	r3, [sp, #4]	@ zero_extendqisi2
 149:../../../DaisySP//Source/Effects/pitchshifter.h ****             {
 837              		.loc 3 149 13 view .LVU209
 838 008c 84F84C20 		strb	r2, [r4, #76]
 157:../../../DaisySP//Source/Effects/pitchshifter.h ****             if(mod_freq_ < 0.0f)
 839              		.loc 3 157 13 is_stmt 1 view .LVU210
 148:../../../DaisySP//Source/Effects/pitchshifter.h ****             if(transpose > 0.0f)
 840              		.loc 3 148 55 is_stmt 0 view .LVU211
 841 0090 0133     		adds	r3, r3, #1
 148:../../../DaisySP//Source/Effects/pitchshifter.h ****             if(transpose > 0.0f)
 842              		.loc 3 148 19 view .LVU212
 843 0092 07EE903A 		vmov	s15, r3	@ int
 844 0096 F8EEE77A 		vcvt.f32.s32	s15, s15
 157:../../../DaisySP//Source/Effects/pitchshifter.h ****             if(mod_freq_ < 0.0f)
 845              		.loc 3 157 33 view .LVU213
 846 009a A6EEA77A 		vfma.f32	s14, s13, s15
 157:../../../DaisySP//Source/Effects/pitchshifter.h ****             if(mod_freq_ < 0.0f)
 847              		.loc 3 157 41 view .LVU214
 848 009e 67EE057A 		vmul.f32	s15, s14, s10
 157:../../../DaisySP//Source/Effects/pitchshifter.h ****             if(mod_freq_ < 0.0f)
 849              		.loc 3 157 48 view .LVU215
 850 00a2 87EEA50A 		vdiv.f32	s0, s15, s11
 158:../../../DaisySP//Source/Effects/pitchshifter.h ****             {
 851              		.loc 3 158 13 is_stmt 1 view .LVU216
 852 00a6 B4EEC40A 		vcmpe.f32	s0, s8
 853 00aa F1EE10FA 		vmrs	APSR_nzcv, FPSCR
 854 00ae 15D4     		bmi	.L31
 157:../../../DaisySP//Source/Effects/pitchshifter.h ****             if(mod_freq_ < 0.0f)
 855              		.loc 3 157 23 is_stmt 0 view .LVU217
 856 00b0 84ED0F0A 		vstr.32	s0, [r4, #60]
 857              	.L32:
 162:../../../DaisySP//Source/Effects/pitchshifter.h ****             phs_[1].SetFreq(mod_freq_);
 858              		.loc 3 162 13 is_stmt 1 view .LVU218
 162:../../../DaisySP//Source/Effects/pitchshifter.h ****             phs_[1].SetFreq(mod_freq_);
 859              		.loc 3 162 28 is_stmt 0 view .LVU219
 860 00b4 0E48     		ldr	r0, .L38+8
 861              	.LVL46:
 162:../../../DaisySP//Source/Effects/pitchshifter.h ****             phs_[1].SetFreq(mod_freq_);
 862              		.loc 3 162 28 view .LVU220
 863 00b6 05F12006 		add	r6, r5, #32
 864 00ba 2844     		add	r0, r0, r5
 865 00bc FFF7FEFF 		bl	_ZN7daisysp6Phasor7SetFreqEf
 866              	.LVL47:
 163:../../../DaisySP//Source/Effects/pitchshifter.h ****             if(force_recalc_)
 867              		.loc 3 163 13 is_stmt 1 view .LVU221
 163:../../../DaisySP//Source/Effects/pitchshifter.h ****             if(force_recalc_)
 868              		.loc 3 163 28 is_stmt 0 view .LVU222
 869 00c0 0C48     		ldr	r0, .L38+12
 870 00c2 94ED0F0A 		vldr.32	s0, [r4, #60]
 871 00c6 3044     		add	r0, r0, r6
ARM GAS  /var/folders/wz/z09yph4n0qj4t7mjxhl6ttn80000gn/T//ccPO7ASC.s 			page 34


 872 00c8 FFF7FEFF 		bl	_ZN7daisysp6Phasor7SetFreqEf
 873              	.LVL48:
 164:../../../DaisySP//Source/Effects/pitchshifter.h ****             {
 874              		.loc 3 164 13 is_stmt 1 view .LVU223
 875 00cc 94F84430 		ldrb	r3, [r4, #68]	@ zero_extendqisi2
 876 00d0 13B1     		cbz	r3, .L30
 166:../../../DaisySP//Source/Effects/pitchshifter.h ****             }
 877              		.loc 3 166 17 view .LVU224
 166:../../../DaisySP//Source/Effects/pitchshifter.h ****             }
 878              		.loc 3 166 31 is_stmt 0 view .LVU225
 879 00d2 0023     		movs	r3, #0
 880 00d4 84F84430 		strb	r3, [r4, #68]
 881              	.LVL49:
 882              	.L30:
 166:../../../DaisySP//Source/Effects/pitchshifter.h ****             }
 883              		.loc 3 166 31 view .LVU226
 884              	.LBE984:
 885              	.LBE991:
 886              	.LBE994:
 887              	.LBE997:
 888              	.LBE1000:
 889              	.LBE1003:
 890              	.LBE1006:
 891              	.LBE1009:
 892              	.LBE1012:
 893              	.LBE1014:
 894              		.loc 1 293 7 view .LVU227
 895 00d8 02B0     		add	sp, sp, #8
 896              		.cfi_remember_state
 897              		.cfi_def_cfa_offset 16
 898              		@ sp needed
 899 00da 70BD     		pop	{r4, r5, r6, pc}
 900              	.LVL50:
 901              	.L31:
 902              		.cfi_restore_state
 903              	.LBB1015:
 904              	.LBB1013:
 905              	.LBB1010:
 906              	.LBB1007:
 907              	.LBB1004:
 908              	.LBB1001:
 909              	.LBB998:
 910              	.LBB995:
 911              	.LBB992:
 912              	.LBB985:
 160:../../../DaisySP//Source/Effects/pitchshifter.h ****             }
 913              		.loc 3 160 17 is_stmt 1 view .LVU228
 914 00dc B0EE440A 		vmov.f32	s0, s8
 160:../../../DaisySP//Source/Effects/pitchshifter.h ****             }
 915              		.loc 3 160 27 is_stmt 0 view .LVU229
 916 00e0 84ED0F4A 		vstr.32	s8, [r4, #60]
 917 00e4 E6E7     		b	.L32
 918              	.L39:
 919 00e6 00BF     		.align	2
 920              	.L38:
 921 00e8 00000000 		.word	0
 922 00ec ABAAAAAA 		.word	-1431655765
ARM GAS  /var/folders/wz/z09yph4n0qj4t7mjxhl6ttn80000gn/T//ccPO7ASC.s 			page 35


 923 00f0 50000200 		.word	131152
 924 00f4 40000200 		.word	131136
 925              	.LBE985:
 926              	.LBE992:
 927              	.LBE995:
 928              	.LBE998:
 929              	.LBE1001:
 930              	.LBE1004:
 931              	.LBE1007:
 932              	.LBE1010:
 933              	.LBE1013:
 934              	.LBE1015:
 935              		.cfi_endproc
 936              	.LFE6137:
 938              		.section	.text._ZN10PitchShift4initEPN5daisy9DaisySeedE,"ax",%progbits
 939              		.align	1
 940              		.p2align 2,,3
 941              		.global	_ZN10PitchShift4initEPN5daisy9DaisySeedE
 942              		.syntax unified
 943              		.thumb
 944              		.thumb_func
 946              	_ZN10PitchShift4initEPN5daisy9DaisySeedE:
 947              	.LVL51:
 948              	.LFB5645:
   4:DSP/FX/PitchShift.cpp ****     for(size_t i = 0 ; i < BLOCKLENGTH ; i++)
 949              		.loc 4 4 1 is_stmt 1 view -0
 950              		.cfi_startproc
 951              		@ args = 0, pretend = 0, frame = 48
 952              		@ frame_needed = 0, uses_anonymous_args = 0
   5:DSP/FX/PitchShift.cpp ****     {
 953              		.loc 4 5 5 view .LVU231
 954              	.LBB1231:
   5:DSP/FX/PitchShift.cpp ****     {
 955              		.loc 4 5 26 view .LVU232
   7:DSP/FX/PitchShift.cpp ****         buffer[R][i] = 0.0f;
 956              		.loc 4 7 9 view .LVU233
 957              	.LBE1231:
   4:DSP/FX/PitchShift.cpp ****     for(size_t i = 0 ; i < BLOCKLENGTH ; i++)
 958              		.loc 4 4 1 is_stmt 0 view .LVU234
 959 0000 2DE9F047 		push	{r4, r5, r6, r7, r8, r9, r10, lr}
 960              		.cfi_def_cfa_offset 32
 961              		.cfi_offset 4, -32
 962              		.cfi_offset 5, -28
 963              		.cfi_offset 6, -24
 964              		.cfi_offset 7, -20
 965              		.cfi_offset 8, -16
 966              		.cfi_offset 9, -12
 967              		.cfi_offset 10, -8
 968              		.cfi_offset 14, -4
 969              	.LBB1232:
   7:DSP/FX/PitchShift.cpp ****         buffer[R][i] = 0.0f;
 970              		.loc 4 7 22 view .LVU235
 971 0004 0023     		movs	r3, #0
 972              	.LBE1232:
   4:DSP/FX/PitchShift.cpp ****     for(size_t i = 0 ; i < BLOCKLENGTH ; i++)
 973              		.loc 4 4 1 view .LVU236
 974 0006 0646     		mov	r6, r0
ARM GAS  /var/folders/wz/z09yph4n0qj4t7mjxhl6ttn80000gn/T//ccPO7ASC.s 			page 36


 975 0008 CA4F     		ldr	r7, .L85
 976 000a 8846     		mov	r8, r1
 977              	.LBB1233:
 978              	.LBB1234:
  65:../../../DaisySP//Source/Effects/pitchshifter.h ****         sr_           = sr;
 979              		.loc 3 65 23 view .LVU237
 980 000c 06F50034 		add	r4, r6, #131072
 981 0010 0025     		movs	r5, #0
 982 0012 3744     		add	r7, r7, r6
 983              	.LBE1234:
 984              	.LBE1233:
   4:DSP/FX/PitchShift.cpp ****     for(size_t i = 0 ; i < BLOCKLENGTH ; i++)
 985              		.loc 4 4 1 view .LVU238
 986 0014 2DED028B 		vpush.64	{d8}
 987              		.cfi_def_cfa_offset 40
 988              		.cfi_offset 80, -40
 989              		.cfi_offset 81, -36
 990              	.LBB1300:
   7:DSP/FX/PitchShift.cpp ****         buffer[R][i] = 0.0f;
 991              		.loc 4 7 22 view .LVU239
 992 0018 0360     		str	r3, [r0]	@ float
   8:DSP/FX/PitchShift.cpp ****     }
 993              		.loc 4 8 9 is_stmt 1 view .LVU240
 994              	.LBE1300:
   4:DSP/FX/PitchShift.cpp ****     for(size_t i = 0 ; i < BLOCKLENGTH ; i++)
 995              		.loc 4 4 1 is_stmt 0 view .LVU241
 996 001a 8CB0     		sub	sp, sp, #48
 997              		.cfi_def_cfa_offset 88
 998              	.LBB1301:
   8:DSP/FX/PitchShift.cpp ****     }
 999              		.loc 4 8 22 view .LVU242
 1000 001c 3361     		str	r3, [r6, #16]	@ float
   5:DSP/FX/PitchShift.cpp ****     {
 1001              		.loc 4 5 5 is_stmt 1 view .LVU243
 1002              	.LVL52:
   5:DSP/FX/PitchShift.cpp ****     {
 1003              		.loc 4 5 26 view .LVU244
   7:DSP/FX/PitchShift.cpp ****         buffer[R][i] = 0.0f;
 1004              		.loc 4 7 9 view .LVU245
 1005              	.LBE1301:
  11:DSP/FX/PitchShift.cpp **** 
 1006              		.loc 4 11 17 is_stmt 0 view .LVU246
 1007 001e 0846     		mov	r0, r1
 1008              	.LVL53:
 1009              	.LBB1302:
   7:DSP/FX/PitchShift.cpp ****         buffer[R][i] = 0.0f;
 1010              		.loc 4 7 22 view .LVU247
 1011 0020 7360     		str	r3, [r6, #4]	@ float
   8:DSP/FX/PitchShift.cpp ****     }
 1012              		.loc 4 8 9 is_stmt 1 view .LVU248
   8:DSP/FX/PitchShift.cpp ****     }
 1013              		.loc 4 8 22 is_stmt 0 view .LVU249
 1014 0022 7361     		str	r3, [r6, #20]	@ float
   5:DSP/FX/PitchShift.cpp ****     {
 1015              		.loc 4 5 5 is_stmt 1 view .LVU250
 1016              	.LVL54:
   5:DSP/FX/PitchShift.cpp ****     {
ARM GAS  /var/folders/wz/z09yph4n0qj4t7mjxhl6ttn80000gn/T//ccPO7ASC.s 			page 37


 1017              		.loc 4 5 26 view .LVU251
   7:DSP/FX/PitchShift.cpp ****         buffer[R][i] = 0.0f;
 1018              		.loc 4 7 9 view .LVU252
   7:DSP/FX/PitchShift.cpp ****         buffer[R][i] = 0.0f;
 1019              		.loc 4 7 22 is_stmt 0 view .LVU253
 1020 0024 B360     		str	r3, [r6, #8]	@ float
   8:DSP/FX/PitchShift.cpp ****     }
 1021              		.loc 4 8 9 is_stmt 1 view .LVU254
   8:DSP/FX/PitchShift.cpp ****     }
 1022              		.loc 4 8 22 is_stmt 0 view .LVU255
 1023 0026 B361     		str	r3, [r6, #24]	@ float
   5:DSP/FX/PitchShift.cpp ****     {
 1024              		.loc 4 5 5 is_stmt 1 view .LVU256
 1025              	.LVL55:
   5:DSP/FX/PitchShift.cpp ****     {
 1026              		.loc 4 5 26 view .LVU257
   7:DSP/FX/PitchShift.cpp ****         buffer[R][i] = 0.0f;
 1027              		.loc 4 7 9 view .LVU258
   7:DSP/FX/PitchShift.cpp ****         buffer[R][i] = 0.0f;
 1028              		.loc 4 7 22 is_stmt 0 view .LVU259
 1029 0028 F360     		str	r3, [r6, #12]	@ float
   8:DSP/FX/PitchShift.cpp ****     }
 1030              		.loc 4 8 9 is_stmt 1 view .LVU260
   8:DSP/FX/PitchShift.cpp ****     }
 1031              		.loc 4 8 22 is_stmt 0 view .LVU261
 1032 002a F361     		str	r3, [r6, #28]	@ float
   5:DSP/FX/PitchShift.cpp ****     {
 1033              		.loc 4 5 5 is_stmt 1 view .LVU262
 1034              	.LVL56:
   5:DSP/FX/PitchShift.cpp ****     {
 1035              		.loc 4 5 26 view .LVU263
 1036              	.LBE1302:
  11:DSP/FX/PitchShift.cpp **** 
 1037              		.loc 4 11 5 view .LVU264
  11:DSP/FX/PitchShift.cpp **** 
 1038              		.loc 4 11 17 is_stmt 0 view .LVU265
 1039 002c FFF7FEFF 		bl	_ZN5daisy9DaisySeed15AudioSampleRateEv
 1040              	.LVL57:
  11:DSP/FX/PitchShift.cpp **** 
 1041              		.loc 4 11 17 view .LVU266
 1042 0030 B0EE408A 		vmov.f32	s16, s0
 1043              	.LVL58:
 1044              	.LBB1303:
 1045              	.LBI1233:
  63:../../../DaisySP//Source/Effects/pitchshifter.h ****     {
 1046              		.loc 3 63 10 is_stmt 1 view .LVU267
 1047              	.LBB1297:
  65:../../../DaisySP//Source/Effects/pitchshifter.h ****         sr_           = sr;
 1048              		.loc 3 65 9 view .LVU268
  67:../../../DaisySP//Source/Effects/pitchshifter.h ****         SetSemitones();
 1049              		.loc 3 67 23 is_stmt 0 view .LVU269
 1050 0034 C04B     		ldr	r3, .L85+4
  65:../../../DaisySP//Source/Effects/pitchshifter.h ****         sr_           = sr;
 1051              		.loc 3 65 23 view .LVU270
 1052 0036 84F84450 		strb	r5, [r4, #68]
  66:../../../DaisySP//Source/Effects/pitchshifter.h ****         mod_freq_     = 5.0f;
 1053              		.loc 3 66 9 is_stmt 1 view .LVU271
ARM GAS  /var/folders/wz/z09yph4n0qj4t7mjxhl6ttn80000gn/T//ccPO7ASC.s 			page 38


  66:../../../DaisySP//Source/Effects/pitchshifter.h ****         mod_freq_     = 5.0f;
 1054              		.loc 3 66 23 is_stmt 0 view .LVU272
 1055 003a 84ED120A 		vstr.32	s0, [r4, #72]
  67:../../../DaisySP//Source/Effects/pitchshifter.h ****         SetSemitones();
 1056              		.loc 3 67 9 is_stmt 1 view .LVU273
  67:../../../DaisySP//Source/Effects/pitchshifter.h ****         SetSemitones();
 1057              		.loc 3 67 23 is_stmt 0 view .LVU274
 1058 003e E363     		str	r3, [r4, #60]	@ float
  68:../../../DaisySP//Source/Effects/pitchshifter.h ****         for(uint8_t i = 0; i < 2; i++)
 1059              		.loc 3 68 9 is_stmt 1 view .LVU275
 1060              	.LVL59:
 1061              	.LBB1235:
 1062              	.LBI1235:
 183:../../../DaisySP//Source/Effects/pitchshifter.h **** 
 184:../../../DaisySP//Source/Effects/pitchshifter.h ****   private:
 185:../../../DaisySP//Source/Effects/pitchshifter.h ****     inline void SetSemitones()
 1063              		.loc 3 185 17 view .LVU276
 1064              	.LBB1236:
 186:../../../DaisySP//Source/Effects/pitchshifter.h ****     {
 187:../../../DaisySP//Source/Effects/pitchshifter.h ****         for(size_t i = 0; i < 12; i++)
 1065              		.loc 3 187 29 view .LVU277
 1066              	.L41:
 188:../../../DaisySP//Source/Effects/pitchshifter.h ****         {
 189:../../../DaisySP//Source/Effects/pitchshifter.h ****             semitone_ratios_[i] = powf(2.0f, (float)i / 12);
 1067              		.loc 3 189 13 view .LVU278
 1068              		.loc 3 189 46 is_stmt 0 view .LVU279
 1069 0040 07EE905A 		vmov	s15, r5	@ int
 187:../../../DaisySP//Source/Effects/pitchshifter.h ****         {
 1070              		.loc 3 187 9 view .LVU280
 1071 0044 0135     		adds	r5, r5, #1
 1072              	.LVL60:
 1073              		.loc 3 189 39 view .LVU281
 1074 0046 B0EE000A 		vmov.f32	s0, #2.0e+0
 1075              		.loc 3 189 46 view .LVU282
 1076 004a F8EEE70A 		vcvt.f32.s32	s1, s15
 1077              		.loc 3 189 39 view .LVU283
 1078 004e F2EE087A 		vmov.f32	s15, #1.2e+1
 1079              	.LVL61:
 1080              		.loc 3 189 39 view .LVU284
 1081 0052 C0EEA70A 		vdiv.f32	s1, s1, s15
 1082 0056 FFF7FEFF 		bl	powf
 1083              	.LVL62:
 187:../../../DaisySP//Source/Effects/pitchshifter.h ****         {
 1084              		.loc 3 187 29 view .LVU285
 1085 005a 0C2D     		cmp	r5, #12
 1086              		.loc 3 189 33 view .LVU286
 1087 005c A7EC010A 		vstmia.32	r7!, {s0}
 187:../../../DaisySP//Source/Effects/pitchshifter.h ****         {
 1088              		.loc 3 187 9 is_stmt 1 view .LVU287
 1089              	.LVL63:
 187:../../../DaisySP//Source/Effects/pitchshifter.h ****         {
 1090              		.loc 3 187 29 view .LVU288
 1091 0060 EED1     		bne	.L41
 1092              	.LVL64:
 187:../../../DaisySP//Source/Effects/pitchshifter.h ****         {
 1093              		.loc 3 187 29 is_stmt 0 view .LVU289
 1094              	.LBE1236:
ARM GAS  /var/folders/wz/z09yph4n0qj4t7mjxhl6ttn80000gn/T//ccPO7ASC.s 			page 39


 1095              	.LBE1235:
 1096              	.LBB1237:
  69:../../../DaisySP//Source/Effects/pitchshifter.h ****         {
 1097              		.loc 3 69 30 is_stmt 1 view .LVU290
  71:../../../DaisySP//Source/Effects/pitchshifter.h ****             d_[i].Init();
 1098              		.loc 3 71 13 view .LVU291
  73:../../../DaisySP//Source/Effects/pitchshifter.h ****         }
 1099              		.loc 3 73 25 is_stmt 0 view .LVU292
 1100 0062 DFF80493 		ldr	r9, .L85+52
  71:../../../DaisySP//Source/Effects/pitchshifter.h ****             d_[i].Init();
 1101              		.loc 3 71 22 view .LVU293
 1102 0066 0025     		movs	r5, #0
 1103              	.LBB1238:
 1104              	.LBB1239:
 1105              	.LBB1240:
 1106              		.file 6 "../../../DaisySP//Source/Utility/delayline.h"
   1:../../../DaisySP//Source/Utility/delayline.h **** #pragma once
   2:../../../DaisySP//Source/Utility/delayline.h **** #ifndef DSY_DELAY_H
   3:../../../DaisySP//Source/Utility/delayline.h **** #define DSY_DELAY_H
   4:../../../DaisySP//Source/Utility/delayline.h **** #include <stdlib.h>
   5:../../../DaisySP//Source/Utility/delayline.h **** #include <stdint.h>
   6:../../../DaisySP//Source/Utility/delayline.h **** namespace daisysp
   7:../../../DaisySP//Source/Utility/delayline.h **** {
   8:../../../DaisySP//Source/Utility/delayline.h **** /** Simple Delay line.
   9:../../../DaisySP//Source/Utility/delayline.h **** November 2019
  10:../../../DaisySP//Source/Utility/delayline.h **** 
  11:../../../DaisySP//Source/Utility/delayline.h **** Converted to Template December 2019
  12:../../../DaisySP//Source/Utility/delayline.h **** 
  13:../../../DaisySP//Source/Utility/delayline.h **** declaration example: (1 second of floats)
  14:../../../DaisySP//Source/Utility/delayline.h **** 
  15:../../../DaisySP//Source/Utility/delayline.h **** DelayLine<float, SAMPLE_RATE> del;
  16:../../../DaisySP//Source/Utility/delayline.h **** 
  17:../../../DaisySP//Source/Utility/delayline.h **** By: shensley
  18:../../../DaisySP//Source/Utility/delayline.h **** */
  19:../../../DaisySP//Source/Utility/delayline.h **** template <typename T, size_t max_size>
  20:../../../DaisySP//Source/Utility/delayline.h **** class DelayLine
  21:../../../DaisySP//Source/Utility/delayline.h **** {
  22:../../../DaisySP//Source/Utility/delayline.h ****   public:
  23:../../../DaisySP//Source/Utility/delayline.h ****     DelayLine() {}
  24:../../../DaisySP//Source/Utility/delayline.h ****     ~DelayLine() {}
  25:../../../DaisySP//Source/Utility/delayline.h ****     /** initializes the delay line by clearing the values within, and setting delay to 1 sample.
  26:../../../DaisySP//Source/Utility/delayline.h ****     */
  27:../../../DaisySP//Source/Utility/delayline.h ****     void Init() { Reset(); }
  28:../../../DaisySP//Source/Utility/delayline.h ****     /** clears buffer, sets write ptr to 0, and delay to 1 sample.
  29:../../../DaisySP//Source/Utility/delayline.h ****     */
  30:../../../DaisySP//Source/Utility/delayline.h ****     void Reset()
  31:../../../DaisySP//Source/Utility/delayline.h ****     {
  32:../../../DaisySP//Source/Utility/delayline.h ****         for(size_t i = 0; i < max_size; i++)
  33:../../../DaisySP//Source/Utility/delayline.h ****         {
  34:../../../DaisySP//Source/Utility/delayline.h ****             line_[i] = T(0);
  35:../../../DaisySP//Source/Utility/delayline.h ****         }
  36:../../../DaisySP//Source/Utility/delayline.h ****         write_ptr_ = 0;
 1107              		.loc 6 36 20 view .LVU294
 1108 0068 0027     		movs	r7, #0
  37:../../../DaisySP//Source/Utility/delayline.h ****         delay_     = 1;
 1109              		.loc 6 37 20 view .LVU295
 1110 006a 4FF0010A 		mov	r10, #1
ARM GAS  /var/folders/wz/z09yph4n0qj4t7mjxhl6ttn80000gn/T//ccPO7ASC.s 			page 40


 1111              	.LBE1240:
 1112              	.LBE1239:
 1113              	.LBE1238:
  73:../../../DaisySP//Source/Effects/pitchshifter.h ****         }
 1114              		.loc 3 73 25 view .LVU296
 1115 006e B144     		add	r9, r9, r6
 1116              	.LBB1263:
 1117              	.LBB1255:
 1118              	.LBB1247:
 1119              	.LBB1241:
  34:../../../DaisySP//Source/Utility/delayline.h ****         }
 1120              		.loc 6 34 22 view .LVU297
 1121 0070 4FF48032 		mov	r2, #65536
 1122 0074 3946     		mov	r1, r7
 1123              	.LBE1241:
 1124              	.LBE1247:
 1125              	.LBE1255:
 1126              	.LBE1263:
  71:../../../DaisySP//Source/Effects/pitchshifter.h ****             d_[i].Init();
 1127              		.loc 3 71 22 view .LVU298
 1128 0076 2567     		str	r5, [r4, #112]	@ float
  72:../../../DaisySP//Source/Effects/pitchshifter.h ****             phs_[i].Init(sr, 50, i == 0 ? 0 : PI_F);
 1129              		.loc 3 72 13 is_stmt 1 view .LVU299
 1130              	.LVL65:
 1131              	.LBB1264:
 1132              	.LBI1238:
  27:../../../DaisySP//Source/Utility/delayline.h ****     /** clears buffer, sets write ptr to 0, and delay to 1 sample.
 1133              		.loc 6 27 10 view .LVU300
 1134              	.LBB1256:
 1135              	.LBI1239:
  30:../../../DaisySP//Source/Utility/delayline.h ****     {
 1136              		.loc 6 30 10 view .LVU301
 1137              	.LBB1248:
 1138              	.LBB1242:
  32:../../../DaisySP//Source/Utility/delayline.h ****         {
 1139              		.loc 6 32 29 view .LVU302
  34:../../../DaisySP//Source/Utility/delayline.h ****         }
 1140              		.loc 6 34 22 is_stmt 0 view .LVU303
 1141 0078 06F12C00 		add	r0, r6, #44
 1142 007c FFF7FEFF 		bl	memset
 1143              	.LVL66:
  34:../../../DaisySP//Source/Utility/delayline.h ****         }
 1144              		.loc 6 34 22 view .LVU304
 1145              	.LBE1242:
 1146              	.LBE1248:
 1147              	.LBE1256:
 1148              	.LBE1264:
 1149              	.LBB1265:
 1150              	.LBB1266:
 1151              		.file 7 "../../../DaisySP//Source/Control/phasor.h"
   1:../../../DaisySP//Source/Control/phasor.h **** #pragma once
   2:../../../DaisySP//Source/Control/phasor.h **** #ifndef DSY_PHASOR_H
   3:../../../DaisySP//Source/Control/phasor.h **** #define DSY_PHASOR_H
   4:../../../DaisySP//Source/Control/phasor.h **** #ifdef __cplusplus
   5:../../../DaisySP//Source/Control/phasor.h **** 
   6:../../../DaisySP//Source/Control/phasor.h **** namespace daisysp
   7:../../../DaisySP//Source/Control/phasor.h **** {
ARM GAS  /var/folders/wz/z09yph4n0qj4t7mjxhl6ttn80000gn/T//ccPO7ASC.s 			page 41


   8:../../../DaisySP//Source/Control/phasor.h **** /** Generates a normalized signal moving from 0-1 at the specified frequency.
   9:../../../DaisySP//Source/Control/phasor.h **** 
  10:../../../DaisySP//Source/Control/phasor.h **** \todo Selecting which channels should be initialized/included in the sequence conversion.
  11:../../../DaisySP//Source/Control/phasor.h **** \todo Setup a similar start function for an external mux, but that seems outside the scope of this 
  12:../../../DaisySP//Source/Control/phasor.h **** 
  13:../../../DaisySP//Source/Control/phasor.h **** */
  14:../../../DaisySP//Source/Control/phasor.h **** class Phasor
  15:../../../DaisySP//Source/Control/phasor.h **** {
  16:../../../DaisySP//Source/Control/phasor.h ****   public:
  17:../../../DaisySP//Source/Control/phasor.h ****     Phasor() {}
  18:../../../DaisySP//Source/Control/phasor.h ****     ~Phasor() {}
  19:../../../DaisySP//Source/Control/phasor.h ****     /** Initializes the Phasor module
  20:../../../DaisySP//Source/Control/phasor.h ****     sample rate, and freq are in Hz
  21:../../../DaisySP//Source/Control/phasor.h ****     initial phase is in radians
  22:../../../DaisySP//Source/Control/phasor.h ****     Additional Init functions have defaults when arg is not specified:
  23:../../../DaisySP//Source/Control/phasor.h ****     - phs = 0.0f
  24:../../../DaisySP//Source/Control/phasor.h ****     - freq = 1.0f
  25:../../../DaisySP//Source/Control/phasor.h ****     */
  26:../../../DaisySP//Source/Control/phasor.h ****     inline void Init(float sample_rate, float freq, float initial_phase)
  27:../../../DaisySP//Source/Control/phasor.h ****     {
  28:../../../DaisySP//Source/Control/phasor.h ****         sample_rate_ = sample_rate;
  29:../../../DaisySP//Source/Control/phasor.h ****         phs_         = initial_phase;
  30:../../../DaisySP//Source/Control/phasor.h ****         SetFreq(freq);
 1152              		.loc 7 30 16 view .LVU305
 1153 0080 9FEDAE0A 		vldr.32	s0, .L85+8
 1154 0084 4846     		mov	r0, r9
 1155              	.LBE1266:
 1156              	.LBE1265:
 1157              	.LBB1270:
 1158              	.LBB1257:
 1159              	.LBB1249:
 1160              		.loc 6 37 20 view .LVU306
 1161 0086 C6E9097A 		strd	r7, r10, [r6, #36]
 1162              	.LVL67:
 1163              		.loc 6 37 20 view .LVU307
 1164              	.LBE1249:
 1165              	.LBE1257:
 1166              	.LBE1270:
  73:../../../DaisySP//Source/Effects/pitchshifter.h ****         }
 1167              		.loc 3 73 13 is_stmt 1 view .LVU308
 1168              	.LBB1271:
 1169              	.LBI1265:
  26:../../../DaisySP//Source/Control/phasor.h ****     {
 1170              		.loc 7 26 17 view .LVU309
 1171              	.LBB1267:
  28:../../../DaisySP//Source/Control/phasor.h ****         phs_         = initial_phase;
 1172              		.loc 7 28 9 view .LVU310
  29:../../../DaisySP//Source/Control/phasor.h ****         SetFreq(freq);
 1173              		.loc 7 29 22 is_stmt 0 view .LVU311
 1174 008a E565     		str	r5, [r4, #92]	@ float
  28:../../../DaisySP//Source/Control/phasor.h ****         phs_         = initial_phase;
 1175              		.loc 7 28 22 view .LVU312
 1176 008c 84ED158A 		vstr.32	s16, [r4, #84]
  29:../../../DaisySP//Source/Control/phasor.h ****         SetFreq(freq);
 1177              		.loc 7 29 9 is_stmt 1 view .LVU313
 1178              		.loc 7 30 9 view .LVU314
 1179              		.loc 7 30 16 is_stmt 0 view .LVU315
ARM GAS  /var/folders/wz/z09yph4n0qj4t7mjxhl6ttn80000gn/T//ccPO7ASC.s 			page 42


 1180 0090 FFF7FEFF 		bl	_ZN7daisysp6Phasor7SetFreqEf
 1181              	.LVL68:
 1182              		.loc 7 30 16 view .LVU316
 1183              	.LBE1267:
 1184              	.LBE1271:
  69:../../../DaisySP//Source/Effects/pitchshifter.h ****         {
 1185              		.loc 3 69 9 is_stmt 1 view .LVU317
  69:../../../DaisySP//Source/Effects/pitchshifter.h ****         {
 1186              		.loc 3 69 30 view .LVU318
  71:../../../DaisySP//Source/Effects/pitchshifter.h ****             d_[i].Init();
 1187              		.loc 3 71 13 view .LVU319
 1188              	.LBB1272:
 1189              	.LBB1258:
 1190              	.LBB1250:
 1191              	.LBB1243:
  34:../../../DaisySP//Source/Utility/delayline.h ****         }
 1192              		.loc 6 34 22 is_stmt 0 view .LVU320
 1193 0094 AA48     		ldr	r0, .L85+12
 1194              	.LBE1243:
 1195              	.LBE1250:
 1196              	.LBE1258:
 1197              	.LBE1272:
  73:../../../DaisySP//Source/Effects/pitchshifter.h ****         }
 1198              		.loc 3 73 25 view .LVU321
 1199 0096 06F12003 		add	r3, r6, #32
  71:../../../DaisySP//Source/Effects/pitchshifter.h ****             d_[i].Init();
 1200              		.loc 3 71 22 view .LVU322
 1201 009a 6567     		str	r5, [r4, #116]	@ float
  72:../../../DaisySP//Source/Effects/pitchshifter.h ****             phs_[i].Init(sr, 50, i == 0 ? 0 : PI_F);
 1202              		.loc 3 72 13 is_stmt 1 view .LVU323
 1203              	.LVL69:
 1204              	.LBB1273:
  27:../../../DaisySP//Source/Utility/delayline.h ****     /** clears buffer, sets write ptr to 0, and delay to 1 sample.
 1205              		.loc 6 27 10 view .LVU324
 1206              	.LBB1259:
  30:../../../DaisySP//Source/Utility/delayline.h ****     {
 1207              		.loc 6 30 10 view .LVU325
 1208              	.LBB1251:
 1209              	.LBB1244:
  32:../../../DaisySP//Source/Utility/delayline.h ****         {
 1210              		.loc 6 32 29 view .LVU326
 1211              	.LBE1244:
 1212              	.LBE1251:
 1213              	.LBE1259:
 1214              	.LBE1273:
  73:../../../DaisySP//Source/Effects/pitchshifter.h ****         }
 1215              		.loc 3 73 25 is_stmt 0 view .LVU327
 1216 009c A94D     		ldr	r5, .L85+16
 1217              	.LBB1274:
 1218              	.LBB1260:
 1219              	.LBB1252:
 1220              	.LBB1245:
  34:../../../DaisySP//Source/Utility/delayline.h ****         }
 1221              		.loc 6 34 22 view .LVU328
 1222 009e 4FF48032 		mov	r2, #65536
 1223 00a2 3946     		mov	r1, r7
 1224 00a4 3044     		add	r0, r0, r6
ARM GAS  /var/folders/wz/z09yph4n0qj4t7mjxhl6ttn80000gn/T//ccPO7ASC.s 			page 43


 1225              	.LBE1245:
 1226              	.LBE1252:
 1227              	.LBE1260:
 1228              	.LBE1274:
  73:../../../DaisySP//Source/Effects/pitchshifter.h ****         }
 1229              		.loc 3 73 25 view .LVU329
 1230 00a6 1D44     		add	r5, r5, r3
 1231              	.LBB1275:
 1232              	.LBB1261:
 1233              	.LBB1253:
 1234              	.LBB1246:
  34:../../../DaisySP//Source/Utility/delayline.h ****         }
 1235              		.loc 6 34 22 view .LVU330
 1236 00a8 FFF7FEFF 		bl	memset
 1237              	.LVL70:
  34:../../../DaisySP//Source/Utility/delayline.h ****         }
 1238              		.loc 6 34 22 view .LVU331
 1239              	.LBE1246:
  36:../../../DaisySP//Source/Utility/delayline.h ****         delay_     = 1;
 1240              		.loc 6 36 20 view .LVU332
 1241 00ac 06F58033 		add	r3, r6, #65536
 1242              	.LBE1253:
 1243              	.LBE1261:
 1244              	.LBE1275:
 1245              	.LBB1276:
 1246              	.LBB1268:
 1247              		.loc 7 30 16 view .LVU333
 1248 00b0 9FEDA20A 		vldr.32	s0, .L85+8
 1249 00b4 2846     		mov	r0, r5
 1250              	.LBE1268:
 1251              	.LBE1276:
 1252              	.LBB1277:
 1253              	.LBB1262:
 1254              	.LBB1254:
 1255              		.loc 6 37 20 view .LVU334
 1256 00b6 C3E90C7A 		strd	r7, r10, [r3, #48]
 1257              	.LVL71:
 1258              		.loc 6 37 20 view .LVU335
 1259              	.LBE1254:
 1260              	.LBE1262:
 1261              	.LBE1277:
  73:../../../DaisySP//Source/Effects/pitchshifter.h ****         }
 1262              		.loc 3 73 13 is_stmt 1 view .LVU336
 1263              	.LBB1278:
  26:../../../DaisySP//Source/Control/phasor.h ****     {
 1264              		.loc 7 26 17 view .LVU337
 1265              	.LBB1269:
  28:../../../DaisySP//Source/Control/phasor.h ****         phs_         = initial_phase;
 1266              		.loc 7 28 9 view .LVU338
  29:../../../DaisySP//Source/Control/phasor.h ****         SetFreq(freq);
 1267              		.loc 7 29 22 is_stmt 0 view .LVU339
 1268 00ba A34B     		ldr	r3, .L85+20
  28:../../../DaisySP//Source/Control/phasor.h ****         phs_         = initial_phase;
 1269              		.loc 7 28 22 view .LVU340
 1270 00bc 84ED198A 		vstr.32	s16, [r4, #100]
  29:../../../DaisySP//Source/Control/phasor.h ****         SetFreq(freq);
 1271              		.loc 7 29 9 is_stmt 1 view .LVU341
ARM GAS  /var/folders/wz/z09yph4n0qj4t7mjxhl6ttn80000gn/T//ccPO7ASC.s 			page 44


  29:../../../DaisySP//Source/Control/phasor.h ****         SetFreq(freq);
 1272              		.loc 7 29 22 is_stmt 0 view .LVU342
 1273 00c0 E366     		str	r3, [r4, #108]	@ float
 1274              		.loc 7 30 9 is_stmt 1 view .LVU343
 1275              		.loc 7 30 16 is_stmt 0 view .LVU344
 1276 00c2 FFF7FEFF 		bl	_ZN7daisysp6Phasor7SetFreqEf
 1277              	.LVL72:
 1278              		.loc 7 30 16 view .LVU345
 1279              	.LBE1269:
 1280              	.LBE1278:
  69:../../../DaisySP//Source/Effects/pitchshifter.h ****         {
 1281              		.loc 3 69 9 is_stmt 1 view .LVU346
  69:../../../DaisySP//Source/Effects/pitchshifter.h ****         {
 1282              		.loc 3 69 30 view .LVU347
 1283              	.LBE1237:
  75:../../../DaisySP//Source/Effects/pitchshifter.h ****         del_size_ = SHIFT_BUFFER_SIZE;
 1284              		.loc 3 75 9 view .LVU348
 1285 00c6 D4ED207A 		vldr.32	s15, [r4, #128]
  76:../../../DaisySP//Source/Effects/pitchshifter.h ****         SetDelSize(del_size_);
 1286              		.loc 3 76 19 is_stmt 0 view .LVU349
 1287 00ca 4FF48043 		mov	r3, #16384
 1288              	.LBB1279:
 1289              	.LBB1280:
 1290              	.LBB1281:
 1291              	.LBB1282:
 147:../../../DaisySP//Source/Effects/pitchshifter.h ****             ratio *= (uint8_t)(fabsf(transpose) / 12) + 1;
 1292              		.loc 3 147 47 view .LVU350
 1293 00ce 9F4A     		ldr	r2, .L85+24
 146:../../../DaisySP//Source/Effects/pitchshifter.h ****             ratio      = semitone_ratios_[idx % 12];
 1294              		.loc 3 146 40 view .LVU351
 1295 00d0 B0EEE77A 		vabs.f32	s14, s15
 147:../../../DaisySP//Source/Effects/pitchshifter.h ****             ratio *= (uint8_t)(fabsf(transpose) / 12) + 1;
 1296              		.loc 3 147 24 view .LVU352
 1297 00d4 48F22201 		movw	r1, #32802
 1298              	.LBE1282:
 1299              	.LBE1281:
 1300              	.LBE1280:
 1301              	.LBE1279:
  76:../../../DaisySP//Source/Effects/pitchshifter.h ****         SetDelSize(del_size_);
 1302              		.loc 3 76 19 view .LVU353
 1303 00d8 2364     		str	r3, [r4, #64]
 1304              	.LBB1294:
 1305              	.LBB1291:
 1306              	.LBB1287:
 1307              	.LBB1283:
 149:../../../DaisySP//Source/Effects/pitchshifter.h ****             {
 1308              		.loc 3 149 13 view .LVU354
 1309 00da F5EEC07A 		vcmpe.f32	s15, #0
 1310              	.LBE1283:
 1311              	.LBE1287:
 1312              	.LBE1291:
 1313              	.LBE1294:
  75:../../../DaisySP//Source/Effects/pitchshifter.h ****         del_size_ = SHIFT_BUFFER_SIZE;
 1314              		.loc 3 75 19 view .LVU355
 1315 00de 84F84CA0 		strb	r10, [r4, #76]
  76:../../../DaisySP//Source/Effects/pitchshifter.h ****         SetDelSize(del_size_);
 1316              		.loc 3 76 9 is_stmt 1 view .LVU356
ARM GAS  /var/folders/wz/z09yph4n0qj4t7mjxhl6ttn80000gn/T//ccPO7ASC.s 			page 45


  77:../../../DaisySP//Source/Effects/pitchshifter.h ****         fun_ = 0.0f;
 1317              		.loc 3 77 9 view .LVU357
 1318              	.LVL73:
 1319              	.LBB1295:
 1320              	.LBI1279:
 173:../../../DaisySP//Source/Effects/pitchshifter.h ****     {
 1321              		.loc 3 173 10 view .LVU358
 1322              	.LBB1292:
 175:../../../DaisySP//Source/Effects/pitchshifter.h ****         force_recalc_ = true;
 1323              		.loc 3 175 9 view .LVU359
 176:../../../DaisySP//Source/Effects/pitchshifter.h ****         SetTransposition(transpose_);
 1324              		.loc 3 176 9 view .LVU360
 177:../../../DaisySP//Source/Effects/pitchshifter.h ****     }
 1325              		.loc 3 177 9 view .LVU361
 1326              	.LBB1288:
 1327              	.LBI1281:
 139:../../../DaisySP//Source/Effects/pitchshifter.h ****     {
 1328              		.loc 3 139 10 view .LVU362
 1329              	.LBB1284:
 141:../../../DaisySP//Source/Effects/pitchshifter.h ****         uint8_t idx;
 1330              		.loc 3 141 9 view .LVU363
 142:../../../DaisySP//Source/Effects/pitchshifter.h ****         if(transpose_ != transpose || force_recalc_)
 1331              		.loc 3 142 9 view .LVU364
 143:../../../DaisySP//Source/Effects/pitchshifter.h ****         {
 1332              		.loc 3 143 9 view .LVU365
 145:../../../DaisySP//Source/Effects/pitchshifter.h ****             idx        = (uint8_t)fabsf(transpose);
 1333              		.loc 3 145 13 view .LVU366
 146:../../../DaisySP//Source/Effects/pitchshifter.h ****             ratio      = semitone_ratios_[idx % 12];
 1334              		.loc 3 146 13 view .LVU367
 147:../../../DaisySP//Source/Effects/pitchshifter.h ****             ratio *= (uint8_t)(fabsf(transpose) / 12) + 1;
 1335              		.loc 3 147 13 view .LVU368
 146:../../../DaisySP//Source/Effects/pitchshifter.h ****             ratio      = semitone_ratios_[idx % 12];
 1336              		.loc 3 146 24 is_stmt 0 view .LVU369
 1337 00e2 FCEEC76A 		vcvt.u32.f32	s13, s14
 1338              	.LBE1284:
 1339              	.LBE1288:
 176:../../../DaisySP//Source/Effects/pitchshifter.h ****         SetTransposition(transpose_);
 1340              		.loc 3 176 23 view .LVU370
 1341 00e6 84F844A0 		strb	r10, [r4, #68]
 1342              	.LBB1289:
 1343              	.LBB1285:
 149:../../../DaisySP//Source/Effects/pitchshifter.h ****             {
 1344              		.loc 3 149 13 view .LVU371
 1345 00ea F1EE10FA 		vmrs	APSR_nzcv, FPSCR
 146:../../../DaisySP//Source/Effects/pitchshifter.h ****             ratio      = semitone_ratios_[idx % 12];
 1346              		.loc 3 146 24 view .LVU372
 1347 00ee CDED016A 		vstr.32	s13, [sp, #4]	@ int
 147:../../../DaisySP//Source/Effects/pitchshifter.h ****             ratio *= (uint8_t)(fabsf(transpose) / 12) + 1;
 1348              		.loc 3 147 47 view .LVU373
 1349 00f2 9DF80430 		ldrb	r3, [sp, #4]	@ zero_extendqisi2
 1350 00f6 A2FB0302 		umull	r0, r2, r2, r3
 1351 00fa 4FEAD202 		lsr	r2, r2, #3
 1352 00fe 02EB4202 		add	r2, r2, r2, lsl #1
 1353 0102 A3EB8203 		sub	r3, r3, r2, lsl #2
 147:../../../DaisySP//Source/Effects/pitchshifter.h ****             ratio *= (uint8_t)(fabsf(transpose) / 12) + 1;
 1354              		.loc 3 147 24 view .LVU374
 1355 0106 51FA83F3 		uxtab	r3, r1, r3
ARM GAS  /var/folders/wz/z09yph4n0qj4t7mjxhl6ttn80000gn/T//ccPO7ASC.s 			page 46


 1356 010a 06EB8303 		add	r3, r6, r3, lsl #2
 1357 010e D3ED086A 		vldr.32	s13, [r3, #32]
 1358              	.LVL74:
 148:../../../DaisySP//Source/Effects/pitchshifter.h ****             if(transpose > 0.0f)
 1359              		.loc 3 148 13 is_stmt 1 view .LVU375
 149:../../../DaisySP//Source/Effects/pitchshifter.h ****             {
 1360              		.loc 3 149 13 view .LVU376
 1361 0112 01DC     		bgt	.L42
 155:../../../DaisySP//Source/Effects/pitchshifter.h ****             }
 1362              		.loc 3 155 17 view .LVU377
 155:../../../DaisySP//Source/Effects/pitchshifter.h ****             }
 1363              		.loc 3 155 27 is_stmt 0 view .LVU378
 1364 0114 84F84C70 		strb	r7, [r4, #76]
 1365              	.L42:
 157:../../../DaisySP//Source/Effects/pitchshifter.h ****             if(mod_freq_ < 0.0f)
 1366              		.loc 3 157 13 is_stmt 1 view .LVU379
 148:../../../DaisySP//Source/Effects/pitchshifter.h ****             if(transpose > 0.0f)
 1367              		.loc 3 148 49 is_stmt 0 view .LVU380
 1368 0118 B2EE085A 		vmov.f32	s10, #1.2e+1
 157:../../../DaisySP//Source/Effects/pitchshifter.h ****             if(mod_freq_ < 0.0f)
 1369              		.loc 3 157 41 view .LVU381
 1370 011c D4ED125A 		vldr.32	s11, [r4, #72]
 157:../../../DaisySP//Source/Effects/pitchshifter.h ****             if(mod_freq_ < 0.0f)
 1371              		.loc 3 157 33 view .LVU382
 1372 0120 BFEE000A 		vmov.f32	s0, #-1.0e+0
 157:../../../DaisySP//Source/Effects/pitchshifter.h ****             if(mod_freq_ < 0.0f)
 1373              		.loc 3 157 48 view .LVU383
 1374 0124 9FED8A6A 		vldr.32	s12, .L85+28
 158:../../../DaisySP//Source/Effects/pitchshifter.h ****             {
 1375              		.loc 3 158 13 view .LVU384
 1376 0128 DFED8A4A 		vldr.32	s9, .L85+32
 148:../../../DaisySP//Source/Effects/pitchshifter.h ****             if(transpose > 0.0f)
 1377              		.loc 3 148 49 view .LVU385
 1378 012c C7EE057A 		vdiv.f32	s15, s14, s10
 148:../../../DaisySP//Source/Effects/pitchshifter.h ****             if(transpose > 0.0f)
 1379              		.loc 3 148 22 view .LVU386
 1380 0130 FCEEE77A 		vcvt.u32.f32	s15, s15
 1381 0134 CDED017A 		vstr.32	s15, [sp, #4]	@ int
 1382 0138 9DF80430 		ldrb	r3, [sp, #4]	@ zero_extendqisi2
 148:../../../DaisySP//Source/Effects/pitchshifter.h ****             if(transpose > 0.0f)
 1383              		.loc 3 148 55 view .LVU387
 1384 013c 0133     		adds	r3, r3, #1
 148:../../../DaisySP//Source/Effects/pitchshifter.h ****             if(transpose > 0.0f)
 1385              		.loc 3 148 19 view .LVU388
 1386 013e 07EE903A 		vmov	s15, r3	@ int
 1387 0142 F8EEE77A 		vcvt.f32.s32	s15, s15
 157:../../../DaisySP//Source/Effects/pitchshifter.h ****             if(mod_freq_ < 0.0f)
 1388              		.loc 3 157 33 view .LVU389
 1389 0146 A6EEA70A 		vfma.f32	s0, s13, s15
 157:../../../DaisySP//Source/Effects/pitchshifter.h ****             if(mod_freq_ < 0.0f)
 1390              		.loc 3 157 41 view .LVU390
 1391 014a 20EE250A 		vmul.f32	s0, s0, s11
 157:../../../DaisySP//Source/Effects/pitchshifter.h ****             if(mod_freq_ < 0.0f)
 1392              		.loc 3 157 48 view .LVU391
 1393 014e 20EE060A 		vmul.f32	s0, s0, s12
 158:../../../DaisySP//Source/Effects/pitchshifter.h ****             {
 1394              		.loc 3 158 13 is_stmt 1 view .LVU392
ARM GAS  /var/folders/wz/z09yph4n0qj4t7mjxhl6ttn80000gn/T//ccPO7ASC.s 			page 47


 1395 0152 B4EEE40A 		vcmpe.f32	s0, s9
 1396 0156 F1EE10FA 		vmrs	APSR_nzcv, FPSCR
 1397 015a 00F1D780 		bmi	.L45
 157:../../../DaisySP//Source/Effects/pitchshifter.h ****             if(mod_freq_ < 0.0f)
 1398              		.loc 3 157 23 is_stmt 0 view .LVU393
 1399 015e 84ED0F0A 		vstr.32	s0, [r4, #60]
 1400              	.L46:
 162:../../../DaisySP//Source/Effects/pitchshifter.h ****             phs_[1].SetFreq(mod_freq_);
 1401              		.loc 3 162 13 is_stmt 1 view .LVU394
 162:../../../DaisySP//Source/Effects/pitchshifter.h ****             phs_[1].SetFreq(mod_freq_);
 1402              		.loc 3 162 28 is_stmt 0 view .LVU395
 1403 0162 4846     		mov	r0, r9
 1404 0164 FFF7FEFF 		bl	_ZN7daisysp6Phasor7SetFreqEf
 1405              	.LVL75:
 163:../../../DaisySP//Source/Effects/pitchshifter.h ****             if(force_recalc_)
 1406              		.loc 3 163 13 is_stmt 1 view .LVU396
 163:../../../DaisySP//Source/Effects/pitchshifter.h ****             if(force_recalc_)
 1407              		.loc 3 163 28 is_stmt 0 view .LVU397
 1408 0168 94ED0F0A 		vldr.32	s0, [r4, #60]
 1409 016c 2846     		mov	r0, r5
 1410 016e FFF7FEFF 		bl	_ZN7daisysp6Phasor7SetFreqEf
 1411              	.LVL76:
 164:../../../DaisySP//Source/Effects/pitchshifter.h ****             {
 1412              		.loc 3 164 13 is_stmt 1 view .LVU398
 1413 0172 94F84430 		ldrb	r3, [r4, #68]	@ zero_extendqisi2
 1414 0176 13B1     		cbz	r3, .L47
 166:../../../DaisySP//Source/Effects/pitchshifter.h ****             }
 1415              		.loc 3 166 17 view .LVU399
 166:../../../DaisySP//Source/Effects/pitchshifter.h ****             }
 1416              		.loc 3 166 31 is_stmt 0 view .LVU400
 1417 0178 0023     		movs	r3, #0
 1418 017a 84F84430 		strb	r3, [r4, #68]
 1419              	.L47:
 1420              	.LVL77:
 166:../../../DaisySP//Source/Effects/pitchshifter.h ****             }
 1421              		.loc 3 166 31 view .LVU401
 1422              	.LBE1285:
 1423              	.LBE1289:
 1424              	.LBE1292:
 1425              	.LBE1295:
  78:../../../DaisySP//Source/Effects/pitchshifter.h ****     }
 1426              		.loc 3 78 9 is_stmt 1 view .LVU402
  78:../../../DaisySP//Source/Effects/pitchshifter.h ****     }
 1427              		.loc 3 78 14 is_stmt 0 view .LVU403
 1428 017e 0023     		movs	r3, #0
 1429              	.LBE1297:
 1430              	.LBE1303:
 1431              	.LBB1304:
 1432              	.LBB1305:
 1433              	.LBB1306:
 1434              	.LBB1307:
 1435              	.LBB1308:
 1436              	.LBB1309:
 1437              	.LBB1310:
 1438              		.file 8 "/Library/DaisyToolchain/0.2.0/arm/arm-none-eabi/include/c++/10.3.1/bits/move.h"
   1:/Library/DaisyToolchain/0.2.0/arm/arm-none-eabi/include/c++/10.3.1/bits/move.h **** // Move, forward and identity for C++11 + swap -*- C++ -*-
   2:/Library/DaisyToolchain/0.2.0/arm/arm-none-eabi/include/c++/10.3.1/bits/move.h **** 
ARM GAS  /var/folders/wz/z09yph4n0qj4t7mjxhl6ttn80000gn/T//ccPO7ASC.s 			page 48


   3:/Library/DaisyToolchain/0.2.0/arm/arm-none-eabi/include/c++/10.3.1/bits/move.h **** // Copyright (C) 2007-2020 Free Software Foundation, Inc.
   4:/Library/DaisyToolchain/0.2.0/arm/arm-none-eabi/include/c++/10.3.1/bits/move.h **** //
   5:/Library/DaisyToolchain/0.2.0/arm/arm-none-eabi/include/c++/10.3.1/bits/move.h **** // This file is part of the GNU ISO C++ Library.  This library is free
   6:/Library/DaisyToolchain/0.2.0/arm/arm-none-eabi/include/c++/10.3.1/bits/move.h **** // software; you can redistribute it and/or modify it under the
   7:/Library/DaisyToolchain/0.2.0/arm/arm-none-eabi/include/c++/10.3.1/bits/move.h **** // terms of the GNU General Public License as published by the
   8:/Library/DaisyToolchain/0.2.0/arm/arm-none-eabi/include/c++/10.3.1/bits/move.h **** // Free Software Foundation; either version 3, or (at your option)
   9:/Library/DaisyToolchain/0.2.0/arm/arm-none-eabi/include/c++/10.3.1/bits/move.h **** // any later version.
  10:/Library/DaisyToolchain/0.2.0/arm/arm-none-eabi/include/c++/10.3.1/bits/move.h **** 
  11:/Library/DaisyToolchain/0.2.0/arm/arm-none-eabi/include/c++/10.3.1/bits/move.h **** // This library is distributed in the hope that it will be useful,
  12:/Library/DaisyToolchain/0.2.0/arm/arm-none-eabi/include/c++/10.3.1/bits/move.h **** // but WITHOUT ANY WARRANTY; without even the implied warranty of
  13:/Library/DaisyToolchain/0.2.0/arm/arm-none-eabi/include/c++/10.3.1/bits/move.h **** // MERCHANTABILITY or FITNESS FOR A PARTICULAR PURPOSE.  See the
  14:/Library/DaisyToolchain/0.2.0/arm/arm-none-eabi/include/c++/10.3.1/bits/move.h **** // GNU General Public License for more details.
  15:/Library/DaisyToolchain/0.2.0/arm/arm-none-eabi/include/c++/10.3.1/bits/move.h **** 
  16:/Library/DaisyToolchain/0.2.0/arm/arm-none-eabi/include/c++/10.3.1/bits/move.h **** // Under Section 7 of GPL version 3, you are granted additional
  17:/Library/DaisyToolchain/0.2.0/arm/arm-none-eabi/include/c++/10.3.1/bits/move.h **** // permissions described in the GCC Runtime Library Exception, version
  18:/Library/DaisyToolchain/0.2.0/arm/arm-none-eabi/include/c++/10.3.1/bits/move.h **** // 3.1, as published by the Free Software Foundation.
  19:/Library/DaisyToolchain/0.2.0/arm/arm-none-eabi/include/c++/10.3.1/bits/move.h **** 
  20:/Library/DaisyToolchain/0.2.0/arm/arm-none-eabi/include/c++/10.3.1/bits/move.h **** // You should have received a copy of the GNU General Public License and
  21:/Library/DaisyToolchain/0.2.0/arm/arm-none-eabi/include/c++/10.3.1/bits/move.h **** // a copy of the GCC Runtime Library Exception along with this program;
  22:/Library/DaisyToolchain/0.2.0/arm/arm-none-eabi/include/c++/10.3.1/bits/move.h **** // see the files COPYING3 and COPYING.RUNTIME respectively.  If not, see
  23:/Library/DaisyToolchain/0.2.0/arm/arm-none-eabi/include/c++/10.3.1/bits/move.h **** // <http://www.gnu.org/licenses/>.
  24:/Library/DaisyToolchain/0.2.0/arm/arm-none-eabi/include/c++/10.3.1/bits/move.h **** 
  25:/Library/DaisyToolchain/0.2.0/arm/arm-none-eabi/include/c++/10.3.1/bits/move.h **** /** @file bits/move.h
  26:/Library/DaisyToolchain/0.2.0/arm/arm-none-eabi/include/c++/10.3.1/bits/move.h ****  *  This is an internal header file, included by other library headers.
  27:/Library/DaisyToolchain/0.2.0/arm/arm-none-eabi/include/c++/10.3.1/bits/move.h ****  *  Do not attempt to use it directly. @headername{utility}
  28:/Library/DaisyToolchain/0.2.0/arm/arm-none-eabi/include/c++/10.3.1/bits/move.h ****  */
  29:/Library/DaisyToolchain/0.2.0/arm/arm-none-eabi/include/c++/10.3.1/bits/move.h **** 
  30:/Library/DaisyToolchain/0.2.0/arm/arm-none-eabi/include/c++/10.3.1/bits/move.h **** #ifndef _MOVE_H
  31:/Library/DaisyToolchain/0.2.0/arm/arm-none-eabi/include/c++/10.3.1/bits/move.h **** #define _MOVE_H 1
  32:/Library/DaisyToolchain/0.2.0/arm/arm-none-eabi/include/c++/10.3.1/bits/move.h **** 
  33:/Library/DaisyToolchain/0.2.0/arm/arm-none-eabi/include/c++/10.3.1/bits/move.h **** #include <bits/c++config.h>
  34:/Library/DaisyToolchain/0.2.0/arm/arm-none-eabi/include/c++/10.3.1/bits/move.h **** #if __cplusplus < 201103L
  35:/Library/DaisyToolchain/0.2.0/arm/arm-none-eabi/include/c++/10.3.1/bits/move.h **** # include <bits/concept_check.h>
  36:/Library/DaisyToolchain/0.2.0/arm/arm-none-eabi/include/c++/10.3.1/bits/move.h **** #endif
  37:/Library/DaisyToolchain/0.2.0/arm/arm-none-eabi/include/c++/10.3.1/bits/move.h **** 
  38:/Library/DaisyToolchain/0.2.0/arm/arm-none-eabi/include/c++/10.3.1/bits/move.h **** namespace std _GLIBCXX_VISIBILITY(default)
  39:/Library/DaisyToolchain/0.2.0/arm/arm-none-eabi/include/c++/10.3.1/bits/move.h **** {
  40:/Library/DaisyToolchain/0.2.0/arm/arm-none-eabi/include/c++/10.3.1/bits/move.h **** _GLIBCXX_BEGIN_NAMESPACE_VERSION
  41:/Library/DaisyToolchain/0.2.0/arm/arm-none-eabi/include/c++/10.3.1/bits/move.h **** 
  42:/Library/DaisyToolchain/0.2.0/arm/arm-none-eabi/include/c++/10.3.1/bits/move.h ****   // Used, in C++03 mode too, by allocators, etc.
  43:/Library/DaisyToolchain/0.2.0/arm/arm-none-eabi/include/c++/10.3.1/bits/move.h ****   /**
  44:/Library/DaisyToolchain/0.2.0/arm/arm-none-eabi/include/c++/10.3.1/bits/move.h ****    *  @brief Same as C++11 std::addressof
  45:/Library/DaisyToolchain/0.2.0/arm/arm-none-eabi/include/c++/10.3.1/bits/move.h ****    *  @ingroup utilities
  46:/Library/DaisyToolchain/0.2.0/arm/arm-none-eabi/include/c++/10.3.1/bits/move.h ****    */
  47:/Library/DaisyToolchain/0.2.0/arm/arm-none-eabi/include/c++/10.3.1/bits/move.h ****   template<typename _Tp>
  48:/Library/DaisyToolchain/0.2.0/arm/arm-none-eabi/include/c++/10.3.1/bits/move.h ****     inline _GLIBCXX_CONSTEXPR _Tp*
  49:/Library/DaisyToolchain/0.2.0/arm/arm-none-eabi/include/c++/10.3.1/bits/move.h ****     __addressof(_Tp& __r) _GLIBCXX_NOEXCEPT
  50:/Library/DaisyToolchain/0.2.0/arm/arm-none-eabi/include/c++/10.3.1/bits/move.h ****     { return __builtin_addressof(__r); }
  51:/Library/DaisyToolchain/0.2.0/arm/arm-none-eabi/include/c++/10.3.1/bits/move.h **** 
  52:/Library/DaisyToolchain/0.2.0/arm/arm-none-eabi/include/c++/10.3.1/bits/move.h **** #if __cplusplus >= 201103L
  53:/Library/DaisyToolchain/0.2.0/arm/arm-none-eabi/include/c++/10.3.1/bits/move.h **** 
  54:/Library/DaisyToolchain/0.2.0/arm/arm-none-eabi/include/c++/10.3.1/bits/move.h **** _GLIBCXX_END_NAMESPACE_VERSION
  55:/Library/DaisyToolchain/0.2.0/arm/arm-none-eabi/include/c++/10.3.1/bits/move.h **** } // namespace
  56:/Library/DaisyToolchain/0.2.0/arm/arm-none-eabi/include/c++/10.3.1/bits/move.h **** 
  57:/Library/DaisyToolchain/0.2.0/arm/arm-none-eabi/include/c++/10.3.1/bits/move.h **** #include <type_traits> // Brings in std::declval too.
  58:/Library/DaisyToolchain/0.2.0/arm/arm-none-eabi/include/c++/10.3.1/bits/move.h **** 
  59:/Library/DaisyToolchain/0.2.0/arm/arm-none-eabi/include/c++/10.3.1/bits/move.h **** namespace std _GLIBCXX_VISIBILITY(default)
ARM GAS  /var/folders/wz/z09yph4n0qj4t7mjxhl6ttn80000gn/T//ccPO7ASC.s 			page 49


  60:/Library/DaisyToolchain/0.2.0/arm/arm-none-eabi/include/c++/10.3.1/bits/move.h **** {
  61:/Library/DaisyToolchain/0.2.0/arm/arm-none-eabi/include/c++/10.3.1/bits/move.h **** _GLIBCXX_BEGIN_NAMESPACE_VERSION
  62:/Library/DaisyToolchain/0.2.0/arm/arm-none-eabi/include/c++/10.3.1/bits/move.h **** 
  63:/Library/DaisyToolchain/0.2.0/arm/arm-none-eabi/include/c++/10.3.1/bits/move.h ****   /**
  64:/Library/DaisyToolchain/0.2.0/arm/arm-none-eabi/include/c++/10.3.1/bits/move.h ****    *  @addtogroup utilities
  65:/Library/DaisyToolchain/0.2.0/arm/arm-none-eabi/include/c++/10.3.1/bits/move.h ****    *  @{
  66:/Library/DaisyToolchain/0.2.0/arm/arm-none-eabi/include/c++/10.3.1/bits/move.h ****    */
  67:/Library/DaisyToolchain/0.2.0/arm/arm-none-eabi/include/c++/10.3.1/bits/move.h **** 
  68:/Library/DaisyToolchain/0.2.0/arm/arm-none-eabi/include/c++/10.3.1/bits/move.h ****   /**
  69:/Library/DaisyToolchain/0.2.0/arm/arm-none-eabi/include/c++/10.3.1/bits/move.h ****    *  @brief  Forward an lvalue.
  70:/Library/DaisyToolchain/0.2.0/arm/arm-none-eabi/include/c++/10.3.1/bits/move.h ****    *  @return The parameter cast to the specified type.
  71:/Library/DaisyToolchain/0.2.0/arm/arm-none-eabi/include/c++/10.3.1/bits/move.h ****    *
  72:/Library/DaisyToolchain/0.2.0/arm/arm-none-eabi/include/c++/10.3.1/bits/move.h ****    *  This function is used to implement "perfect forwarding".
  73:/Library/DaisyToolchain/0.2.0/arm/arm-none-eabi/include/c++/10.3.1/bits/move.h ****    */
  74:/Library/DaisyToolchain/0.2.0/arm/arm-none-eabi/include/c++/10.3.1/bits/move.h ****   template<typename _Tp>
  75:/Library/DaisyToolchain/0.2.0/arm/arm-none-eabi/include/c++/10.3.1/bits/move.h ****     constexpr _Tp&&
  76:/Library/DaisyToolchain/0.2.0/arm/arm-none-eabi/include/c++/10.3.1/bits/move.h ****     forward(typename std::remove_reference<_Tp>::type& __t) noexcept
  77:/Library/DaisyToolchain/0.2.0/arm/arm-none-eabi/include/c++/10.3.1/bits/move.h ****     { return static_cast<_Tp&&>(__t); }
  78:/Library/DaisyToolchain/0.2.0/arm/arm-none-eabi/include/c++/10.3.1/bits/move.h **** 
  79:/Library/DaisyToolchain/0.2.0/arm/arm-none-eabi/include/c++/10.3.1/bits/move.h ****   /**
  80:/Library/DaisyToolchain/0.2.0/arm/arm-none-eabi/include/c++/10.3.1/bits/move.h ****    *  @brief  Forward an rvalue.
  81:/Library/DaisyToolchain/0.2.0/arm/arm-none-eabi/include/c++/10.3.1/bits/move.h ****    *  @return The parameter cast to the specified type.
  82:/Library/DaisyToolchain/0.2.0/arm/arm-none-eabi/include/c++/10.3.1/bits/move.h ****    *
  83:/Library/DaisyToolchain/0.2.0/arm/arm-none-eabi/include/c++/10.3.1/bits/move.h ****    *  This function is used to implement "perfect forwarding".
  84:/Library/DaisyToolchain/0.2.0/arm/arm-none-eabi/include/c++/10.3.1/bits/move.h ****    */
  85:/Library/DaisyToolchain/0.2.0/arm/arm-none-eabi/include/c++/10.3.1/bits/move.h ****   template<typename _Tp>
  86:/Library/DaisyToolchain/0.2.0/arm/arm-none-eabi/include/c++/10.3.1/bits/move.h ****     constexpr _Tp&&
  87:/Library/DaisyToolchain/0.2.0/arm/arm-none-eabi/include/c++/10.3.1/bits/move.h ****     forward(typename std::remove_reference<_Tp>::type&& __t) noexcept
  88:/Library/DaisyToolchain/0.2.0/arm/arm-none-eabi/include/c++/10.3.1/bits/move.h ****     {
  89:/Library/DaisyToolchain/0.2.0/arm/arm-none-eabi/include/c++/10.3.1/bits/move.h ****       static_assert(!std::is_lvalue_reference<_Tp>::value, "template argument"
  90:/Library/DaisyToolchain/0.2.0/arm/arm-none-eabi/include/c++/10.3.1/bits/move.h **** 		    " substituting _Tp is an lvalue reference type");
  91:/Library/DaisyToolchain/0.2.0/arm/arm-none-eabi/include/c++/10.3.1/bits/move.h ****       return static_cast<_Tp&&>(__t);
  92:/Library/DaisyToolchain/0.2.0/arm/arm-none-eabi/include/c++/10.3.1/bits/move.h ****     }
  93:/Library/DaisyToolchain/0.2.0/arm/arm-none-eabi/include/c++/10.3.1/bits/move.h **** 
  94:/Library/DaisyToolchain/0.2.0/arm/arm-none-eabi/include/c++/10.3.1/bits/move.h ****   /**
  95:/Library/DaisyToolchain/0.2.0/arm/arm-none-eabi/include/c++/10.3.1/bits/move.h ****    *  @brief  Convert a value to an rvalue.
  96:/Library/DaisyToolchain/0.2.0/arm/arm-none-eabi/include/c++/10.3.1/bits/move.h ****    *  @param  __t  A thing of arbitrary type.
  97:/Library/DaisyToolchain/0.2.0/arm/arm-none-eabi/include/c++/10.3.1/bits/move.h ****    *  @return The parameter cast to an rvalue-reference to allow moving it.
  98:/Library/DaisyToolchain/0.2.0/arm/arm-none-eabi/include/c++/10.3.1/bits/move.h ****   */
  99:/Library/DaisyToolchain/0.2.0/arm/arm-none-eabi/include/c++/10.3.1/bits/move.h ****   template<typename _Tp>
 100:/Library/DaisyToolchain/0.2.0/arm/arm-none-eabi/include/c++/10.3.1/bits/move.h ****     constexpr typename std::remove_reference<_Tp>::type&&
 101:/Library/DaisyToolchain/0.2.0/arm/arm-none-eabi/include/c++/10.3.1/bits/move.h ****     move(_Tp&& __t) noexcept
 102:/Library/DaisyToolchain/0.2.0/arm/arm-none-eabi/include/c++/10.3.1/bits/move.h ****     { return static_cast<typename std::remove_reference<_Tp>::type&&>(__t); }
 103:/Library/DaisyToolchain/0.2.0/arm/arm-none-eabi/include/c++/10.3.1/bits/move.h **** 
 104:/Library/DaisyToolchain/0.2.0/arm/arm-none-eabi/include/c++/10.3.1/bits/move.h **** 
 105:/Library/DaisyToolchain/0.2.0/arm/arm-none-eabi/include/c++/10.3.1/bits/move.h ****   template<typename _Tp>
 106:/Library/DaisyToolchain/0.2.0/arm/arm-none-eabi/include/c++/10.3.1/bits/move.h ****     struct __move_if_noexcept_cond
 107:/Library/DaisyToolchain/0.2.0/arm/arm-none-eabi/include/c++/10.3.1/bits/move.h ****     : public __and_<__not_<is_nothrow_move_constructible<_Tp>>,
 108:/Library/DaisyToolchain/0.2.0/arm/arm-none-eabi/include/c++/10.3.1/bits/move.h ****                     is_copy_constructible<_Tp>>::type { };
 109:/Library/DaisyToolchain/0.2.0/arm/arm-none-eabi/include/c++/10.3.1/bits/move.h **** 
 110:/Library/DaisyToolchain/0.2.0/arm/arm-none-eabi/include/c++/10.3.1/bits/move.h ****   /**
 111:/Library/DaisyToolchain/0.2.0/arm/arm-none-eabi/include/c++/10.3.1/bits/move.h ****    *  @brief  Conditionally convert a value to an rvalue.
 112:/Library/DaisyToolchain/0.2.0/arm/arm-none-eabi/include/c++/10.3.1/bits/move.h ****    *  @param  __x  A thing of arbitrary type.
 113:/Library/DaisyToolchain/0.2.0/arm/arm-none-eabi/include/c++/10.3.1/bits/move.h ****    *  @return The parameter, possibly cast to an rvalue-reference.
 114:/Library/DaisyToolchain/0.2.0/arm/arm-none-eabi/include/c++/10.3.1/bits/move.h ****    *
 115:/Library/DaisyToolchain/0.2.0/arm/arm-none-eabi/include/c++/10.3.1/bits/move.h ****    *  Same as std::move unless the type's move constructor could throw and the
 116:/Library/DaisyToolchain/0.2.0/arm/arm-none-eabi/include/c++/10.3.1/bits/move.h ****    *  type is copyable, in which case an lvalue-reference is returned instead.
ARM GAS  /var/folders/wz/z09yph4n0qj4t7mjxhl6ttn80000gn/T//ccPO7ASC.s 			page 50


 117:/Library/DaisyToolchain/0.2.0/arm/arm-none-eabi/include/c++/10.3.1/bits/move.h ****    */
 118:/Library/DaisyToolchain/0.2.0/arm/arm-none-eabi/include/c++/10.3.1/bits/move.h ****   template<typename _Tp>
 119:/Library/DaisyToolchain/0.2.0/arm/arm-none-eabi/include/c++/10.3.1/bits/move.h ****     constexpr typename
 120:/Library/DaisyToolchain/0.2.0/arm/arm-none-eabi/include/c++/10.3.1/bits/move.h ****     conditional<__move_if_noexcept_cond<_Tp>::value, const _Tp&, _Tp&&>::type
 121:/Library/DaisyToolchain/0.2.0/arm/arm-none-eabi/include/c++/10.3.1/bits/move.h ****     move_if_noexcept(_Tp& __x) noexcept
 122:/Library/DaisyToolchain/0.2.0/arm/arm-none-eabi/include/c++/10.3.1/bits/move.h ****     { return std::move(__x); }
 123:/Library/DaisyToolchain/0.2.0/arm/arm-none-eabi/include/c++/10.3.1/bits/move.h **** 
 124:/Library/DaisyToolchain/0.2.0/arm/arm-none-eabi/include/c++/10.3.1/bits/move.h ****   // declval, from type_traits.
 125:/Library/DaisyToolchain/0.2.0/arm/arm-none-eabi/include/c++/10.3.1/bits/move.h **** 
 126:/Library/DaisyToolchain/0.2.0/arm/arm-none-eabi/include/c++/10.3.1/bits/move.h **** #if __cplusplus > 201402L
 127:/Library/DaisyToolchain/0.2.0/arm/arm-none-eabi/include/c++/10.3.1/bits/move.h ****   // _GLIBCXX_RESOLVE_LIB_DEFECTS
 128:/Library/DaisyToolchain/0.2.0/arm/arm-none-eabi/include/c++/10.3.1/bits/move.h ****   // 2296. std::addressof should be constexpr
 129:/Library/DaisyToolchain/0.2.0/arm/arm-none-eabi/include/c++/10.3.1/bits/move.h **** # define __cpp_lib_addressof_constexpr 201603
 130:/Library/DaisyToolchain/0.2.0/arm/arm-none-eabi/include/c++/10.3.1/bits/move.h **** #endif
 131:/Library/DaisyToolchain/0.2.0/arm/arm-none-eabi/include/c++/10.3.1/bits/move.h ****   /**
 132:/Library/DaisyToolchain/0.2.0/arm/arm-none-eabi/include/c++/10.3.1/bits/move.h ****    *  @brief Returns the actual address of the object or function
 133:/Library/DaisyToolchain/0.2.0/arm/arm-none-eabi/include/c++/10.3.1/bits/move.h ****    *         referenced by r, even in the presence of an overloaded
 134:/Library/DaisyToolchain/0.2.0/arm/arm-none-eabi/include/c++/10.3.1/bits/move.h ****    *         operator&.
 135:/Library/DaisyToolchain/0.2.0/arm/arm-none-eabi/include/c++/10.3.1/bits/move.h ****    *  @param  __r  Reference to an object or function.
 136:/Library/DaisyToolchain/0.2.0/arm/arm-none-eabi/include/c++/10.3.1/bits/move.h ****    *  @return   The actual address.
 137:/Library/DaisyToolchain/0.2.0/arm/arm-none-eabi/include/c++/10.3.1/bits/move.h ****   */
 138:/Library/DaisyToolchain/0.2.0/arm/arm-none-eabi/include/c++/10.3.1/bits/move.h ****   template<typename _Tp>
 139:/Library/DaisyToolchain/0.2.0/arm/arm-none-eabi/include/c++/10.3.1/bits/move.h ****     inline _GLIBCXX17_CONSTEXPR _Tp*
 140:/Library/DaisyToolchain/0.2.0/arm/arm-none-eabi/include/c++/10.3.1/bits/move.h ****     addressof(_Tp& __r) noexcept
 141:/Library/DaisyToolchain/0.2.0/arm/arm-none-eabi/include/c++/10.3.1/bits/move.h ****     { return std::__addressof(__r); }
 142:/Library/DaisyToolchain/0.2.0/arm/arm-none-eabi/include/c++/10.3.1/bits/move.h **** 
 143:/Library/DaisyToolchain/0.2.0/arm/arm-none-eabi/include/c++/10.3.1/bits/move.h ****   // _GLIBCXX_RESOLVE_LIB_DEFECTS
 144:/Library/DaisyToolchain/0.2.0/arm/arm-none-eabi/include/c++/10.3.1/bits/move.h ****   // 2598. addressof works on temporaries
 145:/Library/DaisyToolchain/0.2.0/arm/arm-none-eabi/include/c++/10.3.1/bits/move.h ****   template<typename _Tp>
 146:/Library/DaisyToolchain/0.2.0/arm/arm-none-eabi/include/c++/10.3.1/bits/move.h ****     const _Tp* addressof(const _Tp&&) = delete;
 147:/Library/DaisyToolchain/0.2.0/arm/arm-none-eabi/include/c++/10.3.1/bits/move.h **** 
 148:/Library/DaisyToolchain/0.2.0/arm/arm-none-eabi/include/c++/10.3.1/bits/move.h ****   // C++11 version of std::exchange for internal use.
 149:/Library/DaisyToolchain/0.2.0/arm/arm-none-eabi/include/c++/10.3.1/bits/move.h ****   template <typename _Tp, typename _Up = _Tp>
 150:/Library/DaisyToolchain/0.2.0/arm/arm-none-eabi/include/c++/10.3.1/bits/move.h ****     _GLIBCXX20_CONSTEXPR
 151:/Library/DaisyToolchain/0.2.0/arm/arm-none-eabi/include/c++/10.3.1/bits/move.h ****     inline _Tp
 152:/Library/DaisyToolchain/0.2.0/arm/arm-none-eabi/include/c++/10.3.1/bits/move.h ****     __exchange(_Tp& __obj, _Up&& __new_val)
 153:/Library/DaisyToolchain/0.2.0/arm/arm-none-eabi/include/c++/10.3.1/bits/move.h ****     {
 154:/Library/DaisyToolchain/0.2.0/arm/arm-none-eabi/include/c++/10.3.1/bits/move.h ****       _Tp __old_val = std::move(__obj);
 155:/Library/DaisyToolchain/0.2.0/arm/arm-none-eabi/include/c++/10.3.1/bits/move.h ****       __obj = std::forward<_Up>(__new_val);
 156:/Library/DaisyToolchain/0.2.0/arm/arm-none-eabi/include/c++/10.3.1/bits/move.h ****       return __old_val;
 157:/Library/DaisyToolchain/0.2.0/arm/arm-none-eabi/include/c++/10.3.1/bits/move.h ****     }
 158:/Library/DaisyToolchain/0.2.0/arm/arm-none-eabi/include/c++/10.3.1/bits/move.h **** 
 159:/Library/DaisyToolchain/0.2.0/arm/arm-none-eabi/include/c++/10.3.1/bits/move.h ****   /// @} group utilities
 160:/Library/DaisyToolchain/0.2.0/arm/arm-none-eabi/include/c++/10.3.1/bits/move.h **** 
 161:/Library/DaisyToolchain/0.2.0/arm/arm-none-eabi/include/c++/10.3.1/bits/move.h **** #define _GLIBCXX_MOVE(__val) std::move(__val)
 162:/Library/DaisyToolchain/0.2.0/arm/arm-none-eabi/include/c++/10.3.1/bits/move.h **** #define _GLIBCXX_FORWARD(_Tp, __val) std::forward<_Tp>(__val)
 163:/Library/DaisyToolchain/0.2.0/arm/arm-none-eabi/include/c++/10.3.1/bits/move.h **** #else
 164:/Library/DaisyToolchain/0.2.0/arm/arm-none-eabi/include/c++/10.3.1/bits/move.h **** #define _GLIBCXX_MOVE(__val) (__val)
 165:/Library/DaisyToolchain/0.2.0/arm/arm-none-eabi/include/c++/10.3.1/bits/move.h **** #define _GLIBCXX_FORWARD(_Tp, __val) (__val)
 166:/Library/DaisyToolchain/0.2.0/arm/arm-none-eabi/include/c++/10.3.1/bits/move.h **** #endif
 167:/Library/DaisyToolchain/0.2.0/arm/arm-none-eabi/include/c++/10.3.1/bits/move.h **** 
 168:/Library/DaisyToolchain/0.2.0/arm/arm-none-eabi/include/c++/10.3.1/bits/move.h ****   /**
 169:/Library/DaisyToolchain/0.2.0/arm/arm-none-eabi/include/c++/10.3.1/bits/move.h ****    *  @addtogroup utilities
 170:/Library/DaisyToolchain/0.2.0/arm/arm-none-eabi/include/c++/10.3.1/bits/move.h ****    *  @{
 171:/Library/DaisyToolchain/0.2.0/arm/arm-none-eabi/include/c++/10.3.1/bits/move.h ****    */
 172:/Library/DaisyToolchain/0.2.0/arm/arm-none-eabi/include/c++/10.3.1/bits/move.h **** 
 173:/Library/DaisyToolchain/0.2.0/arm/arm-none-eabi/include/c++/10.3.1/bits/move.h ****   /**
ARM GAS  /var/folders/wz/z09yph4n0qj4t7mjxhl6ttn80000gn/T//ccPO7ASC.s 			page 51


 174:/Library/DaisyToolchain/0.2.0/arm/arm-none-eabi/include/c++/10.3.1/bits/move.h ****    *  @brief Swaps two values.
 175:/Library/DaisyToolchain/0.2.0/arm/arm-none-eabi/include/c++/10.3.1/bits/move.h ****    *  @param  __a  A thing of arbitrary type.
 176:/Library/DaisyToolchain/0.2.0/arm/arm-none-eabi/include/c++/10.3.1/bits/move.h ****    *  @param  __b  Another thing of arbitrary type.
 177:/Library/DaisyToolchain/0.2.0/arm/arm-none-eabi/include/c++/10.3.1/bits/move.h ****    *  @return   Nothing.
 178:/Library/DaisyToolchain/0.2.0/arm/arm-none-eabi/include/c++/10.3.1/bits/move.h ****   */
 179:/Library/DaisyToolchain/0.2.0/arm/arm-none-eabi/include/c++/10.3.1/bits/move.h ****   template<typename _Tp>
 180:/Library/DaisyToolchain/0.2.0/arm/arm-none-eabi/include/c++/10.3.1/bits/move.h ****     _GLIBCXX20_CONSTEXPR
 181:/Library/DaisyToolchain/0.2.0/arm/arm-none-eabi/include/c++/10.3.1/bits/move.h ****     inline
 182:/Library/DaisyToolchain/0.2.0/arm/arm-none-eabi/include/c++/10.3.1/bits/move.h **** #if __cplusplus >= 201103L
 183:/Library/DaisyToolchain/0.2.0/arm/arm-none-eabi/include/c++/10.3.1/bits/move.h ****     typename enable_if<__and_<__not_<__is_tuple_like<_Tp>>,
 184:/Library/DaisyToolchain/0.2.0/arm/arm-none-eabi/include/c++/10.3.1/bits/move.h **** 			      is_move_constructible<_Tp>,
 185:/Library/DaisyToolchain/0.2.0/arm/arm-none-eabi/include/c++/10.3.1/bits/move.h **** 			      is_move_assignable<_Tp>>::value>::type
 186:/Library/DaisyToolchain/0.2.0/arm/arm-none-eabi/include/c++/10.3.1/bits/move.h **** #else
 187:/Library/DaisyToolchain/0.2.0/arm/arm-none-eabi/include/c++/10.3.1/bits/move.h ****     void
 188:/Library/DaisyToolchain/0.2.0/arm/arm-none-eabi/include/c++/10.3.1/bits/move.h **** #endif
 189:/Library/DaisyToolchain/0.2.0/arm/arm-none-eabi/include/c++/10.3.1/bits/move.h ****     swap(_Tp& __a, _Tp& __b)
 190:/Library/DaisyToolchain/0.2.0/arm/arm-none-eabi/include/c++/10.3.1/bits/move.h ****     _GLIBCXX_NOEXCEPT_IF(__and_<is_nothrow_move_constructible<_Tp>,
 191:/Library/DaisyToolchain/0.2.0/arm/arm-none-eabi/include/c++/10.3.1/bits/move.h **** 				is_nothrow_move_assignable<_Tp>>::value)
 192:/Library/DaisyToolchain/0.2.0/arm/arm-none-eabi/include/c++/10.3.1/bits/move.h ****     {
 193:/Library/DaisyToolchain/0.2.0/arm/arm-none-eabi/include/c++/10.3.1/bits/move.h **** #if __cplusplus < 201103L
 194:/Library/DaisyToolchain/0.2.0/arm/arm-none-eabi/include/c++/10.3.1/bits/move.h ****       // concept requirements
 195:/Library/DaisyToolchain/0.2.0/arm/arm-none-eabi/include/c++/10.3.1/bits/move.h ****       __glibcxx_function_requires(_SGIAssignableConcept<_Tp>)
 196:/Library/DaisyToolchain/0.2.0/arm/arm-none-eabi/include/c++/10.3.1/bits/move.h **** #endif
 197:/Library/DaisyToolchain/0.2.0/arm/arm-none-eabi/include/c++/10.3.1/bits/move.h ****       _Tp __tmp = _GLIBCXX_MOVE(__a);
 1439              		.loc 8 197 11 view .LVU404
 1440 0180 08AD     		add	r5, sp, #32
 1441 0182 02AF     		add	r7, sp, #8
 1442              	.LBE1310:
 1443              	.LBE1309:
 1444              	.LBE1308:
 1445              	.LBB1324:
 1446              	.LBB1325:
 1447              	.LBB1326:
 1448              	.LBB1327:
 1449              	.LBB1328:
 1450              	.LBB1329:
 1451              	.LBB1330:
 152:/Library/DaisyToolchain/0.2.0/arm/arm-none-eabi/include/c++/10.3.1/bits/std_function.h **** 	}
 1452              		.loc 1 152 4 view .LVU405
 1453 0184 0896     		str	r6, [sp, #32]
 1454              	.LBE1330:
 1455              	.LBE1329:
 1456              	.LBE1328:
 1457              	.LBE1327:
 1458              	.LBE1326:
 1459              	.LBE1325:
 1460              	.LBE1324:
 1461              	.LBE1307:
 1462              	.LBE1306:
 1463              	.LBE1305:
 1464              	.LBE1304:
 1465              	.LBB1366:
 1466              	.LBB1298:
  78:../../../DaisySP//Source/Effects/pitchshifter.h ****     }
 1467              		.loc 3 78 14 view .LVU406
 1468 0186 C4F88430 		str	r3, [r4, #132]	@ float
 1469              	.LVL78:
ARM GAS  /var/folders/wz/z09yph4n0qj4t7mjxhl6ttn80000gn/T//ccPO7ASC.s 			page 52


  78:../../../DaisySP//Source/Effects/pitchshifter.h ****     }
 1470              		.loc 3 78 14 view .LVU407
 1471              	.LBE1298:
 1472              	.LBE1366:
  14:DSP/FX/PitchShift.cpp ****     timbre.init(seed, 0, 1, LINEAR, ChannelIDs::AMP3, [this] (u_int32_t t) { shifter.SetDelSize(t);
 1473              		.loc 4 14 5 is_stmt 1 view .LVU408
 1474              	.LBB1367:
 1475              	.LBI1367:
 294:/Library/DaisyToolchain/0.2.0/arm/arm-none-eabi/include/c++/10.3.1/bits/std_function.h ****     };
 295:/Library/DaisyToolchain/0.2.0/arm/arm-none-eabi/include/c++/10.3.1/bits/std_function.h **** 
 296:/Library/DaisyToolchain/0.2.0/arm/arm-none-eabi/include/c++/10.3.1/bits/std_function.h ****   /**
 297:/Library/DaisyToolchain/0.2.0/arm/arm-none-eabi/include/c++/10.3.1/bits/std_function.h ****    *  @brief Primary class template for std::function.
 298:/Library/DaisyToolchain/0.2.0/arm/arm-none-eabi/include/c++/10.3.1/bits/std_function.h ****    *  @ingroup functors
 299:/Library/DaisyToolchain/0.2.0/arm/arm-none-eabi/include/c++/10.3.1/bits/std_function.h ****    *
 300:/Library/DaisyToolchain/0.2.0/arm/arm-none-eabi/include/c++/10.3.1/bits/std_function.h ****    *  Polymorphic function wrapper.
 301:/Library/DaisyToolchain/0.2.0/arm/arm-none-eabi/include/c++/10.3.1/bits/std_function.h ****    */
 302:/Library/DaisyToolchain/0.2.0/arm/arm-none-eabi/include/c++/10.3.1/bits/std_function.h ****   template<typename _Res, typename... _ArgTypes>
 303:/Library/DaisyToolchain/0.2.0/arm/arm-none-eabi/include/c++/10.3.1/bits/std_function.h ****     class function<_Res(_ArgTypes...)>
 304:/Library/DaisyToolchain/0.2.0/arm/arm-none-eabi/include/c++/10.3.1/bits/std_function.h ****     : public _Maybe_unary_or_binary_function<_Res, _ArgTypes...>,
 305:/Library/DaisyToolchain/0.2.0/arm/arm-none-eabi/include/c++/10.3.1/bits/std_function.h ****       private _Function_base
 306:/Library/DaisyToolchain/0.2.0/arm/arm-none-eabi/include/c++/10.3.1/bits/std_function.h ****     {
 307:/Library/DaisyToolchain/0.2.0/arm/arm-none-eabi/include/c++/10.3.1/bits/std_function.h ****       template<typename _Func,
 308:/Library/DaisyToolchain/0.2.0/arm/arm-none-eabi/include/c++/10.3.1/bits/std_function.h **** 	       typename _Res2 = __invoke_result<_Func&, _ArgTypes...>>
 309:/Library/DaisyToolchain/0.2.0/arm/arm-none-eabi/include/c++/10.3.1/bits/std_function.h **** 	struct _Callable
 310:/Library/DaisyToolchain/0.2.0/arm/arm-none-eabi/include/c++/10.3.1/bits/std_function.h **** 	: __is_invocable_impl<_Res2, _Res>::type
 311:/Library/DaisyToolchain/0.2.0/arm/arm-none-eabi/include/c++/10.3.1/bits/std_function.h **** 	{ };
 312:/Library/DaisyToolchain/0.2.0/arm/arm-none-eabi/include/c++/10.3.1/bits/std_function.h **** 
 313:/Library/DaisyToolchain/0.2.0/arm/arm-none-eabi/include/c++/10.3.1/bits/std_function.h ****       // Used so the return type convertibility checks aren't done when
 314:/Library/DaisyToolchain/0.2.0/arm/arm-none-eabi/include/c++/10.3.1/bits/std_function.h ****       // performing overload resolution for copy construction/assignment.
 315:/Library/DaisyToolchain/0.2.0/arm/arm-none-eabi/include/c++/10.3.1/bits/std_function.h ****       template<typename _Tp>
 316:/Library/DaisyToolchain/0.2.0/arm/arm-none-eabi/include/c++/10.3.1/bits/std_function.h **** 	struct _Callable<function, _Tp> : false_type { };
 317:/Library/DaisyToolchain/0.2.0/arm/arm-none-eabi/include/c++/10.3.1/bits/std_function.h **** 
 318:/Library/DaisyToolchain/0.2.0/arm/arm-none-eabi/include/c++/10.3.1/bits/std_function.h ****       template<typename _Cond, typename _Tp>
 319:/Library/DaisyToolchain/0.2.0/arm/arm-none-eabi/include/c++/10.3.1/bits/std_function.h **** 	using _Requires = typename enable_if<_Cond::value, _Tp>::type;
 320:/Library/DaisyToolchain/0.2.0/arm/arm-none-eabi/include/c++/10.3.1/bits/std_function.h **** 
 321:/Library/DaisyToolchain/0.2.0/arm/arm-none-eabi/include/c++/10.3.1/bits/std_function.h ****     public:
 322:/Library/DaisyToolchain/0.2.0/arm/arm-none-eabi/include/c++/10.3.1/bits/std_function.h ****       typedef _Res result_type;
 323:/Library/DaisyToolchain/0.2.0/arm/arm-none-eabi/include/c++/10.3.1/bits/std_function.h **** 
 324:/Library/DaisyToolchain/0.2.0/arm/arm-none-eabi/include/c++/10.3.1/bits/std_function.h ****       // [3.7.2.1] construct/copy/destroy
 325:/Library/DaisyToolchain/0.2.0/arm/arm-none-eabi/include/c++/10.3.1/bits/std_function.h **** 
 326:/Library/DaisyToolchain/0.2.0/arm/arm-none-eabi/include/c++/10.3.1/bits/std_function.h ****       /**
 327:/Library/DaisyToolchain/0.2.0/arm/arm-none-eabi/include/c++/10.3.1/bits/std_function.h ****        *  @brief Default construct creates an empty function call wrapper.
 328:/Library/DaisyToolchain/0.2.0/arm/arm-none-eabi/include/c++/10.3.1/bits/std_function.h ****        *  @post @c !(bool)*this
 329:/Library/DaisyToolchain/0.2.0/arm/arm-none-eabi/include/c++/10.3.1/bits/std_function.h ****        */
 330:/Library/DaisyToolchain/0.2.0/arm/arm-none-eabi/include/c++/10.3.1/bits/std_function.h ****       function() noexcept
 331:/Library/DaisyToolchain/0.2.0/arm/arm-none-eabi/include/c++/10.3.1/bits/std_function.h ****       : _Function_base() { }
 332:/Library/DaisyToolchain/0.2.0/arm/arm-none-eabi/include/c++/10.3.1/bits/std_function.h **** 
 333:/Library/DaisyToolchain/0.2.0/arm/arm-none-eabi/include/c++/10.3.1/bits/std_function.h ****       /**
 334:/Library/DaisyToolchain/0.2.0/arm/arm-none-eabi/include/c++/10.3.1/bits/std_function.h ****        *  @brief Creates an empty function call wrapper.
 335:/Library/DaisyToolchain/0.2.0/arm/arm-none-eabi/include/c++/10.3.1/bits/std_function.h ****        *  @post @c !(bool)*this
 336:/Library/DaisyToolchain/0.2.0/arm/arm-none-eabi/include/c++/10.3.1/bits/std_function.h ****        */
 337:/Library/DaisyToolchain/0.2.0/arm/arm-none-eabi/include/c++/10.3.1/bits/std_function.h ****       function(nullptr_t) noexcept
 338:/Library/DaisyToolchain/0.2.0/arm/arm-none-eabi/include/c++/10.3.1/bits/std_function.h ****       : _Function_base() { }
 339:/Library/DaisyToolchain/0.2.0/arm/arm-none-eabi/include/c++/10.3.1/bits/std_function.h **** 
 340:/Library/DaisyToolchain/0.2.0/arm/arm-none-eabi/include/c++/10.3.1/bits/std_function.h ****       /**
 341:/Library/DaisyToolchain/0.2.0/arm/arm-none-eabi/include/c++/10.3.1/bits/std_function.h ****        *  @brief %Function copy constructor.
 342:/Library/DaisyToolchain/0.2.0/arm/arm-none-eabi/include/c++/10.3.1/bits/std_function.h ****        *  @param __x A %function object with identical call signature.
ARM GAS  /var/folders/wz/z09yph4n0qj4t7mjxhl6ttn80000gn/T//ccPO7ASC.s 			page 53


 343:/Library/DaisyToolchain/0.2.0/arm/arm-none-eabi/include/c++/10.3.1/bits/std_function.h ****        *  @post @c bool(*this) == bool(__x)
 344:/Library/DaisyToolchain/0.2.0/arm/arm-none-eabi/include/c++/10.3.1/bits/std_function.h ****        *
 345:/Library/DaisyToolchain/0.2.0/arm/arm-none-eabi/include/c++/10.3.1/bits/std_function.h ****        *  The newly-created %function contains a copy of the target of @a
 346:/Library/DaisyToolchain/0.2.0/arm/arm-none-eabi/include/c++/10.3.1/bits/std_function.h ****        *  __x (if it has one).
 347:/Library/DaisyToolchain/0.2.0/arm/arm-none-eabi/include/c++/10.3.1/bits/std_function.h ****        */
 348:/Library/DaisyToolchain/0.2.0/arm/arm-none-eabi/include/c++/10.3.1/bits/std_function.h ****       function(const function& __x);
 349:/Library/DaisyToolchain/0.2.0/arm/arm-none-eabi/include/c++/10.3.1/bits/std_function.h **** 
 350:/Library/DaisyToolchain/0.2.0/arm/arm-none-eabi/include/c++/10.3.1/bits/std_function.h ****       /**
 351:/Library/DaisyToolchain/0.2.0/arm/arm-none-eabi/include/c++/10.3.1/bits/std_function.h ****        *  @brief %Function move constructor.
 352:/Library/DaisyToolchain/0.2.0/arm/arm-none-eabi/include/c++/10.3.1/bits/std_function.h ****        *  @param __x A %function object rvalue with identical call signature.
 353:/Library/DaisyToolchain/0.2.0/arm/arm-none-eabi/include/c++/10.3.1/bits/std_function.h ****        *
 354:/Library/DaisyToolchain/0.2.0/arm/arm-none-eabi/include/c++/10.3.1/bits/std_function.h ****        *  The newly-created %function contains the target of @a __x
 355:/Library/DaisyToolchain/0.2.0/arm/arm-none-eabi/include/c++/10.3.1/bits/std_function.h ****        *  (if it has one).
 356:/Library/DaisyToolchain/0.2.0/arm/arm-none-eabi/include/c++/10.3.1/bits/std_function.h ****        */
 357:/Library/DaisyToolchain/0.2.0/arm/arm-none-eabi/include/c++/10.3.1/bits/std_function.h ****       function(function&& __x) noexcept : _Function_base()
 358:/Library/DaisyToolchain/0.2.0/arm/arm-none-eabi/include/c++/10.3.1/bits/std_function.h ****       {
 359:/Library/DaisyToolchain/0.2.0/arm/arm-none-eabi/include/c++/10.3.1/bits/std_function.h **** 	__x.swap(*this);
 360:/Library/DaisyToolchain/0.2.0/arm/arm-none-eabi/include/c++/10.3.1/bits/std_function.h ****       }
 361:/Library/DaisyToolchain/0.2.0/arm/arm-none-eabi/include/c++/10.3.1/bits/std_function.h **** 
 362:/Library/DaisyToolchain/0.2.0/arm/arm-none-eabi/include/c++/10.3.1/bits/std_function.h ****       /**
 363:/Library/DaisyToolchain/0.2.0/arm/arm-none-eabi/include/c++/10.3.1/bits/std_function.h ****        *  @brief Builds a %function that targets a copy of the incoming
 364:/Library/DaisyToolchain/0.2.0/arm/arm-none-eabi/include/c++/10.3.1/bits/std_function.h ****        *  function object.
 365:/Library/DaisyToolchain/0.2.0/arm/arm-none-eabi/include/c++/10.3.1/bits/std_function.h ****        *  @param __f A %function object that is callable with parameters of
 366:/Library/DaisyToolchain/0.2.0/arm/arm-none-eabi/include/c++/10.3.1/bits/std_function.h ****        *  type @c T1, @c T2, ..., @c TN and returns a value convertible
 367:/Library/DaisyToolchain/0.2.0/arm/arm-none-eabi/include/c++/10.3.1/bits/std_function.h ****        *  to @c Res.
 368:/Library/DaisyToolchain/0.2.0/arm/arm-none-eabi/include/c++/10.3.1/bits/std_function.h ****        *
 369:/Library/DaisyToolchain/0.2.0/arm/arm-none-eabi/include/c++/10.3.1/bits/std_function.h ****        *  The newly-created %function object will target a copy of
 370:/Library/DaisyToolchain/0.2.0/arm/arm-none-eabi/include/c++/10.3.1/bits/std_function.h ****        *  @a __f. If @a __f is @c reference_wrapper<F>, then this function
 371:/Library/DaisyToolchain/0.2.0/arm/arm-none-eabi/include/c++/10.3.1/bits/std_function.h ****        *  object will contain a reference to the function object @c
 372:/Library/DaisyToolchain/0.2.0/arm/arm-none-eabi/include/c++/10.3.1/bits/std_function.h ****        *  __f.get(). If @a __f is a NULL function pointer or NULL
 373:/Library/DaisyToolchain/0.2.0/arm/arm-none-eabi/include/c++/10.3.1/bits/std_function.h ****        *  pointer-to-member, the newly-created object will be empty.
 374:/Library/DaisyToolchain/0.2.0/arm/arm-none-eabi/include/c++/10.3.1/bits/std_function.h ****        *
 375:/Library/DaisyToolchain/0.2.0/arm/arm-none-eabi/include/c++/10.3.1/bits/std_function.h ****        *  If @a __f is a non-NULL function pointer or an object of type @c
 376:/Library/DaisyToolchain/0.2.0/arm/arm-none-eabi/include/c++/10.3.1/bits/std_function.h ****        *  reference_wrapper<F>, this function will not throw.
 377:/Library/DaisyToolchain/0.2.0/arm/arm-none-eabi/include/c++/10.3.1/bits/std_function.h ****        */
 378:/Library/DaisyToolchain/0.2.0/arm/arm-none-eabi/include/c++/10.3.1/bits/std_function.h ****       template<typename _Functor,
 379:/Library/DaisyToolchain/0.2.0/arm/arm-none-eabi/include/c++/10.3.1/bits/std_function.h **** 	       typename = _Requires<__not_<is_same<_Functor, function>>, void>,
 380:/Library/DaisyToolchain/0.2.0/arm/arm-none-eabi/include/c++/10.3.1/bits/std_function.h **** 	       typename = _Requires<_Callable<_Functor>, void>>
 381:/Library/DaisyToolchain/0.2.0/arm/arm-none-eabi/include/c++/10.3.1/bits/std_function.h **** 	function(_Functor);
 382:/Library/DaisyToolchain/0.2.0/arm/arm-none-eabi/include/c++/10.3.1/bits/std_function.h **** 
 383:/Library/DaisyToolchain/0.2.0/arm/arm-none-eabi/include/c++/10.3.1/bits/std_function.h ****       /**
 384:/Library/DaisyToolchain/0.2.0/arm/arm-none-eabi/include/c++/10.3.1/bits/std_function.h ****        *  @brief %Function assignment operator.
 385:/Library/DaisyToolchain/0.2.0/arm/arm-none-eabi/include/c++/10.3.1/bits/std_function.h ****        *  @param __x A %function with identical call signature.
 386:/Library/DaisyToolchain/0.2.0/arm/arm-none-eabi/include/c++/10.3.1/bits/std_function.h ****        *  @post @c (bool)*this == (bool)x
 387:/Library/DaisyToolchain/0.2.0/arm/arm-none-eabi/include/c++/10.3.1/bits/std_function.h ****        *  @returns @c *this
 388:/Library/DaisyToolchain/0.2.0/arm/arm-none-eabi/include/c++/10.3.1/bits/std_function.h ****        *
 389:/Library/DaisyToolchain/0.2.0/arm/arm-none-eabi/include/c++/10.3.1/bits/std_function.h ****        *  The target of @a __x is copied to @c *this. If @a __x has no
 390:/Library/DaisyToolchain/0.2.0/arm/arm-none-eabi/include/c++/10.3.1/bits/std_function.h ****        *  target, then @c *this will be empty.
 391:/Library/DaisyToolchain/0.2.0/arm/arm-none-eabi/include/c++/10.3.1/bits/std_function.h ****        *
 392:/Library/DaisyToolchain/0.2.0/arm/arm-none-eabi/include/c++/10.3.1/bits/std_function.h ****        *  If @a __x targets a function pointer or a reference to a function
 393:/Library/DaisyToolchain/0.2.0/arm/arm-none-eabi/include/c++/10.3.1/bits/std_function.h ****        *  object, then this operation will not throw an %exception.
 394:/Library/DaisyToolchain/0.2.0/arm/arm-none-eabi/include/c++/10.3.1/bits/std_function.h ****        */
 395:/Library/DaisyToolchain/0.2.0/arm/arm-none-eabi/include/c++/10.3.1/bits/std_function.h ****       function&
 396:/Library/DaisyToolchain/0.2.0/arm/arm-none-eabi/include/c++/10.3.1/bits/std_function.h ****       operator=(const function& __x)
 397:/Library/DaisyToolchain/0.2.0/arm/arm-none-eabi/include/c++/10.3.1/bits/std_function.h ****       {
 398:/Library/DaisyToolchain/0.2.0/arm/arm-none-eabi/include/c++/10.3.1/bits/std_function.h **** 	function(__x).swap(*this);
 399:/Library/DaisyToolchain/0.2.0/arm/arm-none-eabi/include/c++/10.3.1/bits/std_function.h **** 	return *this;
ARM GAS  /var/folders/wz/z09yph4n0qj4t7mjxhl6ttn80000gn/T//ccPO7ASC.s 			page 54


 400:/Library/DaisyToolchain/0.2.0/arm/arm-none-eabi/include/c++/10.3.1/bits/std_function.h ****       }
 401:/Library/DaisyToolchain/0.2.0/arm/arm-none-eabi/include/c++/10.3.1/bits/std_function.h **** 
 402:/Library/DaisyToolchain/0.2.0/arm/arm-none-eabi/include/c++/10.3.1/bits/std_function.h ****       /**
 403:/Library/DaisyToolchain/0.2.0/arm/arm-none-eabi/include/c++/10.3.1/bits/std_function.h ****        *  @brief %Function move-assignment operator.
 404:/Library/DaisyToolchain/0.2.0/arm/arm-none-eabi/include/c++/10.3.1/bits/std_function.h ****        *  @param __x A %function rvalue with identical call signature.
 405:/Library/DaisyToolchain/0.2.0/arm/arm-none-eabi/include/c++/10.3.1/bits/std_function.h ****        *  @returns @c *this
 406:/Library/DaisyToolchain/0.2.0/arm/arm-none-eabi/include/c++/10.3.1/bits/std_function.h ****        *
 407:/Library/DaisyToolchain/0.2.0/arm/arm-none-eabi/include/c++/10.3.1/bits/std_function.h ****        *  The target of @a __x is moved to @c *this. If @a __x has no
 408:/Library/DaisyToolchain/0.2.0/arm/arm-none-eabi/include/c++/10.3.1/bits/std_function.h ****        *  target, then @c *this will be empty.
 409:/Library/DaisyToolchain/0.2.0/arm/arm-none-eabi/include/c++/10.3.1/bits/std_function.h ****        *
 410:/Library/DaisyToolchain/0.2.0/arm/arm-none-eabi/include/c++/10.3.1/bits/std_function.h ****        *  If @a __x targets a function pointer or a reference to a function
 411:/Library/DaisyToolchain/0.2.0/arm/arm-none-eabi/include/c++/10.3.1/bits/std_function.h ****        *  object, then this operation will not throw an %exception.
 412:/Library/DaisyToolchain/0.2.0/arm/arm-none-eabi/include/c++/10.3.1/bits/std_function.h ****        */
 413:/Library/DaisyToolchain/0.2.0/arm/arm-none-eabi/include/c++/10.3.1/bits/std_function.h ****       function&
 414:/Library/DaisyToolchain/0.2.0/arm/arm-none-eabi/include/c++/10.3.1/bits/std_function.h ****       operator=(function&& __x) noexcept
 415:/Library/DaisyToolchain/0.2.0/arm/arm-none-eabi/include/c++/10.3.1/bits/std_function.h ****       {
 416:/Library/DaisyToolchain/0.2.0/arm/arm-none-eabi/include/c++/10.3.1/bits/std_function.h **** 	function(std::move(__x)).swap(*this);
 417:/Library/DaisyToolchain/0.2.0/arm/arm-none-eabi/include/c++/10.3.1/bits/std_function.h **** 	return *this;
 418:/Library/DaisyToolchain/0.2.0/arm/arm-none-eabi/include/c++/10.3.1/bits/std_function.h ****       }
 419:/Library/DaisyToolchain/0.2.0/arm/arm-none-eabi/include/c++/10.3.1/bits/std_function.h **** 
 420:/Library/DaisyToolchain/0.2.0/arm/arm-none-eabi/include/c++/10.3.1/bits/std_function.h ****       /**
 421:/Library/DaisyToolchain/0.2.0/arm/arm-none-eabi/include/c++/10.3.1/bits/std_function.h ****        *  @brief %Function assignment to zero.
 422:/Library/DaisyToolchain/0.2.0/arm/arm-none-eabi/include/c++/10.3.1/bits/std_function.h ****        *  @post @c !(bool)*this
 423:/Library/DaisyToolchain/0.2.0/arm/arm-none-eabi/include/c++/10.3.1/bits/std_function.h ****        *  @returns @c *this
 424:/Library/DaisyToolchain/0.2.0/arm/arm-none-eabi/include/c++/10.3.1/bits/std_function.h ****        *
 425:/Library/DaisyToolchain/0.2.0/arm/arm-none-eabi/include/c++/10.3.1/bits/std_function.h ****        *  The target of @c *this is deallocated, leaving it empty.
 426:/Library/DaisyToolchain/0.2.0/arm/arm-none-eabi/include/c++/10.3.1/bits/std_function.h ****        */
 427:/Library/DaisyToolchain/0.2.0/arm/arm-none-eabi/include/c++/10.3.1/bits/std_function.h ****       function&
 428:/Library/DaisyToolchain/0.2.0/arm/arm-none-eabi/include/c++/10.3.1/bits/std_function.h ****       operator=(nullptr_t) noexcept
 429:/Library/DaisyToolchain/0.2.0/arm/arm-none-eabi/include/c++/10.3.1/bits/std_function.h ****       {
 430:/Library/DaisyToolchain/0.2.0/arm/arm-none-eabi/include/c++/10.3.1/bits/std_function.h **** 	if (_M_manager)
 431:/Library/DaisyToolchain/0.2.0/arm/arm-none-eabi/include/c++/10.3.1/bits/std_function.h **** 	  {
 432:/Library/DaisyToolchain/0.2.0/arm/arm-none-eabi/include/c++/10.3.1/bits/std_function.h **** 	    _M_manager(_M_functor, _M_functor, __destroy_functor);
 433:/Library/DaisyToolchain/0.2.0/arm/arm-none-eabi/include/c++/10.3.1/bits/std_function.h **** 	    _M_manager = nullptr;
 434:/Library/DaisyToolchain/0.2.0/arm/arm-none-eabi/include/c++/10.3.1/bits/std_function.h **** 	    _M_invoker = nullptr;
 435:/Library/DaisyToolchain/0.2.0/arm/arm-none-eabi/include/c++/10.3.1/bits/std_function.h **** 	  }
 436:/Library/DaisyToolchain/0.2.0/arm/arm-none-eabi/include/c++/10.3.1/bits/std_function.h **** 	return *this;
 437:/Library/DaisyToolchain/0.2.0/arm/arm-none-eabi/include/c++/10.3.1/bits/std_function.h ****       }
 438:/Library/DaisyToolchain/0.2.0/arm/arm-none-eabi/include/c++/10.3.1/bits/std_function.h **** 
 439:/Library/DaisyToolchain/0.2.0/arm/arm-none-eabi/include/c++/10.3.1/bits/std_function.h ****       /**
 440:/Library/DaisyToolchain/0.2.0/arm/arm-none-eabi/include/c++/10.3.1/bits/std_function.h ****        *  @brief %Function assignment to a new target.
 441:/Library/DaisyToolchain/0.2.0/arm/arm-none-eabi/include/c++/10.3.1/bits/std_function.h ****        *  @param __f A %function object that is callable with parameters of
 442:/Library/DaisyToolchain/0.2.0/arm/arm-none-eabi/include/c++/10.3.1/bits/std_function.h ****        *  type @c T1, @c T2, ..., @c TN and returns a value convertible
 443:/Library/DaisyToolchain/0.2.0/arm/arm-none-eabi/include/c++/10.3.1/bits/std_function.h ****        *  to @c Res.
 444:/Library/DaisyToolchain/0.2.0/arm/arm-none-eabi/include/c++/10.3.1/bits/std_function.h ****        *  @return @c *this
 445:/Library/DaisyToolchain/0.2.0/arm/arm-none-eabi/include/c++/10.3.1/bits/std_function.h ****        *
 446:/Library/DaisyToolchain/0.2.0/arm/arm-none-eabi/include/c++/10.3.1/bits/std_function.h ****        *  This  %function object wrapper will target a copy of @a
 447:/Library/DaisyToolchain/0.2.0/arm/arm-none-eabi/include/c++/10.3.1/bits/std_function.h ****        *  __f. If @a __f is @c reference_wrapper<F>, then this function
 448:/Library/DaisyToolchain/0.2.0/arm/arm-none-eabi/include/c++/10.3.1/bits/std_function.h ****        *  object will contain a reference to the function object @c
 449:/Library/DaisyToolchain/0.2.0/arm/arm-none-eabi/include/c++/10.3.1/bits/std_function.h ****        *  __f.get(). If @a __f is a NULL function pointer or NULL
 450:/Library/DaisyToolchain/0.2.0/arm/arm-none-eabi/include/c++/10.3.1/bits/std_function.h ****        *  pointer-to-member, @c this object will be empty.
 451:/Library/DaisyToolchain/0.2.0/arm/arm-none-eabi/include/c++/10.3.1/bits/std_function.h ****        *
 452:/Library/DaisyToolchain/0.2.0/arm/arm-none-eabi/include/c++/10.3.1/bits/std_function.h ****        *  If @a __f is a non-NULL function pointer or an object of type @c
 453:/Library/DaisyToolchain/0.2.0/arm/arm-none-eabi/include/c++/10.3.1/bits/std_function.h ****        *  reference_wrapper<F>, this function will not throw.
 454:/Library/DaisyToolchain/0.2.0/arm/arm-none-eabi/include/c++/10.3.1/bits/std_function.h ****        */
 455:/Library/DaisyToolchain/0.2.0/arm/arm-none-eabi/include/c++/10.3.1/bits/std_function.h ****       template<typename _Functor>
 456:/Library/DaisyToolchain/0.2.0/arm/arm-none-eabi/include/c++/10.3.1/bits/std_function.h **** 	_Requires<_Callable<typename decay<_Functor>::type>, function&>
ARM GAS  /var/folders/wz/z09yph4n0qj4t7mjxhl6ttn80000gn/T//ccPO7ASC.s 			page 55


 457:/Library/DaisyToolchain/0.2.0/arm/arm-none-eabi/include/c++/10.3.1/bits/std_function.h **** 	operator=(_Functor&& __f)
 458:/Library/DaisyToolchain/0.2.0/arm/arm-none-eabi/include/c++/10.3.1/bits/std_function.h **** 	{
 459:/Library/DaisyToolchain/0.2.0/arm/arm-none-eabi/include/c++/10.3.1/bits/std_function.h **** 	  function(std::forward<_Functor>(__f)).swap(*this);
 460:/Library/DaisyToolchain/0.2.0/arm/arm-none-eabi/include/c++/10.3.1/bits/std_function.h **** 	  return *this;
 461:/Library/DaisyToolchain/0.2.0/arm/arm-none-eabi/include/c++/10.3.1/bits/std_function.h **** 	}
 462:/Library/DaisyToolchain/0.2.0/arm/arm-none-eabi/include/c++/10.3.1/bits/std_function.h **** 
 463:/Library/DaisyToolchain/0.2.0/arm/arm-none-eabi/include/c++/10.3.1/bits/std_function.h ****       /// @overload
 464:/Library/DaisyToolchain/0.2.0/arm/arm-none-eabi/include/c++/10.3.1/bits/std_function.h ****       template<typename _Functor>
 465:/Library/DaisyToolchain/0.2.0/arm/arm-none-eabi/include/c++/10.3.1/bits/std_function.h **** 	function&
 466:/Library/DaisyToolchain/0.2.0/arm/arm-none-eabi/include/c++/10.3.1/bits/std_function.h **** 	operator=(reference_wrapper<_Functor> __f) noexcept
 467:/Library/DaisyToolchain/0.2.0/arm/arm-none-eabi/include/c++/10.3.1/bits/std_function.h **** 	{
 468:/Library/DaisyToolchain/0.2.0/arm/arm-none-eabi/include/c++/10.3.1/bits/std_function.h **** 	  function(__f).swap(*this);
 469:/Library/DaisyToolchain/0.2.0/arm/arm-none-eabi/include/c++/10.3.1/bits/std_function.h **** 	  return *this;
 470:/Library/DaisyToolchain/0.2.0/arm/arm-none-eabi/include/c++/10.3.1/bits/std_function.h **** 	}
 471:/Library/DaisyToolchain/0.2.0/arm/arm-none-eabi/include/c++/10.3.1/bits/std_function.h **** 
 472:/Library/DaisyToolchain/0.2.0/arm/arm-none-eabi/include/c++/10.3.1/bits/std_function.h ****       // [3.7.2.2] function modifiers
 473:/Library/DaisyToolchain/0.2.0/arm/arm-none-eabi/include/c++/10.3.1/bits/std_function.h **** 
 474:/Library/DaisyToolchain/0.2.0/arm/arm-none-eabi/include/c++/10.3.1/bits/std_function.h ****       /**
 475:/Library/DaisyToolchain/0.2.0/arm/arm-none-eabi/include/c++/10.3.1/bits/std_function.h ****        *  @brief Swap the targets of two %function objects.
 476:/Library/DaisyToolchain/0.2.0/arm/arm-none-eabi/include/c++/10.3.1/bits/std_function.h ****        *  @param __x A %function with identical call signature.
 477:/Library/DaisyToolchain/0.2.0/arm/arm-none-eabi/include/c++/10.3.1/bits/std_function.h ****        *
 478:/Library/DaisyToolchain/0.2.0/arm/arm-none-eabi/include/c++/10.3.1/bits/std_function.h ****        *  Swap the targets of @c this function object and @a __f. This
 479:/Library/DaisyToolchain/0.2.0/arm/arm-none-eabi/include/c++/10.3.1/bits/std_function.h ****        *  function will not throw an %exception.
 480:/Library/DaisyToolchain/0.2.0/arm/arm-none-eabi/include/c++/10.3.1/bits/std_function.h ****        */
 481:/Library/DaisyToolchain/0.2.0/arm/arm-none-eabi/include/c++/10.3.1/bits/std_function.h ****       void swap(function& __x) noexcept
 482:/Library/DaisyToolchain/0.2.0/arm/arm-none-eabi/include/c++/10.3.1/bits/std_function.h ****       {
 483:/Library/DaisyToolchain/0.2.0/arm/arm-none-eabi/include/c++/10.3.1/bits/std_function.h **** 	std::swap(_M_functor, __x._M_functor);
 484:/Library/DaisyToolchain/0.2.0/arm/arm-none-eabi/include/c++/10.3.1/bits/std_function.h **** 	std::swap(_M_manager, __x._M_manager);
 485:/Library/DaisyToolchain/0.2.0/arm/arm-none-eabi/include/c++/10.3.1/bits/std_function.h **** 	std::swap(_M_invoker, __x._M_invoker);
 486:/Library/DaisyToolchain/0.2.0/arm/arm-none-eabi/include/c++/10.3.1/bits/std_function.h ****       }
 487:/Library/DaisyToolchain/0.2.0/arm/arm-none-eabi/include/c++/10.3.1/bits/std_function.h **** 
 488:/Library/DaisyToolchain/0.2.0/arm/arm-none-eabi/include/c++/10.3.1/bits/std_function.h ****       // [3.7.2.3] function capacity
 489:/Library/DaisyToolchain/0.2.0/arm/arm-none-eabi/include/c++/10.3.1/bits/std_function.h **** 
 490:/Library/DaisyToolchain/0.2.0/arm/arm-none-eabi/include/c++/10.3.1/bits/std_function.h ****       /**
 491:/Library/DaisyToolchain/0.2.0/arm/arm-none-eabi/include/c++/10.3.1/bits/std_function.h ****        *  @brief Determine if the %function wrapper has a target.
 492:/Library/DaisyToolchain/0.2.0/arm/arm-none-eabi/include/c++/10.3.1/bits/std_function.h ****        *
 493:/Library/DaisyToolchain/0.2.0/arm/arm-none-eabi/include/c++/10.3.1/bits/std_function.h ****        *  @return @c true when this %function object contains a target,
 494:/Library/DaisyToolchain/0.2.0/arm/arm-none-eabi/include/c++/10.3.1/bits/std_function.h ****        *  or @c false when it is empty.
 495:/Library/DaisyToolchain/0.2.0/arm/arm-none-eabi/include/c++/10.3.1/bits/std_function.h ****        *
 496:/Library/DaisyToolchain/0.2.0/arm/arm-none-eabi/include/c++/10.3.1/bits/std_function.h ****        *  This function will not throw an %exception.
 497:/Library/DaisyToolchain/0.2.0/arm/arm-none-eabi/include/c++/10.3.1/bits/std_function.h ****        */
 498:/Library/DaisyToolchain/0.2.0/arm/arm-none-eabi/include/c++/10.3.1/bits/std_function.h ****       explicit operator bool() const noexcept
 499:/Library/DaisyToolchain/0.2.0/arm/arm-none-eabi/include/c++/10.3.1/bits/std_function.h ****       { return !_M_empty(); }
 500:/Library/DaisyToolchain/0.2.0/arm/arm-none-eabi/include/c++/10.3.1/bits/std_function.h **** 
 501:/Library/DaisyToolchain/0.2.0/arm/arm-none-eabi/include/c++/10.3.1/bits/std_function.h ****       // [3.7.2.4] function invocation
 502:/Library/DaisyToolchain/0.2.0/arm/arm-none-eabi/include/c++/10.3.1/bits/std_function.h **** 
 503:/Library/DaisyToolchain/0.2.0/arm/arm-none-eabi/include/c++/10.3.1/bits/std_function.h ****       /**
 504:/Library/DaisyToolchain/0.2.0/arm/arm-none-eabi/include/c++/10.3.1/bits/std_function.h ****        *  @brief Invokes the function targeted by @c *this.
 505:/Library/DaisyToolchain/0.2.0/arm/arm-none-eabi/include/c++/10.3.1/bits/std_function.h ****        *  @returns the result of the target.
 506:/Library/DaisyToolchain/0.2.0/arm/arm-none-eabi/include/c++/10.3.1/bits/std_function.h ****        *  @throws bad_function_call when @c !(bool)*this
 507:/Library/DaisyToolchain/0.2.0/arm/arm-none-eabi/include/c++/10.3.1/bits/std_function.h ****        *
 508:/Library/DaisyToolchain/0.2.0/arm/arm-none-eabi/include/c++/10.3.1/bits/std_function.h ****        *  The function call operator invokes the target function object
 509:/Library/DaisyToolchain/0.2.0/arm/arm-none-eabi/include/c++/10.3.1/bits/std_function.h ****        *  stored by @c this.
 510:/Library/DaisyToolchain/0.2.0/arm/arm-none-eabi/include/c++/10.3.1/bits/std_function.h ****        */
 511:/Library/DaisyToolchain/0.2.0/arm/arm-none-eabi/include/c++/10.3.1/bits/std_function.h ****       _Res operator()(_ArgTypes... __args) const;
 512:/Library/DaisyToolchain/0.2.0/arm/arm-none-eabi/include/c++/10.3.1/bits/std_function.h **** 
 513:/Library/DaisyToolchain/0.2.0/arm/arm-none-eabi/include/c++/10.3.1/bits/std_function.h **** #if __cpp_rtti
ARM GAS  /var/folders/wz/z09yph4n0qj4t7mjxhl6ttn80000gn/T//ccPO7ASC.s 			page 56


 514:/Library/DaisyToolchain/0.2.0/arm/arm-none-eabi/include/c++/10.3.1/bits/std_function.h ****       // [3.7.2.5] function target access
 515:/Library/DaisyToolchain/0.2.0/arm/arm-none-eabi/include/c++/10.3.1/bits/std_function.h ****       /**
 516:/Library/DaisyToolchain/0.2.0/arm/arm-none-eabi/include/c++/10.3.1/bits/std_function.h ****        *  @brief Determine the type of the target of this function object
 517:/Library/DaisyToolchain/0.2.0/arm/arm-none-eabi/include/c++/10.3.1/bits/std_function.h ****        *  wrapper.
 518:/Library/DaisyToolchain/0.2.0/arm/arm-none-eabi/include/c++/10.3.1/bits/std_function.h ****        *
 519:/Library/DaisyToolchain/0.2.0/arm/arm-none-eabi/include/c++/10.3.1/bits/std_function.h ****        *  @returns the type identifier of the target function object, or
 520:/Library/DaisyToolchain/0.2.0/arm/arm-none-eabi/include/c++/10.3.1/bits/std_function.h ****        *  @c typeid(void) if @c !(bool)*this.
 521:/Library/DaisyToolchain/0.2.0/arm/arm-none-eabi/include/c++/10.3.1/bits/std_function.h ****        *
 522:/Library/DaisyToolchain/0.2.0/arm/arm-none-eabi/include/c++/10.3.1/bits/std_function.h ****        *  This function will not throw an %exception.
 523:/Library/DaisyToolchain/0.2.0/arm/arm-none-eabi/include/c++/10.3.1/bits/std_function.h ****        */
 524:/Library/DaisyToolchain/0.2.0/arm/arm-none-eabi/include/c++/10.3.1/bits/std_function.h ****       const type_info& target_type() const noexcept;
 525:/Library/DaisyToolchain/0.2.0/arm/arm-none-eabi/include/c++/10.3.1/bits/std_function.h **** 
 526:/Library/DaisyToolchain/0.2.0/arm/arm-none-eabi/include/c++/10.3.1/bits/std_function.h ****       /**
 527:/Library/DaisyToolchain/0.2.0/arm/arm-none-eabi/include/c++/10.3.1/bits/std_function.h ****        *  @brief Access the stored target function object.
 528:/Library/DaisyToolchain/0.2.0/arm/arm-none-eabi/include/c++/10.3.1/bits/std_function.h ****        *
 529:/Library/DaisyToolchain/0.2.0/arm/arm-none-eabi/include/c++/10.3.1/bits/std_function.h ****        *  @return Returns a pointer to the stored target function object,
 530:/Library/DaisyToolchain/0.2.0/arm/arm-none-eabi/include/c++/10.3.1/bits/std_function.h ****        *  if @c typeid(_Functor).equals(target_type()); otherwise, a NULL
 531:/Library/DaisyToolchain/0.2.0/arm/arm-none-eabi/include/c++/10.3.1/bits/std_function.h ****        *  pointer.
 532:/Library/DaisyToolchain/0.2.0/arm/arm-none-eabi/include/c++/10.3.1/bits/std_function.h ****        *
 533:/Library/DaisyToolchain/0.2.0/arm/arm-none-eabi/include/c++/10.3.1/bits/std_function.h ****        * This function does not throw exceptions.
 534:/Library/DaisyToolchain/0.2.0/arm/arm-none-eabi/include/c++/10.3.1/bits/std_function.h ****        *
 535:/Library/DaisyToolchain/0.2.0/arm/arm-none-eabi/include/c++/10.3.1/bits/std_function.h ****        * @{
 536:/Library/DaisyToolchain/0.2.0/arm/arm-none-eabi/include/c++/10.3.1/bits/std_function.h ****        */
 537:/Library/DaisyToolchain/0.2.0/arm/arm-none-eabi/include/c++/10.3.1/bits/std_function.h ****       template<typename _Functor>       _Functor* target() noexcept;
 538:/Library/DaisyToolchain/0.2.0/arm/arm-none-eabi/include/c++/10.3.1/bits/std_function.h **** 
 539:/Library/DaisyToolchain/0.2.0/arm/arm-none-eabi/include/c++/10.3.1/bits/std_function.h ****       template<typename _Functor> const _Functor* target() const noexcept;
 540:/Library/DaisyToolchain/0.2.0/arm/arm-none-eabi/include/c++/10.3.1/bits/std_function.h ****       /// @}
 541:/Library/DaisyToolchain/0.2.0/arm/arm-none-eabi/include/c++/10.3.1/bits/std_function.h **** #endif
 542:/Library/DaisyToolchain/0.2.0/arm/arm-none-eabi/include/c++/10.3.1/bits/std_function.h **** 
 543:/Library/DaisyToolchain/0.2.0/arm/arm-none-eabi/include/c++/10.3.1/bits/std_function.h ****     private:
 544:/Library/DaisyToolchain/0.2.0/arm/arm-none-eabi/include/c++/10.3.1/bits/std_function.h ****       using _Invoker_type = _Res (*)(const _Any_data&, _ArgTypes&&...);
 545:/Library/DaisyToolchain/0.2.0/arm/arm-none-eabi/include/c++/10.3.1/bits/std_function.h ****       _Invoker_type _M_invoker;
 546:/Library/DaisyToolchain/0.2.0/arm/arm-none-eabi/include/c++/10.3.1/bits/std_function.h ****   };
 547:/Library/DaisyToolchain/0.2.0/arm/arm-none-eabi/include/c++/10.3.1/bits/std_function.h **** 
 548:/Library/DaisyToolchain/0.2.0/arm/arm-none-eabi/include/c++/10.3.1/bits/std_function.h **** #if __cpp_deduction_guides >= 201606
 549:/Library/DaisyToolchain/0.2.0/arm/arm-none-eabi/include/c++/10.3.1/bits/std_function.h ****   template<typename>
 550:/Library/DaisyToolchain/0.2.0/arm/arm-none-eabi/include/c++/10.3.1/bits/std_function.h ****     struct __function_guide_helper
 551:/Library/DaisyToolchain/0.2.0/arm/arm-none-eabi/include/c++/10.3.1/bits/std_function.h ****     { };
 552:/Library/DaisyToolchain/0.2.0/arm/arm-none-eabi/include/c++/10.3.1/bits/std_function.h **** 
 553:/Library/DaisyToolchain/0.2.0/arm/arm-none-eabi/include/c++/10.3.1/bits/std_function.h ****   template<typename _Res, typename _Tp, bool _Nx, typename... _Args>
 554:/Library/DaisyToolchain/0.2.0/arm/arm-none-eabi/include/c++/10.3.1/bits/std_function.h ****     struct __function_guide_helper<
 555:/Library/DaisyToolchain/0.2.0/arm/arm-none-eabi/include/c++/10.3.1/bits/std_function.h ****       _Res (_Tp::*) (_Args...) noexcept(_Nx)
 556:/Library/DaisyToolchain/0.2.0/arm/arm-none-eabi/include/c++/10.3.1/bits/std_function.h ****     >
 557:/Library/DaisyToolchain/0.2.0/arm/arm-none-eabi/include/c++/10.3.1/bits/std_function.h ****     { using type = _Res(_Args...); };
 558:/Library/DaisyToolchain/0.2.0/arm/arm-none-eabi/include/c++/10.3.1/bits/std_function.h **** 
 559:/Library/DaisyToolchain/0.2.0/arm/arm-none-eabi/include/c++/10.3.1/bits/std_function.h ****   template<typename _Res, typename _Tp, bool _Nx, typename... _Args>
 560:/Library/DaisyToolchain/0.2.0/arm/arm-none-eabi/include/c++/10.3.1/bits/std_function.h ****     struct __function_guide_helper<
 561:/Library/DaisyToolchain/0.2.0/arm/arm-none-eabi/include/c++/10.3.1/bits/std_function.h ****       _Res (_Tp::*) (_Args...) & noexcept(_Nx)
 562:/Library/DaisyToolchain/0.2.0/arm/arm-none-eabi/include/c++/10.3.1/bits/std_function.h ****     >
 563:/Library/DaisyToolchain/0.2.0/arm/arm-none-eabi/include/c++/10.3.1/bits/std_function.h ****     { using type = _Res(_Args...); };
 564:/Library/DaisyToolchain/0.2.0/arm/arm-none-eabi/include/c++/10.3.1/bits/std_function.h **** 
 565:/Library/DaisyToolchain/0.2.0/arm/arm-none-eabi/include/c++/10.3.1/bits/std_function.h ****   template<typename _Res, typename _Tp, bool _Nx, typename... _Args>
 566:/Library/DaisyToolchain/0.2.0/arm/arm-none-eabi/include/c++/10.3.1/bits/std_function.h ****     struct __function_guide_helper<
 567:/Library/DaisyToolchain/0.2.0/arm/arm-none-eabi/include/c++/10.3.1/bits/std_function.h ****       _Res (_Tp::*) (_Args...) const noexcept(_Nx)
 568:/Library/DaisyToolchain/0.2.0/arm/arm-none-eabi/include/c++/10.3.1/bits/std_function.h ****     >
 569:/Library/DaisyToolchain/0.2.0/arm/arm-none-eabi/include/c++/10.3.1/bits/std_function.h ****     { using type = _Res(_Args...); };
 570:/Library/DaisyToolchain/0.2.0/arm/arm-none-eabi/include/c++/10.3.1/bits/std_function.h **** 
ARM GAS  /var/folders/wz/z09yph4n0qj4t7mjxhl6ttn80000gn/T//ccPO7ASC.s 			page 57


 571:/Library/DaisyToolchain/0.2.0/arm/arm-none-eabi/include/c++/10.3.1/bits/std_function.h ****   template<typename _Res, typename _Tp, bool _Nx, typename... _Args>
 572:/Library/DaisyToolchain/0.2.0/arm/arm-none-eabi/include/c++/10.3.1/bits/std_function.h ****     struct __function_guide_helper<
 573:/Library/DaisyToolchain/0.2.0/arm/arm-none-eabi/include/c++/10.3.1/bits/std_function.h ****       _Res (_Tp::*) (_Args...) const & noexcept(_Nx)
 574:/Library/DaisyToolchain/0.2.0/arm/arm-none-eabi/include/c++/10.3.1/bits/std_function.h ****     >
 575:/Library/DaisyToolchain/0.2.0/arm/arm-none-eabi/include/c++/10.3.1/bits/std_function.h ****     { using type = _Res(_Args...); };
 576:/Library/DaisyToolchain/0.2.0/arm/arm-none-eabi/include/c++/10.3.1/bits/std_function.h **** 
 577:/Library/DaisyToolchain/0.2.0/arm/arm-none-eabi/include/c++/10.3.1/bits/std_function.h ****   template<typename _Res, typename... _ArgTypes>
 578:/Library/DaisyToolchain/0.2.0/arm/arm-none-eabi/include/c++/10.3.1/bits/std_function.h ****     function(_Res(*)(_ArgTypes...)) -> function<_Res(_ArgTypes...)>;
 579:/Library/DaisyToolchain/0.2.0/arm/arm-none-eabi/include/c++/10.3.1/bits/std_function.h **** 
 580:/Library/DaisyToolchain/0.2.0/arm/arm-none-eabi/include/c++/10.3.1/bits/std_function.h ****   template<typename _Functor, typename _Signature = typename
 581:/Library/DaisyToolchain/0.2.0/arm/arm-none-eabi/include/c++/10.3.1/bits/std_function.h **** 	   __function_guide_helper<decltype(&_Functor::operator())>::type>
 582:/Library/DaisyToolchain/0.2.0/arm/arm-none-eabi/include/c++/10.3.1/bits/std_function.h ****     function(_Functor) -> function<_Signature>;
 583:/Library/DaisyToolchain/0.2.0/arm/arm-none-eabi/include/c++/10.3.1/bits/std_function.h **** #endif
 584:/Library/DaisyToolchain/0.2.0/arm/arm-none-eabi/include/c++/10.3.1/bits/std_function.h **** 
 585:/Library/DaisyToolchain/0.2.0/arm/arm-none-eabi/include/c++/10.3.1/bits/std_function.h ****   // Out-of-line member definitions.
 586:/Library/DaisyToolchain/0.2.0/arm/arm-none-eabi/include/c++/10.3.1/bits/std_function.h ****   template<typename _Res, typename... _ArgTypes>
 587:/Library/DaisyToolchain/0.2.0/arm/arm-none-eabi/include/c++/10.3.1/bits/std_function.h ****     function<_Res(_ArgTypes...)>::
 588:/Library/DaisyToolchain/0.2.0/arm/arm-none-eabi/include/c++/10.3.1/bits/std_function.h ****     function(const function& __x)
 589:/Library/DaisyToolchain/0.2.0/arm/arm-none-eabi/include/c++/10.3.1/bits/std_function.h ****     : _Function_base()
 590:/Library/DaisyToolchain/0.2.0/arm/arm-none-eabi/include/c++/10.3.1/bits/std_function.h ****     {
 591:/Library/DaisyToolchain/0.2.0/arm/arm-none-eabi/include/c++/10.3.1/bits/std_function.h ****       if (static_cast<bool>(__x))
 592:/Library/DaisyToolchain/0.2.0/arm/arm-none-eabi/include/c++/10.3.1/bits/std_function.h **** 	{
 593:/Library/DaisyToolchain/0.2.0/arm/arm-none-eabi/include/c++/10.3.1/bits/std_function.h **** 	  __x._M_manager(_M_functor, __x._M_functor, __clone_functor);
 594:/Library/DaisyToolchain/0.2.0/arm/arm-none-eabi/include/c++/10.3.1/bits/std_function.h **** 	  _M_invoker = __x._M_invoker;
 595:/Library/DaisyToolchain/0.2.0/arm/arm-none-eabi/include/c++/10.3.1/bits/std_function.h **** 	  _M_manager = __x._M_manager;
 596:/Library/DaisyToolchain/0.2.0/arm/arm-none-eabi/include/c++/10.3.1/bits/std_function.h **** 	}
 597:/Library/DaisyToolchain/0.2.0/arm/arm-none-eabi/include/c++/10.3.1/bits/std_function.h ****     }
 598:/Library/DaisyToolchain/0.2.0/arm/arm-none-eabi/include/c++/10.3.1/bits/std_function.h **** 
 599:/Library/DaisyToolchain/0.2.0/arm/arm-none-eabi/include/c++/10.3.1/bits/std_function.h ****   template<typename _Res, typename... _ArgTypes>
 600:/Library/DaisyToolchain/0.2.0/arm/arm-none-eabi/include/c++/10.3.1/bits/std_function.h ****     template<typename _Functor, typename, typename>
 601:/Library/DaisyToolchain/0.2.0/arm/arm-none-eabi/include/c++/10.3.1/bits/std_function.h ****       function<_Res(_ArgTypes...)>::
 1476              		.loc 1 601 7 view .LVU409
 1477              	.LBB1368:
 1478              	.LBB1369:
 1479              	.LBI1369:
 240:/Library/DaisyToolchain/0.2.0/arm/arm-none-eabi/include/c++/10.3.1/bits/std_function.h **** 
 1480              		.loc 1 240 5 view .LVU410
 240:/Library/DaisyToolchain/0.2.0/arm/arm-none-eabi/include/c++/10.3.1/bits/std_function.h **** 
 1481              		.loc 1 240 5 is_stmt 0 view .LVU411
 1482              	.LBE1369:
 1483              	.LBB1370:
 1484              	.LBB1371:
 1485              	.LBI1371:
 227:/Library/DaisyToolchain/0.2.0/arm/arm-none-eabi/include/c++/10.3.1/bits/std_function.h **** 	  { return true; }
 1486              		.loc 1 227 4 is_stmt 1 view .LVU412
 227:/Library/DaisyToolchain/0.2.0/arm/arm-none-eabi/include/c++/10.3.1/bits/std_function.h **** 	  { return true; }
 1487              		.loc 1 227 4 is_stmt 0 view .LVU413
 1488              	.LBE1371:
 1489              	.LBB1372:
 1490              	.LBI1372:
 101:/Library/DaisyToolchain/0.2.0/arm/arm-none-eabi/include/c++/10.3.1/bits/move.h ****     { return static_cast<typename std::remove_reference<_Tp>::type&&>(__t); }
 1491              		.loc 8 101 5 is_stmt 1 view .LVU414
 101:/Library/DaisyToolchain/0.2.0/arm/arm-none-eabi/include/c++/10.3.1/bits/move.h ****     { return static_cast<typename std::remove_reference<_Tp>::type&&>(__t); }
 1492              		.loc 8 101 5 is_stmt 0 view .LVU415
 1493              	.LBE1372:
 1494              	.LBB1373:
 1495              	.LBI1373:
ARM GAS  /var/folders/wz/z09yph4n0qj4t7mjxhl6ttn80000gn/T//ccPO7ASC.s 			page 58


 207:/Library/DaisyToolchain/0.2.0/arm/arm-none-eabi/include/c++/10.3.1/bits/std_function.h **** 	{ _M_init_functor(__functor, std::move(__f), _Local_storage()); }
 1496              		.loc 1 207 2 is_stmt 1 view .LVU416
 1497              	.LBB1374:
 1498              	.LBI1374:
 232:/Library/DaisyToolchain/0.2.0/arm/arm-none-eabi/include/c++/10.3.1/bits/std_function.h **** 	{ ::new (__functor._M_access()) _Functor(std::move(__f)); }
 1499              		.loc 1 232 2 view .LVU417
 232:/Library/DaisyToolchain/0.2.0/arm/arm-none-eabi/include/c++/10.3.1/bits/std_function.h **** 	{ ::new (__functor._M_access()) _Functor(std::move(__f)); }
 1500              		.loc 1 232 2 is_stmt 0 view .LVU418
 1501              	.LBE1374:
 1502              	.LBE1373:
 1503              	.LBE1370:
 1504              	.LBE1368:
 1505              	.LBE1367:
  87:/Library/DaisyToolchain/0.2.0/arm/arm-none-eabi/include/c++/10.3.1/bits/std_function.h ****     const void* _M_access() const { return &_M_pod_data[0]; }
 1506              		.loc 1 87 37 is_stmt 1 view .LVU419
 1507              		.loc 5 175 3 view .LVU420
 1508              	.LBB1380:
 1509              	.LBB1360:
 1510              		.file 9 "DSP/FX/../../Parameters/AudioParameter.h"
   1:DSP/FX/../../Parameters/AudioParameter.h **** #ifndef AUDIOPARAMETER_H
   2:DSP/FX/../../Parameters/AudioParameter.h **** #define AUDIOPARAMETER_H
   3:DSP/FX/../../Parameters/AudioParameter.h **** 
   4:DSP/FX/../../Parameters/AudioParameter.h **** #include "daisy_seed.h"
   5:DSP/FX/../../Parameters/AudioParameter.h **** #include "daisysp.h"
   6:DSP/FX/../../Parameters/AudioParameter.h **** #include "../Utils/Helpers.h"
   7:DSP/FX/../../Parameters/AudioParameter.h **** #include "../Utils/Constants.h"
   8:DSP/FX/../../Parameters/AudioParameter.h **** #include <cstdint>
   9:DSP/FX/../../Parameters/AudioParameter.h **** #include <functional>
  10:DSP/FX/../../Parameters/AudioParameter.h **** #include <memory>
  11:DSP/FX/../../Parameters/AudioParameter.h **** #include <type_traits>
  12:DSP/FX/../../Parameters/AudioParameter.h **** 
  13:DSP/FX/../../Parameters/AudioParameter.h **** /*****************************************************************************//**
  14:DSP/FX/../../Parameters/AudioParameter.h ****  *  Class name: AudioParameter
  15:DSP/FX/../../Parameters/AudioParameter.h ****  *  Function: Parameter object for DSP classes that contains pot boilerplate code
  16:DSP/FX/../../Parameters/AudioParameter.h ****  ********************************************************************************/
  17:DSP/FX/../../Parameters/AudioParameter.h **** 
  18:DSP/FX/../../Parameters/AudioParameter.h **** using namespace daisy;
  19:DSP/FX/../../Parameters/AudioParameter.h **** 
  20:DSP/FX/../../Parameters/AudioParameter.h **** template <class type>
  21:DSP/FX/../../Parameters/AudioParameter.h **** class AudioParameter
  22:DSP/FX/../../Parameters/AudioParameter.h **** {
  23:DSP/FX/../../Parameters/AudioParameter.h **** public:
  24:DSP/FX/../../Parameters/AudioParameter.h **** 
  25:DSP/FX/../../Parameters/AudioParameter.h ****     void init(DaisySeed* seed, type mi, type ma, CurveType c, uint8_t ID, std::function<void(type)>
  26:DSP/FX/../../Parameters/AudioParameter.h ****     {
  27:DSP/FX/../../Parameters/AudioParameter.h ****         hw = seed;
  28:DSP/FX/../../Parameters/AudioParameter.h ****         input = 0;
 1511              		.loc 9 28 15 is_stmt 0 view .LVU421
 1512 018a C4F83031 		str	r3, [r4, #304]	@ float
  29:DSP/FX/../../Parameters/AudioParameter.h **** 
  30:DSP/FX/../../Parameters/AudioParameter.h ****         curVal = 0;
 1513              		.loc 9 30 16 view .LVU422
 1514 018e 0023     		movs	r3, #0
  27:DSP/FX/../../Parameters/AudioParameter.h ****         input = 0;
 1515              		.loc 9 27 12 view .LVU423
 1516 0190 C4F82C81 		str	r8, [r4, #300]
 1517              	.LBE1360:
ARM GAS  /var/folders/wz/z09yph4n0qj4t7mjxhl6ttn80000gn/T//ccPO7ASC.s 			page 59


 1518              	.LBE1380:
 1519              	.LBB1381:
 1520              	.LBB1379:
 1521              	.LBB1378:
 602:/Library/DaisyToolchain/0.2.0/arm/arm-none-eabi/include/c++/10.3.1/bits/std_function.h ****       function(_Functor __f)
 603:/Library/DaisyToolchain/0.2.0/arm/arm-none-eabi/include/c++/10.3.1/bits/std_function.h ****       : _Function_base()
 604:/Library/DaisyToolchain/0.2.0/arm/arm-none-eabi/include/c++/10.3.1/bits/std_function.h ****       {
 605:/Library/DaisyToolchain/0.2.0/arm/arm-none-eabi/include/c++/10.3.1/bits/std_function.h **** 	typedef _Function_handler<_Res(_ArgTypes...), _Functor> _My_handler;
 606:/Library/DaisyToolchain/0.2.0/arm/arm-none-eabi/include/c++/10.3.1/bits/std_function.h **** 
 607:/Library/DaisyToolchain/0.2.0/arm/arm-none-eabi/include/c++/10.3.1/bits/std_function.h **** 	if (_My_handler::_M_not_empty_function(__f))
 608:/Library/DaisyToolchain/0.2.0/arm/arm-none-eabi/include/c++/10.3.1/bits/std_function.h **** 	  {
 609:/Library/DaisyToolchain/0.2.0/arm/arm-none-eabi/include/c++/10.3.1/bits/std_function.h **** 	    _My_handler::_M_init_functor(_M_functor, std::move(__f));
 610:/Library/DaisyToolchain/0.2.0/arm/arm-none-eabi/include/c++/10.3.1/bits/std_function.h **** 	    _M_invoker = &_My_handler::_M_invoke;
 1522              		.loc 1 610 17 view .LVU424
 1523 0194 DFF8D4C1 		ldr	ip, .L85+56
 611:/Library/DaisyToolchain/0.2.0/arm/arm-none-eabi/include/c++/10.3.1/bits/std_function.h **** 	    _M_manager = &_My_handler::_M_manager;
 1524              		.loc 1 611 17 view .LVU425
 1525 0198 6F4A     		ldr	r2, .L85+36
 1526              	.LBB1377:
 1527              	.LBB1376:
 1528              	.LBB1375:
 233:/Library/DaisyToolchain/0.2.0/arm/arm-none-eabi/include/c++/10.3.1/bits/std_function.h **** 
 1529              		.loc 1 233 4 view .LVU426
 1530 019a 0496     		str	r6, [sp, #16]
 1531              	.LVL79:
 233:/Library/DaisyToolchain/0.2.0/arm/arm-none-eabi/include/c++/10.3.1/bits/std_function.h **** 
 1532              		.loc 1 233 4 view .LVU427
 1533              	.LBE1375:
 1534              	.LBE1376:
 1535              	.LBE1377:
 610:/Library/DaisyToolchain/0.2.0/arm/arm-none-eabi/include/c++/10.3.1/bits/std_function.h **** 	    _M_manager = &_My_handler::_M_manager;
 1536              		.loc 1 610 17 view .LVU428
 1537 019c CDF81CC0 		str	ip, [sp, #28]
 1538              		.loc 1 611 17 view .LVU429
 1539 01a0 0692     		str	r2, [sp, #24]
 1540              	.LVL80:
 1541              		.loc 1 611 17 view .LVU430
 1542              	.LBE1378:
 1543              	.LBE1379:
 1544              	.LBE1381:
 1545              	.LBB1382:
 1546              	.LBI1304:
  25:DSP/FX/../../Parameters/AudioParameter.h ****     {
 1547              		.loc 9 25 10 is_stmt 1 view .LVU431
 1548              	.LBB1361:
 1549              	.LBB1354:
 1550              	.LBI1306:
 396:/Library/DaisyToolchain/0.2.0/arm/arm-none-eabi/include/c++/10.3.1/bits/std_function.h ****       {
 1551              		.loc 1 396 7 view .LVU432
 1552              	.LBB1348:
 1553              	.LBB1339:
 1554              	.LBI1324:
 587:/Library/DaisyToolchain/0.2.0/arm/arm-none-eabi/include/c++/10.3.1/bits/std_function.h ****     function(const function& __x)
 1555              		.loc 1 587 5 view .LVU433
 1556              	.LBB1337:
 1557              	.LBB1334:
 1558              	.LBI1334:
ARM GAS  /var/folders/wz/z09yph4n0qj4t7mjxhl6ttn80000gn/T//ccPO7ASC.s 			page 60


 240:/Library/DaisyToolchain/0.2.0/arm/arm-none-eabi/include/c++/10.3.1/bits/std_function.h **** 
 1559              		.loc 1 240 5 view .LVU434
 240:/Library/DaisyToolchain/0.2.0/arm/arm-none-eabi/include/c++/10.3.1/bits/std_function.h **** 
 1560              		.loc 1 240 5 is_stmt 0 view .LVU435
 1561              	.LBE1334:
 1562              	.LBB1335:
 1563              	.LBI1335:
 498:/Library/DaisyToolchain/0.2.0/arm/arm-none-eabi/include/c++/10.3.1/bits/std_function.h ****       { return !_M_empty(); }
 1564              		.loc 1 498 16 is_stmt 1 view .LVU436
 498:/Library/DaisyToolchain/0.2.0/arm/arm-none-eabi/include/c++/10.3.1/bits/std_function.h ****       { return !_M_empty(); }
 1565              		.loc 1 498 16 is_stmt 0 view .LVU437
 1566              	.LBE1335:
 1567              	.LBE1337:
 1568              	.LBE1339:
 1569              	.LBE1348:
 1570              	.LBE1354:
 1571              	.LBE1361:
 1572              	.LBE1382:
 248:/Library/DaisyToolchain/0.2.0/arm/arm-none-eabi/include/c++/10.3.1/bits/std_function.h **** 
 1573              		.loc 1 248 29 is_stmt 1 view .LVU438
 1574              	.LBB1383:
 1575              	.LBB1362:
 1576              	.LBB1355:
 1577              	.LBB1349:
 1578              	.LBB1340:
 1579              	.LBB1338:
 1580              	.LBB1336:
 1581              	.LBI1326:
 268:/Library/DaisyToolchain/0.2.0/arm/arm-none-eabi/include/c++/10.3.1/bits/std_function.h **** 		 _Manager_operation __op)
 1582              		.loc 1 268 7 view .LVU439
 1583              	.LBB1333:
 1584              	.LBI1327:
 268:/Library/DaisyToolchain/0.2.0/arm/arm-none-eabi/include/c++/10.3.1/bits/std_function.h **** 		 _Manager_operation __op)
 1585              		.loc 1 268 7 view .LVU440
 1586              	.LBB1332:
 1587              	.LBI1328:
 181:/Library/DaisyToolchain/0.2.0/arm/arm-none-eabi/include/c++/10.3.1/bits/std_function.h **** 		   _Manager_operation __op)
 1588              		.loc 1 181 2 view .LVU441
 1589              	.LBB1331:
 1590              	.LBI1329:
 150:/Library/DaisyToolchain/0.2.0/arm/arm-none-eabi/include/c++/10.3.1/bits/std_function.h **** 	{
 1591              		.loc 1 150 2 view .LVU442
 150:/Library/DaisyToolchain/0.2.0/arm/arm-none-eabi/include/c++/10.3.1/bits/std_function.h **** 	{
 1592              		.loc 1 150 2 is_stmt 0 view .LVU443
 1593              	.LBE1331:
 1594              	.LBE1332:
 1595              	.LBE1333:
 1596              	.LBE1336:
 1597              	.LBE1338:
 1598              	.LBE1340:
 1599              	.LBE1349:
 1600              	.LBE1355:
 1601              	.LBE1362:
 1602              	.LBE1383:
  88:/Library/DaisyToolchain/0.2.0/arm/arm-none-eabi/include/c++/10.3.1/bits/std_function.h **** 
 1603              		.loc 1 88 37 is_stmt 1 view .LVU444
  87:/Library/DaisyToolchain/0.2.0/arm/arm-none-eabi/include/c++/10.3.1/bits/std_function.h ****     const void* _M_access() const { return &_M_pod_data[0]; }
ARM GAS  /var/folders/wz/z09yph4n0qj4t7mjxhl6ttn80000gn/T//ccPO7ASC.s 			page 61


 1604              		.loc 1 87 37 view .LVU445
 1605              		.loc 5 175 3 view .LVU446
 1606              	.LBB1384:
 1607              	.LBB1363:
 1608              	.LBB1356:
 1609              	.LBB1350:
 1610              	.LBB1341:
 1611              	.LBI1308:
 481:/Library/DaisyToolchain/0.2.0/arm/arm-none-eabi/include/c++/10.3.1/bits/std_function.h ****       {
 1612              		.loc 1 481 12 view .LVU447
 1613              	.LBB1313:
 1614              	.LBI1309:
 189:/Library/DaisyToolchain/0.2.0/arm/arm-none-eabi/include/c++/10.3.1/bits/move.h ****     _GLIBCXX_NOEXCEPT_IF(__and_<is_nothrow_move_constructible<_Tp>,
 1615              		.loc 8 189 5 view .LVU448
 1616              	.LBE1313:
 1617              	.LBE1341:
 1618              	.LBE1350:
 1619              	.LBE1356:
  31:DSP/FX/../../Parameters/AudioParameter.h ****         min = mi;
 1620              		.loc 9 31 13 is_stmt 0 view .LVU449
 1621 01a2 C4E94E33 		strd	r3, r3, [r4, #312]
  32:DSP/FX/../../Parameters/AudioParameter.h ****         max = ma;
 1622              		.loc 9 32 13 view .LVU450
 1623 01a6 0123     		movs	r3, #1
 1624              	.LBB1357:
 1625              	.LBB1351:
 1626              	.LBB1342:
 1627              	.LBB1314:
 1628              	.LBB1311:
 1629              		.loc 8 197 11 view .LVU451
 1630 01a8 95E80300 		ldm	r5, {r0, r1}
 1631              	.LBE1311:
 1632              	.LBE1314:
 1633              	.LBE1342:
 1634              	.LBE1351:
 1635              	.LBE1357:
 1636              		.loc 9 32 13 view .LVU452
 1637 01ac C4F84031 		str	r3, [r4, #320]
  33:DSP/FX/../../Parameters/AudioParameter.h **** 
  34:DSP/FX/../../Parameters/AudioParameter.h ****         curve = c;
  35:DSP/FX/../../Parameters/AudioParameter.h ****         channelID = ID;
 1638              		.loc 9 35 19 view .LVU453
 1639 01b0 A4F84431 		strh	r3, [r4, #324]	@ movhi
 1640              	.LBB1358:
 1641              	.LBB1352:
 1642              	.LBB1343:
 1643              	.LBB1315:
 1644              	.LBB1312:
 198:/Library/DaisyToolchain/0.2.0/arm/arm-none-eabi/include/c++/10.3.1/bits/move.h ****       __a = _GLIBCXX_MOVE(__b);
 1645              		.loc 8 198 7 view .LVU454
 1646 01b4 04F5A473 		add	r3, r4, #328
 197:/Library/DaisyToolchain/0.2.0/arm/arm-none-eabi/include/c++/10.3.1/bits/move.h ****       __a = _GLIBCXX_MOVE(__b);
 1647              		.loc 8 197 11 view .LVU455
 1648 01b8 87E80300 		stm	r7, {r0, r1}
 1649              		.loc 8 198 7 view .LVU456
 1650 01bc 93E80300 		ldm	r3, {r0, r1}
 1651 01c0 85E80300 		stm	r5, {r0, r1}
ARM GAS  /var/folders/wz/z09yph4n0qj4t7mjxhl6ttn80000gn/T//ccPO7ASC.s 			page 62


 1652              	.LVL81:
 199:/Library/DaisyToolchain/0.2.0/arm/arm-none-eabi/include/c++/10.3.1/bits/move.h ****       __b = _GLIBCXX_MOVE(__tmp);
 1653              		.loc 8 199 7 view .LVU457
 1654 01c4 97E80300 		ldm	r7, {r0, r1}
 1655 01c8 83E80300 		stm	r3, {r0, r1}
 1656              	.LVL82:
 1657              		.loc 8 199 7 view .LVU458
 1658              	.LBE1312:
 1659              	.LBE1315:
 1660              	.LBB1316:
 1661              	.LBI1316:
 189:/Library/DaisyToolchain/0.2.0/arm/arm-none-eabi/include/c++/10.3.1/bits/move.h ****     _GLIBCXX_NOEXCEPT_IF(__and_<is_nothrow_move_constructible<_Tp>,
 1662              		.loc 8 189 5 is_stmt 1 view .LVU459
 1663              	.LBB1317:
 198:/Library/DaisyToolchain/0.2.0/arm/arm-none-eabi/include/c++/10.3.1/bits/move.h ****       __b = _GLIBCXX_MOVE(__tmp);
 1664              		.loc 8 198 11 is_stmt 0 view .LVU460
 1665 01cc D4F85031 		ldr	r3, [r4, #336]
 1666              	.LBE1317:
 1667              	.LBE1316:
 1668              	.LBB1319:
 1669              	.LBB1320:
 1670 01d0 D4F85411 		ldr	r1, [r4, #340]
 1671              	.LBE1320:
 1672              	.LBE1319:
 1673              	.LBB1322:
 1674              	.LBB1318:
 1675              		.loc 8 199 11 view .LVU461
 1676 01d4 C4F85021 		str	r2, [r4, #336]
 198:/Library/DaisyToolchain/0.2.0/arm/arm-none-eabi/include/c++/10.3.1/bits/move.h ****       __b = _GLIBCXX_MOVE(__tmp);
 1677              		.loc 8 198 11 view .LVU462
 1678 01d8 0A93     		str	r3, [sp, #40]
 1679              	.LVL83:
 198:/Library/DaisyToolchain/0.2.0/arm/arm-none-eabi/include/c++/10.3.1/bits/move.h ****       __b = _GLIBCXX_MOVE(__tmp);
 1680              		.loc 8 198 11 view .LVU463
 1681              	.LBE1318:
 1682              	.LBE1322:
 1683              	.LBB1323:
 1684              	.LBI1319:
 189:/Library/DaisyToolchain/0.2.0/arm/arm-none-eabi/include/c++/10.3.1/bits/move.h ****     _GLIBCXX_NOEXCEPT_IF(__and_<is_nothrow_move_constructible<_Tp>,
 1685              		.loc 8 189 5 is_stmt 1 view .LVU464
 1686              	.LBB1321:
 1687              		.loc 8 199 11 is_stmt 0 view .LVU465
 1688 01da C4F854C1 		str	ip, [r4, #340]
 198:/Library/DaisyToolchain/0.2.0/arm/arm-none-eabi/include/c++/10.3.1/bits/move.h ****       __b = _GLIBCXX_MOVE(__tmp);
 1689              		.loc 8 198 11 view .LVU466
 1690 01de 0B91     		str	r1, [sp, #44]
 1691              	.LVL84:
 198:/Library/DaisyToolchain/0.2.0/arm/arm-none-eabi/include/c++/10.3.1/bits/move.h ****       __b = _GLIBCXX_MOVE(__tmp);
 1692              		.loc 8 198 11 view .LVU467
 1693              	.LBE1321:
 1694              	.LBE1323:
 1695              	.LBE1343:
 1696              	.LBB1344:
 1697              	.LBI1344:
 303:/Library/DaisyToolchain/0.2.0/arm/arm-none-eabi/include/c++/10.3.1/bits/std_function.h ****     : public _Maybe_unary_or_binary_function<_Res, _ArgTypes...>,
 1698              		.loc 1 303 11 is_stmt 1 view .LVU468
 1699              	.LBB1345:
ARM GAS  /var/folders/wz/z09yph4n0qj4t7mjxhl6ttn80000gn/T//ccPO7ASC.s 			page 63


 1700              	.LBB1346:
 1701              	.LBI1346:
 242:/Library/DaisyToolchain/0.2.0/arm/arm-none-eabi/include/c++/10.3.1/bits/std_function.h ****     {
 1702              		.loc 1 242 5 view .LVU469
 1703              	.LBB1347:
 244:/Library/DaisyToolchain/0.2.0/arm/arm-none-eabi/include/c++/10.3.1/bits/std_function.h **** 	_M_manager(_M_functor, _M_functor, __destroy_functor);
 1704              		.loc 1 244 7 view .LVU470
 1705 01e0 002B     		cmp	r3, #0
 1706 01e2 00F0A180 		beq	.L83
 1707              	.LVL85:
 245:/Library/DaisyToolchain/0.2.0/arm/arm-none-eabi/include/c++/10.3.1/bits/std_function.h ****     }
 1708              		.loc 1 245 2 view .LVU471
 245:/Library/DaisyToolchain/0.2.0/arm/arm-none-eabi/include/c++/10.3.1/bits/std_function.h ****     }
 1709              		.loc 1 245 12 is_stmt 0 view .LVU472
 1710 01e6 0322     		movs	r2, #3
 1711 01e8 2946     		mov	r1, r5
 1712 01ea 2846     		mov	r0, r5
 1713              	.LVL86:
 245:/Library/DaisyToolchain/0.2.0/arm/arm-none-eabi/include/c++/10.3.1/bits/std_function.h ****     }
 1714              		.loc 1 245 12 view .LVU473
 1715 01ec 9847     		blx	r3
 1716              	.LVL87:
 1717              	.LBE1347:
 1718              	.LBE1346:
 1719              	.LBE1345:
 1720              	.LBE1344:
 1721              	.LBE1352:
 1722              	.LBE1358:
  36:DSP/FX/../../Parameters/AudioParameter.h ****         callback = cb;
  37:DSP/FX/../../Parameters/AudioParameter.h **** 
  38:DSP/FX/../../Parameters/AudioParameter.h ****         if(channelID != ChannelIDs::ENCODER)
 1723              		.loc 9 38 12 view .LVU474
 1724 01ee 94F84421 		ldrb	r2, [r4, #324]	@ zero_extendqisi2
 1725              	.LVL88:
 1726              		.loc 9 38 12 view .LVU475
 1727              	.LBE1363:
 1728              	.LBE1384:
 1729              	.LBB1385:
 1730              	.LBB1386:
 1731              	.LBB1387:
 1732              	.LBB1388:
 244:/Library/DaisyToolchain/0.2.0/arm/arm-none-eabi/include/c++/10.3.1/bits/std_function.h **** 	_M_manager(_M_functor, _M_functor, __destroy_functor);
 1733              		.loc 1 244 11 view .LVU476
 1734 01f2 069B     		ldr	r3, [sp, #24]
 1735              	.LBE1388:
 1736              	.LBE1387:
 1737              	.LBE1386:
 1738              	.LBE1385:
 1739              	.LBB1392:
 1740              	.LBB1364:
 1741              		.loc 9 38 9 view .LVU477
 1742 01f4 052A     		cmp	r2, #5
 1743 01f6 40F09880 		bne	.L49
 1744              	.L50:
 1745              	.LVL89:
 1746              		.loc 9 38 9 view .LVU478
 1747              	.LBE1364:
ARM GAS  /var/folders/wz/z09yph4n0qj4t7mjxhl6ttn80000gn/T//ccPO7ASC.s 			page 64


 1748              	.LBE1392:
 1749              	.LBB1393:
 1750              	.LBI1385:
 303:/Library/DaisyToolchain/0.2.0/arm/arm-none-eabi/include/c++/10.3.1/bits/std_function.h ****     : public _Maybe_unary_or_binary_function<_Res, _ArgTypes...>,
 1751              		.loc 1 303 11 is_stmt 1 view .LVU479
 1752              	.LBB1391:
 1753              	.LBB1390:
 1754              	.LBI1387:
 242:/Library/DaisyToolchain/0.2.0/arm/arm-none-eabi/include/c++/10.3.1/bits/std_function.h ****     {
 1755              		.loc 1 242 5 view .LVU480
 1756              	.LBB1389:
 244:/Library/DaisyToolchain/0.2.0/arm/arm-none-eabi/include/c++/10.3.1/bits/std_function.h **** 	_M_manager(_M_functor, _M_functor, __destroy_functor);
 1757              		.loc 1 244 7 view .LVU481
 1758 01fa 1BB1     		cbz	r3, .L51
 245:/Library/DaisyToolchain/0.2.0/arm/arm-none-eabi/include/c++/10.3.1/bits/std_function.h ****     }
 1759              		.loc 1 245 2 view .LVU482
 245:/Library/DaisyToolchain/0.2.0/arm/arm-none-eabi/include/c++/10.3.1/bits/std_function.h ****     }
 1760              		.loc 1 245 12 is_stmt 0 view .LVU483
 1761 01fc 04A9     		add	r1, sp, #16
 1762              	.LVL90:
 245:/Library/DaisyToolchain/0.2.0/arm/arm-none-eabi/include/c++/10.3.1/bits/std_function.h ****     }
 1763              		.loc 1 245 12 view .LVU484
 1764 01fe 0322     		movs	r2, #3
 1765 0200 0846     		mov	r0, r1
 1766 0202 9847     		blx	r3
 1767              	.LVL91:
 1768              	.L51:
 245:/Library/DaisyToolchain/0.2.0/arm/arm-none-eabi/include/c++/10.3.1/bits/std_function.h ****     }
 1769              		.loc 1 245 12 view .LVU485
 1770              	.LBE1389:
 1771              	.LBE1390:
 1772              	.LBE1391:
 1773              	.LBE1393:
  15:DSP/FX/PitchShift.cpp ****     rand.init(seed, 0, 1, LINEAR, ChannelIDs::AMP4, [this] (float r) { shifter.SetFun(r); });
 1774              		.loc 4 15 5 is_stmt 1 view .LVU486
 1775              	.LBB1394:
 1776              	.LBI1394:
 601:/Library/DaisyToolchain/0.2.0/arm/arm-none-eabi/include/c++/10.3.1/bits/std_function.h ****       function(_Functor __f)
 1777              		.loc 1 601 7 view .LVU487
 1778              	.LBB1395:
 1779              	.LBB1396:
 1780              	.LBI1396:
 240:/Library/DaisyToolchain/0.2.0/arm/arm-none-eabi/include/c++/10.3.1/bits/std_function.h **** 
 1781              		.loc 1 240 5 view .LVU488
 240:/Library/DaisyToolchain/0.2.0/arm/arm-none-eabi/include/c++/10.3.1/bits/std_function.h **** 
 1782              		.loc 1 240 5 is_stmt 0 view .LVU489
 1783              	.LBE1396:
 1784              	.LBB1397:
 1785              	.LBB1398:
 1786              	.LBI1398:
 227:/Library/DaisyToolchain/0.2.0/arm/arm-none-eabi/include/c++/10.3.1/bits/std_function.h **** 	  { return true; }
 1787              		.loc 1 227 4 is_stmt 1 view .LVU490
 227:/Library/DaisyToolchain/0.2.0/arm/arm-none-eabi/include/c++/10.3.1/bits/std_function.h **** 	  { return true; }
 1788              		.loc 1 227 4 is_stmt 0 view .LVU491
 1789              	.LBE1398:
 1790              	.LBB1399:
 1791              	.LBI1399:
ARM GAS  /var/folders/wz/z09yph4n0qj4t7mjxhl6ttn80000gn/T//ccPO7ASC.s 			page 65


 101:/Library/DaisyToolchain/0.2.0/arm/arm-none-eabi/include/c++/10.3.1/bits/move.h ****     { return static_cast<typename std::remove_reference<_Tp>::type&&>(__t); }
 1792              		.loc 8 101 5 is_stmt 1 view .LVU492
 101:/Library/DaisyToolchain/0.2.0/arm/arm-none-eabi/include/c++/10.3.1/bits/move.h ****     { return static_cast<typename std::remove_reference<_Tp>::type&&>(__t); }
 1793              		.loc 8 101 5 is_stmt 0 view .LVU493
 1794              	.LBE1399:
 1795              	.LBB1400:
 1796              	.LBI1400:
 207:/Library/DaisyToolchain/0.2.0/arm/arm-none-eabi/include/c++/10.3.1/bits/std_function.h **** 	{ _M_init_functor(__functor, std::move(__f), _Local_storage()); }
 1797              		.loc 1 207 2 is_stmt 1 view .LVU494
 1798              	.LBB1401:
 1799              	.LBI1401:
 232:/Library/DaisyToolchain/0.2.0/arm/arm-none-eabi/include/c++/10.3.1/bits/std_function.h **** 	{ ::new (__functor._M_access()) _Functor(std::move(__f)); }
 1800              		.loc 1 232 2 view .LVU495
 232:/Library/DaisyToolchain/0.2.0/arm/arm-none-eabi/include/c++/10.3.1/bits/std_function.h **** 	{ ::new (__functor._M_access()) _Functor(std::move(__f)); }
 1801              		.loc 1 232 2 is_stmt 0 view .LVU496
 1802              	.LBE1401:
 1803              	.LBE1400:
 1804              	.LBE1397:
 1805              	.LBE1395:
 1806              	.LBE1394:
  87:/Library/DaisyToolchain/0.2.0/arm/arm-none-eabi/include/c++/10.3.1/bits/std_function.h ****     const void* _M_access() const { return &_M_pod_data[0]; }
 1807              		.loc 1 87 37 is_stmt 1 view .LVU497
 1808              		.loc 5 175 3 view .LVU498
 1809              	.LBB1409:
 1810              	.LBB1410:
  28:DSP/FX/../../Parameters/AudioParameter.h **** 
 1811              		.loc 9 28 15 is_stmt 0 view .LVU499
 1812 0204 0022     		movs	r2, #0
  30:DSP/FX/../../Parameters/AudioParameter.h ****         min = mi;
 1813              		.loc 9 30 16 view .LVU500
 1814 0206 0023     		movs	r3, #0
 1815              	.LBB1411:
 1816              	.LBB1412:
 1817              	.LBB1413:
 1818              	.LBB1414:
 1819              	.LBB1415:
 1820              	.LBB1416:
 1821              	.LBB1417:
 1822              	.LBB1418:
 1823              	.LBB1419:
 152:/Library/DaisyToolchain/0.2.0/arm/arm-none-eabi/include/c++/10.3.1/bits/std_function.h **** 	}
 1824              		.loc 1 152 4 view .LVU501
 1825 0208 0896     		str	r6, [sp, #32]
 1826              	.LBE1419:
 1827              	.LBE1418:
 1828              	.LBE1417:
 1829              	.LBE1416:
 1830              	.LBE1415:
 1831              	.LBE1414:
 1832              	.LBE1413:
 1833              	.LBE1412:
 1834              	.LBE1411:
  28:DSP/FX/../../Parameters/AudioParameter.h **** 
 1835              		.loc 9 28 15 view .LVU502
 1836 020a C4F85C21 		str	r2, [r4, #348]	@ float
  32:DSP/FX/../../Parameters/AudioParameter.h **** 
 1837              		.loc 9 32 13 view .LVU503
ARM GAS  /var/folders/wz/z09yph4n0qj4t7mjxhl6ttn80000gn/T//ccPO7ASC.s 			page 66


 1838 020e 0122     		movs	r2, #1
  27:DSP/FX/../../Parameters/AudioParameter.h ****         input = 0;
 1839              		.loc 9 27 12 view .LVU504
 1840 0210 C4F85881 		str	r8, [r4, #344]
  32:DSP/FX/../../Parameters/AudioParameter.h **** 
 1841              		.loc 9 32 13 view .LVU505
 1842 0214 C4F86C21 		str	r2, [r4, #364]
  35:DSP/FX/../../Parameters/AudioParameter.h ****         callback = cb;
 1843              		.loc 9 35 19 view .LVU506
 1844 0218 0222     		movs	r2, #2
 1845              	.LBE1410:
 1846              	.LBE1409:
 1847              	.LBB1464:
 1848              	.LBB1407:
 1849              	.LBB1405:
 610:/Library/DaisyToolchain/0.2.0/arm/arm-none-eabi/include/c++/10.3.1/bits/std_function.h **** 	    _M_manager = &_My_handler::_M_manager;
 1850              		.loc 1 610 17 view .LVU507
 1851 021a DFF854C1 		ldr	ip, .L85+60
 1852              	.LBE1405:
 1853              	.LBE1407:
 1854              	.LBE1464:
 1855              	.LBB1465:
 1856              	.LBB1458:
  35:DSP/FX/../../Parameters/AudioParameter.h ****         callback = cb;
 1857              		.loc 9 35 19 view .LVU508
 1858 021e A4F87021 		strh	r2, [r4, #368]	@ movhi
 1859              	.LBE1458:
 1860              	.LBE1465:
 1861              	.LBB1466:
 1862              	.LBB1408:
 1863              	.LBB1406:
 1864              		.loc 1 611 17 view .LVU509
 1865 0222 4E4A     		ldr	r2, .L85+40
 1866              	.LBB1404:
 1867              	.LBB1403:
 1868              	.LBB1402:
 233:/Library/DaisyToolchain/0.2.0/arm/arm-none-eabi/include/c++/10.3.1/bits/std_function.h **** 
 1869              		.loc 1 233 4 view .LVU510
 1870 0224 0496     		str	r6, [sp, #16]
 1871              	.LVL92:
 233:/Library/DaisyToolchain/0.2.0/arm/arm-none-eabi/include/c++/10.3.1/bits/std_function.h **** 
 1872              		.loc 1 233 4 view .LVU511
 1873              	.LBE1402:
 1874              	.LBE1403:
 1875              	.LBE1404:
 610:/Library/DaisyToolchain/0.2.0/arm/arm-none-eabi/include/c++/10.3.1/bits/std_function.h **** 	    _M_manager = &_My_handler::_M_manager;
 1876              		.loc 1 610 17 view .LVU512
 1877 0226 CDF81CC0 		str	ip, [sp, #28]
 1878              		.loc 1 611 17 view .LVU513
 1879 022a 0692     		str	r2, [sp, #24]
 1880              	.LVL93:
 1881              		.loc 1 611 17 view .LVU514
 1882              	.LBE1406:
 1883              	.LBE1408:
 1884              	.LBE1466:
 1885              	.LBB1467:
 1886              	.LBI1409:
ARM GAS  /var/folders/wz/z09yph4n0qj4t7mjxhl6ttn80000gn/T//ccPO7ASC.s 			page 67


  25:DSP/FX/../../Parameters/AudioParameter.h ****     {
 1887              		.loc 9 25 10 is_stmt 1 view .LVU515
 1888              	.LBB1459:
 1889              	.LBB1453:
 1890              	.LBI1411:
 396:/Library/DaisyToolchain/0.2.0/arm/arm-none-eabi/include/c++/10.3.1/bits/std_function.h ****       {
 1891              		.loc 1 396 7 view .LVU516
 1892              	.LBB1448:
 1893              	.LBB1428:
 1894              	.LBI1413:
 587:/Library/DaisyToolchain/0.2.0/arm/arm-none-eabi/include/c++/10.3.1/bits/std_function.h ****     function(const function& __x)
 1895              		.loc 1 587 5 view .LVU517
 1896              	.LBB1426:
 1897              	.LBB1423:
 1898              	.LBI1423:
 240:/Library/DaisyToolchain/0.2.0/arm/arm-none-eabi/include/c++/10.3.1/bits/std_function.h **** 
 1899              		.loc 1 240 5 view .LVU518
 240:/Library/DaisyToolchain/0.2.0/arm/arm-none-eabi/include/c++/10.3.1/bits/std_function.h **** 
 1900              		.loc 1 240 5 is_stmt 0 view .LVU519
 1901              	.LBE1423:
 1902              	.LBB1424:
 1903              	.LBI1424:
 498:/Library/DaisyToolchain/0.2.0/arm/arm-none-eabi/include/c++/10.3.1/bits/std_function.h ****       { return !_M_empty(); }
 1904              		.loc 1 498 16 is_stmt 1 view .LVU520
 498:/Library/DaisyToolchain/0.2.0/arm/arm-none-eabi/include/c++/10.3.1/bits/std_function.h ****       { return !_M_empty(); }
 1905              		.loc 1 498 16 is_stmt 0 view .LVU521
 1906              	.LBE1424:
 1907              	.LBE1426:
 1908              	.LBE1428:
 1909              	.LBE1448:
 1910              	.LBE1453:
 1911              	.LBE1459:
 1912              	.LBE1467:
 248:/Library/DaisyToolchain/0.2.0/arm/arm-none-eabi/include/c++/10.3.1/bits/std_function.h **** 
 1913              		.loc 1 248 29 is_stmt 1 view .LVU522
 1914              	.LBB1468:
 1915              	.LBB1460:
 1916              	.LBB1454:
 1917              	.LBB1449:
 1918              	.LBB1429:
 1919              	.LBB1427:
 1920              	.LBB1425:
 1921              	.LBI1415:
 268:/Library/DaisyToolchain/0.2.0/arm/arm-none-eabi/include/c++/10.3.1/bits/std_function.h **** 		 _Manager_operation __op)
 1922              		.loc 1 268 7 view .LVU523
 1923              	.LBB1422:
 1924              	.LBI1416:
 268:/Library/DaisyToolchain/0.2.0/arm/arm-none-eabi/include/c++/10.3.1/bits/std_function.h **** 		 _Manager_operation __op)
 1925              		.loc 1 268 7 view .LVU524
 1926              	.LBB1421:
 1927              	.LBI1417:
 181:/Library/DaisyToolchain/0.2.0/arm/arm-none-eabi/include/c++/10.3.1/bits/std_function.h **** 		   _Manager_operation __op)
 1928              		.loc 1 181 2 view .LVU525
 1929              	.LBB1420:
 1930              	.LBI1418:
 150:/Library/DaisyToolchain/0.2.0/arm/arm-none-eabi/include/c++/10.3.1/bits/std_function.h **** 	{
 1931              		.loc 1 150 2 view .LVU526
ARM GAS  /var/folders/wz/z09yph4n0qj4t7mjxhl6ttn80000gn/T//ccPO7ASC.s 			page 68


 150:/Library/DaisyToolchain/0.2.0/arm/arm-none-eabi/include/c++/10.3.1/bits/std_function.h **** 	{
 1932              		.loc 1 150 2 is_stmt 0 view .LVU527
 1933              	.LBE1420:
 1934              	.LBE1421:
 1935              	.LBE1422:
 1936              	.LBE1425:
 1937              	.LBE1427:
 1938              	.LBE1429:
 1939              	.LBE1449:
 1940              	.LBE1454:
 1941              	.LBE1460:
 1942              	.LBE1468:
  88:/Library/DaisyToolchain/0.2.0/arm/arm-none-eabi/include/c++/10.3.1/bits/std_function.h **** 
 1943              		.loc 1 88 37 is_stmt 1 view .LVU528
  87:/Library/DaisyToolchain/0.2.0/arm/arm-none-eabi/include/c++/10.3.1/bits/std_function.h ****     const void* _M_access() const { return &_M_pod_data[0]; }
 1944              		.loc 1 87 37 view .LVU529
 1945              		.loc 5 175 3 view .LVU530
 1946              	.LBB1469:
 1947              	.LBB1461:
 1948              	.LBB1455:
 1949              	.LBB1450:
 1950              	.LBB1430:
 1951              	.LBI1430:
 481:/Library/DaisyToolchain/0.2.0/arm/arm-none-eabi/include/c++/10.3.1/bits/std_function.h ****       {
 1952              		.loc 1 481 12 view .LVU531
 1953              	.LBB1431:
 1954              	.LBI1431:
 189:/Library/DaisyToolchain/0.2.0/arm/arm-none-eabi/include/c++/10.3.1/bits/move.h ****     _GLIBCXX_NOEXCEPT_IF(__and_<is_nothrow_move_constructible<_Tp>,
 1955              		.loc 8 189 5 view .LVU532
 1956              	.LBB1432:
 197:/Library/DaisyToolchain/0.2.0/arm/arm-none-eabi/include/c++/10.3.1/bits/move.h ****       __a = _GLIBCXX_MOVE(__b);
 1957              		.loc 8 197 11 is_stmt 0 view .LVU533
 1958 022c 95E80300 		ldm	r5, {r0, r1}
 1959              	.LBE1432:
 1960              	.LBE1431:
 1961              	.LBE1430:
 1962              	.LBE1450:
 1963              	.LBE1455:
  31:DSP/FX/../../Parameters/AudioParameter.h ****         max = ma;
 1964              		.loc 9 31 13 view .LVU534
 1965 0230 C4E95933 		strd	r3, r3, [r4, #356]
 1966              	.LBB1456:
 1967              	.LBB1451:
 1968              	.LBB1443:
 1969              	.LBB1434:
 1970              	.LBB1433:
 198:/Library/DaisyToolchain/0.2.0/arm/arm-none-eabi/include/c++/10.3.1/bits/move.h ****       __b = _GLIBCXX_MOVE(__tmp);
 1971              		.loc 8 198 7 view .LVU535
 1972 0234 04F5BA73 		add	r3, r4, #372
 197:/Library/DaisyToolchain/0.2.0/arm/arm-none-eabi/include/c++/10.3.1/bits/move.h ****       __a = _GLIBCXX_MOVE(__b);
 1973              		.loc 8 197 11 view .LVU536
 1974 0238 87E80300 		stm	r7, {r0, r1}
 198:/Library/DaisyToolchain/0.2.0/arm/arm-none-eabi/include/c++/10.3.1/bits/move.h ****       __b = _GLIBCXX_MOVE(__tmp);
 1975              		.loc 8 198 7 view .LVU537
 1976 023c 93E80300 		ldm	r3, {r0, r1}
 1977 0240 85E80300 		stm	r5, {r0, r1}
 1978              		.loc 8 199 7 view .LVU538
ARM GAS  /var/folders/wz/z09yph4n0qj4t7mjxhl6ttn80000gn/T//ccPO7ASC.s 			page 69


 1979 0244 97E80300 		ldm	r7, {r0, r1}
 1980 0248 83E80300 		stm	r3, {r0, r1}
 1981              	.LVL94:
 1982              		.loc 8 199 7 view .LVU539
 1983              	.LBE1433:
 1984              	.LBE1434:
 1985              	.LBB1435:
 1986              	.LBI1435:
 189:/Library/DaisyToolchain/0.2.0/arm/arm-none-eabi/include/c++/10.3.1/bits/move.h ****     _GLIBCXX_NOEXCEPT_IF(__and_<is_nothrow_move_constructible<_Tp>,
 1987              		.loc 8 189 5 is_stmt 1 view .LVU540
 1988              	.LBB1436:
 198:/Library/DaisyToolchain/0.2.0/arm/arm-none-eabi/include/c++/10.3.1/bits/move.h ****       __b = _GLIBCXX_MOVE(__tmp);
 1989              		.loc 8 198 11 is_stmt 0 view .LVU541
 1990 024c D4F87C31 		ldr	r3, [r4, #380]
 1991              	.LBE1436:
 1992              	.LBE1435:
 1993              	.LBB1438:
 1994              	.LBB1439:
 1995 0250 D4F88011 		ldr	r1, [r4, #384]
 1996              	.LBE1439:
 1997              	.LBE1438:
 1998              	.LBB1441:
 1999              	.LBB1437:
 2000              		.loc 8 199 11 view .LVU542
 2001 0254 C4F87C21 		str	r2, [r4, #380]
 198:/Library/DaisyToolchain/0.2.0/arm/arm-none-eabi/include/c++/10.3.1/bits/move.h ****       __b = _GLIBCXX_MOVE(__tmp);
 2002              		.loc 8 198 11 view .LVU543
 2003 0258 0A93     		str	r3, [sp, #40]
 2004              	.LVL95:
 198:/Library/DaisyToolchain/0.2.0/arm/arm-none-eabi/include/c++/10.3.1/bits/move.h ****       __b = _GLIBCXX_MOVE(__tmp);
 2005              		.loc 8 198 11 view .LVU544
 2006              	.LBE1437:
 2007              	.LBE1441:
 2008              	.LBB1442:
 2009              	.LBI1438:
 189:/Library/DaisyToolchain/0.2.0/arm/arm-none-eabi/include/c++/10.3.1/bits/move.h ****     _GLIBCXX_NOEXCEPT_IF(__and_<is_nothrow_move_constructible<_Tp>,
 2010              		.loc 8 189 5 is_stmt 1 view .LVU545
 2011              	.LBB1440:
 2012              		.loc 8 199 11 is_stmt 0 view .LVU546
 2013 025a C4F880C1 		str	ip, [r4, #384]
 198:/Library/DaisyToolchain/0.2.0/arm/arm-none-eabi/include/c++/10.3.1/bits/move.h ****       __b = _GLIBCXX_MOVE(__tmp);
 2014              		.loc 8 198 11 view .LVU547
 2015 025e 0B91     		str	r1, [sp, #44]
 2016              	.LVL96:
 198:/Library/DaisyToolchain/0.2.0/arm/arm-none-eabi/include/c++/10.3.1/bits/move.h ****       __b = _GLIBCXX_MOVE(__tmp);
 2017              		.loc 8 198 11 view .LVU548
 2018              	.LBE1440:
 2019              	.LBE1442:
 2020              	.LBE1443:
 2021              	.LBB1444:
 2022              	.LBI1444:
 303:/Library/DaisyToolchain/0.2.0/arm/arm-none-eabi/include/c++/10.3.1/bits/std_function.h ****     : public _Maybe_unary_or_binary_function<_Res, _ArgTypes...>,
 2023              		.loc 1 303 11 is_stmt 1 view .LVU549
 2024              	.LBB1445:
 2025              	.LBB1446:
 2026              	.LBI1446:
 242:/Library/DaisyToolchain/0.2.0/arm/arm-none-eabi/include/c++/10.3.1/bits/std_function.h ****     {
ARM GAS  /var/folders/wz/z09yph4n0qj4t7mjxhl6ttn80000gn/T//ccPO7ASC.s 			page 70


 2027              		.loc 1 242 5 view .LVU550
 2028              	.LBB1447:
 244:/Library/DaisyToolchain/0.2.0/arm/arm-none-eabi/include/c++/10.3.1/bits/std_function.h **** 	_M_manager(_M_functor, _M_functor, __destroy_functor);
 2029              		.loc 1 244 7 view .LVU551
 2030 0260 002B     		cmp	r3, #0
 2031 0262 5CD0     		beq	.L84
 2032              	.LVL97:
 245:/Library/DaisyToolchain/0.2.0/arm/arm-none-eabi/include/c++/10.3.1/bits/std_function.h ****     }
 2033              		.loc 1 245 2 view .LVU552
 245:/Library/DaisyToolchain/0.2.0/arm/arm-none-eabi/include/c++/10.3.1/bits/std_function.h ****     }
 2034              		.loc 1 245 12 is_stmt 0 view .LVU553
 2035 0264 0322     		movs	r2, #3
 2036 0266 2946     		mov	r1, r5
 2037 0268 2846     		mov	r0, r5
 2038 026a 9847     		blx	r3
 2039              	.LVL98:
 2040              	.LBE1447:
 2041              	.LBE1446:
 2042              	.LBE1445:
 2043              	.LBE1444:
 2044              	.LBE1451:
 2045              	.LBE1456:
 2046              		.loc 9 38 12 view .LVU554
 2047 026c 94F87021 		ldrb	r2, [r4, #368]	@ zero_extendqisi2
 2048              	.LVL99:
 2049              		.loc 9 38 12 view .LVU555
 2050              	.LBE1461:
 2051              	.LBE1469:
 2052              	.LBB1470:
 2053              	.LBB1471:
 2054              	.LBB1472:
 2055              	.LBB1473:
 244:/Library/DaisyToolchain/0.2.0/arm/arm-none-eabi/include/c++/10.3.1/bits/std_function.h **** 	_M_manager(_M_functor, _M_functor, __destroy_functor);
 2056              		.loc 1 244 11 view .LVU556
 2057 0270 069B     		ldr	r3, [sp, #24]
 2058              	.LBE1473:
 2059              	.LBE1472:
 2060              	.LBE1471:
 2061              	.LBE1470:
 2062              	.LBB1477:
 2063              	.LBB1462:
 2064              		.loc 9 38 9 view .LVU557
 2065 0272 052A     		cmp	r2, #5
 2066 0274 54D1     		bne	.L53
 2067              	.L54:
 2068              	.LVL100:
 2069              		.loc 9 38 9 view .LVU558
 2070              	.LBE1462:
 2071              	.LBE1477:
 2072              	.LBB1478:
 2073              	.LBI1470:
 303:/Library/DaisyToolchain/0.2.0/arm/arm-none-eabi/include/c++/10.3.1/bits/std_function.h ****     : public _Maybe_unary_or_binary_function<_Res, _ArgTypes...>,
 2074              		.loc 1 303 11 is_stmt 1 view .LVU559
 2075              	.LBB1476:
 2076              	.LBB1475:
 2077              	.LBI1472:
 242:/Library/DaisyToolchain/0.2.0/arm/arm-none-eabi/include/c++/10.3.1/bits/std_function.h ****     {
ARM GAS  /var/folders/wz/z09yph4n0qj4t7mjxhl6ttn80000gn/T//ccPO7ASC.s 			page 71


 2078              		.loc 1 242 5 view .LVU560
 2079              	.LBB1474:
 244:/Library/DaisyToolchain/0.2.0/arm/arm-none-eabi/include/c++/10.3.1/bits/std_function.h **** 	_M_manager(_M_functor, _M_functor, __destroy_functor);
 2080              		.loc 1 244 7 view .LVU561
 2081 0276 1BB1     		cbz	r3, .L55
 245:/Library/DaisyToolchain/0.2.0/arm/arm-none-eabi/include/c++/10.3.1/bits/std_function.h ****     }
 2082              		.loc 1 245 2 view .LVU562
 245:/Library/DaisyToolchain/0.2.0/arm/arm-none-eabi/include/c++/10.3.1/bits/std_function.h ****     }
 2083              		.loc 1 245 12 is_stmt 0 view .LVU563
 2084 0278 04A9     		add	r1, sp, #16
 2085              	.LVL101:
 245:/Library/DaisyToolchain/0.2.0/arm/arm-none-eabi/include/c++/10.3.1/bits/std_function.h ****     }
 2086              		.loc 1 245 12 view .LVU564
 2087 027a 0322     		movs	r2, #3
 2088 027c 0846     		mov	r0, r1
 2089 027e 9847     		blx	r3
 2090              	.LVL102:
 2091              	.L55:
 245:/Library/DaisyToolchain/0.2.0/arm/arm-none-eabi/include/c++/10.3.1/bits/std_function.h ****     }
 2092              		.loc 1 245 12 view .LVU565
 2093              	.LBE1474:
 2094              	.LBE1475:
 2095              	.LBE1476:
 2096              	.LBE1478:
 2097              		.loc 4 16 5 is_stmt 1 view .LVU566
 2098              	.LBB1479:
 2099              	.LBI1479:
 601:/Library/DaisyToolchain/0.2.0/arm/arm-none-eabi/include/c++/10.3.1/bits/std_function.h ****       function(_Functor __f)
 2100              		.loc 1 601 7 view .LVU567
 2101              	.LBB1480:
 2102              	.LBB1481:
 2103              	.LBI1481:
 240:/Library/DaisyToolchain/0.2.0/arm/arm-none-eabi/include/c++/10.3.1/bits/std_function.h **** 
 2104              		.loc 1 240 5 view .LVU568
 240:/Library/DaisyToolchain/0.2.0/arm/arm-none-eabi/include/c++/10.3.1/bits/std_function.h **** 
 2105              		.loc 1 240 5 is_stmt 0 view .LVU569
 2106              	.LBE1481:
 2107              	.LBB1482:
 2108              	.LBB1483:
 2109              	.LBI1483:
 227:/Library/DaisyToolchain/0.2.0/arm/arm-none-eabi/include/c++/10.3.1/bits/std_function.h **** 	  { return true; }
 2110              		.loc 1 227 4 is_stmt 1 view .LVU570
 227:/Library/DaisyToolchain/0.2.0/arm/arm-none-eabi/include/c++/10.3.1/bits/std_function.h **** 	  { return true; }
 2111              		.loc 1 227 4 is_stmt 0 view .LVU571
 2112              	.LBE1483:
 2113              	.LBB1484:
 2114              	.LBI1484:
 101:/Library/DaisyToolchain/0.2.0/arm/arm-none-eabi/include/c++/10.3.1/bits/move.h ****     { return static_cast<typename std::remove_reference<_Tp>::type&&>(__t); }
 2115              		.loc 8 101 5 is_stmt 1 view .LVU572
 101:/Library/DaisyToolchain/0.2.0/arm/arm-none-eabi/include/c++/10.3.1/bits/move.h ****     { return static_cast<typename std::remove_reference<_Tp>::type&&>(__t); }
 2116              		.loc 8 101 5 is_stmt 0 view .LVU573
 2117              	.LBE1484:
 2118              	.LBB1485:
 2119              	.LBI1485:
 207:/Library/DaisyToolchain/0.2.0/arm/arm-none-eabi/include/c++/10.3.1/bits/std_function.h **** 	{ _M_init_functor(__functor, std::move(__f), _Local_storage()); }
 2120              		.loc 1 207 2 is_stmt 1 view .LVU574
 2121              	.LBB1486:
ARM GAS  /var/folders/wz/z09yph4n0qj4t7mjxhl6ttn80000gn/T//ccPO7ASC.s 			page 72


 2122              	.LBI1486:
 232:/Library/DaisyToolchain/0.2.0/arm/arm-none-eabi/include/c++/10.3.1/bits/std_function.h **** 	{ ::new (__functor._M_access()) _Functor(std::move(__f)); }
 2123              		.loc 1 232 2 view .LVU575
 232:/Library/DaisyToolchain/0.2.0/arm/arm-none-eabi/include/c++/10.3.1/bits/std_function.h **** 	{ ::new (__functor._M_access()) _Functor(std::move(__f)); }
 2124              		.loc 1 232 2 is_stmt 0 view .LVU576
 2125              	.LBE1486:
 2126              	.LBE1485:
 2127              	.LBE1482:
 2128              	.LBE1480:
 2129              	.LBE1479:
  87:/Library/DaisyToolchain/0.2.0/arm/arm-none-eabi/include/c++/10.3.1/bits/std_function.h ****     const void* _M_access() const { return &_M_pod_data[0]; }
 2130              		.loc 1 87 37 is_stmt 1 view .LVU577
 2131              		.loc 5 175 3 view .LVU578
 2132              	.LBB1492:
 2133              	.LBB1493:
  28:DSP/FX/../../Parameters/AudioParameter.h **** 
 2134              		.loc 9 28 15 is_stmt 0 view .LVU579
 2135 0280 0023     		movs	r3, #0
 2136              	.LBB1494:
 2137              	.LBB1495:
 2138              	.LBB1496:
 2139              	.LBB1497:
 2140              	.LBB1498:
 2141              	.LBB1499:
 2142              	.LBB1500:
 2143              	.LBB1501:
 2144              	.LBB1502:
 152:/Library/DaisyToolchain/0.2.0/arm/arm-none-eabi/include/c++/10.3.1/bits/std_function.h **** 	}
 2145              		.loc 1 152 4 view .LVU580
 2146 0282 0896     		str	r6, [sp, #32]
 2147              	.LBE1502:
 2148              	.LBE1501:
 2149              	.LBE1500:
 2150              	.LBE1499:
 2151              	.LBE1498:
 2152              	.LBE1497:
 2153              	.LBE1496:
 2154              	.LBE1495:
 2155              	.LBE1494:
  35:DSP/FX/../../Parameters/AudioParameter.h ****         callback = cb;
 2156              		.loc 9 35 19 view .LVU581
 2157 0284 4FF0030C 		mov	ip, #3
  27:DSP/FX/../../Parameters/AudioParameter.h ****         input = 0;
 2158              		.loc 9 27 12 view .LVU582
 2159 0288 C4F88481 		str	r8, [r4, #388]
  28:DSP/FX/../../Parameters/AudioParameter.h **** 
 2160              		.loc 9 28 15 view .LVU583
 2161 028c C4F88831 		str	r3, [r4, #392]	@ float
  30:DSP/FX/../../Parameters/AudioParameter.h ****         min = mi;
 2162              		.loc 9 30 16 view .LVU584
 2163 0290 C4F89031 		str	r3, [r4, #400]	@ float
  31:DSP/FX/../../Parameters/AudioParameter.h ****         max = ma;
 2164              		.loc 9 31 13 view .LVU585
 2165 0294 C4F89431 		str	r3, [r4, #404]	@ float
  32:DSP/FX/../../Parameters/AudioParameter.h **** 
 2166              		.loc 9 32 13 view .LVU586
 2167 0298 4FF07E53 		mov	r3, #1065353216
ARM GAS  /var/folders/wz/z09yph4n0qj4t7mjxhl6ttn80000gn/T//ccPO7ASC.s 			page 73


  35:DSP/FX/../../Parameters/AudioParameter.h ****         callback = cb;
 2168              		.loc 9 35 19 view .LVU587
 2169 029c A4F89CC1 		strh	ip, [r4, #412]	@ movhi
  32:DSP/FX/../../Parameters/AudioParameter.h **** 
 2170              		.loc 9 32 13 view .LVU588
 2171 02a0 C4F89831 		str	r3, [r4, #408]	@ float
 2172              	.LBB1535:
 2173              	.LBB1531:
 2174              	.LBB1511:
 2175              	.LBB1512:
 2176              	.LBB1513:
 198:/Library/DaisyToolchain/0.2.0/arm/arm-none-eabi/include/c++/10.3.1/bits/move.h ****       __b = _GLIBCXX_MOVE(__tmp);
 2177              		.loc 8 198 7 view .LVU589
 2178 02a4 04F5D073 		add	r3, r4, #416
 2179              	.LBE1513:
 2180              	.LBE1512:
 2181              	.LBE1511:
 2182              	.LBE1531:
 2183              	.LBE1535:
 2184              	.LBE1493:
 2185              	.LBE1492:
 2186              	.LBB1544:
 2187              	.LBB1491:
 2188              	.LBB1490:
 610:/Library/DaisyToolchain/0.2.0/arm/arm-none-eabi/include/c++/10.3.1/bits/std_function.h **** 	    _M_manager = &_My_handler::_M_manager;
 2189              		.loc 1 610 17 view .LVU590
 2190 02a8 2D4A     		ldr	r2, .L85+44
 2191              	.LBB1489:
 2192              	.LBB1488:
 2193              	.LBB1487:
 233:/Library/DaisyToolchain/0.2.0/arm/arm-none-eabi/include/c++/10.3.1/bits/std_function.h **** 
 2194              		.loc 1 233 4 view .LVU591
 2195 02aa 0496     		str	r6, [sp, #16]
 2196              	.LVL103:
 233:/Library/DaisyToolchain/0.2.0/arm/arm-none-eabi/include/c++/10.3.1/bits/std_function.h **** 
 2197              		.loc 1 233 4 view .LVU592
 2198              	.LBE1487:
 2199              	.LBE1488:
 2200              	.LBE1489:
 2201              		.loc 1 611 17 view .LVU593
 2202 02ac 2D4E     		ldr	r6, .L85+48
 2203              	.LVL104:
 610:/Library/DaisyToolchain/0.2.0/arm/arm-none-eabi/include/c++/10.3.1/bits/std_function.h **** 	    _M_manager = &_My_handler::_M_manager;
 2204              		.loc 1 610 17 view .LVU594
 2205 02ae 0792     		str	r2, [sp, #28]
 2206              		.loc 1 611 17 view .LVU595
 2207 02b0 0696     		str	r6, [sp, #24]
 2208              	.LVL105:
 2209              		.loc 1 611 17 view .LVU596
 2210              	.LBE1490:
 2211              	.LBE1491:
 2212              	.LBE1544:
 2213              	.LBB1545:
 2214              	.LBI1492:
  25:DSP/FX/../../Parameters/AudioParameter.h ****     {
 2215              		.loc 9 25 10 is_stmt 1 view .LVU597
 2216              	.LBB1539:
ARM GAS  /var/folders/wz/z09yph4n0qj4t7mjxhl6ttn80000gn/T//ccPO7ASC.s 			page 74


 2217              	.LBB1536:
 2218              	.LBI1494:
 396:/Library/DaisyToolchain/0.2.0/arm/arm-none-eabi/include/c++/10.3.1/bits/std_function.h ****       {
 2219              		.loc 1 396 7 view .LVU598
 2220              	.LBB1532:
 2221              	.LBB1524:
 2222              	.LBI1496:
 587:/Library/DaisyToolchain/0.2.0/arm/arm-none-eabi/include/c++/10.3.1/bits/std_function.h ****     function(const function& __x)
 2223              		.loc 1 587 5 view .LVU599
 2224              	.LBB1509:
 2225              	.LBB1506:
 2226              	.LBI1506:
 240:/Library/DaisyToolchain/0.2.0/arm/arm-none-eabi/include/c++/10.3.1/bits/std_function.h **** 
 2227              		.loc 1 240 5 view .LVU600
 240:/Library/DaisyToolchain/0.2.0/arm/arm-none-eabi/include/c++/10.3.1/bits/std_function.h **** 
 2228              		.loc 1 240 5 is_stmt 0 view .LVU601
 2229              	.LBE1506:
 2230              	.LBB1507:
 2231              	.LBI1507:
 498:/Library/DaisyToolchain/0.2.0/arm/arm-none-eabi/include/c++/10.3.1/bits/std_function.h ****       { return !_M_empty(); }
 2232              		.loc 1 498 16 is_stmt 1 view .LVU602
 498:/Library/DaisyToolchain/0.2.0/arm/arm-none-eabi/include/c++/10.3.1/bits/std_function.h ****       { return !_M_empty(); }
 2233              		.loc 1 498 16 is_stmt 0 view .LVU603
 2234              	.LBE1507:
 2235              	.LBE1509:
 2236              	.LBE1524:
 2237              	.LBE1532:
 2238              	.LBE1536:
 2239              	.LBE1539:
 2240              	.LBE1545:
 248:/Library/DaisyToolchain/0.2.0/arm/arm-none-eabi/include/c++/10.3.1/bits/std_function.h **** 
 2241              		.loc 1 248 29 is_stmt 1 view .LVU604
 2242              	.LBB1546:
 2243              	.LBB1540:
 2244              	.LBB1537:
 2245              	.LBB1533:
 2246              	.LBB1525:
 2247              	.LBB1510:
 2248              	.LBB1508:
 2249              	.LBI1498:
 268:/Library/DaisyToolchain/0.2.0/arm/arm-none-eabi/include/c++/10.3.1/bits/std_function.h **** 		 _Manager_operation __op)
 2250              		.loc 1 268 7 view .LVU605
 2251              	.LBB1505:
 2252              	.LBI1499:
 268:/Library/DaisyToolchain/0.2.0/arm/arm-none-eabi/include/c++/10.3.1/bits/std_function.h **** 		 _Manager_operation __op)
 2253              		.loc 1 268 7 view .LVU606
 2254              	.LBB1504:
 2255              	.LBI1500:
 181:/Library/DaisyToolchain/0.2.0/arm/arm-none-eabi/include/c++/10.3.1/bits/std_function.h **** 		   _Manager_operation __op)
 2256              		.loc 1 181 2 view .LVU607
 2257              	.LBB1503:
 2258              	.LBI1501:
 150:/Library/DaisyToolchain/0.2.0/arm/arm-none-eabi/include/c++/10.3.1/bits/std_function.h **** 	{
 2259              		.loc 1 150 2 view .LVU608
 150:/Library/DaisyToolchain/0.2.0/arm/arm-none-eabi/include/c++/10.3.1/bits/std_function.h **** 	{
 2260              		.loc 1 150 2 is_stmt 0 view .LVU609
 2261              	.LBE1503:
ARM GAS  /var/folders/wz/z09yph4n0qj4t7mjxhl6ttn80000gn/T//ccPO7ASC.s 			page 75


 2262              	.LBE1504:
 2263              	.LBE1505:
 2264              	.LBE1508:
 2265              	.LBE1510:
 2266              	.LBE1525:
 2267              	.LBE1533:
 2268              	.LBE1537:
 2269              	.LBE1540:
 2270              	.LBE1546:
  88:/Library/DaisyToolchain/0.2.0/arm/arm-none-eabi/include/c++/10.3.1/bits/std_function.h **** 
 2271              		.loc 1 88 37 is_stmt 1 view .LVU610
  87:/Library/DaisyToolchain/0.2.0/arm/arm-none-eabi/include/c++/10.3.1/bits/std_function.h ****     const void* _M_access() const { return &_M_pod_data[0]; }
 2272              		.loc 1 87 37 view .LVU611
 2273              		.loc 5 175 3 view .LVU612
 2274              	.LBB1547:
 2275              	.LBB1541:
 2276              	.LBB1538:
 2277              	.LBB1534:
 2278              	.LBB1526:
 2279              	.LBI1511:
 481:/Library/DaisyToolchain/0.2.0/arm/arm-none-eabi/include/c++/10.3.1/bits/std_function.h ****       {
 2280              		.loc 1 481 12 view .LVU613
 2281              	.LBB1515:
 2282              	.LBI1512:
 189:/Library/DaisyToolchain/0.2.0/arm/arm-none-eabi/include/c++/10.3.1/bits/move.h ****     _GLIBCXX_NOEXCEPT_IF(__and_<is_nothrow_move_constructible<_Tp>,
 2283              		.loc 8 189 5 view .LVU614
 2284              	.LBB1514:
 197:/Library/DaisyToolchain/0.2.0/arm/arm-none-eabi/include/c++/10.3.1/bits/move.h ****       __a = _GLIBCXX_MOVE(__b);
 2285              		.loc 8 197 11 is_stmt 0 view .LVU615
 2286 02b2 95E80300 		ldm	r5, {r0, r1}
 2287 02b6 87E80300 		stm	r7, {r0, r1}
 198:/Library/DaisyToolchain/0.2.0/arm/arm-none-eabi/include/c++/10.3.1/bits/move.h ****       __b = _GLIBCXX_MOVE(__tmp);
 2288              		.loc 8 198 7 view .LVU616
 2289 02ba 93E80300 		ldm	r3, {r0, r1}
 2290 02be 85E80300 		stm	r5, {r0, r1}
 2291              	.LVL106:
 2292              		.loc 8 199 7 view .LVU617
 2293 02c2 97E80300 		ldm	r7, {r0, r1}
 2294 02c6 83E80300 		stm	r3, {r0, r1}
 2295              	.LVL107:
 2296              		.loc 8 199 7 view .LVU618
 2297              	.LBE1514:
 2298              	.LBE1515:
 2299              	.LBB1516:
 2300              	.LBI1516:
 189:/Library/DaisyToolchain/0.2.0/arm/arm-none-eabi/include/c++/10.3.1/bits/move.h ****     _GLIBCXX_NOEXCEPT_IF(__and_<is_nothrow_move_constructible<_Tp>,
 2301              		.loc 8 189 5 is_stmt 1 view .LVU619
 2302              	.LBB1517:
 198:/Library/DaisyToolchain/0.2.0/arm/arm-none-eabi/include/c++/10.3.1/bits/move.h ****       __b = _GLIBCXX_MOVE(__tmp);
 2303              		.loc 8 198 11 is_stmt 0 view .LVU620
 2304 02ca D4F8A831 		ldr	r3, [r4, #424]
 2305              	.LBE1517:
 2306              	.LBE1516:
 2307              	.LBB1519:
 2308              	.LBB1520:
 2309 02ce D4F8AC11 		ldr	r1, [r4, #428]
 2310              	.LBE1520:
ARM GAS  /var/folders/wz/z09yph4n0qj4t7mjxhl6ttn80000gn/T//ccPO7ASC.s 			page 76


 2311              	.LBE1519:
 2312              	.LBB1522:
 2313              	.LBB1518:
 2314              		.loc 8 199 11 view .LVU621
 2315 02d2 C4F8A861 		str	r6, [r4, #424]
 198:/Library/DaisyToolchain/0.2.0/arm/arm-none-eabi/include/c++/10.3.1/bits/move.h ****       __b = _GLIBCXX_MOVE(__tmp);
 2316              		.loc 8 198 11 view .LVU622
 2317 02d6 0A93     		str	r3, [sp, #40]
 2318              	.LVL108:
 198:/Library/DaisyToolchain/0.2.0/arm/arm-none-eabi/include/c++/10.3.1/bits/move.h ****       __b = _GLIBCXX_MOVE(__tmp);
 2319              		.loc 8 198 11 view .LVU623
 2320              	.LBE1518:
 2321              	.LBE1522:
 2322              	.LBB1523:
 2323              	.LBI1519:
 189:/Library/DaisyToolchain/0.2.0/arm/arm-none-eabi/include/c++/10.3.1/bits/move.h ****     _GLIBCXX_NOEXCEPT_IF(__and_<is_nothrow_move_constructible<_Tp>,
 2324              		.loc 8 189 5 is_stmt 1 view .LVU624
 2325              	.LBB1521:
 2326              		.loc 8 199 11 is_stmt 0 view .LVU625
 2327 02d8 C4F8AC21 		str	r2, [r4, #428]
 198:/Library/DaisyToolchain/0.2.0/arm/arm-none-eabi/include/c++/10.3.1/bits/move.h ****       __b = _GLIBCXX_MOVE(__tmp);
 2328              		.loc 8 198 11 view .LVU626
 2329 02dc 0B91     		str	r1, [sp, #44]
 2330              	.LVL109:
 198:/Library/DaisyToolchain/0.2.0/arm/arm-none-eabi/include/c++/10.3.1/bits/move.h ****       __b = _GLIBCXX_MOVE(__tmp);
 2331              		.loc 8 198 11 view .LVU627
 2332              	.LBE1521:
 2333              	.LBE1523:
 2334              	.LBE1526:
 2335              	.LBB1527:
 2336              	.LBI1527:
 303:/Library/DaisyToolchain/0.2.0/arm/arm-none-eabi/include/c++/10.3.1/bits/std_function.h ****     : public _Maybe_unary_or_binary_function<_Res, _ArgTypes...>,
 2337              		.loc 1 303 11 is_stmt 1 view .LVU628
 2338              	.LBB1528:
 2339              	.LBB1529:
 2340              	.LBI1529:
 242:/Library/DaisyToolchain/0.2.0/arm/arm-none-eabi/include/c++/10.3.1/bits/std_function.h ****     {
 2341              		.loc 1 242 5 view .LVU629
 2342              	.LBB1530:
 244:/Library/DaisyToolchain/0.2.0/arm/arm-none-eabi/include/c++/10.3.1/bits/std_function.h **** 	_M_manager(_M_functor, _M_functor, __destroy_functor);
 2343              		.loc 1 244 7 view .LVU630
 2344 02de D3B1     		cbz	r3, .L57
 2345              	.LVL110:
 245:/Library/DaisyToolchain/0.2.0/arm/arm-none-eabi/include/c++/10.3.1/bits/std_function.h ****     }
 2346              		.loc 1 245 2 view .LVU631
 245:/Library/DaisyToolchain/0.2.0/arm/arm-none-eabi/include/c++/10.3.1/bits/std_function.h ****     }
 2347              		.loc 1 245 12 is_stmt 0 view .LVU632
 2348 02e0 6246     		mov	r2, ip
 2349 02e2 2946     		mov	r1, r5
 2350 02e4 2846     		mov	r0, r5
 2351 02e6 9847     		blx	r3
 2352              	.LVL111:
 245:/Library/DaisyToolchain/0.2.0/arm/arm-none-eabi/include/c++/10.3.1/bits/std_function.h ****     }
 2353              		.loc 1 245 12 view .LVU633
 2354              	.LBE1530:
 2355              	.LBE1529:
 2356              	.LBE1528:
ARM GAS  /var/folders/wz/z09yph4n0qj4t7mjxhl6ttn80000gn/T//ccPO7ASC.s 			page 77


 2357              	.LBE1527:
 2358              	.LBE1534:
 2359              	.LBE1538:
 2360              		.loc 9 38 12 view .LVU634
 2361 02e8 94F89C31 		ldrb	r3, [r4, #412]	@ zero_extendqisi2
 2362              	.LVL112:
 2363              		.loc 9 38 12 view .LVU635
 2364              	.LBE1541:
 2365              	.LBE1547:
 2366              	.LBB1548:
 2367              	.LBB1549:
 2368              	.LBB1550:
 2369              	.LBB1551:
 244:/Library/DaisyToolchain/0.2.0/arm/arm-none-eabi/include/c++/10.3.1/bits/std_function.h **** 	_M_manager(_M_functor, _M_functor, __destroy_functor);
 2370              		.loc 1 244 11 view .LVU636
 2371 02ec 069E     		ldr	r6, [sp, #24]
 2372              	.LBE1551:
 2373              	.LBE1550:
 2374              	.LBE1549:
 2375              	.LBE1548:
 2376              	.LBB1555:
 2377              	.LBB1542:
 2378              		.loc 9 38 9 view .LVU637
 2379 02ee 052B     		cmp	r3, #5
 2380 02f0 11D1     		bne	.L57
 2381              	.L58:
 2382              	.LVL113:
 2383              		.loc 9 38 9 view .LVU638
 2384              	.LBE1542:
 2385              	.LBE1555:
 2386              	.LBB1556:
 2387              	.LBI1548:
 303:/Library/DaisyToolchain/0.2.0/arm/arm-none-eabi/include/c++/10.3.1/bits/std_function.h ****     : public _Maybe_unary_or_binary_function<_Res, _ArgTypes...>,
 2388              		.loc 1 303 11 is_stmt 1 view .LVU639
 2389              	.LBB1554:
 2390              	.LBB1553:
 2391              	.LBI1550:
 242:/Library/DaisyToolchain/0.2.0/arm/arm-none-eabi/include/c++/10.3.1/bits/std_function.h ****     {
 2392              		.loc 1 242 5 view .LVU640
 2393              	.LBB1552:
 244:/Library/DaisyToolchain/0.2.0/arm/arm-none-eabi/include/c++/10.3.1/bits/std_function.h **** 	_M_manager(_M_functor, _M_functor, __destroy_functor);
 2394              		.loc 1 244 7 view .LVU641
 2395 02f2 1EB1     		cbz	r6, .L59
 245:/Library/DaisyToolchain/0.2.0/arm/arm-none-eabi/include/c++/10.3.1/bits/std_function.h ****     }
 2396              		.loc 1 245 2 view .LVU642
 245:/Library/DaisyToolchain/0.2.0/arm/arm-none-eabi/include/c++/10.3.1/bits/std_function.h ****     }
 2397              		.loc 1 245 12 is_stmt 0 view .LVU643
 2398 02f4 04A9     		add	r1, sp, #16
 2399              	.LVL114:
 245:/Library/DaisyToolchain/0.2.0/arm/arm-none-eabi/include/c++/10.3.1/bits/std_function.h ****     }
 2400              		.loc 1 245 12 view .LVU644
 2401 02f6 0322     		movs	r2, #3
 2402 02f8 0846     		mov	r0, r1
 2403 02fa B047     		blx	r6
 2404              	.LVL115:
 2405              	.L59:
 245:/Library/DaisyToolchain/0.2.0/arm/arm-none-eabi/include/c++/10.3.1/bits/std_function.h ****     }
ARM GAS  /var/folders/wz/z09yph4n0qj4t7mjxhl6ttn80000gn/T//ccPO7ASC.s 			page 78


 2406              		.loc 1 245 12 view .LVU645
 2407              	.LBE1552:
 2408              	.LBE1553:
 2409              	.LBE1554:
 2410              	.LBE1556:
  17:DSP/FX/PitchShift.cpp **** 
  18:DSP/FX/PitchShift.cpp ****     // set default values 
  19:DSP/FX/PitchShift.cpp ****     bypass.value = false;
 2411              		.loc 4 19 5 is_stmt 1 view .LVU646
 2412              		.loc 4 19 18 is_stmt 0 view .LVU647
 2413 02fc 0023     		movs	r3, #0
 2414 02fe 84F8F830 		strb	r3, [r4, #248]
  20:DSP/FX/PitchShift.cpp **** }
 2415              		.loc 4 20 1 view .LVU648
 2416 0302 0CB0     		add	sp, sp, #48
 2417              		.cfi_remember_state
 2418              		.cfi_def_cfa_offset 40
 2419              		@ sp needed
 2420 0304 BDEC028B 		vldm	sp!, {d8}
 2421              		.cfi_restore 80
 2422              		.cfi_restore 81
 2423              		.cfi_def_cfa_offset 32
 2424 0308 BDE8F087 		pop	{r4, r5, r6, r7, r8, r9, r10, pc}
 2425              	.LVL116:
 2426              	.L45:
 2427              		.cfi_restore_state
 2428              	.LBB1557:
 2429              	.LBB1299:
 2430              	.LBB1296:
 2431              	.LBB1293:
 2432              	.LBB1290:
 2433              	.LBB1286:
 160:../../../DaisySP//Source/Effects/pitchshifter.h ****             }
 2434              		.loc 3 160 17 is_stmt 1 view .LVU649
 2435 030c B0EE640A 		vmov.f32	s0, s9
 160:../../../DaisySP//Source/Effects/pitchshifter.h ****             }
 2436              		.loc 3 160 27 is_stmt 0 view .LVU650
 2437 0310 C4ED0F4A 		vstr.32	s9, [r4, #60]
 2438 0314 25E7     		b	.L46
 2439              	.LVL117:
 2440              	.L57:
 160:../../../DaisySP//Source/Effects/pitchshifter.h ****             }
 2441              		.loc 3 160 27 view .LVU651
 2442              	.LBE1286:
 2443              	.LBE1290:
 2444              	.LBE1293:
 2445              	.LBE1296:
 2446              	.LBE1299:
 2447              	.LBE1557:
 2448              	.LBB1558:
 2449              	.LBB1543:
  39:DSP/FX/../../Parameters/AudioParameter.h ****             isSelected = true;
 2450              		.loc 9 39 24 view .LVU652
 2451 0316 0123     		movs	r3, #1
 2452 0318 84F89E31 		strb	r3, [r4, #414]
 2453 031c E9E7     		b	.L58
 2454              	.LVL118:
ARM GAS  /var/folders/wz/z09yph4n0qj4t7mjxhl6ttn80000gn/T//ccPO7ASC.s 			page 79


 2455              	.L84:
 2456              		.loc 9 39 24 view .LVU653
 2457              	.LBE1543:
 2458              	.LBE1558:
 2459              	.LBB1559:
 2460              	.LBB1463:
 2461              	.LBB1457:
 2462              	.LBB1452:
 398:/Library/DaisyToolchain/0.2.0/arm/arm-none-eabi/include/c++/10.3.1/bits/std_function.h **** 	return *this;
 2463              		.loc 1 398 2 view .LVU654
 2464 031e 1346     		mov	r3, r2
 2465              	.L53:
 398:/Library/DaisyToolchain/0.2.0/arm/arm-none-eabi/include/c++/10.3.1/bits/std_function.h **** 	return *this;
 2466              		.loc 1 398 2 view .LVU655
 2467              	.LBE1452:
 2468              	.LBE1457:
 2469              		.loc 9 39 24 view .LVU656
 2470 0320 0122     		movs	r2, #1
 2471 0322 84F87221 		strb	r2, [r4, #370]
 2472 0326 A6E7     		b	.L54
 2473              	.LVL119:
 2474              	.L83:
 2475              		.loc 9 39 24 view .LVU657
 2476              	.LBE1463:
 2477              	.LBE1559:
 2478              	.LBB1560:
 2479              	.LBB1365:
 2480              	.LBB1359:
 2481              	.LBB1353:
 398:/Library/DaisyToolchain/0.2.0/arm/arm-none-eabi/include/c++/10.3.1/bits/std_function.h **** 	return *this;
 2482              		.loc 1 398 2 view .LVU658
 2483 0328 1346     		mov	r3, r2
 2484              	.LVL120:
 2485              	.L49:
 398:/Library/DaisyToolchain/0.2.0/arm/arm-none-eabi/include/c++/10.3.1/bits/std_function.h **** 	return *this;
 2486              		.loc 1 398 2 view .LVU659
 2487              	.LBE1353:
 2488              	.LBE1359:
 2489              		.loc 9 39 24 view .LVU660
 2490 032a 0122     		movs	r2, #1
 2491 032c 84F84621 		strb	r2, [r4, #326]
 2492 0330 63E7     		b	.L50
 2493              	.L86:
 2494 0332 00BF     		.align	2
 2495              	.L85:
 2496 0334 A8000200 		.word	131240
 2497 0338 0000A040 		.word	1084227584
 2498 033c 00004842 		.word	1112014848
 2499 0340 38000100 		.word	65592
 2500 0344 40000200 		.word	131136
 2501 0348 DB0F4940 		.word	1078530011
 2502 034c ABAAAAAA 		.word	-1431655765
 2503 0350 00008038 		.word	947912704
 2504 0354 00000000 		.word	0
 2505 0358 00000000 		.word	_ZNSt17_Function_handlerIFviEZN10PitchShift4initEPN5daisy9DaisySeedEEUliE_E10_M_managerERSt9
 2506 035c 00000000 		.word	_ZNSt17_Function_handlerIFvmEZN10PitchShift4initEPN5daisy9DaisySeedEEUlmE0_E10_M_managerERSt
 2507 0360 00000000 		.word	_ZNSt17_Function_handlerIFvfEZN10PitchShift4initEPN5daisy9DaisySeedEEUlfE1_E9_M_invokeERKSt9
ARM GAS  /var/folders/wz/z09yph4n0qj4t7mjxhl6ttn80000gn/T//ccPO7ASC.s 			page 80


 2508 0364 00000000 		.word	_ZNSt17_Function_handlerIFvfEZN10PitchShift4initEPN5daisy9DaisySeedEEUlfE1_E10_M_managerERSt
 2509 0368 50000200 		.word	131152
 2510 036c 00000000 		.word	_ZNSt17_Function_handlerIFviEZN10PitchShift4initEPN5daisy9DaisySeedEEUliE_E9_M_invokeERKSt9_
 2511 0370 00000000 		.word	_ZNSt17_Function_handlerIFvmEZN10PitchShift4initEPN5daisy9DaisySeedEEUlmE0_E9_M_invokeERKSt9
 2512              	.LBE1365:
 2513              	.LBE1560:
 2514              		.cfi_endproc
 2515              	.LFE5645:
 2517              		.section	.text._ZN10PitchShift4tickEv,"ax",%progbits
 2518              		.align	1
 2519              		.p2align 2,,3
 2520              		.global	_ZN10PitchShift4tickEv
 2521              		.syntax unified
 2522              		.thumb
 2523              		.thumb_func
 2525              	_ZN10PitchShift4tickEv:
 2526              	.LVL121:
 2527              	.LFB5658:
  21:DSP/FX/PitchShift.cpp **** 
  22:DSP/FX/PitchShift.cpp **** void PitchShift::tick()
  23:DSP/FX/PitchShift.cpp **** {
 2528              		.loc 4 23 1 is_stmt 1 view -0
 2529              		.cfi_startproc
 2530              		@ args = 0, pretend = 0, frame = 16
 2531              		@ frame_needed = 0, uses_anonymous_args = 0
  24:DSP/FX/PitchShift.cpp ****     //bypass.tick();
  25:DSP/FX/PitchShift.cpp ****     semitones.tick();
 2532              		.loc 4 25 5 view .LVU662
  23:DSP/FX/PitchShift.cpp ****     //bypass.tick();
 2533              		.loc 4 23 1 is_stmt 0 view .LVU663
 2534 0000 30B5     		push	{r4, r5, lr}
 2535              		.cfi_def_cfa_offset 12
 2536              		.cfi_offset 4, -12
 2537              		.cfi_offset 5, -8
 2538              		.cfi_offset 14, -4
 2539              	.LBB1597:
 2540              	.LBB1598:
  40:DSP/FX/../../Parameters/AudioParameter.h ****     }
  41:DSP/FX/../../Parameters/AudioParameter.h ****     
  42:DSP/FX/../../Parameters/AudioParameter.h ****     inline void tick() 
  43:DSP/FX/../../Parameters/AudioParameter.h ****     {
  44:DSP/FX/../../Parameters/AudioParameter.h ****         if(!isSelected)
 2541              		.loc 9 44 13 view .LVU664
 2542 0002 00F50034 		add	r4, r0, #131072
 2543              	.LBE1598:
 2544              	.LBE1597:
  23:DSP/FX/PitchShift.cpp ****     //bypass.tick();
 2545              		.loc 4 23 1 view .LVU665
 2546 0006 85B0     		sub	sp, sp, #20
 2547              		.cfi_def_cfa_offset 32
  23:DSP/FX/PitchShift.cpp ****     //bypass.tick();
 2548              		.loc 4 23 1 view .LVU666
 2549 0008 0546     		mov	r5, r0
 2550              	.LVL122:
 2551              	.LBB1627:
 2552              	.LBI1597:
  42:DSP/FX/../../Parameters/AudioParameter.h ****     {
ARM GAS  /var/folders/wz/z09yph4n0qj4t7mjxhl6ttn80000gn/T//ccPO7ASC.s 			page 81


 2553              		.loc 9 42 17 is_stmt 1 view .LVU667
 2554              	.LBB1622:
 2555              		.loc 9 44 9 is_stmt 0 view .LVU668
 2556 000a 94F84631 		ldrb	r3, [r4, #326]	@ zero_extendqisi2
 2557 000e 53B9     		cbnz	r3, .L123
 2558              	.LVL123:
 2559              	.L89:
 2560              		.loc 9 44 9 view .LVU669
 2561              	.LBE1622:
 2562              	.LBE1627:
  26:DSP/FX/PitchShift.cpp ****     timbre.tick();
 2563              		.loc 4 26 5 is_stmt 1 view .LVU670
 2564              	.LBB1628:
 2565              	.LBI1628:
  42:DSP/FX/../../Parameters/AudioParameter.h ****     {
 2566              		.loc 9 42 17 view .LVU671
 2567              	.LBB1629:
 2568              		.loc 9 44 9 is_stmt 0 view .LVU672
 2569 0010 94F87231 		ldrb	r3, [r4, #370]	@ zero_extendqisi2
 2570 0014 002B     		cmp	r3, #0
 2571 0016 50D1     		bne	.L124
 2572              	.LVL124:
 2573              	.L98:
 2574              		.loc 9 44 9 view .LVU673
 2575              	.LBE1629:
 2576              	.LBE1628:
  27:DSP/FX/PitchShift.cpp ****     rand.tick();
 2577              		.loc 4 27 5 is_stmt 1 view .LVU674
 2578              	.LBB1652:
 2579              	.LBI1652:
  42:DSP/FX/../../Parameters/AudioParameter.h ****     {
 2580              		.loc 9 42 17 view .LVU675
 2581              	.LBB1653:
 2582              		.loc 9 44 9 is_stmt 0 view .LVU676
 2583 0018 94F89E31 		ldrb	r3, [r4, #414]	@ zero_extendqisi2
 2584 001c 002B     		cmp	r3, #0
 2585 001e 40F09480 		bne	.L125
 2586              	.LVL125:
 2587              	.L87:
 2588              		.loc 9 44 9 view .LVU677
 2589              	.LBE1653:
 2590              	.LBE1652:
  28:DSP/FX/PitchShift.cpp **** }
 2591              		.loc 4 28 1 view .LVU678
 2592 0022 05B0     		add	sp, sp, #20
 2593              		.cfi_remember_state
 2594              		.cfi_def_cfa_offset 12
 2595              		@ sp needed
 2596 0024 30BD     		pop	{r4, r5, pc}
 2597              	.LVL126:
 2598              	.L123:
 2599              		.cfi_restore_state
 2600              	.LBB1676:
 2601              	.LBB1623:
 2602              	.LBB1599:
 2603              	.LBI1599:
  42:DSP/FX/../../Parameters/AudioParameter.h ****     {
ARM GAS  /var/folders/wz/z09yph4n0qj4t7mjxhl6ttn80000gn/T//ccPO7ASC.s 			page 82


 2604              		.loc 9 42 17 is_stmt 1 view .LVU679
 2605              	.LBB1600:
  45:DSP/FX/../../Parameters/AudioParameter.h ****             return;
  46:DSP/FX/../../Parameters/AudioParameter.h **** 
  47:DSP/FX/../../Parameters/AudioParameter.h ****         float newInput = hw->adc.GetFloat(channelID);
 2606              		.loc 9 47 42 is_stmt 0 view .LVU680
 2607 0026 D4F82C01 		ldr	r0, [r4, #300]
 2608              	.LVL127:
 2609              		.loc 9 47 42 view .LVU681
 2610 002a 94F84411 		ldrb	r1, [r4, #324]	@ zero_extendqisi2
 2611 002e 1830     		adds	r0, r0, #24
 2612 0030 FFF7FEFF 		bl	_ZNK5daisy9AdcHandle8GetFloatEh
 2613              	.LVL128:
  48:DSP/FX/../../Parameters/AudioParameter.h ****         if(newInput > (input + jitter) || newInput < (input - jitter))
 2614              		.loc 9 48 24 view .LVU682
 2615 0034 D4ED4C7A 		vldr.32	s15, [r4, #304]
 2616              		.loc 9 48 32 view .LVU683
 2617 0038 94ED4D7A 		vldr.32	s14, [r4, #308]
 2618              	.LVL129:
 2619              		.loc 9 48 30 view .LVU684
 2620 003c 77EE876A 		vadd.f32	s13, s15, s14
 2621              		.loc 9 48 9 view .LVU685
 2622 0040 B4EEE60A 		vcmpe.f32	s0, s13
 2623 0044 F1EE10FA 		vmrs	APSR_nzcv, FPSCR
 2624 0048 06DC     		bgt	.L90
 2625              		.loc 9 48 61 view .LVU686
 2626 004a 77EEC77A 		vsub.f32	s15, s15, s14
 2627              		.loc 9 48 40 view .LVU687
 2628 004e B4EEE70A 		vcmpe.f32	s0, s15
 2629 0052 F1EE10FA 		vmrs	APSR_nzcv, FPSCR
 2630 0056 DBD5     		bpl	.L89
 2631              	.L90:
 2632              	.LBB1601:
 2633              	.LBB1602:
  49:DSP/FX/../../Parameters/AudioParameter.h ****         {
  50:DSP/FX/../../Parameters/AudioParameter.h ****             input = newInput;
  51:DSP/FX/../../Parameters/AudioParameter.h ****             processCurve();
  52:DSP/FX/../../Parameters/AudioParameter.h ****             callback(curVal);
  53:DSP/FX/../../Parameters/AudioParameter.h ****         }
  54:DSP/FX/../../Parameters/AudioParameter.h ****     }
  55:DSP/FX/../../Parameters/AudioParameter.h **** 
  56:DSP/FX/../../Parameters/AudioParameter.h ****     void processCurve()
  57:DSP/FX/../../Parameters/AudioParameter.h ****     {
  58:DSP/FX/../../Parameters/AudioParameter.h ****         switch(curve)
 2634              		.loc 9 58 16 view .LVU688
 2635 0058 94F84531 		ldrb	r3, [r4, #325]	@ zero_extendqisi2
 2636              	.LBE1602:
 2637              	.LBE1601:
  50:DSP/FX/../../Parameters/AudioParameter.h ****             processCurve();
 2638              		.loc 9 50 19 view .LVU689
 2639 005c 84ED4C0A 		vstr.32	s0, [r4, #304]
 2640              	.LVL130:
 2641              	.LBB1607:
 2642              	.LBI1601:
  56:DSP/FX/../../Parameters/AudioParameter.h ****     {
 2643              		.loc 9 56 10 is_stmt 1 view .LVU690
 2644              	.LBB1605:
ARM GAS  /var/folders/wz/z09yph4n0qj4t7mjxhl6ttn80000gn/T//ccPO7ASC.s 			page 83


 2645              		.loc 9 58 9 is_stmt 0 view .LVU691
 2646 0060 002B     		cmp	r3, #0
 2647 0062 00F0B580 		beq	.L93
 2648              		.loc 9 58 9 view .LVU692
 2649 0066 012B     		cmp	r3, #1
 2650 0068 40F0A980 		bne	.L126
 2651              	.LVL131:
 2652              	.LBB1603:
 2653              	.LBI1603:
  56:DSP/FX/../../Parameters/AudioParameter.h ****     {
 2654              		.loc 9 56 10 is_stmt 1 view .LVU693
 2655              	.LBB1604:
  59:DSP/FX/../../Parameters/AudioParameter.h ****         {
  60:DSP/FX/../../Parameters/AudioParameter.h ****             case LINEAR:
  61:DSP/FX/../../Parameters/AudioParameter.h ****                 curVal = ((input / 1.0f) * (max - min)) + min;
  62:DSP/FX/../../Parameters/AudioParameter.h ****             break;
  63:DSP/FX/../../Parameters/AudioParameter.h ****             case EXP:
  64:DSP/FX/../../Parameters/AudioParameter.h ****                 curVal = ((input * input) * (max - min)) + min;
 2656              		.loc 9 64 34 is_stmt 0 view .LVU694
 2657 006c 20EE000A 		vmul.f32	s0, s0, s0
 2658              	.LVL132:
 2659              		.loc 9 64 50 view .LVU695
 2660 0070 D4F84031 		ldr	r3, [r4, #320]
 2661              	.LVL133:
 2662              	.L121:
 2663              		.loc 9 64 50 view .LVU696
 2664 0074 D4F83C21 		ldr	r2, [r4, #316]
 2665 0078 9B1A     		subs	r3, r3, r2
 2666              		.loc 9 64 58 view .LVU697
 2667 007a 07EE902A 		vmov	s15, r2	@ int
 2668              		.loc 9 64 43 view .LVU698
 2669 007e 07EE103A 		vmov	s14, r3	@ int
 2670              		.loc 9 64 58 view .LVU699
 2671 0082 F8EEE77A 		vcvt.f32.s32	s15, s15
 2672              		.loc 9 64 43 view .LVU700
 2673 0086 B8EEC77A 		vcvt.f32.s32	s14, s14
 2674              		.loc 9 64 58 view .LVU701
 2675 008a E0EE077A 		vfma.f32	s15, s0, s14
 2676              		.loc 9 64 24 view .LVU702
 2677 008e FDEEE77A 		vcvt.s32.f32	s15, s15
 2678 0092 17EE903A 		vmov	r3, s15	@ int
 2679 0096 C4ED4E7A 		vstr.32	s15, [r4, #312]	@ int
 2680              	.L95:
 2681              	.LVL134:
 2682              		.loc 9 64 24 view .LVU703
 2683              	.LBE1604:
 2684              	.LBE1603:
 2685              	.LBE1605:
 2686              	.LBE1607:
 2687              	.LBB1608:
 2688              	.LBB1609:
 612:/Library/DaisyToolchain/0.2.0/arm/arm-none-eabi/include/c++/10.3.1/bits/std_function.h **** 	  }
 613:/Library/DaisyToolchain/0.2.0/arm/arm-none-eabi/include/c++/10.3.1/bits/std_function.h ****       }
 614:/Library/DaisyToolchain/0.2.0/arm/arm-none-eabi/include/c++/10.3.1/bits/std_function.h **** 
 615:/Library/DaisyToolchain/0.2.0/arm/arm-none-eabi/include/c++/10.3.1/bits/std_function.h ****   template<typename _Res, typename... _ArgTypes>
 616:/Library/DaisyToolchain/0.2.0/arm/arm-none-eabi/include/c++/10.3.1/bits/std_function.h ****     _Res
 617:/Library/DaisyToolchain/0.2.0/arm/arm-none-eabi/include/c++/10.3.1/bits/std_function.h ****     function<_Res(_ArgTypes...)>::
ARM GAS  /var/folders/wz/z09yph4n0qj4t7mjxhl6ttn80000gn/T//ccPO7ASC.s 			page 84


 618:/Library/DaisyToolchain/0.2.0/arm/arm-none-eabi/include/c++/10.3.1/bits/std_function.h ****     operator()(_ArgTypes... __args) const
 619:/Library/DaisyToolchain/0.2.0/arm/arm-none-eabi/include/c++/10.3.1/bits/std_function.h ****     {
 620:/Library/DaisyToolchain/0.2.0/arm/arm-none-eabi/include/c++/10.3.1/bits/std_function.h ****       if (_M_empty())
 2689              		.loc 1 620 7 view .LVU704
 2690 009a D4F85021 		ldr	r2, [r4, #336]
 2691 009e 0193     		str	r3, [sp, #4]
 2692              	.LVL135:
 2693              		.loc 1 620 7 view .LVU705
 2694              	.LBE1609:
 2695              	.LBI1608:
 617:/Library/DaisyToolchain/0.2.0/arm/arm-none-eabi/include/c++/10.3.1/bits/std_function.h ****     operator()(_ArgTypes... __args) const
 2696              		.loc 1 617 5 is_stmt 1 view .LVU706
 2697              	.LBB1612:
 2698              	.LBB1610:
 2699              	.LBI1610:
 248:/Library/DaisyToolchain/0.2.0/arm/arm-none-eabi/include/c++/10.3.1/bits/std_function.h **** 
 2700              		.loc 1 248 10 view .LVU707
 2701              	.LBB1611:
 248:/Library/DaisyToolchain/0.2.0/arm/arm-none-eabi/include/c++/10.3.1/bits/std_function.h **** 
 2702              		.loc 1 248 29 view .LVU708
 248:/Library/DaisyToolchain/0.2.0/arm/arm-none-eabi/include/c++/10.3.1/bits/std_function.h **** 
 2703              		.loc 1 248 29 is_stmt 0 view .LVU709
 2704              	.LBE1611:
 2705              	.LBE1610:
 2706              		.loc 1 620 7 view .LVU710
 2707 00a0 002A     		cmp	r2, #0
 2708 00a2 00F0A680 		beq	.L105
 621:/Library/DaisyToolchain/0.2.0/arm/arm-none-eabi/include/c++/10.3.1/bits/std_function.h **** 	__throw_bad_function_call();
 622:/Library/DaisyToolchain/0.2.0/arm/arm-none-eabi/include/c++/10.3.1/bits/std_function.h ****       return _M_invoker(_M_functor, std::forward<_ArgTypes>(__args)...);
 2709              		.loc 1 622 14 view .LVU711
 2710 00a6 5448     		ldr	r0, .L129
 2711 00a8 01A9     		add	r1, sp, #4
 2712 00aa D4F85431 		ldr	r3, [r4, #340]
 2713              	.LVL136:
 2714              		.loc 1 622 14 view .LVU712
 2715 00ae 2844     		add	r0, r0, r5
 2716 00b0 9847     		blx	r3
 2717              	.LVL137:
 2718              		.loc 1 622 14 view .LVU713
 2719              	.LBE1612:
 2720              	.LBE1608:
 2721              	.LBE1600:
 2722              	.LBE1599:
 2723              	.LBE1623:
 2724              	.LBE1676:
  26:DSP/FX/PitchShift.cpp ****     rand.tick();
 2725              		.loc 4 26 5 is_stmt 1 view .LVU714
 2726              	.LBB1677:
  42:DSP/FX/../../Parameters/AudioParameter.h ****     {
 2727              		.loc 9 42 17 view .LVU715
 2728              	.LBB1649:
  44:DSP/FX/../../Parameters/AudioParameter.h ****             return;
 2729              		.loc 9 44 9 is_stmt 0 view .LVU716
 2730 00b2 94F87231 		ldrb	r3, [r4, #370]	@ zero_extendqisi2
 2731 00b6 002B     		cmp	r3, #0
 2732 00b8 AED0     		beq	.L98
 2733              	.LVL138:
ARM GAS  /var/folders/wz/z09yph4n0qj4t7mjxhl6ttn80000gn/T//ccPO7ASC.s 			page 85


 2734              	.L124:
 2735              	.LBB1630:
 2736              	.LBI1630:
  42:DSP/FX/../../Parameters/AudioParameter.h ****     {
 2737              		.loc 9 42 17 is_stmt 1 view .LVU717
 2738              	.LBB1631:
  47:DSP/FX/../../Parameters/AudioParameter.h ****         if(newInput > (input + jitter) || newInput < (input - jitter))
 2739              		.loc 9 47 42 is_stmt 0 view .LVU718
 2740 00ba D4F85801 		ldr	r0, [r4, #344]
 2741 00be 94F87011 		ldrb	r1, [r4, #368]	@ zero_extendqisi2
 2742 00c2 1830     		adds	r0, r0, #24
 2743 00c4 FFF7FEFF 		bl	_ZNK5daisy9AdcHandle8GetFloatEh
 2744              	.LVL139:
  48:DSP/FX/../../Parameters/AudioParameter.h ****         {
 2745              		.loc 9 48 24 view .LVU719
 2746 00c8 D4ED577A 		vldr.32	s15, [r4, #348]
  48:DSP/FX/../../Parameters/AudioParameter.h ****         {
 2747              		.loc 9 48 32 view .LVU720
 2748 00cc 94ED587A 		vldr.32	s14, [r4, #352]
 2749              	.LVL140:
  48:DSP/FX/../../Parameters/AudioParameter.h ****         {
 2750              		.loc 9 48 30 view .LVU721
 2751 00d0 77EE876A 		vadd.f32	s13, s15, s14
  48:DSP/FX/../../Parameters/AudioParameter.h ****         {
 2752              		.loc 9 48 9 view .LVU722
 2753 00d4 B4EEE60A 		vcmpe.f32	s0, s13
 2754 00d8 F1EE10FA 		vmrs	APSR_nzcv, FPSCR
 2755 00dc 06DC     		bgt	.L99
  48:DSP/FX/../../Parameters/AudioParameter.h ****         {
 2756              		.loc 9 48 61 view .LVU723
 2757 00de 77EEC77A 		vsub.f32	s15, s15, s14
  48:DSP/FX/../../Parameters/AudioParameter.h ****         {
 2758              		.loc 9 48 40 view .LVU724
 2759 00e2 B4EEE70A 		vcmpe.f32	s0, s15
 2760 00e6 F1EE10FA 		vmrs	APSR_nzcv, FPSCR
 2761 00ea 95D5     		bpl	.L98
 2762              	.L99:
 2763              	.LBB1632:
 2764              	.LBB1633:
  58:DSP/FX/../../Parameters/AudioParameter.h ****         {
 2765              		.loc 9 58 16 view .LVU725
 2766 00ec 94F87131 		ldrb	r3, [r4, #369]	@ zero_extendqisi2
 2767              	.LBE1633:
 2768              	.LBE1632:
  50:DSP/FX/../../Parameters/AudioParameter.h ****             processCurve();
 2769              		.loc 9 50 19 view .LVU726
 2770 00f0 84ED570A 		vstr.32	s0, [r4, #348]
 2771              	.LVL141:
 2772              	.LBB1638:
 2773              	.LBI1632:
  56:DSP/FX/../../Parameters/AudioParameter.h ****     {
 2774              		.loc 9 56 10 is_stmt 1 view .LVU727
 2775              	.LBB1636:
  58:DSP/FX/../../Parameters/AudioParameter.h ****         {
 2776              		.loc 9 58 9 is_stmt 0 view .LVU728
 2777 00f4 002B     		cmp	r3, #0
 2778 00f6 79D0     		beq	.L102
ARM GAS  /var/folders/wz/z09yph4n0qj4t7mjxhl6ttn80000gn/T//ccPO7ASC.s 			page 86


  58:DSP/FX/../../Parameters/AudioParameter.h ****         {
 2779              		.loc 9 58 9 view .LVU729
 2780 00f8 012B     		cmp	r3, #1
 2781 00fa 63D1     		bne	.L127
 2782              	.LVL142:
 2783              	.LBB1634:
 2784              	.LBI1634:
  56:DSP/FX/../../Parameters/AudioParameter.h ****     {
 2785              		.loc 9 56 10 is_stmt 1 view .LVU730
 2786              	.LBB1635:
 2787              		.loc 9 64 34 is_stmt 0 view .LVU731
 2788 00fc 20EE000A 		vmul.f32	s0, s0, s0
 2789              	.LVL143:
 2790              		.loc 9 64 50 view .LVU732
 2791 0100 D4F86C31 		ldr	r3, [r4, #364]
 2792              	.L122:
 2793              		.loc 9 64 50 view .LVU733
 2794 0104 D4F86821 		ldr	r2, [r4, #360]
 2795 0108 9B1A     		subs	r3, r3, r2
 2796              		.loc 9 64 58 view .LVU734
 2797 010a 07EE902A 		vmov	s15, r2	@ int
 2798              		.loc 9 64 43 view .LVU735
 2799 010e 07EE103A 		vmov	s14, r3	@ int
 2800              		.loc 9 64 58 view .LVU736
 2801 0112 F8EE677A 		vcvt.f32.u32	s15, s15
 2802              		.loc 9 64 43 view .LVU737
 2803 0116 B8EE477A 		vcvt.f32.u32	s14, s14
 2804              		.loc 9 64 58 view .LVU738
 2805 011a E0EE077A 		vfma.f32	s15, s0, s14
 2806              		.loc 9 64 24 view .LVU739
 2807 011e FCEEE77A 		vcvt.u32.f32	s15, s15
 2808 0122 17EE903A 		vmov	r3, s15	@ int
 2809 0126 C4ED597A 		vstr.32	s15, [r4, #356]	@ int
 2810              	.L104:
 2811              	.LVL144:
 2812              		.loc 9 64 24 view .LVU740
 2813              	.LBE1635:
 2814              	.LBE1634:
 2815              	.LBE1636:
 2816              	.LBE1638:
 2817              	.LBB1639:
 2818              	.LBB1640:
 620:/Library/DaisyToolchain/0.2.0/arm/arm-none-eabi/include/c++/10.3.1/bits/std_function.h **** 	__throw_bad_function_call();
 2819              		.loc 1 620 7 view .LVU741
 2820 012a D4F87C21 		ldr	r2, [r4, #380]
 2821 012e 0293     		str	r3, [sp, #8]
 2822              	.LVL145:
 620:/Library/DaisyToolchain/0.2.0/arm/arm-none-eabi/include/c++/10.3.1/bits/std_function.h **** 	__throw_bad_function_call();
 2823              		.loc 1 620 7 view .LVU742
 2824              	.LBE1640:
 2825              	.LBI1639:
 617:/Library/DaisyToolchain/0.2.0/arm/arm-none-eabi/include/c++/10.3.1/bits/std_function.h ****     operator()(_ArgTypes... __args) const
 2826              		.loc 1 617 5 is_stmt 1 view .LVU743
 2827              	.LBB1643:
 2828              	.LBB1641:
 2829              	.LBI1641:
 248:/Library/DaisyToolchain/0.2.0/arm/arm-none-eabi/include/c++/10.3.1/bits/std_function.h **** 
ARM GAS  /var/folders/wz/z09yph4n0qj4t7mjxhl6ttn80000gn/T//ccPO7ASC.s 			page 87


 2830              		.loc 1 248 10 view .LVU744
 2831              	.LBB1642:
 248:/Library/DaisyToolchain/0.2.0/arm/arm-none-eabi/include/c++/10.3.1/bits/std_function.h **** 
 2832              		.loc 1 248 29 view .LVU745
 248:/Library/DaisyToolchain/0.2.0/arm/arm-none-eabi/include/c++/10.3.1/bits/std_function.h **** 
 2833              		.loc 1 248 29 is_stmt 0 view .LVU746
 2834              	.LBE1642:
 2835              	.LBE1641:
 620:/Library/DaisyToolchain/0.2.0/arm/arm-none-eabi/include/c++/10.3.1/bits/std_function.h **** 	__throw_bad_function_call();
 2836              		.loc 1 620 7 view .LVU747
 2837 0130 002A     		cmp	r2, #0
 2838 0132 5ED0     		beq	.L105
 2839              		.loc 1 622 14 view .LVU748
 2840 0134 3148     		ldr	r0, .L129+4
 2841 0136 02A9     		add	r1, sp, #8
 2842 0138 D4F88031 		ldr	r3, [r4, #384]
 2843              	.LVL146:
 2844              		.loc 1 622 14 view .LVU749
 2845 013c 2844     		add	r0, r0, r5
 2846 013e 9847     		blx	r3
 2847              	.LVL147:
 2848              		.loc 1 622 14 view .LVU750
 2849              	.LBE1643:
 2850              	.LBE1639:
 2851              	.LBE1631:
 2852              	.LBE1630:
 2853              	.LBE1649:
 2854              	.LBE1677:
  27:DSP/FX/PitchShift.cpp **** }
 2855              		.loc 4 27 5 is_stmt 1 view .LVU751
 2856              	.LBB1678:
  42:DSP/FX/../../Parameters/AudioParameter.h ****     {
 2857              		.loc 9 42 17 view .LVU752
 2858              	.LBB1673:
  44:DSP/FX/../../Parameters/AudioParameter.h ****             return;
 2859              		.loc 9 44 9 is_stmt 0 view .LVU753
 2860 0140 94F89E31 		ldrb	r3, [r4, #414]	@ zero_extendqisi2
 2861 0144 002B     		cmp	r3, #0
 2862 0146 3FF46CAF 		beq	.L87
 2863              	.LVL148:
 2864              	.L125:
 2865              	.LBB1654:
 2866              	.LBI1654:
  42:DSP/FX/../../Parameters/AudioParameter.h ****     {
 2867              		.loc 9 42 17 is_stmt 1 view .LVU754
 2868              	.LBB1655:
  47:DSP/FX/../../Parameters/AudioParameter.h ****         if(newInput > (input + jitter) || newInput < (input - jitter))
 2869              		.loc 9 47 42 is_stmt 0 view .LVU755
 2870 014a D4F88401 		ldr	r0, [r4, #388]
 2871 014e 94F89C11 		ldrb	r1, [r4, #412]	@ zero_extendqisi2
 2872 0152 1830     		adds	r0, r0, #24
 2873 0154 FFF7FEFF 		bl	_ZNK5daisy9AdcHandle8GetFloatEh
 2874              	.LVL149:
  48:DSP/FX/../../Parameters/AudioParameter.h ****         {
 2875              		.loc 9 48 24 view .LVU756
 2876 0158 D4ED627A 		vldr.32	s15, [r4, #392]
  48:DSP/FX/../../Parameters/AudioParameter.h ****         {
ARM GAS  /var/folders/wz/z09yph4n0qj4t7mjxhl6ttn80000gn/T//ccPO7ASC.s 			page 88


 2877              		.loc 9 48 32 view .LVU757
 2878 015c 94ED637A 		vldr.32	s14, [r4, #396]
 2879              	.LVL150:
  48:DSP/FX/../../Parameters/AudioParameter.h ****         {
 2880              		.loc 9 48 30 view .LVU758
 2881 0160 77EE876A 		vadd.f32	s13, s15, s14
  48:DSP/FX/../../Parameters/AudioParameter.h ****         {
 2882              		.loc 9 48 9 view .LVU759
 2883 0164 B4EEE60A 		vcmpe.f32	s0, s13
 2884 0168 F1EE10FA 		vmrs	APSR_nzcv, FPSCR
 2885 016c 07DC     		bgt	.L108
  48:DSP/FX/../../Parameters/AudioParameter.h ****         {
 2886              		.loc 9 48 61 view .LVU760
 2887 016e 77EEC77A 		vsub.f32	s15, s15, s14
  48:DSP/FX/../../Parameters/AudioParameter.h ****         {
 2888              		.loc 9 48 40 view .LVU761
 2889 0172 B4EEE70A 		vcmpe.f32	s0, s15
 2890 0176 F1EE10FA 		vmrs	APSR_nzcv, FPSCR
 2891 017a 7FF552AF 		bpl	.L87
 2892              	.L108:
 2893              	.LBB1656:
 2894              	.LBB1657:
  58:DSP/FX/../../Parameters/AudioParameter.h ****         {
 2895              		.loc 9 58 16 view .LVU762
 2896 017e 94F89D31 		ldrb	r3, [r4, #413]	@ zero_extendqisi2
 2897              	.LBE1657:
 2898              	.LBE1656:
  50:DSP/FX/../../Parameters/AudioParameter.h ****             processCurve();
 2899              		.loc 9 50 19 view .LVU763
 2900 0182 84ED620A 		vstr.32	s0, [r4, #392]
 2901              	.LVL151:
 2902              	.LBB1662:
 2903              	.LBI1656:
  56:DSP/FX/../../Parameters/AudioParameter.h ****     {
 2904              		.loc 9 56 10 is_stmt 1 view .LVU764
 2905              	.LBB1660:
  58:DSP/FX/../../Parameters/AudioParameter.h ****         {
 2906              		.loc 9 58 9 is_stmt 0 view .LVU765
 2907 0186 33B3     		cbz	r3, .L111
  58:DSP/FX/../../Parameters/AudioParameter.h ****         {
 2908              		.loc 9 58 9 view .LVU766
 2909 0188 012B     		cmp	r3, #1
 2910 018a 1ED1     		bne	.L128
 2911              	.LVL152:
 2912              	.LBB1658:
 2913              	.LBI1658:
  56:DSP/FX/../../Parameters/AudioParameter.h ****     {
 2914              		.loc 9 56 10 is_stmt 1 view .LVU767
 2915              	.LBB1659:
 2916              		.loc 9 64 52 is_stmt 0 view .LVU768
 2917 018c D4ED657A 		vldr.32	s15, [r4, #404]
 2918              		.loc 9 64 34 view .LVU769
 2919 0190 20EE000A 		vmul.f32	s0, s0, s0
 2920              	.LVL153:
 2921              		.loc 9 64 50 view .LVU770
 2922 0194 94ED667A 		vldr.32	s14, [r4, #408]
 2923 0198 37EE677A 		vsub.f32	s14, s14, s15
ARM GAS  /var/folders/wz/z09yph4n0qj4t7mjxhl6ttn80000gn/T//ccPO7ASC.s 			page 89


 2924              		.loc 9 64 58 view .LVU771
 2925 019c E0EE077A 		vfma.f32	s15, s0, s14
 2926              		.loc 9 64 24 view .LVU772
 2927 01a0 C4ED647A 		vstr.32	s15, [r4, #400]
 2928              	.L113:
 2929              	.LVL154:
 2930              		.loc 9 64 24 view .LVU773
 2931              	.LBE1659:
 2932              	.LBE1658:
 2933              	.LBE1660:
 2934              	.LBE1662:
 2935              	.LBB1663:
 2936              	.LBB1664:
 620:/Library/DaisyToolchain/0.2.0/arm/arm-none-eabi/include/c++/10.3.1/bits/std_function.h **** 	__throw_bad_function_call();
 2937              		.loc 1 620 7 view .LVU774
 2938 01a4 D4F8A831 		ldr	r3, [r4, #424]
 2939 01a8 CDED037A 		vstr.32	s15, [sp, #12]
 2940              	.LVL155:
 620:/Library/DaisyToolchain/0.2.0/arm/arm-none-eabi/include/c++/10.3.1/bits/std_function.h **** 	__throw_bad_function_call();
 2941              		.loc 1 620 7 view .LVU775
 2942              	.LBE1664:
 2943              	.LBI1663:
 617:/Library/DaisyToolchain/0.2.0/arm/arm-none-eabi/include/c++/10.3.1/bits/std_function.h ****     operator()(_ArgTypes... __args) const
 2944              		.loc 1 617 5 is_stmt 1 view .LVU776
 2945              	.LBB1667:
 2946              	.LBB1665:
 2947              	.LBI1665:
 248:/Library/DaisyToolchain/0.2.0/arm/arm-none-eabi/include/c++/10.3.1/bits/std_function.h **** 
 2948              		.loc 1 248 10 view .LVU777
 2949              	.LBB1666:
 248:/Library/DaisyToolchain/0.2.0/arm/arm-none-eabi/include/c++/10.3.1/bits/std_function.h **** 
 2950              		.loc 1 248 29 view .LVU778
 248:/Library/DaisyToolchain/0.2.0/arm/arm-none-eabi/include/c++/10.3.1/bits/std_function.h **** 
 2951              		.loc 1 248 29 is_stmt 0 view .LVU779
 2952              	.LBE1666:
 2953              	.LBE1665:
 620:/Library/DaisyToolchain/0.2.0/arm/arm-none-eabi/include/c++/10.3.1/bits/std_function.h **** 	__throw_bad_function_call();
 2954              		.loc 1 620 7 view .LVU780
 2955 01ac 0BB3     		cbz	r3, .L105
 2956              		.loc 1 622 14 view .LVU781
 2957 01ae 1448     		ldr	r0, .L129+8
 2958 01b0 03A9     		add	r1, sp, #12
 2959 01b2 D4F8AC31 		ldr	r3, [r4, #428]
 2960 01b6 2844     		add	r0, r0, r5
 2961 01b8 9847     		blx	r3
 2962              	.LVL156:
 2963              		.loc 1 622 14 view .LVU782
 2964              	.LBE1667:
 2965              	.LBE1663:
 2966              	.LBE1655:
 2967              	.LBE1654:
 2968              	.LBE1673:
 2969              	.LBE1678:
 2970              		.loc 4 28 1 view .LVU783
 2971 01ba 05B0     		add	sp, sp, #20
 2972              		.cfi_remember_state
 2973              		.cfi_def_cfa_offset 12
ARM GAS  /var/folders/wz/z09yph4n0qj4t7mjxhl6ttn80000gn/T//ccPO7ASC.s 			page 90


 2974              		@ sp needed
 2975 01bc 30BD     		pop	{r4, r5, pc}
 2976              	.LVL157:
 2977              	.L126:
 2978              		.cfi_restore_state
 2979              	.LBB1679:
 2980              	.LBB1624:
 2981              	.LBB1619:
 2982              	.LBB1616:
  52:DSP/FX/../../Parameters/AudioParameter.h ****         }
 2983              		.loc 9 52 21 view .LVU784
 2984 01be D4F83831 		ldr	r3, [r4, #312]
 2985 01c2 6AE7     		b	.L95
 2986              	.LVL158:
 2987              	.L127:
  52:DSP/FX/../../Parameters/AudioParameter.h ****         }
 2988              		.loc 9 52 21 view .LVU785
 2989              	.LBE1616:
 2990              	.LBE1619:
 2991              	.LBE1624:
 2992              	.LBE1679:
 2993              	.LBB1680:
 2994              	.LBB1650:
 2995              	.LBB1647:
 2996              	.LBB1645:
 2997 01c4 D4F86431 		ldr	r3, [r4, #356]
 2998 01c8 AFE7     		b	.L104
 2999              	.LVL159:
 3000              	.L128:
  52:DSP/FX/../../Parameters/AudioParameter.h ****         }
 3001              		.loc 9 52 21 view .LVU786
 3002              	.LBE1645:
 3003              	.LBE1647:
 3004              	.LBE1650:
 3005              	.LBE1680:
 3006              	.LBB1681:
 3007              	.LBB1674:
 3008              	.LBB1671:
 3009              	.LBB1669:
 3010 01ca D4ED647A 		vldr.32	s15, [r4, #400]
 3011 01ce E9E7     		b	.L113
 3012              	.LVL160:
 3013              	.L93:
  52:DSP/FX/../../Parameters/AudioParameter.h ****         }
 3014              		.loc 9 52 21 view .LVU787
 3015              	.LBE1669:
 3016              	.LBE1671:
 3017              	.LBE1674:
 3018              	.LBE1681:
 3019              	.LBB1682:
 3020              	.LBB1625:
 3021              	.LBB1620:
 3022              	.LBB1617:
 3023              	.LBB1614:
 3024              	.LBB1606:
  61:DSP/FX/../../Parameters/AudioParameter.h ****             break;
 3025              		.loc 9 61 49 view .LVU788
ARM GAS  /var/folders/wz/z09yph4n0qj4t7mjxhl6ttn80000gn/T//ccPO7ASC.s 			page 91


 3026 01d0 D4F84031 		ldr	r3, [r4, #320]
 3027 01d4 4EE7     		b	.L121
 3028              	.LVL161:
 3029              	.L111:
  61:DSP/FX/../../Parameters/AudioParameter.h ****             break;
 3030              		.loc 9 61 49 view .LVU789
 3031              	.LBE1606:
 3032              	.LBE1614:
 3033              	.LBE1617:
 3034              	.LBE1620:
 3035              	.LBE1625:
 3036              	.LBE1682:
 3037              	.LBB1683:
 3038              	.LBB1675:
 3039              	.LBB1672:
 3040              	.LBB1670:
 3041              	.LBB1668:
 3042              	.LBB1661:
  61:DSP/FX/../../Parameters/AudioParameter.h ****             break;
 3043              		.loc 9 61 51 view .LVU790
 3044 01d6 D4ED657A 		vldr.32	s15, [r4, #404]
  61:DSP/FX/../../Parameters/AudioParameter.h ****             break;
 3045              		.loc 9 61 49 view .LVU791
 3046 01da 94ED667A 		vldr.32	s14, [r4, #408]
 3047 01de 37EE677A 		vsub.f32	s14, s14, s15
  61:DSP/FX/../../Parameters/AudioParameter.h ****             break;
 3048              		.loc 9 61 57 view .LVU792
 3049 01e2 E0EE077A 		vfma.f32	s15, s0, s14
  61:DSP/FX/../../Parameters/AudioParameter.h ****             break;
 3050              		.loc 9 61 24 view .LVU793
 3051 01e6 C4ED647A 		vstr.32	s15, [r4, #400]
  62:DSP/FX/../../Parameters/AudioParameter.h ****             case EXP:
 3052              		.loc 9 62 13 view .LVU794
 3053 01ea DBE7     		b	.L113
 3054              	.LVL162:
 3055              	.L102:
  62:DSP/FX/../../Parameters/AudioParameter.h ****             case EXP:
 3056              		.loc 9 62 13 view .LVU795
 3057              	.LBE1661:
 3058              	.LBE1668:
 3059              	.LBE1670:
 3060              	.LBE1672:
 3061              	.LBE1675:
 3062              	.LBE1683:
 3063              	.LBB1684:
 3064              	.LBB1651:
 3065              	.LBB1648:
 3066              	.LBB1646:
 3067              	.LBB1644:
 3068              	.LBB1637:
  61:DSP/FX/../../Parameters/AudioParameter.h ****             break;
 3069              		.loc 9 61 49 view .LVU796
 3070 01ec D4F86C31 		ldr	r3, [r4, #364]
 3071 01f0 88E7     		b	.L122
 3072              	.LVL163:
 3073              	.L105:
  61:DSP/FX/../../Parameters/AudioParameter.h ****             break;
ARM GAS  /var/folders/wz/z09yph4n0qj4t7mjxhl6ttn80000gn/T//ccPO7ASC.s 			page 92


 3074              		.loc 9 61 49 view .LVU797
 3075              	.LBE1637:
 3076              	.LBE1644:
 3077              	.LBE1646:
 3078              	.LBE1648:
 3079              	.LBE1651:
 3080              	.LBE1684:
 3081              	.LBB1685:
 3082              	.LBB1626:
 3083              	.LBB1621:
 3084              	.LBB1618:
 3085              	.LBB1615:
 3086              	.LBB1613:
 621:/Library/DaisyToolchain/0.2.0/arm/arm-none-eabi/include/c++/10.3.1/bits/std_function.h ****       return _M_invoker(_M_functor, std::forward<_ArgTypes>(__args)...);
 3087              		.loc 1 621 27 view .LVU798
 3088 01f2 FFF7FEFF 		bl	_ZSt25__throw_bad_function_callv
 3089              	.LVL164:
 3090              	.L130:
 3091 01f6 00BF     		.align	2
 3092              	.L129:
 3093 01f8 48010200 		.word	131400
 3094 01fc 74010200 		.word	131444
 3095 0200 A0010200 		.word	131488
 3096              	.LBE1613:
 3097              	.LBE1615:
 3098              	.LBE1618:
 3099              	.LBE1621:
 3100              	.LBE1626:
 3101              	.LBE1685:
 3102              		.cfi_endproc
 3103              	.LFE5658:
 3105              		.section	.text._ZN10PitchShift7processEPPfj,"ax",%progbits
 3106              		.align	1
 3107              		.p2align 2,,3
 3108              		.global	_ZN10PitchShift7processEPPfj
 3109              		.syntax unified
 3110              		.thumb
 3111              		.thumb_func
 3113              	_ZN10PitchShift7processEPPfj:
 3114              	.LVL165:
 3115              	.LFB5659:
  29:DSP/FX/PitchShift.cpp **** 
  30:DSP/FX/PitchShift.cpp **** void PitchShift::process(float* input[2], size_t size)
  31:DSP/FX/PitchShift.cpp **** {
 3116              		.loc 4 31 1 is_stmt 1 view -0
 3117              		.cfi_startproc
 3118              		@ args = 0, pretend = 0, frame = 8
 3119              		@ frame_needed = 0, uses_anonymous_args = 0
  32:DSP/FX/PitchShift.cpp ****     if(bypass.value)
 3120              		.loc 4 32 5 view .LVU800
  31:DSP/FX/PitchShift.cpp ****     if(bypass.value)
 3121              		.loc 4 31 1 is_stmt 0 view .LVU801
 3122 0000 2DE9F04F 		push	{r4, r5, r6, r7, r8, r9, r10, fp, lr}
 3123              		.cfi_def_cfa_offset 36
 3124              		.cfi_offset 4, -36
 3125              		.cfi_offset 5, -32
 3126              		.cfi_offset 6, -28
ARM GAS  /var/folders/wz/z09yph4n0qj4t7mjxhl6ttn80000gn/T//ccPO7ASC.s 			page 93


 3127              		.cfi_offset 7, -24
 3128              		.cfi_offset 8, -20
 3129              		.cfi_offset 9, -16
 3130              		.cfi_offset 10, -12
 3131              		.cfi_offset 11, -8
 3132              		.cfi_offset 14, -4
 3133              		.loc 4 32 15 view .LVU802
 3134 0004 00F50034 		add	r4, r0, #131072
  31:DSP/FX/PitchShift.cpp ****     if(bypass.value)
 3135              		.loc 4 31 1 view .LVU803
 3136 0008 2DED088B 		vpush.64	{d8, d9, d10, d11}
 3137              		.cfi_def_cfa_offset 68
 3138              		.cfi_offset 80, -68
 3139              		.cfi_offset 81, -64
 3140              		.cfi_offset 82, -60
 3141              		.cfi_offset 83, -56
 3142              		.cfi_offset 84, -52
 3143              		.cfi_offset 85, -48
 3144              		.cfi_offset 86, -44
 3145              		.cfi_offset 87, -40
 3146              		.loc 4 32 5 view .LVU804
 3147 000c 94F8F870 		ldrb	r7, [r4, #248]	@ zero_extendqisi2
  31:DSP/FX/PitchShift.cpp ****     if(bypass.value)
 3148              		.loc 4 31 1 view .LVU805
 3149 0010 83B0     		sub	sp, sp, #12
 3150              		.cfi_def_cfa_offset 80
  31:DSP/FX/PitchShift.cpp ****     if(bypass.value)
 3151              		.loc 4 31 1 view .LVU806
 3152 0012 CDE90012 		strd	r1, r2, [sp]
 3153              		.loc 4 32 5 view .LVU807
 3154 0016 002F     		cmp	r7, #0
 3155 0018 40F0C881 		bne	.L131
 3156              	.LVL166:
 3157              	.LBB1747:
  33:DSP/FX/PitchShift.cpp ****         return;
  34:DSP/FX/PitchShift.cpp **** 
  35:DSP/FX/PitchShift.cpp ****     for(size_t i = 0 ; i < size ; i++)
 3158              		.loc 4 35 26 is_stmt 1 view .LVU808
 3159 001c 002A     		cmp	r2, #0
 3160 001e 00F0C581 		beq	.L131
 3161              	.LBB1748:
 3162              	.LBB1749:
  87:../../../DaisySP//Source/Effects/pitchshifter.h ****         fade2 = phs_[1].Process();
 3163              		.loc 3 87 32 is_stmt 0 view .LVU809
 3164 0022 DFF83894 		ldr	r9, .L156+24
 3165 0026 0546     		mov	r5, r0
  88:../../../DaisySP//Source/Effects/pitchshifter.h ****         if(prev_phs_a_ > fade1)
 3166              		.loc 3 88 32 view .LVU810
 3167 0028 DFF83484 		ldr	r8, .L156+28
 3168 002c 8346     		mov	fp, r0
  87:../../../DaisySP//Source/Effects/pitchshifter.h ****         fade2 = phs_[1].Process();
 3169              		.loc 3 87 32 view .LVU811
 3170 002e 8144     		add	r9, r9, r0
 3171 0030 00F5803A 		add	r10, r0, #65536
  88:../../../DaisySP//Source/Effects/pitchshifter.h ****         if(prev_phs_a_ > fade1)
 3172              		.loc 3 88 32 view .LVU812
 3173 0034 8044     		add	r8, r8, r0
ARM GAS  /var/folders/wz/z09yph4n0qj4t7mjxhl6ttn80000gn/T//ccPO7ASC.s 			page 94


 3174              	.LBE1749:
 3175              	.LBE1748:
  36:DSP/FX/PitchShift.cpp ****     {
  37:DSP/FX/PitchShift.cpp ****         buffer[L][i] = input[L][i];
  38:DSP/FX/PitchShift.cpp ****         buffer[R][i] = input[R][i];
 3176              		.loc 4 38 31 view .LVU813
 3177 0036 D1E90013 		ldrd	r1, r3, [r1]
 3178              	.LVL167:
 3179              	.L144:
  37:DSP/FX/PitchShift.cpp ****         buffer[R][i] = input[R][i];
 3180              		.loc 4 37 9 is_stmt 1 discriminator 2 view .LVU814
  37:DSP/FX/PitchShift.cpp ****         buffer[R][i] = input[R][i];
 3181              		.loc 4 37 34 is_stmt 0 discriminator 2 view .LVU815
 3182 003a 01EB8701 		add	r1, r1, r7, lsl #2
 3183              	.LBB1880:
 3184              	.LBB1876:
  87:../../../DaisySP//Source/Effects/pitchshifter.h ****         fade2 = phs_[1].Process();
 3185              		.loc 3 87 32 discriminator 2 view .LVU816
 3186 003e 4846     		mov	r0, r9
 3187              	.LBE1876:
 3188              	.LBE1880:
 3189              		.loc 4 38 34 discriminator 2 view .LVU817
 3190 0040 03EB8703 		add	r3, r3, r7, lsl #2
  37:DSP/FX/PitchShift.cpp ****         buffer[R][i] = input[R][i];
 3191              		.loc 4 37 34 discriminator 2 view .LVU818
 3192 0044 0968     		ldr	r1, [r1]	@ float
 3193 0046 BE00     		lsls	r6, r7, #2
  37:DSP/FX/PitchShift.cpp ****         buffer[R][i] = input[R][i];
 3194              		.loc 4 37 22 discriminator 2 view .LVU819
 3195 0048 4BF8041B 		str	r1, [fp], #4	@ float
 3196              		.loc 4 38 9 is_stmt 1 discriminator 2 view .LVU820
 3197              		.loc 4 38 34 is_stmt 0 discriminator 2 view .LVU821
 3198 004c 1B68     		ldr	r3, [r3]	@ float
 3199              		.loc 4 38 22 discriminator 2 view .LVU822
 3200 004e CBF80C30 		str	r3, [fp, #12]	@ float
  39:DSP/FX/PitchShift.cpp **** 
  40:DSP/FX/PitchShift.cpp ****         buffer[L][i] = shifter.Process(buffer[L][i]);
 3201              		.loc 4 40 9 is_stmt 1 discriminator 2 view .LVU823
 3202              	.LVL168:
 3203              	.LBB1881:
 3204              	.LBI1748:
  83:../../../DaisySP//Source/Effects/pitchshifter.h ****     {
 3205              		.loc 3 83 11 discriminator 2 view .LVU824
 3206              	.LBB1877:
  85:../../../DaisySP//Source/Effects/pitchshifter.h ****         // First Process delay mod/crossfade
 3207              		.loc 3 85 9 discriminator 2 view .LVU825
  87:../../../DaisySP//Source/Effects/pitchshifter.h ****         fade2 = phs_[1].Process();
 3208              		.loc 3 87 9 discriminator 2 view .LVU826
  87:../../../DaisySP//Source/Effects/pitchshifter.h ****         fade2 = phs_[1].Process();
 3209              		.loc 3 87 32 is_stmt 0 discriminator 2 view .LVU827
 3210 0052 FFF7FEFF 		bl	_ZN7daisysp6Phasor7ProcessEv
 3211              	.LVL169:
  88:../../../DaisySP//Source/Effects/pitchshifter.h ****         if(prev_phs_a_ > fade1)
 3212              		.loc 3 88 32 discriminator 2 view .LVU828
 3213 0056 4046     		mov	r0, r8
  87:../../../DaisySP//Source/Effects/pitchshifter.h ****         fade2 = phs_[1].Process();
 3214              		.loc 3 87 32 discriminator 2 view .LVU829
ARM GAS  /var/folders/wz/z09yph4n0qj4t7mjxhl6ttn80000gn/T//ccPO7ASC.s 			page 95


 3215 0058 F0EE409A 		vmov.f32	s19, s0
 3216              	.LVL170:
  88:../../../DaisySP//Source/Effects/pitchshifter.h ****         if(prev_phs_a_ > fade1)
 3217              		.loc 3 88 9 is_stmt 1 discriminator 2 view .LVU830
  88:../../../DaisySP//Source/Effects/pitchshifter.h ****         if(prev_phs_a_ > fade1)
 3218              		.loc 3 88 32 is_stmt 0 discriminator 2 view .LVU831
 3219 005c FFF7FEFF 		bl	_ZN7daisysp6Phasor7ProcessEv
 3220              	.LVL171:
  89:../../../DaisySP//Source/Effects/pitchshifter.h ****         {
 3221              		.loc 3 89 9 discriminator 2 view .LVU832
 3222 0060 D4ED247A 		vldr.32	s15, [r4, #144]
  88:../../../DaisySP//Source/Effects/pitchshifter.h ****         if(prev_phs_a_ > fade1)
 3223              		.loc 3 88 32 discriminator 2 view .LVU833
 3224 0064 B0EE40AA 		vmov.f32	s20, s0
 3225              	.LVL172:
  89:../../../DaisySP//Source/Effects/pitchshifter.h ****         {
 3226              		.loc 3 89 9 is_stmt 1 discriminator 2 view .LVU834
 3227 0068 F4EEE79A 		vcmpe.f32	s19, s15
 3228 006c F1EE10FA 		vmrs	APSR_nzcv, FPSCR
 3229 0070 00F13F82 		bmi	.L134
  96:../../../DaisySP//Source/Effects/pitchshifter.h ****         {
 3230              		.loc 3 96 9 is_stmt 0 view .LVU835
 3231 0074 D4ED257A 		vldr.32	s15, [r4, #148]
 103:../../../DaisySP//Source/Effects/pitchshifter.h ****         slewed_mod_[1] += mod_coeff_[1] * (mod_b_amt_ - slewed_mod_[1]);
 3232              		.loc 3 103 39 view .LVU836
 3233 0078 94ED285A 		vldr.32	s10, [r4, #160]
  96:../../../DaisySP//Source/Effects/pitchshifter.h ****         {
 3234              		.loc 3 96 9 view .LVU837
 3235 007c B4EEE7AA 		vcmpe.f32	s20, s15
 103:../../../DaisySP//Source/Effects/pitchshifter.h ****         slewed_mod_[1] += mod_coeff_[1] * (mod_b_amt_ - slewed_mod_[1]);
 3236              		.loc 3 103 44 view .LVU838
 3237 0080 94ED227A 		vldr.32	s14, [r4, #136]
  92:../../../DaisySP//Source/Effects/pitchshifter.h ****             mod_coeff_[0]
 3238              		.loc 3 92 29 view .LVU839
 3239 0084 226C     		ldr	r2, [r4, #64]
  96:../../../DaisySP//Source/Effects/pitchshifter.h ****         {
 3240              		.loc 3 96 9 is_stmt 1 view .LVU840
 3241 0086 F1EE10FA 		vmrs	APSR_nzcv, FPSCR
 3242 008a 00F17E82 		bmi	.L136
 3243              	.L155:
 104:../../../DaisySP//Source/Effects/pitchshifter.h ****         prev_phs_a_ = fade1;
 3244              		.loc 3 104 39 is_stmt 0 view .LVU841
 3245 008e D4ED296A 		vldr.32	s13, [r4, #164]
 104:../../../DaisySP//Source/Effects/pitchshifter.h ****         prev_phs_a_ = fade1;
 3246              		.loc 3 104 44 view .LVU842
 3247 0092 D4ED237A 		vldr.32	s15, [r4, #140]
 3248              	.L137:
 103:../../../DaisySP//Source/Effects/pitchshifter.h ****         slewed_mod_[1] += mod_coeff_[1] * (mod_b_amt_ - slewed_mod_[1]);
 3249              		.loc 3 103 9 is_stmt 1 view .LVU843
 103:../../../DaisySP//Source/Effects/pitchshifter.h ****         slewed_mod_[1] += mod_coeff_[1] * (mod_b_amt_ - slewed_mod_[1]);
 3250              		.loc 3 103 24 is_stmt 0 view .LVU844
 3251 0096 D4ED268A 		vldr.32	s17, [r4, #152]
 104:../../../DaisySP//Source/Effects/pitchshifter.h ****         prev_phs_a_ = fade1;
 3252              		.loc 3 104 24 view .LVU845
 3253 009a 94ED278A 		vldr.32	s16, [r4, #156]
 103:../../../DaisySP//Source/Effects/pitchshifter.h ****         slewed_mod_[1] += mod_coeff_[1] * (mod_b_amt_ - slewed_mod_[1]);
 3254              		.loc 3 103 55 view .LVU846
ARM GAS  /var/folders/wz/z09yph4n0qj4t7mjxhl6ttn80000gn/T//ccPO7ASC.s 			page 96


 3255 009e 37EE687A 		vsub.f32	s14, s14, s17
 107:../../../DaisySP//Source/Effects/pitchshifter.h ****         {
 3256              		.loc 3 107 9 view .LVU847
 3257 00a2 94F84C30 		ldrb	r3, [r4, #76]	@ zero_extendqisi2
 104:../../../DaisySP//Source/Effects/pitchshifter.h ****         prev_phs_a_ = fade1;
 3258              		.loc 3 104 55 view .LVU848
 3259 00a6 77EEC87A 		vsub.f32	s15, s15, s16
 105:../../../DaisySP//Source/Effects/pitchshifter.h ****         prev_phs_b_ = fade2;
 3260              		.loc 3 105 21 view .LVU849
 3261 00aa C4ED249A 		vstr.32	s19, [r4, #144]
 106:../../../DaisySP//Source/Effects/pitchshifter.h ****         if(shift_up_)
 3262              		.loc 3 106 21 view .LVU850
 3263 00ae 84ED25AA 		vstr.32	s20, [r4, #148]
 103:../../../DaisySP//Source/Effects/pitchshifter.h ****         slewed_mod_[1] += mod_coeff_[1] * (mod_b_amt_ - slewed_mod_[1]);
 3264              		.loc 3 103 24 view .LVU851
 3265 00b2 E7EE058A 		vfma.f32	s17, s14, s10
 104:../../../DaisySP//Source/Effects/pitchshifter.h ****         prev_phs_a_ = fade1;
 3266              		.loc 3 104 24 view .LVU852
 3267 00b6 A7EEA68A 		vfma.f32	s16, s15, s13
 103:../../../DaisySP//Source/Effects/pitchshifter.h ****         slewed_mod_[1] += mod_coeff_[1] * (mod_b_amt_ - slewed_mod_[1]);
 3268              		.loc 3 103 24 view .LVU853
 3269 00ba C4ED268A 		vstr.32	s17, [r4, #152]
 104:../../../DaisySP//Source/Effects/pitchshifter.h ****         prev_phs_a_ = fade1;
 3270              		.loc 3 104 9 is_stmt 1 view .LVU854
 104:../../../DaisySP//Source/Effects/pitchshifter.h ****         prev_phs_a_ = fade1;
 3271              		.loc 3 104 24 is_stmt 0 view .LVU855
 3272 00be 84ED278A 		vstr.32	s16, [r4, #156]
 105:../../../DaisySP//Source/Effects/pitchshifter.h ****         prev_phs_b_ = fade2;
 3273              		.loc 3 105 9 is_stmt 1 view .LVU856
 106:../../../DaisySP//Source/Effects/pitchshifter.h ****         if(shift_up_)
 3274              		.loc 3 106 9 view .LVU857
 107:../../../DaisySP//Source/Effects/pitchshifter.h ****         {
 3275              		.loc 3 107 9 view .LVU858
 3276 00c2 2BB1     		cbz	r3, .L138
 109:../../../DaisySP//Source/Effects/pitchshifter.h ****             fade2 = 1.0f - fade2;
 3277              		.loc 3 109 13 view .LVU859
 109:../../../DaisySP//Source/Effects/pitchshifter.h ****             fade2 = 1.0f - fade2;
 3278              		.loc 3 109 19 is_stmt 0 view .LVU860
 3279 00c4 F7EE007A 		vmov.f32	s15, #1.0e+0
 3280 00c8 77EEE99A 		vsub.f32	s19, s15, s19
 3281              	.LVL173:
 110:../../../DaisySP//Source/Effects/pitchshifter.h ****         }
 3282              		.loc 3 110 13 is_stmt 1 view .LVU861
 110:../../../DaisySP//Source/Effects/pitchshifter.h ****         }
 3283              		.loc 3 110 19 is_stmt 0 view .LVU862
 3284 00cc 37EECAAA 		vsub.f32	s20, s15, s20
 3285              	.LVL174:
 3286              	.L138:
 112:../../../DaisySP//Source/Effects/pitchshifter.h ****         mod_[1] = fade2 * (del_size_ - 1);
 3287              		.loc 3 112 9 is_stmt 1 view .LVU863
 112:../../../DaisySP//Source/Effects/pitchshifter.h ****         mod_[1] = fade2 * (del_size_ - 1);
 3288              		.loc 3 112 38 is_stmt 0 view .LVU864
 3289 00d0 531E     		subs	r3, r2, #1
 118:../../../DaisySP//Source/Effects/pitchshifter.h ****         gain_[1] = sinf(fade2 * PI_F);
 3290              		.loc 3 118 24 view .LVU865
 3291 00d2 9FEDDCBA 		vldr.32	s22, .L156
 112:../../../DaisySP//Source/Effects/pitchshifter.h ****         mod_[1] = fade2 * (del_size_ - 1);
ARM GAS  /var/folders/wz/z09yph4n0qj4t7mjxhl6ttn80000gn/T//ccPO7ASC.s 			page 97


 3292              		.loc 3 112 38 view .LVU866
 3293 00d6 09EE103A 		vmov	s18, r3	@ int
 118:../../../DaisySP//Source/Effects/pitchshifter.h ****         gain_[1] = sinf(fade2 * PI_F);
 3294              		.loc 3 118 24 view .LVU867
 3295 00da 29EE8B0A 		vmul.f32	s0, s19, s22
 112:../../../DaisySP//Source/Effects/pitchshifter.h ****         mod_[1] = fade2 * (del_size_ - 1);
 3296              		.loc 3 112 25 view .LVU868
 3297 00de B8EE499A 		vcvt.f32.u32	s18, s18
 3298 00e2 69EE299A 		vmul.f32	s19, s18, s19
 3299              	.LVL175:
 113:../../../DaisySP//Source/Effects/pitchshifter.h **** #ifdef USE_ARM_DSP
 3300              		.loc 3 113 25 view .LVU869
 3301 00e6 29EE0A9A 		vmul.f32	s18, s18, s20
 112:../../../DaisySP//Source/Effects/pitchshifter.h ****         mod_[1] = fade2 * (del_size_ - 1);
 3302              		.loc 3 112 17 view .LVU870
 3303 00ea C4ED1E9A 		vstr.32	s19, [r4, #120]
 113:../../../DaisySP//Source/Effects/pitchshifter.h **** #ifdef USE_ARM_DSP
 3304              		.loc 3 113 9 is_stmt 1 view .LVU871
 129:../../../DaisySP//Source/Effects/pitchshifter.h ****         d_[1].SetDelay(mod_[1] + slewed_mod_[1]);
 3305              		.loc 3 129 23 is_stmt 0 view .LVU872
 3306 00ee 78EEA98A 		vadd.f32	s17, s17, s19
 113:../../../DaisySP//Source/Effects/pitchshifter.h **** #ifdef USE_ARM_DSP
 3307              		.loc 3 113 17 view .LVU873
 3308 00f2 84ED1F9A 		vstr.32	s18, [r4, #124]
 118:../../../DaisySP//Source/Effects/pitchshifter.h ****         gain_[1] = sinf(fade2 * PI_F);
 3309              		.loc 3 118 9 is_stmt 1 view .LVU874
 130:../../../DaisySP//Source/Effects/pitchshifter.h ****         val = 0.0f;
 3310              		.loc 3 130 23 is_stmt 0 view .LVU875
 3311 00f6 38EE098A 		vadd.f32	s16, s16, s18
 118:../../../DaisySP//Source/Effects/pitchshifter.h ****         gain_[1] = sinf(fade2 * PI_F);
 3312              		.loc 3 118 24 view .LVU876
 3313 00fa FFF7FEFF 		bl	sinf
 3314              	.LVL176:
 3315 00fe F0EE40AA 		vmov.f32	s21, s0
 119:../../../DaisySP//Source/Effects/pitchshifter.h **** #endif
 3316              		.loc 3 119 24 view .LVU877
 3317 0102 2AEE0B0A 		vmul.f32	s0, s20, s22
 118:../../../DaisySP//Source/Effects/pitchshifter.h ****         gain_[1] = sinf(fade2 * PI_F);
 3318              		.loc 3 118 18 view .LVU878
 3319 0106 C4ED1CAA 		vstr.32	s21, [r4, #112]
 119:../../../DaisySP//Source/Effects/pitchshifter.h **** #endif
 3320              		.loc 3 119 9 is_stmt 1 view .LVU879
 119:../../../DaisySP//Source/Effects/pitchshifter.h **** #endif
 3321              		.loc 3 119 24 is_stmt 0 view .LVU880
 3322 010a FFF7FEFF 		bl	sinf
 3323              	.LVL177:
 3324              	.LBB1750:
 3325              	.LBB1751:
  38:../../../DaisySP//Source/Utility/delayline.h ****     }
  39:../../../DaisySP//Source/Utility/delayline.h **** 
  40:../../../DaisySP//Source/Utility/delayline.h ****     /** sets the delay time in samples
  41:../../../DaisySP//Source/Utility/delayline.h ****         If a float is passed in, a fractional component will be calculated for interpolating the de
  42:../../../DaisySP//Source/Utility/delayline.h ****     */
  43:../../../DaisySP//Source/Utility/delayline.h ****     inline void SetDelay(size_t delay)
  44:../../../DaisySP//Source/Utility/delayline.h ****     {
  45:../../../DaisySP//Source/Utility/delayline.h ****         frac_  = 0.0f;
  46:../../../DaisySP//Source/Utility/delayline.h ****         delay_ = delay < max_size ? delay : max_size - 1;
ARM GAS  /var/folders/wz/z09yph4n0qj4t7mjxhl6ttn80000gn/T//ccPO7ASC.s 			page 98


  47:../../../DaisySP//Source/Utility/delayline.h ****     }
  48:../../../DaisySP//Source/Utility/delayline.h **** 
  49:../../../DaisySP//Source/Utility/delayline.h ****     /** sets the delay time in samples
  50:../../../DaisySP//Source/Utility/delayline.h ****         If a float is passed in, a fractional component will be calculated for interpolating the de
  51:../../../DaisySP//Source/Utility/delayline.h ****     */
  52:../../../DaisySP//Source/Utility/delayline.h ****     inline void SetDelay(float delay)
  53:../../../DaisySP//Source/Utility/delayline.h ****     {
  54:../../../DaisySP//Source/Utility/delayline.h ****         int32_t int_delay = static_cast<int32_t>(delay);
 3326              		.loc 6 54 17 view .LVU881
 3327 010e FDEEC86A 		vcvt.s32.f32	s13, s16
 3328              	.LBE1751:
 3329              	.LBE1750:
 3330              	.LBB1759:
 3331              	.LBB1760:
 3332 0112 BDEEE86A 		vcvt.s32.f32	s12, s17
 3333              	.LBE1760:
 3334              	.LBE1759:
 3335              	.LBB1768:
 3336              	.LBB1769:
  55:../../../DaisySP//Source/Utility/delayline.h ****         frac_             = delay - static_cast<float>(int_delay);
  56:../../../DaisySP//Source/Utility/delayline.h ****         delay_ = static_cast<size_t>(int_delay) < max_size ? int_delay
  57:../../../DaisySP//Source/Utility/delayline.h ****                                                            : max_size - 1;
  58:../../../DaisySP//Source/Utility/delayline.h ****     }
  59:../../../DaisySP//Source/Utility/delayline.h **** 
  60:../../../DaisySP//Source/Utility/delayline.h ****     /** writes the sample of type T to the delay line, and advances the write ptr
  61:../../../DaisySP//Source/Utility/delayline.h ****     */
  62:../../../DaisySP//Source/Utility/delayline.h ****     inline void Write(const T sample)
  63:../../../DaisySP//Source/Utility/delayline.h ****     {
  64:../../../DaisySP//Source/Utility/delayline.h ****         line_[write_ptr_] = sample;
 3337              		.loc 6 64 15 view .LVU882
 3338 0116 696A     		ldr	r1, [r5, #36]
  65:../../../DaisySP//Source/Utility/delayline.h ****         write_ptr_        = (write_ptr_ - 1 + max_size) % max_size;
 3339              		.loc 6 65 45 view .LVU883
 3340 0118 43F6FF73 		movw	r3, #16383
 3341              	.LBE1769:
 3342              	.LBE1768:
 119:../../../DaisySP//Source/Effects/pitchshifter.h **** #endif
 3343              		.loc 3 119 18 view .LVU884
 3344 011c 84ED1D0A 		vstr.32	s0, [r4, #116]
 123:../../../DaisySP//Source/Effects/pitchshifter.h ****         d_[1].Write(in);
 3345              		.loc 3 123 9 is_stmt 1 view .LVU885
 3346              	.LBB1774:
 3347              	.LBB1752:
  55:../../../DaisySP//Source/Utility/delayline.h ****         delay_ = static_cast<size_t>(int_delay) < max_size ? int_delay
 3348              		.loc 6 55 37 is_stmt 0 view .LVU886
 3349 0120 B8EEE67A 		vcvt.f32.s32	s14, s13
 3350              	.LBE1752:
 3351              	.LBE1774:
 3352              	.LBB1775:
 3353              	.LBB1770:
  64:../../../DaisySP//Source/Utility/delayline.h ****         write_ptr_        = (write_ptr_ - 1 + max_size) % max_size;
 3354              		.loc 6 64 27 view .LVU887
 3355 0124 05EB8100 		add	r0, r5, r1, lsl #2
 3356              	.LBE1770:
 3357              	.LBE1775:
 3358              	.LBB1776:
 3359              	.LBB1761:
ARM GAS  /var/folders/wz/z09yph4n0qj4t7mjxhl6ttn80000gn/T//ccPO7ASC.s 			page 99


  56:../../../DaisySP//Source/Utility/delayline.h ****                                                            : max_size - 1;
 3360              		.loc 6 56 60 view .LVU888
 3361 0128 16EE102A 		vmov	r2, s12	@ int
 3362              	.LBE1761:
 3363              	.LBE1776:
 3364              	.LBB1777:
 3365              	.LBB1771:
 3366              		.loc 6 65 45 view .LVU889
 3367 012c 1944     		add	r1, r1, r3
 3368              	.LBE1771:
 3369              	.LBE1777:
 3370              	.LBB1778:
 3371              	.LBB1762:
  55:../../../DaisySP//Source/Utility/delayline.h ****         delay_ = static_cast<size_t>(int_delay) < max_size ? int_delay
 3372              		.loc 6 55 37 view .LVU890
 3373 012e F8EEC65A 		vcvt.f32.s32	s11, s12
 3374              	.LBE1762:
 3375              	.LBE1778:
 132:../../../DaisySP//Source/Effects/pitchshifter.h ****         val += (d_[1].Read() * gain_[1]);
 3376              		.loc 3 132 13 view .LVU891
 3377 0132 DFEDC57A 		vldr.32	s15, .L156+4
 3378              	.LBB1779:
 3379              	.LBB1753:
  55:../../../DaisySP//Source/Utility/delayline.h ****         delay_ = static_cast<size_t>(int_delay) < max_size ? int_delay
 3380              		.loc 6 55 35 view .LVU892
 3381 0136 38EE478A 		vsub.f32	s16, s16, s14
 3382              	.LBE1753:
 3383              	.LBE1779:
 123:../../../DaisySP//Source/Effects/pitchshifter.h ****         d_[1].Write(in);
 3384              		.loc 3 123 20 view .LVU893
 3385 013a 1BED017A 		vldr.32	s14, [fp, #-4]
 3386              	.LBB1780:
 3387              	.LBB1763:
  56:../../../DaisySP//Source/Utility/delayline.h ****                                                            : max_size - 1;
 3388              		.loc 6 56 60 view .LVU894
 3389 013e 9A42     		cmp	r2, r3
 3390              	.LBE1763:
 3391              	.LBE1780:
 3392              	.LBB1781:
 3393              	.LBB1772:
 3394              		.loc 6 65 57 view .LVU895
 3395 0140 C1F30D01 		ubfx	r1, r1, #0, #14
  64:../../../DaisySP//Source/Utility/delayline.h ****         write_ptr_        = (write_ptr_ - 1 + max_size) % max_size;
 3396              		.loc 6 64 27 view .LVU896
 3397 0144 80ED0B7A 		vstr.32	s14, [r0, #44]
 3398              	.LBE1772:
 3399              	.LBE1781:
 3400              	.LBB1782:
 3401              	.LBB1754:
  56:../../../DaisySP//Source/Utility/delayline.h ****                                                            : max_size - 1;
 3402              		.loc 6 56 60 view .LVU897
 3403 0148 16EE900A 		vmov	r0, s13	@ int
 3404              	.LBE1754:
 3405              	.LBE1782:
 3406              	.LBB1783:
 3407              	.LBB1773:
 3408              		.loc 6 65 27 view .LVU898
ARM GAS  /var/folders/wz/z09yph4n0qj4t7mjxhl6ttn80000gn/T//ccPO7ASC.s 			page 100


 3409 014c 6962     		str	r1, [r5, #36]
 3410              	.LBE1773:
 3411              	.LBE1783:
 3412              	.LBB1784:
 3413              	.LBB1764:
  56:../../../DaisySP//Source/Utility/delayline.h ****                                                            : max_size - 1;
 3414              		.loc 6 56 60 view .LVU899
 3415 014e 28BF     		it	cs
 3416 0150 1A46     		movcs	r2, r3
 3417              	.LBE1764:
 3418              	.LBE1784:
 3419              	.LBB1785:
 3420              	.LBB1786:
  64:../../../DaisySP//Source/Utility/delayline.h ****         write_ptr_        = (write_ptr_ - 1 + max_size) % max_size;
 3421              		.loc 6 64 15 view .LVU900
 3422 0152 DAF830E0 		ldr	lr, [r10, #48]
 3423              	.LBE1786:
 3424              	.LBE1785:
 3425              	.LBB1788:
 3426              	.LBB1755:
  56:../../../DaisySP//Source/Utility/delayline.h ****                                                            : max_size - 1;
 3427              		.loc 6 56 60 view .LVU901
 3428 0156 9842     		cmp	r0, r3
 3429              	.LBE1755:
 3430              	.LBE1788:
 3431              	.LBB1789:
 3432              	.LBB1765:
  55:../../../DaisySP//Source/Utility/delayline.h ****         delay_ = static_cast<size_t>(int_delay) < max_size ? int_delay
 3433              		.loc 6 55 35 view .LVU902
 3434 0158 78EEE58A 		vsub.f32	s17, s17, s11
 3435              	.LVL178:
  55:../../../DaisySP//Source/Utility/delayline.h ****         delay_ = static_cast<size_t>(int_delay) < max_size ? int_delay
 3436              		.loc 6 55 35 view .LVU903
 3437              	.LBE1765:
 3438              	.LBE1789:
 3439              	.LBB1790:
 3440              	.LBI1768:
  62:../../../DaisySP//Source/Utility/delayline.h ****     {
 3441              		.loc 6 62 17 is_stmt 1 view .LVU904
  62:../../../DaisySP//Source/Utility/delayline.h ****     {
 3442              		.loc 6 62 17 is_stmt 0 view .LVU905
 3443              	.LBE1790:
 124:../../../DaisySP//Source/Effects/pitchshifter.h ****         // Modulate Delay Lines
 3444              		.loc 3 124 9 is_stmt 1 view .LVU906
 3445              	.LBB1791:
 3446              	.LBI1785:
  62:../../../DaisySP//Source/Utility/delayline.h ****     {
 3447              		.loc 6 62 17 view .LVU907
 3448              	.LBE1791:
 3449              	.LBB1792:
 3450              	.LBB1793:
  66:../../../DaisySP//Source/Utility/delayline.h ****     }
  67:../../../DaisySP//Source/Utility/delayline.h **** 
  68:../../../DaisySP//Source/Utility/delayline.h ****     /** returns the next sample of type T in the delay line, interpolated if necessary.
  69:../../../DaisySP//Source/Utility/delayline.h ****     */
  70:../../../DaisySP//Source/Utility/delayline.h ****     inline const T Read() const
  71:../../../DaisySP//Source/Utility/delayline.h ****     {
ARM GAS  /var/folders/wz/z09yph4n0qj4t7mjxhl6ttn80000gn/T//ccPO7ASC.s 			page 101


  72:../../../DaisySP//Source/Utility/delayline.h ****         T a = line_[(write_ptr_ + delay_) % max_size];
 3451              		.loc 6 72 33 is_stmt 0 view .LVU908
 3452 015c 1144     		add	r1, r1, r2
 3453              	.LBE1793:
 3454              	.LBE1792:
 3455              	.LBB1799:
 3456              	.LBB1756:
  56:../../../DaisySP//Source/Utility/delayline.h ****                                                            : max_size - 1;
 3457              		.loc 6 56 60 view .LVU909
 3458 015e 28BF     		it	cs
 3459 0160 1846     		movcs	r0, r3
 3460              	.LBE1756:
 3461              	.LBE1799:
 3462              	.LBB1800:
 3463              	.LBB1787:
  65:../../../DaisySP//Source/Utility/delayline.h ****     }
 3464              		.loc 6 65 45 view .LVU910
 3465 0162 7344     		add	r3, r3, lr
  64:../../../DaisySP//Source/Utility/delayline.h ****         write_ptr_        = (write_ptr_ - 1 + max_size) % max_size;
 3466              		.loc 6 64 27 view .LVU911
 3467 0164 0AEB8E0E 		add	lr, r10, lr, lsl #2
  65:../../../DaisySP//Source/Utility/delayline.h ****     }
 3468              		.loc 6 65 57 view .LVU912
 3469 0168 C3F30D03 		ubfx	r3, r3, #0, #14
  64:../../../DaisySP//Source/Utility/delayline.h ****         write_ptr_        = (write_ptr_ - 1 + max_size) % max_size;
 3470              		.loc 6 64 27 view .LVU913
 3471 016c 8EED0E7A 		vstr.32	s14, [lr, #56]
  65:../../../DaisySP//Source/Utility/delayline.h ****     }
 3472              		.loc 6 65 27 view .LVU914
 3473 0170 CAF83030 		str	r3, [r10, #48]
 3474              	.LVL179:
  65:../../../DaisySP//Source/Utility/delayline.h ****     }
 3475              		.loc 6 65 27 view .LVU915
 3476              	.LBE1787:
 3477              	.LBE1800:
 127:../../../DaisySP//Source/Effects/pitchshifter.h ****         d_[1].SetDelay(mod_[1] + mod_b_amt_);
 3478              		.loc 3 127 9 is_stmt 1 view .LVU916
 128:../../../DaisySP//Source/Effects/pitchshifter.h ****         d_[0].SetDelay(mod_[0] + slewed_mod_[0]);
 3479              		.loc 3 128 9 view .LVU917
 129:../../../DaisySP//Source/Effects/pitchshifter.h ****         d_[1].SetDelay(mod_[1] + slewed_mod_[1]);
 3480              		.loc 3 129 9 view .LVU918
 3481              	.LBB1801:
 3482              	.LBI1759:
  52:../../../DaisySP//Source/Utility/delayline.h ****     {
 3483              		.loc 6 52 17 view .LVU919
  52:../../../DaisySP//Source/Utility/delayline.h ****     {
 3484              		.loc 6 52 17 is_stmt 0 view .LVU920
 3485              	.LBE1801:
 3486              	.LBB1802:
 3487              	.LBB1803:
 3488              		.loc 6 72 33 view .LVU921
 3489 0174 0344     		add	r3, r3, r0
 3490              	.LBE1803:
 3491              	.LBE1802:
 3492              	.LBB1807:
 3493              	.LBB1766:
  56:../../../DaisySP//Source/Utility/delayline.h ****                                                            : max_size - 1;
ARM GAS  /var/folders/wz/z09yph4n0qj4t7mjxhl6ttn80000gn/T//ccPO7ASC.s 			page 102


 3494              		.loc 6 56 16 view .LVU922
 3495 0176 AA62     		str	r2, [r5, #40]
 3496              	.LVL180:
  56:../../../DaisySP//Source/Utility/delayline.h ****                                                            : max_size - 1;
 3497              		.loc 6 56 16 view .LVU923
 3498              	.LBE1766:
 3499              	.LBE1807:
 130:../../../DaisySP//Source/Effects/pitchshifter.h ****         val = 0.0f;
 3500              		.loc 3 130 9 is_stmt 1 view .LVU924
 3501              	.LBB1808:
 3502              	.LBI1750:
  52:../../../DaisySP//Source/Utility/delayline.h ****     {
 3503              		.loc 6 52 17 view .LVU925
  52:../../../DaisySP//Source/Utility/delayline.h ****     {
 3504              		.loc 6 52 17 is_stmt 0 view .LVU926
 3505              	.LBE1808:
 3506              	.LBB1809:
 3507              	.LBB1767:
  55:../../../DaisySP//Source/Utility/delayline.h ****         delay_ = static_cast<size_t>(int_delay) < max_size ? int_delay
 3508              		.loc 6 55 27 view .LVU927
 3509 0178 C5ED088A 		vstr.32	s17, [r5, #32]
 3510              	.LBE1767:
 3511              	.LBE1809:
 3512              	.LBB1810:
 3513              	.LBB1757:
  56:../../../DaisySP//Source/Utility/delayline.h ****                                                            : max_size - 1;
 3514              		.loc 6 56 16 view .LVU928
 3515 017c CAF83400 		str	r0, [r10, #52]
 3516              	.LVL181:
  56:../../../DaisySP//Source/Utility/delayline.h ****                                                            : max_size - 1;
 3517              		.loc 6 56 16 view .LVU929
 3518              	.LBE1757:
 3519              	.LBE1810:
 131:../../../DaisySP//Source/Effects/pitchshifter.h ****         val += (d_[0].Read() * gain_[0]);
 3520              		.loc 3 131 9 is_stmt 1 view .LVU930
 132:../../../DaisySP//Source/Effects/pitchshifter.h ****         val += (d_[1].Read() * gain_[1]);
 3521              		.loc 3 132 9 view .LVU931
 3522              	.LBB1811:
 3523              	.LBI1792:
  70:../../../DaisySP//Source/Utility/delayline.h ****     {
 3524              		.loc 6 70 20 view .LVU932
 3525              	.LBB1794:
  73:../../../DaisySP//Source/Utility/delayline.h ****         T b = line_[(write_ptr_ + delay_ + 1) % max_size];
 3526              		.loc 6 73 42 is_stmt 0 view .LVU933
 3527 0180 481C     		adds	r0, r1, #1
  72:../../../DaisySP//Source/Utility/delayline.h ****         T b = line_[(write_ptr_ + delay_ + 1) % max_size];
 3528              		.loc 6 72 43 view .LVU934
 3529 0182 C1F30D01 		ubfx	r1, r1, #0, #14
 3530              	.LBE1794:
 3531              	.LBE1811:
 3532              	.LBB1812:
 3533              	.LBB1758:
  55:../../../DaisySP//Source/Utility/delayline.h ****         delay_ = static_cast<size_t>(int_delay) < max_size ? int_delay
 3534              		.loc 6 55 27 view .LVU935
 3535 0186 8AED0B8A 		vstr.32	s16, [r10, #44]
 3536              	.LBE1758:
 3537              	.LBE1812:
ARM GAS  /var/folders/wz/z09yph4n0qj4t7mjxhl6ttn80000gn/T//ccPO7ASC.s 			page 103


 3538              	.LBB1813:
 3539              	.LBB1795:
 3540              		.loc 6 73 47 view .LVU936
 3541 018a C0F30D00 		ubfx	r0, r0, #0, #14
  72:../../../DaisySP//Source/Utility/delayline.h ****         T b = line_[(write_ptr_ + delay_ + 1) % max_size];
 3542              		.loc 6 72 11 view .LVU937
 3543 018e 05EB8101 		add	r1, r5, r1, lsl #2
 3544 0192 91ED0B7A 		vldr.32	s14, [r1, #44]
 3545              	.LVL182:
 3546              		.loc 6 73 11 view .LVU938
 3547 0196 05EB8001 		add	r1, r5, r0, lsl #2
 3548              	.LBE1795:
 3549              	.LBE1813:
 3550              	.LBE1877:
 3551              	.LBE1881:
 3552              	.LBB1882:
 3553              	.LBB1883:
  87:../../../DaisySP//Source/Effects/pitchshifter.h ****         fade2 = phs_[1].Process();
 3554              		.loc 3 87 32 view .LVU939
 3555 019a 4846     		mov	r0, r9
 3556              	.LBE1883:
 3557              	.LBE1882:
 3558              	.LBB2023:
 3559              	.LBB1878:
 3560              	.LBB1814:
 3561              	.LBB1796:
  74:../../../DaisySP//Source/Utility/delayline.h ****         return a + (b - a) * frac_;
 3562              		.loc 6 74 23 view .LVU940
 3563 019c D1ED0B6A 		vldr.32	s13, [r1, #44]
 3564              	.LBE1796:
 3565              	.LBE1814:
 3566              	.LBB1815:
 3567              	.LBB1804:
  73:../../../DaisySP//Source/Utility/delayline.h ****         return a + (b - a) * frac_;
 3568              		.loc 6 73 42 view .LVU941
 3569 01a0 591C     		adds	r1, r3, #1
  72:../../../DaisySP//Source/Utility/delayline.h ****         T b = line_[(write_ptr_ + delay_ + 1) % max_size];
 3570              		.loc 6 72 43 view .LVU942
 3571 01a2 C3F30D03 		ubfx	r3, r3, #0, #14
 3572              	.LBE1804:
 3573              	.LBE1815:
 3574              	.LBB1816:
 3575              	.LBB1797:
 3576              		.loc 6 74 23 view .LVU943
 3577 01a6 76EEC76A 		vsub.f32	s13, s13, s14
 3578              	.LBE1797:
 3579              	.LBE1816:
 3580              	.LBB1817:
 3581              	.LBB1805:
  73:../../../DaisySP//Source/Utility/delayline.h ****         return a + (b - a) * frac_;
 3582              		.loc 6 73 47 view .LVU944
 3583 01aa C1F30D01 		ubfx	r1, r1, #0, #14
  72:../../../DaisySP//Source/Utility/delayline.h ****         T b = line_[(write_ptr_ + delay_ + 1) % max_size];
 3584              		.loc 6 72 11 view .LVU945
 3585 01ae 0AEB8303 		add	r3, r10, r3, lsl #2
 3586              	.LBE1805:
 3587              	.LBE1817:
ARM GAS  /var/folders/wz/z09yph4n0qj4t7mjxhl6ttn80000gn/T//ccPO7ASC.s 			page 104


 3588              	.LBB1818:
 3589              	.LBB1798:
 3590              		.loc 6 74 30 view .LVU946
 3591 01b2 A8EEA67A 		vfma.f32	s14, s17, s13
 3592              	.LVL183:
 3593              		.loc 6 74 30 view .LVU947
 3594              	.LBE1798:
 3595              	.LBE1818:
 132:../../../DaisySP//Source/Effects/pitchshifter.h ****         val += (d_[1].Read() * gain_[1]);
 3596              		.loc 3 132 13 view .LVU948
 3597 01b6 EAEE877A 		vfma.f32	s15, s21, s14
 3598              	.LVL184:
 133:../../../DaisySP//Source/Effects/pitchshifter.h ****         return val;
 3599              		.loc 3 133 9 is_stmt 1 view .LVU949
 3600              	.LBB1819:
 3601              	.LBI1802:
  70:../../../DaisySP//Source/Utility/delayline.h ****     {
 3602              		.loc 6 70 20 view .LVU950
 3603              	.LBB1806:
  72:../../../DaisySP//Source/Utility/delayline.h ****         T b = line_[(write_ptr_ + delay_ + 1) % max_size];
 3604              		.loc 6 72 11 is_stmt 0 view .LVU951
 3605 01ba 93ED0E7A 		vldr.32	s14, [r3, #56]
 3606              	.LVL185:
  73:../../../DaisySP//Source/Utility/delayline.h ****         return a + (b - a) * frac_;
 3607              		.loc 6 73 11 view .LVU952
 3608 01be 0AEB8103 		add	r3, r10, r1, lsl #2
 3609              		.loc 6 74 23 view .LVU953
 3610 01c2 D3ED0E6A 		vldr.32	s13, [r3, #56]
 3611 01c6 76EEC76A 		vsub.f32	s13, s13, s14
 3612              		.loc 6 74 30 view .LVU954
 3613 01ca A8EE267A 		vfma.f32	s14, s16, s13
 3614              	.LVL186:
 3615              		.loc 6 74 30 view .LVU955
 3616              	.LBE1806:
 3617              	.LBE1819:
 133:../../../DaisySP//Source/Effects/pitchshifter.h ****         return val;
 3618              		.loc 3 133 13 view .LVU956
 3619 01ce E0EE077A 		vfma.f32	s15, s0, s14
 3620              	.LVL187:
 134:../../../DaisySP//Source/Effects/pitchshifter.h ****     }
 3621              		.loc 3 134 9 is_stmt 1 view .LVU957
 134:../../../DaisySP//Source/Effects/pitchshifter.h ****     }
 3622              		.loc 3 134 9 is_stmt 0 view .LVU958
 3623              	.LBE1878:
 3624              	.LBE2023:
 3625              		.loc 4 40 22 view .LVU959
 3626 01d2 4BED017A 		vstr.32	s15, [fp, #-4]
  41:DSP/FX/PitchShift.cpp ****         buffer[R][i] = shifter.Process(buffer[R][i]);
 3627              		.loc 4 41 9 is_stmt 1 view .LVU960
 3628              	.LVL188:
 3629              	.LBB2024:
 3630              	.LBI1882:
  83:../../../DaisySP//Source/Effects/pitchshifter.h ****     {
 3631              		.loc 3 83 11 view .LVU961
 3632              	.LBB2013:
  85:../../../DaisySP//Source/Effects/pitchshifter.h ****         // First Process delay mod/crossfade
 3633              		.loc 3 85 9 view .LVU962
ARM GAS  /var/folders/wz/z09yph4n0qj4t7mjxhl6ttn80000gn/T//ccPO7ASC.s 			page 105


  87:../../../DaisySP//Source/Effects/pitchshifter.h ****         fade2 = phs_[1].Process();
 3634              		.loc 3 87 9 view .LVU963
  87:../../../DaisySP//Source/Effects/pitchshifter.h ****         fade2 = phs_[1].Process();
 3635              		.loc 3 87 32 is_stmt 0 view .LVU964
 3636 01d6 FFF7FEFF 		bl	_ZN7daisysp6Phasor7ProcessEv
 3637              	.LVL189:
  88:../../../DaisySP//Source/Effects/pitchshifter.h ****         if(prev_phs_a_ > fade1)
 3638              		.loc 3 88 32 view .LVU965
 3639 01da 4046     		mov	r0, r8
  87:../../../DaisySP//Source/Effects/pitchshifter.h ****         fade2 = phs_[1].Process();
 3640              		.loc 3 87 32 view .LVU966
 3641 01dc F0EE409A 		vmov.f32	s19, s0
 3642              	.LVL190:
  88:../../../DaisySP//Source/Effects/pitchshifter.h ****         if(prev_phs_a_ > fade1)
 3643              		.loc 3 88 9 is_stmt 1 view .LVU967
  88:../../../DaisySP//Source/Effects/pitchshifter.h ****         if(prev_phs_a_ > fade1)
 3644              		.loc 3 88 32 is_stmt 0 view .LVU968
 3645 01e0 FFF7FEFF 		bl	_ZN7daisysp6Phasor7ProcessEv
 3646              	.LVL191:
  89:../../../DaisySP//Source/Effects/pitchshifter.h ****         {
 3647              		.loc 3 89 9 view .LVU969
 3648 01e4 D4ED247A 		vldr.32	s15, [r4, #144]
  88:../../../DaisySP//Source/Effects/pitchshifter.h ****         if(prev_phs_a_ > fade1)
 3649              		.loc 3 88 32 view .LVU970
 3650 01e8 B0EE40AA 		vmov.f32	s20, s0
 3651              	.LVL192:
  89:../../../DaisySP//Source/Effects/pitchshifter.h ****         {
 3652              		.loc 3 89 9 is_stmt 1 view .LVU971
 3653 01ec F4EEE79A 		vcmpe.f32	s19, s15
 3654 01f0 F1EE10FA 		vmrs	APSR_nzcv, FPSCR
 3655 01f4 00F13881 		bmi	.L139
 103:../../../DaisySP//Source/Effects/pitchshifter.h ****         slewed_mod_[1] += mod_coeff_[1] * (mod_b_amt_ - slewed_mod_[1]);
 3656              		.loc 3 103 39 is_stmt 0 view .LVU972
 3657 01f8 94ED285A 		vldr.32	s10, [r4, #160]
 103:../../../DaisySP//Source/Effects/pitchshifter.h ****         slewed_mod_[1] += mod_coeff_[1] * (mod_b_amt_ - slewed_mod_[1]);
 3658              		.loc 3 103 44 view .LVU973
 3659 01fc 94ED227A 		vldr.32	s14, [r4, #136]
  92:../../../DaisySP//Source/Effects/pitchshifter.h ****             mod_coeff_[0]
 3660              		.loc 3 92 29 view .LVU974
 3661 0200 226C     		ldr	r2, [r4, #64]
 3662              	.L140:
  96:../../../DaisySP//Source/Effects/pitchshifter.h ****         {
 3663              		.loc 3 96 9 is_stmt 1 view .LVU975
 3664 0202 D4ED257A 		vldr.32	s15, [r4, #148]
 3665 0206 B4EEE7AA 		vcmpe.f32	s20, s15
 3666 020a F1EE10FA 		vmrs	APSR_nzcv, FPSCR
 3667 020e 00F1D280 		bmi	.L141
 104:../../../DaisySP//Source/Effects/pitchshifter.h ****         prev_phs_a_ = fade1;
 3668              		.loc 3 104 39 is_stmt 0 view .LVU976
 3669 0212 D4ED296A 		vldr.32	s13, [r4, #164]
 104:../../../DaisySP//Source/Effects/pitchshifter.h ****         prev_phs_a_ = fade1;
 3670              		.loc 3 104 44 view .LVU977
 3671 0216 D4ED237A 		vldr.32	s15, [r4, #140]
 3672              	.L142:
 103:../../../DaisySP//Source/Effects/pitchshifter.h ****         slewed_mod_[1] += mod_coeff_[1] * (mod_b_amt_ - slewed_mod_[1]);
 3673              		.loc 3 103 9 is_stmt 1 view .LVU978
 103:../../../DaisySP//Source/Effects/pitchshifter.h ****         slewed_mod_[1] += mod_coeff_[1] * (mod_b_amt_ - slewed_mod_[1]);
ARM GAS  /var/folders/wz/z09yph4n0qj4t7mjxhl6ttn80000gn/T//ccPO7ASC.s 			page 106


 3674              		.loc 3 103 24 is_stmt 0 view .LVU979
 3675 021a D4ED268A 		vldr.32	s17, [r4, #152]
 104:../../../DaisySP//Source/Effects/pitchshifter.h ****         prev_phs_a_ = fade1;
 3676              		.loc 3 104 24 view .LVU980
 3677 021e 94ED278A 		vldr.32	s16, [r4, #156]
 103:../../../DaisySP//Source/Effects/pitchshifter.h ****         slewed_mod_[1] += mod_coeff_[1] * (mod_b_amt_ - slewed_mod_[1]);
 3678              		.loc 3 103 55 view .LVU981
 3679 0222 37EE687A 		vsub.f32	s14, s14, s17
 107:../../../DaisySP//Source/Effects/pitchshifter.h ****         {
 3680              		.loc 3 107 9 view .LVU982
 3681 0226 94F84C30 		ldrb	r3, [r4, #76]	@ zero_extendqisi2
 104:../../../DaisySP//Source/Effects/pitchshifter.h ****         prev_phs_a_ = fade1;
 3682              		.loc 3 104 55 view .LVU983
 3683 022a 77EEC87A 		vsub.f32	s15, s15, s16
 105:../../../DaisySP//Source/Effects/pitchshifter.h ****         prev_phs_b_ = fade2;
 3684              		.loc 3 105 21 view .LVU984
 3685 022e C4ED249A 		vstr.32	s19, [r4, #144]
 106:../../../DaisySP//Source/Effects/pitchshifter.h ****         if(shift_up_)
 3686              		.loc 3 106 21 view .LVU985
 3687 0232 84ED25AA 		vstr.32	s20, [r4, #148]
 103:../../../DaisySP//Source/Effects/pitchshifter.h ****         slewed_mod_[1] += mod_coeff_[1] * (mod_b_amt_ - slewed_mod_[1]);
 3688              		.loc 3 103 24 view .LVU986
 3689 0236 E7EE058A 		vfma.f32	s17, s14, s10
 104:../../../DaisySP//Source/Effects/pitchshifter.h ****         prev_phs_a_ = fade1;
 3690              		.loc 3 104 24 view .LVU987
 3691 023a A7EEA68A 		vfma.f32	s16, s15, s13
 103:../../../DaisySP//Source/Effects/pitchshifter.h ****         slewed_mod_[1] += mod_coeff_[1] * (mod_b_amt_ - slewed_mod_[1]);
 3692              		.loc 3 103 24 view .LVU988
 3693 023e C4ED268A 		vstr.32	s17, [r4, #152]
 104:../../../DaisySP//Source/Effects/pitchshifter.h ****         prev_phs_a_ = fade1;
 3694              		.loc 3 104 9 is_stmt 1 view .LVU989
 104:../../../DaisySP//Source/Effects/pitchshifter.h ****         prev_phs_a_ = fade1;
 3695              		.loc 3 104 24 is_stmt 0 view .LVU990
 3696 0242 84ED278A 		vstr.32	s16, [r4, #156]
 105:../../../DaisySP//Source/Effects/pitchshifter.h ****         prev_phs_b_ = fade2;
 3697              		.loc 3 105 9 is_stmt 1 view .LVU991
 106:../../../DaisySP//Source/Effects/pitchshifter.h ****         if(shift_up_)
 3698              		.loc 3 106 9 view .LVU992
 107:../../../DaisySP//Source/Effects/pitchshifter.h ****         {
 3699              		.loc 3 107 9 view .LVU993
 3700 0246 2BB1     		cbz	r3, .L143
 109:../../../DaisySP//Source/Effects/pitchshifter.h ****             fade2 = 1.0f - fade2;
 3701              		.loc 3 109 13 view .LVU994
 109:../../../DaisySP//Source/Effects/pitchshifter.h ****             fade2 = 1.0f - fade2;
 3702              		.loc 3 109 19 is_stmt 0 view .LVU995
 3703 0248 F7EE007A 		vmov.f32	s15, #1.0e+0
 3704 024c 77EEE99A 		vsub.f32	s19, s15, s19
 3705              	.LVL193:
 110:../../../DaisySP//Source/Effects/pitchshifter.h ****         }
 3706              		.loc 3 110 13 is_stmt 1 view .LVU996
 110:../../../DaisySP//Source/Effects/pitchshifter.h ****         }
 3707              		.loc 3 110 19 is_stmt 0 view .LVU997
 3708 0250 37EECAAA 		vsub.f32	s20, s15, s20
 3709              	.LVL194:
 3710              	.L143:
 112:../../../DaisySP//Source/Effects/pitchshifter.h ****         mod_[1] = fade2 * (del_size_ - 1);
 3711              		.loc 3 112 9 is_stmt 1 view .LVU998
ARM GAS  /var/folders/wz/z09yph4n0qj4t7mjxhl6ttn80000gn/T//ccPO7ASC.s 			page 107


 112:../../../DaisySP//Source/Effects/pitchshifter.h ****         mod_[1] = fade2 * (del_size_ - 1);
 3712              		.loc 3 112 38 is_stmt 0 view .LVU999
 3713 0254 531E     		subs	r3, r2, #1
 118:../../../DaisySP//Source/Effects/pitchshifter.h ****         gain_[1] = sinf(fade2 * PI_F);
 3714              		.loc 3 118 24 view .LVU1000
 3715 0256 9FED7BBA 		vldr.32	s22, .L156
 3716              	.LBE2013:
 3717              	.LBE2024:
  35:DSP/FX/PitchShift.cpp ****     {
 3718              		.loc 4 35 5 view .LVU1001
 3719 025a 0137     		adds	r7, r7, #1
 3720              	.LVL195:
 3721              	.LBB2025:
 3722              	.LBB2014:
 112:../../../DaisySP//Source/Effects/pitchshifter.h ****         mod_[1] = fade2 * (del_size_ - 1);
 3723              		.loc 3 112 38 view .LVU1002
 3724 025c 09EE103A 		vmov	s18, r3	@ int
 118:../../../DaisySP//Source/Effects/pitchshifter.h ****         gain_[1] = sinf(fade2 * PI_F);
 3725              		.loc 3 118 24 view .LVU1003
 3726 0260 29EE8B0A 		vmul.f32	s0, s19, s22
 112:../../../DaisySP//Source/Effects/pitchshifter.h ****         mod_[1] = fade2 * (del_size_ - 1);
 3727              		.loc 3 112 25 view .LVU1004
 3728 0264 B8EE499A 		vcvt.f32.u32	s18, s18
 3729 0268 69EE299A 		vmul.f32	s19, s18, s19
 3730              	.LVL196:
 113:../../../DaisySP//Source/Effects/pitchshifter.h **** #ifdef USE_ARM_DSP
 3731              		.loc 3 113 25 view .LVU1005
 3732 026c 29EE0A9A 		vmul.f32	s18, s18, s20
 112:../../../DaisySP//Source/Effects/pitchshifter.h ****         mod_[1] = fade2 * (del_size_ - 1);
 3733              		.loc 3 112 17 view .LVU1006
 3734 0270 C4ED1E9A 		vstr.32	s19, [r4, #120]
 113:../../../DaisySP//Source/Effects/pitchshifter.h **** #ifdef USE_ARM_DSP
 3735              		.loc 3 113 9 is_stmt 1 view .LVU1007
 129:../../../DaisySP//Source/Effects/pitchshifter.h ****         d_[1].SetDelay(mod_[1] + slewed_mod_[1]);
 3736              		.loc 3 129 23 is_stmt 0 view .LVU1008
 3737 0274 78EEA98A 		vadd.f32	s17, s17, s19
 113:../../../DaisySP//Source/Effects/pitchshifter.h **** #ifdef USE_ARM_DSP
 3738              		.loc 3 113 17 view .LVU1009
 3739 0278 84ED1F9A 		vstr.32	s18, [r4, #124]
 118:../../../DaisySP//Source/Effects/pitchshifter.h ****         gain_[1] = sinf(fade2 * PI_F);
 3740              		.loc 3 118 9 is_stmt 1 view .LVU1010
 130:../../../DaisySP//Source/Effects/pitchshifter.h ****         val = 0.0f;
 3741              		.loc 3 130 23 is_stmt 0 view .LVU1011
 3742 027c 38EE098A 		vadd.f32	s16, s16, s18
 118:../../../DaisySP//Source/Effects/pitchshifter.h ****         gain_[1] = sinf(fade2 * PI_F);
 3743              		.loc 3 118 24 view .LVU1012
 3744 0280 FFF7FEFF 		bl	sinf
 3745              	.LVL197:
 3746 0284 F0EE40AA 		vmov.f32	s21, s0
 119:../../../DaisySP//Source/Effects/pitchshifter.h **** #endif
 3747              		.loc 3 119 24 view .LVU1013
 3748 0288 2AEE0B0A 		vmul.f32	s0, s20, s22
 118:../../../DaisySP//Source/Effects/pitchshifter.h ****         gain_[1] = sinf(fade2 * PI_F);
 3749              		.loc 3 118 18 view .LVU1014
 3750 028c C4ED1CAA 		vstr.32	s21, [r4, #112]
 119:../../../DaisySP//Source/Effects/pitchshifter.h **** #endif
 3751              		.loc 3 119 9 is_stmt 1 view .LVU1015
ARM GAS  /var/folders/wz/z09yph4n0qj4t7mjxhl6ttn80000gn/T//ccPO7ASC.s 			page 108


 119:../../../DaisySP//Source/Effects/pitchshifter.h **** #endif
 3752              		.loc 3 119 24 is_stmt 0 view .LVU1016
 3753 0290 FFF7FEFF 		bl	sinf
 3754              	.LVL198:
 3755              	.LBB1884:
 3756              	.LBB1885:
  54:../../../DaisySP//Source/Utility/delayline.h ****         frac_             = delay - static_cast<float>(int_delay);
 3757              		.loc 6 54 17 view .LVU1017
 3758 0294 BDEEC86A 		vcvt.s32.f32	s12, s16
 3759              	.LBE1885:
 3760              	.LBE1884:
 3761              	.LBB1893:
 3762              	.LBB1894:
 3763 0298 FDEEE85A 		vcvt.s32.f32	s11, s17
 3764              	.LBE1894:
 3765              	.LBE1893:
 3766              	.LBB1901:
 3767              	.LBB1902:
  64:../../../DaisySP//Source/Utility/delayline.h ****         write_ptr_        = (write_ptr_ - 1 + max_size) % max_size;
 3768              		.loc 6 64 15 view .LVU1018
 3769 029c 696A     		ldr	r1, [r5, #36]
  65:../../../DaisySP//Source/Utility/delayline.h ****     }
 3770              		.loc 6 65 45 view .LVU1019
 3771 029e 43F6FF73 		movw	r3, #16383
 3772              	.LBE1902:
 3773              	.LBE1901:
 119:../../../DaisySP//Source/Effects/pitchshifter.h **** #endif
 3774              		.loc 3 119 18 view .LVU1020
 3775 02a2 84ED1D0A 		vstr.32	s0, [r4, #116]
 123:../../../DaisySP//Source/Effects/pitchshifter.h ****         d_[1].Write(in);
 3776              		.loc 3 123 9 is_stmt 1 view .LVU1021
 3777              	.LBB1907:
 3778              	.LBB1886:
  55:../../../DaisySP//Source/Utility/delayline.h ****         delay_ = static_cast<size_t>(int_delay) < max_size ? int_delay
 3779              		.loc 6 55 37 is_stmt 0 view .LVU1022
 3780 02a6 F8EEC67A 		vcvt.f32.s32	s15, s12
 3781              	.LBE1886:
 3782              	.LBE1907:
 3783              	.LBB1908:
 3784              	.LBB1903:
  64:../../../DaisySP//Source/Utility/delayline.h ****         write_ptr_        = (write_ptr_ - 1 + max_size) % max_size;
 3785              		.loc 6 64 27 view .LVU1023
 3786 02aa 05EB8100 		add	r0, r5, r1, lsl #2
 3787              	.LBE1903:
 3788              	.LBE1908:
 3789              	.LBB1909:
 3790              	.LBB1895:
  56:../../../DaisySP//Source/Utility/delayline.h ****                                                            : max_size - 1;
 3791              		.loc 6 56 60 view .LVU1024
 3792 02ae 15EE902A 		vmov	r2, s11	@ int
 3793              	.LBE1895:
 3794              	.LBE1909:
 3795              	.LBB1910:
 3796              	.LBB1904:
  65:../../../DaisySP//Source/Utility/delayline.h ****     }
 3797              		.loc 6 65 45 view .LVU1025
 3798 02b2 1944     		add	r1, r1, r3
ARM GAS  /var/folders/wz/z09yph4n0qj4t7mjxhl6ttn80000gn/T//ccPO7ASC.s 			page 109


 3799              	.LBE1904:
 3800              	.LBE1910:
 3801              	.LBB1911:
 3802              	.LBB1896:
  55:../../../DaisySP//Source/Utility/delayline.h ****         delay_ = static_cast<size_t>(int_delay) < max_size ? int_delay
 3803              		.loc 6 55 37 view .LVU1026
 3804 02b4 B8EEE55A 		vcvt.f32.s32	s10, s11
 3805              	.LBE1896:
 3806              	.LBE1911:
 132:../../../DaisySP//Source/Effects/pitchshifter.h ****         val += (d_[1].Read() * gain_[1]);
 3807              		.loc 3 132 13 view .LVU1027
 3808 02b8 9FED637A 		vldr.32	s14, .L156+4
 3809              	.LBB1912:
 3810              	.LBB1887:
  55:../../../DaisySP//Source/Utility/delayline.h ****         delay_ = static_cast<size_t>(int_delay) < max_size ? int_delay
 3811              		.loc 6 55 35 view .LVU1028
 3812 02bc 38EE678A 		vsub.f32	s16, s16, s15
 3813              	.LBE1887:
 3814              	.LBE1912:
 123:../../../DaisySP//Source/Effects/pitchshifter.h ****         d_[1].Write(in);
 3815              		.loc 3 123 20 view .LVU1029
 3816 02c0 DBED037A 		vldr.32	s15, [fp, #12]
 3817              	.LBB1913:
 3818              	.LBB1897:
  56:../../../DaisySP//Source/Utility/delayline.h ****                                                            : max_size - 1;
 3819              		.loc 6 56 60 view .LVU1030
 3820 02c4 9A42     		cmp	r2, r3
 3821              	.LBE1897:
 3822              	.LBE1913:
 3823              	.LBB1914:
 3824              	.LBB1905:
  65:../../../DaisySP//Source/Utility/delayline.h ****     }
 3825              		.loc 6 65 57 view .LVU1031
 3826 02c6 C1F30D01 		ubfx	r1, r1, #0, #14
  64:../../../DaisySP//Source/Utility/delayline.h ****         write_ptr_        = (write_ptr_ - 1 + max_size) % max_size;
 3827              		.loc 6 64 27 view .LVU1032
 3828 02ca C0ED0B7A 		vstr.32	s15, [r0, #44]
 3829              	.LBE1905:
 3830              	.LBE1914:
 3831              	.LBB1915:
 3832              	.LBB1888:
  56:../../../DaisySP//Source/Utility/delayline.h ****                                                            : max_size - 1;
 3833              		.loc 6 56 60 view .LVU1033
 3834 02ce 16EE100A 		vmov	r0, s12	@ int
 3835              	.LBE1888:
 3836              	.LBE1915:
 3837              	.LBB1916:
 3838              	.LBB1906:
  65:../../../DaisySP//Source/Utility/delayline.h ****     }
 3839              		.loc 6 65 27 view .LVU1034
 3840 02d2 6962     		str	r1, [r5, #36]
 3841              	.LBE1906:
 3842              	.LBE1916:
 3843              	.LBB1917:
 3844              	.LBB1898:
  56:../../../DaisySP//Source/Utility/delayline.h ****                                                            : max_size - 1;
 3845              		.loc 6 56 60 view .LVU1035
ARM GAS  /var/folders/wz/z09yph4n0qj4t7mjxhl6ttn80000gn/T//ccPO7ASC.s 			page 110


 3846 02d4 28BF     		it	cs
 3847 02d6 1A46     		movcs	r2, r3
 3848              	.LBE1898:
 3849              	.LBE1917:
 3850              	.LBB1918:
 3851              	.LBB1919:
  64:../../../DaisySP//Source/Utility/delayline.h ****         write_ptr_        = (write_ptr_ - 1 + max_size) % max_size;
 3852              		.loc 6 64 15 view .LVU1036
 3853 02d8 DAF830E0 		ldr	lr, [r10, #48]
 3854              	.LBE1919:
 3855              	.LBE1918:
 3856              	.LBB1922:
 3857              	.LBB1889:
  56:../../../DaisySP//Source/Utility/delayline.h ****                                                            : max_size - 1;
 3858              		.loc 6 56 60 view .LVU1037
 3859 02dc 9842     		cmp	r0, r3
 3860              	.LBE1889:
 3861              	.LBE1922:
 3862              	.LBB1923:
 3863              	.LBB1899:
  55:../../../DaisySP//Source/Utility/delayline.h ****         delay_ = static_cast<size_t>(int_delay) < max_size ? int_delay
 3864              		.loc 6 55 35 view .LVU1038
 3865 02de 78EEC58A 		vsub.f32	s17, s17, s10
 3866              	.LVL199:
  55:../../../DaisySP//Source/Utility/delayline.h ****         delay_ = static_cast<size_t>(int_delay) < max_size ? int_delay
 3867              		.loc 6 55 35 view .LVU1039
 3868              	.LBE1899:
 3869              	.LBE1923:
 3870              	.LBB1924:
 3871              	.LBI1901:
  62:../../../DaisySP//Source/Utility/delayline.h ****     {
 3872              		.loc 6 62 17 is_stmt 1 view .LVU1040
  62:../../../DaisySP//Source/Utility/delayline.h ****     {
 3873              		.loc 6 62 17 is_stmt 0 view .LVU1041
 3874              	.LBE1924:
 124:../../../DaisySP//Source/Effects/pitchshifter.h ****         // Modulate Delay Lines
 3875              		.loc 3 124 9 is_stmt 1 view .LVU1042
 3876              	.LBB1925:
 3877              	.LBI1918:
  62:../../../DaisySP//Source/Utility/delayline.h ****     {
 3878              		.loc 6 62 17 view .LVU1043
 3879              	.LBE1925:
 3880              	.LBB1926:
 3881              	.LBB1927:
  72:../../../DaisySP//Source/Utility/delayline.h ****         T b = line_[(write_ptr_ + delay_ + 1) % max_size];
 3882              		.loc 6 72 33 is_stmt 0 view .LVU1044
 3883 02e2 1144     		add	r1, r1, r2
 3884              	.LBE1927:
 3885              	.LBE1926:
 3886              	.LBB1935:
 3887              	.LBB1890:
  56:../../../DaisySP//Source/Utility/delayline.h ****                                                            : max_size - 1;
 3888              		.loc 6 56 60 view .LVU1045
 3889 02e4 28BF     		it	cs
 3890 02e6 1846     		movcs	r0, r3
 3891              	.LBE1890:
 3892              	.LBE1935:
ARM GAS  /var/folders/wz/z09yph4n0qj4t7mjxhl6ttn80000gn/T//ccPO7ASC.s 			page 111


 3893              	.LBB1936:
 3894              	.LBB1920:
  65:../../../DaisySP//Source/Utility/delayline.h ****     }
 3895              		.loc 6 65 45 view .LVU1046
 3896 02e8 7344     		add	r3, r3, lr
  64:../../../DaisySP//Source/Utility/delayline.h ****         write_ptr_        = (write_ptr_ - 1 + max_size) % max_size;
 3897              		.loc 6 64 27 view .LVU1047
 3898 02ea 0AEB8E0E 		add	lr, r10, lr, lsl #2
 3899              	.LBE1920:
 3900              	.LBE1936:
 3901              	.LBE2014:
 3902              	.LBE2025:
  42:DSP/FX/PitchShift.cpp **** 
  43:DSP/FX/PitchShift.cpp ****         input[L][i] = (input[L][i] * (1.f - amount.value)) + (buffer[L][i] * amount.value);
 3903              		.loc 4 43 43 view .LVU1048
 3904 02ee F7EE006A 		vmov.f32	s13, #1.0e+0
 3905              	.LBB2026:
 3906              	.LBB2015:
 3907              	.LBB1937:
 3908              	.LBB1921:
  65:../../../DaisySP//Source/Utility/delayline.h ****     }
 3909              		.loc 6 65 57 view .LVU1049
 3910 02f2 C3F30D03 		ubfx	r3, r3, #0, #14
  64:../../../DaisySP//Source/Utility/delayline.h ****         write_ptr_        = (write_ptr_ - 1 + max_size) % max_size;
 3911              		.loc 6 64 27 view .LVU1050
 3912 02f6 CEED0E7A 		vstr.32	s15, [lr, #56]
  65:../../../DaisySP//Source/Utility/delayline.h ****     }
 3913              		.loc 6 65 27 view .LVU1051
 3914 02fa CAF83030 		str	r3, [r10, #48]
 3915              	.LVL200:
  65:../../../DaisySP//Source/Utility/delayline.h ****     }
 3916              		.loc 6 65 27 view .LVU1052
 3917              	.LBE1921:
 3918              	.LBE1937:
 127:../../../DaisySP//Source/Effects/pitchshifter.h ****         d_[1].SetDelay(mod_[1] + mod_b_amt_);
 3919              		.loc 3 127 9 is_stmt 1 view .LVU1053
 128:../../../DaisySP//Source/Effects/pitchshifter.h ****         d_[0].SetDelay(mod_[0] + slewed_mod_[0]);
 3920              		.loc 3 128 9 view .LVU1054
 129:../../../DaisySP//Source/Effects/pitchshifter.h ****         d_[1].SetDelay(mod_[1] + slewed_mod_[1]);
 3921              		.loc 3 129 9 view .LVU1055
 3922              	.LBB1938:
 3923              	.LBI1893:
  52:../../../DaisySP//Source/Utility/delayline.h ****     {
 3924              		.loc 6 52 17 view .LVU1056
  52:../../../DaisySP//Source/Utility/delayline.h ****     {
 3925              		.loc 6 52 17 is_stmt 0 view .LVU1057
 3926              	.LBE1938:
 3927              	.LBB1939:
 3928              	.LBB1940:
  72:../../../DaisySP//Source/Utility/delayline.h ****         T b = line_[(write_ptr_ + delay_ + 1) % max_size];
 3929              		.loc 6 72 33 view .LVU1058
 3930 02fe 0344     		add	r3, r3, r0
 3931              	.LBE1940:
 3932              	.LBE1939:
 3933              	.LBB1946:
 3934              	.LBB1900:
  55:../../../DaisySP//Source/Utility/delayline.h ****         delay_ = static_cast<size_t>(int_delay) < max_size ? int_delay
ARM GAS  /var/folders/wz/z09yph4n0qj4t7mjxhl6ttn80000gn/T//ccPO7ASC.s 			page 112


 3935              		.loc 6 55 27 view .LVU1059
 3936 0300 C5ED088A 		vstr.32	s17, [r5, #32]
  56:../../../DaisySP//Source/Utility/delayline.h ****                                                            : max_size - 1;
 3937              		.loc 6 56 16 view .LVU1060
 3938 0304 AA62     		str	r2, [r5, #40]
 3939              	.LVL201:
  56:../../../DaisySP//Source/Utility/delayline.h ****                                                            : max_size - 1;
 3940              		.loc 6 56 16 view .LVU1061
 3941              	.LBE1900:
 3942              	.LBE1946:
 130:../../../DaisySP//Source/Effects/pitchshifter.h ****         val = 0.0f;
 3943              		.loc 3 130 9 is_stmt 1 view .LVU1062
 3944              	.LBB1947:
 3945              	.LBI1884:
  52:../../../DaisySP//Source/Utility/delayline.h ****     {
 3946              		.loc 6 52 17 view .LVU1063
 3947              	.LBB1891:
  56:../../../DaisySP//Source/Utility/delayline.h ****                                                            : max_size - 1;
 3948              		.loc 6 56 16 is_stmt 0 view .LVU1064
 3949 0306 CAF83400 		str	r0, [r10, #52]
 3950              	.LVL202:
  56:../../../DaisySP//Source/Utility/delayline.h ****                                                            : max_size - 1;
 3951              		.loc 6 56 16 view .LVU1065
 3952              	.LBE1891:
 3953              	.LBE1947:
 131:../../../DaisySP//Source/Effects/pitchshifter.h ****         val += (d_[0].Read() * gain_[0]);
 3954              		.loc 3 131 9 is_stmt 1 view .LVU1066
 132:../../../DaisySP//Source/Effects/pitchshifter.h ****         val += (d_[1].Read() * gain_[1]);
 3955              		.loc 3 132 9 view .LVU1067
 3956              	.LBB1948:
 3957              	.LBI1926:
  70:../../../DaisySP//Source/Utility/delayline.h ****     {
 3958              		.loc 6 70 20 view .LVU1068
 3959              	.LBB1928:
  73:../../../DaisySP//Source/Utility/delayline.h ****         return a + (b - a) * frac_;
 3960              		.loc 6 73 42 is_stmt 0 view .LVU1069
 3961 030a 481C     		adds	r0, r1, #1
  72:../../../DaisySP//Source/Utility/delayline.h ****         T b = line_[(write_ptr_ + delay_ + 1) % max_size];
 3962              		.loc 6 72 43 view .LVU1070
 3963 030c C1F30D01 		ubfx	r1, r1, #0, #14
 3964              	.LBE1928:
 3965              	.LBE1948:
 3966              	.LBB1949:
 3967              	.LBB1892:
  55:../../../DaisySP//Source/Utility/delayline.h ****         delay_ = static_cast<size_t>(int_delay) < max_size ? int_delay
 3968              		.loc 6 55 27 view .LVU1071
 3969 0310 8AED0B8A 		vstr.32	s16, [r10, #44]
 3970              	.LBE1892:
 3971              	.LBE1949:
 3972              	.LBB1950:
 3973              	.LBB1929:
  73:../../../DaisySP//Source/Utility/delayline.h ****         return a + (b - a) * frac_;
 3974              		.loc 6 73 47 view .LVU1072
 3975 0314 C0F30D00 		ubfx	r0, r0, #0, #14
 3976              	.LBE1929:
 3977              	.LBE1950:
 3978              	.LBE2015:
ARM GAS  /var/folders/wz/z09yph4n0qj4t7mjxhl6ttn80000gn/T//ccPO7ASC.s 			page 113


 3979              	.LBE2026:
 3980              		.loc 4 43 76 view .LVU1073
 3981 0318 1BED015A 		vldr.32	s10, [fp, #-4]
 3982              	.LBB2027:
 3983              	.LBB2016:
 3984              	.LBB1951:
 3985              	.LBB1930:
  72:../../../DaisySP//Source/Utility/delayline.h ****         T b = line_[(write_ptr_ + delay_ + 1) % max_size];
 3986              		.loc 6 72 11 view .LVU1074
 3987 031c 05EB8101 		add	r1, r5, r1, lsl #2
 3988              	.LBE1930:
 3989              	.LBE1951:
 3990              	.LBE2016:
 3991              	.LBE2027:
  35:DSP/FX/PitchShift.cpp ****     {
 3992              		.loc 4 35 26 view .LVU1075
 3993 0320 019A     		ldr	r2, [sp, #4]
 3994              	.LBB2028:
 3995              	.LBB2017:
 3996              	.LBB1952:
 3997              	.LBB1931:
  72:../../../DaisySP//Source/Utility/delayline.h ****         T b = line_[(write_ptr_ + delay_ + 1) % max_size];
 3998              		.loc 6 72 11 view .LVU1076
 3999 0322 91ED0B6A 		vldr.32	s12, [r1, #44]
 4000              	.LVL203:
  73:../../../DaisySP//Source/Utility/delayline.h ****         return a + (b - a) * frac_;
 4001              		.loc 6 73 11 view .LVU1077
 4002 0326 05EB8001 		add	r1, r5, r0, lsl #2
 4003              	.LBE1931:
 4004              	.LBE1952:
 4005              	.LBE2017:
 4006              	.LBE2028:
  35:DSP/FX/PitchShift.cpp ****     {
 4007              		.loc 4 35 26 view .LVU1078
 4008 032a BA42     		cmp	r2, r7
 4009              	.LBB2029:
 4010              	.LBB2018:
 4011              	.LBB1953:
 4012              	.LBB1932:
 4013              		.loc 6 74 23 view .LVU1079
 4014 032c D1ED0B5A 		vldr.32	s11, [r1, #44]
 4015              	.LBE1932:
 4016              	.LBE1953:
 4017              	.LBB1954:
 4018              	.LBB1941:
  73:../../../DaisySP//Source/Utility/delayline.h ****         return a + (b - a) * frac_;
 4019              		.loc 6 73 42 view .LVU1080
 4020 0330 03F10101 		add	r1, r3, #1
  72:../../../DaisySP//Source/Utility/delayline.h ****         T b = line_[(write_ptr_ + delay_ + 1) % max_size];
 4021              		.loc 6 72 43 view .LVU1081
 4022 0334 C3F30D03 		ubfx	r3, r3, #0, #14
 4023              	.LBE1941:
 4024              	.LBE1954:
 4025              	.LBB1955:
 4026              	.LBB1933:
 4027              		.loc 6 74 23 view .LVU1082
 4028 0338 75EEC65A 		vsub.f32	s11, s11, s12
ARM GAS  /var/folders/wz/z09yph4n0qj4t7mjxhl6ttn80000gn/T//ccPO7ASC.s 			page 114


 4029              	.LBE1933:
 4030              	.LBE1955:
 4031              	.LBB1956:
 4032              	.LBB1942:
  73:../../../DaisySP//Source/Utility/delayline.h ****         return a + (b - a) * frac_;
 4033              		.loc 6 73 47 view .LVU1083
 4034 033c C1F30D01 		ubfx	r1, r1, #0, #14
  72:../../../DaisySP//Source/Utility/delayline.h ****         T b = line_[(write_ptr_ + delay_ + 1) % max_size];
 4035              		.loc 6 72 11 view .LVU1084
 4036 0340 0AEB8303 		add	r3, r10, r3, lsl #2
 4037              	.LBE1942:
 4038              	.LBE1956:
 4039              	.LBB1957:
 4040              	.LBB1934:
 4041              		.loc 6 74 30 view .LVU1085
 4042 0344 A8EEA56A 		vfma.f32	s12, s17, s11
 4043              	.LVL204:
 4044              		.loc 6 74 30 view .LVU1086
 4045              	.LBE1934:
 4046              	.LBE1957:
 132:../../../DaisySP//Source/Effects/pitchshifter.h ****         val += (d_[1].Read() * gain_[1]);
 4047              		.loc 3 132 13 view .LVU1087
 4048 0348 AAEE867A 		vfma.f32	s14, s21, s12
 4049              	.LVL205:
 133:../../../DaisySP//Source/Effects/pitchshifter.h ****         return val;
 4050              		.loc 3 133 9 is_stmt 1 view .LVU1088
 4051              	.LBB1958:
 4052              	.LBI1939:
  70:../../../DaisySP//Source/Utility/delayline.h ****     {
 4053              		.loc 6 70 20 view .LVU1089
 4054              	.LBB1943:
  72:../../../DaisySP//Source/Utility/delayline.h ****         T b = line_[(write_ptr_ + delay_ + 1) % max_size];
 4055              		.loc 6 72 11 is_stmt 0 view .LVU1090
 4056 034c 93ED0E6A 		vldr.32	s12, [r3, #56]
 4057              	.LVL206:
  73:../../../DaisySP//Source/Utility/delayline.h ****         return a + (b - a) * frac_;
 4058              		.loc 6 73 11 view .LVU1091
 4059 0350 0AEB8103 		add	r3, r10, r1, lsl #2
 4060              		.loc 6 74 23 view .LVU1092
 4061 0354 D3ED0E5A 		vldr.32	s11, [r3, #56]
 4062              	.LBE1943:
 4063              	.LBE1958:
 4064              	.LBE2018:
 4065              	.LBE2029:
 4066              		.loc 4 43 31 view .LVU1093
 4067 0358 009B     		ldr	r3, [sp]
 4068              	.LBB2030:
 4069              	.LBB2019:
 4070              	.LBB1959:
 4071              	.LBB1944:
 4072              		.loc 6 74 23 view .LVU1094
 4073 035a 75EEC65A 		vsub.f32	s11, s11, s12
 4074              	.LBE1944:
 4075              	.LBE1959:
 4076              	.LBE2019:
 4077              	.LBE2030:
  44:DSP/FX/PitchShift.cpp ****         input[R][i] = (input[R][i] * (1.f - amount.value)) + (buffer[R][i] * amount.value);
ARM GAS  /var/folders/wz/z09yph4n0qj4t7mjxhl6ttn80000gn/T//ccPO7ASC.s 			page 115


 4078              		.loc 4 44 31 view .LVU1095
 4079 035e D3E90013 		ldrd	r1, r3, [r3]
 4080              	.LBB2031:
 4081              	.LBB2020:
 4082              	.LBB1960:
 4083              	.LBB1945:
 4084              		.loc 6 74 30 view .LVU1096
 4085 0362 A8EE256A 		vfma.f32	s12, s16, s11
 4086              	.LVL207:
 4087              		.loc 6 74 30 view .LVU1097
 4088              	.LBE1945:
 4089              	.LBE1960:
 4090              	.LBE2020:
 4091              	.LBE2031:
  43:DSP/FX/PitchShift.cpp ****         input[R][i] = (input[R][i] * (1.f - amount.value)) + (buffer[R][i] * amount.value);
 4092              		.loc 4 43 34 view .LVU1098
 4093 0366 01EB0600 		add	r0, r1, r6
 4094              		.loc 4 44 34 view .LVU1099
 4095 036a 1E44     		add	r6, r6, r3
 4096              	.LBB2032:
 4097              	.LBB2021:
 133:../../../DaisySP//Source/Effects/pitchshifter.h ****         return val;
 4098              		.loc 3 133 13 view .LVU1100
 4099 036c A0EE067A 		vfma.f32	s14, s0, s12
 4100              	.LVL208:
 134:../../../DaisySP//Source/Effects/pitchshifter.h ****     }
 4101              		.loc 3 134 9 is_stmt 1 view .LVU1101
 134:../../../DaisySP//Source/Effects/pitchshifter.h ****     }
 4102              		.loc 3 134 9 is_stmt 0 view .LVU1102
 4103              	.LBE2021:
 4104              	.LBE2032:
  41:DSP/FX/PitchShift.cpp **** 
 4105              		.loc 4 41 22 view .LVU1103
 4106 0370 8BED037A 		vstr.32	s14, [fp, #12]
  43:DSP/FX/PitchShift.cpp ****         input[R][i] = (input[R][i] * (1.f - amount.value)) + (buffer[R][i] * amount.value);
 4107              		.loc 4 43 9 is_stmt 1 view .LVU1104
  43:DSP/FX/PitchShift.cpp ****         input[R][i] = (input[R][i] * (1.f - amount.value)) + (buffer[R][i] * amount.value);
 4108              		.loc 4 43 52 is_stmt 0 view .LVU1105
 4109 0374 D4ED4A7A 		vldr.32	s15, [r4, #296]
  43:DSP/FX/PitchShift.cpp ****         input[R][i] = (input[R][i] * (1.f - amount.value)) + (buffer[R][i] * amount.value);
 4110              		.loc 4 43 60 view .LVU1106
 4111 0378 90ED006A 		vldr.32	s12, [r0]
  43:DSP/FX/PitchShift.cpp ****         input[R][i] = (input[R][i] * (1.f - amount.value)) + (buffer[R][i] * amount.value);
 4112              		.loc 4 43 43 view .LVU1107
 4113 037c 36EEE77A 		vsub.f32	s14, s13, s15
  43:DSP/FX/PitchShift.cpp ****         input[R][i] = (input[R][i] * (1.f - amount.value)) + (buffer[R][i] * amount.value);
 4114              		.loc 4 43 76 view .LVU1108
 4115 0380 67EE857A 		vmul.f32	s15, s15, s10
  43:DSP/FX/PitchShift.cpp ****         input[R][i] = (input[R][i] * (1.f - amount.value)) + (buffer[R][i] * amount.value);
 4116              		.loc 4 43 60 view .LVU1109
 4117 0384 E6EE077A 		vfma.f32	s15, s12, s14
  43:DSP/FX/PitchShift.cpp ****         input[R][i] = (input[R][i] * (1.f - amount.value)) + (buffer[R][i] * amount.value);
 4118              		.loc 4 43 21 view .LVU1110
 4119 0388 C0ED007A 		vstr.32	s15, [r0]
 4120              		.loc 4 44 9 is_stmt 1 view .LVU1111
 4121              		.loc 4 44 52 is_stmt 0 view .LVU1112
 4122 038c D4ED4A7A 		vldr.32	s15, [r4, #296]
ARM GAS  /var/folders/wz/z09yph4n0qj4t7mjxhl6ttn80000gn/T//ccPO7ASC.s 			page 116


 4123              		.loc 4 44 76 view .LVU1113
 4124 0390 9BED036A 		vldr.32	s12, [fp, #12]
 4125              		.loc 4 44 43 view .LVU1114
 4126 0394 76EEE76A 		vsub.f32	s13, s13, s15
 4127              		.loc 4 44 60 view .LVU1115
 4128 0398 96ED007A 		vldr.32	s14, [r6]
 4129              		.loc 4 44 76 view .LVU1116
 4130 039c 67EE867A 		vmul.f32	s15, s15, s12
 4131              		.loc 4 44 60 view .LVU1117
 4132 03a0 E7EE267A 		vfma.f32	s15, s14, s13
 4133              		.loc 4 44 21 view .LVU1118
 4134 03a4 C6ED007A 		vstr.32	s15, [r6]
  35:DSP/FX/PitchShift.cpp ****     {
 4135              		.loc 4 35 5 is_stmt 1 view .LVU1119
 4136              	.LVL209:
  35:DSP/FX/PitchShift.cpp ****     {
 4137              		.loc 4 35 26 view .LVU1120
 4138 03a8 7FF447AE 		bne	.L144
 4139              	.LVL210:
 4140              	.L131:
  35:DSP/FX/PitchShift.cpp ****     {
 4141              		.loc 4 35 26 is_stmt 0 view .LVU1121
 4142              	.LBE1747:
  45:DSP/FX/PitchShift.cpp ****     }
  46:DSP/FX/PitchShift.cpp **** }...
 4143              		.loc 4 46 1 view .LVU1122
 4144 03ac 03B0     		add	sp, sp, #12
 4145              		.cfi_remember_state
 4146              		.cfi_def_cfa_offset 68
 4147              	.LVL211:
 4148              		.loc 4 46 1 view .LVU1123
 4149              		@ sp needed
 4150 03ae BDEC088B 		vldm	sp!, {d8-d11}
 4151              		.cfi_restore 86
 4152              		.cfi_restore 87
 4153              		.cfi_restore 84
 4154              		.cfi_restore 85
 4155              		.cfi_restore 82
 4156              		.cfi_restore 83
 4157              		.cfi_restore 80
 4158              		.cfi_restore 81
 4159              		.cfi_def_cfa_offset 36
 4160 03b2 BDE8F08F 		pop	{r4, r5, r6, r7, r8, r9, r10, fp, pc}
 4161              	.LVL212:
 4162              	.L141:
 4163              		.cfi_restore_state
 4164              	.LBB2035:
 4165              	.LBB2033:
 4166              	.LBB2022:
  98:../../../DaisySP//Source/Effects/pitchshifter.h ****                          * (del_size_ * 0.5f);
 4167              		.loc 3 98 13 is_stmt 1 view .LVU1124
 4168              	.LBB1961:
 4169              	.LBI1961:
  31:../../../DaisySP//Source/Effects/pitchshifter.h **** {
 4170              		.loc 3 31 17 view .LVU1125
 4171              	.LBB1962:
  33:../../../DaisySP//Source/Effects/pitchshifter.h ****     seed                 = hash_xs32(seed);
ARM GAS  /var/folders/wz/z09yph4n0qj4t7mjxhl6ttn80000gn/T//ccPO7ASC.s 			page 117


 4172              		.loc 3 33 5 view .LVU1126
  34:../../../DaisySP//Source/Effects/pitchshifter.h ****     return seed;
 4173              		.loc 3 34 5 view .LVU1127
  34:../../../DaisySP//Source/Effects/pitchshifter.h ****     return seed;
 4174              		.loc 3 34 37 is_stmt 0 view .LVU1128
 4175 03b6 DFF8ACC0 		ldr	ip, .L156+32
 4176              	.LBE1962:
 4177              	.LBE1961:
  98:../../../DaisySP//Source/Effects/pitchshifter.h ****                          * (del_size_ * 0.5f);
 4178              		.loc 3 98 51 view .LVU1129
 4179 03ba 2448     		ldr	r0, .L156+8
 4180              	.LBB1975:
 4181              	.LBB1971:
  34:../../../DaisySP//Source/Effects/pitchshifter.h ****     return seed;
 4182              		.loc 3 34 37 view .LVU1130
 4183 03bc DCF80030 		ldr	r3, [ip]
 4184              	.LVL213:
 4185              	.LBB1963:
 4186              	.LBI1963:
  23:../../../DaisySP//Source/Effects/pitchshifter.h **** {
 4187              		.loc 3 23 24 is_stmt 1 view .LVU1131
 4188              	.LBB1964:
  25:../../../DaisySP//Source/Effects/pitchshifter.h ****     x ^= x >> 17;
 4189              		.loc 3 25 5 view .LVU1132
 4190              	.LBE1964:
 4191              	.LBE1963:
 4192              	.LBE1971:
 4193              	.LBE1975:
  98:../../../DaisySP//Source/Effects/pitchshifter.h ****                          * (del_size_ * 0.5f);
 4194              		.loc 3 98 58 is_stmt 0 view .LVU1133
 4195 03c0 DFED234A 		vldr.32	s9, .L156+12
 4196              	.LBB1976:
 4197              	.LBB1972:
 4198              	.LBB1968:
 4199              	.LBB1965:
  25:../../../DaisySP//Source/Effects/pitchshifter.h ****     x ^= x >> 17;
 4200              		.loc 3 25 7 view .LVU1134
 4201 03c4 83EA4333 		eor	r3, r3, r3, lsl #13
 4202              	.LVL214:
  26:../../../DaisySP//Source/Effects/pitchshifter.h ****     x ^= x << 5;
 4203              		.loc 3 26 5 is_stmt 1 view .LVU1135
 4204              	.LBE1965:
 4205              	.LBE1968:
 4206              	.LBE1972:
 4207              	.LBE1976:
 101:../../../DaisySP//Source/Effects/pitchshifter.h ****         }
 4208              		.loc 3 101 27 is_stmt 0 view .LVU1136
 4209 03c8 DFED225A 		vldr.32	s11, .L156+16
  98:../../../DaisySP//Source/Effects/pitchshifter.h ****                          * (del_size_ * 0.5f);
 4210              		.loc 3 98 31 view .LVU1137
 4211 03cc 94ED213A 		vldr.32	s6, [r4, #132]
 4212              	.LBB1977:
 4213              	.LBB1973:
 4214              	.LBB1969:
 4215              	.LBB1966:
  26:../../../DaisySP//Source/Effects/pitchshifter.h ****     x ^= x << 5;
 4216              		.loc 3 26 7 view .LVU1138
ARM GAS  /var/folders/wz/z09yph4n0qj4t7mjxhl6ttn80000gn/T//ccPO7ASC.s 			page 118


 4217 03d0 83EA5343 		eor	r3, r3, r3, lsr #17
 4218              	.LVL215:
  27:../../../DaisySP//Source/Effects/pitchshifter.h ****     return x;
 4219              		.loc 3 27 5 is_stmt 1 view .LVU1139
 4220              	.LBE1966:
 4221              	.LBE1969:
 4222              	.LBE1973:
 4223              	.LBE1977:
 101:../../../DaisySP//Source/Effects/pitchshifter.h ****         }
 4224              		.loc 3 101 27 is_stmt 0 view .LVU1140
 4225 03d4 9FED204A 		vldr.32	s8, .L156+20
 4226              	.LBB1978:
 4227              	.LBB1974:
 4228              	.LBB1970:
 4229              	.LBB1967:
  27:../../../DaisySP//Source/Effects/pitchshifter.h ****     return x;
 4230              		.loc 3 27 7 view .LVU1141
 4231 03d8 83EA4313 		eor	r3, r3, r3, lsl #5
 4232              	.LVL216:
  28:../../../DaisySP//Source/Effects/pitchshifter.h **** }
 4233              		.loc 3 28 5 is_stmt 1 view .LVU1142
  28:../../../DaisySP//Source/Effects/pitchshifter.h **** }
 4234              		.loc 3 28 5 is_stmt 0 view .LVU1143
 4235              	.LBE1967:
 4236              	.LBE1970:
  35:../../../DaisySP//Source/Effects/pitchshifter.h **** }
 4237              		.loc 3 35 5 is_stmt 1 view .LVU1144
 4238              	.LBE1974:
 4239              	.LBE1978:
 4240              	.LBB1979:
 4241              	.LBB1980:
 4242              	.LBB1981:
 4243              	.LBB1982:
  25:../../../DaisySP//Source/Effects/pitchshifter.h ****     x ^= x >> 17;
 4244              		.loc 3 25 7 is_stmt 0 view .LVU1145
 4245 03dc 83EA4331 		eor	r1, r3, r3, lsl #13
  26:../../../DaisySP//Source/Effects/pitchshifter.h ****     x ^= x << 5;
 4246              		.loc 3 26 7 view .LVU1146
 4247 03e0 81EA5141 		eor	r1, r1, r1, lsr #17
  27:../../../DaisySP//Source/Effects/pitchshifter.h ****     return x;
 4248              		.loc 3 27 7 view .LVU1147
 4249 03e4 81EA4111 		eor	r1, r1, r1, lsl #5
 4250              	.LBE1982:
 4251              	.LBE1981:
  34:../../../DaisySP//Source/Effects/pitchshifter.h ****     return seed;
 4252              		.loc 3 34 26 view .LVU1148
 4253 03e8 CCF80010 		str	r1, [ip]
 4254              	.LBE1980:
 4255              	.LBE1979:
  98:../../../DaisySP//Source/Effects/pitchshifter.h ****                          * (del_size_ * 0.5f);
 4256              		.loc 3 98 51 view .LVU1149
 4257 03ec A0FB03EC 		umull	lr, ip, r0, r3
 101:../../../DaisySP//Source/Effects/pitchshifter.h ****         }
 4258              		.loc 3 101 48 view .LVU1150
 4259 03f0 A0FB01E0 		umull	lr, r0, r0, r1
  98:../../../DaisySP//Source/Effects/pitchshifter.h ****                          * (del_size_ * 0.5f);
 4260              		.loc 3 98 51 view .LVU1151
ARM GAS  /var/folders/wz/z09yph4n0qj4t7mjxhl6ttn80000gn/T//ccPO7ASC.s 			page 119


 4261 03f4 4FEADC1C 		lsr	ip, ip, #7
 101:../../../DaisySP//Source/Effects/pitchshifter.h ****         }
 4262              		.loc 3 101 48 view .LVU1152
 4263 03f8 C009     		lsrs	r0, r0, #7
  98:../../../DaisySP//Source/Effects/pitchshifter.h ****                          * (del_size_ * 0.5f);
 4264              		.loc 3 98 51 view .LVU1153
 4265 03fa CCEB0C2C 		rsb	ip, ip, ip, lsl #8
 101:../../../DaisySP//Source/Effects/pitchshifter.h ****         }
 4266              		.loc 3 101 48 view .LVU1154
 4267 03fe C0EB0020 		rsb	r0, r0, r0, lsl #8
  98:../../../DaisySP//Source/Effects/pitchshifter.h ****                          * (del_size_ * 0.5f);
 4268              		.loc 3 98 51 view .LVU1155
 4269 0402 A3EB0C0C 		sub	ip, r3, ip
 101:../../../DaisySP//Source/Effects/pitchshifter.h ****         }
 4270              		.loc 3 101 48 view .LVU1156
 4271 0406 091A     		subs	r1, r1, r0
  98:../../../DaisySP//Source/Effects/pitchshifter.h ****                          * (del_size_ * 0.5f);
 4272              		.loc 3 98 34 view .LVU1157
 4273 0408 07EE90CA 		vmov	s15, ip	@ int
 4274 040c F8EEE76A 		vcvt.f32.s32	s13, s15
 101:../../../DaisySP//Source/Effects/pitchshifter.h ****         }
 4275              		.loc 3 101 31 view .LVU1158
 4276 0410 07EE901A 		vmov	s15, r1	@ int
 4277 0414 B8EEE76A 		vcvt.f32.s32	s12, s15
  98:../../../DaisySP//Source/Effects/pitchshifter.h ****                          * (del_size_ * 0.5f);
 4278              		.loc 3 98 58 view .LVU1159
 4279 0418 C6EEA47A 		vdiv.f32	s15, s13, s9
 101:../../../DaisySP//Source/Effects/pitchshifter.h ****         }
 4280              		.loc 3 101 55 view .LVU1160
 4281 041c C6EE243A 		vdiv.f32	s7, s12, s9
  99:../../../DaisySP//Source/Effects/pitchshifter.h ****             mod_coeff_[1]
 4282              		.loc 3 99 26 view .LVU1161
 4283 0420 06EE102A 		vmov	s12, r2	@ int
 101:../../../DaisySP//Source/Effects/pitchshifter.h ****         }
 4284              		.loc 3 101 27 view .LVU1162
 4285 0424 F0EE656A 		vmov.f32	s13, s11
  99:../../../DaisySP//Source/Effects/pitchshifter.h ****             mod_coeff_[1]
 4286              		.loc 3 99 26 view .LVU1163
 4287 0428 BBEEEF6A 		vcvt.f32.u32	s12, s12, #1
  98:../../../DaisySP//Source/Effects/pitchshifter.h ****                          * (del_size_ * 0.5f);
 4288              		.loc 3 98 31 view .LVU1164
 4289 042c 67EE837A 		vmul.f32	s15, s15, s6
  99:../../../DaisySP//Source/Effects/pitchshifter.h ****             mod_coeff_[1]
 4290              		.loc 3 99 26 view .LVU1165
 4291 0430 67EE867A 		vmul.f32	s15, s15, s12
 101:../../../DaisySP//Source/Effects/pitchshifter.h ****         }
 4292              		.loc 3 101 27 view .LVU1166
 4293 0434 E3EE846A 		vfma.f32	s13, s7, s8
  98:../../../DaisySP//Source/Effects/pitchshifter.h ****                          * (del_size_ * 0.5f);
 4294              		.loc 3 98 24 view .LVU1167
 4295 0438 C4ED237A 		vstr.32	s15, [r4, #140]
 100:../../../DaisySP//Source/Effects/pitchshifter.h ****                 = 0.0002f + (((float)(myrand() % 255) / 255.0f) * 0.001f);
 4296              		.loc 3 100 13 is_stmt 1 view .LVU1168
 4297              	.LBB1986:
 4298              	.LBI1979:
  31:../../../DaisySP//Source/Effects/pitchshifter.h **** {
 4299              		.loc 3 31 17 view .LVU1169
ARM GAS  /var/folders/wz/z09yph4n0qj4t7mjxhl6ttn80000gn/T//ccPO7ASC.s 			page 120


 4300              	.LBB1985:
  33:../../../DaisySP//Source/Effects/pitchshifter.h ****     seed                 = hash_xs32(seed);
 4301              		.loc 3 33 5 view .LVU1170
  34:../../../DaisySP//Source/Effects/pitchshifter.h ****     return seed;
 4302              		.loc 3 34 5 view .LVU1171
 4303              	.LVL217:
 4304              	.LBB1984:
 4305              	.LBI1981:
  23:../../../DaisySP//Source/Effects/pitchshifter.h **** {
 4306              		.loc 3 23 24 view .LVU1172
 4307              	.LBB1983:
  25:../../../DaisySP//Source/Effects/pitchshifter.h ****     x ^= x >> 17;
 4308              		.loc 3 25 5 view .LVU1173
  26:../../../DaisySP//Source/Effects/pitchshifter.h ****     x ^= x << 5;
 4309              		.loc 3 26 5 view .LVU1174
  27:../../../DaisySP//Source/Effects/pitchshifter.h ****     return x;
 4310              		.loc 3 27 5 view .LVU1175
  28:../../../DaisySP//Source/Effects/pitchshifter.h **** }
 4311              		.loc 3 28 5 view .LVU1176
  28:../../../DaisySP//Source/Effects/pitchshifter.h **** }
 4312              		.loc 3 28 5 is_stmt 0 view .LVU1177
 4313              	.LBE1983:
 4314              	.LBE1984:
  35:../../../DaisySP//Source/Effects/pitchshifter.h **** }
 4315              		.loc 3 35 5 is_stmt 1 view .LVU1178
 4316              	.LBE1985:
 4317              	.LBE1986:
 101:../../../DaisySP//Source/Effects/pitchshifter.h ****         }
 4318              		.loc 3 101 17 is_stmt 0 view .LVU1179
 4319 043c C4ED296A 		vstr.32	s13, [r4, #164]
 4320 0440 EBE6     		b	.L142
 4321              	.L157:
 4322 0442 00BF     		.align	2
 4323              	.L156:
 4324 0444 DB0F4940 		.word	1078530011
 4325 0448 00000000 		.word	0
 4326 044c 81808080 		.word	-2139062143
 4327 0450 00007F43 		.word	1132396544
 4328 0454 17B75139 		.word	961656599
 4329 0458 6F12833A 		.word	981668463
 4330 045c 50000200 		.word	131152
 4331 0460 60000200 		.word	131168
 4332 0464 00000000 		.word	_ZZN7daisysp6myrandEvE4seed
 4333              	.L139:
  91:../../../DaisySP//Source/Effects/pitchshifter.h ****                          * (del_size_ * 0.5f);
 4334              		.loc 3 91 13 is_stmt 1 view .LVU1180
 4335              	.LBB1987:
 4336              	.LBI1987:
  31:../../../DaisySP//Source/Effects/pitchshifter.h **** {
 4337              		.loc 3 31 17 view .LVU1181
 4338              	.LBB1988:
  33:../../../DaisySP//Source/Effects/pitchshifter.h ****     seed                 = hash_xs32(seed);
 4339              		.loc 3 33 5 view .LVU1182
  34:../../../DaisySP//Source/Effects/pitchshifter.h ****     return seed;
 4340              		.loc 3 34 5 view .LVU1183
  34:../../../DaisySP//Source/Effects/pitchshifter.h ****     return seed;
 4341              		.loc 3 34 37 is_stmt 0 view .LVU1184
ARM GAS  /var/folders/wz/z09yph4n0qj4t7mjxhl6ttn80000gn/T//ccPO7ASC.s 			page 121


 4342 0468 DFF8BCC1 		ldr	ip, .L158+16
 4343              	.LBE1988:
 4344              	.LBE1987:
  91:../../../DaisySP//Source/Effects/pitchshifter.h ****                          * (del_size_ * 0.5f);
 4345              		.loc 3 91 51 view .LVU1185
 4346 046c 6A48     		ldr	r0, .L158
 4347              	.LBB2001:
 4348              	.LBB1997:
  34:../../../DaisySP//Source/Effects/pitchshifter.h ****     return seed;
 4349              		.loc 3 34 37 view .LVU1186
 4350 046e DCF80030 		ldr	r3, [ip]
 4351              	.LVL218:
 4352              	.LBB1989:
 4353              	.LBI1989:
  23:../../../DaisySP//Source/Effects/pitchshifter.h **** {
 4354              		.loc 3 23 24 is_stmt 1 view .LVU1187
 4355              	.LBB1990:
  25:../../../DaisySP//Source/Effects/pitchshifter.h ****     x ^= x >> 17;
 4356              		.loc 3 25 5 view .LVU1188
 4357              	.LBE1990:
 4358              	.LBE1989:
 4359              	.LBE1997:
 4360              	.LBE2001:
  91:../../../DaisySP//Source/Effects/pitchshifter.h ****                          * (del_size_ * 0.5f);
 4361              		.loc 3 91 58 is_stmt 0 view .LVU1189
 4362 0472 9FED6A6A 		vldr.32	s12, .L158+4
 4363              	.LBB2002:
 4364              	.LBB1998:
 4365              	.LBB1994:
 4366              	.LBB1991:
  25:../../../DaisySP//Source/Effects/pitchshifter.h ****     x ^= x >> 17;
 4367              		.loc 3 25 7 view .LVU1190
 4368 0476 83EA4333 		eor	r3, r3, r3, lsl #13
 4369              	.LVL219:
  26:../../../DaisySP//Source/Effects/pitchshifter.h ****     x ^= x << 5;
 4370              		.loc 3 26 5 is_stmt 1 view .LVU1191
 4371              	.LBE1991:
 4372              	.LBE1994:
 4373              	.LBE1998:
 4374              	.LBE2002:
  92:../../../DaisySP//Source/Effects/pitchshifter.h ****             mod_coeff_[0]
 4375              		.loc 3 92 29 is_stmt 0 view .LVU1192
 4376 047a 226C     		ldr	r2, [r4, #64]
  91:../../../DaisySP//Source/Effects/pitchshifter.h ****                          * (del_size_ * 0.5f);
 4377              		.loc 3 91 31 view .LVU1193
 4378 047c 94ED214A 		vldr.32	s8, [r4, #132]
 4379              	.LBB2003:
 4380              	.LBB1999:
 4381              	.LBB1995:
 4382              	.LBB1992:
  26:../../../DaisySP//Source/Effects/pitchshifter.h ****     x ^= x << 5;
 4383              		.loc 3 26 7 view .LVU1194
 4384 0480 83EA5343 		eor	r3, r3, r3, lsr #17
 4385              	.LVL220:
  27:../../../DaisySP//Source/Effects/pitchshifter.h ****     return x;
 4386              		.loc 3 27 5 is_stmt 1 view .LVU1195
 4387              	.LBE1992:
ARM GAS  /var/folders/wz/z09yph4n0qj4t7mjxhl6ttn80000gn/T//ccPO7ASC.s 			page 122


 4388              	.LBE1995:
 4389              	.LBE1999:
 4390              	.LBE2003:
  94:../../../DaisySP//Source/Effects/pitchshifter.h ****         }
 4391              		.loc 3 94 27 is_stmt 0 view .LVU1196
 4392 0484 DFED664A 		vldr.32	s9, .L158+8
 4393 0488 9FED665A 		vldr.32	s10, .L158+12
  92:../../../DaisySP//Source/Effects/pitchshifter.h ****             mod_coeff_[0]
 4394              		.loc 3 92 39 view .LVU1197
 4395 048c 05EE902A 		vmov	s11, r2	@ int
 4396              	.LBB2004:
 4397              	.LBB2000:
 4398              	.LBB1996:
 4399              	.LBB1993:
  27:../../../DaisySP//Source/Effects/pitchshifter.h ****     return x;
 4400              		.loc 3 27 7 view .LVU1198
 4401 0490 83EA4313 		eor	r3, r3, r3, lsl #5
 4402              	.LVL221:
  28:../../../DaisySP//Source/Effects/pitchshifter.h **** }
 4403              		.loc 3 28 5 is_stmt 1 view .LVU1199
  28:../../../DaisySP//Source/Effects/pitchshifter.h **** }
 4404              		.loc 3 28 5 is_stmt 0 view .LVU1200
 4405              	.LBE1993:
 4406              	.LBE1996:
  35:../../../DaisySP//Source/Effects/pitchshifter.h **** }
 4407              		.loc 3 35 5 is_stmt 1 view .LVU1201
 4408              	.LBE2000:
 4409              	.LBE2004:
  92:../../../DaisySP//Source/Effects/pitchshifter.h ****             mod_coeff_[0]
 4410              		.loc 3 92 39 is_stmt 0 view .LVU1202
 4411 0494 FBEEEF5A 		vcvt.f32.u32	s11, s11, #1
 4412              	.LBB2005:
 4413              	.LBB2006:
 4414              	.LBB2007:
 4415              	.LBB2008:
  25:../../../DaisySP//Source/Effects/pitchshifter.h ****     x ^= x >> 17;
 4416              		.loc 3 25 7 view .LVU1203
 4417 0498 83EA4331 		eor	r1, r3, r3, lsl #13
  26:../../../DaisySP//Source/Effects/pitchshifter.h ****     x ^= x << 5;
 4418              		.loc 3 26 7 view .LVU1204
 4419 049c 81EA5141 		eor	r1, r1, r1, lsr #17
  27:../../../DaisySP//Source/Effects/pitchshifter.h ****     return x;
 4420              		.loc 3 27 7 view .LVU1205
 4421 04a0 81EA4111 		eor	r1, r1, r1, lsl #5
 4422              	.LBE2008:
 4423              	.LBE2007:
  34:../../../DaisySP//Source/Effects/pitchshifter.h ****     return seed;
 4424              		.loc 3 34 26 view .LVU1206
 4425 04a4 CCF80010 		str	r1, [ip]
 4426              	.LBE2006:
 4427              	.LBE2005:
  91:../../../DaisySP//Source/Effects/pitchshifter.h ****                          * (del_size_ * 0.5f);
 4428              		.loc 3 91 51 view .LVU1207
 4429 04a8 A0FB03EC 		umull	lr, ip, r0, r3
  94:../../../DaisySP//Source/Effects/pitchshifter.h ****         }
 4430              		.loc 3 94 48 view .LVU1208
 4431 04ac A0FB01E0 		umull	lr, r0, r0, r1
ARM GAS  /var/folders/wz/z09yph4n0qj4t7mjxhl6ttn80000gn/T//ccPO7ASC.s 			page 123


  91:../../../DaisySP//Source/Effects/pitchshifter.h ****                          * (del_size_ * 0.5f);
 4432              		.loc 3 91 51 view .LVU1209
 4433 04b0 4FEADC1C 		lsr	ip, ip, #7
  94:../../../DaisySP//Source/Effects/pitchshifter.h ****         }
 4434              		.loc 3 94 48 view .LVU1210
 4435 04b4 C009     		lsrs	r0, r0, #7
  91:../../../DaisySP//Source/Effects/pitchshifter.h ****                          * (del_size_ * 0.5f);
 4436              		.loc 3 91 51 view .LVU1211
 4437 04b6 CCEB0C2C 		rsb	ip, ip, ip, lsl #8
  94:../../../DaisySP//Source/Effects/pitchshifter.h ****         }
 4438              		.loc 3 94 48 view .LVU1212
 4439 04ba C0EB0020 		rsb	r0, r0, r0, lsl #8
  91:../../../DaisySP//Source/Effects/pitchshifter.h ****                          * (del_size_ * 0.5f);
 4440              		.loc 3 91 51 view .LVU1213
 4441 04be A3EB0C0C 		sub	ip, r3, ip
  94:../../../DaisySP//Source/Effects/pitchshifter.h ****         }
 4442              		.loc 3 94 48 view .LVU1214
 4443 04c2 091A     		subs	r1, r1, r0
  91:../../../DaisySP//Source/Effects/pitchshifter.h ****                          * (del_size_ * 0.5f);
 4444              		.loc 3 91 34 view .LVU1215
 4445 04c4 07EE90CA 		vmov	s15, ip	@ int
  94:../../../DaisySP//Source/Effects/pitchshifter.h ****         }
 4446              		.loc 3 94 31 view .LVU1216
 4447 04c8 07EE101A 		vmov	s14, r1	@ int
  91:../../../DaisySP//Source/Effects/pitchshifter.h ****                          * (del_size_ * 0.5f);
 4448              		.loc 3 91 34 view .LVU1217
 4449 04cc F8EEE77A 		vcvt.f32.s32	s15, s15
  94:../../../DaisySP//Source/Effects/pitchshifter.h ****         }
 4450              		.loc 3 94 31 view .LVU1218
 4451 04d0 F8EEC76A 		vcvt.f32.s32	s13, s14
  91:../../../DaisySP//Source/Effects/pitchshifter.h ****                          * (del_size_ * 0.5f);
 4452              		.loc 3 91 58 view .LVU1219
 4453 04d4 87EE867A 		vdiv.f32	s14, s15, s12
  94:../../../DaisySP//Source/Effects/pitchshifter.h ****         }
 4454              		.loc 3 94 55 view .LVU1220
 4455 04d8 C6EE867A 		vdiv.f32	s15, s13, s12
  91:../../../DaisySP//Source/Effects/pitchshifter.h ****                          * (del_size_ * 0.5f);
 4456              		.loc 3 91 31 view .LVU1221
 4457 04dc 27EE047A 		vmul.f32	s14, s14, s8
  92:../../../DaisySP//Source/Effects/pitchshifter.h ****             mod_coeff_[0]
 4458              		.loc 3 92 26 view .LVU1222
 4459 04e0 27EE257A 		vmul.f32	s14, s14, s11
  94:../../../DaisySP//Source/Effects/pitchshifter.h ****         }
 4460              		.loc 3 94 27 view .LVU1223
 4461 04e4 A7EEA45A 		vfma.f32	s10, s15, s9
  91:../../../DaisySP//Source/Effects/pitchshifter.h ****                          * (del_size_ * 0.5f);
 4462              		.loc 3 91 24 view .LVU1224
 4463 04e8 84ED227A 		vstr.32	s14, [r4, #136]
  93:../../../DaisySP//Source/Effects/pitchshifter.h ****                 = 0.0002f + (((float)(myrand() % 255) / 255.0f) * 0.001f);
 4464              		.loc 3 93 13 is_stmt 1 view .LVU1225
 4465              	.LBB2012:
 4466              	.LBI2005:
  31:../../../DaisySP//Source/Effects/pitchshifter.h **** {
 4467              		.loc 3 31 17 view .LVU1226
 4468              	.LBB2011:
  33:../../../DaisySP//Source/Effects/pitchshifter.h ****     seed                 = hash_xs32(seed);
 4469              		.loc 3 33 5 view .LVU1227
ARM GAS  /var/folders/wz/z09yph4n0qj4t7mjxhl6ttn80000gn/T//ccPO7ASC.s 			page 124


  34:../../../DaisySP//Source/Effects/pitchshifter.h ****     return seed;
 4470              		.loc 3 34 5 view .LVU1228
 4471              	.LVL222:
 4472              	.LBB2010:
 4473              	.LBI2007:
  23:../../../DaisySP//Source/Effects/pitchshifter.h **** {
 4474              		.loc 3 23 24 view .LVU1229
 4475              	.LBB2009:
  25:../../../DaisySP//Source/Effects/pitchshifter.h ****     x ^= x >> 17;
 4476              		.loc 3 25 5 view .LVU1230
  26:../../../DaisySP//Source/Effects/pitchshifter.h ****     x ^= x << 5;
 4477              		.loc 3 26 5 view .LVU1231
  27:../../../DaisySP//Source/Effects/pitchshifter.h ****     return x;
 4478              		.loc 3 27 5 view .LVU1232
  28:../../../DaisySP//Source/Effects/pitchshifter.h **** }
 4479              		.loc 3 28 5 view .LVU1233
  28:../../../DaisySP//Source/Effects/pitchshifter.h **** }
 4480              		.loc 3 28 5 is_stmt 0 view .LVU1234
 4481              	.LBE2009:
 4482              	.LBE2010:
  35:../../../DaisySP//Source/Effects/pitchshifter.h **** }
 4483              		.loc 3 35 5 is_stmt 1 view .LVU1235
 4484              	.LBE2011:
 4485              	.LBE2012:
  94:../../../DaisySP//Source/Effects/pitchshifter.h ****         }
 4486              		.loc 3 94 17 is_stmt 0 view .LVU1236
 4487 04ec 84ED285A 		vstr.32	s10, [r4, #160]
 4488 04f0 87E6     		b	.L140
 4489              	.LVL223:
 4490              	.L134:
  94:../../../DaisySP//Source/Effects/pitchshifter.h ****         }
 4491              		.loc 3 94 17 view .LVU1237
 4492              	.LBE2022:
 4493              	.LBE2033:
 4494              	.LBB2034:
 4495              	.LBB1879:
  91:../../../DaisySP//Source/Effects/pitchshifter.h ****                          * (del_size_ * 0.5f);
 4496              		.loc 3 91 13 is_stmt 1 view .LVU1238
 4497              	.LBB1820:
 4498              	.LBI1820:
  31:../../../DaisySP//Source/Effects/pitchshifter.h **** {
 4499              		.loc 3 31 17 view .LVU1239
 4500              	.LBB1821:
  33:../../../DaisySP//Source/Effects/pitchshifter.h ****     seed                 = hash_xs32(seed);
 4501              		.loc 3 33 5 view .LVU1240
  34:../../../DaisySP//Source/Effects/pitchshifter.h ****     return seed;
 4502              		.loc 3 34 5 view .LVU1241
  34:../../../DaisySP//Source/Effects/pitchshifter.h ****     return seed;
 4503              		.loc 3 34 37 is_stmt 0 view .LVU1242
 4504 04f2 DFF834C1 		ldr	ip, .L158+16
 4505              	.LBE1821:
 4506              	.LBE1820:
  91:../../../DaisySP//Source/Effects/pitchshifter.h ****                          * (del_size_ * 0.5f);
 4507              		.loc 3 91 51 view .LVU1243
 4508 04f6 4848     		ldr	r0, .L158
 4509              	.LBB1834:
 4510              	.LBB1830:
ARM GAS  /var/folders/wz/z09yph4n0qj4t7mjxhl6ttn80000gn/T//ccPO7ASC.s 			page 125


  34:../../../DaisySP//Source/Effects/pitchshifter.h ****     return seed;
 4511              		.loc 3 34 37 view .LVU1244
 4512 04f8 DCF80030 		ldr	r3, [ip]
 4513              	.LVL224:
 4514              	.LBB1822:
 4515              	.LBI1822:
  23:../../../DaisySP//Source/Effects/pitchshifter.h **** {
 4516              		.loc 3 23 24 is_stmt 1 view .LVU1245
 4517              	.LBB1823:
  25:../../../DaisySP//Source/Effects/pitchshifter.h ****     x ^= x >> 17;
 4518              		.loc 3 25 5 view .LVU1246
 4519              	.LBE1823:
 4520              	.LBE1822:
 4521              	.LBE1830:
 4522              	.LBE1834:
  91:../../../DaisySP//Source/Effects/pitchshifter.h ****                          * (del_size_ * 0.5f);
 4523              		.loc 3 91 58 is_stmt 0 view .LVU1247
 4524 04fc 9FED476A 		vldr.32	s12, .L158+4
 4525              	.LBB1835:
 4526              	.LBB1831:
 4527              	.LBB1827:
 4528              	.LBB1824:
  25:../../../DaisySP//Source/Effects/pitchshifter.h ****     x ^= x >> 17;
 4529              		.loc 3 25 7 view .LVU1248
 4530 0500 83EA4333 		eor	r3, r3, r3, lsl #13
 4531              	.LVL225:
  26:../../../DaisySP//Source/Effects/pitchshifter.h ****     x ^= x << 5;
 4532              		.loc 3 26 5 is_stmt 1 view .LVU1249
 4533              	.LBE1824:
 4534              	.LBE1827:
 4535              	.LBE1831:
 4536              	.LBE1835:
  94:../../../DaisySP//Source/Effects/pitchshifter.h ****         }
 4537              		.loc 3 94 27 is_stmt 0 view .LVU1250
 4538 0504 DFED464A 		vldr.32	s9, .L158+8
 4539 0508 9FED465A 		vldr.32	s10, .L158+12
 4540              	.LBB1836:
 4541              	.LBB1832:
 4542              	.LBB1828:
 4543              	.LBB1825:
  26:../../../DaisySP//Source/Effects/pitchshifter.h ****     x ^= x << 5;
 4544              		.loc 3 26 7 view .LVU1251
 4545 050c 83EA5343 		eor	r3, r3, r3, lsr #17
 4546              	.LVL226:
  27:../../../DaisySP//Source/Effects/pitchshifter.h ****     return x;
 4547              		.loc 3 27 5 is_stmt 1 view .LVU1252
 4548              	.LBE1825:
 4549              	.LBE1828:
 4550              	.LBE1832:
 4551              	.LBE1836:
  92:../../../DaisySP//Source/Effects/pitchshifter.h ****             mod_coeff_[0]
 4552              		.loc 3 92 29 is_stmt 0 view .LVU1253
 4553 0510 226C     		ldr	r2, [r4, #64]
  91:../../../DaisySP//Source/Effects/pitchshifter.h ****                          * (del_size_ * 0.5f);
 4554              		.loc 3 91 31 view .LVU1254
 4555 0512 94ED214A 		vldr.32	s8, [r4, #132]
 4556              	.LBB1837:
ARM GAS  /var/folders/wz/z09yph4n0qj4t7mjxhl6ttn80000gn/T//ccPO7ASC.s 			page 126


 4557              	.LBB1833:
 4558              	.LBB1829:
 4559              	.LBB1826:
  27:../../../DaisySP//Source/Effects/pitchshifter.h ****     return x;
 4560              		.loc 3 27 7 view .LVU1255
 4561 0516 83EA4313 		eor	r3, r3, r3, lsl #5
 4562              	.LVL227:
  28:../../../DaisySP//Source/Effects/pitchshifter.h **** }
 4563              		.loc 3 28 5 is_stmt 1 view .LVU1256
  28:../../../DaisySP//Source/Effects/pitchshifter.h **** }
 4564              		.loc 3 28 5 is_stmt 0 view .LVU1257
 4565              	.LBE1826:
 4566              	.LBE1829:
  35:../../../DaisySP//Source/Effects/pitchshifter.h **** }
 4567              		.loc 3 35 5 is_stmt 1 view .LVU1258
 4568              	.LBE1833:
 4569              	.LBE1837:
  92:../../../DaisySP//Source/Effects/pitchshifter.h ****             mod_coeff_[0]
 4570              		.loc 3 92 39 is_stmt 0 view .LVU1259
 4571 051a 05EE902A 		vmov	s11, r2	@ int
 4572              	.LBB1838:
 4573              	.LBB1839:
 4574              	.LBB1840:
 4575              	.LBB1841:
  25:../../../DaisySP//Source/Effects/pitchshifter.h ****     x ^= x >> 17;
 4576              		.loc 3 25 7 view .LVU1260
 4577 051e 83EA4331 		eor	r1, r3, r3, lsl #13
 4578              	.LBE1841:
 4579              	.LBE1840:
 4580              	.LBE1839:
 4581              	.LBE1838:
  92:../../../DaisySP//Source/Effects/pitchshifter.h ****             mod_coeff_[0]
 4582              		.loc 3 92 39 view .LVU1261
 4583 0522 FBEEEF5A 		vcvt.f32.u32	s11, s11, #1
 4584              	.LBB1848:
 4585              	.LBB1846:
 4586              	.LBB1844:
 4587              	.LBB1842:
  26:../../../DaisySP//Source/Effects/pitchshifter.h ****     x ^= x << 5;
 4588              		.loc 3 26 7 view .LVU1262
 4589 0526 81EA5141 		eor	r1, r1, r1, lsr #17
  27:../../../DaisySP//Source/Effects/pitchshifter.h ****     return x;
 4590              		.loc 3 27 7 view .LVU1263
 4591 052a 81EA4111 		eor	r1, r1, r1, lsl #5
 4592              	.LBE1842:
 4593              	.LBE1844:
  34:../../../DaisySP//Source/Effects/pitchshifter.h ****     return seed;
 4594              		.loc 3 34 26 view .LVU1264
 4595 052e CCF80010 		str	r1, [ip]
 4596              	.LBE1846:
 4597              	.LBE1848:
  91:../../../DaisySP//Source/Effects/pitchshifter.h ****                          * (del_size_ * 0.5f);
 4598              		.loc 3 91 51 view .LVU1265
 4599 0532 A0FB03EC 		umull	lr, ip, r0, r3
  94:../../../DaisySP//Source/Effects/pitchshifter.h ****         }
 4600              		.loc 3 94 48 view .LVU1266
 4601 0536 A0FB01E0 		umull	lr, r0, r0, r1
ARM GAS  /var/folders/wz/z09yph4n0qj4t7mjxhl6ttn80000gn/T//ccPO7ASC.s 			page 127


  91:../../../DaisySP//Source/Effects/pitchshifter.h ****                          * (del_size_ * 0.5f);
 4602              		.loc 3 91 51 view .LVU1267
 4603 053a 4FEADC1C 		lsr	ip, ip, #7
  94:../../../DaisySP//Source/Effects/pitchshifter.h ****         }
 4604              		.loc 3 94 48 view .LVU1268
 4605 053e C009     		lsrs	r0, r0, #7
  91:../../../DaisySP//Source/Effects/pitchshifter.h ****                          * (del_size_ * 0.5f);
 4606              		.loc 3 91 51 view .LVU1269
 4607 0540 CCEB0C2C 		rsb	ip, ip, ip, lsl #8
  94:../../../DaisySP//Source/Effects/pitchshifter.h ****         }
 4608              		.loc 3 94 48 view .LVU1270
 4609 0544 C0EB0020 		rsb	r0, r0, r0, lsl #8
  91:../../../DaisySP//Source/Effects/pitchshifter.h ****                          * (del_size_ * 0.5f);
 4610              		.loc 3 91 51 view .LVU1271
 4611 0548 A3EB0C0C 		sub	ip, r3, ip
  94:../../../DaisySP//Source/Effects/pitchshifter.h ****         }
 4612              		.loc 3 94 48 view .LVU1272
 4613 054c 091A     		subs	r1, r1, r0
  91:../../../DaisySP//Source/Effects/pitchshifter.h ****                          * (del_size_ * 0.5f);
 4614              		.loc 3 91 34 view .LVU1273
 4615 054e 07EE90CA 		vmov	s15, ip	@ int
  94:../../../DaisySP//Source/Effects/pitchshifter.h ****         }
 4616              		.loc 3 94 31 view .LVU1274
 4617 0552 07EE101A 		vmov	s14, r1	@ int
  91:../../../DaisySP//Source/Effects/pitchshifter.h ****                          * (del_size_ * 0.5f);
 4618              		.loc 3 91 34 view .LVU1275
 4619 0556 F8EEE77A 		vcvt.f32.s32	s15, s15
  94:../../../DaisySP//Source/Effects/pitchshifter.h ****         }
 4620              		.loc 3 94 31 view .LVU1276
 4621 055a F8EEC76A 		vcvt.f32.s32	s13, s14
  91:../../../DaisySP//Source/Effects/pitchshifter.h ****                          * (del_size_ * 0.5f);
 4622              		.loc 3 91 58 view .LVU1277
 4623 055e 87EE867A 		vdiv.f32	s14, s15, s12
  94:../../../DaisySP//Source/Effects/pitchshifter.h ****         }
 4624              		.loc 3 94 55 view .LVU1278
 4625 0562 C6EE867A 		vdiv.f32	s15, s13, s12
  91:../../../DaisySP//Source/Effects/pitchshifter.h ****                          * (del_size_ * 0.5f);
 4626              		.loc 3 91 31 view .LVU1279
 4627 0566 27EE047A 		vmul.f32	s14, s14, s8
  92:../../../DaisySP//Source/Effects/pitchshifter.h ****             mod_coeff_[0]
 4628              		.loc 3 92 26 view .LVU1280
 4629 056a 27EE257A 		vmul.f32	s14, s14, s11
  94:../../../DaisySP//Source/Effects/pitchshifter.h ****         }
 4630              		.loc 3 94 27 view .LVU1281
 4631 056e A7EEA45A 		vfma.f32	s10, s15, s9
  96:../../../DaisySP//Source/Effects/pitchshifter.h ****         {
 4632              		.loc 3 96 9 view .LVU1282
 4633 0572 D4ED257A 		vldr.32	s15, [r4, #148]
  91:../../../DaisySP//Source/Effects/pitchshifter.h ****                          * (del_size_ * 0.5f);
 4634              		.loc 3 91 24 view .LVU1283
 4635 0576 84ED227A 		vstr.32	s14, [r4, #136]
  93:../../../DaisySP//Source/Effects/pitchshifter.h ****                 = 0.0002f + (((float)(myrand() % 255) / 255.0f) * 0.001f);
 4636              		.loc 3 93 13 is_stmt 1 view .LVU1284
 4637              	.LBB1849:
 4638              	.LBI1838:
  31:../../../DaisySP//Source/Effects/pitchshifter.h **** {
 4639              		.loc 3 31 17 view .LVU1285
ARM GAS  /var/folders/wz/z09yph4n0qj4t7mjxhl6ttn80000gn/T//ccPO7ASC.s 			page 128


 4640              	.LBB1847:
  33:../../../DaisySP//Source/Effects/pitchshifter.h ****     seed                 = hash_xs32(seed);
 4641              		.loc 3 33 5 view .LVU1286
  34:../../../DaisySP//Source/Effects/pitchshifter.h ****     return seed;
 4642              		.loc 3 34 5 view .LVU1287
 4643              	.LVL228:
 4644              	.LBB1845:
 4645              	.LBI1840:
  23:../../../DaisySP//Source/Effects/pitchshifter.h **** {
 4646              		.loc 3 23 24 view .LVU1288
 4647              	.LBB1843:
  25:../../../DaisySP//Source/Effects/pitchshifter.h ****     x ^= x >> 17;
 4648              		.loc 3 25 5 view .LVU1289
  26:../../../DaisySP//Source/Effects/pitchshifter.h ****     x ^= x << 5;
 4649              		.loc 3 26 5 view .LVU1290
  27:../../../DaisySP//Source/Effects/pitchshifter.h ****     return x;
 4650              		.loc 3 27 5 view .LVU1291
  28:../../../DaisySP//Source/Effects/pitchshifter.h **** }
 4651              		.loc 3 28 5 view .LVU1292
  28:../../../DaisySP//Source/Effects/pitchshifter.h **** }
 4652              		.loc 3 28 5 is_stmt 0 view .LVU1293
 4653              	.LBE1843:
 4654              	.LBE1845:
  35:../../../DaisySP//Source/Effects/pitchshifter.h **** }
 4655              		.loc 3 35 5 is_stmt 1 view .LVU1294
 4656              	.LBE1847:
 4657              	.LBE1849:
  96:../../../DaisySP//Source/Effects/pitchshifter.h ****         {
 4658              		.loc 3 96 9 is_stmt 0 view .LVU1295
 4659 057a B4EEE7AA 		vcmpe.f32	s20, s15
 4660 057e F1EE10FA 		vmrs	APSR_nzcv, FPSCR
  94:../../../DaisySP//Source/Effects/pitchshifter.h ****         }
 4661              		.loc 3 94 17 view .LVU1296
 4662 0582 84ED285A 		vstr.32	s10, [r4, #160]
  96:../../../DaisySP//Source/Effects/pitchshifter.h ****         {
 4663              		.loc 3 96 9 is_stmt 1 view .LVU1297
 4664 0586 7FF582AD 		bpl	.L155
 4665              	.L136:
  98:../../../DaisySP//Source/Effects/pitchshifter.h ****                          * (del_size_ * 0.5f);
 4666              		.loc 3 98 13 view .LVU1298
 4667              	.LBB1850:
 4668              	.LBI1850:
  31:../../../DaisySP//Source/Effects/pitchshifter.h **** {
 4669              		.loc 3 31 17 view .LVU1299
 4670              	.LBB1851:
  33:../../../DaisySP//Source/Effects/pitchshifter.h ****     seed                 = hash_xs32(seed);
 4671              		.loc 3 33 5 view .LVU1300
  34:../../../DaisySP//Source/Effects/pitchshifter.h ****     return seed;
 4672              		.loc 3 34 5 view .LVU1301
  34:../../../DaisySP//Source/Effects/pitchshifter.h ****     return seed;
 4673              		.loc 3 34 37 is_stmt 0 view .LVU1302
 4674 058a DFF89CC0 		ldr	ip, .L158+16
 4675              	.LBE1851:
 4676              	.LBE1850:
  98:../../../DaisySP//Source/Effects/pitchshifter.h ****                          * (del_size_ * 0.5f);
 4677              		.loc 3 98 51 view .LVU1303
 4678 058e 2248     		ldr	r0, .L158
ARM GAS  /var/folders/wz/z09yph4n0qj4t7mjxhl6ttn80000gn/T//ccPO7ASC.s 			page 129


 4679              	.LBB1864:
 4680              	.LBB1860:
  34:../../../DaisySP//Source/Effects/pitchshifter.h ****     return seed;
 4681              		.loc 3 34 37 view .LVU1304
 4682 0590 DCF80030 		ldr	r3, [ip]
 4683              	.LVL229:
 4684              	.LBB1852:
 4685              	.LBI1852:
  23:../../../DaisySP//Source/Effects/pitchshifter.h **** {
 4686              		.loc 3 23 24 is_stmt 1 view .LVU1305
 4687              	.LBB1853:
  25:../../../DaisySP//Source/Effects/pitchshifter.h ****     x ^= x >> 17;
 4688              		.loc 3 25 5 view .LVU1306
 4689              	.LBE1853:
 4690              	.LBE1852:
 4691              	.LBE1860:
 4692              	.LBE1864:
  98:../../../DaisySP//Source/Effects/pitchshifter.h ****                          * (del_size_ * 0.5f);
 4693              		.loc 3 98 58 is_stmt 0 view .LVU1307
 4694 0594 DFED214A 		vldr.32	s9, .L158+4
 4695              	.LBB1865:
 4696              	.LBB1861:
 4697              	.LBB1857:
 4698              	.LBB1854:
  25:../../../DaisySP//Source/Effects/pitchshifter.h ****     x ^= x >> 17;
 4699              		.loc 3 25 7 view .LVU1308
 4700 0598 83EA4333 		eor	r3, r3, r3, lsl #13
 4701              	.LVL230:
  26:../../../DaisySP//Source/Effects/pitchshifter.h ****     x ^= x << 5;
 4702              		.loc 3 26 5 is_stmt 1 view .LVU1309
 4703              	.LBE1854:
 4704              	.LBE1857:
 4705              	.LBE1861:
 4706              	.LBE1865:
 101:../../../DaisySP//Source/Effects/pitchshifter.h ****         }
 4707              		.loc 3 101 27 is_stmt 0 view .LVU1310
 4708 059c DFED215A 		vldr.32	s11, .L158+12
  98:../../../DaisySP//Source/Effects/pitchshifter.h ****                          * (del_size_ * 0.5f);
 4709              		.loc 3 98 31 view .LVU1311
 4710 05a0 94ED213A 		vldr.32	s6, [r4, #132]
 4711              	.LBB1866:
 4712              	.LBB1862:
 4713              	.LBB1858:
 4714              	.LBB1855:
  26:../../../DaisySP//Source/Effects/pitchshifter.h ****     x ^= x << 5;
 4715              		.loc 3 26 7 view .LVU1312
 4716 05a4 83EA5343 		eor	r3, r3, r3, lsr #17
 4717              	.LVL231:
  27:../../../DaisySP//Source/Effects/pitchshifter.h ****     return x;
 4718              		.loc 3 27 5 is_stmt 1 view .LVU1313
 4719              	.LBE1855:
 4720              	.LBE1858:
 4721              	.LBE1862:
 4722              	.LBE1866:
 101:../../../DaisySP//Source/Effects/pitchshifter.h ****         }
 4723              		.loc 3 101 27 is_stmt 0 view .LVU1314
 4724 05a8 9FED1D4A 		vldr.32	s8, .L158+8
ARM GAS  /var/folders/wz/z09yph4n0qj4t7mjxhl6ttn80000gn/T//ccPO7ASC.s 			page 130


 4725              	.LBB1867:
 4726              	.LBB1863:
 4727              	.LBB1859:
 4728              	.LBB1856:
  27:../../../DaisySP//Source/Effects/pitchshifter.h ****     return x;
 4729              		.loc 3 27 7 view .LVU1315
 4730 05ac 83EA4313 		eor	r3, r3, r3, lsl #5
 4731              	.LVL232:
  28:../../../DaisySP//Source/Effects/pitchshifter.h **** }
 4732              		.loc 3 28 5 is_stmt 1 view .LVU1316
  28:../../../DaisySP//Source/Effects/pitchshifter.h **** }
 4733              		.loc 3 28 5 is_stmt 0 view .LVU1317
 4734              	.LBE1856:
 4735              	.LBE1859:
  35:../../../DaisySP//Source/Effects/pitchshifter.h **** }
 4736              		.loc 3 35 5 is_stmt 1 view .LVU1318
 4737              	.LBE1863:
 4738              	.LBE1867:
 4739              	.LBB1868:
 4740              	.LBB1869:
 4741              	.LBB1870:
 4742              	.LBB1871:
  25:../../../DaisySP//Source/Effects/pitchshifter.h ****     x ^= x >> 17;
 4743              		.loc 3 25 7 is_stmt 0 view .LVU1319
 4744 05b0 83EA4331 		eor	r1, r3, r3, lsl #13
  26:../../../DaisySP//Source/Effects/pitchshifter.h ****     x ^= x << 5;
 4745              		.loc 3 26 7 view .LVU1320
 4746 05b4 81EA5141 		eor	r1, r1, r1, lsr #17
  27:../../../DaisySP//Source/Effects/pitchshifter.h ****     return x;
 4747              		.loc 3 27 7 view .LVU1321
 4748 05b8 81EA4111 		eor	r1, r1, r1, lsl #5
 4749              	.LBE1871:
 4750              	.LBE1870:
  34:../../../DaisySP//Source/Effects/pitchshifter.h ****     return seed;
 4751              		.loc 3 34 26 view .LVU1322
 4752 05bc CCF80010 		str	r1, [ip]
 4753              	.LBE1869:
 4754              	.LBE1868:
  98:../../../DaisySP//Source/Effects/pitchshifter.h ****                          * (del_size_ * 0.5f);
 4755              		.loc 3 98 51 view .LVU1323
 4756 05c0 A0FB03EC 		umull	lr, ip, r0, r3
 101:../../../DaisySP//Source/Effects/pitchshifter.h ****         }
 4757              		.loc 3 101 48 view .LVU1324
 4758 05c4 A0FB01E0 		umull	lr, r0, r0, r1
  98:../../../DaisySP//Source/Effects/pitchshifter.h ****                          * (del_size_ * 0.5f);
 4759              		.loc 3 98 51 view .LVU1325
 4760 05c8 4FEADC1C 		lsr	ip, ip, #7
 101:../../../DaisySP//Source/Effects/pitchshifter.h ****         }
 4761              		.loc 3 101 48 view .LVU1326
 4762 05cc C009     		lsrs	r0, r0, #7
  98:../../../DaisySP//Source/Effects/pitchshifter.h ****                          * (del_size_ * 0.5f);
 4763              		.loc 3 98 51 view .LVU1327
 4764 05ce CCEB0C2C 		rsb	ip, ip, ip, lsl #8
 101:../../../DaisySP//Source/Effects/pitchshifter.h ****         }
 4765              		.loc 3 101 48 view .LVU1328
 4766 05d2 C0EB0020 		rsb	r0, r0, r0, lsl #8
  98:../../../DaisySP//Source/Effects/pitchshifter.h ****                          * (del_size_ * 0.5f);
ARM GAS  /var/folders/wz/z09yph4n0qj4t7mjxhl6ttn80000gn/T//ccPO7ASC.s 			page 131


 4767              		.loc 3 98 51 view .LVU1329
 4768 05d6 A3EB0C0C 		sub	ip, r3, ip
 101:../../../DaisySP//Source/Effects/pitchshifter.h ****         }
 4769              		.loc 3 101 48 view .LVU1330
 4770 05da 091A     		subs	r1, r1, r0
  98:../../../DaisySP//Source/Effects/pitchshifter.h ****                          * (del_size_ * 0.5f);
 4771              		.loc 3 98 34 view .LVU1331
 4772 05dc 07EE90CA 		vmov	s15, ip	@ int
 4773 05e0 F8EEE76A 		vcvt.f32.s32	s13, s15
 101:../../../DaisySP//Source/Effects/pitchshifter.h ****         }
 4774              		.loc 3 101 31 view .LVU1332
 4775 05e4 07EE901A 		vmov	s15, r1	@ int
 4776 05e8 B8EEE76A 		vcvt.f32.s32	s12, s15
  98:../../../DaisySP//Source/Effects/pitchshifter.h ****                          * (del_size_ * 0.5f);
 4777              		.loc 3 98 58 view .LVU1333
 4778 05ec C6EEA47A 		vdiv.f32	s15, s13, s9
 101:../../../DaisySP//Source/Effects/pitchshifter.h ****         }
 4779              		.loc 3 101 55 view .LVU1334
 4780 05f0 C6EE243A 		vdiv.f32	s7, s12, s9
  99:../../../DaisySP//Source/Effects/pitchshifter.h ****             mod_coeff_[1]
 4781              		.loc 3 99 26 view .LVU1335
 4782 05f4 06EE102A 		vmov	s12, r2	@ int
 101:../../../DaisySP//Source/Effects/pitchshifter.h ****         }
 4783              		.loc 3 101 27 view .LVU1336
 4784 05f8 F0EE656A 		vmov.f32	s13, s11
  99:../../../DaisySP//Source/Effects/pitchshifter.h ****             mod_coeff_[1]
 4785              		.loc 3 99 26 view .LVU1337
 4786 05fc BBEEEF6A 		vcvt.f32.u32	s12, s12, #1
  98:../../../DaisySP//Source/Effects/pitchshifter.h ****                          * (del_size_ * 0.5f);
 4787              		.loc 3 98 31 view .LVU1338
 4788 0600 67EE837A 		vmul.f32	s15, s15, s6
  99:../../../DaisySP//Source/Effects/pitchshifter.h ****             mod_coeff_[1]
 4789              		.loc 3 99 26 view .LVU1339
 4790 0604 67EE867A 		vmul.f32	s15, s15, s12
 101:../../../DaisySP//Source/Effects/pitchshifter.h ****         }
 4791              		.loc 3 101 27 view .LVU1340
 4792 0608 E3EE846A 		vfma.f32	s13, s7, s8
  98:../../../DaisySP//Source/Effects/pitchshifter.h ****                          * (del_size_ * 0.5f);
 4793              		.loc 3 98 24 view .LVU1341
 4794 060c C4ED237A 		vstr.32	s15, [r4, #140]
 100:../../../DaisySP//Source/Effects/pitchshifter.h ****                 = 0.0002f + (((float)(myrand() % 255) / 255.0f) * 0.001f);
 4795              		.loc 3 100 13 is_stmt 1 view .LVU1342
 4796              	.LBB1875:
 4797              	.LBI1868:
  31:../../../DaisySP//Source/Effects/pitchshifter.h **** {
 4798              		.loc 3 31 17 view .LVU1343
 4799              	.LBB1874:
  33:../../../DaisySP//Source/Effects/pitchshifter.h ****     seed                 = hash_xs32(seed);
 4800              		.loc 3 33 5 view .LVU1344
  34:../../../DaisySP//Source/Effects/pitchshifter.h ****     return seed;
 4801              		.loc 3 34 5 view .LVU1345
 4802              	.LVL233:
 4803              	.LBB1873:
 4804              	.LBI1870:
  23:../../../DaisySP//Source/Effects/pitchshifter.h **** {
 4805              		.loc 3 23 24 view .LVU1346
 4806              	.LBB1872:
ARM GAS  /var/folders/wz/z09yph4n0qj4t7mjxhl6ttn80000gn/T//ccPO7ASC.s 			page 132


  25:../../../DaisySP//Source/Effects/pitchshifter.h ****     x ^= x >> 17;
 4807              		.loc 3 25 5 view .LVU1347
  26:../../../DaisySP//Source/Effects/pitchshifter.h ****     x ^= x << 5;
 4808              		.loc 3 26 5 view .LVU1348
  27:../../../DaisySP//Source/Effects/pitchshifter.h ****     return x;
 4809              		.loc 3 27 5 view .LVU1349
  28:../../../DaisySP//Source/Effects/pitchshifter.h **** }
 4810              		.loc 3 28 5 view .LVU1350
  28:../../../DaisySP//Source/Effects/pitchshifter.h **** }
 4811              		.loc 3 28 5 is_stmt 0 view .LVU1351
 4812              	.LBE1872:
 4813              	.LBE1873:
  35:../../../DaisySP//Source/Effects/pitchshifter.h **** }
 4814              		.loc 3 35 5 is_stmt 1 view .LVU1352
 4815              	.LBE1874:
 4816              	.LBE1875:
 101:../../../DaisySP//Source/Effects/pitchshifter.h ****         }
 4817              		.loc 3 101 17 is_stmt 0 view .LVU1353
 4818 0610 C4ED296A 		vstr.32	s13, [r4, #164]
 4819 0614 3FE5     		b	.L137
 4820              	.L159:
 4821 0616 00BF     		.align	2
 4822              	.L158:
 4823 0618 81808080 		.word	-2139062143
 4824 061c 00007F43 		.word	1132396544
 4825 0620 6F12833A 		.word	981668463
 4826 0624 17B75139 		.word	961656599
 4827 0628 00000000 		.word	_ZZN7daisysp6myrandEvE4seed
 4828              	.LBE1879:
 4829              	.LBE2034:
 4830              	.LBE2035:
 4831              		.cfi_endproc
 4832              	.LFE5659:
 4834              		.weak	_ZZN7daisysp6myrandEvE4seed
 4835              		.section	.data._ZZN7daisysp6myrandEvE4seed,"awG",%progbits,_ZZN7daisysp6myrandEvE4seed,comdat
 4836              		.align	2
 4839              	_ZZN7daisysp6myrandEvE4seed:
 4840 0000 01000000 		.word	1
 4841              		.text
 4842              	.Letext0:
 4843              		.file 10 "/Library/DaisyToolchain/0.2.0/arm/arm-none-eabi/include/machine/_default_types.h"
 4844              		.file 11 "/Library/DaisyToolchain/0.2.0/arm/arm-none-eabi/include/sys/_stdint.h"
 4845              		.file 12 "/Library/DaisyToolchain/0.2.0/arm/arm-none-eabi/include/stdint.h"
 4846              		.file 13 "/Library/DaisyToolchain/0.2.0/arm/lib/gcc/arm-none-eabi/10.3.1/include/stddef.h"
 4847              		.file 14 "/Library/DaisyToolchain/0.2.0/arm/arm-none-eabi/include/c++/10.3.1/cmath"
 4848              		.file 15 "/Library/DaisyToolchain/0.2.0/arm/arm-none-eabi/include/c++/10.3.1/bits/std_abs.h"
 4849              		.file 16 "/Library/DaisyToolchain/0.2.0/arm/arm-none-eabi/include/c++/10.3.1/cstdlib"
 4850              		.file 17 "/Library/DaisyToolchain/0.2.0/arm/arm-none-eabi/include/c++/10.3.1/cstdint"
 4851              		.file 18 "/Library/DaisyToolchain/0.2.0/arm/arm-none-eabi/include/c++/10.3.1/type_traits"
 4852              		.file 19 "/Library/DaisyToolchain/0.2.0/arm/arm-none-eabi/include/c++/10.3.1/arm-none-eabi/thumb/v
 4853              		.file 20 "/Library/DaisyToolchain/0.2.0/arm/arm-none-eabi/include/c++/10.3.1/bits/stl_pair.h"
 4854              		.file 21 "/Library/DaisyToolchain/0.2.0/arm/arm-none-eabi/include/c++/10.3.1/debug/debug.h"
 4855              		.file 22 "/Library/DaisyToolchain/0.2.0/arm/arm-none-eabi/include/c++/10.3.1/bits/algorithmfwd.h"
 4856              		.file 23 "/Library/DaisyToolchain/0.2.0/arm/arm-none-eabi/include/c++/10.3.1/bits/exception_ptr.h"
 4857              		.file 24 "/Library/DaisyToolchain/0.2.0/arm/arm-none-eabi/include/c++/10.3.1/cstdarg"
 4858              		.file 25 "/Library/DaisyToolchain/0.2.0/arm/arm-none-eabi/include/c++/10.3.1/cstdio"
 4859              		.file 26 "/Library/DaisyToolchain/0.2.0/arm/arm-none-eabi/include/c++/10.3.1/cstring"
ARM GAS  /var/folders/wz/z09yph4n0qj4t7mjxhl6ttn80000gn/T//ccPO7ASC.s 			page 133


 4860              		.file 27 "/Library/DaisyToolchain/0.2.0/arm/arm-none-eabi/include/c++/10.3.1/cwchar"
 4861              		.file 28 "/Library/DaisyToolchain/0.2.0/arm/arm-none-eabi/include/c++/10.3.1/clocale"
 4862              		.file 29 "/Library/DaisyToolchain/0.2.0/arm/arm-none-eabi/include/c++/10.3.1/bits/basic_string.h"
 4863              		.file 30 "/Library/DaisyToolchain/0.2.0/arm/arm-none-eabi/include/c++/10.3.1/bits/stl_iterator.h"
 4864              		.file 31 "/Library/DaisyToolchain/0.2.0/arm/arm-none-eabi/include/c++/10.3.1/bits/uses_allocator.h
 4865              		.file 32 "/Library/DaisyToolchain/0.2.0/arm/arm-none-eabi/include/c++/10.3.1/tuple"
 4866              		.file 33 "/Library/DaisyToolchain/0.2.0/arm/arm-none-eabi/include/c++/10.3.1/functional"
 4867              		.file 34 "/Library/DaisyToolchain/0.2.0/arm/arm-none-eabi/include/c++/10.3.1/bits/shared_ptr_base.
 4868              		.file 35 "/Library/DaisyToolchain/0.2.0/arm/arm-none-eabi/include/c++/10.3.1/bits/refwrap.h"
 4869              		.file 36 "/Library/DaisyToolchain/0.2.0/arm/arm-none-eabi/include/c++/10.3.1/bits/stl_function.h"
 4870              		.file 37 "/Library/DaisyToolchain/0.2.0/arm/arm-none-eabi/include/c++/10.3.1/bits/predefined_ops.h
 4871              		.file 38 "/Library/DaisyToolchain/0.2.0/arm/arm-none-eabi/include/c++/10.3.1/ext/concurrence.h"
 4872              		.file 39 "/Library/DaisyToolchain/0.2.0/arm/arm-none-eabi/include/sys/_types.h"
 4873              		.file 40 "/Library/DaisyToolchain/0.2.0/arm/arm-none-eabi/include/sys/reent.h"
 4874              		.file 41 "/Library/DaisyToolchain/0.2.0/arm/arm-none-eabi/include/sys/lock.h"
 4875              		.file 42 "/Library/DaisyToolchain/0.2.0/arm/arm-none-eabi/include/math.h"
 4876              		.file 43 "/Library/DaisyToolchain/0.2.0/arm/arm-none-eabi/include/stdlib.h"
 4877              		.file 44 "/Library/DaisyToolchain/0.2.0/arm/arm-none-eabi/include/c++/10.3.1/math.h"
 4878              		.file 45 "/Library/DaisyToolchain/0.2.0/arm/arm-none-eabi/include/c++/10.3.1/stdlib.h"
 4879              		.file 46 "../../../libDaisy//src/daisy_core.h"
 4880              		.file 47 "../../../libDaisy//src/per/tim.h"
 4881              		.file 48 "../../../libDaisy//src/sys/system.h"
 4882              		.file 49 "../../../libDaisy//src/per/qspi.h"
 4883              		.file 50 "../../../libDaisy//src/per/dac.h"
 4884              		.file 51 "../../../libDaisy//src/per/sai.h"
 4885              		.file 52 "../../../libDaisy//src/hid/audio.h"
 4886              		.file 53 "../../../libDaisy//src/per/adc.h"
 4887              		.file 54 "../../../libDaisy//src/hid/usb.h"
 4888              		.file 55 "../../../libDaisy//src/hid/switch.h"
 4889              		.file 56 "../../../libDaisy//src/util/wav_format.h"
 4890              		.file 57 "../../../libDaisy//src/dev/max11300.h"
 4891              		.file 58 "../../../libDaisy//src/daisy_seed.h"
 4892              		.file 59 "../../../libDaisy//src/per/gpio.h"
 4893              		.file 60 "../../../libDaisy//src/dev/sdram.h"
 4894              		.file 61 "/Library/DaisyToolchain/0.2.0/arm/lib/gcc/arm-none-eabi/10.3.1/include/stdarg.h"
 4895              		.file 62 "/Library/DaisyToolchain/0.2.0/arm/arm-none-eabi/include/sys/types.h"
 4896              		.file 63 "/Library/DaisyToolchain/0.2.0/arm/arm-none-eabi/include/stdio.h"
 4897              		.file 64 "/Library/DaisyToolchain/0.2.0/arm/arm-none-eabi/include/string.h"
 4898              		.file 65 "../../../DaisySP//Source/Control/adenv.h"
 4899              		.file 66 "../../../DaisySP//Source/Utility/dsp.h"
 4900              		.file 67 "/Library/DaisyToolchain/0.2.0/arm/arm-none-eabi/include/wchar.h"
 4901              		.file 68 "/Library/DaisyToolchain/0.2.0/arm/arm-none-eabi/include/locale.h"
 4902              		.file 69 "DSP/FX/../../Parameters/../Utils/Helpers.h"
 4903              		.file 70 "DSP/FX/../../Parameters/BinaryParameter.h"
 4904              		.file 71 "DSP/FX/PitchShift.h"
 4905              		.file 72 "/Library/DaisyToolchain/0.2.0/arm/arm-none-eabi/include/c++/10.3.1/bits/functexcept.h"
 4906              		.file 73 "<built-in>"
 4907              		.file 74 "../../../libDaisy//src/dev/sr_595.h"
ARM GAS  /var/folders/wz/z09yph4n0qj4t7mjxhl6ttn80000gn/T//ccPO7ASC.s 			page 134


DEFINED SYMBOLS
                            *ABS*:0000000000000000 PitchShift.cpp
/var/folders/wz/z09yph4n0qj4t7mjxhl6ttn80000gn/T//ccPO7ASC.s:19     .text._ZNSt17_Function_handlerIFvfEZN10PitchShift4initEPN5daisy9DaisySeedEEUlfE1_E9_M_invokeERKSt9_Any_dataOf:0000000000000000 $t
/var/folders/wz/z09yph4n0qj4t7mjxhl6ttn80000gn/T//ccPO7ASC.s:25     .text._ZNSt17_Function_handlerIFvfEZN10PitchShift4initEPN5daisy9DaisySeedEEUlfE1_E9_M_invokeERKSt9_Any_dataOf:0000000000000000 _ZNSt17_Function_handlerIFvfEZN10PitchShift4initEPN5daisy9DaisySeedEEUlfE1_E9_M_invokeERKSt9_Any_dataOf
/var/folders/wz/z09yph4n0qj4t7mjxhl6ttn80000gn/T//ccPO7ASC.s:88     .text._ZNSt17_Function_handlerIFviEZN10PitchShift4initEPN5daisy9DaisySeedEEUliE_E10_M_managerERSt9_Any_dataRKS7_St18_Manager_operation:0000000000000000 $t
/var/folders/wz/z09yph4n0qj4t7mjxhl6ttn80000gn/T//ccPO7ASC.s:94     .text._ZNSt17_Function_handlerIFviEZN10PitchShift4initEPN5daisy9DaisySeedEEUliE_E10_M_managerERSt9_Any_dataRKS7_St18_Manager_operation:0000000000000000 _ZNSt17_Function_handlerIFviEZN10PitchShift4initEPN5daisy9DaisySeedEEUliE_E10_M_managerERSt9_Any_dataRKS7_St18_Manager_operation
/var/folders/wz/z09yph4n0qj4t7mjxhl6ttn80000gn/T//ccPO7ASC.s:195    .text._ZNSt17_Function_handlerIFvmEZN10PitchShift4initEPN5daisy9DaisySeedEEUlmE0_E10_M_managerERSt9_Any_dataRKS7_St18_Manager_operation:0000000000000000 $t
/var/folders/wz/z09yph4n0qj4t7mjxhl6ttn80000gn/T//ccPO7ASC.s:201    .text._ZNSt17_Function_handlerIFvmEZN10PitchShift4initEPN5daisy9DaisySeedEEUlmE0_E10_M_managerERSt9_Any_dataRKS7_St18_Manager_operation:0000000000000000 _ZNSt17_Function_handlerIFvmEZN10PitchShift4initEPN5daisy9DaisySeedEEUlmE0_E10_M_managerERSt9_Any_dataRKS7_St18_Manager_operation
/var/folders/wz/z09yph4n0qj4t7mjxhl6ttn80000gn/T//ccPO7ASC.s:301    .text._ZNSt17_Function_handlerIFvfEZN10PitchShift4initEPN5daisy9DaisySeedEEUlfE1_E10_M_managerERSt9_Any_dataRKS7_St18_Manager_operation:0000000000000000 $t
/var/folders/wz/z09yph4n0qj4t7mjxhl6ttn80000gn/T//ccPO7ASC.s:307    .text._ZNSt17_Function_handlerIFvfEZN10PitchShift4initEPN5daisy9DaisySeedEEUlfE1_E10_M_managerERSt9_Any_dataRKS7_St18_Manager_operation:0000000000000000 _ZNSt17_Function_handlerIFvfEZN10PitchShift4initEPN5daisy9DaisySeedEEUlfE1_E10_M_managerERSt9_Any_dataRKS7_St18_Manager_operation
/var/folders/wz/z09yph4n0qj4t7mjxhl6ttn80000gn/T//ccPO7ASC.s:407    .text._ZNSt17_Function_handlerIFviEZN10PitchShift4initEPN5daisy9DaisySeedEEUliE_E9_M_invokeERKSt9_Any_dataOi:0000000000000000 $t
/var/folders/wz/z09yph4n0qj4t7mjxhl6ttn80000gn/T//ccPO7ASC.s:413    .text._ZNSt17_Function_handlerIFviEZN10PitchShift4initEPN5daisy9DaisySeedEEUliE_E9_M_invokeERKSt9_Any_dataOi:0000000000000000 _ZNSt17_Function_handlerIFviEZN10PitchShift4initEPN5daisy9DaisySeedEEUliE_E9_M_invokeERKSt9_Any_dataOi
/var/folders/wz/z09yph4n0qj4t7mjxhl6ttn80000gn/T//ccPO7ASC.s:639    .text._ZNSt17_Function_handlerIFviEZN10PitchShift4initEPN5daisy9DaisySeedEEUliE_E9_M_invokeERKSt9_Any_dataOi:00000000000000f0 $d
/var/folders/wz/z09yph4n0qj4t7mjxhl6ttn80000gn/T//ccPO7ASC.s:655    .text._ZNSt17_Function_handlerIFvmEZN10PitchShift4initEPN5daisy9DaisySeedEEUlmE0_E9_M_invokeERKSt9_Any_dataOm:0000000000000000 $t
/var/folders/wz/z09yph4n0qj4t7mjxhl6ttn80000gn/T//ccPO7ASC.s:661    .text._ZNSt17_Function_handlerIFvmEZN10PitchShift4initEPN5daisy9DaisySeedEEUlmE0_E9_M_invokeERKSt9_Any_dataOm:0000000000000000 _ZNSt17_Function_handlerIFvmEZN10PitchShift4initEPN5daisy9DaisySeedEEUlmE0_E9_M_invokeERKSt9_Any_dataOm
/var/folders/wz/z09yph4n0qj4t7mjxhl6ttn80000gn/T//ccPO7ASC.s:921    .text._ZNSt17_Function_handlerIFvmEZN10PitchShift4initEPN5daisy9DaisySeedEEUlmE0_E9_M_invokeERKSt9_Any_dataOm:00000000000000e8 $d
/var/folders/wz/z09yph4n0qj4t7mjxhl6ttn80000gn/T//ccPO7ASC.s:939    .text._ZN10PitchShift4initEPN5daisy9DaisySeedE:0000000000000000 $t
/var/folders/wz/z09yph4n0qj4t7mjxhl6ttn80000gn/T//ccPO7ASC.s:946    .text._ZN10PitchShift4initEPN5daisy9DaisySeedE:0000000000000000 _ZN10PitchShift4initEPN5daisy9DaisySeedE
/var/folders/wz/z09yph4n0qj4t7mjxhl6ttn80000gn/T//ccPO7ASC.s:2496   .text._ZN10PitchShift4initEPN5daisy9DaisySeedE:0000000000000334 $d
/var/folders/wz/z09yph4n0qj4t7mjxhl6ttn80000gn/T//ccPO7ASC.s:2518   .text._ZN10PitchShift4tickEv:0000000000000000 $t
/var/folders/wz/z09yph4n0qj4t7mjxhl6ttn80000gn/T//ccPO7ASC.s:2525   .text._ZN10PitchShift4tickEv:0000000000000000 _ZN10PitchShift4tickEv
/var/folders/wz/z09yph4n0qj4t7mjxhl6ttn80000gn/T//ccPO7ASC.s:3093   .text._ZN10PitchShift4tickEv:00000000000001f8 $d
/var/folders/wz/z09yph4n0qj4t7mjxhl6ttn80000gn/T//ccPO7ASC.s:3106   .text._ZN10PitchShift7processEPPfj:0000000000000000 $t
/var/folders/wz/z09yph4n0qj4t7mjxhl6ttn80000gn/T//ccPO7ASC.s:3113   .text._ZN10PitchShift7processEPPfj:0000000000000000 _ZN10PitchShift7processEPPfj
/var/folders/wz/z09yph4n0qj4t7mjxhl6ttn80000gn/T//ccPO7ASC.s:4324   .text._ZN10PitchShift7processEPPfj:0000000000000444 $d
/var/folders/wz/z09yph4n0qj4t7mjxhl6ttn80000gn/T//ccPO7ASC.s:4839   .data._ZZN7daisysp6myrandEvE4seed:0000000000000000 _ZZN7daisysp6myrandEvE4seed
/var/folders/wz/z09yph4n0qj4t7mjxhl6ttn80000gn/T//ccPO7ASC.s:4342   .text._ZN10PitchShift7processEPPfj:0000000000000468 $t
/var/folders/wz/z09yph4n0qj4t7mjxhl6ttn80000gn/T//ccPO7ASC.s:4823   .text._ZN10PitchShift7processEPPfj:0000000000000618 $d
/var/folders/wz/z09yph4n0qj4t7mjxhl6ttn80000gn/T//ccPO7ASC.s:4836   .data._ZZN7daisysp6myrandEvE4seed:0000000000000000 $d

UNDEFINED SYMBOLS
_ZN7daisysp6Phasor7SetFreqEf
_ZN5daisy9DaisySeed15AudioSampleRateEv
powf
memset
_ZNK5daisy9AdcHandle8GetFloatEh
_ZSt25__throw_bad_function_callv
_ZN7daisysp6Phasor7ProcessEv
sinf
