ARM GAS  /var/folders/wz/z09yph4n0qj4t7mjxhl6ttn80000gn/T//cc9W3ie9.s 			page 1


   1              		.cpu cortex-m7
   2              		.arch armv7e-m
   3              		.fpu fpv5-d16
   4              		.eabi_attribute 28, 1
   5              		.eabi_attribute 20, 1
   6              		.eabi_attribute 21, 1
   7              		.eabi_attribute 23, 3
   8              		.eabi_attribute 24, 1
   9              		.eabi_attribute 25, 1
  10              		.eabi_attribute 26, 1
  11              		.eabi_attribute 30, 4
  12              		.eabi_attribute 34, 1
  13              		.eabi_attribute 18, 4
  14              		.file	"PitchShiftView.cpp"
  15              		.text
  16              	.Ltext0:
  17              		.cfi_sections	.debug_frame
  18              		.section	.text._ZN14PitchShiftView4initEiP13EncoderDriverP8UiDriverP12KeypadDriver,"ax",%progbits
  19              		.align	1
  20              		.global	_ZN14PitchShiftView4initEiP13EncoderDriverP8UiDriverP12KeypadDriver
  21              		.syntax unified
  22              		.thumb
  23              		.thumb_func
  25              	_ZN14PitchShiftView4initEiP13EncoderDriverP8UiDriverP12KeypadDriver:
  26              	.LVL0:
  27              	.LFB5101:
  28              		.file 1 "GUI/FX/PitchShiftView.cpp"
   1:GUI/FX/PitchShiftView.cpp **** #include "PitchShiftView.h"
   2:GUI/FX/PitchShiftView.cpp **** 
   3:GUI/FX/PitchShiftView.cpp **** void PitchShiftView::init(int ID, EncoderDriver* driver, UiDriver* uid, KeypadDriver* kpd)
   4:GUI/FX/PitchShiftView.cpp **** {
  29              		.loc 1 4 1 view -0
  30              		.cfi_startproc
  31              		@ args = 4, pretend = 0, frame = 0
  32              		@ frame_needed = 0, uses_anonymous_args = 0
   5:GUI/FX/PitchShiftView.cpp ****     trackID = ID;
  33              		.loc 1 5 5 view .LVU1
   4:GUI/FX/PitchShiftView.cpp ****     trackID = ID;
  34              		.loc 1 4 1 is_stmt 0 view .LVU2
  35 0000 38B5     		push	{r3, r4, r5, lr}
  36              		.cfi_def_cfa_offset 16
  37              		.cfi_offset 3, -16
  38              		.cfi_offset 4, -12
  39              		.cfi_offset 5, -8
  40              		.cfi_offset 14, -4
   4:GUI/FX/PitchShiftView.cpp ****     trackID = ID;
  41              		.loc 1 4 1 view .LVU3
  42 0002 0446     		mov	r4, r0
  43 0004 1546     		mov	r5, r2
   6:GUI/FX/PitchShiftView.cpp ****     
   7:GUI/FX/PitchShiftView.cpp ****     lcd = uid;
  44              		.loc 1 7 9 view .LVU4
  45 0006 C0E90013 		strd	r1, r3, [r0]
   8:GUI/FX/PitchShiftView.cpp ****     keypad = kpd;
  46              		.loc 1 8 5 is_stmt 1 view .LVU5
  47              		.loc 1 8 12 is_stmt 0 view .LVU6
  48 000a 0498     		ldr	r0, [sp, #16]
ARM GAS  /var/folders/wz/z09yph4n0qj4t7mjxhl6ttn80000gn/T//cc9W3ie9.s 			page 2


  49              	.LVL1:
   9:GUI/FX/PitchShiftView.cpp **** 
  10:GUI/FX/PitchShiftView.cpp ****     amount.init(trackID + ParameterIDs::PitchShifter::amount, driver, lcd);
  50              		.loc 1 10 16 view .LVU7
  51 000c 0B31     		adds	r1, r1, #11
  52              	.LVL2:
   8:GUI/FX/PitchShiftView.cpp ****     keypad = kpd;
  53              		.loc 1 8 12 view .LVU8
  54 000e A060     		str	r0, [r4, #8]
  55              		.loc 1 10 5 is_stmt 1 view .LVU9
  56              		.loc 1 10 16 is_stmt 0 view .LVU10
  57 0010 04F10C00 		add	r0, r4, #12
  58 0014 FFF7FEFF 		bl	_ZN13SteppedSlider4initEiP13EncoderDriverP8UiDriver
  59              	.LVL3:
  11:GUI/FX/PitchShiftView.cpp ****     semitones.init(trackID + ParameterIDs::PitchShifter::semitones, driver, lcd);
  60              		.loc 1 11 5 is_stmt 1 view .LVU11
  61              		.loc 1 11 19 is_stmt 0 view .LVU12
  62 0018 2046     		mov	r0, r4
  63 001a 6368     		ldr	r3, [r4, #4]
  64 001c 2A46     		mov	r2, r5
  65 001e 50F8201B 		ldr	r1, [r0], #32
  66 0022 0C31     		adds	r1, r1, #12
  67 0024 FFF7FEFF 		bl	_ZN13SteppedSlider4initEiP13EncoderDriverP8UiDriver
  68              	.LVL4:
  12:GUI/FX/PitchShiftView.cpp **** 
  13:GUI/FX/PitchShiftView.cpp ****     isOpen = false;
  69              		.loc 1 13 5 is_stmt 1 view .LVU13
  70              		.loc 1 13 12 is_stmt 0 view .LVU14
  71 0028 0023     		movs	r3, #0
  72 002a 84F83430 		strb	r3, [r4, #52]
  14:GUI/FX/PitchShiftView.cpp **** }
  73              		.loc 1 14 1 view .LVU15
  74 002e 38BD     		pop	{r3, r4, r5, pc}
  75              		.loc 1 14 1 view .LVU16
  76              		.cfi_endproc
  77              	.LFE5101:
  79              		.section	.text._ZN14PitchShiftView4tickEv,"ax",%progbits
  80              		.align	1
  81              		.global	_ZN14PitchShiftView4tickEv
  82              		.syntax unified
  83              		.thumb
  84              		.thumb_func
  86              	_ZN14PitchShiftView4tickEv:
  87              	.LVL5:
  88              	.LFB5102:
  15:GUI/FX/PitchShiftView.cpp **** 
  16:GUI/FX/PitchShiftView.cpp **** void PitchShiftView::tick()
  17:GUI/FX/PitchShiftView.cpp **** {
  89              		.loc 1 17 1 is_stmt 1 view -0
  90              		.cfi_startproc
  91              		@ args = 0, pretend = 0, frame = 0
  92              		@ frame_needed = 0, uses_anonymous_args = 0
  18:GUI/FX/PitchShiftView.cpp ****     amount.tick();
  93              		.loc 1 18 5 view .LVU18
  17:GUI/FX/PitchShiftView.cpp ****     amount.tick();
  94              		.loc 1 17 1 is_stmt 0 view .LVU19
  95 0000 10B5     		push	{r4, lr}
ARM GAS  /var/folders/wz/z09yph4n0qj4t7mjxhl6ttn80000gn/T//cc9W3ie9.s 			page 3


  96              		.cfi_def_cfa_offset 8
  97              		.cfi_offset 4, -8
  98              		.cfi_offset 14, -4
  17:GUI/FX/PitchShiftView.cpp ****     amount.tick();
  99              		.loc 1 17 1 view .LVU20
 100 0002 0446     		mov	r4, r0
 101              		.loc 1 18 16 view .LVU21
 102 0004 0C30     		adds	r0, r0, #12
 103              	.LVL6:
 104              		.loc 1 18 16 view .LVU22
 105 0006 FFF7FEFF 		bl	_ZN13SteppedSlider4tickEv
 106              	.LVL7:
  19:GUI/FX/PitchShiftView.cpp ****     semitones.tick();
 107              		.loc 1 19 5 is_stmt 1 view .LVU23
 108              		.loc 1 19 19 is_stmt 0 view .LVU24
 109 000a 04F12000 		add	r0, r4, #32
  20:GUI/FX/PitchShiftView.cpp **** }
 110              		.loc 1 20 1 view .LVU25
 111 000e BDE81040 		pop	{r4, lr}
 112              		.cfi_restore 14
 113              		.cfi_restore 4
 114              		.cfi_def_cfa_offset 0
 115              	.LVL8:
  19:GUI/FX/PitchShiftView.cpp ****     semitones.tick();
 116              		.loc 1 19 19 view .LVU26
 117 0012 FFF7FEBF 		b	_ZN13SteppedSlider4tickEv
 118              	.LVL9:
  19:GUI/FX/PitchShiftView.cpp ****     semitones.tick();
 119              		.loc 1 19 19 view .LVU27
 120              		.cfi_endproc
 121              	.LFE5102:
 123              		.section	.text._ZN14PitchShiftView7repaintEv,"ax",%progbits
 124              		.align	1
 125              		.global	_ZN14PitchShiftView7repaintEv
 126              		.syntax unified
 127              		.thumb
 128              		.thumb_func
 130              	_ZN14PitchShiftView7repaintEv:
 131              	.LVL10:
 132              	.LFB5103:
  21:GUI/FX/PitchShiftView.cpp **** 
  22:GUI/FX/PitchShiftView.cpp **** void PitchShiftView::repaint()
  23:GUI/FX/PitchShiftView.cpp **** {
 133              		.loc 1 23 1 is_stmt 1 view -0
 134              		.cfi_startproc
 135              		@ args = 0, pretend = 0, frame = 0
 136              		@ frame_needed = 0, uses_anonymous_args = 0
 137              		@ link register save eliminated.
  24:GUI/FX/PitchShiftView.cpp **** 
  25:GUI/FX/PitchShiftView.cpp **** }
 138              		.loc 1 25 1 is_stmt 0 view .LVU29
 139 0000 7047     		bx	lr
 140              		.cfi_endproc
 141              	.LFE5103:
 143              		.section	.text._ZN14PitchShiftView5clearEv,"ax",%progbits
 144              		.align	1
 145              		.global	_ZN14PitchShiftView5clearEv
ARM GAS  /var/folders/wz/z09yph4n0qj4t7mjxhl6ttn80000gn/T//cc9W3ie9.s 			page 4


 146              		.syntax unified
 147              		.thumb
 148              		.thumb_func
 150              	_ZN14PitchShiftView5clearEv:
 151              	.LFB5851:
 152              		.cfi_startproc
 153              		@ args = 0, pretend = 0, frame = 0
 154              		@ frame_needed = 0, uses_anonymous_args = 0
 155              		@ link register save eliminated.
 156 0000 7047     		bx	lr
 157              		.cfi_endproc
 158              	.LFE5851:
 160              		.text
 161              	.Letext0:
 162              		.file 2 "/Library/DaisyToolchain/0.2.0/arm/arm-none-eabi/include/machine/_default_types.h"
 163              		.file 3 "/Library/DaisyToolchain/0.2.0/arm/arm-none-eabi/include/sys/_stdint.h"
 164              		.file 4 "/Library/DaisyToolchain/0.2.0/arm/arm-none-eabi/include/stdint.h"
 165              		.file 5 "/Library/DaisyToolchain/0.2.0/arm/lib/gcc/arm-none-eabi/10.3.1/include/stddef.h"
 166              		.file 6 "/Library/DaisyToolchain/0.2.0/arm/arm-none-eabi/include/c++/10.3.1/cmath"
 167              		.file 7 "/Library/DaisyToolchain/0.2.0/arm/arm-none-eabi/include/c++/10.3.1/bits/std_abs.h"
 168              		.file 8 "/Library/DaisyToolchain/0.2.0/arm/arm-none-eabi/include/c++/10.3.1/cstdlib"
 169              		.file 9 "/Library/DaisyToolchain/0.2.0/arm/arm-none-eabi/include/c++/10.3.1/cstdint"
 170              		.file 10 "/Library/DaisyToolchain/0.2.0/arm/arm-none-eabi/include/c++/10.3.1/type_traits"
 171              		.file 11 "/Library/DaisyToolchain/0.2.0/arm/arm-none-eabi/include/c++/10.3.1/arm-none-eabi/thumb/v
 172              		.file 12 "/Library/DaisyToolchain/0.2.0/arm/arm-none-eabi/include/c++/10.3.1/bits/stl_pair.h"
 173              		.file 13 "/Library/DaisyToolchain/0.2.0/arm/arm-none-eabi/include/c++/10.3.1/debug/debug.h"
 174              		.file 14 "/Library/DaisyToolchain/0.2.0/arm/arm-none-eabi/include/c++/10.3.1/bits/algorithmfwd.h"
 175              		.file 15 "/Library/DaisyToolchain/0.2.0/arm/arm-none-eabi/include/c++/10.3.1/bits/exception_ptr.h"
 176              		.file 16 "/Library/DaisyToolchain/0.2.0/arm/arm-none-eabi/include/c++/10.3.1/cstdarg"
 177              		.file 17 "/Library/DaisyToolchain/0.2.0/arm/arm-none-eabi/include/c++/10.3.1/cstdio"
 178              		.file 18 "/Library/DaisyToolchain/0.2.0/arm/arm-none-eabi/include/c++/10.3.1/cstring"
 179              		.file 19 "/Library/DaisyToolchain/0.2.0/arm/arm-none-eabi/include/c++/10.3.1/cwchar"
 180              		.file 20 "/Library/DaisyToolchain/0.2.0/arm/arm-none-eabi/include/c++/10.3.1/clocale"
 181              		.file 21 "/Library/DaisyToolchain/0.2.0/arm/arm-none-eabi/include/c++/10.3.1/bits/basic_string.h"
 182              		.file 22 "/Library/DaisyToolchain/0.2.0/arm/arm-none-eabi/include/c++/10.3.1/bits/stl_iterator.h"
 183              		.file 23 "/Library/DaisyToolchain/0.2.0/arm/arm-none-eabi/include/c++/10.3.1/bits/uses_allocator.h
 184              		.file 24 "/Library/DaisyToolchain/0.2.0/arm/arm-none-eabi/include/c++/10.3.1/tuple"
 185              		.file 25 "/Library/DaisyToolchain/0.2.0/arm/arm-none-eabi/include/c++/10.3.1/bits/std_function.h"
 186              		.file 26 "/Library/DaisyToolchain/0.2.0/arm/arm-none-eabi/include/c++/10.3.1/functional"
 187              		.file 27 "/Library/DaisyToolchain/0.2.0/arm/arm-none-eabi/include/c++/10.3.1/bits/stl_function.h"
 188              		.file 28 "/Library/DaisyToolchain/0.2.0/arm/arm-none-eabi/include/c++/10.3.1/bits/refwrap.h"
 189              		.file 29 "/Library/DaisyToolchain/0.2.0/arm/arm-none-eabi/include/c++/10.3.1/bits/allocator.h"
 190              		.file 30 "/Library/DaisyToolchain/0.2.0/arm/arm-none-eabi/include/c++/10.3.1/bits/alloc_traits.h"
 191              		.file 31 "/Library/DaisyToolchain/0.2.0/arm/arm-none-eabi/include/c++/10.3.1/bits/stl_vector.h"
 192              		.file 32 "/Library/DaisyToolchain/0.2.0/arm/arm-none-eabi/include/c++/10.3.1/bits/vector.tcc"
 193              		.file 33 "/Library/DaisyToolchain/0.2.0/arm/arm-none-eabi/include/c++/10.3.1/bits/stl_iterator_bas
 194              		.file 34 "/Library/DaisyToolchain/0.2.0/arm/arm-none-eabi/include/c++/10.3.1/bits/predefined_ops.h
 195              		.file 35 "/Library/DaisyToolchain/0.2.0/arm/arm-none-eabi/include/c++/10.3.1/ext/new_allocator.h"
 196              		.file 36 "/Library/DaisyToolchain/0.2.0/arm/arm-none-eabi/include/c++/10.3.1/ext/alloc_traits.h"
 197              		.file 37 "/Library/DaisyToolchain/0.2.0/arm/arm-none-eabi/include/sys/_types.h"
 198              		.file 38 "<built-in>"
 199              		.file 39 "/Library/DaisyToolchain/0.2.0/arm/arm-none-eabi/include/sys/reent.h"
 200              		.file 40 "/Library/DaisyToolchain/0.2.0/arm/arm-none-eabi/include/sys/lock.h"
 201              		.file 41 "/Library/DaisyToolchain/0.2.0/arm/arm-none-eabi/include/math.h"
 202              		.file 42 "/Library/DaisyToolchain/0.2.0/arm/arm-none-eabi/include/stdlib.h"
 203              		.file 43 "/Library/DaisyToolchain/0.2.0/arm/arm-none-eabi/include/c++/10.3.1/math.h"
 204              		.file 44 "/Library/DaisyToolchain/0.2.0/arm/arm-none-eabi/include/c++/10.3.1/stdlib.h"
ARM GAS  /var/folders/wz/z09yph4n0qj4t7mjxhl6ttn80000gn/T//cc9W3ie9.s 			page 5


 205              		.file 45 "../../../libDaisy//src/daisy_core.h"
 206              		.file 46 "../../../libDaisy//src/hid/switch.h"
 207              		.file 47 "../../../libDaisy//src/per/spi.h"
 208              		.file 48 "../../../libDaisy//src/hid/disp/graphics_common.h"
 209              		.file 49 "../../../libDaisy//src/util/wav_format.h"
 210              		.file 50 "../../../libDaisy//src/dev/max11300.h"
 211              		.file 51 "../../../libDaisy//src/daisy_seed.h"
 212              		.file 52 "../../../libDaisy//src/per/gpio.h"
 213              		.file 53 "/Library/DaisyToolchain/0.2.0/arm/lib/gcc/arm-none-eabi/10.3.1/include/stdarg.h"
 214              		.file 54 "/Library/DaisyToolchain/0.2.0/arm/arm-none-eabi/include/stdio.h"
 215              		.file 55 "../../../libDaisy//src/util/oled_fonts.h"
 216              		.file 56 "/Library/DaisyToolchain/0.2.0/arm/arm-none-eabi/include/string.h"
 217              		.file 57 "../../../DaisySP//Source/Control/adenv.h"
 218              		.file 58 "../../../DaisySP//Source/Utility/dsp.h"
 219              		.file 59 "/Library/DaisyToolchain/0.2.0/arm/arm-none-eabi/include/wchar.h"
 220              		.file 60 "/Library/DaisyToolchain/0.2.0/arm/arm-none-eabi/include/locale.h"
 221              		.file 61 "GUI/FX/../../Drivers/../Parameters/ParameterIDs.h"
 222              		.file 62 "GUI/FX/../../Drivers/../Parameters/SteppedParameter.h"
 223              		.file 63 "GUI/FX/../../Drivers/EncoderDriver.h"
 224              		.file 64 "GUI/FX/../../Drivers/daisy_ILI9341.hpp"
 225              		.file 65 "GUI/FX/../../Drivers/../Parameters/BinaryParameter.h"
 226              		.file 66 "GUI/FX/../../Drivers/KeypadDriver.h"
 227              		.file 67 "GUI/FX/SteppedSlider.h"
 228              		.file 68 "GUI/FX/PitchShiftView.h"
 229              		.file 69 "../../../libDaisy//src/dev/sr_595.h"
ARM GAS  /var/folders/wz/z09yph4n0qj4t7mjxhl6ttn80000gn/T//cc9W3ie9.s 			page 6

