ARM GAS  /var/folders/wz/z09yph4n0qj4t7mjxhl6ttn80000gn/T//ccKA8ZwU.s 			page 1


   1              		.cpu cortex-m7
   2              		.arch armv7e-m
   3              		.fpu fpv5-d16
   4              		.eabi_attribute 28, 1
   5              		.eabi_attribute 20, 1
   6              		.eabi_attribute 21, 1
   7              		.eabi_attribute 23, 3
   8              		.eabi_attribute 24, 1
   9              		.eabi_attribute 25, 1
  10              		.eabi_attribute 26, 1
  11              		.eabi_attribute 30, 2
  12              		.eabi_attribute 34, 1
  13              		.eabi_attribute 18, 4
  14              		.file	"revmodel.cpp"
  15              		.text
  16              	.Ltext0:
  17              		.cfi_sections	.debug_frame
  18              		.section	.text._ZN8revmodel4muteEv,"ax",%progbits
  19              		.align	1
  20              		.p2align 2,,3
  21              		.global	_ZN8revmodel4muteEv
  22              		.syntax unified
  23              		.thumb
  24              		.thumb_func
  26              	_ZN8revmodel4muteEv:
  27              	.LVL0:
  28              	.LFB549:
  29              		.file 1 "DSP/FX/Reverb/revmodel.cpp"
   1:DSP/FX/Reverb/revmodel.cpp **** // Reverb model implementation
   2:DSP/FX/Reverb/revmodel.cpp **** //
   3:DSP/FX/Reverb/revmodel.cpp **** // Written by Jezar at Dreampoint, June 2000
   4:DSP/FX/Reverb/revmodel.cpp **** // http://www.dreampoint.co.uk
   5:DSP/FX/Reverb/revmodel.cpp **** // This code is public domain
   6:DSP/FX/Reverb/revmodel.cpp **** 
   7:DSP/FX/Reverb/revmodel.cpp **** #include "revmodel.hpp"
   8:DSP/FX/Reverb/revmodel.cpp **** 
   9:DSP/FX/Reverb/revmodel.cpp **** revmodel::revmodel()
  10:DSP/FX/Reverb/revmodel.cpp **** {
  11:DSP/FX/Reverb/revmodel.cpp **** 	// Tie the components to their buffers
  12:DSP/FX/Reverb/revmodel.cpp **** 	combL[0].setbuffer(bufcombL1,combtuningL1);
  13:DSP/FX/Reverb/revmodel.cpp **** 	combR[0].setbuffer(bufcombR1,combtuningR1);
  14:DSP/FX/Reverb/revmodel.cpp **** 	combL[1].setbuffer(bufcombL2,combtuningL2);
  15:DSP/FX/Reverb/revmodel.cpp **** 	combR[1].setbuffer(bufcombR2,combtuningR2);
  16:DSP/FX/Reverb/revmodel.cpp **** 	combL[2].setbuffer(bufcombL3,combtuningL3);
  17:DSP/FX/Reverb/revmodel.cpp **** 	combR[2].setbuffer(bufcombR3,combtuningR3);
  18:DSP/FX/Reverb/revmodel.cpp **** 	combL[3].setbuffer(bufcombL4,combtuningL4);
  19:DSP/FX/Reverb/revmodel.cpp **** 	combR[3].setbuffer(bufcombR4,combtuningR4);
  20:DSP/FX/Reverb/revmodel.cpp **** 	combL[4].setbuffer(bufcombL5,combtuningL5);
  21:DSP/FX/Reverb/revmodel.cpp **** 	combR[4].setbuffer(bufcombR5,combtuningR5);
  22:DSP/FX/Reverb/revmodel.cpp **** 	combL[5].setbuffer(bufcombL6,combtuningL6);
  23:DSP/FX/Reverb/revmodel.cpp **** 	combR[5].setbuffer(bufcombR6,combtuningR6);
  24:DSP/FX/Reverb/revmodel.cpp **** 	combL[6].setbuffer(bufcombL7,combtuningL7);
  25:DSP/FX/Reverb/revmodel.cpp **** 	combR[6].setbuffer(bufcombR7,combtuningR7);
  26:DSP/FX/Reverb/revmodel.cpp **** 	combL[7].setbuffer(bufcombL8,combtuningL8);
  27:DSP/FX/Reverb/revmodel.cpp **** 	combR[7].setbuffer(bufcombR8,combtuningR8);
  28:DSP/FX/Reverb/revmodel.cpp **** 	allpassL[0].setbuffer(bufallpassL1,allpasstuningL1);
  29:DSP/FX/Reverb/revmodel.cpp **** 	allpassR[0].setbuffer(bufallpassR1,allpasstuningR1);
ARM GAS  /var/folders/wz/z09yph4n0qj4t7mjxhl6ttn80000gn/T//ccKA8ZwU.s 			page 2


  30:DSP/FX/Reverb/revmodel.cpp **** 	allpassL[1].setbuffer(bufallpassL2,allpasstuningL2);
  31:DSP/FX/Reverb/revmodel.cpp **** 	allpassR[1].setbuffer(bufallpassR2,allpasstuningR2);
  32:DSP/FX/Reverb/revmodel.cpp **** 	allpassL[2].setbuffer(bufallpassL3,allpasstuningL3);
  33:DSP/FX/Reverb/revmodel.cpp **** 	allpassR[2].setbuffer(bufallpassR3,allpasstuningR3);
  34:DSP/FX/Reverb/revmodel.cpp **** 	allpassL[3].setbuffer(bufallpassL4,allpasstuningL4);
  35:DSP/FX/Reverb/revmodel.cpp **** 	allpassR[3].setbuffer(bufallpassR4,allpasstuningR4);
  36:DSP/FX/Reverb/revmodel.cpp **** 
  37:DSP/FX/Reverb/revmodel.cpp **** 	// Set default values
  38:DSP/FX/Reverb/revmodel.cpp **** 	allpassL[0].setfeedback(0.5f);
  39:DSP/FX/Reverb/revmodel.cpp **** 	allpassR[0].setfeedback(0.5f);
  40:DSP/FX/Reverb/revmodel.cpp **** 	allpassL[1].setfeedback(0.5f);
  41:DSP/FX/Reverb/revmodel.cpp **** 	allpassR[1].setfeedback(0.5f);
  42:DSP/FX/Reverb/revmodel.cpp **** 	allpassL[2].setfeedback(0.5f);
  43:DSP/FX/Reverb/revmodel.cpp **** 	allpassR[2].setfeedback(0.5f);
  44:DSP/FX/Reverb/revmodel.cpp **** 	allpassL[3].setfeedback(0.5f);
  45:DSP/FX/Reverb/revmodel.cpp **** 	allpassR[3].setfeedback(0.5f);
  46:DSP/FX/Reverb/revmodel.cpp **** 	setwet(initialwet);
  47:DSP/FX/Reverb/revmodel.cpp **** 	setroomsize(initialroom);
  48:DSP/FX/Reverb/revmodel.cpp **** 	setdry(initialdry);
  49:DSP/FX/Reverb/revmodel.cpp **** 	setdamp(initialdamp);
  50:DSP/FX/Reverb/revmodel.cpp **** 	setwidth(initialwidth);
  51:DSP/FX/Reverb/revmodel.cpp **** 	setmode(initialmode);
  52:DSP/FX/Reverb/revmodel.cpp **** 
  53:DSP/FX/Reverb/revmodel.cpp **** 	// Buffer will be full of rubbish - so we MUST mute them
  54:DSP/FX/Reverb/revmodel.cpp **** 	mute();
  55:DSP/FX/Reverb/revmodel.cpp **** }
  56:DSP/FX/Reverb/revmodel.cpp **** 
  57:DSP/FX/Reverb/revmodel.cpp **** void revmodel::mute()
  58:DSP/FX/Reverb/revmodel.cpp **** {
  30              		.loc 1 58 1 view -0
  31              		.cfi_startproc
  32              		@ args = 0, pretend = 0, frame = 0
  33              		@ frame_needed = 0, uses_anonymous_args = 0
  59:DSP/FX/Reverb/revmodel.cpp **** 	if (getmode() >= freezemode)
  34              		.loc 1 59 2 view .LVU1
  35              	.LBB51:
  36              	.LBB52:
  60:DSP/FX/Reverb/revmodel.cpp **** 		return;
  61:DSP/FX/Reverb/revmodel.cpp **** 
  62:DSP/FX/Reverb/revmodel.cpp **** 	for (int i=0;i<numcombs;i++)
  63:DSP/FX/Reverb/revmodel.cpp **** 	{
  64:DSP/FX/Reverb/revmodel.cpp **** 		combL[i].mute();
  65:DSP/FX/Reverb/revmodel.cpp **** 		combR[i].mute();
  66:DSP/FX/Reverb/revmodel.cpp **** 	}
  67:DSP/FX/Reverb/revmodel.cpp **** 	for (int j=0;j<numallpasses;j++)
  68:DSP/FX/Reverb/revmodel.cpp **** 	{
  69:DSP/FX/Reverb/revmodel.cpp **** 		allpassL[j].mute();
  70:DSP/FX/Reverb/revmodel.cpp **** 		allpassR[j].mute();
  71:DSP/FX/Reverb/revmodel.cpp **** 	}
  72:DSP/FX/Reverb/revmodel.cpp **** }
  73:DSP/FX/Reverb/revmodel.cpp **** 
  74:DSP/FX/Reverb/revmodel.cpp **** void revmodel::processreplace(float *inputL, float *inputR, float *outputL, float *outputR, long nu
  75:DSP/FX/Reverb/revmodel.cpp **** {
  76:DSP/FX/Reverb/revmodel.cpp **** 	float outL,outR,input;
  77:DSP/FX/Reverb/revmodel.cpp **** 
  78:DSP/FX/Reverb/revmodel.cpp **** 	while(numsamples-- > 0)
  79:DSP/FX/Reverb/revmodel.cpp **** 	{
ARM GAS  /var/folders/wz/z09yph4n0qj4t7mjxhl6ttn80000gn/T//ccKA8ZwU.s 			page 3


  80:DSP/FX/Reverb/revmodel.cpp **** 		outL = outR = 0;
  81:DSP/FX/Reverb/revmodel.cpp **** 		input = (*inputL + *inputR) * gain;
  82:DSP/FX/Reverb/revmodel.cpp **** 
  83:DSP/FX/Reverb/revmodel.cpp **** 		// Accumulate comb filters in parallel
  84:DSP/FX/Reverb/revmodel.cpp **** 		for(int i=0; i<numcombs; i++)
  85:DSP/FX/Reverb/revmodel.cpp **** 		{
  86:DSP/FX/Reverb/revmodel.cpp **** 			outL += combL[i].process(input);
  87:DSP/FX/Reverb/revmodel.cpp **** 			outR += combR[i].process(input);
  88:DSP/FX/Reverb/revmodel.cpp **** 		}
  89:DSP/FX/Reverb/revmodel.cpp **** 
  90:DSP/FX/Reverb/revmodel.cpp **** 		// Feed through allpasses in series
  91:DSP/FX/Reverb/revmodel.cpp **** 		for(int j=0; j<numallpasses; j++)
  92:DSP/FX/Reverb/revmodel.cpp **** 		{
  93:DSP/FX/Reverb/revmodel.cpp **** 			outL = allpassL[j].process(outL);
  94:DSP/FX/Reverb/revmodel.cpp **** 			outR = allpassR[j].process(outR);
  95:DSP/FX/Reverb/revmodel.cpp **** 		}
  96:DSP/FX/Reverb/revmodel.cpp **** 
  97:DSP/FX/Reverb/revmodel.cpp **** 		// Calculate output REPLACING anything already there
  98:DSP/FX/Reverb/revmodel.cpp **** 		*outputL = outL*wet1 + outR*wet2 + *inputL*dry;
  99:DSP/FX/Reverb/revmodel.cpp **** 		*outputR = outR*wet1 + outL*wet2 + *inputR*dry;
 100:DSP/FX/Reverb/revmodel.cpp **** 
 101:DSP/FX/Reverb/revmodel.cpp **** 		// Increment sample pointers, allowing for interleave (if any)
 102:DSP/FX/Reverb/revmodel.cpp **** 		inputL += skip;
 103:DSP/FX/Reverb/revmodel.cpp **** 		inputR += skip;
 104:DSP/FX/Reverb/revmodel.cpp **** 		outputL += skip;
 105:DSP/FX/Reverb/revmodel.cpp **** 		outputR += skip;
 106:DSP/FX/Reverb/revmodel.cpp **** 	}
 107:DSP/FX/Reverb/revmodel.cpp **** }
 108:DSP/FX/Reverb/revmodel.cpp **** 
 109:DSP/FX/Reverb/revmodel.cpp **** void revmodel::processmix(float *inputL, float *inputR, float *outputL, float *outputR, long numsam
 110:DSP/FX/Reverb/revmodel.cpp **** {
 111:DSP/FX/Reverb/revmodel.cpp **** 	float outL,outR,input;
 112:DSP/FX/Reverb/revmodel.cpp **** 
 113:DSP/FX/Reverb/revmodel.cpp **** 	while(numsamples-- > 0)
 114:DSP/FX/Reverb/revmodel.cpp **** 	{
 115:DSP/FX/Reverb/revmodel.cpp **** 		outL = outR = 0;
 116:DSP/FX/Reverb/revmodel.cpp **** 		input = (*inputL + *inputR) * gain;
 117:DSP/FX/Reverb/revmodel.cpp **** 
 118:DSP/FX/Reverb/revmodel.cpp **** 		// Accumulate comb filters in parallel
 119:DSP/FX/Reverb/revmodel.cpp **** 		for(int i=0; i<numcombs; i++)
 120:DSP/FX/Reverb/revmodel.cpp **** 		{
 121:DSP/FX/Reverb/revmodel.cpp **** 			outL += combL[i].process(input);
 122:DSP/FX/Reverb/revmodel.cpp **** 			outR += combR[i].process(input);
 123:DSP/FX/Reverb/revmodel.cpp **** 		}
 124:DSP/FX/Reverb/revmodel.cpp **** 
 125:DSP/FX/Reverb/revmodel.cpp **** 		// Feed through allpasses in series
 126:DSP/FX/Reverb/revmodel.cpp **** 		for(int j=0; j<numallpasses; j++)
 127:DSP/FX/Reverb/revmodel.cpp **** 		{
 128:DSP/FX/Reverb/revmodel.cpp **** 			outL = allpassL[j].process(outL);
 129:DSP/FX/Reverb/revmodel.cpp **** 			outR = allpassR[j].process(outR);
 130:DSP/FX/Reverb/revmodel.cpp **** 		}
 131:DSP/FX/Reverb/revmodel.cpp **** 
 132:DSP/FX/Reverb/revmodel.cpp **** 		// Calculate output MIXING with anything already there
 133:DSP/FX/Reverb/revmodel.cpp **** 		*outputL += outL*wet1 + outR*wet2 + *inputL*dry;
 134:DSP/FX/Reverb/revmodel.cpp **** 		*outputR += outR*wet1 + outL*wet2 + *inputR*dry;
 135:DSP/FX/Reverb/revmodel.cpp **** 
 136:DSP/FX/Reverb/revmodel.cpp **** 		// Increment sample pointers, allowing for interleave (if any)
ARM GAS  /var/folders/wz/z09yph4n0qj4t7mjxhl6ttn80000gn/T//ccKA8ZwU.s 			page 4


 137:DSP/FX/Reverb/revmodel.cpp **** 		inputL += skip;
 138:DSP/FX/Reverb/revmodel.cpp **** 		inputR += skip;
 139:DSP/FX/Reverb/revmodel.cpp **** 		outputL += skip;
 140:DSP/FX/Reverb/revmodel.cpp **** 		outputR += skip;
 141:DSP/FX/Reverb/revmodel.cpp **** 	}
 142:DSP/FX/Reverb/revmodel.cpp **** }
 143:DSP/FX/Reverb/revmodel.cpp **** 
 144:DSP/FX/Reverb/revmodel.cpp **** void revmodel::update()
 145:DSP/FX/Reverb/revmodel.cpp **** {
 146:DSP/FX/Reverb/revmodel.cpp **** // Recalculate internal values after parameter change
 147:DSP/FX/Reverb/revmodel.cpp **** 
 148:DSP/FX/Reverb/revmodel.cpp **** 	int i;
 149:DSP/FX/Reverb/revmodel.cpp **** 
 150:DSP/FX/Reverb/revmodel.cpp **** 	wet1 = wet*(width/2 + 0.5f);
 151:DSP/FX/Reverb/revmodel.cpp **** 	wet2 = wet*((1-width)/2);
 152:DSP/FX/Reverb/revmodel.cpp **** 
 153:DSP/FX/Reverb/revmodel.cpp **** 	if (mode >= freezemode)
 154:DSP/FX/Reverb/revmodel.cpp **** 	{
 155:DSP/FX/Reverb/revmodel.cpp **** 		roomsize1 = 1;
 156:DSP/FX/Reverb/revmodel.cpp **** 		damp1 = 0;
 157:DSP/FX/Reverb/revmodel.cpp **** 		gain = muted;
 158:DSP/FX/Reverb/revmodel.cpp **** 	}
 159:DSP/FX/Reverb/revmodel.cpp **** 	else
 160:DSP/FX/Reverb/revmodel.cpp **** 	{
 161:DSP/FX/Reverb/revmodel.cpp **** 		roomsize1 = roomsize;
 162:DSP/FX/Reverb/revmodel.cpp **** 		damp1 = damp;
 163:DSP/FX/Reverb/revmodel.cpp **** 		gain = fixedgain;
 164:DSP/FX/Reverb/revmodel.cpp **** 	}
 165:DSP/FX/Reverb/revmodel.cpp **** 
 166:DSP/FX/Reverb/revmodel.cpp **** 	for(i=0; i<numcombs; i++)
 167:DSP/FX/Reverb/revmodel.cpp **** 	{
 168:DSP/FX/Reverb/revmodel.cpp **** 		combL[i].setfeedback(roomsize1);
 169:DSP/FX/Reverb/revmodel.cpp **** 		combR[i].setfeedback(roomsize1);
 170:DSP/FX/Reverb/revmodel.cpp **** 	}
 171:DSP/FX/Reverb/revmodel.cpp **** 
 172:DSP/FX/Reverb/revmodel.cpp **** 	for(i=0; i<numcombs; i++)
 173:DSP/FX/Reverb/revmodel.cpp **** 	{
 174:DSP/FX/Reverb/revmodel.cpp **** 		combL[i].setdamp(damp1);
 175:DSP/FX/Reverb/revmodel.cpp **** 		combR[i].setdamp(damp1);
 176:DSP/FX/Reverb/revmodel.cpp **** 	}
 177:DSP/FX/Reverb/revmodel.cpp **** }
 178:DSP/FX/Reverb/revmodel.cpp **** 
 179:DSP/FX/Reverb/revmodel.cpp **** // The following get/set functions are not inlined, because
 180:DSP/FX/Reverb/revmodel.cpp **** // speed is never an issue when calling them, and also
 181:DSP/FX/Reverb/revmodel.cpp **** // because as you develop the reverb model, you may
 182:DSP/FX/Reverb/revmodel.cpp **** // wish to take dynamic action when they are called.
 183:DSP/FX/Reverb/revmodel.cpp **** 
 184:DSP/FX/Reverb/revmodel.cpp **** void revmodel::setroomsize(float value)
 185:DSP/FX/Reverb/revmodel.cpp **** {
 186:DSP/FX/Reverb/revmodel.cpp **** 	roomsize = (value*scaleroom) + offsetroom;
 187:DSP/FX/Reverb/revmodel.cpp **** 	update();
 188:DSP/FX/Reverb/revmodel.cpp **** }
 189:DSP/FX/Reverb/revmodel.cpp **** 
 190:DSP/FX/Reverb/revmodel.cpp **** float revmodel::getroomsize()
 191:DSP/FX/Reverb/revmodel.cpp **** {
 192:DSP/FX/Reverb/revmodel.cpp **** 	return (roomsize-offsetroom)/scaleroom;
 193:DSP/FX/Reverb/revmodel.cpp **** }
ARM GAS  /var/folders/wz/z09yph4n0qj4t7mjxhl6ttn80000gn/T//ccKA8ZwU.s 			page 5


 194:DSP/FX/Reverb/revmodel.cpp **** 
 195:DSP/FX/Reverb/revmodel.cpp **** void revmodel::setdamp(float value)
 196:DSP/FX/Reverb/revmodel.cpp **** {
 197:DSP/FX/Reverb/revmodel.cpp **** 	damp = value*scaledamp;
 198:DSP/FX/Reverb/revmodel.cpp **** 	update();
 199:DSP/FX/Reverb/revmodel.cpp **** }
 200:DSP/FX/Reverb/revmodel.cpp **** 
 201:DSP/FX/Reverb/revmodel.cpp **** float revmodel::getdamp()
 202:DSP/FX/Reverb/revmodel.cpp **** {
 203:DSP/FX/Reverb/revmodel.cpp **** 	return damp/scaledamp;
 204:DSP/FX/Reverb/revmodel.cpp **** }
 205:DSP/FX/Reverb/revmodel.cpp **** 
 206:DSP/FX/Reverb/revmodel.cpp **** void revmodel::setwet(float value)
 207:DSP/FX/Reverb/revmodel.cpp **** {
 208:DSP/FX/Reverb/revmodel.cpp **** 	wet = value*scalewet;
 209:DSP/FX/Reverb/revmodel.cpp **** 	update();
 210:DSP/FX/Reverb/revmodel.cpp **** }
 211:DSP/FX/Reverb/revmodel.cpp **** 
 212:DSP/FX/Reverb/revmodel.cpp **** float revmodel::getwet()
 213:DSP/FX/Reverb/revmodel.cpp **** {
 214:DSP/FX/Reverb/revmodel.cpp **** 	return wet/scalewet;
 215:DSP/FX/Reverb/revmodel.cpp **** }
 216:DSP/FX/Reverb/revmodel.cpp **** 
 217:DSP/FX/Reverb/revmodel.cpp **** void revmodel::setdry(float value)
 218:DSP/FX/Reverb/revmodel.cpp **** {
 219:DSP/FX/Reverb/revmodel.cpp **** 	dry = value*scaledry;
 220:DSP/FX/Reverb/revmodel.cpp **** }
 221:DSP/FX/Reverb/revmodel.cpp **** 
 222:DSP/FX/Reverb/revmodel.cpp **** float revmodel::getdry()
 223:DSP/FX/Reverb/revmodel.cpp **** {
 224:DSP/FX/Reverb/revmodel.cpp **** 	return dry/scaledry;
 225:DSP/FX/Reverb/revmodel.cpp **** }
 226:DSP/FX/Reverb/revmodel.cpp **** 
 227:DSP/FX/Reverb/revmodel.cpp **** void revmodel::setwidth(float value)
 228:DSP/FX/Reverb/revmodel.cpp **** {
 229:DSP/FX/Reverb/revmodel.cpp **** 	width = value;
 230:DSP/FX/Reverb/revmodel.cpp **** 	update();
 231:DSP/FX/Reverb/revmodel.cpp **** }
 232:DSP/FX/Reverb/revmodel.cpp **** 
 233:DSP/FX/Reverb/revmodel.cpp **** float revmodel::getwidth()
 234:DSP/FX/Reverb/revmodel.cpp **** {
 235:DSP/FX/Reverb/revmodel.cpp **** 	return width;
 236:DSP/FX/Reverb/revmodel.cpp **** }
 237:DSP/FX/Reverb/revmodel.cpp **** 
 238:DSP/FX/Reverb/revmodel.cpp **** void revmodel::setmode(float value)
 239:DSP/FX/Reverb/revmodel.cpp **** {
 240:DSP/FX/Reverb/revmodel.cpp **** 	mode = value;
 241:DSP/FX/Reverb/revmodel.cpp **** 	update();
 242:DSP/FX/Reverb/revmodel.cpp **** }
 243:DSP/FX/Reverb/revmodel.cpp **** 
 244:DSP/FX/Reverb/revmodel.cpp **** float revmodel::getmode()
 245:DSP/FX/Reverb/revmodel.cpp **** {
 246:DSP/FX/Reverb/revmodel.cpp **** 	if (mode >= freezemode)
  37              		.loc 1 246 2 is_stmt 0 view .LVU2
  38 0000 F6EE007A 		vmov.f32	s15, #5.0e-1
  39              	.LVL1:
  40              		.loc 1 246 2 view .LVU3
ARM GAS  /var/folders/wz/z09yph4n0qj4t7mjxhl6ttn80000gn/T//ccKA8ZwU.s 			page 6


  41              	.LBE52:
  42              	.LBI51:
 244:DSP/FX/Reverb/revmodel.cpp **** {
  43              		.loc 1 244 7 is_stmt 1 view .LVU4
  44              	.LBB53:
  45              		.loc 1 246 2 view .LVU5
  46 0004 90ED0A7A 		vldr.32	s14, [r0, #40]
  47 0008 B4EEE77A 		vcmpe.f32	s14, s15
  48 000c F1EE10FA 		vmrs	APSR_nzcv, FPSCR
  49 0010 1EDA     		bge	.L9
  50              	.LBE53:
  51              	.LBE51:
  58:DSP/FX/Reverb/revmodel.cpp **** 	if (getmode() >= freezemode)
  52              		.loc 1 58 1 is_stmt 0 view .LVU6
  53 0012 70B5     		push	{r4, r5, r6, lr}
  54              		.cfi_def_cfa_offset 16
  55              		.cfi_offset 4, -16
  56              		.cfi_offset 5, -12
  57              		.cfi_offset 6, -8
  58              		.cfi_offset 14, -4
  59 0014 0546     		mov	r5, r0
  60 0016 00F12C04 		add	r4, r0, #44
  61 001a 00F58676 		add	r6, r0, #268
  62              	.LVL2:
  63              	.L4:
  64              	.LBB54:
  65              	.LBB55:
  64:DSP/FX/Reverb/revmodel.cpp **** 		combR[i].mute();
  66              		.loc 1 64 3 is_stmt 1 view .LVU7
  64:DSP/FX/Reverb/revmodel.cpp **** 		combR[i].mute();
  67              		.loc 1 64 16 is_stmt 0 view .LVU8
  68 001e 2046     		mov	r0, r4
  69 0020 FFF7FEFF 		bl	_ZN4comb4muteEv
  70              	.LVL3:
  65:DSP/FX/Reverb/revmodel.cpp **** 	}
  71              		.loc 1 65 3 is_stmt 1 view .LVU9
  65:DSP/FX/Reverb/revmodel.cpp **** 	}
  72              		.loc 1 65 16 is_stmt 0 view .LVU10
  73 0024 04F1E000 		add	r0, r4, #224
  62:DSP/FX/Reverb/revmodel.cpp **** 	{
  74              		.loc 1 62 16 view .LVU11
  75 0028 1C34     		adds	r4, r4, #28
  65:DSP/FX/Reverb/revmodel.cpp **** 	}
  76              		.loc 1 65 16 view .LVU12
  77 002a FFF7FEFF 		bl	_ZN4comb4muteEv
  78              	.LVL4:
  62:DSP/FX/Reverb/revmodel.cpp **** 	{
  79              		.loc 1 62 2 is_stmt 1 view .LVU13
  62:DSP/FX/Reverb/revmodel.cpp **** 	{
  80              		.loc 1 62 16 view .LVU14
  81 002e A642     		cmp	r6, r4
  82 0030 F5D1     		bne	.L4
  83 0032 05F5F674 		add	r4, r5, #492
  84 0036 05F50B75 		add	r5, r5, #556
  85              	.LVL5:
  86              	.L6:
  62:DSP/FX/Reverb/revmodel.cpp **** 	{
ARM GAS  /var/folders/wz/z09yph4n0qj4t7mjxhl6ttn80000gn/T//ccKA8ZwU.s 			page 7


  87              		.loc 1 62 16 is_stmt 0 view .LVU15
  88              	.LBE55:
  89              	.LBB56:
  69:DSP/FX/Reverb/revmodel.cpp **** 		allpassR[j].mute();
  90              		.loc 1 69 3 is_stmt 1 view .LVU16
  69:DSP/FX/Reverb/revmodel.cpp **** 		allpassR[j].mute();
  91              		.loc 1 69 19 is_stmt 0 view .LVU17
  92 003a 2046     		mov	r0, r4
  93 003c FFF7FEFF 		bl	_ZN7allpass4muteEv
  94              	.LVL6:
  70:DSP/FX/Reverb/revmodel.cpp **** 	}
  95              		.loc 1 70 3 is_stmt 1 view .LVU18
  70:DSP/FX/Reverb/revmodel.cpp **** 	}
  96              		.loc 1 70 19 is_stmt 0 view .LVU19
  97 0040 04F14000 		add	r0, r4, #64
  67:DSP/FX/Reverb/revmodel.cpp **** 	{
  98              		.loc 1 67 16 view .LVU20
  99 0044 1034     		adds	r4, r4, #16
  70:DSP/FX/Reverb/revmodel.cpp **** 	}
 100              		.loc 1 70 19 view .LVU21
 101 0046 FFF7FEFF 		bl	_ZN7allpass4muteEv
 102              	.LVL7:
  67:DSP/FX/Reverb/revmodel.cpp **** 	{
 103              		.loc 1 67 2 is_stmt 1 view .LVU22
  67:DSP/FX/Reverb/revmodel.cpp **** 	{
 104              		.loc 1 67 16 view .LVU23
 105 004a A542     		cmp	r5, r4
 106 004c F5D1     		bne	.L6
 107              	.LBE56:
 108              	.LBE54:
  72:DSP/FX/Reverb/revmodel.cpp **** 
 109              		.loc 1 72 1 is_stmt 0 view .LVU24
 110 004e 70BD     		pop	{r4, r5, r6, pc}
 111              	.LVL8:
 112              	.L9:
 113              		.cfi_def_cfa_offset 0
 114              		.cfi_restore 4
 115              		.cfi_restore 5
 116              		.cfi_restore 6
 117              		.cfi_restore 14
  72:DSP/FX/Reverb/revmodel.cpp **** 
 118              		.loc 1 72 1 view .LVU25
 119 0050 7047     		bx	lr
 120              		.cfi_endproc
 121              	.LFE549:
 123 0052 00BF     		.section	.text._ZN8revmodel14processreplaceEPfS0_S0_S0_li,"ax",%progbits
 124              		.align	1
 125              		.p2align 2,,3
 126              		.global	_ZN8revmodel14processreplaceEPfS0_S0_S0_li
 127              		.syntax unified
 128              		.thumb
 129              		.thumb_func
 131              	_ZN8revmodel14processreplaceEPfS0_S0_S0_li:
 132              	.LVL9:
 133              	.LFB550:
  75:DSP/FX/Reverb/revmodel.cpp **** 	float outL,outR,input;
 134              		.loc 1 75 1 is_stmt 1 view -0
ARM GAS  /var/folders/wz/z09yph4n0qj4t7mjxhl6ttn80000gn/T//ccKA8ZwU.s 			page 8


 135              		.cfi_startproc
 136              		@ args = 12, pretend = 0, frame = 0
 137              		@ frame_needed = 0, uses_anonymous_args = 0
  75:DSP/FX/Reverb/revmodel.cpp **** 	float outL,outR,input;
 138              		.loc 1 75 1 is_stmt 0 view .LVU27
 139 0000 2DE9F043 		push	{r4, r5, r6, r7, r8, r9, lr}
 140              		.cfi_def_cfa_offset 28
 141              		.cfi_offset 4, -28
 142              		.cfi_offset 5, -24
 143              		.cfi_offset 6, -20
 144              		.cfi_offset 7, -16
 145              		.cfi_offset 8, -12
 146              		.cfi_offset 9, -8
 147              		.cfi_offset 14, -4
  75:DSP/FX/Reverb/revmodel.cpp **** 	float outL,outR,input;
 148              		.loc 1 75 1 view .LVU28
 149 0004 DDE90796 		ldrd	r9, r6, [sp, #28]
 150              	.LVL10:
  76:DSP/FX/Reverb/revmodel.cpp **** 
 151              		.loc 1 76 2 is_stmt 1 view .LVU29
  78:DSP/FX/Reverb/revmodel.cpp **** 	{
 152              		.loc 1 78 2 view .LVU30
  78:DSP/FX/Reverb/revmodel.cpp **** 	{
 153              		.loc 1 78 21 view .LVU31
  78:DSP/FX/Reverb/revmodel.cpp **** 	{
 154              		.loc 1 78 21 is_stmt 0 view .LVU32
 155 0008 002E     		cmp	r6, #0
 156 000a 40F3D081 		ble	.L13
 157              	.LBB68:
 102:DSP/FX/Reverb/revmodel.cpp **** 		inputR += skip;
 158              		.loc 1 102 10 view .LVU33
 159 000e 099D     		ldr	r5, [sp, #36]
 160 0010 741E     		subs	r4, r6, #1
 161              	.LVL11:
 102:DSP/FX/Reverb/revmodel.cpp **** 		inputR += skip;
 162              		.loc 1 102 10 view .LVU34
 163 0012 00F1E00C 		add	ip, r0, #224
 164 0016 4FEA850E 		lsl	lr, r5, #2
 165              	.LVL12:
 166              	.L32:
  80:DSP/FX/Reverb/revmodel.cpp **** 		input = (*inputL + *inputR) * gain;
 167              		.loc 1 80 3 is_stmt 1 view .LVU35
  81:DSP/FX/Reverb/revmodel.cpp **** 
 168              		.loc 1 81 3 view .LVU36
  81:DSP/FX/Reverb/revmodel.cpp **** 
 169              		.loc 1 81 20 is_stmt 0 view .LVU37
 170 001a D1ED005A 		vldr.32	s11, [r1]
 171 001e 0646     		mov	r6, r0
 172 0020 92ED007A 		vldr.32	s14, [r2]
  81:DSP/FX/Reverb/revmodel.cpp **** 
 173              		.loc 1 81 9 view .LVU38
 174 0024 D0ED007A 		vldr.32	s15, [r0]
  81:DSP/FX/Reverb/revmodel.cpp **** 
 175              		.loc 1 81 20 view .LVU39
 176 0028 75EE875A 		vadd.f32	s11, s11, s14
  80:DSP/FX/Reverb/revmodel.cpp **** 		input = (*inputL + *inputR) * gain;
 177              		.loc 1 80 15 view .LVU40
ARM GAS  /var/folders/wz/z09yph4n0qj4t7mjxhl6ttn80000gn/T//ccKA8ZwU.s 			page 9


 178 002c 9FEDE15A 		vldr.32	s10, .L49
  80:DSP/FX/Reverb/revmodel.cpp **** 		input = (*inputL + *inputR) * gain;
 179              		.loc 1 80 8 view .LVU41
 180 0030 F0EE454A 		vmov.f32	s9, s10
  81:DSP/FX/Reverb/revmodel.cpp **** 
 181              		.loc 1 81 9 view .LVU42
 182 0034 65EEA75A 		vmul.f32	s11, s11, s15
 183              	.LVL13:
  84:DSP/FX/Reverb/revmodel.cpp **** 		{
 184              		.loc 1 84 3 is_stmt 1 view .LVU43
 185              	.LBB69:
  84:DSP/FX/Reverb/revmodel.cpp **** 		{
 186              		.loc 1 84 17 view .LVU44
 187 0038 4EE0     		b	.L15
 188              	.LVL14:
 189              	.L48:
 190              	.LBB70:
 191              	.LBB71:
 192              		.file 2 "DSP/FX/Reverb/comb.hpp"
   1:DSP/FX/Reverb/comb.hpp **** // Comb filter class declaration
   2:DSP/FX/Reverb/comb.hpp **** //
   3:DSP/FX/Reverb/comb.hpp **** // Written by Jezar at Dreampoint, June 2000
   4:DSP/FX/Reverb/comb.hpp **** // http://www.dreampoint.co.uk
   5:DSP/FX/Reverb/comb.hpp **** // This code is public domain
   6:DSP/FX/Reverb/comb.hpp **** 
   7:DSP/FX/Reverb/comb.hpp **** #ifndef _comb_
   8:DSP/FX/Reverb/comb.hpp **** #define _comb_
   9:DSP/FX/Reverb/comb.hpp **** 
  10:DSP/FX/Reverb/comb.hpp **** #include "denormals.h"
  11:DSP/FX/Reverb/comb.hpp **** 
  12:DSP/FX/Reverb/comb.hpp **** class comb
  13:DSP/FX/Reverb/comb.hpp **** {
  14:DSP/FX/Reverb/comb.hpp **** public:
  15:DSP/FX/Reverb/comb.hpp **** 					comb();
  16:DSP/FX/Reverb/comb.hpp **** 			void	setbuffer(float *buf, int size);
  17:DSP/FX/Reverb/comb.hpp **** 	inline  float	process(float inp);
  18:DSP/FX/Reverb/comb.hpp **** 			void	mute();
  19:DSP/FX/Reverb/comb.hpp **** 			void	setdamp(float val);
  20:DSP/FX/Reverb/comb.hpp **** 			float	getdamp();
  21:DSP/FX/Reverb/comb.hpp **** 			void	setfeedback(float val);
  22:DSP/FX/Reverb/comb.hpp **** 			float	getfeedback();
  23:DSP/FX/Reverb/comb.hpp **** private:
  24:DSP/FX/Reverb/comb.hpp **** 	float	feedback;
  25:DSP/FX/Reverb/comb.hpp **** 	float	filterstore;
  26:DSP/FX/Reverb/comb.hpp **** 	float	damp1;
  27:DSP/FX/Reverb/comb.hpp **** 	float	damp2;
  28:DSP/FX/Reverb/comb.hpp **** 	float	*buffer;
  29:DSP/FX/Reverb/comb.hpp **** 	int		bufsize;
  30:DSP/FX/Reverb/comb.hpp **** 	int		bufidx;
  31:DSP/FX/Reverb/comb.hpp **** };
  32:DSP/FX/Reverb/comb.hpp **** 
  33:DSP/FX/Reverb/comb.hpp **** 
  34:DSP/FX/Reverb/comb.hpp **** // Big to inline - but crucial for speed
  35:DSP/FX/Reverb/comb.hpp **** 
  36:DSP/FX/Reverb/comb.hpp **** inline float comb::process(float input)
  37:DSP/FX/Reverb/comb.hpp **** {
  38:DSP/FX/Reverb/comb.hpp **** 	float output;
ARM GAS  /var/folders/wz/z09yph4n0qj4t7mjxhl6ttn80000gn/T//ccKA8ZwU.s 			page 10


  39:DSP/FX/Reverb/comb.hpp **** 
  40:DSP/FX/Reverb/comb.hpp **** 	output = buffer[bufidx];
  41:DSP/FX/Reverb/comb.hpp **** 	undenormalise(output);
  42:DSP/FX/Reverb/comb.hpp **** 
  43:DSP/FX/Reverb/comb.hpp **** 	filterstore = (output*damp2) + (filterstore*damp1);
  44:DSP/FX/Reverb/comb.hpp **** 	undenormalise(filterstore);
 193              		.loc 2 44 2 view .LVU45
 194 003a F0EE477A 		vmov.f32	s15, s14
 195 003e 86ED0C7A 		vstr.32	s14, [r6, #48]
 196              	.L35:
  45:DSP/FX/Reverb/comb.hpp **** 
  46:DSP/FX/Reverb/comb.hpp **** 	buffer[bufidx] = input + (filterstore*feedback);
 197              		.loc 2 46 2 view .LVU46
 198              		.loc 2 46 25 is_stmt 0 view .LVU47
 199 0042 B0EE657A 		vmov.f32	s14, s11
 200 0046 96ED0B6A 		vldr.32	s12, [r6, #44]
  47:DSP/FX/Reverb/comb.hpp **** 
  48:DSP/FX/Reverb/comb.hpp **** 	if(++bufidx>=bufsize) bufidx = 0;
 201              		.loc 2 48 5 view .LVU48
 202 004a 0137     		adds	r7, r7, #1
  46:DSP/FX/Reverb/comb.hpp **** 
 203              		.loc 2 46 25 view .LVU49
 204 004c A6EE277A 		vfma.f32	s14, s12, s15
  46:DSP/FX/Reverb/comb.hpp **** 
 205              		.loc 2 46 17 view .LVU50
 206 0050 88ED007A 		vstr.32	s14, [r8]
 207              		.loc 2 48 2 is_stmt 1 view .LVU51
 208 0054 356C     		ldr	r5, [r6, #64]
 209              		.loc 2 48 13 is_stmt 0 view .LVU52
 210 0056 7764     		str	r7, [r6, #68]
 211              		.loc 2 48 2 view .LVU53
 212 0058 BD42     		cmp	r5, r7
 213 005a 01DC     		bgt	.L36
 214              		.loc 2 48 24 is_stmt 1 view .LVU54
 215              		.loc 2 48 31 is_stmt 0 view .LVU55
 216 005c 0027     		movs	r7, #0
 217 005e 7764     		str	r7, [r6, #68]
 218              	.L36:
  49:DSP/FX/Reverb/comb.hpp **** 
  50:DSP/FX/Reverb/comb.hpp **** 	return output;
 219              		.loc 2 50 2 is_stmt 1 view .LVU56
 220              	.LVL15:
 221              		.loc 2 50 2 is_stmt 0 view .LVU57
 222              	.LBE71:
 223              	.LBE70:
 224              	.LBB73:
 225              	.LBB74:
  40:DSP/FX/Reverb/comb.hpp **** 	undenormalise(output);
 226              		.loc 2 40 24 view .LVU58
 227 0060 D6F81C51 		ldr	r5, [r6, #284]
 228              	.LBE74:
 229              	.LBE73:
  86:DSP/FX/Reverb/revmodel.cpp **** 			outR += combR[i].process(input);
 230              		.loc 1 86 9 view .LVU59
 231 0064 74EEA64A 		vadd.f32	s9, s9, s13
 232              	.LVL16:
  87:DSP/FX/Reverb/revmodel.cpp **** 		}
ARM GAS  /var/folders/wz/z09yph4n0qj4t7mjxhl6ttn80000gn/T//ccKA8ZwU.s 			page 11


 233              		.loc 1 87 4 is_stmt 1 view .LVU60
 234              	.LBB77:
 235              	.LBI73:
  36:DSP/FX/Reverb/comb.hpp **** {
 236              		.loc 2 36 14 view .LVU61
 237              	.LBB75:
  38:DSP/FX/Reverb/comb.hpp **** 
 238              		.loc 2 38 2 view .LVU62
  40:DSP/FX/Reverb/comb.hpp **** 	undenormalise(output);
 239              		.loc 2 40 2 view .LVU63
  40:DSP/FX/Reverb/comb.hpp **** 	undenormalise(output);
 240              		.loc 2 40 18 is_stmt 0 view .LVU64
 241 0068 D6F82471 		ldr	r7, [r6, #292]
  43:DSP/FX/Reverb/comb.hpp **** 	undenormalise(filterstore);
 242              		.loc 2 43 45 view .LVU65
 243 006c 96ED447A 		vldr.32	s14, [r6, #272]
  40:DSP/FX/Reverb/comb.hpp **** 	undenormalise(output);
 244              		.loc 2 40 24 view .LVU66
 245 0070 05EB8708 		add	r8, r5, r7, lsl #2
  43:DSP/FX/Reverb/comb.hpp **** 	undenormalise(filterstore);
 246              		.loc 2 43 45 view .LVU67
 247 0074 D6ED457A 		vldr.32	s15, [r6, #276]
  41:DSP/FX/Reverb/comb.hpp **** 
 248              		.loc 2 41 2 view .LVU68
 249 0078 9FEDCE6A 		vldr.32	s12, .L49
  43:DSP/FX/Reverb/comb.hpp **** 	undenormalise(filterstore);
 250              		.loc 2 43 45 view .LVU69
 251 007c 67EE877A 		vmul.f32	s15, s15, s14
  40:DSP/FX/Reverb/comb.hpp **** 	undenormalise(output);
 252              		.loc 2 40 24 view .LVU70
 253 0080 98ED007A 		vldr.32	s14, [r8]
 254              	.LVL17:
  41:DSP/FX/Reverb/comb.hpp **** 
 255              		.loc 2 41 2 is_stmt 1 view .LVU71
  43:DSP/FX/Reverb/comb.hpp **** 	undenormalise(filterstore);
 256              		.loc 2 43 31 is_stmt 0 view .LVU72
 257 0084 96ED464A 		vldr.32	s8, [r6, #280]
  41:DSP/FX/Reverb/comb.hpp **** 
 258              		.loc 2 41 2 view .LVU73
 259 0088 17EE105A 		vmov	r5, s14	@ int
 260 008c 15F0FF4F 		tst	r5, #2139095040
 261 0090 06FE077A 		vseleq.f32	s14, s12, s14
 262              	.LVL18:
  43:DSP/FX/Reverb/comb.hpp **** 	undenormalise(filterstore);
 263              		.loc 2 43 2 is_stmt 1 view .LVU74
  43:DSP/FX/Reverb/comb.hpp **** 	undenormalise(filterstore);
 264              		.loc 2 43 31 is_stmt 0 view .LVU75
 265 0094 E4EE077A 		vfma.f32	s15, s8, s14
  44:DSP/FX/Reverb/comb.hpp **** 
 266              		.loc 2 44 2 is_stmt 1 view .LVU76
 267 0098 17EE905A 		vmov	r5, s15	@ int
 268 009c 15F0FF4F 		tst	r5, #2139095040
 269 00a0 3AD1     		bne	.L38
  44:DSP/FX/Reverb/comb.hpp **** 
 270              		.loc 2 44 2 view .LVU77
 271 00a2 F0EE467A 		vmov.f32	s15, s12
 272 00a6 86ED446A 		vstr.32	s12, [r6, #272]
ARM GAS  /var/folders/wz/z09yph4n0qj4t7mjxhl6ttn80000gn/T//ccKA8ZwU.s 			page 12


 273              	.L39:
  46:DSP/FX/Reverb/comb.hpp **** 
 274              		.loc 2 46 2 view .LVU78
  46:DSP/FX/Reverb/comb.hpp **** 
 275              		.loc 2 46 25 is_stmt 0 view .LVU79
 276 00aa F0EE656A 		vmov.f32	s13, s11
 277 00ae 96ED436A 		vldr.32	s12, [r6, #268]
  48:DSP/FX/Reverb/comb.hpp **** 
 278              		.loc 2 48 5 view .LVU80
 279 00b2 0137     		adds	r7, r7, #1
  46:DSP/FX/Reverb/comb.hpp **** 
 280              		.loc 2 46 25 view .LVU81
 281 00b4 E6EE276A 		vfma.f32	s13, s12, s15
  46:DSP/FX/Reverb/comb.hpp **** 
 282              		.loc 2 46 17 view .LVU82
 283 00b8 C8ED006A 		vstr.32	s13, [r8]
  48:DSP/FX/Reverb/comb.hpp **** 
 284              		.loc 2 48 2 is_stmt 1 view .LVU83
 285 00bc D6F82051 		ldr	r5, [r6, #288]
  48:DSP/FX/Reverb/comb.hpp **** 
 286              		.loc 2 48 13 is_stmt 0 view .LVU84
 287 00c0 C6F82471 		str	r7, [r6, #292]
  48:DSP/FX/Reverb/comb.hpp **** 
 288              		.loc 2 48 2 view .LVU85
 289 00c4 BD42     		cmp	r5, r7
 290 00c6 02DC     		bgt	.L40
  48:DSP/FX/Reverb/comb.hpp **** 
 291              		.loc 2 48 24 is_stmt 1 view .LVU86
  48:DSP/FX/Reverb/comb.hpp **** 
 292              		.loc 2 48 31 is_stmt 0 view .LVU87
 293 00c8 0027     		movs	r7, #0
 294 00ca C6F82471 		str	r7, [r6, #292]
 295              	.L40:
 296              		.loc 2 50 2 is_stmt 1 view .LVU88
 297              	.LVL19:
 298              		.loc 2 50 2 is_stmt 0 view .LVU89
 299              	.LBE75:
 300              	.LBE77:
  84:DSP/FX/Reverb/revmodel.cpp **** 		{
 301              		.loc 1 84 17 view .LVU90
 302 00ce 1C36     		adds	r6, r6, #28
  87:DSP/FX/Reverb/revmodel.cpp **** 		}
 303              		.loc 1 87 9 view .LVU91
 304 00d0 35EE075A 		vadd.f32	s10, s10, s14
 305              	.LVL20:
  84:DSP/FX/Reverb/revmodel.cpp **** 		{
 306              		.loc 1 84 3 is_stmt 1 view .LVU92
  84:DSP/FX/Reverb/revmodel.cpp **** 		{
 307              		.loc 1 84 17 view .LVU93
 308 00d4 B445     		cmp	ip, r6
 309 00d6 22D0     		beq	.L47
 310              	.LVL21:
 311              	.L15:
  86:DSP/FX/Reverb/revmodel.cpp **** 			outR += combR[i].process(input);
 312              		.loc 1 86 4 view .LVU94
 313              	.LBB78:
 314              	.LBI70:
ARM GAS  /var/folders/wz/z09yph4n0qj4t7mjxhl6ttn80000gn/T//ccKA8ZwU.s 			page 13


  36:DSP/FX/Reverb/comb.hpp **** {
 315              		.loc 2 36 14 view .LVU95
 316              	.LBB72:
  38:DSP/FX/Reverb/comb.hpp **** 
 317              		.loc 2 38 2 view .LVU96
  40:DSP/FX/Reverb/comb.hpp **** 	undenormalise(output);
 318              		.loc 2 40 2 view .LVU97
  40:DSP/FX/Reverb/comb.hpp **** 	undenormalise(output);
 319              		.loc 2 40 24 is_stmt 0 view .LVU98
 320 00d8 F56B     		ldr	r5, [r6, #60]
  40:DSP/FX/Reverb/comb.hpp **** 	undenormalise(output);
 321              		.loc 2 40 18 view .LVU99
 322 00da 776C     		ldr	r7, [r6, #68]
  43:DSP/FX/Reverb/comb.hpp **** 	undenormalise(filterstore);
 323              		.loc 2 43 45 view .LVU100
 324 00dc D6ED0C6A 		vldr.32	s13, [r6, #48]
  40:DSP/FX/Reverb/comb.hpp **** 	undenormalise(output);
 325              		.loc 2 40 24 view .LVU101
 326 00e0 05EB8708 		add	r8, r5, r7, lsl #2
  43:DSP/FX/Reverb/comb.hpp **** 	undenormalise(filterstore);
 327              		.loc 2 43 45 view .LVU102
 328 00e4 D6ED0D7A 		vldr.32	s15, [r6, #52]
  41:DSP/FX/Reverb/comb.hpp **** 
 329              		.loc 2 41 2 view .LVU103
 330 00e8 9FEDB27A 		vldr.32	s14, .L49
  43:DSP/FX/Reverb/comb.hpp **** 	undenormalise(filterstore);
 331              		.loc 2 43 45 view .LVU104
 332 00ec 67EEA67A 		vmul.f32	s15, s15, s13
  40:DSP/FX/Reverb/comb.hpp **** 	undenormalise(output);
 333              		.loc 2 40 24 view .LVU105
 334 00f0 D8ED006A 		vldr.32	s13, [r8]
 335              	.LVL22:
  41:DSP/FX/Reverb/comb.hpp **** 
 336              		.loc 2 41 2 is_stmt 1 view .LVU106
  43:DSP/FX/Reverb/comb.hpp **** 	undenormalise(filterstore);
 337              		.loc 2 43 31 is_stmt 0 view .LVU107
 338 00f4 96ED0E6A 		vldr.32	s12, [r6, #56]
  41:DSP/FX/Reverb/comb.hpp **** 
 339              		.loc 2 41 2 view .LVU108
 340 00f8 16EE905A 		vmov	r5, s13	@ int
 341 00fc 15F0FF4F 		tst	r5, #2139095040
 342 0100 47FE266A 		vseleq.f32	s13, s14, s13
 343              	.LVL23:
  43:DSP/FX/Reverb/comb.hpp **** 	undenormalise(filterstore);
 344              		.loc 2 43 2 is_stmt 1 view .LVU109
  43:DSP/FX/Reverb/comb.hpp **** 	undenormalise(filterstore);
 345              		.loc 2 43 31 is_stmt 0 view .LVU110
 346 0104 E6EE267A 		vfma.f32	s15, s12, s13
  44:DSP/FX/Reverb/comb.hpp **** 
 347              		.loc 2 44 2 is_stmt 1 view .LVU111
 348 0108 17EE905A 		vmov	r5, s15	@ int
 349 010c 15F0FF4F 		tst	r5, #2139095040
 350 0110 93D0     		beq	.L48
  43:DSP/FX/Reverb/comb.hpp **** 	undenormalise(filterstore);
 351              		.loc 2 43 14 is_stmt 0 view .LVU112
 352 0112 C6ED0C7A 		vstr.32	s15, [r6, #48]
 353 0116 94E7     		b	.L35
ARM GAS  /var/folders/wz/z09yph4n0qj4t7mjxhl6ttn80000gn/T//ccKA8ZwU.s 			page 14


 354              	.LVL24:
 355              	.L38:
  43:DSP/FX/Reverb/comb.hpp **** 	undenormalise(filterstore);
 356              		.loc 2 43 14 view .LVU113
 357              	.LBE72:
 358              	.LBE78:
 359              	.LBB79:
 360              	.LBB76:
 361 0118 C6ED447A 		vstr.32	s15, [r6, #272]
 362 011c C5E7     		b	.L39
 363              	.LVL25:
 364              	.L47:
  43:DSP/FX/Reverb/comb.hpp **** 	undenormalise(filterstore);
 365              		.loc 2 43 14 view .LVU114
 366              	.LBE76:
 367              	.LBE79:
 368              	.LBE69:
 369              	.LBB80:
  91:DSP/FX/Reverb/revmodel.cpp **** 		{
 370              		.loc 1 91 17 is_stmt 1 view .LVU115
  93:DSP/FX/Reverb/revmodel.cpp **** 			outR = allpassR[j].process(outR);
 371              		.loc 1 93 4 view .LVU116
 372              	.LBB81:
 373              	.LBI81:
 374              		.file 3 "DSP/FX/Reverb/allpass.hpp"
   1:DSP/FX/Reverb/allpass.hpp **** // Allpass filter declaration
   2:DSP/FX/Reverb/allpass.hpp **** //
   3:DSP/FX/Reverb/allpass.hpp **** // Written by Jezar at Dreampoint, June 2000
   4:DSP/FX/Reverb/allpass.hpp **** // http://www.dreampoint.co.uk
   5:DSP/FX/Reverb/allpass.hpp **** // This code is public domain
   6:DSP/FX/Reverb/allpass.hpp **** 
   7:DSP/FX/Reverb/allpass.hpp **** #ifndef _allpass_
   8:DSP/FX/Reverb/allpass.hpp **** #define _allpass_
   9:DSP/FX/Reverb/allpass.hpp **** #include "denormals.h"
  10:DSP/FX/Reverb/allpass.hpp **** 
  11:DSP/FX/Reverb/allpass.hpp **** class allpass
  12:DSP/FX/Reverb/allpass.hpp **** {
  13:DSP/FX/Reverb/allpass.hpp **** public:
  14:DSP/FX/Reverb/allpass.hpp **** 					allpass();
  15:DSP/FX/Reverb/allpass.hpp **** 			void	setbuffer(float *buf, int size);
  16:DSP/FX/Reverb/allpass.hpp **** 	inline  float	process(float inp);
  17:DSP/FX/Reverb/allpass.hpp **** 			void	mute();
  18:DSP/FX/Reverb/allpass.hpp **** 			void	setfeedback(float val);
  19:DSP/FX/Reverb/allpass.hpp **** 			float	getfeedback();
  20:DSP/FX/Reverb/allpass.hpp **** // private:
  21:DSP/FX/Reverb/allpass.hpp **** 	float	feedback;
  22:DSP/FX/Reverb/allpass.hpp **** 	float	*buffer;
  23:DSP/FX/Reverb/allpass.hpp **** 	int		bufsize;
  24:DSP/FX/Reverb/allpass.hpp **** 	int		bufidx;
  25:DSP/FX/Reverb/allpass.hpp **** };
  26:DSP/FX/Reverb/allpass.hpp **** 
  27:DSP/FX/Reverb/allpass.hpp **** 
  28:DSP/FX/Reverb/allpass.hpp **** // Big to inline - but crucial for speed
  29:DSP/FX/Reverb/allpass.hpp **** 
  30:DSP/FX/Reverb/allpass.hpp **** inline float allpass::process(float input)
 375              		.loc 3 30 14 view .LVU117
 376              	.LBB82:
ARM GAS  /var/folders/wz/z09yph4n0qj4t7mjxhl6ttn80000gn/T//ccKA8ZwU.s 			page 15


  31:DSP/FX/Reverb/allpass.hpp **** {
  32:DSP/FX/Reverb/allpass.hpp **** 	float output;
 377              		.loc 3 32 2 view .LVU118
  33:DSP/FX/Reverb/allpass.hpp **** 	float bufout;
 378              		.loc 3 33 2 view .LVU119
  34:DSP/FX/Reverb/allpass.hpp **** 	
  35:DSP/FX/Reverb/allpass.hpp **** 	bufout = buffer[bufidx];
 379              		.loc 3 35 2 view .LVU120
 380              		.loc 3 35 18 is_stmt 0 view .LVU121
 381 011e D0F8F861 		ldr	r6, [r0, #504]
 382              		.loc 3 35 24 view .LVU122
 383 0122 D0F8F071 		ldr	r7, [r0, #496]
  36:DSP/FX/Reverb/allpass.hpp **** 	undenormalise(bufout);
 384              		.loc 3 36 2 view .LVU123
 385 0126 9FEDA37A 		vldr.32	s14, .L49
  35:DSP/FX/Reverb/allpass.hpp **** 	undenormalise(bufout);
 386              		.loc 3 35 24 view .LVU124
 387 012a 07EB8607 		add	r7, r7, r6, lsl #2
  37:DSP/FX/Reverb/allpass.hpp **** 	
  38:DSP/FX/Reverb/allpass.hpp **** 	output = -input + bufout;
  39:DSP/FX/Reverb/allpass.hpp **** 	buffer[bufidx] = input + (bufout*feedback);
 388              		.loc 3 39 25 view .LVU125
 389 012e D0ED7B6A 		vldr.32	s13, [r0, #492]
  40:DSP/FX/Reverb/allpass.hpp **** 
  41:DSP/FX/Reverb/allpass.hpp **** 	if(++bufidx>=bufsize) bufidx = 0;
 390              		.loc 3 41 5 view .LVU126
 391 0132 0136     		adds	r6, r6, #1
  35:DSP/FX/Reverb/allpass.hpp **** 	undenormalise(bufout);
 392              		.loc 3 35 24 view .LVU127
 393 0134 D7ED007A 		vldr.32	s15, [r7]
 394              	.LVL26:
  36:DSP/FX/Reverb/allpass.hpp **** 	
 395              		.loc 3 36 2 is_stmt 1 view .LVU128
 396 0138 17EE905A 		vmov	r5, s15	@ int
 397 013c 15F0FF4F 		tst	r5, #2139095040
 398 0140 47FE277A 		vseleq.f32	s15, s14, s15
 399              	.LVL27:
  38:DSP/FX/Reverb/allpass.hpp **** 	buffer[bufidx] = input + (bufout*feedback);
 400              		.loc 3 38 2 view .LVU129
  39:DSP/FX/Reverb/allpass.hpp **** 
 401              		.loc 3 39 25 is_stmt 0 view .LVU130
 402 0144 B0EE647A 		vmov.f32	s14, s9
  38:DSP/FX/Reverb/allpass.hpp **** 	buffer[bufidx] = input + (bufout*feedback);
 403              		.loc 3 38 9 view .LVU131
 404 0148 77EEE44A 		vsub.f32	s9, s15, s9
 405              	.LVL28:
  39:DSP/FX/Reverb/allpass.hpp **** 
 406              		.loc 3 39 2 is_stmt 1 view .LVU132
  39:DSP/FX/Reverb/allpass.hpp **** 
 407              		.loc 3 39 25 is_stmt 0 view .LVU133
 408 014c A7EEA67A 		vfma.f32	s14, s15, s13
 409              	.LVL29:
  39:DSP/FX/Reverb/allpass.hpp **** 
 410              		.loc 3 39 17 view .LVU134
 411 0150 87ED007A 		vstr.32	s14, [r7]
 412              		.loc 3 41 2 is_stmt 1 view .LVU135
 413 0154 D0F8F451 		ldr	r5, [r0, #500]
ARM GAS  /var/folders/wz/z09yph4n0qj4t7mjxhl6ttn80000gn/T//ccKA8ZwU.s 			page 16


 414              		.loc 3 41 13 is_stmt 0 view .LVU136
 415 0158 C0F8F861 		str	r6, [r0, #504]
 416              		.loc 3 41 2 view .LVU137
 417 015c AE42     		cmp	r6, r5
 418 015e 02DB     		blt	.L17
 419              		.loc 3 41 24 is_stmt 1 view .LVU138
 420              		.loc 3 41 31 is_stmt 0 view .LVU139
 421 0160 0026     		movs	r6, #0
 422 0162 C0F8F861 		str	r6, [r0, #504]
 423              	.L17:
  42:DSP/FX/Reverb/allpass.hpp **** 
  43:DSP/FX/Reverb/allpass.hpp **** 	return output;
 424              		.loc 3 43 2 is_stmt 1 view .LVU140
 425              	.LVL30:
 426              		.loc 3 43 2 is_stmt 0 view .LVU141
 427              	.LBE82:
 428              	.LBE81:
  94:DSP/FX/Reverb/revmodel.cpp **** 		}
 429              		.loc 1 94 4 is_stmt 1 view .LVU142
 430              	.LBB86:
 431              	.LBI86:
  30:DSP/FX/Reverb/allpass.hpp **** {
 432              		.loc 3 30 14 view .LVU143
 433              	.LBB87:
  32:DSP/FX/Reverb/allpass.hpp **** 	float bufout;
 434              		.loc 3 32 2 view .LVU144
  33:DSP/FX/Reverb/allpass.hpp **** 	
 435              		.loc 3 33 2 view .LVU145
  35:DSP/FX/Reverb/allpass.hpp **** 	undenormalise(bufout);
 436              		.loc 3 35 2 view .LVU146
  35:DSP/FX/Reverb/allpass.hpp **** 	undenormalise(bufout);
 437              		.loc 3 35 18 is_stmt 0 view .LVU147
 438 0166 D0F83862 		ldr	r6, [r0, #568]
  35:DSP/FX/Reverb/allpass.hpp **** 	undenormalise(bufout);
 439              		.loc 3 35 24 view .LVU148
 440 016a D0F83072 		ldr	r7, [r0, #560]
  36:DSP/FX/Reverb/allpass.hpp **** 	
 441              		.loc 3 36 2 view .LVU149
 442 016e DFED917A 		vldr.32	s15, .L49
  35:DSP/FX/Reverb/allpass.hpp **** 	undenormalise(bufout);
 443              		.loc 3 35 24 view .LVU150
 444 0172 07EB8607 		add	r7, r7, r6, lsl #2
  39:DSP/FX/Reverb/allpass.hpp **** 
 445              		.loc 3 39 25 view .LVU151
 446 0176 D0ED8B6A 		vldr.32	s13, [r0, #556]
  41:DSP/FX/Reverb/allpass.hpp **** 
 447              		.loc 3 41 5 view .LVU152
 448 017a 0136     		adds	r6, r6, #1
  35:DSP/FX/Reverb/allpass.hpp **** 	undenormalise(bufout);
 449              		.loc 3 35 24 view .LVU153
 450 017c 97ED007A 		vldr.32	s14, [r7]
 451              	.LVL31:
  36:DSP/FX/Reverb/allpass.hpp **** 	
 452              		.loc 3 36 2 is_stmt 1 view .LVU154
 453 0180 17EE105A 		vmov	r5, s14	@ int
 454 0184 15F0FF4F 		tst	r5, #2139095040
 455 0188 07FE877A 		vseleq.f32	s14, s15, s14
ARM GAS  /var/folders/wz/z09yph4n0qj4t7mjxhl6ttn80000gn/T//ccKA8ZwU.s 			page 17


 456              	.LVL32:
  38:DSP/FX/Reverb/allpass.hpp **** 	buffer[bufidx] = input + (bufout*feedback);
 457              		.loc 3 38 2 view .LVU155
  39:DSP/FX/Reverb/allpass.hpp **** 
 458              		.loc 3 39 25 is_stmt 0 view .LVU156
 459 018c F0EE457A 		vmov.f32	s15, s10
  38:DSP/FX/Reverb/allpass.hpp **** 	buffer[bufidx] = input + (bufout*feedback);
 460              		.loc 3 38 9 view .LVU157
 461 0190 37EE455A 		vsub.f32	s10, s14, s10
 462              	.LVL33:
  39:DSP/FX/Reverb/allpass.hpp **** 
 463              		.loc 3 39 2 is_stmt 1 view .LVU158
  39:DSP/FX/Reverb/allpass.hpp **** 
 464              		.loc 3 39 25 is_stmt 0 view .LVU159
 465 0194 E7EE267A 		vfma.f32	s15, s14, s13
 466              	.LVL34:
  39:DSP/FX/Reverb/allpass.hpp **** 
 467              		.loc 3 39 17 view .LVU160
 468 0198 C7ED007A 		vstr.32	s15, [r7]
  41:DSP/FX/Reverb/allpass.hpp **** 
 469              		.loc 3 41 2 is_stmt 1 view .LVU161
 470 019c D0F83452 		ldr	r5, [r0, #564]
  41:DSP/FX/Reverb/allpass.hpp **** 
 471              		.loc 3 41 13 is_stmt 0 view .LVU162
 472 01a0 C0F83862 		str	r6, [r0, #568]
  41:DSP/FX/Reverb/allpass.hpp **** 
 473              		.loc 3 41 2 view .LVU163
 474 01a4 AE42     		cmp	r6, r5
 475 01a6 02DB     		blt	.L19
  41:DSP/FX/Reverb/allpass.hpp **** 
 476              		.loc 3 41 24 is_stmt 1 view .LVU164
  41:DSP/FX/Reverb/allpass.hpp **** 
 477              		.loc 3 41 31 is_stmt 0 view .LVU165
 478 01a8 0026     		movs	r6, #0
 479 01aa C0F83862 		str	r6, [r0, #568]
 480              	.L19:
 481              		.loc 3 43 2 is_stmt 1 view .LVU166
 482              	.LVL35:
 483              		.loc 3 43 2 is_stmt 0 view .LVU167
 484              	.LBE87:
 485              	.LBE86:
  91:DSP/FX/Reverb/revmodel.cpp **** 		{
 486              		.loc 1 91 3 is_stmt 1 view .LVU168
  91:DSP/FX/Reverb/revmodel.cpp **** 		{
 487              		.loc 1 91 17 view .LVU169
  93:DSP/FX/Reverb/revmodel.cpp **** 			outR = allpassR[j].process(outR);
 488              		.loc 1 93 4 view .LVU170
 489              	.LBB91:
  30:DSP/FX/Reverb/allpass.hpp **** {
 490              		.loc 3 30 14 view .LVU171
 491              	.LBB83:
  32:DSP/FX/Reverb/allpass.hpp **** 	float bufout;
 492              		.loc 3 32 2 view .LVU172
  33:DSP/FX/Reverb/allpass.hpp **** 	
 493              		.loc 3 33 2 view .LVU173
  35:DSP/FX/Reverb/allpass.hpp **** 	undenormalise(bufout);
 494              		.loc 3 35 2 view .LVU174
ARM GAS  /var/folders/wz/z09yph4n0qj4t7mjxhl6ttn80000gn/T//ccKA8ZwU.s 			page 18


  35:DSP/FX/Reverb/allpass.hpp **** 	undenormalise(bufout);
 495              		.loc 3 35 18 is_stmt 0 view .LVU175
 496 01ae D0F80862 		ldr	r6, [r0, #520]
  35:DSP/FX/Reverb/allpass.hpp **** 	undenormalise(bufout);
 497              		.loc 3 35 24 view .LVU176
 498 01b2 D0F80072 		ldr	r7, [r0, #512]
  36:DSP/FX/Reverb/allpass.hpp **** 	
 499              		.loc 3 36 2 view .LVU177
 500 01b6 9FED7F7A 		vldr.32	s14, .L49
  35:DSP/FX/Reverb/allpass.hpp **** 	undenormalise(bufout);
 501              		.loc 3 35 24 view .LVU178
 502 01ba 07EB8607 		add	r7, r7, r6, lsl #2
  39:DSP/FX/Reverb/allpass.hpp **** 
 503              		.loc 3 39 25 view .LVU179
 504 01be D0ED7F6A 		vldr.32	s13, [r0, #508]
  41:DSP/FX/Reverb/allpass.hpp **** 
 505              		.loc 3 41 5 view .LVU180
 506 01c2 0136     		adds	r6, r6, #1
  35:DSP/FX/Reverb/allpass.hpp **** 	undenormalise(bufout);
 507              		.loc 3 35 24 view .LVU181
 508 01c4 D7ED007A 		vldr.32	s15, [r7]
 509              	.LVL36:
  36:DSP/FX/Reverb/allpass.hpp **** 	
 510              		.loc 3 36 2 is_stmt 1 view .LVU182
 511 01c8 17EE905A 		vmov	r5, s15	@ int
 512 01cc 15F0FF4F 		tst	r5, #2139095040
 513 01d0 47FE277A 		vseleq.f32	s15, s14, s15
 514              	.LVL37:
  38:DSP/FX/Reverb/allpass.hpp **** 	buffer[bufidx] = input + (bufout*feedback);
 515              		.loc 3 38 2 view .LVU183
  39:DSP/FX/Reverb/allpass.hpp **** 
 516              		.loc 3 39 25 is_stmt 0 view .LVU184
 517 01d4 B0EE647A 		vmov.f32	s14, s9
  38:DSP/FX/Reverb/allpass.hpp **** 	buffer[bufidx] = input + (bufout*feedback);
 518              		.loc 3 38 9 view .LVU185
 519 01d8 77EEE44A 		vsub.f32	s9, s15, s9
 520              	.LVL38:
  39:DSP/FX/Reverb/allpass.hpp **** 
 521              		.loc 3 39 2 is_stmt 1 view .LVU186
  39:DSP/FX/Reverb/allpass.hpp **** 
 522              		.loc 3 39 25 is_stmt 0 view .LVU187
 523 01dc A7EEA67A 		vfma.f32	s14, s15, s13
 524              	.LVL39:
  39:DSP/FX/Reverb/allpass.hpp **** 
 525              		.loc 3 39 17 view .LVU188
 526 01e0 87ED007A 		vstr.32	s14, [r7]
  41:DSP/FX/Reverb/allpass.hpp **** 
 527              		.loc 3 41 2 is_stmt 1 view .LVU189
 528 01e4 D0F80452 		ldr	r5, [r0, #516]
  41:DSP/FX/Reverb/allpass.hpp **** 
 529              		.loc 3 41 13 is_stmt 0 view .LVU190
 530 01e8 C0F80862 		str	r6, [r0, #520]
  41:DSP/FX/Reverb/allpass.hpp **** 
 531              		.loc 3 41 2 view .LVU191
 532 01ec AE42     		cmp	r6, r5
 533 01ee 02DB     		blt	.L21
  41:DSP/FX/Reverb/allpass.hpp **** 
ARM GAS  /var/folders/wz/z09yph4n0qj4t7mjxhl6ttn80000gn/T//ccKA8ZwU.s 			page 19


 534              		.loc 3 41 24 is_stmt 1 view .LVU192
  41:DSP/FX/Reverb/allpass.hpp **** 
 535              		.loc 3 41 31 is_stmt 0 view .LVU193
 536 01f0 0026     		movs	r6, #0
 537 01f2 C0F80862 		str	r6, [r0, #520]
 538              	.L21:
 539              		.loc 3 43 2 is_stmt 1 view .LVU194
 540              	.LVL40:
 541              		.loc 3 43 2 is_stmt 0 view .LVU195
 542              	.LBE83:
 543              	.LBE91:
  94:DSP/FX/Reverb/revmodel.cpp **** 		}
 544              		.loc 1 94 4 is_stmt 1 view .LVU196
 545              	.LBB92:
  30:DSP/FX/Reverb/allpass.hpp **** {
 546              		.loc 3 30 14 view .LVU197
 547              	.LBB88:
  32:DSP/FX/Reverb/allpass.hpp **** 	float bufout;
 548              		.loc 3 32 2 view .LVU198
  33:DSP/FX/Reverb/allpass.hpp **** 	
 549              		.loc 3 33 2 view .LVU199
  35:DSP/FX/Reverb/allpass.hpp **** 	undenormalise(bufout);
 550              		.loc 3 35 2 view .LVU200
  35:DSP/FX/Reverb/allpass.hpp **** 	undenormalise(bufout);
 551              		.loc 3 35 18 is_stmt 0 view .LVU201
 552 01f6 D0F84862 		ldr	r6, [r0, #584]
  35:DSP/FX/Reverb/allpass.hpp **** 	undenormalise(bufout);
 553              		.loc 3 35 24 view .LVU202
 554 01fa D0F84072 		ldr	r7, [r0, #576]
  36:DSP/FX/Reverb/allpass.hpp **** 	
 555              		.loc 3 36 2 view .LVU203
 556 01fe DFED6D7A 		vldr.32	s15, .L49
  35:DSP/FX/Reverb/allpass.hpp **** 	undenormalise(bufout);
 557              		.loc 3 35 24 view .LVU204
 558 0202 07EB8607 		add	r7, r7, r6, lsl #2
  39:DSP/FX/Reverb/allpass.hpp **** 
 559              		.loc 3 39 25 view .LVU205
 560 0206 D0ED8F6A 		vldr.32	s13, [r0, #572]
  41:DSP/FX/Reverb/allpass.hpp **** 
 561              		.loc 3 41 5 view .LVU206
 562 020a 0136     		adds	r6, r6, #1
  35:DSP/FX/Reverb/allpass.hpp **** 	undenormalise(bufout);
 563              		.loc 3 35 24 view .LVU207
 564 020c 97ED007A 		vldr.32	s14, [r7]
 565              	.LVL41:
  36:DSP/FX/Reverb/allpass.hpp **** 	
 566              		.loc 3 36 2 is_stmt 1 view .LVU208
 567 0210 17EE105A 		vmov	r5, s14	@ int
 568 0214 15F0FF4F 		tst	r5, #2139095040
 569 0218 07FE877A 		vseleq.f32	s14, s15, s14
 570              	.LVL42:
  38:DSP/FX/Reverb/allpass.hpp **** 	buffer[bufidx] = input + (bufout*feedback);
 571              		.loc 3 38 2 view .LVU209
  39:DSP/FX/Reverb/allpass.hpp **** 
 572              		.loc 3 39 25 is_stmt 0 view .LVU210
 573 021c F0EE457A 		vmov.f32	s15, s10
  38:DSP/FX/Reverb/allpass.hpp **** 	buffer[bufidx] = input + (bufout*feedback);
ARM GAS  /var/folders/wz/z09yph4n0qj4t7mjxhl6ttn80000gn/T//ccKA8ZwU.s 			page 20


 574              		.loc 3 38 9 view .LVU211
 575 0220 37EE455A 		vsub.f32	s10, s14, s10
 576              	.LVL43:
  39:DSP/FX/Reverb/allpass.hpp **** 
 577              		.loc 3 39 2 is_stmt 1 view .LVU212
  39:DSP/FX/Reverb/allpass.hpp **** 
 578              		.loc 3 39 25 is_stmt 0 view .LVU213
 579 0224 E7EE267A 		vfma.f32	s15, s14, s13
 580              	.LVL44:
  39:DSP/FX/Reverb/allpass.hpp **** 
 581              		.loc 3 39 17 view .LVU214
 582 0228 C7ED007A 		vstr.32	s15, [r7]
  41:DSP/FX/Reverb/allpass.hpp **** 
 583              		.loc 3 41 2 is_stmt 1 view .LVU215
 584 022c D0F84452 		ldr	r5, [r0, #580]
  41:DSP/FX/Reverb/allpass.hpp **** 
 585              		.loc 3 41 13 is_stmt 0 view .LVU216
 586 0230 C0F84862 		str	r6, [r0, #584]
  41:DSP/FX/Reverb/allpass.hpp **** 
 587              		.loc 3 41 2 view .LVU217
 588 0234 AE42     		cmp	r6, r5
 589 0236 02DB     		blt	.L23
  41:DSP/FX/Reverb/allpass.hpp **** 
 590              		.loc 3 41 24 is_stmt 1 view .LVU218
  41:DSP/FX/Reverb/allpass.hpp **** 
 591              		.loc 3 41 31 is_stmt 0 view .LVU219
 592 0238 0026     		movs	r6, #0
 593 023a C0F84862 		str	r6, [r0, #584]
 594              	.L23:
 595              		.loc 3 43 2 is_stmt 1 view .LVU220
 596              	.LVL45:
 597              		.loc 3 43 2 is_stmt 0 view .LVU221
 598              	.LBE88:
 599              	.LBE92:
  91:DSP/FX/Reverb/revmodel.cpp **** 		{
 600              		.loc 1 91 3 is_stmt 1 view .LVU222
  91:DSP/FX/Reverb/revmodel.cpp **** 		{
 601              		.loc 1 91 17 view .LVU223
  93:DSP/FX/Reverb/revmodel.cpp **** 			outR = allpassR[j].process(outR);
 602              		.loc 1 93 4 view .LVU224
 603              	.LBB93:
  30:DSP/FX/Reverb/allpass.hpp **** {
 604              		.loc 3 30 14 view .LVU225
 605              	.LBB84:
  32:DSP/FX/Reverb/allpass.hpp **** 	float bufout;
 606              		.loc 3 32 2 view .LVU226
  33:DSP/FX/Reverb/allpass.hpp **** 	
 607              		.loc 3 33 2 view .LVU227
  35:DSP/FX/Reverb/allpass.hpp **** 	undenormalise(bufout);
 608              		.loc 3 35 2 view .LVU228
  35:DSP/FX/Reverb/allpass.hpp **** 	undenormalise(bufout);
 609              		.loc 3 35 18 is_stmt 0 view .LVU229
 610 023e D0F81862 		ldr	r6, [r0, #536]
  35:DSP/FX/Reverb/allpass.hpp **** 	undenormalise(bufout);
 611              		.loc 3 35 24 view .LVU230
 612 0242 D0F81072 		ldr	r7, [r0, #528]
  36:DSP/FX/Reverb/allpass.hpp **** 	
ARM GAS  /var/folders/wz/z09yph4n0qj4t7mjxhl6ttn80000gn/T//ccKA8ZwU.s 			page 21


 613              		.loc 3 36 2 view .LVU231
 614 0246 9FED5B7A 		vldr.32	s14, .L49
  35:DSP/FX/Reverb/allpass.hpp **** 	undenormalise(bufout);
 615              		.loc 3 35 24 view .LVU232
 616 024a 07EB8607 		add	r7, r7, r6, lsl #2
  39:DSP/FX/Reverb/allpass.hpp **** 
 617              		.loc 3 39 25 view .LVU233
 618 024e D0ED836A 		vldr.32	s13, [r0, #524]
  41:DSP/FX/Reverb/allpass.hpp **** 
 619              		.loc 3 41 5 view .LVU234
 620 0252 0136     		adds	r6, r6, #1
  35:DSP/FX/Reverb/allpass.hpp **** 	undenormalise(bufout);
 621              		.loc 3 35 24 view .LVU235
 622 0254 D7ED007A 		vldr.32	s15, [r7]
 623              	.LVL46:
  36:DSP/FX/Reverb/allpass.hpp **** 	
 624              		.loc 3 36 2 is_stmt 1 view .LVU236
 625 0258 17EE905A 		vmov	r5, s15	@ int
 626 025c 15F0FF4F 		tst	r5, #2139095040
 627 0260 47FE277A 		vseleq.f32	s15, s14, s15
 628              	.LVL47:
  38:DSP/FX/Reverb/allpass.hpp **** 	buffer[bufidx] = input + (bufout*feedback);
 629              		.loc 3 38 2 view .LVU237
  39:DSP/FX/Reverb/allpass.hpp **** 
 630              		.loc 3 39 25 is_stmt 0 view .LVU238
 631 0264 B0EE647A 		vmov.f32	s14, s9
  38:DSP/FX/Reverb/allpass.hpp **** 	buffer[bufidx] = input + (bufout*feedback);
 632              		.loc 3 38 9 view .LVU239
 633 0268 77EEE44A 		vsub.f32	s9, s15, s9
 634              	.LVL48:
  39:DSP/FX/Reverb/allpass.hpp **** 
 635              		.loc 3 39 2 is_stmt 1 view .LVU240
  39:DSP/FX/Reverb/allpass.hpp **** 
 636              		.loc 3 39 25 is_stmt 0 view .LVU241
 637 026c A7EEA67A 		vfma.f32	s14, s15, s13
 638              	.LVL49:
  39:DSP/FX/Reverb/allpass.hpp **** 
 639              		.loc 3 39 17 view .LVU242
 640 0270 87ED007A 		vstr.32	s14, [r7]
  41:DSP/FX/Reverb/allpass.hpp **** 
 641              		.loc 3 41 2 is_stmt 1 view .LVU243
 642 0274 D0F81452 		ldr	r5, [r0, #532]
  41:DSP/FX/Reverb/allpass.hpp **** 
 643              		.loc 3 41 13 is_stmt 0 view .LVU244
 644 0278 C0F81862 		str	r6, [r0, #536]
  41:DSP/FX/Reverb/allpass.hpp **** 
 645              		.loc 3 41 2 view .LVU245
 646 027c AE42     		cmp	r6, r5
 647 027e 02DB     		blt	.L25
  41:DSP/FX/Reverb/allpass.hpp **** 
 648              		.loc 3 41 24 is_stmt 1 view .LVU246
  41:DSP/FX/Reverb/allpass.hpp **** 
 649              		.loc 3 41 31 is_stmt 0 view .LVU247
 650 0280 0026     		movs	r6, #0
 651 0282 C0F81862 		str	r6, [r0, #536]
 652              	.L25:
 653              		.loc 3 43 2 is_stmt 1 view .LVU248
ARM GAS  /var/folders/wz/z09yph4n0qj4t7mjxhl6ttn80000gn/T//ccKA8ZwU.s 			page 22


 654              	.LVL50:
 655              		.loc 3 43 2 is_stmt 0 view .LVU249
 656              	.LBE84:
 657              	.LBE93:
  94:DSP/FX/Reverb/revmodel.cpp **** 		}
 658              		.loc 1 94 4 is_stmt 1 view .LVU250
 659              	.LBB94:
  30:DSP/FX/Reverb/allpass.hpp **** {
 660              		.loc 3 30 14 view .LVU251
 661              	.LBB89:
  32:DSP/FX/Reverb/allpass.hpp **** 	float bufout;
 662              		.loc 3 32 2 view .LVU252
  33:DSP/FX/Reverb/allpass.hpp **** 	
 663              		.loc 3 33 2 view .LVU253
  35:DSP/FX/Reverb/allpass.hpp **** 	undenormalise(bufout);
 664              		.loc 3 35 2 view .LVU254
  35:DSP/FX/Reverb/allpass.hpp **** 	undenormalise(bufout);
 665              		.loc 3 35 18 is_stmt 0 view .LVU255
 666 0286 D0F85862 		ldr	r6, [r0, #600]
  35:DSP/FX/Reverb/allpass.hpp **** 	undenormalise(bufout);
 667              		.loc 3 35 24 view .LVU256
 668 028a D0F85072 		ldr	r7, [r0, #592]
  36:DSP/FX/Reverb/allpass.hpp **** 	
 669              		.loc 3 36 2 view .LVU257
 670 028e DFED497A 		vldr.32	s15, .L49
  35:DSP/FX/Reverb/allpass.hpp **** 	undenormalise(bufout);
 671              		.loc 3 35 24 view .LVU258
 672 0292 07EB8607 		add	r7, r7, r6, lsl #2
  39:DSP/FX/Reverb/allpass.hpp **** 
 673              		.loc 3 39 25 view .LVU259
 674 0296 D0ED936A 		vldr.32	s13, [r0, #588]
  41:DSP/FX/Reverb/allpass.hpp **** 
 675              		.loc 3 41 5 view .LVU260
 676 029a 0136     		adds	r6, r6, #1
  35:DSP/FX/Reverb/allpass.hpp **** 	undenormalise(bufout);
 677              		.loc 3 35 24 view .LVU261
 678 029c 97ED007A 		vldr.32	s14, [r7]
 679              	.LVL51:
  36:DSP/FX/Reverb/allpass.hpp **** 	
 680              		.loc 3 36 2 is_stmt 1 view .LVU262
 681 02a0 17EE105A 		vmov	r5, s14	@ int
 682 02a4 15F0FF4F 		tst	r5, #2139095040
 683 02a8 07FE877A 		vseleq.f32	s14, s15, s14
 684              	.LVL52:
  38:DSP/FX/Reverb/allpass.hpp **** 	buffer[bufidx] = input + (bufout*feedback);
 685              		.loc 3 38 2 view .LVU263
  39:DSP/FX/Reverb/allpass.hpp **** 
 686              		.loc 3 39 25 is_stmt 0 view .LVU264
 687 02ac F0EE457A 		vmov.f32	s15, s10
  38:DSP/FX/Reverb/allpass.hpp **** 	buffer[bufidx] = input + (bufout*feedback);
 688              		.loc 3 38 9 view .LVU265
 689 02b0 37EE455A 		vsub.f32	s10, s14, s10
 690              	.LVL53:
  39:DSP/FX/Reverb/allpass.hpp **** 
 691              		.loc 3 39 2 is_stmt 1 view .LVU266
  39:DSP/FX/Reverb/allpass.hpp **** 
 692              		.loc 3 39 25 is_stmt 0 view .LVU267
ARM GAS  /var/folders/wz/z09yph4n0qj4t7mjxhl6ttn80000gn/T//ccKA8ZwU.s 			page 23


 693 02b4 E7EE267A 		vfma.f32	s15, s14, s13
 694              	.LVL54:
  39:DSP/FX/Reverb/allpass.hpp **** 
 695              		.loc 3 39 17 view .LVU268
 696 02b8 C7ED007A 		vstr.32	s15, [r7]
  41:DSP/FX/Reverb/allpass.hpp **** 
 697              		.loc 3 41 2 is_stmt 1 view .LVU269
 698 02bc D0F85452 		ldr	r5, [r0, #596]
  41:DSP/FX/Reverb/allpass.hpp **** 
 699              		.loc 3 41 13 is_stmt 0 view .LVU270
 700 02c0 C0F85862 		str	r6, [r0, #600]
  41:DSP/FX/Reverb/allpass.hpp **** 
 701              		.loc 3 41 2 view .LVU271
 702 02c4 AE42     		cmp	r6, r5
 703 02c6 02DB     		blt	.L27
  41:DSP/FX/Reverb/allpass.hpp **** 
 704              		.loc 3 41 24 is_stmt 1 view .LVU272
  41:DSP/FX/Reverb/allpass.hpp **** 
 705              		.loc 3 41 31 is_stmt 0 view .LVU273
 706 02c8 0026     		movs	r6, #0
 707 02ca C0F85862 		str	r6, [r0, #600]
 708              	.L27:
 709              		.loc 3 43 2 is_stmt 1 view .LVU274
 710              	.LVL55:
 711              		.loc 3 43 2 is_stmt 0 view .LVU275
 712              	.LBE89:
 713              	.LBE94:
  91:DSP/FX/Reverb/revmodel.cpp **** 		{
 714              		.loc 1 91 3 is_stmt 1 view .LVU276
  91:DSP/FX/Reverb/revmodel.cpp **** 		{
 715              		.loc 1 91 17 view .LVU277
  93:DSP/FX/Reverb/revmodel.cpp **** 			outR = allpassR[j].process(outR);
 716              		.loc 1 93 4 view .LVU278
 717              	.LBB95:
  30:DSP/FX/Reverb/allpass.hpp **** {
 718              		.loc 3 30 14 view .LVU279
 719              	.LBB85:
  32:DSP/FX/Reverb/allpass.hpp **** 	float bufout;
 720              		.loc 3 32 2 view .LVU280
  33:DSP/FX/Reverb/allpass.hpp **** 	
 721              		.loc 3 33 2 view .LVU281
  35:DSP/FX/Reverb/allpass.hpp **** 	undenormalise(bufout);
 722              		.loc 3 35 2 view .LVU282
  35:DSP/FX/Reverb/allpass.hpp **** 	undenormalise(bufout);
 723              		.loc 3 35 18 is_stmt 0 view .LVU283
 724 02ce D0F82862 		ldr	r6, [r0, #552]
  35:DSP/FX/Reverb/allpass.hpp **** 	undenormalise(bufout);
 725              		.loc 3 35 24 view .LVU284
 726 02d2 D0F82072 		ldr	r7, [r0, #544]
  36:DSP/FX/Reverb/allpass.hpp **** 	
 727              		.loc 3 36 2 view .LVU285
 728 02d6 9FED377A 		vldr.32	s14, .L49
  35:DSP/FX/Reverb/allpass.hpp **** 	undenormalise(bufout);
 729              		.loc 3 35 24 view .LVU286
 730 02da 07EB8607 		add	r7, r7, r6, lsl #2
  39:DSP/FX/Reverb/allpass.hpp **** 
 731              		.loc 3 39 25 view .LVU287
ARM GAS  /var/folders/wz/z09yph4n0qj4t7mjxhl6ttn80000gn/T//ccKA8ZwU.s 			page 24


 732 02de D0ED876A 		vldr.32	s13, [r0, #540]
  41:DSP/FX/Reverb/allpass.hpp **** 
 733              		.loc 3 41 5 view .LVU288
 734 02e2 0136     		adds	r6, r6, #1
  35:DSP/FX/Reverb/allpass.hpp **** 	undenormalise(bufout);
 735              		.loc 3 35 24 view .LVU289
 736 02e4 D7ED007A 		vldr.32	s15, [r7]
 737              	.LVL56:
  36:DSP/FX/Reverb/allpass.hpp **** 	
 738              		.loc 3 36 2 is_stmt 1 view .LVU290
 739 02e8 17EE905A 		vmov	r5, s15	@ int
 740 02ec 15F0FF4F 		tst	r5, #2139095040
 741 02f0 47FE277A 		vseleq.f32	s15, s14, s15
 742              	.LVL57:
  38:DSP/FX/Reverb/allpass.hpp **** 	buffer[bufidx] = input + (bufout*feedback);
 743              		.loc 3 38 2 view .LVU291
  39:DSP/FX/Reverb/allpass.hpp **** 
 744              		.loc 3 39 25 is_stmt 0 view .LVU292
 745 02f4 B0EE647A 		vmov.f32	s14, s9
 746 02f8 A7EEA67A 		vfma.f32	s14, s15, s13
  38:DSP/FX/Reverb/allpass.hpp **** 	buffer[bufidx] = input + (bufout*feedback);
 747              		.loc 3 38 9 view .LVU293
 748 02fc 77EEE47A 		vsub.f32	s15, s15, s9
 749              	.LVL58:
  39:DSP/FX/Reverb/allpass.hpp **** 
 750              		.loc 3 39 2 is_stmt 1 view .LVU294
  39:DSP/FX/Reverb/allpass.hpp **** 
 751              		.loc 3 39 17 is_stmt 0 view .LVU295
 752 0300 87ED007A 		vstr.32	s14, [r7]
 753              	.LVL59:
  41:DSP/FX/Reverb/allpass.hpp **** 
 754              		.loc 3 41 2 is_stmt 1 view .LVU296
 755 0304 D0F82452 		ldr	r5, [r0, #548]
  41:DSP/FX/Reverb/allpass.hpp **** 
 756              		.loc 3 41 13 is_stmt 0 view .LVU297
 757 0308 C0F82862 		str	r6, [r0, #552]
  41:DSP/FX/Reverb/allpass.hpp **** 
 758              		.loc 3 41 2 view .LVU298
 759 030c AE42     		cmp	r6, r5
  41:DSP/FX/Reverb/allpass.hpp **** 
 760              		.loc 3 41 2 view .LVU299
 761 030e 02DB     		blt	.L29
  41:DSP/FX/Reverb/allpass.hpp **** 
 762              		.loc 3 41 24 is_stmt 1 view .LVU300
  41:DSP/FX/Reverb/allpass.hpp **** 
 763              		.loc 3 41 31 is_stmt 0 view .LVU301
 764 0310 0026     		movs	r6, #0
 765 0312 C0F82862 		str	r6, [r0, #552]
 766              	.L29:
 767              		.loc 3 43 2 is_stmt 1 view .LVU302
 768              	.LVL60:
 769              		.loc 3 43 2 is_stmt 0 view .LVU303
 770              	.LBE85:
 771              	.LBE95:
  94:DSP/FX/Reverb/revmodel.cpp **** 		}
 772              		.loc 1 94 4 is_stmt 1 view .LVU304
 773              	.LBB96:
ARM GAS  /var/folders/wz/z09yph4n0qj4t7mjxhl6ttn80000gn/T//ccKA8ZwU.s 			page 25


  30:DSP/FX/Reverb/allpass.hpp **** {
 774              		.loc 3 30 14 view .LVU305
 775              	.LBB90:
  32:DSP/FX/Reverb/allpass.hpp **** 	float bufout;
 776              		.loc 3 32 2 view .LVU306
  33:DSP/FX/Reverb/allpass.hpp **** 	
 777              		.loc 3 33 2 view .LVU307
  35:DSP/FX/Reverb/allpass.hpp **** 	undenormalise(bufout);
 778              		.loc 3 35 2 view .LVU308
  35:DSP/FX/Reverb/allpass.hpp **** 	undenormalise(bufout);
 779              		.loc 3 35 18 is_stmt 0 view .LVU309
 780 0316 D0F86862 		ldr	r6, [r0, #616]
  35:DSP/FX/Reverb/allpass.hpp **** 	undenormalise(bufout);
 781              		.loc 3 35 24 view .LVU310
 782 031a D0F86072 		ldr	r7, [r0, #608]
  36:DSP/FX/Reverb/allpass.hpp **** 	
 783              		.loc 3 36 2 view .LVU311
 784 031e DFED256A 		vldr.32	s13, .L49
  35:DSP/FX/Reverb/allpass.hpp **** 	undenormalise(bufout);
 785              		.loc 3 35 24 view .LVU312
 786 0322 07EB8607 		add	r7, r7, r6, lsl #2
  39:DSP/FX/Reverb/allpass.hpp **** 
 787              		.loc 3 39 25 view .LVU313
 788 0326 90ED976A 		vldr.32	s12, [r0, #604]
  41:DSP/FX/Reverb/allpass.hpp **** 
 789              		.loc 3 41 5 view .LVU314
 790 032a 0136     		adds	r6, r6, #1
  35:DSP/FX/Reverb/allpass.hpp **** 	undenormalise(bufout);
 791              		.loc 3 35 24 view .LVU315
 792 032c 97ED007A 		vldr.32	s14, [r7]
 793              	.LVL61:
  36:DSP/FX/Reverb/allpass.hpp **** 	
 794              		.loc 3 36 2 is_stmt 1 view .LVU316
 795 0330 17EE105A 		vmov	r5, s14	@ int
 796 0334 15F0FF4F 		tst	r5, #2139095040
 797 0338 06FE877A 		vseleq.f32	s14, s13, s14
 798              	.LVL62:
  38:DSP/FX/Reverb/allpass.hpp **** 	buffer[bufidx] = input + (bufout*feedback);
 799              		.loc 3 38 2 view .LVU317
  39:DSP/FX/Reverb/allpass.hpp **** 
 800              		.loc 3 39 25 is_stmt 0 view .LVU318
 801 033c F0EE456A 		vmov.f32	s13, s10
 802 0340 E7EE066A 		vfma.f32	s13, s14, s12
  38:DSP/FX/Reverb/allpass.hpp **** 	buffer[bufidx] = input + (bufout*feedback);
 803              		.loc 3 38 9 view .LVU319
 804 0344 37EE457A 		vsub.f32	s14, s14, s10
 805              	.LVL63:
  39:DSP/FX/Reverb/allpass.hpp **** 
 806              		.loc 3 39 2 is_stmt 1 view .LVU320
  39:DSP/FX/Reverb/allpass.hpp **** 
 807              		.loc 3 39 17 is_stmt 0 view .LVU321
 808 0348 C7ED006A 		vstr.32	s13, [r7]
 809              	.LVL64:
  41:DSP/FX/Reverb/allpass.hpp **** 
 810              		.loc 3 41 2 is_stmt 1 view .LVU322
 811 034c D0F86452 		ldr	r5, [r0, #612]
  41:DSP/FX/Reverb/allpass.hpp **** 
ARM GAS  /var/folders/wz/z09yph4n0qj4t7mjxhl6ttn80000gn/T//ccKA8ZwU.s 			page 26


 812              		.loc 3 41 13 is_stmt 0 view .LVU323
 813 0350 C0F86862 		str	r6, [r0, #616]
  41:DSP/FX/Reverb/allpass.hpp **** 
 814              		.loc 3 41 2 view .LVU324
 815 0354 AE42     		cmp	r6, r5
  41:DSP/FX/Reverb/allpass.hpp **** 
 816              		.loc 3 41 2 view .LVU325
 817 0356 02DB     		blt	.L31
  41:DSP/FX/Reverb/allpass.hpp **** 
 818              		.loc 3 41 24 is_stmt 1 view .LVU326
  41:DSP/FX/Reverb/allpass.hpp **** 
 819              		.loc 3 41 31 is_stmt 0 view .LVU327
 820 0358 0026     		movs	r6, #0
 821 035a C0F86862 		str	r6, [r0, #616]
 822              	.L31:
 823              		.loc 3 43 2 is_stmt 1 view .LVU328
 824              	.LVL65:
 825              		.loc 3 43 2 is_stmt 0 view .LVU329
 826              	.LBE90:
 827              	.LBE96:
  91:DSP/FX/Reverb/revmodel.cpp **** 		{
 828              		.loc 1 91 3 is_stmt 1 view .LVU330
  91:DSP/FX/Reverb/revmodel.cpp **** 		{
 829              		.loc 1 91 17 view .LVU331
 830              	.LBE80:
  98:DSP/FX/Reverb/revmodel.cpp **** 		*outputR = outR*wet1 + outL*wet2 + *inputR*dry;
 831              		.loc 1 98 3 view .LVU332
  98:DSP/FX/Reverb/revmodel.cpp **** 		*outputR = outR*wet1 + outL*wet2 + *inputR*dry;
 832              		.loc 1 98 30 is_stmt 0 view .LVU333
 833 035e D0ED076A 		vldr.32	s13, [r0, #28]
 834              	.LBE68:
  78:DSP/FX/Reverb/revmodel.cpp **** 	{
 835              		.loc 1 78 18 view .LVU334
 836 0362 013C     		subs	r4, r4, #1
 837              	.LVL66:
 838              	.LBB97:
  98:DSP/FX/Reverb/revmodel.cpp **** 		*outputR = outR*wet1 + outL*wet2 + *inputR*dry;
 839              		.loc 1 98 24 view .LVU335
 840 0364 90ED065A 		vldr.32	s10, [r0, #24]
  98:DSP/FX/Reverb/revmodel.cpp **** 		*outputR = outR*wet1 + outL*wet2 + *inputR*dry;
 841              		.loc 1 98 30 view .LVU336
 842 0368 67EE266A 		vmul.f32	s13, s14, s13
  98:DSP/FX/Reverb/revmodel.cpp **** 		*outputR = outR*wet1 + outL*wet2 + *inputR*dry;
 843              		.loc 1 98 36 view .LVU337
 844 036c D1ED005A 		vldr.32	s11, [r1]
 845              	.LVL67:
  98:DSP/FX/Reverb/revmodel.cpp **** 		*outputR = outR*wet1 + outL*wet2 + *inputR*dry;
 846              		.loc 1 98 36 view .LVU338
 847 0370 90ED086A 		vldr.32	s12, [r0, #32]
 848              	.LBE97:
  78:DSP/FX/Reverb/revmodel.cpp **** 	{
 849              		.loc 1 78 21 view .LVU339
 850 0374 651C     		adds	r5, r4, #1
 851              	.LBB98:
 102:DSP/FX/Reverb/revmodel.cpp **** 		inputR += skip;
 852              		.loc 1 102 10 view .LVU340
 853 0376 7144     		add	r1, r1, lr
ARM GAS  /var/folders/wz/z09yph4n0qj4t7mjxhl6ttn80000gn/T//ccKA8ZwU.s 			page 27


 854              	.LVL68:
  98:DSP/FX/Reverb/revmodel.cpp **** 		*outputR = outR*wet1 + outL*wet2 + *inputR*dry;
 855              		.loc 1 98 24 view .LVU341
 856 0378 E5EE276A 		vfma.f32	s13, s10, s15
  98:DSP/FX/Reverb/revmodel.cpp **** 		*outputR = outR*wet1 + outL*wet2 + *inputR*dry;
 857              		.loc 1 98 36 view .LVU342
 858 037c E5EE866A 		vfma.f32	s13, s11, s12
  98:DSP/FX/Reverb/revmodel.cpp **** 		*outputR = outR*wet1 + outL*wet2 + *inputR*dry;
 859              		.loc 1 98 12 view .LVU343
 860 0380 C3ED006A 		vstr.32	s13, [r3]
  99:DSP/FX/Reverb/revmodel.cpp **** 
 861              		.loc 1 99 3 is_stmt 1 view .LVU344
 104:DSP/FX/Reverb/revmodel.cpp **** 		outputR += skip;
 862              		.loc 1 104 11 is_stmt 0 view .LVU345
 863 0384 7344     		add	r3, r3, lr
 864              	.LVL69:
  99:DSP/FX/Reverb/revmodel.cpp **** 
 865              		.loc 1 99 30 view .LVU346
 866 0386 D0ED076A 		vldr.32	s13, [r0, #28]
  99:DSP/FX/Reverb/revmodel.cpp **** 
 867              		.loc 1 99 24 view .LVU347
 868 038a D0ED065A 		vldr.32	s11, [r0, #24]
  99:DSP/FX/Reverb/revmodel.cpp **** 
 869              		.loc 1 99 30 view .LVU348
 870 038e 67EEA67A 		vmul.f32	s15, s15, s13
 871              	.LVL70:
  99:DSP/FX/Reverb/revmodel.cpp **** 
 872              		.loc 1 99 36 view .LVU349
 873 0392 92ED006A 		vldr.32	s12, [r2]
 874 0396 D0ED086A 		vldr.32	s13, [r0, #32]
 103:DSP/FX/Reverb/revmodel.cpp **** 		outputL += skip;
 875              		.loc 1 103 10 view .LVU350
 876 039a 7244     		add	r2, r2, lr
 877              	.LVL71:
  99:DSP/FX/Reverb/revmodel.cpp **** 
 878              		.loc 1 99 24 view .LVU351
 879 039c E5EE877A 		vfma.f32	s15, s11, s14
  99:DSP/FX/Reverb/revmodel.cpp **** 
 880              		.loc 1 99 36 view .LVU352
 881 03a0 E6EE267A 		vfma.f32	s15, s12, s13
  99:DSP/FX/Reverb/revmodel.cpp **** 
 882              		.loc 1 99 12 view .LVU353
 883 03a4 C9ED007A 		vstr.32	s15, [r9]
 102:DSP/FX/Reverb/revmodel.cpp **** 		inputR += skip;
 884              		.loc 1 102 3 is_stmt 1 view .LVU354
 885              	.LVL72:
 103:DSP/FX/Reverb/revmodel.cpp **** 		outputL += skip;
 886              		.loc 1 103 3 view .LVU355
 104:DSP/FX/Reverb/revmodel.cpp **** 		outputR += skip;
 887              		.loc 1 104 3 view .LVU356
 105:DSP/FX/Reverb/revmodel.cpp **** 	}
 888              		.loc 1 105 3 view .LVU357
 105:DSP/FX/Reverb/revmodel.cpp **** 	}
 889              		.loc 1 105 11 is_stmt 0 view .LVU358
 890 03a8 F144     		add	r9, r9, lr
 891              	.LVL73:
 105:DSP/FX/Reverb/revmodel.cpp **** 	}
ARM GAS  /var/folders/wz/z09yph4n0qj4t7mjxhl6ttn80000gn/T//ccKA8ZwU.s 			page 28


 892              		.loc 1 105 11 view .LVU359
 893              	.LBE98:
  76:DSP/FX/Reverb/revmodel.cpp **** 
 894              		.loc 1 76 2 is_stmt 1 view .LVU360
  78:DSP/FX/Reverb/revmodel.cpp **** 	{
 895              		.loc 1 78 2 view .LVU361
  78:DSP/FX/Reverb/revmodel.cpp **** 	{
 896              		.loc 1 78 21 view .LVU362
  78:DSP/FX/Reverb/revmodel.cpp **** 	{
 897              		.loc 1 78 21 is_stmt 0 view .LVU363
 898 03aa 7FF436AE 		bne	.L32
 899              	.LVL74:
 900              	.L13:
 107:DSP/FX/Reverb/revmodel.cpp **** 
 901              		.loc 1 107 1 view .LVU364
 902 03ae BDE8F083 		pop	{r4, r5, r6, r7, r8, r9, pc}
 903              	.LVL75:
 904              	.L50:
 107:DSP/FX/Reverb/revmodel.cpp **** 
 905              		.loc 1 107 1 view .LVU365
 906 03b2 00BF     		.align	2
 907              	.L49:
 908 03b4 00000000 		.word	0
 909              		.cfi_endproc
 910              	.LFE550:
 912              		.section	.text._ZN8revmodel10processmixEPfS0_S0_S0_li,"ax",%progbits
 913              		.align	1
 914              		.p2align 2,,3
 915              		.global	_ZN8revmodel10processmixEPfS0_S0_S0_li
 916              		.syntax unified
 917              		.thumb
 918              		.thumb_func
 920              	_ZN8revmodel10processmixEPfS0_S0_S0_li:
 921              	.LVL76:
 922              	.LFB551:
 110:DSP/FX/Reverb/revmodel.cpp **** 	float outL,outR,input;
 923              		.loc 1 110 1 is_stmt 1 view -0
 924              		.cfi_startproc
 925              		@ args = 12, pretend = 0, frame = 0
 926              		@ frame_needed = 0, uses_anonymous_args = 0
 110:DSP/FX/Reverb/revmodel.cpp **** 	float outL,outR,input;
 927              		.loc 1 110 1 is_stmt 0 view .LVU367
 928 0000 2DE9F043 		push	{r4, r5, r6, r7, r8, r9, lr}
 929              		.cfi_def_cfa_offset 28
 930              		.cfi_offset 4, -28
 931              		.cfi_offset 5, -24
 932              		.cfi_offset 6, -20
 933              		.cfi_offset 7, -16
 934              		.cfi_offset 8, -12
 935              		.cfi_offset 9, -8
 936              		.cfi_offset 14, -4
 110:DSP/FX/Reverb/revmodel.cpp **** 	float outL,outR,input;
 937              		.loc 1 110 1 view .LVU368
 938 0004 DDE90746 		ldrd	r4, r6, [sp, #28]
 939              	.LVL77:
 111:DSP/FX/Reverb/revmodel.cpp **** 
 940              		.loc 1 111 2 is_stmt 1 view .LVU369
ARM GAS  /var/folders/wz/z09yph4n0qj4t7mjxhl6ttn80000gn/T//ccKA8ZwU.s 			page 29


 113:DSP/FX/Reverb/revmodel.cpp **** 	{
 941              		.loc 1 113 2 view .LVU370
 113:DSP/FX/Reverb/revmodel.cpp **** 	{
 942              		.loc 1 113 21 view .LVU371
 113:DSP/FX/Reverb/revmodel.cpp **** 	{
 943              		.loc 1 113 21 is_stmt 0 view .LVU372
 944 0008 002E     		cmp	r6, #0
 945 000a 40F3DB81 		ble	.L51
 946              	.LBB110:
 137:DSP/FX/Reverb/revmodel.cpp **** 		inputR += skip;
 947              		.loc 1 137 10 view .LVU373
 948 000e 099D     		ldr	r5, [sp, #36]
 949 0010 06F1FF39 		add	r9, r6, #-1
 950              	.LVL78:
 137:DSP/FX/Reverb/revmodel.cpp **** 		inputR += skip;
 951              		.loc 1 137 10 view .LVU374
 952 0014 00F1E00C 		add	ip, r0, #224
 953 0018 4FEA850E 		lsl	lr, r5, #2
 954              	.LVL79:
 955              	.L70:
 115:DSP/FX/Reverb/revmodel.cpp **** 		input = (*inputL + *inputR) * gain;
 956              		.loc 1 115 3 is_stmt 1 view .LVU375
 116:DSP/FX/Reverb/revmodel.cpp **** 
 957              		.loc 1 116 3 view .LVU376
 116:DSP/FX/Reverb/revmodel.cpp **** 
 958              		.loc 1 116 20 is_stmt 0 view .LVU377
 959 001c D1ED005A 		vldr.32	s11, [r1]
 960 0020 0646     		mov	r6, r0
 961 0022 92ED007A 		vldr.32	s14, [r2]
 116:DSP/FX/Reverb/revmodel.cpp **** 
 962              		.loc 1 116 9 view .LVU378
 963 0026 D0ED007A 		vldr.32	s15, [r0]
 116:DSP/FX/Reverb/revmodel.cpp **** 
 964              		.loc 1 116 20 view .LVU379
 965 002a 75EE875A 		vadd.f32	s11, s11, s14
 115:DSP/FX/Reverb/revmodel.cpp **** 		input = (*inputL + *inputR) * gain;
 966              		.loc 1 115 15 view .LVU380
 967 002e 9FEDE65A 		vldr.32	s10, .L87
 115:DSP/FX/Reverb/revmodel.cpp **** 		input = (*inputL + *inputR) * gain;
 968              		.loc 1 115 8 view .LVU381
 969 0032 F0EE454A 		vmov.f32	s9, s10
 116:DSP/FX/Reverb/revmodel.cpp **** 
 970              		.loc 1 116 9 view .LVU382
 971 0036 65EEA75A 		vmul.f32	s11, s11, s15
 972              	.LVL80:
 119:DSP/FX/Reverb/revmodel.cpp **** 		{
 973              		.loc 1 119 3 is_stmt 1 view .LVU383
 974              	.LBB111:
 119:DSP/FX/Reverb/revmodel.cpp **** 		{
 975              		.loc 1 119 17 view .LVU384
 976 003a 4EE0     		b	.L53
 977              	.LVL81:
 978              	.L86:
 979              	.LBB112:
 980              	.LBB113:
  44:DSP/FX/Reverb/comb.hpp **** 
 981              		.loc 2 44 2 view .LVU385
ARM GAS  /var/folders/wz/z09yph4n0qj4t7mjxhl6ttn80000gn/T//ccKA8ZwU.s 			page 30


 982 003c F0EE477A 		vmov.f32	s15, s14
 983 0040 86ED0C7A 		vstr.32	s14, [r6, #48]
 984              	.L73:
  46:DSP/FX/Reverb/comb.hpp **** 
 985              		.loc 2 46 2 view .LVU386
  46:DSP/FX/Reverb/comb.hpp **** 
 986              		.loc 2 46 25 is_stmt 0 view .LVU387
 987 0044 B0EE657A 		vmov.f32	s14, s11
 988 0048 96ED0B6A 		vldr.32	s12, [r6, #44]
  48:DSP/FX/Reverb/comb.hpp **** 
 989              		.loc 2 48 5 view .LVU388
 990 004c 0137     		adds	r7, r7, #1
  46:DSP/FX/Reverb/comb.hpp **** 
 991              		.loc 2 46 25 view .LVU389
 992 004e A6EE277A 		vfma.f32	s14, s12, s15
  46:DSP/FX/Reverb/comb.hpp **** 
 993              		.loc 2 46 17 view .LVU390
 994 0052 88ED007A 		vstr.32	s14, [r8]
  48:DSP/FX/Reverb/comb.hpp **** 
 995              		.loc 2 48 2 is_stmt 1 view .LVU391
 996 0056 356C     		ldr	r5, [r6, #64]
  48:DSP/FX/Reverb/comb.hpp **** 
 997              		.loc 2 48 13 is_stmt 0 view .LVU392
 998 0058 7764     		str	r7, [r6, #68]
  48:DSP/FX/Reverb/comb.hpp **** 
 999              		.loc 2 48 2 view .LVU393
 1000 005a BD42     		cmp	r5, r7
 1001 005c 01DC     		bgt	.L74
  48:DSP/FX/Reverb/comb.hpp **** 
 1002              		.loc 2 48 24 is_stmt 1 view .LVU394
  48:DSP/FX/Reverb/comb.hpp **** 
 1003              		.loc 2 48 31 is_stmt 0 view .LVU395
 1004 005e 0027     		movs	r7, #0
 1005 0060 7764     		str	r7, [r6, #68]
 1006              	.L74:
 1007              		.loc 2 50 2 is_stmt 1 view .LVU396
 1008              	.LVL82:
 1009              		.loc 2 50 2 is_stmt 0 view .LVU397
 1010              	.LBE113:
 1011              	.LBE112:
 1012              	.LBB115:
 1013              	.LBB116:
  40:DSP/FX/Reverb/comb.hpp **** 	undenormalise(output);
 1014              		.loc 2 40 24 view .LVU398
 1015 0062 D6F81C51 		ldr	r5, [r6, #284]
 1016              	.LBE116:
 1017              	.LBE115:
 121:DSP/FX/Reverb/revmodel.cpp **** 			outR += combR[i].process(input);
 1018              		.loc 1 121 9 view .LVU399
 1019 0066 74EEA64A 		vadd.f32	s9, s9, s13
 1020              	.LVL83:
 122:DSP/FX/Reverb/revmodel.cpp **** 		}
 1021              		.loc 1 122 4 is_stmt 1 view .LVU400
 1022              	.LBB119:
 1023              	.LBI115:
  36:DSP/FX/Reverb/comb.hpp **** {
 1024              		.loc 2 36 14 view .LVU401
ARM GAS  /var/folders/wz/z09yph4n0qj4t7mjxhl6ttn80000gn/T//ccKA8ZwU.s 			page 31


 1025              	.LBB117:
  38:DSP/FX/Reverb/comb.hpp **** 
 1026              		.loc 2 38 2 view .LVU402
  40:DSP/FX/Reverb/comb.hpp **** 	undenormalise(output);
 1027              		.loc 2 40 2 view .LVU403
  40:DSP/FX/Reverb/comb.hpp **** 	undenormalise(output);
 1028              		.loc 2 40 18 is_stmt 0 view .LVU404
 1029 006a D6F82471 		ldr	r7, [r6, #292]
  43:DSP/FX/Reverb/comb.hpp **** 	undenormalise(filterstore);
 1030              		.loc 2 43 45 view .LVU405
 1031 006e 96ED447A 		vldr.32	s14, [r6, #272]
  40:DSP/FX/Reverb/comb.hpp **** 	undenormalise(output);
 1032              		.loc 2 40 24 view .LVU406
 1033 0072 05EB8708 		add	r8, r5, r7, lsl #2
  43:DSP/FX/Reverb/comb.hpp **** 	undenormalise(filterstore);
 1034              		.loc 2 43 45 view .LVU407
 1035 0076 D6ED457A 		vldr.32	s15, [r6, #276]
  41:DSP/FX/Reverb/comb.hpp **** 
 1036              		.loc 2 41 2 view .LVU408
 1037 007a 9FEDD36A 		vldr.32	s12, .L87
  43:DSP/FX/Reverb/comb.hpp **** 	undenormalise(filterstore);
 1038              		.loc 2 43 45 view .LVU409
 1039 007e 67EE877A 		vmul.f32	s15, s15, s14
  40:DSP/FX/Reverb/comb.hpp **** 	undenormalise(output);
 1040              		.loc 2 40 24 view .LVU410
 1041 0082 98ED007A 		vldr.32	s14, [r8]
 1042              	.LVL84:
  41:DSP/FX/Reverb/comb.hpp **** 
 1043              		.loc 2 41 2 is_stmt 1 view .LVU411
  43:DSP/FX/Reverb/comb.hpp **** 	undenormalise(filterstore);
 1044              		.loc 2 43 31 is_stmt 0 view .LVU412
 1045 0086 96ED464A 		vldr.32	s8, [r6, #280]
  41:DSP/FX/Reverb/comb.hpp **** 
 1046              		.loc 2 41 2 view .LVU413
 1047 008a 17EE105A 		vmov	r5, s14	@ int
 1048 008e 15F0FF4F 		tst	r5, #2139095040
 1049 0092 06FE077A 		vseleq.f32	s14, s12, s14
 1050              	.LVL85:
  43:DSP/FX/Reverb/comb.hpp **** 	undenormalise(filterstore);
 1051              		.loc 2 43 2 is_stmt 1 view .LVU414
  43:DSP/FX/Reverb/comb.hpp **** 	undenormalise(filterstore);
 1052              		.loc 2 43 31 is_stmt 0 view .LVU415
 1053 0096 E4EE077A 		vfma.f32	s15, s8, s14
  44:DSP/FX/Reverb/comb.hpp **** 
 1054              		.loc 2 44 2 is_stmt 1 view .LVU416
 1055 009a 17EE905A 		vmov	r5, s15	@ int
 1056 009e 15F0FF4F 		tst	r5, #2139095040
 1057 00a2 3AD1     		bne	.L76
  44:DSP/FX/Reverb/comb.hpp **** 
 1058              		.loc 2 44 2 view .LVU417
 1059 00a4 F0EE467A 		vmov.f32	s15, s12
 1060 00a8 86ED446A 		vstr.32	s12, [r6, #272]
 1061              	.L77:
  46:DSP/FX/Reverb/comb.hpp **** 
 1062              		.loc 2 46 2 view .LVU418
  46:DSP/FX/Reverb/comb.hpp **** 
 1063              		.loc 2 46 25 is_stmt 0 view .LVU419
ARM GAS  /var/folders/wz/z09yph4n0qj4t7mjxhl6ttn80000gn/T//ccKA8ZwU.s 			page 32


 1064 00ac F0EE656A 		vmov.f32	s13, s11
 1065 00b0 96ED436A 		vldr.32	s12, [r6, #268]
  48:DSP/FX/Reverb/comb.hpp **** 
 1066              		.loc 2 48 5 view .LVU420
 1067 00b4 0137     		adds	r7, r7, #1
  46:DSP/FX/Reverb/comb.hpp **** 
 1068              		.loc 2 46 25 view .LVU421
 1069 00b6 E6EE276A 		vfma.f32	s13, s12, s15
  46:DSP/FX/Reverb/comb.hpp **** 
 1070              		.loc 2 46 17 view .LVU422
 1071 00ba C8ED006A 		vstr.32	s13, [r8]
  48:DSP/FX/Reverb/comb.hpp **** 
 1072              		.loc 2 48 2 is_stmt 1 view .LVU423
 1073 00be D6F82051 		ldr	r5, [r6, #288]
  48:DSP/FX/Reverb/comb.hpp **** 
 1074              		.loc 2 48 13 is_stmt 0 view .LVU424
 1075 00c2 C6F82471 		str	r7, [r6, #292]
  48:DSP/FX/Reverb/comb.hpp **** 
 1076              		.loc 2 48 2 view .LVU425
 1077 00c6 BD42     		cmp	r5, r7
 1078 00c8 02DC     		bgt	.L78
  48:DSP/FX/Reverb/comb.hpp **** 
 1079              		.loc 2 48 24 is_stmt 1 view .LVU426
  48:DSP/FX/Reverb/comb.hpp **** 
 1080              		.loc 2 48 31 is_stmt 0 view .LVU427
 1081 00ca 0027     		movs	r7, #0
 1082 00cc C6F82471 		str	r7, [r6, #292]
 1083              	.L78:
 1084              		.loc 2 50 2 is_stmt 1 view .LVU428
 1085              	.LVL86:
 1086              		.loc 2 50 2 is_stmt 0 view .LVU429
 1087              	.LBE117:
 1088              	.LBE119:
 119:DSP/FX/Reverb/revmodel.cpp **** 		{
 1089              		.loc 1 119 17 view .LVU430
 1090 00d0 1C36     		adds	r6, r6, #28
 122:DSP/FX/Reverb/revmodel.cpp **** 		}
 1091              		.loc 1 122 9 view .LVU431
 1092 00d2 35EE075A 		vadd.f32	s10, s10, s14
 1093              	.LVL87:
 119:DSP/FX/Reverb/revmodel.cpp **** 		{
 1094              		.loc 1 119 3 is_stmt 1 view .LVU432
 119:DSP/FX/Reverb/revmodel.cpp **** 		{
 1095              		.loc 1 119 17 view .LVU433
 1096 00d6 B445     		cmp	ip, r6
 1097 00d8 22D0     		beq	.L85
 1098              	.LVL88:
 1099              	.L53:
 121:DSP/FX/Reverb/revmodel.cpp **** 			outR += combR[i].process(input);
 1100              		.loc 1 121 4 view .LVU434
 1101              	.LBB120:
 1102              	.LBI112:
  36:DSP/FX/Reverb/comb.hpp **** {
 1103              		.loc 2 36 14 view .LVU435
 1104              	.LBB114:
  38:DSP/FX/Reverb/comb.hpp **** 
 1105              		.loc 2 38 2 view .LVU436
ARM GAS  /var/folders/wz/z09yph4n0qj4t7mjxhl6ttn80000gn/T//ccKA8ZwU.s 			page 33


  40:DSP/FX/Reverb/comb.hpp **** 	undenormalise(output);
 1106              		.loc 2 40 2 view .LVU437
  40:DSP/FX/Reverb/comb.hpp **** 	undenormalise(output);
 1107              		.loc 2 40 24 is_stmt 0 view .LVU438
 1108 00da F56B     		ldr	r5, [r6, #60]
  40:DSP/FX/Reverb/comb.hpp **** 	undenormalise(output);
 1109              		.loc 2 40 18 view .LVU439
 1110 00dc 776C     		ldr	r7, [r6, #68]
  43:DSP/FX/Reverb/comb.hpp **** 	undenormalise(filterstore);
 1111              		.loc 2 43 45 view .LVU440
 1112 00de D6ED0C6A 		vldr.32	s13, [r6, #48]
  40:DSP/FX/Reverb/comb.hpp **** 	undenormalise(output);
 1113              		.loc 2 40 24 view .LVU441
 1114 00e2 05EB8708 		add	r8, r5, r7, lsl #2
  43:DSP/FX/Reverb/comb.hpp **** 	undenormalise(filterstore);
 1115              		.loc 2 43 45 view .LVU442
 1116 00e6 D6ED0D7A 		vldr.32	s15, [r6, #52]
  41:DSP/FX/Reverb/comb.hpp **** 
 1117              		.loc 2 41 2 view .LVU443
 1118 00ea 9FEDB77A 		vldr.32	s14, .L87
  43:DSP/FX/Reverb/comb.hpp **** 	undenormalise(filterstore);
 1119              		.loc 2 43 45 view .LVU444
 1120 00ee 67EEA67A 		vmul.f32	s15, s15, s13
  40:DSP/FX/Reverb/comb.hpp **** 	undenormalise(output);
 1121              		.loc 2 40 24 view .LVU445
 1122 00f2 D8ED006A 		vldr.32	s13, [r8]
 1123              	.LVL89:
  41:DSP/FX/Reverb/comb.hpp **** 
 1124              		.loc 2 41 2 is_stmt 1 view .LVU446
  43:DSP/FX/Reverb/comb.hpp **** 	undenormalise(filterstore);
 1125              		.loc 2 43 31 is_stmt 0 view .LVU447
 1126 00f6 96ED0E6A 		vldr.32	s12, [r6, #56]
  41:DSP/FX/Reverb/comb.hpp **** 
 1127              		.loc 2 41 2 view .LVU448
 1128 00fa 16EE905A 		vmov	r5, s13	@ int
 1129 00fe 15F0FF4F 		tst	r5, #2139095040
 1130 0102 47FE266A 		vseleq.f32	s13, s14, s13
 1131              	.LVL90:
  43:DSP/FX/Reverb/comb.hpp **** 	undenormalise(filterstore);
 1132              		.loc 2 43 2 is_stmt 1 view .LVU449
  43:DSP/FX/Reverb/comb.hpp **** 	undenormalise(filterstore);
 1133              		.loc 2 43 31 is_stmt 0 view .LVU450
 1134 0106 E6EE267A 		vfma.f32	s15, s12, s13
  44:DSP/FX/Reverb/comb.hpp **** 
 1135              		.loc 2 44 2 is_stmt 1 view .LVU451
 1136 010a 17EE905A 		vmov	r5, s15	@ int
 1137 010e 15F0FF4F 		tst	r5, #2139095040
 1138 0112 93D0     		beq	.L86
  43:DSP/FX/Reverb/comb.hpp **** 	undenormalise(filterstore);
 1139              		.loc 2 43 14 is_stmt 0 view .LVU452
 1140 0114 C6ED0C7A 		vstr.32	s15, [r6, #48]
 1141 0118 94E7     		b	.L73
 1142              	.LVL91:
 1143              	.L76:
  43:DSP/FX/Reverb/comb.hpp **** 	undenormalise(filterstore);
 1144              		.loc 2 43 14 view .LVU453
 1145              	.LBE114:
ARM GAS  /var/folders/wz/z09yph4n0qj4t7mjxhl6ttn80000gn/T//ccKA8ZwU.s 			page 34


 1146              	.LBE120:
 1147              	.LBB121:
 1148              	.LBB118:
 1149 011a C6ED447A 		vstr.32	s15, [r6, #272]
 1150 011e C5E7     		b	.L77
 1151              	.LVL92:
 1152              	.L85:
  43:DSP/FX/Reverb/comb.hpp **** 	undenormalise(filterstore);
 1153              		.loc 2 43 14 view .LVU454
 1154              	.LBE118:
 1155              	.LBE121:
 1156              	.LBE111:
 1157              	.LBB122:
 126:DSP/FX/Reverb/revmodel.cpp **** 		{
 1158              		.loc 1 126 17 is_stmt 1 view .LVU455
 128:DSP/FX/Reverb/revmodel.cpp **** 			outR = allpassR[j].process(outR);
 1159              		.loc 1 128 4 view .LVU456
 1160              	.LBB123:
 1161              	.LBI123:
  30:DSP/FX/Reverb/allpass.hpp **** {
 1162              		.loc 3 30 14 view .LVU457
 1163              	.LBB124:
  32:DSP/FX/Reverb/allpass.hpp **** 	float bufout;
 1164              		.loc 3 32 2 view .LVU458
  33:DSP/FX/Reverb/allpass.hpp **** 	
 1165              		.loc 3 33 2 view .LVU459
  35:DSP/FX/Reverb/allpass.hpp **** 	undenormalise(bufout);
 1166              		.loc 3 35 2 view .LVU460
  35:DSP/FX/Reverb/allpass.hpp **** 	undenormalise(bufout);
 1167              		.loc 3 35 18 is_stmt 0 view .LVU461
 1168 0120 D0F8F861 		ldr	r6, [r0, #504]
  35:DSP/FX/Reverb/allpass.hpp **** 	undenormalise(bufout);
 1169              		.loc 3 35 24 view .LVU462
 1170 0124 D0F8F071 		ldr	r7, [r0, #496]
  36:DSP/FX/Reverb/allpass.hpp **** 	
 1171              		.loc 3 36 2 view .LVU463
 1172 0128 9FEDA77A 		vldr.32	s14, .L87
  35:DSP/FX/Reverb/allpass.hpp **** 	undenormalise(bufout);
 1173              		.loc 3 35 24 view .LVU464
 1174 012c 07EB8607 		add	r7, r7, r6, lsl #2
  39:DSP/FX/Reverb/allpass.hpp **** 
 1175              		.loc 3 39 25 view .LVU465
 1176 0130 D0ED7B6A 		vldr.32	s13, [r0, #492]
  41:DSP/FX/Reverb/allpass.hpp **** 
 1177              		.loc 3 41 5 view .LVU466
 1178 0134 0136     		adds	r6, r6, #1
  35:DSP/FX/Reverb/allpass.hpp **** 	undenormalise(bufout);
 1179              		.loc 3 35 24 view .LVU467
 1180 0136 D7ED007A 		vldr.32	s15, [r7]
 1181              	.LVL93:
  36:DSP/FX/Reverb/allpass.hpp **** 	
 1182              		.loc 3 36 2 is_stmt 1 view .LVU468
 1183 013a 17EE905A 		vmov	r5, s15	@ int
 1184 013e 15F0FF4F 		tst	r5, #2139095040
 1185 0142 47FE277A 		vseleq.f32	s15, s14, s15
 1186              	.LVL94:
  38:DSP/FX/Reverb/allpass.hpp **** 	buffer[bufidx] = input + (bufout*feedback);
ARM GAS  /var/folders/wz/z09yph4n0qj4t7mjxhl6ttn80000gn/T//ccKA8ZwU.s 			page 35


 1187              		.loc 3 38 2 view .LVU469
  39:DSP/FX/Reverb/allpass.hpp **** 
 1188              		.loc 3 39 25 is_stmt 0 view .LVU470
 1189 0146 B0EE647A 		vmov.f32	s14, s9
  38:DSP/FX/Reverb/allpass.hpp **** 	buffer[bufidx] = input + (bufout*feedback);
 1190              		.loc 3 38 9 view .LVU471
 1191 014a 77EEE44A 		vsub.f32	s9, s15, s9
 1192              	.LVL95:
  39:DSP/FX/Reverb/allpass.hpp **** 
 1193              		.loc 3 39 2 is_stmt 1 view .LVU472
  39:DSP/FX/Reverb/allpass.hpp **** 
 1194              		.loc 3 39 25 is_stmt 0 view .LVU473
 1195 014e A7EEA67A 		vfma.f32	s14, s15, s13
 1196              	.LVL96:
  39:DSP/FX/Reverb/allpass.hpp **** 
 1197              		.loc 3 39 17 view .LVU474
 1198 0152 87ED007A 		vstr.32	s14, [r7]
  41:DSP/FX/Reverb/allpass.hpp **** 
 1199              		.loc 3 41 2 is_stmt 1 view .LVU475
 1200 0156 D0F8F451 		ldr	r5, [r0, #500]
  41:DSP/FX/Reverb/allpass.hpp **** 
 1201              		.loc 3 41 13 is_stmt 0 view .LVU476
 1202 015a C0F8F861 		str	r6, [r0, #504]
  41:DSP/FX/Reverb/allpass.hpp **** 
 1203              		.loc 3 41 2 view .LVU477
 1204 015e AE42     		cmp	r6, r5
 1205 0160 02DB     		blt	.L55
  41:DSP/FX/Reverb/allpass.hpp **** 
 1206              		.loc 3 41 24 is_stmt 1 view .LVU478
  41:DSP/FX/Reverb/allpass.hpp **** 
 1207              		.loc 3 41 31 is_stmt 0 view .LVU479
 1208 0162 0026     		movs	r6, #0
 1209 0164 C0F8F861 		str	r6, [r0, #504]
 1210              	.L55:
 1211              		.loc 3 43 2 is_stmt 1 view .LVU480
 1212              	.LVL97:
 1213              		.loc 3 43 2 is_stmt 0 view .LVU481
 1214              	.LBE124:
 1215              	.LBE123:
 129:DSP/FX/Reverb/revmodel.cpp **** 		}
 1216              		.loc 1 129 4 is_stmt 1 view .LVU482
 1217              	.LBB128:
 1218              	.LBI128:
  30:DSP/FX/Reverb/allpass.hpp **** {
 1219              		.loc 3 30 14 view .LVU483
 1220              	.LBB129:
  32:DSP/FX/Reverb/allpass.hpp **** 	float bufout;
 1221              		.loc 3 32 2 view .LVU484
  33:DSP/FX/Reverb/allpass.hpp **** 	
 1222              		.loc 3 33 2 view .LVU485
  35:DSP/FX/Reverb/allpass.hpp **** 	undenormalise(bufout);
 1223              		.loc 3 35 2 view .LVU486
  35:DSP/FX/Reverb/allpass.hpp **** 	undenormalise(bufout);
 1224              		.loc 3 35 18 is_stmt 0 view .LVU487
 1225 0168 D0F83862 		ldr	r6, [r0, #568]
  35:DSP/FX/Reverb/allpass.hpp **** 	undenormalise(bufout);
 1226              		.loc 3 35 24 view .LVU488
ARM GAS  /var/folders/wz/z09yph4n0qj4t7mjxhl6ttn80000gn/T//ccKA8ZwU.s 			page 36


 1227 016c D0F83072 		ldr	r7, [r0, #560]
  36:DSP/FX/Reverb/allpass.hpp **** 	
 1228              		.loc 3 36 2 view .LVU489
 1229 0170 DFED957A 		vldr.32	s15, .L87
  35:DSP/FX/Reverb/allpass.hpp **** 	undenormalise(bufout);
 1230              		.loc 3 35 24 view .LVU490
 1231 0174 07EB8607 		add	r7, r7, r6, lsl #2
  39:DSP/FX/Reverb/allpass.hpp **** 
 1232              		.loc 3 39 25 view .LVU491
 1233 0178 D0ED8B6A 		vldr.32	s13, [r0, #556]
  41:DSP/FX/Reverb/allpass.hpp **** 
 1234              		.loc 3 41 5 view .LVU492
 1235 017c 0136     		adds	r6, r6, #1
  35:DSP/FX/Reverb/allpass.hpp **** 	undenormalise(bufout);
 1236              		.loc 3 35 24 view .LVU493
 1237 017e 97ED007A 		vldr.32	s14, [r7]
 1238              	.LVL98:
  36:DSP/FX/Reverb/allpass.hpp **** 	
 1239              		.loc 3 36 2 is_stmt 1 view .LVU494
 1240 0182 17EE105A 		vmov	r5, s14	@ int
 1241 0186 15F0FF4F 		tst	r5, #2139095040
 1242 018a 07FE877A 		vseleq.f32	s14, s15, s14
 1243              	.LVL99:
  38:DSP/FX/Reverb/allpass.hpp **** 	buffer[bufidx] = input + (bufout*feedback);
 1244              		.loc 3 38 2 view .LVU495
  39:DSP/FX/Reverb/allpass.hpp **** 
 1245              		.loc 3 39 25 is_stmt 0 view .LVU496
 1246 018e F0EE457A 		vmov.f32	s15, s10
  38:DSP/FX/Reverb/allpass.hpp **** 	buffer[bufidx] = input + (bufout*feedback);
 1247              		.loc 3 38 9 view .LVU497
 1248 0192 37EE455A 		vsub.f32	s10, s14, s10
 1249              	.LVL100:
  39:DSP/FX/Reverb/allpass.hpp **** 
 1250              		.loc 3 39 2 is_stmt 1 view .LVU498
  39:DSP/FX/Reverb/allpass.hpp **** 
 1251              		.loc 3 39 25 is_stmt 0 view .LVU499
 1252 0196 E7EE267A 		vfma.f32	s15, s14, s13
 1253              	.LVL101:
  39:DSP/FX/Reverb/allpass.hpp **** 
 1254              		.loc 3 39 17 view .LVU500
 1255 019a C7ED007A 		vstr.32	s15, [r7]
  41:DSP/FX/Reverb/allpass.hpp **** 
 1256              		.loc 3 41 2 is_stmt 1 view .LVU501
 1257 019e D0F83452 		ldr	r5, [r0, #564]
  41:DSP/FX/Reverb/allpass.hpp **** 
 1258              		.loc 3 41 13 is_stmt 0 view .LVU502
 1259 01a2 C0F83862 		str	r6, [r0, #568]
  41:DSP/FX/Reverb/allpass.hpp **** 
 1260              		.loc 3 41 2 view .LVU503
 1261 01a6 AE42     		cmp	r6, r5
 1262 01a8 02DB     		blt	.L57
  41:DSP/FX/Reverb/allpass.hpp **** 
 1263              		.loc 3 41 24 is_stmt 1 view .LVU504
  41:DSP/FX/Reverb/allpass.hpp **** 
 1264              		.loc 3 41 31 is_stmt 0 view .LVU505
 1265 01aa 0026     		movs	r6, #0
 1266 01ac C0F83862 		str	r6, [r0, #568]
ARM GAS  /var/folders/wz/z09yph4n0qj4t7mjxhl6ttn80000gn/T//ccKA8ZwU.s 			page 37


 1267              	.L57:
 1268              		.loc 3 43 2 is_stmt 1 view .LVU506
 1269              	.LVL102:
 1270              		.loc 3 43 2 is_stmt 0 view .LVU507
 1271              	.LBE129:
 1272              	.LBE128:
 126:DSP/FX/Reverb/revmodel.cpp **** 		{
 1273              		.loc 1 126 3 is_stmt 1 view .LVU508
 126:DSP/FX/Reverb/revmodel.cpp **** 		{
 1274              		.loc 1 126 17 view .LVU509
 128:DSP/FX/Reverb/revmodel.cpp **** 			outR = allpassR[j].process(outR);
 1275              		.loc 1 128 4 view .LVU510
 1276              	.LBB133:
  30:DSP/FX/Reverb/allpass.hpp **** {
 1277              		.loc 3 30 14 view .LVU511
 1278              	.LBB125:
  32:DSP/FX/Reverb/allpass.hpp **** 	float bufout;
 1279              		.loc 3 32 2 view .LVU512
  33:DSP/FX/Reverb/allpass.hpp **** 	
 1280              		.loc 3 33 2 view .LVU513
  35:DSP/FX/Reverb/allpass.hpp **** 	undenormalise(bufout);
 1281              		.loc 3 35 2 view .LVU514
  35:DSP/FX/Reverb/allpass.hpp **** 	undenormalise(bufout);
 1282              		.loc 3 35 18 is_stmt 0 view .LVU515
 1283 01b0 D0F80862 		ldr	r6, [r0, #520]
  35:DSP/FX/Reverb/allpass.hpp **** 	undenormalise(bufout);
 1284              		.loc 3 35 24 view .LVU516
 1285 01b4 D0F80072 		ldr	r7, [r0, #512]
  36:DSP/FX/Reverb/allpass.hpp **** 	
 1286              		.loc 3 36 2 view .LVU517
 1287 01b8 9FED837A 		vldr.32	s14, .L87
  35:DSP/FX/Reverb/allpass.hpp **** 	undenormalise(bufout);
 1288              		.loc 3 35 24 view .LVU518
 1289 01bc 07EB8607 		add	r7, r7, r6, lsl #2
  39:DSP/FX/Reverb/allpass.hpp **** 
 1290              		.loc 3 39 25 view .LVU519
 1291 01c0 D0ED7F6A 		vldr.32	s13, [r0, #508]
  41:DSP/FX/Reverb/allpass.hpp **** 
 1292              		.loc 3 41 5 view .LVU520
 1293 01c4 0136     		adds	r6, r6, #1
  35:DSP/FX/Reverb/allpass.hpp **** 	undenormalise(bufout);
 1294              		.loc 3 35 24 view .LVU521
 1295 01c6 D7ED007A 		vldr.32	s15, [r7]
 1296              	.LVL103:
  36:DSP/FX/Reverb/allpass.hpp **** 	
 1297              		.loc 3 36 2 is_stmt 1 view .LVU522
 1298 01ca 17EE905A 		vmov	r5, s15	@ int
 1299 01ce 15F0FF4F 		tst	r5, #2139095040
 1300 01d2 47FE277A 		vseleq.f32	s15, s14, s15
 1301              	.LVL104:
  38:DSP/FX/Reverb/allpass.hpp **** 	buffer[bufidx] = input + (bufout*feedback);
 1302              		.loc 3 38 2 view .LVU523
  39:DSP/FX/Reverb/allpass.hpp **** 
 1303              		.loc 3 39 25 is_stmt 0 view .LVU524
 1304 01d6 B0EE647A 		vmov.f32	s14, s9
  38:DSP/FX/Reverb/allpass.hpp **** 	buffer[bufidx] = input + (bufout*feedback);
 1305              		.loc 3 38 9 view .LVU525
ARM GAS  /var/folders/wz/z09yph4n0qj4t7mjxhl6ttn80000gn/T//ccKA8ZwU.s 			page 38


 1306 01da 77EEE44A 		vsub.f32	s9, s15, s9
 1307              	.LVL105:
  39:DSP/FX/Reverb/allpass.hpp **** 
 1308              		.loc 3 39 2 is_stmt 1 view .LVU526
  39:DSP/FX/Reverb/allpass.hpp **** 
 1309              		.loc 3 39 25 is_stmt 0 view .LVU527
 1310 01de A7EEA67A 		vfma.f32	s14, s15, s13
 1311              	.LVL106:
  39:DSP/FX/Reverb/allpass.hpp **** 
 1312              		.loc 3 39 17 view .LVU528
 1313 01e2 87ED007A 		vstr.32	s14, [r7]
  41:DSP/FX/Reverb/allpass.hpp **** 
 1314              		.loc 3 41 2 is_stmt 1 view .LVU529
 1315 01e6 D0F80452 		ldr	r5, [r0, #516]
  41:DSP/FX/Reverb/allpass.hpp **** 
 1316              		.loc 3 41 13 is_stmt 0 view .LVU530
 1317 01ea C0F80862 		str	r6, [r0, #520]
  41:DSP/FX/Reverb/allpass.hpp **** 
 1318              		.loc 3 41 2 view .LVU531
 1319 01ee AE42     		cmp	r6, r5
 1320 01f0 02DB     		blt	.L59
  41:DSP/FX/Reverb/allpass.hpp **** 
 1321              		.loc 3 41 24 is_stmt 1 view .LVU532
  41:DSP/FX/Reverb/allpass.hpp **** 
 1322              		.loc 3 41 31 is_stmt 0 view .LVU533
 1323 01f2 0026     		movs	r6, #0
 1324 01f4 C0F80862 		str	r6, [r0, #520]
 1325              	.L59:
 1326              		.loc 3 43 2 is_stmt 1 view .LVU534
 1327              	.LVL107:
 1328              		.loc 3 43 2 is_stmt 0 view .LVU535
 1329              	.LBE125:
 1330              	.LBE133:
 129:DSP/FX/Reverb/revmodel.cpp **** 		}
 1331              		.loc 1 129 4 is_stmt 1 view .LVU536
 1332              	.LBB134:
  30:DSP/FX/Reverb/allpass.hpp **** {
 1333              		.loc 3 30 14 view .LVU537
 1334              	.LBB130:
  32:DSP/FX/Reverb/allpass.hpp **** 	float bufout;
 1335              		.loc 3 32 2 view .LVU538
  33:DSP/FX/Reverb/allpass.hpp **** 	
 1336              		.loc 3 33 2 view .LVU539
  35:DSP/FX/Reverb/allpass.hpp **** 	undenormalise(bufout);
 1337              		.loc 3 35 2 view .LVU540
  35:DSP/FX/Reverb/allpass.hpp **** 	undenormalise(bufout);
 1338              		.loc 3 35 18 is_stmt 0 view .LVU541
 1339 01f8 D0F84862 		ldr	r6, [r0, #584]
  35:DSP/FX/Reverb/allpass.hpp **** 	undenormalise(bufout);
 1340              		.loc 3 35 24 view .LVU542
 1341 01fc D0F84072 		ldr	r7, [r0, #576]
  36:DSP/FX/Reverb/allpass.hpp **** 	
 1342              		.loc 3 36 2 view .LVU543
 1343 0200 DFED717A 		vldr.32	s15, .L87
  35:DSP/FX/Reverb/allpass.hpp **** 	undenormalise(bufout);
 1344              		.loc 3 35 24 view .LVU544
 1345 0204 07EB8607 		add	r7, r7, r6, lsl #2
ARM GAS  /var/folders/wz/z09yph4n0qj4t7mjxhl6ttn80000gn/T//ccKA8ZwU.s 			page 39


  39:DSP/FX/Reverb/allpass.hpp **** 
 1346              		.loc 3 39 25 view .LVU545
 1347 0208 D0ED8F6A 		vldr.32	s13, [r0, #572]
  41:DSP/FX/Reverb/allpass.hpp **** 
 1348              		.loc 3 41 5 view .LVU546
 1349 020c 0136     		adds	r6, r6, #1
  35:DSP/FX/Reverb/allpass.hpp **** 	undenormalise(bufout);
 1350              		.loc 3 35 24 view .LVU547
 1351 020e 97ED007A 		vldr.32	s14, [r7]
 1352              	.LVL108:
  36:DSP/FX/Reverb/allpass.hpp **** 	
 1353              		.loc 3 36 2 is_stmt 1 view .LVU548
 1354 0212 17EE105A 		vmov	r5, s14	@ int
 1355 0216 15F0FF4F 		tst	r5, #2139095040
 1356 021a 07FE877A 		vseleq.f32	s14, s15, s14
 1357              	.LVL109:
  38:DSP/FX/Reverb/allpass.hpp **** 	buffer[bufidx] = input + (bufout*feedback);
 1358              		.loc 3 38 2 view .LVU549
  39:DSP/FX/Reverb/allpass.hpp **** 
 1359              		.loc 3 39 25 is_stmt 0 view .LVU550
 1360 021e F0EE457A 		vmov.f32	s15, s10
  38:DSP/FX/Reverb/allpass.hpp **** 	buffer[bufidx] = input + (bufout*feedback);
 1361              		.loc 3 38 9 view .LVU551
 1362 0222 37EE455A 		vsub.f32	s10, s14, s10
 1363              	.LVL110:
  39:DSP/FX/Reverb/allpass.hpp **** 
 1364              		.loc 3 39 2 is_stmt 1 view .LVU552
  39:DSP/FX/Reverb/allpass.hpp **** 
 1365              		.loc 3 39 25 is_stmt 0 view .LVU553
 1366 0226 E7EE267A 		vfma.f32	s15, s14, s13
 1367              	.LVL111:
  39:DSP/FX/Reverb/allpass.hpp **** 
 1368              		.loc 3 39 17 view .LVU554
 1369 022a C7ED007A 		vstr.32	s15, [r7]
  41:DSP/FX/Reverb/allpass.hpp **** 
 1370              		.loc 3 41 2 is_stmt 1 view .LVU555
 1371 022e D0F84452 		ldr	r5, [r0, #580]
  41:DSP/FX/Reverb/allpass.hpp **** 
 1372              		.loc 3 41 13 is_stmt 0 view .LVU556
 1373 0232 C0F84862 		str	r6, [r0, #584]
  41:DSP/FX/Reverb/allpass.hpp **** 
 1374              		.loc 3 41 2 view .LVU557
 1375 0236 AE42     		cmp	r6, r5
 1376 0238 02DB     		blt	.L61
  41:DSP/FX/Reverb/allpass.hpp **** 
 1377              		.loc 3 41 24 is_stmt 1 view .LVU558
  41:DSP/FX/Reverb/allpass.hpp **** 
 1378              		.loc 3 41 31 is_stmt 0 view .LVU559
 1379 023a 0026     		movs	r6, #0
 1380 023c C0F84862 		str	r6, [r0, #584]
 1381              	.L61:
 1382              		.loc 3 43 2 is_stmt 1 view .LVU560
 1383              	.LVL112:
 1384              		.loc 3 43 2 is_stmt 0 view .LVU561
 1385              	.LBE130:
 1386              	.LBE134:
 126:DSP/FX/Reverb/revmodel.cpp **** 		{
ARM GAS  /var/folders/wz/z09yph4n0qj4t7mjxhl6ttn80000gn/T//ccKA8ZwU.s 			page 40


 1387              		.loc 1 126 3 is_stmt 1 view .LVU562
 126:DSP/FX/Reverb/revmodel.cpp **** 		{
 1388              		.loc 1 126 17 view .LVU563
 128:DSP/FX/Reverb/revmodel.cpp **** 			outR = allpassR[j].process(outR);
 1389              		.loc 1 128 4 view .LVU564
 1390              	.LBB135:
  30:DSP/FX/Reverb/allpass.hpp **** {
 1391              		.loc 3 30 14 view .LVU565
 1392              	.LBB126:
  32:DSP/FX/Reverb/allpass.hpp **** 	float bufout;
 1393              		.loc 3 32 2 view .LVU566
  33:DSP/FX/Reverb/allpass.hpp **** 	
 1394              		.loc 3 33 2 view .LVU567
  35:DSP/FX/Reverb/allpass.hpp **** 	undenormalise(bufout);
 1395              		.loc 3 35 2 view .LVU568
  35:DSP/FX/Reverb/allpass.hpp **** 	undenormalise(bufout);
 1396              		.loc 3 35 18 is_stmt 0 view .LVU569
 1397 0240 D0F81862 		ldr	r6, [r0, #536]
  35:DSP/FX/Reverb/allpass.hpp **** 	undenormalise(bufout);
 1398              		.loc 3 35 24 view .LVU570
 1399 0244 D0F81072 		ldr	r7, [r0, #528]
  36:DSP/FX/Reverb/allpass.hpp **** 	
 1400              		.loc 3 36 2 view .LVU571
 1401 0248 9FED5F7A 		vldr.32	s14, .L87
  35:DSP/FX/Reverb/allpass.hpp **** 	undenormalise(bufout);
 1402              		.loc 3 35 24 view .LVU572
 1403 024c 07EB8607 		add	r7, r7, r6, lsl #2
  39:DSP/FX/Reverb/allpass.hpp **** 
 1404              		.loc 3 39 25 view .LVU573
 1405 0250 D0ED836A 		vldr.32	s13, [r0, #524]
  41:DSP/FX/Reverb/allpass.hpp **** 
 1406              		.loc 3 41 5 view .LVU574
 1407 0254 0136     		adds	r6, r6, #1
  35:DSP/FX/Reverb/allpass.hpp **** 	undenormalise(bufout);
 1408              		.loc 3 35 24 view .LVU575
 1409 0256 D7ED007A 		vldr.32	s15, [r7]
 1410              	.LVL113:
  36:DSP/FX/Reverb/allpass.hpp **** 	
 1411              		.loc 3 36 2 is_stmt 1 view .LVU576
 1412 025a 17EE905A 		vmov	r5, s15	@ int
 1413 025e 15F0FF4F 		tst	r5, #2139095040
 1414 0262 47FE277A 		vseleq.f32	s15, s14, s15
 1415              	.LVL114:
  38:DSP/FX/Reverb/allpass.hpp **** 	buffer[bufidx] = input + (bufout*feedback);
 1416              		.loc 3 38 2 view .LVU577
  39:DSP/FX/Reverb/allpass.hpp **** 
 1417              		.loc 3 39 25 is_stmt 0 view .LVU578
 1418 0266 B0EE647A 		vmov.f32	s14, s9
  38:DSP/FX/Reverb/allpass.hpp **** 	buffer[bufidx] = input + (bufout*feedback);
 1419              		.loc 3 38 9 view .LVU579
 1420 026a 77EEE44A 		vsub.f32	s9, s15, s9
 1421              	.LVL115:
  39:DSP/FX/Reverb/allpass.hpp **** 
 1422              		.loc 3 39 2 is_stmt 1 view .LVU580
  39:DSP/FX/Reverb/allpass.hpp **** 
 1423              		.loc 3 39 25 is_stmt 0 view .LVU581
 1424 026e A7EEA67A 		vfma.f32	s14, s15, s13
ARM GAS  /var/folders/wz/z09yph4n0qj4t7mjxhl6ttn80000gn/T//ccKA8ZwU.s 			page 41


 1425              	.LVL116:
  39:DSP/FX/Reverb/allpass.hpp **** 
 1426              		.loc 3 39 17 view .LVU582
 1427 0272 87ED007A 		vstr.32	s14, [r7]
  41:DSP/FX/Reverb/allpass.hpp **** 
 1428              		.loc 3 41 2 is_stmt 1 view .LVU583
 1429 0276 D0F81452 		ldr	r5, [r0, #532]
  41:DSP/FX/Reverb/allpass.hpp **** 
 1430              		.loc 3 41 13 is_stmt 0 view .LVU584
 1431 027a C0F81862 		str	r6, [r0, #536]
  41:DSP/FX/Reverb/allpass.hpp **** 
 1432              		.loc 3 41 2 view .LVU585
 1433 027e AE42     		cmp	r6, r5
 1434 0280 02DB     		blt	.L63
  41:DSP/FX/Reverb/allpass.hpp **** 
 1435              		.loc 3 41 24 is_stmt 1 view .LVU586
  41:DSP/FX/Reverb/allpass.hpp **** 
 1436              		.loc 3 41 31 is_stmt 0 view .LVU587
 1437 0282 0026     		movs	r6, #0
 1438 0284 C0F81862 		str	r6, [r0, #536]
 1439              	.L63:
 1440              		.loc 3 43 2 is_stmt 1 view .LVU588
 1441              	.LVL117:
 1442              		.loc 3 43 2 is_stmt 0 view .LVU589
 1443              	.LBE126:
 1444              	.LBE135:
 129:DSP/FX/Reverb/revmodel.cpp **** 		}
 1445              		.loc 1 129 4 is_stmt 1 view .LVU590
 1446              	.LBB136:
  30:DSP/FX/Reverb/allpass.hpp **** {
 1447              		.loc 3 30 14 view .LVU591
 1448              	.LBB131:
  32:DSP/FX/Reverb/allpass.hpp **** 	float bufout;
 1449              		.loc 3 32 2 view .LVU592
  33:DSP/FX/Reverb/allpass.hpp **** 	
 1450              		.loc 3 33 2 view .LVU593
  35:DSP/FX/Reverb/allpass.hpp **** 	undenormalise(bufout);
 1451              		.loc 3 35 2 view .LVU594
  35:DSP/FX/Reverb/allpass.hpp **** 	undenormalise(bufout);
 1452              		.loc 3 35 18 is_stmt 0 view .LVU595
 1453 0288 D0F85862 		ldr	r6, [r0, #600]
  35:DSP/FX/Reverb/allpass.hpp **** 	undenormalise(bufout);
 1454              		.loc 3 35 24 view .LVU596
 1455 028c D0F85072 		ldr	r7, [r0, #592]
  36:DSP/FX/Reverb/allpass.hpp **** 	
 1456              		.loc 3 36 2 view .LVU597
 1457 0290 DFED4D7A 		vldr.32	s15, .L87
  35:DSP/FX/Reverb/allpass.hpp **** 	undenormalise(bufout);
 1458              		.loc 3 35 24 view .LVU598
 1459 0294 07EB8607 		add	r7, r7, r6, lsl #2
  39:DSP/FX/Reverb/allpass.hpp **** 
 1460              		.loc 3 39 25 view .LVU599
 1461 0298 D0ED936A 		vldr.32	s13, [r0, #588]
  41:DSP/FX/Reverb/allpass.hpp **** 
 1462              		.loc 3 41 5 view .LVU600
 1463 029c 0136     		adds	r6, r6, #1
  35:DSP/FX/Reverb/allpass.hpp **** 	undenormalise(bufout);
ARM GAS  /var/folders/wz/z09yph4n0qj4t7mjxhl6ttn80000gn/T//ccKA8ZwU.s 			page 42


 1464              		.loc 3 35 24 view .LVU601
 1465 029e 97ED007A 		vldr.32	s14, [r7]
 1466              	.LVL118:
  36:DSP/FX/Reverb/allpass.hpp **** 	
 1467              		.loc 3 36 2 is_stmt 1 view .LVU602
 1468 02a2 17EE105A 		vmov	r5, s14	@ int
 1469 02a6 15F0FF4F 		tst	r5, #2139095040
 1470 02aa 07FE877A 		vseleq.f32	s14, s15, s14
 1471              	.LVL119:
  38:DSP/FX/Reverb/allpass.hpp **** 	buffer[bufidx] = input + (bufout*feedback);
 1472              		.loc 3 38 2 view .LVU603
  39:DSP/FX/Reverb/allpass.hpp **** 
 1473              		.loc 3 39 25 is_stmt 0 view .LVU604
 1474 02ae F0EE457A 		vmov.f32	s15, s10
  38:DSP/FX/Reverb/allpass.hpp **** 	buffer[bufidx] = input + (bufout*feedback);
 1475              		.loc 3 38 9 view .LVU605
 1476 02b2 37EE455A 		vsub.f32	s10, s14, s10
 1477              	.LVL120:
  39:DSP/FX/Reverb/allpass.hpp **** 
 1478              		.loc 3 39 2 is_stmt 1 view .LVU606
  39:DSP/FX/Reverb/allpass.hpp **** 
 1479              		.loc 3 39 25 is_stmt 0 view .LVU607
 1480 02b6 E7EE267A 		vfma.f32	s15, s14, s13
 1481              	.LVL121:
  39:DSP/FX/Reverb/allpass.hpp **** 
 1482              		.loc 3 39 17 view .LVU608
 1483 02ba C7ED007A 		vstr.32	s15, [r7]
  41:DSP/FX/Reverb/allpass.hpp **** 
 1484              		.loc 3 41 2 is_stmt 1 view .LVU609
 1485 02be D0F85452 		ldr	r5, [r0, #596]
  41:DSP/FX/Reverb/allpass.hpp **** 
 1486              		.loc 3 41 13 is_stmt 0 view .LVU610
 1487 02c2 C0F85862 		str	r6, [r0, #600]
  41:DSP/FX/Reverb/allpass.hpp **** 
 1488              		.loc 3 41 2 view .LVU611
 1489 02c6 AE42     		cmp	r6, r5
 1490 02c8 02DB     		blt	.L65
  41:DSP/FX/Reverb/allpass.hpp **** 
 1491              		.loc 3 41 24 is_stmt 1 view .LVU612
  41:DSP/FX/Reverb/allpass.hpp **** 
 1492              		.loc 3 41 31 is_stmt 0 view .LVU613
 1493 02ca 0026     		movs	r6, #0
 1494 02cc C0F85862 		str	r6, [r0, #600]
 1495              	.L65:
 1496              		.loc 3 43 2 is_stmt 1 view .LVU614
 1497              	.LVL122:
 1498              		.loc 3 43 2 is_stmt 0 view .LVU615
 1499              	.LBE131:
 1500              	.LBE136:
 126:DSP/FX/Reverb/revmodel.cpp **** 		{
 1501              		.loc 1 126 3 is_stmt 1 view .LVU616
 126:DSP/FX/Reverb/revmodel.cpp **** 		{
 1502              		.loc 1 126 17 view .LVU617
 128:DSP/FX/Reverb/revmodel.cpp **** 			outR = allpassR[j].process(outR);
 1503              		.loc 1 128 4 view .LVU618
 1504              	.LBB137:
  30:DSP/FX/Reverb/allpass.hpp **** {
ARM GAS  /var/folders/wz/z09yph4n0qj4t7mjxhl6ttn80000gn/T//ccKA8ZwU.s 			page 43


 1505              		.loc 3 30 14 view .LVU619
 1506              	.LBB127:
  32:DSP/FX/Reverb/allpass.hpp **** 	float bufout;
 1507              		.loc 3 32 2 view .LVU620
  33:DSP/FX/Reverb/allpass.hpp **** 	
 1508              		.loc 3 33 2 view .LVU621
  35:DSP/FX/Reverb/allpass.hpp **** 	undenormalise(bufout);
 1509              		.loc 3 35 2 view .LVU622
  35:DSP/FX/Reverb/allpass.hpp **** 	undenormalise(bufout);
 1510              		.loc 3 35 18 is_stmt 0 view .LVU623
 1511 02d0 D0F82862 		ldr	r6, [r0, #552]
  35:DSP/FX/Reverb/allpass.hpp **** 	undenormalise(bufout);
 1512              		.loc 3 35 24 view .LVU624
 1513 02d4 D0F82072 		ldr	r7, [r0, #544]
  36:DSP/FX/Reverb/allpass.hpp **** 	
 1514              		.loc 3 36 2 view .LVU625
 1515 02d8 9FED3B7A 		vldr.32	s14, .L87
  35:DSP/FX/Reverb/allpass.hpp **** 	undenormalise(bufout);
 1516              		.loc 3 35 24 view .LVU626
 1517 02dc 07EB8607 		add	r7, r7, r6, lsl #2
  39:DSP/FX/Reverb/allpass.hpp **** 
 1518              		.loc 3 39 25 view .LVU627
 1519 02e0 D0ED876A 		vldr.32	s13, [r0, #540]
  41:DSP/FX/Reverb/allpass.hpp **** 
 1520              		.loc 3 41 5 view .LVU628
 1521 02e4 0136     		adds	r6, r6, #1
  35:DSP/FX/Reverb/allpass.hpp **** 	undenormalise(bufout);
 1522              		.loc 3 35 24 view .LVU629
 1523 02e6 D7ED007A 		vldr.32	s15, [r7]
 1524              	.LVL123:
  36:DSP/FX/Reverb/allpass.hpp **** 	
 1525              		.loc 3 36 2 is_stmt 1 view .LVU630
 1526 02ea 17EE905A 		vmov	r5, s15	@ int
 1527 02ee 15F0FF4F 		tst	r5, #2139095040
 1528 02f2 47FE277A 		vseleq.f32	s15, s14, s15
 1529              	.LVL124:
  38:DSP/FX/Reverb/allpass.hpp **** 	buffer[bufidx] = input + (bufout*feedback);
 1530              		.loc 3 38 2 view .LVU631
  39:DSP/FX/Reverb/allpass.hpp **** 
 1531              		.loc 3 39 25 is_stmt 0 view .LVU632
 1532 02f6 B0EE647A 		vmov.f32	s14, s9
 1533 02fa A7EEA67A 		vfma.f32	s14, s15, s13
  38:DSP/FX/Reverb/allpass.hpp **** 	buffer[bufidx] = input + (bufout*feedback);
 1534              		.loc 3 38 9 view .LVU633
 1535 02fe 77EEE47A 		vsub.f32	s15, s15, s9
 1536              	.LVL125:
  39:DSP/FX/Reverb/allpass.hpp **** 
 1537              		.loc 3 39 2 is_stmt 1 view .LVU634
  39:DSP/FX/Reverb/allpass.hpp **** 
 1538              		.loc 3 39 17 is_stmt 0 view .LVU635
 1539 0302 87ED007A 		vstr.32	s14, [r7]
 1540              	.LVL126:
  41:DSP/FX/Reverb/allpass.hpp **** 
 1541              		.loc 3 41 2 is_stmt 1 view .LVU636
 1542 0306 D0F82452 		ldr	r5, [r0, #548]
  41:DSP/FX/Reverb/allpass.hpp **** 
 1543              		.loc 3 41 13 is_stmt 0 view .LVU637
ARM GAS  /var/folders/wz/z09yph4n0qj4t7mjxhl6ttn80000gn/T//ccKA8ZwU.s 			page 44


 1544 030a C0F82862 		str	r6, [r0, #552]
  41:DSP/FX/Reverb/allpass.hpp **** 
 1545              		.loc 3 41 2 view .LVU638
 1546 030e AE42     		cmp	r6, r5
  41:DSP/FX/Reverb/allpass.hpp **** 
 1547              		.loc 3 41 2 view .LVU639
 1548 0310 02DB     		blt	.L67
  41:DSP/FX/Reverb/allpass.hpp **** 
 1549              		.loc 3 41 24 is_stmt 1 view .LVU640
  41:DSP/FX/Reverb/allpass.hpp **** 
 1550              		.loc 3 41 31 is_stmt 0 view .LVU641
 1551 0312 0026     		movs	r6, #0
 1552 0314 C0F82862 		str	r6, [r0, #552]
 1553              	.L67:
 1554              		.loc 3 43 2 is_stmt 1 view .LVU642
 1555              	.LVL127:
 1556              		.loc 3 43 2 is_stmt 0 view .LVU643
 1557              	.LBE127:
 1558              	.LBE137:
 129:DSP/FX/Reverb/revmodel.cpp **** 		}
 1559              		.loc 1 129 4 is_stmt 1 view .LVU644
 1560              	.LBB138:
  30:DSP/FX/Reverb/allpass.hpp **** {
 1561              		.loc 3 30 14 view .LVU645
 1562              	.LBB132:
  32:DSP/FX/Reverb/allpass.hpp **** 	float bufout;
 1563              		.loc 3 32 2 view .LVU646
  33:DSP/FX/Reverb/allpass.hpp **** 	
 1564              		.loc 3 33 2 view .LVU647
  35:DSP/FX/Reverb/allpass.hpp **** 	undenormalise(bufout);
 1565              		.loc 3 35 2 view .LVU648
  35:DSP/FX/Reverb/allpass.hpp **** 	undenormalise(bufout);
 1566              		.loc 3 35 18 is_stmt 0 view .LVU649
 1567 0318 D0F86862 		ldr	r6, [r0, #616]
  35:DSP/FX/Reverb/allpass.hpp **** 	undenormalise(bufout);
 1568              		.loc 3 35 24 view .LVU650
 1569 031c D0F86072 		ldr	r7, [r0, #608]
  36:DSP/FX/Reverb/allpass.hpp **** 	
 1570              		.loc 3 36 2 view .LVU651
 1571 0320 DFED296A 		vldr.32	s13, .L87
  35:DSP/FX/Reverb/allpass.hpp **** 	undenormalise(bufout);
 1572              		.loc 3 35 24 view .LVU652
 1573 0324 07EB8607 		add	r7, r7, r6, lsl #2
  39:DSP/FX/Reverb/allpass.hpp **** 
 1574              		.loc 3 39 25 view .LVU653
 1575 0328 90ED976A 		vldr.32	s12, [r0, #604]
  41:DSP/FX/Reverb/allpass.hpp **** 
 1576              		.loc 3 41 5 view .LVU654
 1577 032c 0136     		adds	r6, r6, #1
  35:DSP/FX/Reverb/allpass.hpp **** 	undenormalise(bufout);
 1578              		.loc 3 35 24 view .LVU655
 1579 032e 97ED007A 		vldr.32	s14, [r7]
 1580              	.LVL128:
  36:DSP/FX/Reverb/allpass.hpp **** 	
 1581              		.loc 3 36 2 is_stmt 1 view .LVU656
 1582 0332 17EE105A 		vmov	r5, s14	@ int
 1583 0336 15F0FF4F 		tst	r5, #2139095040
ARM GAS  /var/folders/wz/z09yph4n0qj4t7mjxhl6ttn80000gn/T//ccKA8ZwU.s 			page 45


 1584 033a 06FE877A 		vseleq.f32	s14, s13, s14
 1585              	.LVL129:
  38:DSP/FX/Reverb/allpass.hpp **** 	buffer[bufidx] = input + (bufout*feedback);
 1586              		.loc 3 38 2 view .LVU657
  39:DSP/FX/Reverb/allpass.hpp **** 
 1587              		.loc 3 39 25 is_stmt 0 view .LVU658
 1588 033e F0EE456A 		vmov.f32	s13, s10
 1589 0342 E7EE066A 		vfma.f32	s13, s14, s12
  38:DSP/FX/Reverb/allpass.hpp **** 	buffer[bufidx] = input + (bufout*feedback);
 1590              		.loc 3 38 9 view .LVU659
 1591 0346 37EE457A 		vsub.f32	s14, s14, s10
 1592              	.LVL130:
  39:DSP/FX/Reverb/allpass.hpp **** 
 1593              		.loc 3 39 2 is_stmt 1 view .LVU660
  39:DSP/FX/Reverb/allpass.hpp **** 
 1594              		.loc 3 39 17 is_stmt 0 view .LVU661
 1595 034a C7ED006A 		vstr.32	s13, [r7]
 1596              	.LVL131:
  41:DSP/FX/Reverb/allpass.hpp **** 
 1597              		.loc 3 41 2 is_stmt 1 view .LVU662
 1598 034e D0F86452 		ldr	r5, [r0, #612]
  41:DSP/FX/Reverb/allpass.hpp **** 
 1599              		.loc 3 41 13 is_stmt 0 view .LVU663
 1600 0352 C0F86862 		str	r6, [r0, #616]
  41:DSP/FX/Reverb/allpass.hpp **** 
 1601              		.loc 3 41 2 view .LVU664
 1602 0356 AE42     		cmp	r6, r5
  41:DSP/FX/Reverb/allpass.hpp **** 
 1603              		.loc 3 41 2 view .LVU665
 1604 0358 02DB     		blt	.L69
  41:DSP/FX/Reverb/allpass.hpp **** 
 1605              		.loc 3 41 24 is_stmt 1 view .LVU666
  41:DSP/FX/Reverb/allpass.hpp **** 
 1606              		.loc 3 41 31 is_stmt 0 view .LVU667
 1607 035a 0026     		movs	r6, #0
 1608 035c C0F86862 		str	r6, [r0, #616]
 1609              	.L69:
 1610              		.loc 3 43 2 is_stmt 1 view .LVU668
 1611              	.LVL132:
 1612              		.loc 3 43 2 is_stmt 0 view .LVU669
 1613              	.LBE132:
 1614              	.LBE138:
 126:DSP/FX/Reverb/revmodel.cpp **** 		{
 1615              		.loc 1 126 3 is_stmt 1 view .LVU670
 126:DSP/FX/Reverb/revmodel.cpp **** 		{
 1616              		.loc 1 126 17 view .LVU671
 1617              	.LBE122:
 133:DSP/FX/Reverb/revmodel.cpp **** 		*outputR += outR*wet1 + outL*wet2 + *inputR*dry;
 1618              		.loc 1 133 3 view .LVU672
 133:DSP/FX/Reverb/revmodel.cpp **** 		*outputR += outR*wet1 + outL*wet2 + *inputR*dry;
 1619              		.loc 1 133 31 is_stmt 0 view .LVU673
 1620 0360 D0ED076A 		vldr.32	s13, [r0, #28]
 1621              	.LBE110:
 113:DSP/FX/Reverb/revmodel.cpp **** 	{
 1622              		.loc 1 113 18 view .LVU674
 1623 0364 09F1FF39 		add	r9, r9, #-1
 1624              	.LVL133:
ARM GAS  /var/folders/wz/z09yph4n0qj4t7mjxhl6ttn80000gn/T//ccKA8ZwU.s 			page 46


 1625              	.LBB139:
 133:DSP/FX/Reverb/revmodel.cpp **** 		*outputR += outR*wet1 + outL*wet2 + *inputR*dry;
 1626              		.loc 1 133 25 view .LVU675
 1627 0368 D0ED064A 		vldr.32	s9, [r0, #24]
 133:DSP/FX/Reverb/revmodel.cpp **** 		*outputR += outR*wet1 + outL*wet2 + *inputR*dry;
 1628              		.loc 1 133 31 view .LVU676
 1629 036c 67EE266A 		vmul.f32	s13, s14, s13
 133:DSP/FX/Reverb/revmodel.cpp **** 		*outputR += outR*wet1 + outL*wet2 + *inputR*dry;
 1630              		.loc 1 133 37 view .LVU677
 1631 0370 91ED005A 		vldr.32	s10, [r1]
 1632 0374 D0ED085A 		vldr.32	s11, [r0, #32]
 1633              	.LVL134:
 133:DSP/FX/Reverb/revmodel.cpp **** 		*outputR += outR*wet1 + outL*wet2 + *inputR*dry;
 1634              		.loc 1 133 37 view .LVU678
 1635              	.LBE139:
 113:DSP/FX/Reverb/revmodel.cpp **** 	{
 1636              		.loc 1 113 21 view .LVU679
 1637 0378 B9F1FF3F 		cmp	r9, #-1
 1638              	.LBB140:
 133:DSP/FX/Reverb/revmodel.cpp **** 		*outputR += outR*wet1 + outL*wet2 + *inputR*dry;
 1639              		.loc 1 133 12 view .LVU680
 1640 037c 93ED006A 		vldr.32	s12, [r3]
 137:DSP/FX/Reverb/revmodel.cpp **** 		inputR += skip;
 1641              		.loc 1 137 10 view .LVU681
 1642 0380 7144     		add	r1, r1, lr
 1643              	.LVL135:
 133:DSP/FX/Reverb/revmodel.cpp **** 		*outputR += outR*wet1 + outL*wet2 + *inputR*dry;
 1644              		.loc 1 133 25 view .LVU682
 1645 0382 E4EEA76A 		vfma.f32	s13, s9, s15
 133:DSP/FX/Reverb/revmodel.cpp **** 		*outputR += outR*wet1 + outL*wet2 + *inputR*dry;
 1646              		.loc 1 133 37 view .LVU683
 1647 0386 E5EE256A 		vfma.f32	s13, s10, s11
 133:DSP/FX/Reverb/revmodel.cpp **** 		*outputR += outR*wet1 + outL*wet2 + *inputR*dry;
 1648              		.loc 1 133 12 view .LVU684
 1649 038a 76EE266A 		vadd.f32	s13, s12, s13
 1650 038e C3ED006A 		vstr.32	s13, [r3]
 134:DSP/FX/Reverb/revmodel.cpp **** 
 1651              		.loc 1 134 3 is_stmt 1 view .LVU685
 139:DSP/FX/Reverb/revmodel.cpp **** 		outputR += skip;
 1652              		.loc 1 139 11 is_stmt 0 view .LVU686
 1653 0392 7344     		add	r3, r3, lr
 1654              	.LVL136:
 134:DSP/FX/Reverb/revmodel.cpp **** 
 1655              		.loc 1 134 31 view .LVU687
 1656 0394 D0ED076A 		vldr.32	s13, [r0, #28]
 134:DSP/FX/Reverb/revmodel.cpp **** 
 1657              		.loc 1 134 25 view .LVU688
 1658 0398 90ED065A 		vldr.32	s10, [r0, #24]
 134:DSP/FX/Reverb/revmodel.cpp **** 
 1659              		.loc 1 134 31 view .LVU689
 1660 039c 67EEA67A 		vmul.f32	s15, s15, s13
 1661              	.LVL137:
 134:DSP/FX/Reverb/revmodel.cpp **** 
 1662              		.loc 1 134 37 view .LVU690
 1663 03a0 D2ED005A 		vldr.32	s11, [r2]
 1664 03a4 90ED086A 		vldr.32	s12, [r0, #32]
 138:DSP/FX/Reverb/revmodel.cpp **** 		outputL += skip;
ARM GAS  /var/folders/wz/z09yph4n0qj4t7mjxhl6ttn80000gn/T//ccKA8ZwU.s 			page 47


 1665              		.loc 1 138 10 view .LVU691
 1666 03a8 7244     		add	r2, r2, lr
 1667              	.LVL138:
 134:DSP/FX/Reverb/revmodel.cpp **** 
 1668              		.loc 1 134 12 view .LVU692
 1669 03aa D4ED006A 		vldr.32	s13, [r4]
 134:DSP/FX/Reverb/revmodel.cpp **** 
 1670              		.loc 1 134 25 view .LVU693
 1671 03ae E5EE077A 		vfma.f32	s15, s10, s14
 134:DSP/FX/Reverb/revmodel.cpp **** 
 1672              		.loc 1 134 37 view .LVU694
 1673 03b2 E5EE867A 		vfma.f32	s15, s11, s12
 134:DSP/FX/Reverb/revmodel.cpp **** 
 1674              		.loc 1 134 12 view .LVU695
 1675 03b6 76EEA77A 		vadd.f32	s15, s13, s15
 1676 03ba C4ED007A 		vstr.32	s15, [r4]
 137:DSP/FX/Reverb/revmodel.cpp **** 		inputR += skip;
 1677              		.loc 1 137 3 is_stmt 1 view .LVU696
 1678              	.LVL139:
 138:DSP/FX/Reverb/revmodel.cpp **** 		outputL += skip;
 1679              		.loc 1 138 3 view .LVU697
 139:DSP/FX/Reverb/revmodel.cpp **** 		outputR += skip;
 1680              		.loc 1 139 3 view .LVU698
 140:DSP/FX/Reverb/revmodel.cpp **** 	}
 1681              		.loc 1 140 3 view .LVU699
 140:DSP/FX/Reverb/revmodel.cpp **** 	}
 1682              		.loc 1 140 11 is_stmt 0 view .LVU700
 1683 03be 7444     		add	r4, r4, lr
 1684              	.LVL140:
 140:DSP/FX/Reverb/revmodel.cpp **** 	}
 1685              		.loc 1 140 11 view .LVU701
 1686              	.LBE140:
 111:DSP/FX/Reverb/revmodel.cpp **** 
 1687              		.loc 1 111 2 is_stmt 1 view .LVU702
 113:DSP/FX/Reverb/revmodel.cpp **** 	{
 1688              		.loc 1 113 2 view .LVU703
 113:DSP/FX/Reverb/revmodel.cpp **** 	{
 1689              		.loc 1 113 21 view .LVU704
 113:DSP/FX/Reverb/revmodel.cpp **** 	{
 1690              		.loc 1 113 21 is_stmt 0 view .LVU705
 1691 03c0 7FF42CAE 		bne	.L70
 1692              	.LVL141:
 1693              	.L51:
 142:DSP/FX/Reverb/revmodel.cpp **** 
 1694              		.loc 1 142 1 view .LVU706
 1695 03c4 BDE8F083 		pop	{r4, r5, r6, r7, r8, r9, pc}
 1696              	.LVL142:
 1697              	.L88:
 142:DSP/FX/Reverb/revmodel.cpp **** 
 1698              		.loc 1 142 1 view .LVU707
 1699              		.align	2
 1700              	.L87:
 1701 03c8 00000000 		.word	0
 1702              		.cfi_endproc
 1703              	.LFE551:
 1705              		.section	.text._ZN8revmodel6updateEv,"ax",%progbits
 1706              		.align	1
ARM GAS  /var/folders/wz/z09yph4n0qj4t7mjxhl6ttn80000gn/T//ccKA8ZwU.s 			page 48


 1707              		.p2align 2,,3
 1708              		.global	_ZN8revmodel6updateEv
 1709              		.syntax unified
 1710              		.thumb
 1711              		.thumb_func
 1713              	_ZN8revmodel6updateEv:
 1714              	.LVL143:
 1715              	.LFB552:
 145:DSP/FX/Reverb/revmodel.cpp **** // Recalculate internal values after parameter change
 1716              		.loc 1 145 1 is_stmt 1 view -0
 1717              		.cfi_startproc
 1718              		@ args = 0, pretend = 0, frame = 0
 1719              		@ frame_needed = 0, uses_anonymous_args = 0
 148:DSP/FX/Reverb/revmodel.cpp **** 
 1720              		.loc 1 148 2 view .LVU709
 150:DSP/FX/Reverb/revmodel.cpp **** 	wet2 = wet*((1-width)/2);
 1721              		.loc 1 150 2 view .LVU710
 150:DSP/FX/Reverb/revmodel.cpp **** 	wet2 = wet*((1-width)/2);
 1722              		.loc 1 150 22 is_stmt 0 view .LVU711
 1723 0000 B6EE007A 		vmov.f32	s14, #5.0e-1
 150:DSP/FX/Reverb/revmodel.cpp **** 	wet2 = wet*((1-width)/2);
 1724              		.loc 1 150 14 view .LVU712
 1725 0004 D0ED097A 		vldr.32	s15, [r0, #36]
 151:DSP/FX/Reverb/revmodel.cpp **** 
 1726              		.loc 1 151 16 view .LVU713
 1727 0008 F7EE005A 		vmov.f32	s11, #1.0e+0
 153:DSP/FX/Reverb/revmodel.cpp **** 	{
 1728              		.loc 1 153 2 view .LVU714
 1729 000c 90ED0A5A 		vldr.32	s10, [r0, #40]
 150:DSP/FX/Reverb/revmodel.cpp **** 	wet2 = wet*((1-width)/2);
 1730              		.loc 1 150 9 view .LVU715
 1731 0010 90ED056A 		vldr.32	s12, [r0, #20]
 150:DSP/FX/Reverb/revmodel.cpp **** 	wet2 = wet*((1-width)/2);
 1732              		.loc 1 150 22 view .LVU716
 1733 0014 F0EE476A 		vmov.f32	s13, s14
 153:DSP/FX/Reverb/revmodel.cpp **** 	{
 1734              		.loc 1 153 2 view .LVU717
 1735 0018 B4EEC75A 		vcmpe.f32	s10, s14
 150:DSP/FX/Reverb/revmodel.cpp **** 	wet2 = wet*((1-width)/2);
 1736              		.loc 1 150 22 view .LVU718
 1737 001c E7EE876A 		vfma.f32	s13, s15, s14
 151:DSP/FX/Reverb/revmodel.cpp **** 
 1738              		.loc 1 151 16 view .LVU719
 1739 0020 75EEE77A 		vsub.f32	s15, s11, s15
 153:DSP/FX/Reverb/revmodel.cpp **** 	{
 1740              		.loc 1 153 2 view .LVU720
 1741 0024 F1EE10FA 		vmrs	APSR_nzcv, FPSCR
 151:DSP/FX/Reverb/revmodel.cpp **** 
 1742              		.loc 1 151 23 view .LVU721
 1743 0028 67EE877A 		vmul.f32	s15, s15, s14
 150:DSP/FX/Reverb/revmodel.cpp **** 	wet2 = wet*((1-width)/2);
 1744              		.loc 1 150 12 view .LVU722
 1745 002c 66EE266A 		vmul.f32	s13, s12, s13
 151:DSP/FX/Reverb/revmodel.cpp **** 
 1746              		.loc 1 151 12 view .LVU723
 1747 0030 67EE867A 		vmul.f32	s15, s15, s12
 145:DSP/FX/Reverb/revmodel.cpp **** // Recalculate internal values after parameter change
ARM GAS  /var/folders/wz/z09yph4n0qj4t7mjxhl6ttn80000gn/T//ccKA8ZwU.s 			page 49


 1748              		.loc 1 145 1 view .LVU724
 1749 0034 F8B5     		push	{r3, r4, r5, r6, r7, lr}
 1750              		.cfi_def_cfa_offset 24
 1751              		.cfi_offset 3, -24
 1752              		.cfi_offset 4, -20
 1753              		.cfi_offset 5, -16
 1754              		.cfi_offset 6, -12
 1755              		.cfi_offset 7, -8
 1756              		.cfi_offset 14, -4
 145:DSP/FX/Reverb/revmodel.cpp **** // Recalculate internal values after parameter change
 1757              		.loc 1 145 1 view .LVU725
 1758 0036 0446     		mov	r4, r0
 150:DSP/FX/Reverb/revmodel.cpp **** 	wet2 = wet*((1-width)/2);
 1759              		.loc 1 150 7 view .LVU726
 1760 0038 C0ED066A 		vstr.32	s13, [r0, #24]
 151:DSP/FX/Reverb/revmodel.cpp **** 
 1761              		.loc 1 151 2 is_stmt 1 view .LVU727
 151:DSP/FX/Reverb/revmodel.cpp **** 
 1762              		.loc 1 151 7 is_stmt 0 view .LVU728
 1763 003c C0ED077A 		vstr.32	s15, [r0, #28]
 153:DSP/FX/Reverb/revmodel.cpp **** 	{
 1764              		.loc 1 153 2 is_stmt 1 view .LVU729
 1765 0040 29DB     		blt	.L98
 155:DSP/FX/Reverb/revmodel.cpp **** 		damp1 = 0;
 1766              		.loc 1 155 3 view .LVU730
 1767 0042 B0EE650A 		vmov.f32	s0, s11
 156:DSP/FX/Reverb/revmodel.cpp **** 		gain = muted;
 1768              		.loc 1 156 9 is_stmt 0 view .LVU731
 1769 0046 0023     		movs	r3, #0
 155:DSP/FX/Reverb/revmodel.cpp **** 		damp1 = 0;
 1770              		.loc 1 155 13 view .LVU732
 1771 0048 C0ED025A 		vstr.32	s11, [r0, #8]
 156:DSP/FX/Reverb/revmodel.cpp **** 		gain = muted;
 1772              		.loc 1 156 3 is_stmt 1 view .LVU733
 156:DSP/FX/Reverb/revmodel.cpp **** 		gain = muted;
 1773              		.loc 1 156 9 is_stmt 0 view .LVU734
 1774 004c 0361     		str	r3, [r0, #16]	@ float
 157:DSP/FX/Reverb/revmodel.cpp **** 	}
 1775              		.loc 1 157 3 is_stmt 1 view .LVU735
 157:DSP/FX/Reverb/revmodel.cpp **** 	}
 1776              		.loc 1 157 8 is_stmt 0 view .LVU736
 1777 004e 0360     		str	r3, [r0]	@ float
 1778              	.L92:
 1779 0050 04F12C05 		add	r5, r4, #44
 1780 0054 04F58677 		add	r7, r4, #268
 1781 0058 2E46     		mov	r6, r5
 1782 005a 01E0     		b	.L94
 1783              	.LVL144:
 1784              	.L100:
 168:DSP/FX/Reverb/revmodel.cpp **** 		combR[i].setfeedback(roomsize1);
 1785              		.loc 1 168 23 view .LVU737
 1786 005c 94ED020A 		vldr.32	s0, [r4, #8]
 1787              	.L94:
 168:DSP/FX/Reverb/revmodel.cpp **** 		combR[i].setfeedback(roomsize1);
 1788              		.loc 1 168 3 is_stmt 1 discriminator 2 view .LVU738
 168:DSP/FX/Reverb/revmodel.cpp **** 		combR[i].setfeedback(roomsize1);
 1789              		.loc 1 168 23 is_stmt 0 discriminator 2 view .LVU739
ARM GAS  /var/folders/wz/z09yph4n0qj4t7mjxhl6ttn80000gn/T//ccKA8ZwU.s 			page 50


 1790 0060 3046     		mov	r0, r6
 1791 0062 FFF7FEFF 		bl	_ZN4comb11setfeedbackEf
 1792              	.LVL145:
 169:DSP/FX/Reverb/revmodel.cpp **** 	}
 1793              		.loc 1 169 3 is_stmt 1 discriminator 2 view .LVU740
 169:DSP/FX/Reverb/revmodel.cpp **** 	}
 1794              		.loc 1 169 23 is_stmt 0 discriminator 2 view .LVU741
 1795 0066 06F1E000 		add	r0, r6, #224
 166:DSP/FX/Reverb/revmodel.cpp **** 	{
 1796              		.loc 1 166 12 discriminator 2 view .LVU742
 1797 006a 1C36     		adds	r6, r6, #28
 169:DSP/FX/Reverb/revmodel.cpp **** 	}
 1798              		.loc 1 169 23 discriminator 2 view .LVU743
 1799 006c 94ED020A 		vldr.32	s0, [r4, #8]
 1800 0070 FFF7FEFF 		bl	_ZN4comb11setfeedbackEf
 1801              	.LVL146:
 166:DSP/FX/Reverb/revmodel.cpp **** 	{
 1802              		.loc 1 166 2 is_stmt 1 discriminator 2 view .LVU744
 166:DSP/FX/Reverb/revmodel.cpp **** 	{
 1803              		.loc 1 166 12 discriminator 2 view .LVU745
 1804 0074 B742     		cmp	r7, r6
 1805 0076 F1D1     		bne	.L100
 1806              	.L93:
 174:DSP/FX/Reverb/revmodel.cpp **** 		combR[i].setdamp(damp1);
 1807              		.loc 1 174 3 discriminator 2 view .LVU746
 174:DSP/FX/Reverb/revmodel.cpp **** 		combR[i].setdamp(damp1);
 1808              		.loc 1 174 19 is_stmt 0 discriminator 2 view .LVU747
 1809 0078 2846     		mov	r0, r5
 1810 007a 94ED040A 		vldr.32	s0, [r4, #16]
 1811 007e FFF7FEFF 		bl	_ZN4comb7setdampEf
 1812              	.LVL147:
 175:DSP/FX/Reverb/revmodel.cpp **** 	}
 1813              		.loc 1 175 3 is_stmt 1 discriminator 2 view .LVU748
 175:DSP/FX/Reverb/revmodel.cpp **** 	}
 1814              		.loc 1 175 19 is_stmt 0 discriminator 2 view .LVU749
 1815 0082 05F1E000 		add	r0, r5, #224
 172:DSP/FX/Reverb/revmodel.cpp **** 	{
 1816              		.loc 1 172 12 discriminator 2 view .LVU750
 1817 0086 1C35     		adds	r5, r5, #28
 175:DSP/FX/Reverb/revmodel.cpp **** 	}
 1818              		.loc 1 175 19 discriminator 2 view .LVU751
 1819 0088 94ED040A 		vldr.32	s0, [r4, #16]
 1820 008c FFF7FEFF 		bl	_ZN4comb7setdampEf
 1821              	.LVL148:
 172:DSP/FX/Reverb/revmodel.cpp **** 	{
 1822              		.loc 1 172 2 is_stmt 1 discriminator 2 view .LVU752
 172:DSP/FX/Reverb/revmodel.cpp **** 	{
 1823              		.loc 1 172 12 discriminator 2 view .LVU753
 1824 0090 BD42     		cmp	r5, r7
 1825 0092 F1D1     		bne	.L93
 177:DSP/FX/Reverb/revmodel.cpp **** 
 1826              		.loc 1 177 1 is_stmt 0 view .LVU754
 1827 0094 F8BD     		pop	{r3, r4, r5, r6, r7, pc}
 1828              	.LVL149:
 1829              	.L98:
 161:DSP/FX/Reverb/revmodel.cpp **** 		damp1 = damp;
 1830              		.loc 1 161 3 is_stmt 1 view .LVU755
ARM GAS  /var/folders/wz/z09yph4n0qj4t7mjxhl6ttn80000gn/T//ccKA8ZwU.s 			page 51


 161:DSP/FX/Reverb/revmodel.cpp **** 		damp1 = damp;
 1831              		.loc 1 161 15 is_stmt 0 view .LVU756
 1832 0096 90ED010A 		vldr.32	s0, [r0, #4]
 162:DSP/FX/Reverb/revmodel.cpp **** 		gain = fixedgain;
 1833              		.loc 1 162 9 view .LVU757
 1834 009a C268     		ldr	r2, [r0, #12]	@ float
 163:DSP/FX/Reverb/revmodel.cpp **** 	}
 1835              		.loc 1 163 8 view .LVU758
 1836 009c 024B     		ldr	r3, .L101
 161:DSP/FX/Reverb/revmodel.cpp **** 		damp1 = damp;
 1837              		.loc 1 161 13 view .LVU759
 1838 009e 80ED020A 		vstr.32	s0, [r0, #8]
 162:DSP/FX/Reverb/revmodel.cpp **** 		gain = fixedgain;
 1839              		.loc 1 162 3 is_stmt 1 view .LVU760
 162:DSP/FX/Reverb/revmodel.cpp **** 		gain = fixedgain;
 1840              		.loc 1 162 9 is_stmt 0 view .LVU761
 1841 00a2 0261     		str	r2, [r0, #16]	@ float
 163:DSP/FX/Reverb/revmodel.cpp **** 	}
 1842              		.loc 1 163 3 is_stmt 1 view .LVU762
 163:DSP/FX/Reverb/revmodel.cpp **** 	}
 1843              		.loc 1 163 8 is_stmt 0 view .LVU763
 1844 00a4 0360     		str	r3, [r0]	@ float
 1845 00a6 D3E7     		b	.L92
 1846              	.L102:
 1847              		.align	2
 1848              	.L101:
 1849 00a8 8FC2753C 		.word	1014350479
 1850              		.cfi_endproc
 1851              	.LFE552:
 1853              		.section	.text._ZN8revmodelC2Ev,"ax",%progbits
 1854              		.align	1
 1855              		.p2align 2,,3
 1856              		.global	_ZN8revmodelC2Ev
 1857              		.syntax unified
 1858              		.thumb
 1859              		.thumb_func
 1861              	_ZN8revmodelC2Ev:
 1862              	.LVL150:
 1863              	.LFB547:
   9:DSP/FX/Reverb/revmodel.cpp **** {
 1864              		.loc 1 9 1 is_stmt 1 view -0
 1865              		.cfi_startproc
 1866              		@ args = 0, pretend = 0, frame = 8
 1867              		@ frame_needed = 0, uses_anonymous_args = 0
 1868              	.LBB168:
   9:DSP/FX/Reverb/revmodel.cpp **** {
 1869              		.loc 1 9 20 is_stmt 0 view .LVU765
 1870 0000 00F12C03 		add	r3, r0, #44
 1871              	.LBE168:
   9:DSP/FX/Reverb/revmodel.cpp **** {
 1872              		.loc 1 9 1 view .LVU766
 1873 0004 2DE9F04F 		push	{r4, r5, r6, r7, r8, r9, r10, fp, lr}
 1874              		.cfi_def_cfa_offset 36
 1875              		.cfi_offset 4, -36
 1876              		.cfi_offset 5, -32
 1877              		.cfi_offset 6, -28
 1878              		.cfi_offset 7, -24
ARM GAS  /var/folders/wz/z09yph4n0qj4t7mjxhl6ttn80000gn/T//ccKA8ZwU.s 			page 52


 1879              		.cfi_offset 8, -20
 1880              		.cfi_offset 9, -16
 1881              		.cfi_offset 10, -12
 1882              		.cfi_offset 11, -8
 1883              		.cfi_offset 14, -4
 1884 0008 0446     		mov	r4, r0
 1885              	.LBB211:
   9:DSP/FX/Reverb/revmodel.cpp **** {
 1886              		.loc 1 9 20 view .LVU767
 1887 000a 1F46     		mov	r7, r3
 1888 000c 00F58675 		add	r5, r0, #268
 1889 0010 1E46     		mov	r6, r3
 1890              	.LBE211:
   9:DSP/FX/Reverb/revmodel.cpp **** {
 1891              		.loc 1 9 1 view .LVU768
 1892 0012 2DED068B 		vpush.64	{d8, d9, d10}
 1893              		.cfi_def_cfa_offset 60
 1894              		.cfi_offset 80, -60
 1895              		.cfi_offset 81, -56
 1896              		.cfi_offset 82, -52
 1897              		.cfi_offset 83, -48
 1898              		.cfi_offset 84, -44
 1899              		.cfi_offset 85, -40
 1900 0016 83B0     		sub	sp, sp, #12
 1901              		.cfi_def_cfa_offset 72
 1902              	.LBB212:
   9:DSP/FX/Reverb/revmodel.cpp **** {
 1903              		.loc 1 9 20 view .LVU769
 1904 0018 0093     		str	r3, [sp]
   9:DSP/FX/Reverb/revmodel.cpp **** {
 1905              		.loc 1 9 20 is_stmt 1 view .LVU770
 1906              	.LVL151:
 1907              	.L104:
   9:DSP/FX/Reverb/revmodel.cpp **** {
 1908              		.loc 1 9 20 is_stmt 0 discriminator 3 view .LVU771
 1909 001a 3846     		mov	r0, r7
 1910 001c 1C37     		adds	r7, r7, #28
 1911 001e FFF7FEFF 		bl	_ZN4combC1Ev
 1912              	.LVL152:
   9:DSP/FX/Reverb/revmodel.cpp **** {
 1913              		.loc 1 9 20 is_stmt 1 discriminator 3 view .LVU772
   9:DSP/FX/Reverb/revmodel.cpp **** {
 1914              		.loc 1 9 20 discriminator 3 view .LVU773
 1915 0022 AF42     		cmp	r7, r5
 1916 0024 F9D1     		bne	.L104
   9:DSP/FX/Reverb/revmodel.cpp **** {
 1917              		.loc 1 9 20 discriminator 2 view .LVU774
 1918 0026 2F46     		mov	r7, r5
 1919 0028 04F5F678 		add	r8, r4, #492
 1920              	.L105:
   9:DSP/FX/Reverb/revmodel.cpp **** {
 1921              		.loc 1 9 20 is_stmt 0 discriminator 7 view .LVU775
 1922 002c 3846     		mov	r0, r7
 1923 002e 1C37     		adds	r7, r7, #28
 1924 0030 FFF7FEFF 		bl	_ZN4combC1Ev
 1925              	.LVL153:
   9:DSP/FX/Reverb/revmodel.cpp **** {
ARM GAS  /var/folders/wz/z09yph4n0qj4t7mjxhl6ttn80000gn/T//ccKA8ZwU.s 			page 53


 1926              		.loc 1 9 20 is_stmt 1 discriminator 7 view .LVU776
   9:DSP/FX/Reverb/revmodel.cpp **** {
 1927              		.loc 1 9 20 discriminator 7 view .LVU777
 1928 0034 4745     		cmp	r7, r8
 1929 0036 F9D1     		bne	.L105
   9:DSP/FX/Reverb/revmodel.cpp **** {
 1930              		.loc 1 9 20 discriminator 6 view .LVU778
 1931 0038 4746     		mov	r7, r8
 1932 003a 04F50B79 		add	r9, r4, #556
 1933 003e C246     		mov	r10, r8
 1934              	.L106:
   9:DSP/FX/Reverb/revmodel.cpp **** {
 1935              		.loc 1 9 20 is_stmt 0 discriminator 11 view .LVU779
 1936 0040 5046     		mov	r0, r10
 1937 0042 0AF1100A 		add	r10, r10, #16
 1938 0046 FFF7FEFF 		bl	_ZN7allpassC1Ev
 1939              	.LVL154:
   9:DSP/FX/Reverb/revmodel.cpp **** {
 1940              		.loc 1 9 20 is_stmt 1 discriminator 11 view .LVU780
   9:DSP/FX/Reverb/revmodel.cpp **** {
 1941              		.loc 1 9 20 discriminator 11 view .LVU781
 1942 004a D145     		cmp	r9, r10
 1943 004c F8D1     		bne	.L106
   9:DSP/FX/Reverb/revmodel.cpp **** {
 1944              		.loc 1 9 20 discriminator 10 view .LVU782
 1945 004e CB46     		mov	fp, r9
 1946 0050 04F51B7A 		add	r10, r4, #620
 1947              	.L107:
   9:DSP/FX/Reverb/revmodel.cpp **** {
 1948              		.loc 1 9 20 is_stmt 0 discriminator 15 view .LVU783
 1949 0054 5846     		mov	r0, fp
 1950 0056 0BF1100B 		add	fp, fp, #16
 1951 005a FFF7FEFF 		bl	_ZN7allpassC1Ev
 1952              	.LVL155:
   9:DSP/FX/Reverb/revmodel.cpp **** {
 1953              		.loc 1 9 20 is_stmt 1 discriminator 15 view .LVU784
   9:DSP/FX/Reverb/revmodel.cpp **** {
 1954              		.loc 1 9 20 discriminator 15 view .LVU785
 1955 005e DA45     		cmp	r10, fp
 1956 0060 F8D1     		bne	.L107
  12:DSP/FX/Reverb/revmodel.cpp **** 	combR[0].setbuffer(bufcombR1,combtuningR1);
 1957              		.loc 1 12 2 discriminator 14 view .LVU786
  12:DSP/FX/Reverb/revmodel.cpp **** 	combR[0].setbuffer(bufcombR1,combtuningR1);
 1958              		.loc 1 12 20 is_stmt 0 discriminator 14 view .LVU787
 1959 0062 5146     		mov	r1, r10
 1960 0064 40F25C42 		movw	r2, #1116
 1961 0068 0098     		ldr	r0, [sp]
  34:DSP/FX/Reverb/revmodel.cpp **** 	allpassR[3].setbuffer(bufallpassR4,allpasstuningR4);
 1962              		.loc 1 34 23 discriminator 14 view .LVU788
 1963 006a 04F5077B 		add	fp, r4, #540
  12:DSP/FX/Reverb/revmodel.cpp **** 	combR[0].setbuffer(bufcombR1,combtuningR1);
 1964              		.loc 1 12 20 discriminator 14 view .LVU789
 1965 006e FFF7FEFF 		bl	_ZN4comb9setbufferEPfi
 1966              	.LVL156:
  13:DSP/FX/Reverb/revmodel.cpp **** 	combL[1].setbuffer(bufcombL2,combtuningL2);
 1967              		.loc 1 13 2 is_stmt 1 discriminator 14 view .LVU790
  13:DSP/FX/Reverb/revmodel.cpp **** 	combL[1].setbuffer(bufcombL2,combtuningL2);
ARM GAS  /var/folders/wz/z09yph4n0qj4t7mjxhl6ttn80000gn/T//ccKA8ZwU.s 			page 54


 1968              		.loc 1 13 20 is_stmt 0 discriminator 14 view .LVU791
 1969 0072 41F2DC31 		movw	r1, #5084
 1970 0076 40F27342 		movw	r2, #1139
 1971 007a 2846     		mov	r0, r5
 1972 007c 2144     		add	r1, r1, r4
  35:DSP/FX/Reverb/revmodel.cpp **** 
 1973              		.loc 1 35 23 discriminator 14 view .LVU792
 1974 007e 04F5177A 		add	r10, r4, #604
  13:DSP/FX/Reverb/revmodel.cpp **** 	combL[1].setbuffer(bufcombL2,combtuningL2);
 1975              		.loc 1 13 20 discriminator 14 view .LVU793
 1976 0082 FFF7FEFF 		bl	_ZN4comb9setbufferEPfi
 1977              	.LVL157:
  14:DSP/FX/Reverb/revmodel.cpp **** 	combR[1].setbuffer(bufcombR2,combtuningR2);
 1978              		.loc 1 14 2 is_stmt 1 discriminator 14 view .LVU794
  14:DSP/FX/Reverb/revmodel.cpp **** 	combR[1].setbuffer(bufcombR2,combtuningR2);
 1979              		.loc 1 14 20 is_stmt 0 discriminator 14 view .LVU795
 1980 0086 42F2A851 		movw	r1, #9640
 1981 008a 40F2A442 		movw	r2, #1188
 1982 008e 04F14800 		add	r0, r4, #72
 1983 0092 2144     		add	r1, r1, r4
 1984              	.LBB169:
 1985              	.LBB170:
 208:DSP/FX/Reverb/revmodel.cpp **** 	update();
 1986              		.loc 1 208 6 discriminator 14 view .LVU796
 1987 0094 F7EE008A 		vmov.f32	s17, #1.0e+0
 1988              	.LBE170:
 1989              	.LBE169:
  14:DSP/FX/Reverb/revmodel.cpp **** 	combR[1].setbuffer(bufcombR2,combtuningR2);
 1990              		.loc 1 14 20 discriminator 14 view .LVU797
 1991 0098 FFF7FEFF 		bl	_ZN4comb9setbufferEPfi
 1992              	.LVL158:
  15:DSP/FX/Reverb/revmodel.cpp **** 	combL[2].setbuffer(bufcombL3,combtuningL3);
 1993              		.loc 1 15 2 is_stmt 1 discriminator 14 view .LVU798
  15:DSP/FX/Reverb/revmodel.cpp **** 	combL[2].setbuffer(bufcombL3,combtuningL3);
 1994              		.loc 1 15 20 is_stmt 0 discriminator 14 view .LVU799
 1995 009c 43F63801 		movw	r1, #14392
 1996 00a0 40F2BB42 		movw	r2, #1211
 1997 00a4 04F59470 		add	r0, r4, #296
 1998 00a8 2144     		add	r1, r1, r4
 1999              	.LBB172:
 2000              	.LBB173:
 219:DSP/FX/Reverb/revmodel.cpp **** }
 2001              		.loc 1 219 6 discriminator 14 view .LVU800
 2002 00aa 9FEDD08A 		vldr.32	s16, .L134
 2003              	.LBE173:
 2004              	.LBE172:
  15:DSP/FX/Reverb/revmodel.cpp **** 	combL[2].setbuffer(bufcombL3,combtuningL3);
 2005              		.loc 1 15 20 discriminator 14 view .LVU801
 2006 00ae FFF7FEFF 		bl	_ZN4comb9setbufferEPfi
 2007              	.LVL159:
  16:DSP/FX/Reverb/revmodel.cpp **** 	combR[2].setbuffer(bufcombR3,combtuningR3);
 2008              		.loc 1 16 2 is_stmt 1 discriminator 14 view .LVU802
  16:DSP/FX/Reverb/revmodel.cpp **** 	combR[2].setbuffer(bufcombR3,combtuningR3);
 2009              		.loc 1 16 20 is_stmt 0 discriminator 14 view .LVU803
 2010 00b2 44F62431 		movw	r1, #19236
 2011 00b6 40F2FD42 		movw	r2, #1277
 2012 00ba 04F16400 		add	r0, r4, #100
ARM GAS  /var/folders/wz/z09yph4n0qj4t7mjxhl6ttn80000gn/T//ccKA8ZwU.s 			page 55


 2013 00be 2144     		add	r1, r1, r4
 2014 00c0 FFF7FEFF 		bl	_ZN4comb9setbufferEPfi
 2015              	.LVL160:
  17:DSP/FX/Reverb/revmodel.cpp **** 	combL[3].setbuffer(bufcombL4,combtuningL4);
 2016              		.loc 1 17 2 is_stmt 1 discriminator 14 view .LVU804
  17:DSP/FX/Reverb/revmodel.cpp **** 	combL[3].setbuffer(bufcombL4,combtuningL4);
 2017              		.loc 1 17 20 is_stmt 0 discriminator 14 view .LVU805
 2018 00c4 45F61871 		movw	r1, #24344
 2019 00c8 40F21452 		movw	r2, #1300
 2020 00cc 04F5A270 		add	r0, r4, #324
 2021 00d0 2144     		add	r1, r1, r4
 2022 00d2 FFF7FEFF 		bl	_ZN4comb9setbufferEPfi
 2023              	.LVL161:
  18:DSP/FX/Reverb/revmodel.cpp **** 	combR[3].setbuffer(bufcombR4,combtuningR4);
 2024              		.loc 1 18 2 is_stmt 1 discriminator 14 view .LVU806
  18:DSP/FX/Reverb/revmodel.cpp **** 	combR[3].setbuffer(bufcombR4,combtuningR4);
 2025              		.loc 1 18 20 is_stmt 0 discriminator 14 view .LVU807
 2026 00d6 47F26831 		movw	r1, #29544
 2027 00da 40F24C52 		movw	r2, #1356
 2028 00de 04F18000 		add	r0, r4, #128
 2029 00e2 2144     		add	r1, r1, r4
 2030 00e4 FFF7FEFF 		bl	_ZN4comb9setbufferEPfi
 2031              	.LVL162:
  19:DSP/FX/Reverb/revmodel.cpp **** 	combL[4].setbuffer(bufcombL5,combtuningL5);
 2032              		.loc 1 19 2 is_stmt 1 discriminator 14 view .LVU808
  19:DSP/FX/Reverb/revmodel.cpp **** 	combL[4].setbuffer(bufcombL5,combtuningL5);
 2033              		.loc 1 19 20 is_stmt 0 discriminator 14 view .LVU809
 2034 00e8 48F69801 		movw	r1, #34968
 2035 00ec 40F26352 		movw	r2, #1379
 2036 00f0 04F5B070 		add	r0, r4, #352
 2037 00f4 2144     		add	r1, r1, r4
 2038 00f6 FFF7FEFF 		bl	_ZN4comb9setbufferEPfi
 2039              	.LVL163:
  20:DSP/FX/Reverb/revmodel.cpp **** 	combR[4].setbuffer(bufcombR5,combtuningR5);
 2040              		.loc 1 20 2 is_stmt 1 discriminator 14 view .LVU810
  20:DSP/FX/Reverb/revmodel.cpp **** 	combR[4].setbuffer(bufcombR5,combtuningR5);
 2041              		.loc 1 20 20 is_stmt 0 discriminator 14 view .LVU811
 2042 00fa 49F62461 		movw	r1, #40484
 2043 00fe 40F28E52 		movw	r2, #1422
 2044 0102 04F19C00 		add	r0, r4, #156
 2045 0106 2144     		add	r1, r1, r4
 2046 0108 FFF7FEFF 		bl	_ZN4comb9setbufferEPfi
 2047              	.LVL164:
  21:DSP/FX/Reverb/revmodel.cpp **** 	combL[5].setbuffer(bufcombL6,combtuningL6);
 2048              		.loc 1 21 2 is_stmt 1 discriminator 14 view .LVU812
  21:DSP/FX/Reverb/revmodel.cpp **** 	combL[5].setbuffer(bufcombL6,combtuningL6);
 2049              		.loc 1 21 20 is_stmt 0 discriminator 14 view .LVU813
 2050 010c 4BF25C41 		movw	r1, #46172
 2051 0110 40F2A552 		movw	r2, #1445
 2052 0114 04F5BE70 		add	r0, r4, #380
 2053 0118 2144     		add	r1, r1, r4
 2054 011a FFF7FEFF 		bl	_ZN4comb9setbufferEPfi
 2055              	.LVL165:
  22:DSP/FX/Reverb/revmodel.cpp **** 	combR[5].setbuffer(bufcombR6,combtuningR6);
 2056              		.loc 1 22 2 is_stmt 1 discriminator 14 view .LVU814
  22:DSP/FX/Reverb/revmodel.cpp **** 	combR[5].setbuffer(bufcombR6,combtuningR6);
 2057              		.loc 1 22 20 is_stmt 0 discriminator 14 view .LVU815
ARM GAS  /var/folders/wz/z09yph4n0qj4t7mjxhl6ttn80000gn/T//ccKA8ZwU.s 			page 56


 2058 011e 4CF6F021 		movw	r1, #51952
 2059 0122 40F2D352 		movw	r2, #1491
 2060 0126 04F1B800 		add	r0, r4, #184
 2061 012a 2144     		add	r1, r1, r4
 2062 012c FFF7FEFF 		bl	_ZN4comb9setbufferEPfi
 2063              	.LVL166:
  23:DSP/FX/Reverb/revmodel.cpp **** 	combL[6].setbuffer(bufcombL7,combtuningL7);
 2064              		.loc 1 23 2 is_stmt 1 discriminator 14 view .LVU816
  23:DSP/FX/Reverb/revmodel.cpp **** 	combL[6].setbuffer(bufcombL7,combtuningL7);
 2065              		.loc 1 23 20 is_stmt 0 discriminator 14 view .LVU817
 2066 0130 4EF23C21 		movw	r1, #57916
 2067 0134 40F2EA52 		movw	r2, #1514
 2068 0138 04F5CC70 		add	r0, r4, #408
 2069 013c 2144     		add	r1, r1, r4
 2070 013e FFF7FEFF 		bl	_ZN4comb9setbufferEPfi
 2071              	.LVL167:
  24:DSP/FX/Reverb/revmodel.cpp **** 	combR[6].setbuffer(bufcombR7,combtuningR7);
 2072              		.loc 1 24 2 is_stmt 1 discriminator 14 view .LVU818
  24:DSP/FX/Reverb/revmodel.cpp **** 	combR[6].setbuffer(bufcombR7,combtuningR7);
 2073              		.loc 1 24 20 is_stmt 0 discriminator 14 view .LVU819
 2074 0142 4FF6E411 		movw	r1, #63972
 2075 0146 40F21562 		movw	r2, #1557
 2076 014a 04F1D400 		add	r0, r4, #212
 2077 014e 2144     		add	r1, r1, r4
 2078 0150 FFF7FEFF 		bl	_ZN4comb9setbufferEPfi
 2079              	.LVL168:
  25:DSP/FX/Reverb/revmodel.cpp **** 	combL[7].setbuffer(bufcombL8,combtuningL8);
 2080              		.loc 1 25 2 is_stmt 1 discriminator 14 view .LVU820
  25:DSP/FX/Reverb/revmodel.cpp **** 	combL[7].setbuffer(bufcombL8,combtuningL8);
 2081              		.loc 1 25 20 is_stmt 0 discriminator 14 view .LVU821
 2082 0154 A649     		ldr	r1, .L134+4
 2083 0156 40F22C62 		movw	r2, #1580
 2084 015a 04F5DA70 		add	r0, r4, #436
 2085 015e 2144     		add	r1, r1, r4
 2086 0160 FFF7FEFF 		bl	_ZN4comb9setbufferEPfi
 2087              	.LVL169:
  26:DSP/FX/Reverb/revmodel.cpp **** 	combR[7].setbuffer(bufcombR8,combtuningR8);
 2088              		.loc 1 26 2 is_stmt 1 discriminator 14 view .LVU822
  26:DSP/FX/Reverb/revmodel.cpp **** 	combR[7].setbuffer(bufcombR8,combtuningR8);
 2089              		.loc 1 26 20 is_stmt 0 discriminator 14 view .LVU823
 2090 0164 A349     		ldr	r1, .L134+8
 2091 0166 40F25162 		movw	r2, #1617
 2092 016a 04F1F000 		add	r0, r4, #240
 2093 016e 2144     		add	r1, r1, r4
 2094 0170 FFF7FEFF 		bl	_ZN4comb9setbufferEPfi
 2095              	.LVL170:
  27:DSP/FX/Reverb/revmodel.cpp **** 	allpassL[0].setbuffer(bufallpassL1,allpasstuningL1);
 2096              		.loc 1 27 2 is_stmt 1 discriminator 14 view .LVU824
  27:DSP/FX/Reverb/revmodel.cpp **** 	allpassL[0].setbuffer(bufallpassL1,allpasstuningL1);
 2097              		.loc 1 27 20 is_stmt 0 discriminator 14 view .LVU825
 2098 0174 A049     		ldr	r1, .L134+12
 2099 0176 4FF4CD62 		mov	r2, #1640
 2100 017a 04F5E870 		add	r0, r4, #464
 2101 017e 2144     		add	r1, r1, r4
 2102 0180 FFF7FEFF 		bl	_ZN4comb9setbufferEPfi
 2103              	.LVL171:
  28:DSP/FX/Reverb/revmodel.cpp **** 	allpassR[0].setbuffer(bufallpassR1,allpasstuningR1);
ARM GAS  /var/folders/wz/z09yph4n0qj4t7mjxhl6ttn80000gn/T//ccKA8ZwU.s 			page 57


 2104              		.loc 1 28 2 is_stmt 1 discriminator 14 view .LVU826
  28:DSP/FX/Reverb/revmodel.cpp **** 	allpassR[0].setbuffer(bufallpassR1,allpasstuningR1);
 2105              		.loc 1 28 23 is_stmt 0 discriminator 14 view .LVU827
 2106 0184 9D49     		ldr	r1, .L134+16
 2107 0186 4FF40B72 		mov	r2, #556
 2108 018a 4046     		mov	r0, r8
 2109 018c 2144     		add	r1, r1, r4
 2110 018e FFF7FEFF 		bl	_ZN7allpass9setbufferEPfi
 2111              	.LVL172:
  29:DSP/FX/Reverb/revmodel.cpp **** 	allpassL[1].setbuffer(bufallpassL2,allpasstuningL2);
 2112              		.loc 1 29 2 is_stmt 1 discriminator 14 view .LVU828
  29:DSP/FX/Reverb/revmodel.cpp **** 	allpassL[1].setbuffer(bufallpassL2,allpasstuningL2);
 2113              		.loc 1 29 23 is_stmt 0 discriminator 14 view .LVU829
 2114 0192 9B49     		ldr	r1, .L134+20
 2115 0194 40F24322 		movw	r2, #579
 2116 0198 4846     		mov	r0, r9
 2117 019a 2144     		add	r1, r1, r4
 2118 019c FFF7FEFF 		bl	_ZN7allpass9setbufferEPfi
 2119              	.LVL173:
  30:DSP/FX/Reverb/revmodel.cpp **** 	allpassR[1].setbuffer(bufallpassR2,allpasstuningR2);
 2120              		.loc 1 30 2 is_stmt 1 discriminator 14 view .LVU830
  30:DSP/FX/Reverb/revmodel.cpp **** 	allpassR[1].setbuffer(bufallpassR2,allpasstuningR2);
 2121              		.loc 1 30 23 is_stmt 0 discriminator 14 view .LVU831
 2122 01a0 04F5FE73 		add	r3, r4, #508
 2123 01a4 9749     		ldr	r1, .L134+24
 2124 01a6 40F2B912 		movw	r2, #441
 2125 01aa 1846     		mov	r0, r3
 2126 01ac 0AEE103A 		vmov	s20, r3	@ int
 2127 01b0 2144     		add	r1, r1, r4
 2128 01b2 FFF7FEFF 		bl	_ZN7allpass9setbufferEPfi
 2129              	.LVL174:
  31:DSP/FX/Reverb/revmodel.cpp **** 	allpassL[2].setbuffer(bufallpassL3,allpasstuningL3);
 2130              		.loc 1 31 2 is_stmt 1 discriminator 14 view .LVU832
  31:DSP/FX/Reverb/revmodel.cpp **** 	allpassL[2].setbuffer(bufallpassL3,allpasstuningL3);
 2131              		.loc 1 31 23 is_stmt 0 discriminator 14 view .LVU833
 2132 01b6 04F50F73 		add	r3, r4, #572
 2133 01ba 9349     		ldr	r1, .L134+28
 2134 01bc 4FF4E872 		mov	r2, #464
 2135 01c0 1846     		mov	r0, r3
 2136 01c2 09EE903A 		vmov	s19, r3	@ int
 2137 01c6 2144     		add	r1, r1, r4
 2138 01c8 FFF7FEFF 		bl	_ZN7allpass9setbufferEPfi
 2139              	.LVL175:
  32:DSP/FX/Reverb/revmodel.cpp **** 	allpassR[2].setbuffer(bufallpassR3,allpasstuningR3);
 2140              		.loc 1 32 2 is_stmt 1 discriminator 14 view .LVU834
  32:DSP/FX/Reverb/revmodel.cpp **** 	allpassR[2].setbuffer(bufallpassR3,allpasstuningR3);
 2141              		.loc 1 32 23 is_stmt 0 discriminator 14 view .LVU835
 2142 01cc 04F50373 		add	r3, r4, #524
 2143 01d0 8E49     		ldr	r1, .L134+32
 2144 01d2 40F25512 		movw	r2, #341
 2145 01d6 1846     		mov	r0, r3
 2146 01d8 09EE103A 		vmov	s18, r3	@ int
 2147 01dc 2144     		add	r1, r1, r4
 2148 01de FFF7FEFF 		bl	_ZN7allpass9setbufferEPfi
 2149              	.LVL176:
  33:DSP/FX/Reverb/revmodel.cpp **** 	allpassL[3].setbuffer(bufallpassL4,allpasstuningL4);
 2150              		.loc 1 33 2 is_stmt 1 discriminator 14 view .LVU836
ARM GAS  /var/folders/wz/z09yph4n0qj4t7mjxhl6ttn80000gn/T//ccKA8ZwU.s 			page 58


  33:DSP/FX/Reverb/revmodel.cpp **** 	allpassL[3].setbuffer(bufallpassL4,allpasstuningL4);
 2151              		.loc 1 33 23 is_stmt 0 discriminator 14 view .LVU837
 2152 01e2 04F51373 		add	r3, r4, #588
 2153 01e6 8A49     		ldr	r1, .L134+36
 2154 01e8 4FF4B672 		mov	r2, #364
 2155 01ec 1846     		mov	r0, r3
 2156 01ee 0193     		str	r3, [sp, #4]
 2157 01f0 2144     		add	r1, r1, r4
 2158 01f2 FFF7FEFF 		bl	_ZN7allpass9setbufferEPfi
 2159              	.LVL177:
  34:DSP/FX/Reverb/revmodel.cpp **** 	allpassR[3].setbuffer(bufallpassR4,allpasstuningR4);
 2160              		.loc 1 34 2 is_stmt 1 discriminator 14 view .LVU838
  34:DSP/FX/Reverb/revmodel.cpp **** 	allpassR[3].setbuffer(bufallpassR4,allpasstuningR4);
 2161              		.loc 1 34 23 is_stmt 0 discriminator 14 view .LVU839
 2162 01f6 8749     		ldr	r1, .L134+40
 2163 01f8 E122     		movs	r2, #225
 2164 01fa 5846     		mov	r0, fp
 2165 01fc 2144     		add	r1, r1, r4
 2166 01fe FFF7FEFF 		bl	_ZN7allpass9setbufferEPfi
 2167              	.LVL178:
  35:DSP/FX/Reverb/revmodel.cpp **** 
 2168              		.loc 1 35 2 is_stmt 1 discriminator 14 view .LVU840
  35:DSP/FX/Reverb/revmodel.cpp **** 
 2169              		.loc 1 35 23 is_stmt 0 discriminator 14 view .LVU841
 2170 0202 8549     		ldr	r1, .L134+44
 2171 0204 F822     		movs	r2, #248
 2172 0206 5046     		mov	r0, r10
 2173 0208 2144     		add	r1, r1, r4
 2174 020a FFF7FEFF 		bl	_ZN7allpass9setbufferEPfi
 2175              	.LVL179:
  38:DSP/FX/Reverb/revmodel.cpp **** 	allpassR[0].setfeedback(0.5f);
 2176              		.loc 1 38 2 is_stmt 1 discriminator 14 view .LVU842
  38:DSP/FX/Reverb/revmodel.cpp **** 	allpassR[0].setfeedback(0.5f);
 2177              		.loc 1 38 25 is_stmt 0 discriminator 14 view .LVU843
 2178 020e B6EE000A 		vmov.f32	s0, #5.0e-1
 2179 0212 4046     		mov	r0, r8
 2180 0214 FFF7FEFF 		bl	_ZN7allpass11setfeedbackEf
 2181              	.LVL180:
  39:DSP/FX/Reverb/revmodel.cpp **** 	allpassL[1].setfeedback(0.5f);
 2182              		.loc 1 39 2 is_stmt 1 discriminator 14 view .LVU844
  39:DSP/FX/Reverb/revmodel.cpp **** 	allpassL[1].setfeedback(0.5f);
 2183              		.loc 1 39 25 is_stmt 0 discriminator 14 view .LVU845
 2184 0218 B6EE000A 		vmov.f32	s0, #5.0e-1
 2185 021c 4846     		mov	r0, r9
 2186 021e FFF7FEFF 		bl	_ZN7allpass11setfeedbackEf
 2187              	.LVL181:
  40:DSP/FX/Reverb/revmodel.cpp **** 	allpassR[1].setfeedback(0.5f);
 2188              		.loc 1 40 2 is_stmt 1 discriminator 14 view .LVU846
  40:DSP/FX/Reverb/revmodel.cpp **** 	allpassR[1].setfeedback(0.5f);
 2189              		.loc 1 40 25 is_stmt 0 discriminator 14 view .LVU847
 2190 0222 B6EE000A 		vmov.f32	s0, #5.0e-1
 2191 0226 1AEE100A 		vmov	r0, s20	@ int
 2192 022a FFF7FEFF 		bl	_ZN7allpass11setfeedbackEf
 2193              	.LVL182:
  41:DSP/FX/Reverb/revmodel.cpp **** 	allpassL[2].setfeedback(0.5f);
 2194              		.loc 1 41 2 is_stmt 1 discriminator 14 view .LVU848
  41:DSP/FX/Reverb/revmodel.cpp **** 	allpassL[2].setfeedback(0.5f);
ARM GAS  /var/folders/wz/z09yph4n0qj4t7mjxhl6ttn80000gn/T//ccKA8ZwU.s 			page 59


 2195              		.loc 1 41 25 is_stmt 0 discriminator 14 view .LVU849
 2196 022e B6EE000A 		vmov.f32	s0, #5.0e-1
 2197 0232 19EE900A 		vmov	r0, s19	@ int
 2198 0236 FFF7FEFF 		bl	_ZN7allpass11setfeedbackEf
 2199              	.LVL183:
  42:DSP/FX/Reverb/revmodel.cpp **** 	allpassR[2].setfeedback(0.5f);
 2200              		.loc 1 42 2 is_stmt 1 discriminator 14 view .LVU850
  42:DSP/FX/Reverb/revmodel.cpp **** 	allpassR[2].setfeedback(0.5f);
 2201              		.loc 1 42 25 is_stmt 0 discriminator 14 view .LVU851
 2202 023a B6EE000A 		vmov.f32	s0, #5.0e-1
 2203 023e 19EE100A 		vmov	r0, s18	@ int
 2204 0242 FFF7FEFF 		bl	_ZN7allpass11setfeedbackEf
 2205              	.LVL184:
  43:DSP/FX/Reverb/revmodel.cpp **** 	allpassL[3].setfeedback(0.5f);
 2206              		.loc 1 43 2 is_stmt 1 discriminator 14 view .LVU852
  43:DSP/FX/Reverb/revmodel.cpp **** 	allpassL[3].setfeedback(0.5f);
 2207              		.loc 1 43 25 is_stmt 0 discriminator 14 view .LVU853
 2208 0246 019B     		ldr	r3, [sp, #4]
 2209 0248 B6EE000A 		vmov.f32	s0, #5.0e-1
 2210 024c 1846     		mov	r0, r3
 2211 024e FFF7FEFF 		bl	_ZN7allpass11setfeedbackEf
 2212              	.LVL185:
  44:DSP/FX/Reverb/revmodel.cpp **** 	allpassR[3].setfeedback(0.5f);
 2213              		.loc 1 44 2 is_stmt 1 discriminator 14 view .LVU854
  44:DSP/FX/Reverb/revmodel.cpp **** 	allpassR[3].setfeedback(0.5f);
 2214              		.loc 1 44 25 is_stmt 0 discriminator 14 view .LVU855
 2215 0252 B6EE000A 		vmov.f32	s0, #5.0e-1
 2216 0256 5846     		mov	r0, fp
 2217 0258 FFF7FEFF 		bl	_ZN7allpass11setfeedbackEf
 2218              	.LVL186:
  45:DSP/FX/Reverb/revmodel.cpp **** 	setwet(initialwet);
 2219              		.loc 1 45 2 is_stmt 1 discriminator 14 view .LVU856
  45:DSP/FX/Reverb/revmodel.cpp **** 	setwet(initialwet);
 2220              		.loc 1 45 25 is_stmt 0 discriminator 14 view .LVU857
 2221 025c B6EE000A 		vmov.f32	s0, #5.0e-1
 2222 0260 5046     		mov	r0, r10
 2223 0262 FFF7FEFF 		bl	_ZN7allpass11setfeedbackEf
 2224              	.LVL187:
  46:DSP/FX/Reverb/revmodel.cpp **** 	setroomsize(initialroom);
 2225              		.loc 1 46 2 is_stmt 1 discriminator 14 view .LVU858
 2226              	.LBB176:
 2227              	.LBI169:
 206:DSP/FX/Reverb/revmodel.cpp **** {
 2228              		.loc 1 206 6 discriminator 14 view .LVU859
 2229              	.LBB171:
 208:DSP/FX/Reverb/revmodel.cpp **** 	update();
 2230              		.loc 1 208 2 discriminator 14 view .LVU860
 209:DSP/FX/Reverb/revmodel.cpp **** }
 2231              		.loc 1 209 8 is_stmt 0 discriminator 14 view .LVU861
 2232 0266 2046     		mov	r0, r4
 208:DSP/FX/Reverb/revmodel.cpp **** 	update();
 2233              		.loc 1 208 6 discriminator 14 view .LVU862
 2234 0268 C4ED058A 		vstr.32	s17, [r4, #20]
 209:DSP/FX/Reverb/revmodel.cpp **** }
 2235              		.loc 1 209 2 is_stmt 1 discriminator 14 view .LVU863
 209:DSP/FX/Reverb/revmodel.cpp **** }
 2236              		.loc 1 209 8 is_stmt 0 discriminator 14 view .LVU864
ARM GAS  /var/folders/wz/z09yph4n0qj4t7mjxhl6ttn80000gn/T//ccKA8ZwU.s 			page 60


 2237 026c FFF7FEFF 		bl	_ZN8revmodel6updateEv
 2238              	.LVL188:
 209:DSP/FX/Reverb/revmodel.cpp **** }
 2239              		.loc 1 209 8 discriminator 14 view .LVU865
 2240              	.LBE171:
 2241              	.LBE176:
  47:DSP/FX/Reverb/revmodel.cpp **** 	setdry(initialdry);
 2242              		.loc 1 47 2 is_stmt 1 discriminator 14 view .LVU866
 2243              	.LBB177:
 2244              	.LBI177:
 184:DSP/FX/Reverb/revmodel.cpp **** {
 2245              		.loc 1 184 6 discriminator 14 view .LVU867
 2246              	.LBB178:
 186:DSP/FX/Reverb/revmodel.cpp **** 	update();
 2247              		.loc 1 186 2 discriminator 14 view .LVU868
 186:DSP/FX/Reverb/revmodel.cpp **** 	update();
 2248              		.loc 1 186 11 is_stmt 0 discriminator 14 view .LVU869
 2249 0270 6A4B     		ldr	r3, .L134+48
 187:DSP/FX/Reverb/revmodel.cpp **** }
 2250              		.loc 1 187 8 discriminator 14 view .LVU870
 2251 0272 2046     		mov	r0, r4
 186:DSP/FX/Reverb/revmodel.cpp **** 	update();
 2252              		.loc 1 186 11 discriminator 14 view .LVU871
 2253 0274 6360     		str	r3, [r4, #4]	@ float
 187:DSP/FX/Reverb/revmodel.cpp **** }
 2254              		.loc 1 187 2 is_stmt 1 discriminator 14 view .LVU872
 187:DSP/FX/Reverb/revmodel.cpp **** }
 2255              		.loc 1 187 8 is_stmt 0 discriminator 14 view .LVU873
 2256 0276 FFF7FEFF 		bl	_ZN8revmodel6updateEv
 2257              	.LVL189:
 187:DSP/FX/Reverb/revmodel.cpp **** }
 2258              		.loc 1 187 8 discriminator 14 view .LVU874
 2259              	.LBE178:
 2260              	.LBE177:
  48:DSP/FX/Reverb/revmodel.cpp **** 	setdamp(initialdamp);
 2261              		.loc 1 48 2 is_stmt 1 discriminator 14 view .LVU875
 2262              	.LBB179:
 2263              	.LBI172:
 217:DSP/FX/Reverb/revmodel.cpp **** {
 2264              		.loc 1 217 6 discriminator 14 view .LVU876
 2265              	.LBB174:
 219:DSP/FX/Reverb/revmodel.cpp **** }
 2266              		.loc 1 219 2 discriminator 14 view .LVU877
 2267              	.LBE174:
 2268              	.LBE179:
 2269              	.LBB180:
 2270              	.LBB181:
 197:DSP/FX/Reverb/revmodel.cpp **** 	update();
 2271              		.loc 1 197 7 is_stmt 0 discriminator 14 view .LVU878
 2272 027a 694B     		ldr	r3, .L134+52
 198:DSP/FX/Reverb/revmodel.cpp **** }
 2273              		.loc 1 198 8 discriminator 14 view .LVU879
 2274 027c 2046     		mov	r0, r4
 2275              	.LBE181:
 2276              	.LBE180:
 2277              	.LBB183:
 2278              	.LBB175:
ARM GAS  /var/folders/wz/z09yph4n0qj4t7mjxhl6ttn80000gn/T//ccKA8ZwU.s 			page 61


 219:DSP/FX/Reverb/revmodel.cpp **** }
 2279              		.loc 1 219 6 discriminator 14 view .LVU880
 2280 027e 84ED088A 		vstr.32	s16, [r4, #32]
 2281              	.LVL190:
 219:DSP/FX/Reverb/revmodel.cpp **** }
 2282              		.loc 1 219 6 discriminator 14 view .LVU881
 2283              	.LBE175:
 2284              	.LBE183:
  49:DSP/FX/Reverb/revmodel.cpp **** 	setwidth(initialwidth);
 2285              		.loc 1 49 2 is_stmt 1 discriminator 14 view .LVU882
 2286              	.LBB184:
 2287              	.LBI180:
 195:DSP/FX/Reverb/revmodel.cpp **** {
 2288              		.loc 1 195 6 discriminator 14 view .LVU883
 2289              	.LBB182:
 197:DSP/FX/Reverb/revmodel.cpp **** 	update();
 2290              		.loc 1 197 2 discriminator 14 view .LVU884
 197:DSP/FX/Reverb/revmodel.cpp **** 	update();
 2291              		.loc 1 197 7 is_stmt 0 discriminator 14 view .LVU885
 2292 0282 E360     		str	r3, [r4, #12]	@ float
 198:DSP/FX/Reverb/revmodel.cpp **** }
 2293              		.loc 1 198 2 is_stmt 1 discriminator 14 view .LVU886
 198:DSP/FX/Reverb/revmodel.cpp **** }
 2294              		.loc 1 198 8 is_stmt 0 discriminator 14 view .LVU887
 2295 0284 FFF7FEFF 		bl	_ZN8revmodel6updateEv
 2296              	.LVL191:
 198:DSP/FX/Reverb/revmodel.cpp **** }
 2297              		.loc 1 198 8 discriminator 14 view .LVU888
 2298              	.LBE182:
 2299              	.LBE184:
  50:DSP/FX/Reverb/revmodel.cpp **** 	setmode(initialmode);
 2300              		.loc 1 50 2 is_stmt 1 discriminator 14 view .LVU889
 2301              	.LBB185:
 2302              	.LBI185:
 227:DSP/FX/Reverb/revmodel.cpp **** {
 2303              		.loc 1 227 6 discriminator 14 view .LVU890
 2304              	.LBB186:
 229:DSP/FX/Reverb/revmodel.cpp **** 	update();
 2305              		.loc 1 229 2 discriminator 14 view .LVU891
 2306              	.LBB187:
 2307              	.LBB188:
 153:DSP/FX/Reverb/revmodel.cpp **** 	{
 2308              		.loc 1 153 2 is_stmt 0 discriminator 14 view .LVU892
 2309 0288 B6EE007A 		vmov.f32	s14, #5.0e-1
 2310 028c D4ED0A6A 		vldr.32	s13, [r4, #40]
 150:DSP/FX/Reverb/revmodel.cpp **** 	wet2 = wet*((1-width)/2);
 2311              		.loc 1 150 9 discriminator 14 view .LVU893
 2312 0290 D4ED057A 		vldr.32	s15, [r4, #20]
 153:DSP/FX/Reverb/revmodel.cpp **** 	{
 2313              		.loc 1 153 2 discriminator 14 view .LVU894
 2314 0294 F4EEC76A 		vcmpe.f32	s13, s14
 2315              	.LBE188:
 2316              	.LBE187:
 229:DSP/FX/Reverb/revmodel.cpp **** 	update();
 2317              		.loc 1 229 8 discriminator 14 view .LVU895
 2318 0298 C4ED098A 		vstr.32	s17, [r4, #36]
 230:DSP/FX/Reverb/revmodel.cpp **** }
ARM GAS  /var/folders/wz/z09yph4n0qj4t7mjxhl6ttn80000gn/T//ccKA8ZwU.s 			page 62


 2319              		.loc 1 230 2 is_stmt 1 discriminator 14 view .LVU896
 2320              	.LVL192:
 2321              	.LBB191:
 2322              	.LBI187:
 144:DSP/FX/Reverb/revmodel.cpp **** {
 2323              		.loc 1 144 6 discriminator 14 view .LVU897
 2324              	.LBB189:
 148:DSP/FX/Reverb/revmodel.cpp **** 
 2325              		.loc 1 148 2 discriminator 14 view .LVU898
 150:DSP/FX/Reverb/revmodel.cpp **** 	wet2 = wet*((1-width)/2);
 2326              		.loc 1 150 2 discriminator 14 view .LVU899
 151:DSP/FX/Reverb/revmodel.cpp **** 
 2327              		.loc 1 151 12 is_stmt 0 discriminator 14 view .LVU900
 2328 029c 27EE886A 		vmul.f32	s12, s15, s16
 150:DSP/FX/Reverb/revmodel.cpp **** 	wet2 = wet*((1-width)/2);
 2329              		.loc 1 150 7 discriminator 14 view .LVU901
 2330 02a0 C4ED067A 		vstr.32	s15, [r4, #24]
 151:DSP/FX/Reverb/revmodel.cpp **** 
 2331              		.loc 1 151 2 is_stmt 1 discriminator 14 view .LVU902
 153:DSP/FX/Reverb/revmodel.cpp **** 	{
 2332              		.loc 1 153 2 is_stmt 0 discriminator 14 view .LVU903
 2333 02a4 F1EE10FA 		vmrs	APSR_nzcv, FPSCR
 151:DSP/FX/Reverb/revmodel.cpp **** 
 2334              		.loc 1 151 7 discriminator 14 view .LVU904
 2335 02a8 84ED076A 		vstr.32	s12, [r4, #28]
 153:DSP/FX/Reverb/revmodel.cpp **** 	{
 2336              		.loc 1 153 2 is_stmt 1 discriminator 14 view .LVU905
 2337 02ac C0F29480 		blt	.L130
 155:DSP/FX/Reverb/revmodel.cpp **** 		damp1 = 0;
 2338              		.loc 1 155 3 view .LVU906
 2339 02b0 B0EE680A 		vmov.f32	s0, s17
 155:DSP/FX/Reverb/revmodel.cpp **** 		damp1 = 0;
 2340              		.loc 1 155 13 is_stmt 0 view .LVU907
 2341 02b4 C4ED028A 		vstr.32	s17, [r4, #8]
 156:DSP/FX/Reverb/revmodel.cpp **** 		gain = muted;
 2342              		.loc 1 156 3 is_stmt 1 view .LVU908
 156:DSP/FX/Reverb/revmodel.cpp **** 		gain = muted;
 2343              		.loc 1 156 9 is_stmt 0 view .LVU909
 2344 02b8 84ED048A 		vstr.32	s16, [r4, #16]
 157:DSP/FX/Reverb/revmodel.cpp **** 	}
 2345              		.loc 1 157 3 is_stmt 1 view .LVU910
 157:DSP/FX/Reverb/revmodel.cpp **** 	}
 2346              		.loc 1 157 8 is_stmt 0 view .LVU911
 2347 02bc 84ED008A 		vstr.32	s16, [r4]
 2348              	.L110:
 157:DSP/FX/Reverb/revmodel.cpp **** 	}
 2349              		.loc 1 157 8 view .LVU912
 2350 02c0 DDF80080 		ldr	r8, [sp]
 2351 02c4 01E0     		b	.L112
 2352              	.L132:
 168:DSP/FX/Reverb/revmodel.cpp **** 		combR[i].setfeedback(roomsize1);
 2353              		.loc 1 168 23 view .LVU913
 2354 02c6 94ED020A 		vldr.32	s0, [r4, #8]
 2355              	.L112:
 168:DSP/FX/Reverb/revmodel.cpp **** 		combR[i].setfeedback(roomsize1);
 2356              		.loc 1 168 3 is_stmt 1 view .LVU914
 168:DSP/FX/Reverb/revmodel.cpp **** 		combR[i].setfeedback(roomsize1);
ARM GAS  /var/folders/wz/z09yph4n0qj4t7mjxhl6ttn80000gn/T//ccKA8ZwU.s 			page 63


 2357              		.loc 1 168 23 is_stmt 0 view .LVU915
 2358 02ca 4046     		mov	r0, r8
 2359 02cc FFF7FEFF 		bl	_ZN4comb11setfeedbackEf
 2360              	.LVL193:
 169:DSP/FX/Reverb/revmodel.cpp **** 	}
 2361              		.loc 1 169 3 is_stmt 1 view .LVU916
 169:DSP/FX/Reverb/revmodel.cpp **** 	}
 2362              		.loc 1 169 23 is_stmt 0 view .LVU917
 2363 02d0 08F1E000 		add	r0, r8, #224
 166:DSP/FX/Reverb/revmodel.cpp **** 	{
 2364              		.loc 1 166 12 view .LVU918
 2365 02d4 08F11C08 		add	r8, r8, #28
 169:DSP/FX/Reverb/revmodel.cpp **** 	}
 2366              		.loc 1 169 23 view .LVU919
 2367 02d8 94ED020A 		vldr.32	s0, [r4, #8]
 2368 02dc FFF7FEFF 		bl	_ZN4comb11setfeedbackEf
 2369              	.LVL194:
 166:DSP/FX/Reverb/revmodel.cpp **** 	{
 2370              		.loc 1 166 2 is_stmt 1 view .LVU920
 166:DSP/FX/Reverb/revmodel.cpp **** 	{
 2371              		.loc 1 166 12 view .LVU921
 2372 02e0 4545     		cmp	r5, r8
 2373 02e2 F0D1     		bne	.L132
 2374 02e4 DDF80080 		ldr	r8, [sp]
 2375              	.L111:
 174:DSP/FX/Reverb/revmodel.cpp **** 		combR[i].setdamp(damp1);
 2376              		.loc 1 174 3 view .LVU922
 174:DSP/FX/Reverb/revmodel.cpp **** 		combR[i].setdamp(damp1);
 2377              		.loc 1 174 19 is_stmt 0 view .LVU923
 2378 02e8 4046     		mov	r0, r8
 2379 02ea 94ED040A 		vldr.32	s0, [r4, #16]
 2380 02ee FFF7FEFF 		bl	_ZN4comb7setdampEf
 2381              	.LVL195:
 175:DSP/FX/Reverb/revmodel.cpp **** 	}
 2382              		.loc 1 175 3 is_stmt 1 view .LVU924
 175:DSP/FX/Reverb/revmodel.cpp **** 	}
 2383              		.loc 1 175 19 is_stmt 0 view .LVU925
 2384 02f2 08F1E000 		add	r0, r8, #224
 172:DSP/FX/Reverb/revmodel.cpp **** 	{
 2385              		.loc 1 172 12 view .LVU926
 2386 02f6 08F11C08 		add	r8, r8, #28
 175:DSP/FX/Reverb/revmodel.cpp **** 	}
 2387              		.loc 1 175 19 view .LVU927
 2388 02fa 94ED040A 		vldr.32	s0, [r4, #16]
 2389 02fe FFF7FEFF 		bl	_ZN4comb7setdampEf
 2390              	.LVL196:
 172:DSP/FX/Reverb/revmodel.cpp **** 	{
 2391              		.loc 1 172 2 is_stmt 1 view .LVU928
 172:DSP/FX/Reverb/revmodel.cpp **** 	{
 2392              		.loc 1 172 12 view .LVU929
 2393 0302 4545     		cmp	r5, r8
 2394 0304 F0D1     		bne	.L111
 2395              	.LVL197:
 172:DSP/FX/Reverb/revmodel.cpp **** 	{
 2396              		.loc 1 172 12 is_stmt 0 view .LVU930
 2397              	.LBE189:
 2398              	.LBE191:
ARM GAS  /var/folders/wz/z09yph4n0qj4t7mjxhl6ttn80000gn/T//ccKA8ZwU.s 			page 64


 2399              	.LBE186:
 2400              	.LBE185:
  51:DSP/FX/Reverb/revmodel.cpp **** 
 2401              		.loc 1 51 2 is_stmt 1 discriminator 14 view .LVU931
 2402              	.LBB194:
 2403              	.LBI194:
 238:DSP/FX/Reverb/revmodel.cpp **** {
 2404              		.loc 1 238 6 discriminator 14 view .LVU932
 2405              	.LBB195:
 240:DSP/FX/Reverb/revmodel.cpp **** 	update();
 2406              		.loc 1 240 2 discriminator 14 view .LVU933
 2407              	.LBB196:
 2408              	.LBB197:
 150:DSP/FX/Reverb/revmodel.cpp **** 	wet2 = wet*((1-width)/2);
 2409              		.loc 1 150 22 is_stmt 0 discriminator 14 view .LVU934
 2410 0306 F6EE006A 		vmov.f32	s13, #5.0e-1
 150:DSP/FX/Reverb/revmodel.cpp **** 	wet2 = wet*((1-width)/2);
 2411              		.loc 1 150 14 discriminator 14 view .LVU935
 2412 030a D4ED095A 		vldr.32	s11, [r4, #36]
 151:DSP/FX/Reverb/revmodel.cpp **** 
 2413              		.loc 1 151 16 discriminator 14 view .LVU936
 2414 030e F7EE007A 		vmov.f32	s15, #1.0e+0
 2415              	.LBE197:
 2416              	.LBE196:
 240:DSP/FX/Reverb/revmodel.cpp **** 	update();
 2417              		.loc 1 240 7 discriminator 14 view .LVU937
 2418 0312 0023     		movs	r3, #0
 2419              	.LBB200:
 2420              	.LBB198:
 150:DSP/FX/Reverb/revmodel.cpp **** 	wet2 = wet*((1-width)/2);
 2421              		.loc 1 150 9 discriminator 14 view .LVU938
 2422 0314 94ED056A 		vldr.32	s12, [r4, #20]
 150:DSP/FX/Reverb/revmodel.cpp **** 	wet2 = wet*((1-width)/2);
 2423              		.loc 1 150 22 discriminator 14 view .LVU939
 2424 0318 B0EE667A 		vmov.f32	s14, s13
 2425              	.LBE198:
 2426              	.LBE200:
 240:DSP/FX/Reverb/revmodel.cpp **** 	update();
 2427              		.loc 1 240 7 discriminator 14 view .LVU940
 2428 031c A362     		str	r3, [r4, #40]	@ float
 241:DSP/FX/Reverb/revmodel.cpp **** }
 2429              		.loc 1 241 2 is_stmt 1 discriminator 14 view .LVU941
 2430              	.LVL198:
 2431              	.LBB201:
 2432              	.LBI196:
 144:DSP/FX/Reverb/revmodel.cpp **** {
 2433              		.loc 1 144 6 discriminator 14 view .LVU942
 2434              	.LBB199:
 148:DSP/FX/Reverb/revmodel.cpp **** 
 2435              		.loc 1 148 2 discriminator 14 view .LVU943
 150:DSP/FX/Reverb/revmodel.cpp **** 	wet2 = wet*((1-width)/2);
 2436              		.loc 1 150 2 discriminator 14 view .LVU944
 151:DSP/FX/Reverb/revmodel.cpp **** 
 2437              		.loc 1 151 2 discriminator 14 view .LVU945
 153:DSP/FX/Reverb/revmodel.cpp **** 	{
 2438              		.loc 1 153 2 discriminator 14 view .LVU946
 161:DSP/FX/Reverb/revmodel.cpp **** 		damp1 = damp;
ARM GAS  /var/folders/wz/z09yph4n0qj4t7mjxhl6ttn80000gn/T//ccKA8ZwU.s 			page 65


 2439              		.loc 1 161 3 discriminator 14 view .LVU947
 162:DSP/FX/Reverb/revmodel.cpp **** 		gain = fixedgain;
 2440              		.loc 1 162 3 discriminator 14 view .LVU948
 151:DSP/FX/Reverb/revmodel.cpp **** 
 2441              		.loc 1 151 16 is_stmt 0 discriminator 14 view .LVU949
 2442 031e 77EEE57A 		vsub.f32	s15, s15, s11
 162:DSP/FX/Reverb/revmodel.cpp **** 		gain = fixedgain;
 2443              		.loc 1 162 9 discriminator 14 view .LVU950
 2444 0322 E368     		ldr	r3, [r4, #12]	@ float
 161:DSP/FX/Reverb/revmodel.cpp **** 		damp1 = damp;
 2445              		.loc 1 161 15 discriminator 14 view .LVU951
 2446 0324 94ED010A 		vldr.32	s0, [r4, #4]
 150:DSP/FX/Reverb/revmodel.cpp **** 	wet2 = wet*((1-width)/2);
 2447              		.loc 1 150 22 discriminator 14 view .LVU952
 2448 0328 A5EEA67A 		vfma.f32	s14, s11, s13
 162:DSP/FX/Reverb/revmodel.cpp **** 		gain = fixedgain;
 2449              		.loc 1 162 9 discriminator 14 view .LVU953
 2450 032c 2361     		str	r3, [r4, #16]	@ float
 163:DSP/FX/Reverb/revmodel.cpp **** 	}
 2451              		.loc 1 163 3 is_stmt 1 discriminator 14 view .LVU954
 151:DSP/FX/Reverb/revmodel.cpp **** 
 2452              		.loc 1 151 23 is_stmt 0 discriminator 14 view .LVU955
 2453 032e 67EEA67A 		vmul.f32	s15, s15, s13
 163:DSP/FX/Reverb/revmodel.cpp **** 	}
 2454              		.loc 1 163 8 discriminator 14 view .LVU956
 2455 0332 3C4B     		ldr	r3, .L134+56
 2456 0334 DDF80080 		ldr	r8, [sp]
 161:DSP/FX/Reverb/revmodel.cpp **** 		damp1 = damp;
 2457              		.loc 1 161 13 discriminator 14 view .LVU957
 2458 0338 84ED020A 		vstr.32	s0, [r4, #8]
 151:DSP/FX/Reverb/revmodel.cpp **** 
 2459              		.loc 1 151 12 discriminator 14 view .LVU958
 2460 033c 67EE867A 		vmul.f32	s15, s15, s12
 163:DSP/FX/Reverb/revmodel.cpp **** 	}
 2461              		.loc 1 163 8 discriminator 14 view .LVU959
 2462 0340 2360     		str	r3, [r4]	@ float
 2463              	.LVL199:
 166:DSP/FX/Reverb/revmodel.cpp **** 	{
 2464              		.loc 1 166 12 is_stmt 1 discriminator 14 view .LVU960
 150:DSP/FX/Reverb/revmodel.cpp **** 	wet2 = wet*((1-width)/2);
 2465              		.loc 1 150 12 is_stmt 0 discriminator 14 view .LVU961
 2466 0342 26EE077A 		vmul.f32	s14, s12, s14
 151:DSP/FX/Reverb/revmodel.cpp **** 
 2467              		.loc 1 151 7 discriminator 14 view .LVU962
 2468 0346 C4ED077A 		vstr.32	s15, [r4, #28]
 150:DSP/FX/Reverb/revmodel.cpp **** 	wet2 = wet*((1-width)/2);
 2469              		.loc 1 150 7 discriminator 14 view .LVU963
 2470 034a 84ED067A 		vstr.32	s14, [r4, #24]
 2471 034e 01E0     		b	.L114
 2472              	.LVL200:
 2473              	.L133:
 168:DSP/FX/Reverb/revmodel.cpp **** 		combR[i].setfeedback(roomsize1);
 2474              		.loc 1 168 23 view .LVU964
 2475 0350 94ED020A 		vldr.32	s0, [r4, #8]
 2476              	.L114:
 168:DSP/FX/Reverb/revmodel.cpp **** 		combR[i].setfeedback(roomsize1);
 2477              		.loc 1 168 3 is_stmt 1 view .LVU965
ARM GAS  /var/folders/wz/z09yph4n0qj4t7mjxhl6ttn80000gn/T//ccKA8ZwU.s 			page 66


 168:DSP/FX/Reverb/revmodel.cpp **** 		combR[i].setfeedback(roomsize1);
 2478              		.loc 1 168 23 is_stmt 0 view .LVU966
 2479 0354 4046     		mov	r0, r8
 2480 0356 FFF7FEFF 		bl	_ZN4comb11setfeedbackEf
 2481              	.LVL201:
 169:DSP/FX/Reverb/revmodel.cpp **** 	}
 2482              		.loc 1 169 3 is_stmt 1 view .LVU967
 169:DSP/FX/Reverb/revmodel.cpp **** 	}
 2483              		.loc 1 169 23 is_stmt 0 view .LVU968
 2484 035a 08F1E000 		add	r0, r8, #224
 166:DSP/FX/Reverb/revmodel.cpp **** 	{
 2485              		.loc 1 166 12 view .LVU969
 2486 035e 08F11C08 		add	r8, r8, #28
 169:DSP/FX/Reverb/revmodel.cpp **** 	}
 2487              		.loc 1 169 23 view .LVU970
 2488 0362 94ED020A 		vldr.32	s0, [r4, #8]
 2489 0366 FFF7FEFF 		bl	_ZN4comb11setfeedbackEf
 2490              	.LVL202:
 166:DSP/FX/Reverb/revmodel.cpp **** 	{
 2491              		.loc 1 166 2 is_stmt 1 view .LVU971
 166:DSP/FX/Reverb/revmodel.cpp **** 	{
 2492              		.loc 1 166 12 view .LVU972
 2493 036a A845     		cmp	r8, r5
 2494 036c F0D1     		bne	.L133
 2495 036e DDF80080 		ldr	r8, [sp]
 2496              	.L113:
 174:DSP/FX/Reverb/revmodel.cpp **** 		combR[i].setdamp(damp1);
 2497              		.loc 1 174 3 view .LVU973
 174:DSP/FX/Reverb/revmodel.cpp **** 		combR[i].setdamp(damp1);
 2498              		.loc 1 174 19 is_stmt 0 view .LVU974
 2499 0372 4046     		mov	r0, r8
 2500 0374 94ED040A 		vldr.32	s0, [r4, #16]
 2501 0378 FFF7FEFF 		bl	_ZN4comb7setdampEf
 2502              	.LVL203:
 175:DSP/FX/Reverb/revmodel.cpp **** 	}
 2503              		.loc 1 175 3 is_stmt 1 view .LVU975
 175:DSP/FX/Reverb/revmodel.cpp **** 	}
 2504              		.loc 1 175 19 is_stmt 0 view .LVU976
 2505 037c 08F1E000 		add	r0, r8, #224
 172:DSP/FX/Reverb/revmodel.cpp **** 	{
 2506              		.loc 1 172 12 view .LVU977
 2507 0380 08F11C08 		add	r8, r8, #28
 175:DSP/FX/Reverb/revmodel.cpp **** 	}
 2508              		.loc 1 175 19 view .LVU978
 2509 0384 94ED040A 		vldr.32	s0, [r4, #16]
 2510 0388 FFF7FEFF 		bl	_ZN4comb7setdampEf
 2511              	.LVL204:
 172:DSP/FX/Reverb/revmodel.cpp **** 	{
 2512              		.loc 1 172 2 is_stmt 1 view .LVU979
 172:DSP/FX/Reverb/revmodel.cpp **** 	{
 2513              		.loc 1 172 12 view .LVU980
 2514 038c 4545     		cmp	r5, r8
 2515 038e F0D1     		bne	.L113
 2516              	.LVL205:
 172:DSP/FX/Reverb/revmodel.cpp **** 	{
 2517              		.loc 1 172 12 is_stmt 0 view .LVU981
 2518              	.LBE199:
ARM GAS  /var/folders/wz/z09yph4n0qj4t7mjxhl6ttn80000gn/T//ccKA8ZwU.s 			page 67


 2519              	.LBE201:
 2520              	.LBE195:
 2521              	.LBE194:
  54:DSP/FX/Reverb/revmodel.cpp **** }
 2522              		.loc 1 54 2 is_stmt 1 discriminator 14 view .LVU982
 2523              	.LBB202:
 2524              	.LBI202:
  57:DSP/FX/Reverb/revmodel.cpp **** {
 2525              		.loc 1 57 6 discriminator 14 view .LVU983
 2526              	.LBE202:
 2527              	.LBE212:
  59:DSP/FX/Reverb/revmodel.cpp **** 		return;
 2528              		.loc 1 59 2 discriminator 14 view .LVU984
 2529              	.LBB213:
 2530              	.LBB208:
 2531              	.LBB203:
 2532              	.LBI203:
 244:DSP/FX/Reverb/revmodel.cpp **** {
 2533              		.loc 1 244 7 discriminator 14 view .LVU985
 2534              	.LBB204:
 2535              		.loc 1 246 2 discriminator 14 view .LVU986
 2536 0390 F6EE007A 		vmov.f32	s15, #5.0e-1
 2537 0394 94ED0A7A 		vldr.32	s14, [r4, #40]
 2538 0398 B4EEE77A 		vcmpe.f32	s14, s15
 2539 039c F1EE10FA 		vmrs	APSR_nzcv, FPSCR
 2540 03a0 05DB     		blt	.L115
 2541              	.LVL206:
 2542              	.L122:
 2543              		.loc 1 246 2 is_stmt 0 discriminator 14 view .LVU987
 2544              	.LBE204:
 2545              	.LBE203:
 2546              	.LBE208:
 2547              	.LBE213:
  55:DSP/FX/Reverb/revmodel.cpp **** 
 2548              		.loc 1 55 1 view .LVU988
 2549 03a2 2046     		mov	r0, r4
 2550 03a4 03B0     		add	sp, sp, #12
 2551              		.cfi_remember_state
 2552              		.cfi_def_cfa_offset 60
 2553              		@ sp needed
 2554 03a6 BDEC068B 		vldm	sp!, {d8-d10}
 2555              		.cfi_restore 84
 2556              		.cfi_restore 85
 2557              		.cfi_restore 82
 2558              		.cfi_restore 83
 2559              		.cfi_restore 80
 2560              		.cfi_restore 81
 2561              		.cfi_def_cfa_offset 36
 2562 03aa BDE8F08F 		pop	{r4, r5, r6, r7, r8, r9, r10, fp, pc}
 2563              	.LVL207:
 2564              	.L115:
 2565              		.cfi_restore_state
 2566              	.LBB214:
 2567              	.LBB209:
 2568              	.LBB205:
 2569              	.LBB206:
  64:DSP/FX/Reverb/revmodel.cpp **** 		combR[i].mute();
ARM GAS  /var/folders/wz/z09yph4n0qj4t7mjxhl6ttn80000gn/T//ccKA8ZwU.s 			page 68


 2570              		.loc 1 64 3 is_stmt 1 view .LVU989
  64:DSP/FX/Reverb/revmodel.cpp **** 		combR[i].mute();
 2571              		.loc 1 64 16 is_stmt 0 view .LVU990
 2572 03ae 3046     		mov	r0, r6
 2573 03b0 FFF7FEFF 		bl	_ZN4comb4muteEv
 2574              	.LVL208:
  65:DSP/FX/Reverb/revmodel.cpp **** 	}
 2575              		.loc 1 65 3 is_stmt 1 view .LVU991
  65:DSP/FX/Reverb/revmodel.cpp **** 	}
 2576              		.loc 1 65 16 is_stmt 0 view .LVU992
 2577 03b4 06F1E000 		add	r0, r6, #224
  62:DSP/FX/Reverb/revmodel.cpp **** 	{
 2578              		.loc 1 62 16 view .LVU993
 2579 03b8 1C36     		adds	r6, r6, #28
  65:DSP/FX/Reverb/revmodel.cpp **** 	}
 2580              		.loc 1 65 16 view .LVU994
 2581 03ba FFF7FEFF 		bl	_ZN4comb4muteEv
 2582              	.LVL209:
  62:DSP/FX/Reverb/revmodel.cpp **** 	{
 2583              		.loc 1 62 2 is_stmt 1 view .LVU995
  62:DSP/FX/Reverb/revmodel.cpp **** 	{
 2584              		.loc 1 62 16 view .LVU996
 2585 03be B542     		cmp	r5, r6
 2586 03c0 F5D1     		bne	.L115
 2587              	.L118:
 2588              	.LBE206:
 2589              	.LBB207:
  69:DSP/FX/Reverb/revmodel.cpp **** 		allpassR[j].mute();
 2590              		.loc 1 69 3 view .LVU997
  69:DSP/FX/Reverb/revmodel.cpp **** 		allpassR[j].mute();
 2591              		.loc 1 69 19 is_stmt 0 view .LVU998
 2592 03c2 3846     		mov	r0, r7
 2593 03c4 FFF7FEFF 		bl	_ZN7allpass4muteEv
 2594              	.LVL210:
  70:DSP/FX/Reverb/revmodel.cpp **** 	}
 2595              		.loc 1 70 3 is_stmt 1 view .LVU999
  70:DSP/FX/Reverb/revmodel.cpp **** 	}
 2596              		.loc 1 70 19 is_stmt 0 view .LVU1000
 2597 03c8 07F14000 		add	r0, r7, #64
  67:DSP/FX/Reverb/revmodel.cpp **** 	{
 2598              		.loc 1 67 16 view .LVU1001
 2599 03cc 1037     		adds	r7, r7, #16
  70:DSP/FX/Reverb/revmodel.cpp **** 	}
 2600              		.loc 1 70 19 view .LVU1002
 2601 03ce FFF7FEFF 		bl	_ZN7allpass4muteEv
 2602              	.LVL211:
  67:DSP/FX/Reverb/revmodel.cpp **** 	{
 2603              		.loc 1 67 2 is_stmt 1 view .LVU1003
  67:DSP/FX/Reverb/revmodel.cpp **** 	{
 2604              		.loc 1 67 16 view .LVU1004
 2605 03d2 4F45     		cmp	r7, r9
 2606 03d4 F5D1     		bne	.L118
 2607 03d6 E4E7     		b	.L122
 2608              	.LVL212:
 2609              	.L130:
  67:DSP/FX/Reverb/revmodel.cpp **** 	{
 2610              		.loc 1 67 16 is_stmt 0 view .LVU1005
ARM GAS  /var/folders/wz/z09yph4n0qj4t7mjxhl6ttn80000gn/T//ccKA8ZwU.s 			page 69


 2611              	.LBE207:
 2612              	.LBE205:
 2613              	.LBE209:
 2614              	.LBB210:
 2615              	.LBB193:
 2616              	.LBB192:
 2617              	.LBB190:
 161:DSP/FX/Reverb/revmodel.cpp **** 		damp1 = damp;
 2618              		.loc 1 161 3 is_stmt 1 view .LVU1006
 162:DSP/FX/Reverb/revmodel.cpp **** 		gain = fixedgain;
 2619              		.loc 1 162 9 is_stmt 0 view .LVU1007
 2620 03d8 E368     		ldr	r3, [r4, #12]	@ float
 161:DSP/FX/Reverb/revmodel.cpp **** 		damp1 = damp;
 2621              		.loc 1 161 15 view .LVU1008
 2622 03da 94ED010A 		vldr.32	s0, [r4, #4]
 162:DSP/FX/Reverb/revmodel.cpp **** 		gain = fixedgain;
 2623              		.loc 1 162 9 view .LVU1009
 2624 03de 2361     		str	r3, [r4, #16]	@ float
 163:DSP/FX/Reverb/revmodel.cpp **** 	}
 2625              		.loc 1 163 8 view .LVU1010
 2626 03e0 104B     		ldr	r3, .L134+56
 161:DSP/FX/Reverb/revmodel.cpp **** 		damp1 = damp;
 2627              		.loc 1 161 13 view .LVU1011
 2628 03e2 84ED020A 		vstr.32	s0, [r4, #8]
 162:DSP/FX/Reverb/revmodel.cpp **** 		gain = fixedgain;
 2629              		.loc 1 162 3 is_stmt 1 view .LVU1012
 163:DSP/FX/Reverb/revmodel.cpp **** 	}
 2630              		.loc 1 163 3 view .LVU1013
 163:DSP/FX/Reverb/revmodel.cpp **** 	}
 2631              		.loc 1 163 8 is_stmt 0 view .LVU1014
 2632 03e6 2360     		str	r3, [r4]	@ float
 2633 03e8 6AE7     		b	.L110
 2634              	.L135:
 2635 03ea 00BF     		.align	2
 2636              	.L134:
 2637 03ec 00000000 		.word	0
 2638 03f0 38120100 		.word	70200
 2639 03f4 E82A0100 		.word	76520
 2640 03f8 2C440100 		.word	82988
 2641 03fc CC5D0100 		.word	89548
 2642 0400 7C660100 		.word	91772
 2643 0404 886F0100 		.word	94088
 2644 0408 6C760100 		.word	95852
 2645 040c AC7D0100 		.word	97708
 2646 0410 00830100 		.word	99072
 2647 0414 B0880100 		.word	100528
 2648 0418 348C0100 		.word	101428
 2649 041c 3D0A573F 		.word	1062668861
 2650 0420 CDCC4C3E 		.word	1045220557
 2651 0424 8FC2753C 		.word	1014350479
 2652              	.LBE190:
 2653              	.LBE192:
 2654              	.LBE193:
 2655              	.LBE210:
 2656              	.LBE214:
 2657              		.cfi_endproc
 2658              	.LFE547:
ARM GAS  /var/folders/wz/z09yph4n0qj4t7mjxhl6ttn80000gn/T//ccKA8ZwU.s 			page 70


 2660              		.global	_ZN8revmodelC1Ev
 2661              		.thumb_set _ZN8revmodelC1Ev,_ZN8revmodelC2Ev
 2662              		.section	.text._ZN8revmodel11setroomsizeEf,"ax",%progbits
 2663              		.align	1
 2664              		.p2align 2,,3
 2665              		.global	_ZN8revmodel11setroomsizeEf
 2666              		.syntax unified
 2667              		.thumb
 2668              		.thumb_func
 2670              	_ZN8revmodel11setroomsizeEf:
 2671              	.LVL213:
 2672              	.LFB553:
 185:DSP/FX/Reverb/revmodel.cpp **** 	roomsize = (value*scaleroom) + offsetroom;
 2673              		.loc 1 185 1 is_stmt 1 view -0
 2674              		.cfi_startproc
 2675              		@ args = 0, pretend = 0, frame = 0
 2676              		@ frame_needed = 0, uses_anonymous_args = 0
 2677              		@ link register save eliminated.
 186:DSP/FX/Reverb/revmodel.cpp **** 	update();
 2678              		.loc 1 186 2 view .LVU1016
 186:DSP/FX/Reverb/revmodel.cpp **** 	update();
 2679              		.loc 1 186 31 is_stmt 0 view .LVU1017
 2680 0000 9FED047A 		vldr.32	s14, .L137
 2681 0004 DFED047A 		vldr.32	s15, .L137+4
 2682 0008 E0EE077A 		vfma.f32	s15, s0, s14
 186:DSP/FX/Reverb/revmodel.cpp **** 	update();
 2683              		.loc 1 186 11 view .LVU1018
 2684 000c C0ED017A 		vstr.32	s15, [r0, #4]
 187:DSP/FX/Reverb/revmodel.cpp **** }
 2685              		.loc 1 187 2 is_stmt 1 view .LVU1019
 187:DSP/FX/Reverb/revmodel.cpp **** }
 2686              		.loc 1 187 8 is_stmt 0 view .LVU1020
 2687 0010 FFF7FEBF 		b	_ZN8revmodel6updateEv
 2688              	.LVL214:
 2689              	.L138:
 187:DSP/FX/Reverb/revmodel.cpp **** }
 2690              		.loc 1 187 8 view .LVU1021
 2691              		.align	2
 2692              	.L137:
 2693 0014 295C8F3E 		.word	1049582633
 2694 0018 3333333F 		.word	1060320051
 2695              		.cfi_endproc
 2696              	.LFE553:
 2698              		.section	.text._ZN8revmodel11getroomsizeEv,"ax",%progbits
 2699              		.align	1
 2700              		.p2align 2,,3
 2701              		.global	_ZN8revmodel11getroomsizeEv
 2702              		.syntax unified
 2703              		.thumb
 2704              		.thumb_func
 2706              	_ZN8revmodel11getroomsizeEv:
 2707              	.LVL215:
 2708              	.LFB554:
 191:DSP/FX/Reverb/revmodel.cpp **** 	return (roomsize-offsetroom)/scaleroom;
 2709              		.loc 1 191 1 is_stmt 1 view -0
 2710              		.cfi_startproc
 2711              		@ args = 0, pretend = 0, frame = 0
ARM GAS  /var/folders/wz/z09yph4n0qj4t7mjxhl6ttn80000gn/T//ccKA8ZwU.s 			page 71


 2712              		@ frame_needed = 0, uses_anonymous_args = 0
 2713              		@ link register save eliminated.
 192:DSP/FX/Reverb/revmodel.cpp **** }
 2714              		.loc 1 192 2 view .LVU1023
 192:DSP/FX/Reverb/revmodel.cpp **** }
 2715              		.loc 1 192 18 is_stmt 0 view .LVU1024
 2716 0000 9FED057A 		vldr.32	s14, .L140
 2717 0004 D0ED017A 		vldr.32	s15, [r0, #4]
 192:DSP/FX/Reverb/revmodel.cpp **** }
 2718              		.loc 1 192 31 view .LVU1025
 2719 0008 9FED040A 		vldr.32	s0, .L140+4
 192:DSP/FX/Reverb/revmodel.cpp **** }
 2720              		.loc 1 192 18 view .LVU1026
 2721 000c 77EEC77A 		vsub.f32	s15, s15, s14
 193:DSP/FX/Reverb/revmodel.cpp **** 
 2722              		.loc 1 193 1 view .LVU1027
 2723 0010 87EE800A 		vdiv.f32	s0, s15, s0
 2724 0014 7047     		bx	lr
 2725              	.L141:
 2726 0016 00BF     		.align	2
 2727              	.L140:
 2728 0018 3333333F 		.word	1060320051
 2729 001c 295C8F3E 		.word	1049582633
 2730              		.cfi_endproc
 2731              	.LFE554:
 2733              		.section	.text._ZN8revmodel7setdampEf,"ax",%progbits
 2734              		.align	1
 2735              		.p2align 2,,3
 2736              		.global	_ZN8revmodel7setdampEf
 2737              		.syntax unified
 2738              		.thumb
 2739              		.thumb_func
 2741              	_ZN8revmodel7setdampEf:
 2742              	.LVL216:
 2743              	.LFB555:
 196:DSP/FX/Reverb/revmodel.cpp **** 	damp = value*scaledamp;
 2744              		.loc 1 196 1 is_stmt 1 view -0
 2745              		.cfi_startproc
 2746              		@ args = 0, pretend = 0, frame = 0
 2747              		@ frame_needed = 0, uses_anonymous_args = 0
 2748              		@ link register save eliminated.
 197:DSP/FX/Reverb/revmodel.cpp **** 	update();
 2749              		.loc 1 197 2 view .LVU1029
 197:DSP/FX/Reverb/revmodel.cpp **** 	update();
 2750              		.loc 1 197 14 is_stmt 0 view .LVU1030
 2751 0000 DFED037A 		vldr.32	s15, .L143
 2752 0004 20EE270A 		vmul.f32	s0, s0, s15
 2753              	.LVL217:
 197:DSP/FX/Reverb/revmodel.cpp **** 	update();
 2754              		.loc 1 197 7 view .LVU1031
 2755 0008 80ED030A 		vstr.32	s0, [r0, #12]
 198:DSP/FX/Reverb/revmodel.cpp **** }
 2756              		.loc 1 198 2 is_stmt 1 view .LVU1032
 198:DSP/FX/Reverb/revmodel.cpp **** }
 2757              		.loc 1 198 8 is_stmt 0 view .LVU1033
 2758 000c FFF7FEBF 		b	_ZN8revmodel6updateEv
 2759              	.LVL218:
ARM GAS  /var/folders/wz/z09yph4n0qj4t7mjxhl6ttn80000gn/T//ccKA8ZwU.s 			page 72


 2760              	.L144:
 198:DSP/FX/Reverb/revmodel.cpp **** }
 2761              		.loc 1 198 8 view .LVU1034
 2762              		.align	2
 2763              	.L143:
 2764 0010 CDCCCC3E 		.word	1053609165
 2765              		.cfi_endproc
 2766              	.LFE555:
 2768              		.section	.text._ZN8revmodel7getdampEv,"ax",%progbits
 2769              		.align	1
 2770              		.p2align 2,,3
 2771              		.global	_ZN8revmodel7getdampEv
 2772              		.syntax unified
 2773              		.thumb
 2774              		.thumb_func
 2776              	_ZN8revmodel7getdampEv:
 2777              	.LVL219:
 2778              	.LFB556:
 202:DSP/FX/Reverb/revmodel.cpp **** 	return damp/scaledamp;
 2779              		.loc 1 202 1 is_stmt 1 view -0
 2780              		.cfi_startproc
 2781              		@ args = 0, pretend = 0, frame = 0
 2782              		@ frame_needed = 0, uses_anonymous_args = 0
 2783              		@ link register save eliminated.
 203:DSP/FX/Reverb/revmodel.cpp **** }
 2784              		.loc 1 203 2 view .LVU1036
 203:DSP/FX/Reverb/revmodel.cpp **** }
 2785              		.loc 1 203 14 is_stmt 0 view .LVU1037
 2786 0000 DFED037A 		vldr.32	s15, .L146
 2787 0004 90ED030A 		vldr.32	s0, [r0, #12]
 204:DSP/FX/Reverb/revmodel.cpp **** 
 2788              		.loc 1 204 1 view .LVU1038
 2789 0008 80EE270A 		vdiv.f32	s0, s0, s15
 2790 000c 7047     		bx	lr
 2791              	.L147:
 2792 000e 00BF     		.align	2
 2793              	.L146:
 2794 0010 CDCCCC3E 		.word	1053609165
 2795              		.cfi_endproc
 2796              	.LFE556:
 2798              		.section	.text._ZN8revmodel6setwetEf,"ax",%progbits
 2799              		.align	1
 2800              		.p2align 2,,3
 2801              		.global	_ZN8revmodel6setwetEf
 2802              		.syntax unified
 2803              		.thumb
 2804              		.thumb_func
 2806              	_ZN8revmodel6setwetEf:
 2807              	.LVL220:
 2808              	.LFB557:
 207:DSP/FX/Reverb/revmodel.cpp **** 	wet = value*scalewet;
 2809              		.loc 1 207 1 is_stmt 1 view -0
 2810              		.cfi_startproc
 2811              		@ args = 0, pretend = 0, frame = 0
 2812              		@ frame_needed = 0, uses_anonymous_args = 0
 2813              		@ link register save eliminated.
 208:DSP/FX/Reverb/revmodel.cpp **** 	update();
ARM GAS  /var/folders/wz/z09yph4n0qj4t7mjxhl6ttn80000gn/T//ccKA8ZwU.s 			page 73


 2814              		.loc 1 208 2 view .LVU1040
 208:DSP/FX/Reverb/revmodel.cpp **** 	update();
 2815              		.loc 1 208 13 is_stmt 0 view .LVU1041
 2816 0000 F0EE087A 		vmov.f32	s15, #3.0e+0
 2817 0004 20EE270A 		vmul.f32	s0, s0, s15
 2818              	.LVL221:
 208:DSP/FX/Reverb/revmodel.cpp **** 	update();
 2819              		.loc 1 208 6 view .LVU1042
 2820 0008 80ED050A 		vstr.32	s0, [r0, #20]
 209:DSP/FX/Reverb/revmodel.cpp **** }
 2821              		.loc 1 209 2 is_stmt 1 view .LVU1043
 209:DSP/FX/Reverb/revmodel.cpp **** }
 2822              		.loc 1 209 8 is_stmt 0 view .LVU1044
 2823 000c FFF7FEBF 		b	_ZN8revmodel6updateEv
 2824              	.LVL222:
 209:DSP/FX/Reverb/revmodel.cpp **** }
 2825              		.loc 1 209 8 view .LVU1045
 2826              		.cfi_endproc
 2827              	.LFE557:
 2829              		.section	.text._ZN8revmodel6getwetEv,"ax",%progbits
 2830              		.align	1
 2831              		.p2align 2,,3
 2832              		.global	_ZN8revmodel6getwetEv
 2833              		.syntax unified
 2834              		.thumb
 2835              		.thumb_func
 2837              	_ZN8revmodel6getwetEv:
 2838              	.LVL223:
 2839              	.LFB558:
 213:DSP/FX/Reverb/revmodel.cpp **** 	return wet/scalewet;
 2840              		.loc 1 213 1 is_stmt 1 view -0
 2841              		.cfi_startproc
 2842              		@ args = 0, pretend = 0, frame = 0
 2843              		@ frame_needed = 0, uses_anonymous_args = 0
 2844              		@ link register save eliminated.
 214:DSP/FX/Reverb/revmodel.cpp **** }
 2845              		.loc 1 214 2 view .LVU1047
 214:DSP/FX/Reverb/revmodel.cpp **** }
 2846              		.loc 1 214 13 is_stmt 0 view .LVU1048
 2847 0000 F0EE087A 		vmov.f32	s15, #3.0e+0
 2848 0004 90ED050A 		vldr.32	s0, [r0, #20]
 215:DSP/FX/Reverb/revmodel.cpp **** 
 2849              		.loc 1 215 1 view .LVU1049
 2850 0008 80EE270A 		vdiv.f32	s0, s0, s15
 2851 000c 7047     		bx	lr
 2852              		.cfi_endproc
 2853              	.LFE558:
 2855 000e 00BF     		.section	.text._ZN8revmodel6setdryEf,"ax",%progbits
 2856              		.align	1
 2857              		.p2align 2,,3
 2858              		.global	_ZN8revmodel6setdryEf
 2859              		.syntax unified
 2860              		.thumb
 2861              		.thumb_func
 2863              	_ZN8revmodel6setdryEf:
 2864              	.LVL224:
 2865              	.LFB559:
ARM GAS  /var/folders/wz/z09yph4n0qj4t7mjxhl6ttn80000gn/T//ccKA8ZwU.s 			page 74


 218:DSP/FX/Reverb/revmodel.cpp **** 	dry = value*scaledry;
 2866              		.loc 1 218 1 is_stmt 1 view -0
 2867              		.cfi_startproc
 2868              		@ args = 0, pretend = 0, frame = 0
 2869              		@ frame_needed = 0, uses_anonymous_args = 0
 2870              		@ link register save eliminated.
 219:DSP/FX/Reverb/revmodel.cpp **** }
 2871              		.loc 1 219 2 view .LVU1051
 219:DSP/FX/Reverb/revmodel.cpp **** }
 2872              		.loc 1 219 13 is_stmt 0 view .LVU1052
 2873 0000 30EE000A 		vadd.f32	s0, s0, s0
 2874              	.LVL225:
 219:DSP/FX/Reverb/revmodel.cpp **** }
 2875              		.loc 1 219 6 view .LVU1053
 2876 0004 80ED080A 		vstr.32	s0, [r0, #32]
 220:DSP/FX/Reverb/revmodel.cpp **** 
 2877              		.loc 1 220 1 view .LVU1054
 2878 0008 7047     		bx	lr
 2879              		.cfi_endproc
 2880              	.LFE559:
 2882 000a 00BF     		.section	.text._ZN8revmodel6getdryEv,"ax",%progbits
 2883              		.align	1
 2884              		.p2align 2,,3
 2885              		.global	_ZN8revmodel6getdryEv
 2886              		.syntax unified
 2887              		.thumb
 2888              		.thumb_func
 2890              	_ZN8revmodel6getdryEv:
 2891              	.LVL226:
 2892              	.LFB560:
 223:DSP/FX/Reverb/revmodel.cpp **** 	return dry/scaledry;
 2893              		.loc 1 223 1 is_stmt 1 view -0
 2894              		.cfi_startproc
 2895              		@ args = 0, pretend = 0, frame = 0
 2896              		@ frame_needed = 0, uses_anonymous_args = 0
 2897              		@ link register save eliminated.
 224:DSP/FX/Reverb/revmodel.cpp **** }
 2898              		.loc 1 224 2 view .LVU1056
 224:DSP/FX/Reverb/revmodel.cpp **** }
 2899              		.loc 1 224 13 is_stmt 0 view .LVU1057
 2900 0000 F6EE007A 		vmov.f32	s15, #5.0e-1
 2901 0004 90ED080A 		vldr.32	s0, [r0, #32]
 225:DSP/FX/Reverb/revmodel.cpp **** 
 2902              		.loc 1 225 1 view .LVU1058
 2903 0008 20EE270A 		vmul.f32	s0, s0, s15
 2904 000c 7047     		bx	lr
 2905              		.cfi_endproc
 2906              	.LFE560:
 2908 000e 00BF     		.section	.text._ZN8revmodel8setwidthEf,"ax",%progbits
 2909              		.align	1
 2910              		.p2align 2,,3
 2911              		.global	_ZN8revmodel8setwidthEf
 2912              		.syntax unified
 2913              		.thumb
 2914              		.thumb_func
 2916              	_ZN8revmodel8setwidthEf:
 2917              	.LVL227:
ARM GAS  /var/folders/wz/z09yph4n0qj4t7mjxhl6ttn80000gn/T//ccKA8ZwU.s 			page 75


 2918              	.LFB561:
 228:DSP/FX/Reverb/revmodel.cpp **** 	width = value;
 2919              		.loc 1 228 1 is_stmt 1 view -0
 2920              		.cfi_startproc
 2921              		@ args = 0, pretend = 0, frame = 0
 2922              		@ frame_needed = 0, uses_anonymous_args = 0
 2923              		@ link register save eliminated.
 229:DSP/FX/Reverb/revmodel.cpp **** 	update();
 2924              		.loc 1 229 2 view .LVU1060
 229:DSP/FX/Reverb/revmodel.cpp **** 	update();
 2925              		.loc 1 229 8 is_stmt 0 view .LVU1061
 2926 0000 80ED090A 		vstr.32	s0, [r0, #36]
 230:DSP/FX/Reverb/revmodel.cpp **** }
 2927              		.loc 1 230 2 is_stmt 1 view .LVU1062
 230:DSP/FX/Reverb/revmodel.cpp **** }
 2928              		.loc 1 230 8 is_stmt 0 view .LVU1063
 2929 0004 FFF7FEBF 		b	_ZN8revmodel6updateEv
 2930              	.LVL228:
 230:DSP/FX/Reverb/revmodel.cpp **** }
 2931              		.loc 1 230 8 view .LVU1064
 2932              		.cfi_endproc
 2933              	.LFE561:
 2935              		.section	.text._ZN8revmodel8getwidthEv,"ax",%progbits
 2936              		.align	1
 2937              		.p2align 2,,3
 2938              		.global	_ZN8revmodel8getwidthEv
 2939              		.syntax unified
 2940              		.thumb
 2941              		.thumb_func
 2943              	_ZN8revmodel8getwidthEv:
 2944              	.LVL229:
 2945              	.LFB562:
 234:DSP/FX/Reverb/revmodel.cpp **** 	return width;
 2946              		.loc 1 234 1 is_stmt 1 view -0
 2947              		.cfi_startproc
 2948              		@ args = 0, pretend = 0, frame = 0
 2949              		@ frame_needed = 0, uses_anonymous_args = 0
 2950              		@ link register save eliminated.
 235:DSP/FX/Reverb/revmodel.cpp **** }
 2951              		.loc 1 235 2 view .LVU1066
 236:DSP/FX/Reverb/revmodel.cpp **** 
 2952              		.loc 1 236 1 is_stmt 0 view .LVU1067
 2953 0000 90ED090A 		vldr.32	s0, [r0, #36]
 2954 0004 7047     		bx	lr
 2955              		.cfi_endproc
 2956              	.LFE562:
 2958 0006 00BF     		.section	.text._ZN8revmodel7setmodeEf,"ax",%progbits
 2959              		.align	1
 2960              		.p2align 2,,3
 2961              		.global	_ZN8revmodel7setmodeEf
 2962              		.syntax unified
 2963              		.thumb
 2964              		.thumb_func
 2966              	_ZN8revmodel7setmodeEf:
 2967              	.LVL230:
 2968              	.LFB563:
 239:DSP/FX/Reverb/revmodel.cpp **** 	mode = value;
ARM GAS  /var/folders/wz/z09yph4n0qj4t7mjxhl6ttn80000gn/T//ccKA8ZwU.s 			page 76


 2969              		.loc 1 239 1 is_stmt 1 view -0
 2970              		.cfi_startproc
 2971              		@ args = 0, pretend = 0, frame = 0
 2972              		@ frame_needed = 0, uses_anonymous_args = 0
 2973              		@ link register save eliminated.
 240:DSP/FX/Reverb/revmodel.cpp **** 	update();
 2974              		.loc 1 240 2 view .LVU1069
 240:DSP/FX/Reverb/revmodel.cpp **** 	update();
 2975              		.loc 1 240 7 is_stmt 0 view .LVU1070
 2976 0000 80ED0A0A 		vstr.32	s0, [r0, #40]
 241:DSP/FX/Reverb/revmodel.cpp **** }
 2977              		.loc 1 241 2 is_stmt 1 view .LVU1071
 241:DSP/FX/Reverb/revmodel.cpp **** }
 2978              		.loc 1 241 8 is_stmt 0 view .LVU1072
 2979 0004 FFF7FEBF 		b	_ZN8revmodel6updateEv
 2980              	.LVL231:
 241:DSP/FX/Reverb/revmodel.cpp **** }
 2981              		.loc 1 241 8 view .LVU1073
 2982              		.cfi_endproc
 2983              	.LFE563:
 2985              		.section	.text._ZN8revmodel7getmodeEv,"ax",%progbits
 2986              		.align	1
 2987              		.p2align 2,,3
 2988              		.global	_ZN8revmodel7getmodeEv
 2989              		.syntax unified
 2990              		.thumb
 2991              		.thumb_func
 2993              	_ZN8revmodel7getmodeEv:
 2994              	.LVL232:
 2995              	.LFB564:
 245:DSP/FX/Reverb/revmodel.cpp **** 	if (mode >= freezemode)
 2996              		.loc 1 245 1 is_stmt 1 view -0
 2997              		.cfi_startproc
 2998              		@ args = 0, pretend = 0, frame = 0
 2999              		@ frame_needed = 0, uses_anonymous_args = 0
 3000              		@ link register save eliminated.
 3001              		.loc 1 246 2 view .LVU1075
 3002 0000 B6EE007A 		vmov.f32	s14, #5.0e-1
 3003 0004 D0ED0A6A 		vldr.32	s13, [r0, #40]
 247:DSP/FX/Reverb/revmodel.cpp **** 		return 1;
 248:DSP/FX/Reverb/revmodel.cpp **** 	else
 249:DSP/FX/Reverb/revmodel.cpp **** 		return 0;
 3004              		.loc 1 249 10 is_stmt 0 view .LVU1076
 3005 0008 B7EE000A 		vmov.f32	s0, #1.0e+0
 3006 000c DFED047A 		vldr.32	s15, .L158
 3007 0010 F4EEC76A 		vcmpe.f32	s13, s14
 3008 0014 F1EE10FA 		vmrs	APSR_nzcv, FPSCR
 250:DSP/FX/Reverb/revmodel.cpp **** }
 3009              		.loc 1 250 1 view .LVU1077
 3010 0018 20FE270A 		vselge.f32	s0, s0, s15
 3011 001c 7047     		bx	lr
 3012              	.L159:
 3013 001e 00BF     		.align	2
 3014              	.L158:
 3015 0020 00000000 		.word	0
 3016              		.cfi_endproc
 3017              	.LFE564:
ARM GAS  /var/folders/wz/z09yph4n0qj4t7mjxhl6ttn80000gn/T//ccKA8ZwU.s 			page 77


 3019              		.text
 3020              	.Letext0:
 3021              		.file 4 "/Library/DaisyToolchain/0.2.0/arm/arm-none-eabi/include/c++/10.3.1/cmath"
 3022              		.file 5 "/Library/DaisyToolchain/0.2.0/arm/arm-none-eabi/include/c++/10.3.1/bits/std_abs.h"
 3023              		.file 6 "/Library/DaisyToolchain/0.2.0/arm/arm-none-eabi/include/c++/10.3.1/arm-none-eabi/thumb/v7
 3024              		.file 7 "/Library/DaisyToolchain/0.2.0/arm/arm-none-eabi/include/math.h"
 3025              		.file 8 "/Library/DaisyToolchain/0.2.0/arm/arm-none-eabi/include/c++/10.3.1/math.h"
 3026              		.file 9 "DSP/FX/Reverb/tuning.h"
 3027              		.file 10 "DSP/FX/Reverb/revmodel.hpp"
 3028              		.file 11 "<built-in>"
ARM GAS  /var/folders/wz/z09yph4n0qj4t7mjxhl6ttn80000gn/T//ccKA8ZwU.s 			page 78

