ARM GAS  /var/folders/wz/z09yph4n0qj4t7mjxhl6ttn80000gn/T//cctRKH6Z.s 			page 1


   1              		.cpu cortex-m7
   2              		.arch armv7e-m
   3              		.fpu fpv5-d16
   4              		.eabi_attribute 28, 1
   5              		.eabi_attribute 20, 1
   6              		.eabi_attribute 21, 1
   7              		.eabi_attribute 23, 3
   8              		.eabi_attribute 24, 1
   9              		.eabi_attribute 25, 1
  10              		.eabi_attribute 26, 1
  11              		.eabi_attribute 30, 4
  12              		.eabi_attribute 34, 1
  13              		.eabi_attribute 18, 4
  14              		.file	"revmodel.cpp"
  15              		.text
  16              	.Ltext0:
  17              		.cfi_sections	.debug_frame
  18              		.section	.text._ZN4comb7processEf,"axG",%progbits,_ZN4comb7processEf,comdat
  19              		.align	1
  20              		.weak	_ZN4comb7processEf
  21              		.syntax unified
  22              		.thumb
  23              		.thumb_func
  25              	_ZN4comb7processEf:
  26              	.LVL0:
  27              	.LFB544:
  28              		.file 1 "DSP/FX/Reverb/comb.hpp"
   1:DSP/FX/Reverb/comb.hpp **** // Comb filter class declaration
   2:DSP/FX/Reverb/comb.hpp **** //
   3:DSP/FX/Reverb/comb.hpp **** // Written by Jezar at Dreampoint, June 2000
   4:DSP/FX/Reverb/comb.hpp **** // http://www.dreampoint.co.uk
   5:DSP/FX/Reverb/comb.hpp **** // This code is public domain
   6:DSP/FX/Reverb/comb.hpp **** 
   7:DSP/FX/Reverb/comb.hpp **** #ifndef _comb_
   8:DSP/FX/Reverb/comb.hpp **** #define _comb_
   9:DSP/FX/Reverb/comb.hpp **** 
  10:DSP/FX/Reverb/comb.hpp **** #include "denormals.h"
  11:DSP/FX/Reverb/comb.hpp **** 
  12:DSP/FX/Reverb/comb.hpp **** class comb
  13:DSP/FX/Reverb/comb.hpp **** {
  14:DSP/FX/Reverb/comb.hpp **** public:
  15:DSP/FX/Reverb/comb.hpp **** 					comb();
  16:DSP/FX/Reverb/comb.hpp **** 			void	setbuffer(float *buf, int size);
  17:DSP/FX/Reverb/comb.hpp **** 	inline  float	process(float inp);
  18:DSP/FX/Reverb/comb.hpp **** 			void	mute();
  19:DSP/FX/Reverb/comb.hpp **** 			void	setdamp(float val);
  20:DSP/FX/Reverb/comb.hpp **** 			float	getdamp();
  21:DSP/FX/Reverb/comb.hpp **** 			void	setfeedback(float val);
  22:DSP/FX/Reverb/comb.hpp **** 			float	getfeedback();
  23:DSP/FX/Reverb/comb.hpp **** private:
  24:DSP/FX/Reverb/comb.hpp **** 	float	feedback;
  25:DSP/FX/Reverb/comb.hpp **** 	float	filterstore;
  26:DSP/FX/Reverb/comb.hpp **** 	float	damp1;
  27:DSP/FX/Reverb/comb.hpp **** 	float	damp2;
  28:DSP/FX/Reverb/comb.hpp **** 	float	*buffer;
  29:DSP/FX/Reverb/comb.hpp **** 	int		bufsize;
  30:DSP/FX/Reverb/comb.hpp **** 	int		bufidx;
ARM GAS  /var/folders/wz/z09yph4n0qj4t7mjxhl6ttn80000gn/T//cctRKH6Z.s 			page 2


  31:DSP/FX/Reverb/comb.hpp **** };
  32:DSP/FX/Reverb/comb.hpp **** 
  33:DSP/FX/Reverb/comb.hpp **** 
  34:DSP/FX/Reverb/comb.hpp **** // Big to inline - but crucial for speed
  35:DSP/FX/Reverb/comb.hpp **** 
  36:DSP/FX/Reverb/comb.hpp **** inline float comb::process(float input)
  37:DSP/FX/Reverb/comb.hpp **** {
  29              		.loc 1 37 1 view -0
  30              		.cfi_startproc
  31              		@ args = 0, pretend = 0, frame = 0
  32              		@ frame_needed = 0, uses_anonymous_args = 0
  33              		@ link register save eliminated.
  38:DSP/FX/Reverb/comb.hpp **** 	float output;
  34              		.loc 1 38 2 view .LVU1
  39:DSP/FX/Reverb/comb.hpp **** 
  40:DSP/FX/Reverb/comb.hpp **** 	output = buffer[bufidx];
  35              		.loc 1 40 2 view .LVU2
  36              		.loc 1 40 18 is_stmt 0 view .LVU3
  37 0000 8269     		ldr	r2, [r0, #24]
  37:DSP/FX/Reverb/comb.hpp **** 	float output;
  38              		.loc 1 37 1 view .LVU4
  39 0002 B0EE407A 		vmov.f32	s14, s0
  40              		.loc 1 40 24 view .LVU5
  41 0006 0169     		ldr	r1, [r0, #16]
  41:DSP/FX/Reverb/comb.hpp **** 	undenormalise(output);
  42:DSP/FX/Reverb/comb.hpp **** 
  43:DSP/FX/Reverb/comb.hpp **** 	filterstore = (output*damp2) + (filterstore*damp1);
  42              		.loc 1 43 45 view .LVU6
  43 0008 D0ED017A 		vldr.32	s15, [r0, #4]
  40:DSP/FX/Reverb/comb.hpp **** 	undenormalise(output);
  44              		.loc 1 40 24 view .LVU7
  45 000c 01EB8201 		add	r1, r1, r2, lsl #2
  46              		.loc 1 43 45 view .LVU8
  47 0010 90ED026A 		vldr.32	s12, [r0, #8]
  41:DSP/FX/Reverb/comb.hpp **** 	undenormalise(output);
  48              		.loc 1 41 2 view .LVU9
  49 0014 DFED156A 		vldr.32	s13, .L6
  44:DSP/FX/Reverb/comb.hpp **** 	undenormalise(filterstore);
  45:DSP/FX/Reverb/comb.hpp **** 
  46:DSP/FX/Reverb/comb.hpp **** 	buffer[bufidx] = input + (filterstore*feedback);
  47:DSP/FX/Reverb/comb.hpp **** 
  48:DSP/FX/Reverb/comb.hpp **** 	if(++bufidx>=bufsize) bufidx = 0;
  50              		.loc 1 48 5 view .LVU10
  51 0018 0132     		adds	r2, r2, #1
  40:DSP/FX/Reverb/comb.hpp **** 	undenormalise(output);
  52              		.loc 1 40 24 view .LVU11
  53 001a 91ED000A 		vldr.32	s0, [r1]
  54              	.LVL1:
  41:DSP/FX/Reverb/comb.hpp **** 
  55              		.loc 1 41 2 is_stmt 1 view .LVU12
  43:DSP/FX/Reverb/comb.hpp **** 	undenormalise(filterstore);
  56              		.loc 1 43 45 is_stmt 0 view .LVU13
  57 001e 67EE867A 		vmul.f32	s15, s15, s12
  43:DSP/FX/Reverb/comb.hpp **** 	undenormalise(filterstore);
  58              		.loc 1 43 31 view .LVU14
  59 0022 90ED036A 		vldr.32	s12, [r0, #12]
  41:DSP/FX/Reverb/comb.hpp **** 
ARM GAS  /var/folders/wz/z09yph4n0qj4t7mjxhl6ttn80000gn/T//cctRKH6Z.s 			page 3


  60              		.loc 1 41 2 view .LVU15
  61 0026 10EE103A 		vmov	r3, s0	@ int
  62 002a 13F0FF4F 		tst	r3, #2139095040
  63 002e 06FE800A 		vseleq.f32	s0, s13, s0
  64              	.LVL2:
  43:DSP/FX/Reverb/comb.hpp **** 	undenormalise(filterstore);
  65              		.loc 1 43 2 is_stmt 1 view .LVU16
  43:DSP/FX/Reverb/comb.hpp **** 	undenormalise(filterstore);
  66              		.loc 1 43 31 is_stmt 0 view .LVU17
  67 0032 E6EE007A 		vfma.f32	s15, s12, s0
  68 0036 17EE903A 		vmov	r3, s15
  44:DSP/FX/Reverb/comb.hpp **** 	undenormalise(filterstore);
  69              		.loc 1 44 2 is_stmt 1 view .LVU18
  46:DSP/FX/Reverb/comb.hpp **** 
  70              		.loc 1 46 25 is_stmt 0 view .LVU19
  71 003a F0EE477A 		vmov.f32	s15, s14
  44:DSP/FX/Reverb/comb.hpp **** 
  72              		.loc 1 44 2 view .LVU20
  73 003e 13F0FF4F 		tst	r3, #2139095040
  43:DSP/FX/Reverb/comb.hpp **** 	undenormalise(filterstore);
  74              		.loc 1 43 14 view .LVU21
  75 0042 14BF     		ite	ne
  76 0044 4360     		strne	r3, [r0, #4]	@ float
  44:DSP/FX/Reverb/comb.hpp **** 
  77              		.loc 1 44 2 is_stmt 1 view .LVU22
  78 0046 C0ED016A 		vstreq.32	s13, [r0, #4]
  46:DSP/FX/Reverb/comb.hpp **** 
  79              		.loc 1 46 2 view .LVU23
  46:DSP/FX/Reverb/comb.hpp **** 
  80              		.loc 1 46 25 is_stmt 0 view .LVU24
  81 004a D0ED006A 		vldr.32	s13, [r0]
  82 004e 90ED016A 		vldr.32	s12, [r0, #4]
  83              		.loc 1 48 2 view .LVU25
  84 0052 4369     		ldr	r3, [r0, #20]
  46:DSP/FX/Reverb/comb.hpp **** 
  85              		.loc 1 46 25 view .LVU26
  86 0054 E6EE267A 		vfma.f32	s15, s12, s13
  87              		.loc 1 48 2 view .LVU27
  88 0058 9A42     		cmp	r2, r3
  89              		.loc 1 48 31 view .LVU28
  90 005a A8BF     		it	ge
  91 005c 0023     		movge	r3, #0
  46:DSP/FX/Reverb/comb.hpp **** 
  92              		.loc 1 46 17 view .LVU29
  93 005e C1ED007A 		vstr.32	s15, [r1]
  94              		.loc 1 48 2 is_stmt 1 view .LVU30
  95              		.loc 1 48 24 view .LVU31
  96              		.loc 1 48 13 is_stmt 0 view .LVU32
  97 0062 8261     		str	r2, [r0, #24]
  98              		.loc 1 48 31 view .LVU33
  99 0064 A8BF     		it	ge
 100 0066 8361     		strge	r3, [r0, #24]
  49:DSP/FX/Reverb/comb.hpp **** 
  50:DSP/FX/Reverb/comb.hpp **** 	return output;
 101              		.loc 1 50 2 is_stmt 1 view .LVU34
 102              	.LVL3:
  51:DSP/FX/Reverb/comb.hpp **** }
ARM GAS  /var/folders/wz/z09yph4n0qj4t7mjxhl6ttn80000gn/T//cctRKH6Z.s 			page 4


 103              		.loc 1 51 1 is_stmt 0 view .LVU35
 104 0068 7047     		bx	lr
 105              	.L7:
 106 006a 00BF     		.align	2
 107              	.L6:
 108 006c 00000000 		.word	0
 109              		.cfi_endproc
 110              	.LFE544:
 112              		.section	.text._ZN7allpass7processEf,"axG",%progbits,_ZN7allpass7processEf,comdat
 113              		.align	1
 114              		.weak	_ZN7allpass7processEf
 115              		.syntax unified
 116              		.thumb
 117              		.thumb_func
 119              	_ZN7allpass7processEf:
 120              	.LVL4:
 121              	.LFB545:
 122              		.file 2 "DSP/FX/Reverb/allpass.hpp"
   1:DSP/FX/Reverb/allpass.hpp **** // Allpass filter declaration
   2:DSP/FX/Reverb/allpass.hpp **** //
   3:DSP/FX/Reverb/allpass.hpp **** // Written by Jezar at Dreampoint, June 2000
   4:DSP/FX/Reverb/allpass.hpp **** // http://www.dreampoint.co.uk
   5:DSP/FX/Reverb/allpass.hpp **** // This code is public domain
   6:DSP/FX/Reverb/allpass.hpp **** 
   7:DSP/FX/Reverb/allpass.hpp **** #ifndef _allpass_
   8:DSP/FX/Reverb/allpass.hpp **** #define _allpass_
   9:DSP/FX/Reverb/allpass.hpp **** #include "denormals.h"
  10:DSP/FX/Reverb/allpass.hpp **** 
  11:DSP/FX/Reverb/allpass.hpp **** class allpass
  12:DSP/FX/Reverb/allpass.hpp **** {
  13:DSP/FX/Reverb/allpass.hpp **** public:
  14:DSP/FX/Reverb/allpass.hpp **** 					allpass();
  15:DSP/FX/Reverb/allpass.hpp **** 			void	setbuffer(float *buf, int size);
  16:DSP/FX/Reverb/allpass.hpp **** 	inline  float	process(float inp);
  17:DSP/FX/Reverb/allpass.hpp **** 			void	mute();
  18:DSP/FX/Reverb/allpass.hpp **** 			void	setfeedback(float val);
  19:DSP/FX/Reverb/allpass.hpp **** 			float	getfeedback();
  20:DSP/FX/Reverb/allpass.hpp **** // private:
  21:DSP/FX/Reverb/allpass.hpp **** 	float	feedback;
  22:DSP/FX/Reverb/allpass.hpp **** 	float	*buffer;
  23:DSP/FX/Reverb/allpass.hpp **** 	int		bufsize;
  24:DSP/FX/Reverb/allpass.hpp **** 	int		bufidx;
  25:DSP/FX/Reverb/allpass.hpp **** };
  26:DSP/FX/Reverb/allpass.hpp **** 
  27:DSP/FX/Reverb/allpass.hpp **** 
  28:DSP/FX/Reverb/allpass.hpp **** // Big to inline - but crucial for speed
  29:DSP/FX/Reverb/allpass.hpp **** 
  30:DSP/FX/Reverb/allpass.hpp **** inline float allpass::process(float input)
  31:DSP/FX/Reverb/allpass.hpp **** {
 123              		.loc 2 31 1 is_stmt 1 view -0
 124              		.cfi_startproc
 125              		@ args = 0, pretend = 0, frame = 0
 126              		@ frame_needed = 0, uses_anonymous_args = 0
 127              		@ link register save eliminated.
  32:DSP/FX/Reverb/allpass.hpp **** 	float output;
 128              		.loc 2 32 2 view .LVU37
  33:DSP/FX/Reverb/allpass.hpp **** 	float bufout;
ARM GAS  /var/folders/wz/z09yph4n0qj4t7mjxhl6ttn80000gn/T//cctRKH6Z.s 			page 5


 129              		.loc 2 33 2 view .LVU38
  34:DSP/FX/Reverb/allpass.hpp **** 	
  35:DSP/FX/Reverb/allpass.hpp **** 	bufout = buffer[bufidx];
 130              		.loc 2 35 2 view .LVU39
 131              		.loc 2 35 18 is_stmt 0 view .LVU40
 132 0000 C368     		ldr	r3, [r0, #12]
  31:DSP/FX/Reverb/allpass.hpp **** 	float output;
 133              		.loc 2 31 1 view .LVU41
 134 0002 F0EE407A 		vmov.f32	s15, s0
 135              		.loc 2 35 24 view .LVU42
 136 0006 4268     		ldr	r2, [r0, #4]
  36:DSP/FX/Reverb/allpass.hpp **** 	undenormalise(bufout);
 137              		.loc 2 36 2 view .LVU43
 138 0008 DFED0D6A 		vldr.32	s13, .L11
  35:DSP/FX/Reverb/allpass.hpp **** 	undenormalise(bufout);
 139              		.loc 2 35 24 view .LVU44
 140 000c 02EB8302 		add	r2, r2, r3, lsl #2
  37:DSP/FX/Reverb/allpass.hpp **** 	
  38:DSP/FX/Reverb/allpass.hpp **** 	output = -input + bufout;
  39:DSP/FX/Reverb/allpass.hpp **** 	buffer[bufidx] = input + (bufout*feedback);
  40:DSP/FX/Reverb/allpass.hpp **** 
  41:DSP/FX/Reverb/allpass.hpp **** 	if(++bufidx>=bufsize) bufidx = 0;
 141              		.loc 2 41 5 view .LVU45
 142 0010 0133     		adds	r3, r3, #1
  35:DSP/FX/Reverb/allpass.hpp **** 	undenormalise(bufout);
 143              		.loc 2 35 24 view .LVU46
 144 0012 92ED007A 		vldr.32	s14, [r2]
 145              	.LVL5:
  36:DSP/FX/Reverb/allpass.hpp **** 	
 146              		.loc 2 36 2 is_stmt 1 view .LVU47
 147 0016 17EE101A 		vmov	r1, s14	@ int
 148 001a 11F0FF4F 		tst	r1, #2139095040
 149 001e 06FE877A 		vseleq.f32	s14, s13, s14
 150              	.LVL6:
  38:DSP/FX/Reverb/allpass.hpp **** 	buffer[bufidx] = input + (bufout*feedback);
 151              		.loc 2 38 2 view .LVU48
  39:DSP/FX/Reverb/allpass.hpp **** 
 152              		.loc 2 39 25 is_stmt 0 view .LVU49
 153 0022 D0ED006A 		vldr.32	s13, [r0]
  38:DSP/FX/Reverb/allpass.hpp **** 	buffer[bufidx] = input + (bufout*feedback);
 154              		.loc 2 38 9 view .LVU50
 155 0026 37EE400A 		vsub.f32	s0, s14, s0
 156              	.LVL7:
  39:DSP/FX/Reverb/allpass.hpp **** 
 157              		.loc 2 39 2 is_stmt 1 view .LVU51
  39:DSP/FX/Reverb/allpass.hpp **** 
 158              		.loc 2 39 25 is_stmt 0 view .LVU52
 159 002a E6EE877A 		vfma.f32	s15, s13, s14
 160              	.LVL8:
  39:DSP/FX/Reverb/allpass.hpp **** 
 161              		.loc 2 39 17 view .LVU53
 162 002e C2ED007A 		vstr.32	s15, [r2]
 163              		.loc 2 41 2 is_stmt 1 view .LVU54
 164 0032 8268     		ldr	r2, [r0, #8]
 165              		.loc 2 41 13 is_stmt 0 view .LVU55
 166 0034 C360     		str	r3, [r0, #12]
 167              		.loc 2 41 2 view .LVU56
ARM GAS  /var/folders/wz/z09yph4n0qj4t7mjxhl6ttn80000gn/T//cctRKH6Z.s 			page 6


 168 0036 9342     		cmp	r3, r2
 169              		.loc 2 41 24 is_stmt 1 view .LVU57
 170              		.loc 2 41 31 is_stmt 0 view .LVU58
 171 0038 A4BF     		itt	ge
 172 003a 0023     		movge	r3, #0
 173 003c C360     		strge	r3, [r0, #12]
  42:DSP/FX/Reverb/allpass.hpp **** 
  43:DSP/FX/Reverb/allpass.hpp **** 	return output;
 174              		.loc 2 43 2 is_stmt 1 view .LVU59
 175              	.LVL9:
  44:DSP/FX/Reverb/allpass.hpp **** }
 176              		.loc 2 44 1 is_stmt 0 view .LVU60
 177 003e 7047     		bx	lr
 178              	.L12:
 179              		.align	2
 180              	.L11:
 181 0040 00000000 		.word	0
 182              		.cfi_endproc
 183              	.LFE545:
 185              		.section	.text._ZN8revmodel4muteEv,"ax",%progbits
 186              		.align	1
 187              		.global	_ZN8revmodel4muteEv
 188              		.syntax unified
 189              		.thumb
 190              		.thumb_func
 192              	_ZN8revmodel4muteEv:
 193              	.LVL10:
 194              	.LFB549:
 195              		.file 3 "DSP/FX/Reverb/revmodel.cpp"
   1:DSP/FX/Reverb/revmodel.cpp **** // Reverb model implementation
   2:DSP/FX/Reverb/revmodel.cpp **** //
   3:DSP/FX/Reverb/revmodel.cpp **** // Written by Jezar at Dreampoint, June 2000
   4:DSP/FX/Reverb/revmodel.cpp **** // http://www.dreampoint.co.uk
   5:DSP/FX/Reverb/revmodel.cpp **** // This code is public domain
   6:DSP/FX/Reverb/revmodel.cpp **** 
   7:DSP/FX/Reverb/revmodel.cpp **** #include "revmodel.hpp"
   8:DSP/FX/Reverb/revmodel.cpp **** 
   9:DSP/FX/Reverb/revmodel.cpp **** revmodel::revmodel()
  10:DSP/FX/Reverb/revmodel.cpp **** {
  11:DSP/FX/Reverb/revmodel.cpp **** 	// Tie the components to their buffers
  12:DSP/FX/Reverb/revmodel.cpp **** 	combL[0].setbuffer(bufcombL1,combtuningL1);
  13:DSP/FX/Reverb/revmodel.cpp **** 	combR[0].setbuffer(bufcombR1,combtuningR1);
  14:DSP/FX/Reverb/revmodel.cpp **** 	combL[1].setbuffer(bufcombL2,combtuningL2);
  15:DSP/FX/Reverb/revmodel.cpp **** 	combR[1].setbuffer(bufcombR2,combtuningR2);
  16:DSP/FX/Reverb/revmodel.cpp **** 	combL[2].setbuffer(bufcombL3,combtuningL3);
  17:DSP/FX/Reverb/revmodel.cpp **** 	combR[2].setbuffer(bufcombR3,combtuningR3);
  18:DSP/FX/Reverb/revmodel.cpp **** 	combL[3].setbuffer(bufcombL4,combtuningL4);
  19:DSP/FX/Reverb/revmodel.cpp **** 	combR[3].setbuffer(bufcombR4,combtuningR4);
  20:DSP/FX/Reverb/revmodel.cpp **** 	combL[4].setbuffer(bufcombL5,combtuningL5);
  21:DSP/FX/Reverb/revmodel.cpp **** 	combR[4].setbuffer(bufcombR5,combtuningR5);
  22:DSP/FX/Reverb/revmodel.cpp **** 	combL[5].setbuffer(bufcombL6,combtuningL6);
  23:DSP/FX/Reverb/revmodel.cpp **** 	combR[5].setbuffer(bufcombR6,combtuningR6);
  24:DSP/FX/Reverb/revmodel.cpp **** 	combL[6].setbuffer(bufcombL7,combtuningL7);
  25:DSP/FX/Reverb/revmodel.cpp **** 	combR[6].setbuffer(bufcombR7,combtuningR7);
  26:DSP/FX/Reverb/revmodel.cpp **** 	combL[7].setbuffer(bufcombL8,combtuningL8);
  27:DSP/FX/Reverb/revmodel.cpp **** 	combR[7].setbuffer(bufcombR8,combtuningR8);
  28:DSP/FX/Reverb/revmodel.cpp **** 	allpassL[0].setbuffer(bufallpassL1,allpasstuningL1);
ARM GAS  /var/folders/wz/z09yph4n0qj4t7mjxhl6ttn80000gn/T//cctRKH6Z.s 			page 7


  29:DSP/FX/Reverb/revmodel.cpp **** 	allpassR[0].setbuffer(bufallpassR1,allpasstuningR1);
  30:DSP/FX/Reverb/revmodel.cpp **** 	allpassL[1].setbuffer(bufallpassL2,allpasstuningL2);
  31:DSP/FX/Reverb/revmodel.cpp **** 	allpassR[1].setbuffer(bufallpassR2,allpasstuningR2);
  32:DSP/FX/Reverb/revmodel.cpp **** 	allpassL[2].setbuffer(bufallpassL3,allpasstuningL3);
  33:DSP/FX/Reverb/revmodel.cpp **** 	allpassR[2].setbuffer(bufallpassR3,allpasstuningR3);
  34:DSP/FX/Reverb/revmodel.cpp **** 	allpassL[3].setbuffer(bufallpassL4,allpasstuningL4);
  35:DSP/FX/Reverb/revmodel.cpp **** 	allpassR[3].setbuffer(bufallpassR4,allpasstuningR4);
  36:DSP/FX/Reverb/revmodel.cpp **** 
  37:DSP/FX/Reverb/revmodel.cpp **** 	// Set default values
  38:DSP/FX/Reverb/revmodel.cpp **** 	allpassL[0].setfeedback(0.5f);
  39:DSP/FX/Reverb/revmodel.cpp **** 	allpassR[0].setfeedback(0.5f);
  40:DSP/FX/Reverb/revmodel.cpp **** 	allpassL[1].setfeedback(0.5f);
  41:DSP/FX/Reverb/revmodel.cpp **** 	allpassR[1].setfeedback(0.5f);
  42:DSP/FX/Reverb/revmodel.cpp **** 	allpassL[2].setfeedback(0.5f);
  43:DSP/FX/Reverb/revmodel.cpp **** 	allpassR[2].setfeedback(0.5f);
  44:DSP/FX/Reverb/revmodel.cpp **** 	allpassL[3].setfeedback(0.5f);
  45:DSP/FX/Reverb/revmodel.cpp **** 	allpassR[3].setfeedback(0.5f);
  46:DSP/FX/Reverb/revmodel.cpp **** 	setwet(initialwet);
  47:DSP/FX/Reverb/revmodel.cpp **** 	setroomsize(initialroom);
  48:DSP/FX/Reverb/revmodel.cpp **** 	setdry(initialdry);
  49:DSP/FX/Reverb/revmodel.cpp **** 	setdamp(initialdamp);
  50:DSP/FX/Reverb/revmodel.cpp **** 	setwidth(initialwidth);
  51:DSP/FX/Reverb/revmodel.cpp **** 	setmode(initialmode);
  52:DSP/FX/Reverb/revmodel.cpp **** 
  53:DSP/FX/Reverb/revmodel.cpp **** 	// Buffer will be full of rubbish - so we MUST mute them
  54:DSP/FX/Reverb/revmodel.cpp **** 	mute();
  55:DSP/FX/Reverb/revmodel.cpp **** }
  56:DSP/FX/Reverb/revmodel.cpp **** 
  57:DSP/FX/Reverb/revmodel.cpp **** void revmodel::mute()
  58:DSP/FX/Reverb/revmodel.cpp **** {
 196              		.loc 3 58 1 is_stmt 1 view -0
 197              		.cfi_startproc
 198              		@ args = 0, pretend = 0, frame = 0
 199              		@ frame_needed = 0, uses_anonymous_args = 0
  59:DSP/FX/Reverb/revmodel.cpp **** 	if (getmode() >= freezemode)
 200              		.loc 3 59 2 view .LVU62
 201              	.LBB32:
 202              	.LBI32:
  60:DSP/FX/Reverb/revmodel.cpp **** 		return;
  61:DSP/FX/Reverb/revmodel.cpp **** 
  62:DSP/FX/Reverb/revmodel.cpp **** 	for (int i=0;i<numcombs;i++)
  63:DSP/FX/Reverb/revmodel.cpp **** 	{
  64:DSP/FX/Reverb/revmodel.cpp **** 		combL[i].mute();
  65:DSP/FX/Reverb/revmodel.cpp **** 		combR[i].mute();
  66:DSP/FX/Reverb/revmodel.cpp **** 	}
  67:DSP/FX/Reverb/revmodel.cpp **** 	for (int j=0;j<numallpasses;j++)
  68:DSP/FX/Reverb/revmodel.cpp **** 	{
  69:DSP/FX/Reverb/revmodel.cpp **** 		allpassL[j].mute();
  70:DSP/FX/Reverb/revmodel.cpp **** 		allpassR[j].mute();
  71:DSP/FX/Reverb/revmodel.cpp **** 	}
  72:DSP/FX/Reverb/revmodel.cpp **** }
  73:DSP/FX/Reverb/revmodel.cpp **** 
  74:DSP/FX/Reverb/revmodel.cpp **** void revmodel::processreplace(float *inputL, float *inputR, float *outputL, float *outputR, long nu
  75:DSP/FX/Reverb/revmodel.cpp **** {
  76:DSP/FX/Reverb/revmodel.cpp **** 	float outL,outR,input;
  77:DSP/FX/Reverb/revmodel.cpp **** 
  78:DSP/FX/Reverb/revmodel.cpp **** 	while(numsamples-- > 0)
ARM GAS  /var/folders/wz/z09yph4n0qj4t7mjxhl6ttn80000gn/T//cctRKH6Z.s 			page 8


  79:DSP/FX/Reverb/revmodel.cpp **** 	{
  80:DSP/FX/Reverb/revmodel.cpp **** 		outL = outR = 0;
  81:DSP/FX/Reverb/revmodel.cpp **** 		input = (*inputL + *inputR) * gain;
  82:DSP/FX/Reverb/revmodel.cpp **** 
  83:DSP/FX/Reverb/revmodel.cpp **** 		// Accumulate comb filters in parallel
  84:DSP/FX/Reverb/revmodel.cpp **** 		for(int i=0; i<numcombs; i++)
  85:DSP/FX/Reverb/revmodel.cpp **** 		{
  86:DSP/FX/Reverb/revmodel.cpp **** 			outL += combL[i].process(input);
  87:DSP/FX/Reverb/revmodel.cpp **** 			outR += combR[i].process(input);
  88:DSP/FX/Reverb/revmodel.cpp **** 		}
  89:DSP/FX/Reverb/revmodel.cpp **** 
  90:DSP/FX/Reverb/revmodel.cpp **** 		// Feed through allpasses in series
  91:DSP/FX/Reverb/revmodel.cpp **** 		for(int j=0; j<numallpasses; j++)
  92:DSP/FX/Reverb/revmodel.cpp **** 		{
  93:DSP/FX/Reverb/revmodel.cpp **** 			outL = allpassL[j].process(outL);
  94:DSP/FX/Reverb/revmodel.cpp **** 			outR = allpassR[j].process(outR);
  95:DSP/FX/Reverb/revmodel.cpp **** 		}
  96:DSP/FX/Reverb/revmodel.cpp **** 
  97:DSP/FX/Reverb/revmodel.cpp **** 		// Calculate output REPLACING anything already there
  98:DSP/FX/Reverb/revmodel.cpp **** 		*outputL = outL*wet1 + outR*wet2 + *inputL*dry;
  99:DSP/FX/Reverb/revmodel.cpp **** 		*outputR = outR*wet1 + outL*wet2 + *inputR*dry;
 100:DSP/FX/Reverb/revmodel.cpp **** 
 101:DSP/FX/Reverb/revmodel.cpp **** 		// Increment sample pointers, allowing for interleave (if any)
 102:DSP/FX/Reverb/revmodel.cpp **** 		inputL += skip;
 103:DSP/FX/Reverb/revmodel.cpp **** 		inputR += skip;
 104:DSP/FX/Reverb/revmodel.cpp **** 		outputL += skip;
 105:DSP/FX/Reverb/revmodel.cpp **** 		outputR += skip;
 106:DSP/FX/Reverb/revmodel.cpp **** 	}
 107:DSP/FX/Reverb/revmodel.cpp **** }
 108:DSP/FX/Reverb/revmodel.cpp **** 
 109:DSP/FX/Reverb/revmodel.cpp **** void revmodel::processmix(float *inputL, float *inputR, float *outputL, float *outputR, long numsam
 110:DSP/FX/Reverb/revmodel.cpp **** {
 111:DSP/FX/Reverb/revmodel.cpp **** 	float outL,outR,input;
 112:DSP/FX/Reverb/revmodel.cpp **** 
 113:DSP/FX/Reverb/revmodel.cpp **** 	while(numsamples-- > 0)
 114:DSP/FX/Reverb/revmodel.cpp **** 	{
 115:DSP/FX/Reverb/revmodel.cpp **** 		outL = outR = 0;
 116:DSP/FX/Reverb/revmodel.cpp **** 		input = (*inputL + *inputR) * gain;
 117:DSP/FX/Reverb/revmodel.cpp **** 
 118:DSP/FX/Reverb/revmodel.cpp **** 		// Accumulate comb filters in parallel
 119:DSP/FX/Reverb/revmodel.cpp **** 		for(int i=0; i<numcombs; i++)
 120:DSP/FX/Reverb/revmodel.cpp **** 		{
 121:DSP/FX/Reverb/revmodel.cpp **** 			outL += combL[i].process(input);
 122:DSP/FX/Reverb/revmodel.cpp **** 			outR += combR[i].process(input);
 123:DSP/FX/Reverb/revmodel.cpp **** 		}
 124:DSP/FX/Reverb/revmodel.cpp **** 
 125:DSP/FX/Reverb/revmodel.cpp **** 		// Feed through allpasses in series
 126:DSP/FX/Reverb/revmodel.cpp **** 		for(int j=0; j<numallpasses; j++)
 127:DSP/FX/Reverb/revmodel.cpp **** 		{
 128:DSP/FX/Reverb/revmodel.cpp **** 			outL = allpassL[j].process(outL);
 129:DSP/FX/Reverb/revmodel.cpp **** 			outR = allpassR[j].process(outR);
 130:DSP/FX/Reverb/revmodel.cpp **** 		}
 131:DSP/FX/Reverb/revmodel.cpp **** 
 132:DSP/FX/Reverb/revmodel.cpp **** 		// Calculate output MIXING with anything already there
 133:DSP/FX/Reverb/revmodel.cpp **** 		*outputL += outL*wet1 + outR*wet2 + *inputL*dry;
 134:DSP/FX/Reverb/revmodel.cpp **** 		*outputR += outR*wet1 + outL*wet2 + *inputR*dry;
 135:DSP/FX/Reverb/revmodel.cpp **** 
ARM GAS  /var/folders/wz/z09yph4n0qj4t7mjxhl6ttn80000gn/T//cctRKH6Z.s 			page 9


 136:DSP/FX/Reverb/revmodel.cpp **** 		// Increment sample pointers, allowing for interleave (if any)
 137:DSP/FX/Reverb/revmodel.cpp **** 		inputL += skip;
 138:DSP/FX/Reverb/revmodel.cpp **** 		inputR += skip;
 139:DSP/FX/Reverb/revmodel.cpp **** 		outputL += skip;
 140:DSP/FX/Reverb/revmodel.cpp **** 		outputR += skip;
 141:DSP/FX/Reverb/revmodel.cpp **** 	}
 142:DSP/FX/Reverb/revmodel.cpp **** }
 143:DSP/FX/Reverb/revmodel.cpp **** 
 144:DSP/FX/Reverb/revmodel.cpp **** void revmodel::update()
 145:DSP/FX/Reverb/revmodel.cpp **** {
 146:DSP/FX/Reverb/revmodel.cpp **** // Recalculate internal values after parameter change
 147:DSP/FX/Reverb/revmodel.cpp **** 
 148:DSP/FX/Reverb/revmodel.cpp **** 	int i;
 149:DSP/FX/Reverb/revmodel.cpp **** 
 150:DSP/FX/Reverb/revmodel.cpp **** 	wet1 = wet*(width/2 + 0.5f);
 151:DSP/FX/Reverb/revmodel.cpp **** 	wet2 = wet*((1-width)/2);
 152:DSP/FX/Reverb/revmodel.cpp **** 
 153:DSP/FX/Reverb/revmodel.cpp **** 	if (mode >= freezemode)
 154:DSP/FX/Reverb/revmodel.cpp **** 	{
 155:DSP/FX/Reverb/revmodel.cpp **** 		roomsize1 = 1;
 156:DSP/FX/Reverb/revmodel.cpp **** 		damp1 = 0;
 157:DSP/FX/Reverb/revmodel.cpp **** 		gain = muted;
 158:DSP/FX/Reverb/revmodel.cpp **** 	}
 159:DSP/FX/Reverb/revmodel.cpp **** 	else
 160:DSP/FX/Reverb/revmodel.cpp **** 	{
 161:DSP/FX/Reverb/revmodel.cpp **** 		roomsize1 = roomsize;
 162:DSP/FX/Reverb/revmodel.cpp **** 		damp1 = damp;
 163:DSP/FX/Reverb/revmodel.cpp **** 		gain = fixedgain;
 164:DSP/FX/Reverb/revmodel.cpp **** 	}
 165:DSP/FX/Reverb/revmodel.cpp **** 
 166:DSP/FX/Reverb/revmodel.cpp **** 	for(i=0; i<numcombs; i++)
 167:DSP/FX/Reverb/revmodel.cpp **** 	{
 168:DSP/FX/Reverb/revmodel.cpp **** 		combL[i].setfeedback(roomsize1);
 169:DSP/FX/Reverb/revmodel.cpp **** 		combR[i].setfeedback(roomsize1);
 170:DSP/FX/Reverb/revmodel.cpp **** 	}
 171:DSP/FX/Reverb/revmodel.cpp **** 
 172:DSP/FX/Reverb/revmodel.cpp **** 	for(i=0; i<numcombs; i++)
 173:DSP/FX/Reverb/revmodel.cpp **** 	{
 174:DSP/FX/Reverb/revmodel.cpp **** 		combL[i].setdamp(damp1);
 175:DSP/FX/Reverb/revmodel.cpp **** 		combR[i].setdamp(damp1);
 176:DSP/FX/Reverb/revmodel.cpp **** 	}
 177:DSP/FX/Reverb/revmodel.cpp **** }
 178:DSP/FX/Reverb/revmodel.cpp **** 
 179:DSP/FX/Reverb/revmodel.cpp **** // The following get/set functions are not inlined, because
 180:DSP/FX/Reverb/revmodel.cpp **** // speed is never an issue when calling them, and also
 181:DSP/FX/Reverb/revmodel.cpp **** // because as you develop the reverb model, you may
 182:DSP/FX/Reverb/revmodel.cpp **** // wish to take dynamic action when they are called.
 183:DSP/FX/Reverb/revmodel.cpp **** 
 184:DSP/FX/Reverb/revmodel.cpp **** void revmodel::setroomsize(float value)
 185:DSP/FX/Reverb/revmodel.cpp **** {
 186:DSP/FX/Reverb/revmodel.cpp **** 	roomsize = (value*scaleroom) + offsetroom;
 187:DSP/FX/Reverb/revmodel.cpp **** 	update();
 188:DSP/FX/Reverb/revmodel.cpp **** }
 189:DSP/FX/Reverb/revmodel.cpp **** 
 190:DSP/FX/Reverb/revmodel.cpp **** float revmodel::getroomsize()
 191:DSP/FX/Reverb/revmodel.cpp **** {
 192:DSP/FX/Reverb/revmodel.cpp **** 	return (roomsize-offsetroom)/scaleroom;
ARM GAS  /var/folders/wz/z09yph4n0qj4t7mjxhl6ttn80000gn/T//cctRKH6Z.s 			page 10


 193:DSP/FX/Reverb/revmodel.cpp **** }
 194:DSP/FX/Reverb/revmodel.cpp **** 
 195:DSP/FX/Reverb/revmodel.cpp **** void revmodel::setdamp(float value)
 196:DSP/FX/Reverb/revmodel.cpp **** {
 197:DSP/FX/Reverb/revmodel.cpp **** 	damp = value*scaledamp;
 198:DSP/FX/Reverb/revmodel.cpp **** 	update();
 199:DSP/FX/Reverb/revmodel.cpp **** }
 200:DSP/FX/Reverb/revmodel.cpp **** 
 201:DSP/FX/Reverb/revmodel.cpp **** float revmodel::getdamp()
 202:DSP/FX/Reverb/revmodel.cpp **** {
 203:DSP/FX/Reverb/revmodel.cpp **** 	return damp/scaledamp;
 204:DSP/FX/Reverb/revmodel.cpp **** }
 205:DSP/FX/Reverb/revmodel.cpp **** 
 206:DSP/FX/Reverb/revmodel.cpp **** void revmodel::setwet(float value)
 207:DSP/FX/Reverb/revmodel.cpp **** {
 208:DSP/FX/Reverb/revmodel.cpp **** 	wet = value*scalewet;
 209:DSP/FX/Reverb/revmodel.cpp **** 	update();
 210:DSP/FX/Reverb/revmodel.cpp **** }
 211:DSP/FX/Reverb/revmodel.cpp **** 
 212:DSP/FX/Reverb/revmodel.cpp **** float revmodel::getwet()
 213:DSP/FX/Reverb/revmodel.cpp **** {
 214:DSP/FX/Reverb/revmodel.cpp **** 	return wet/scalewet;
 215:DSP/FX/Reverb/revmodel.cpp **** }
 216:DSP/FX/Reverb/revmodel.cpp **** 
 217:DSP/FX/Reverb/revmodel.cpp **** void revmodel::setdry(float value)
 218:DSP/FX/Reverb/revmodel.cpp **** {
 219:DSP/FX/Reverb/revmodel.cpp **** 	dry = value*scaledry;
 220:DSP/FX/Reverb/revmodel.cpp **** }
 221:DSP/FX/Reverb/revmodel.cpp **** 
 222:DSP/FX/Reverb/revmodel.cpp **** float revmodel::getdry()
 223:DSP/FX/Reverb/revmodel.cpp **** {
 224:DSP/FX/Reverb/revmodel.cpp **** 	return dry/scaledry;
 225:DSP/FX/Reverb/revmodel.cpp **** }
 226:DSP/FX/Reverb/revmodel.cpp **** 
 227:DSP/FX/Reverb/revmodel.cpp **** void revmodel::setwidth(float value)
 228:DSP/FX/Reverb/revmodel.cpp **** {
 229:DSP/FX/Reverb/revmodel.cpp **** 	width = value;
 230:DSP/FX/Reverb/revmodel.cpp **** 	update();
 231:DSP/FX/Reverb/revmodel.cpp **** }
 232:DSP/FX/Reverb/revmodel.cpp **** 
 233:DSP/FX/Reverb/revmodel.cpp **** float revmodel::getwidth()
 234:DSP/FX/Reverb/revmodel.cpp **** {
 235:DSP/FX/Reverb/revmodel.cpp **** 	return width;
 236:DSP/FX/Reverb/revmodel.cpp **** }
 237:DSP/FX/Reverb/revmodel.cpp **** 
 238:DSP/FX/Reverb/revmodel.cpp **** void revmodel::setmode(float value)
 239:DSP/FX/Reverb/revmodel.cpp **** {
 240:DSP/FX/Reverb/revmodel.cpp **** 	mode = value;
 241:DSP/FX/Reverb/revmodel.cpp **** 	update();
 242:DSP/FX/Reverb/revmodel.cpp **** }
 243:DSP/FX/Reverb/revmodel.cpp **** 
 244:DSP/FX/Reverb/revmodel.cpp **** float revmodel::getmode()
 203              		.loc 3 244 7 view .LVU63
 204              	.LBB33:
 245:DSP/FX/Reverb/revmodel.cpp **** {
 246:DSP/FX/Reverb/revmodel.cpp **** 	if (mode >= freezemode)
 205              		.loc 3 246 2 view .LVU64
ARM GAS  /var/folders/wz/z09yph4n0qj4t7mjxhl6ttn80000gn/T//cctRKH6Z.s 			page 11


 206 0000 F6EE007A 		vmov.f32	s15, #5.0e-1
 207 0004 90ED0A7A 		vldr.32	s14, [r0, #40]
 208              	.LBE33:
 209              	.LBE32:
  58:DSP/FX/Reverb/revmodel.cpp **** 	if (getmode() >= freezemode)
 210              		.loc 3 58 1 is_stmt 0 view .LVU65
 211 0008 70B5     		push	{r4, r5, r6, lr}
 212              		.cfi_def_cfa_offset 16
 213              		.cfi_offset 4, -16
 214              		.cfi_offset 5, -12
 215              		.cfi_offset 6, -8
 216              		.cfi_offset 14, -4
 217              	.LBB36:
 218              	.LBB34:
 219              		.loc 3 246 2 view .LVU66
 220 000a B4EEE77A 		vcmpe.f32	s14, s15
 221              	.LBE34:
 222              	.LBE36:
  58:DSP/FX/Reverb/revmodel.cpp **** 	if (getmode() >= freezemode)
 223              		.loc 3 58 1 view .LVU67
 224 000e 0446     		mov	r4, r0
 225              	.LBB37:
 226              	.LBB35:
 227              		.loc 3 246 2 view .LVU68
 228 0010 F1EE10FA 		vmrs	APSR_nzcv, FPSCR
 229 0014 1BDA     		bge	.L13
 230 0016 00F12C05 		add	r5, r0, #44
 231 001a 00F58676 		add	r6, r0, #268
 232              	.LVL11:
 233              	.L16:
 234              		.loc 3 246 2 view .LVU69
 235              	.LBE35:
 236              	.LBE37:
 237              	.LBB38:
 238              	.LBB39:
  64:DSP/FX/Reverb/revmodel.cpp **** 		combR[i].mute();
 239              		.loc 3 64 3 is_stmt 1 view .LVU70
  64:DSP/FX/Reverb/revmodel.cpp **** 		combR[i].mute();
 240              		.loc 3 64 16 is_stmt 0 view .LVU71
 241 001e 2846     		mov	r0, r5
 242 0020 FFF7FEFF 		bl	_ZN4comb4muteEv
 243              	.LVL12:
  65:DSP/FX/Reverb/revmodel.cpp **** 	}
 244              		.loc 3 65 3 is_stmt 1 view .LVU72
  65:DSP/FX/Reverb/revmodel.cpp **** 	}
 245              		.loc 3 65 16 is_stmt 0 view .LVU73
 246 0024 05F1E000 		add	r0, r5, #224
  62:DSP/FX/Reverb/revmodel.cpp **** 	{
 247              		.loc 3 62 16 view .LVU74
 248 0028 1C35     		adds	r5, r5, #28
  65:DSP/FX/Reverb/revmodel.cpp **** 	}
 249              		.loc 3 65 16 view .LVU75
 250 002a FFF7FEFF 		bl	_ZN4comb4muteEv
 251              	.LVL13:
  62:DSP/FX/Reverb/revmodel.cpp **** 	{
 252              		.loc 3 62 2 is_stmt 1 view .LVU76
  62:DSP/FX/Reverb/revmodel.cpp **** 	{
ARM GAS  /var/folders/wz/z09yph4n0qj4t7mjxhl6ttn80000gn/T//cctRKH6Z.s 			page 12


 253              		.loc 3 62 16 view .LVU77
 254 002e B542     		cmp	r5, r6
 255 0030 F5D1     		bne	.L16
 256 0032 04F5F675 		add	r5, r4, #492
 257 0036 04F50B74 		add	r4, r4, #556
 258              	.LVL14:
 259              	.L18:
  62:DSP/FX/Reverb/revmodel.cpp **** 	{
 260              		.loc 3 62 16 is_stmt 0 view .LVU78
 261              	.LBE39:
 262              	.LBB40:
  69:DSP/FX/Reverb/revmodel.cpp **** 		allpassR[j].mute();
 263              		.loc 3 69 3 is_stmt 1 view .LVU79
  69:DSP/FX/Reverb/revmodel.cpp **** 		allpassR[j].mute();
 264              		.loc 3 69 19 is_stmt 0 view .LVU80
 265 003a 2846     		mov	r0, r5
 266 003c FFF7FEFF 		bl	_ZN7allpass4muteEv
 267              	.LVL15:
  70:DSP/FX/Reverb/revmodel.cpp **** 	}
 268              		.loc 3 70 3 is_stmt 1 view .LVU81
  70:DSP/FX/Reverb/revmodel.cpp **** 	}
 269              		.loc 3 70 19 is_stmt 0 view .LVU82
 270 0040 05F14000 		add	r0, r5, #64
  67:DSP/FX/Reverb/revmodel.cpp **** 	{
 271              		.loc 3 67 16 view .LVU83
 272 0044 1035     		adds	r5, r5, #16
  70:DSP/FX/Reverb/revmodel.cpp **** 	}
 273              		.loc 3 70 19 view .LVU84
 274 0046 FFF7FEFF 		bl	_ZN7allpass4muteEv
 275              	.LVL16:
  67:DSP/FX/Reverb/revmodel.cpp **** 	{
 276              		.loc 3 67 2 is_stmt 1 view .LVU85
  67:DSP/FX/Reverb/revmodel.cpp **** 	{
 277              		.loc 3 67 16 view .LVU86
 278 004a AC42     		cmp	r4, r5
 279 004c F5D1     		bne	.L18
 280              	.LVL17:
 281              	.L13:
  67:DSP/FX/Reverb/revmodel.cpp **** 	{
 282              		.loc 3 67 16 is_stmt 0 view .LVU87
 283              	.LBE40:
 284              	.LBE38:
  72:DSP/FX/Reverb/revmodel.cpp **** 
 285              		.loc 3 72 1 view .LVU88
 286 004e 70BD     		pop	{r4, r5, r6, pc}
 287              		.cfi_endproc
 288              	.LFE549:
 290              		.section	.text._ZN8revmodel14processreplaceEPfS0_S0_S0_li,"ax",%progbits
 291              		.align	1
 292              		.global	_ZN8revmodel14processreplaceEPfS0_S0_S0_li
 293              		.syntax unified
 294              		.thumb
 295              		.thumb_func
 297              	_ZN8revmodel14processreplaceEPfS0_S0_S0_li:
 298              	.LVL18:
 299              	.LFB550:
  75:DSP/FX/Reverb/revmodel.cpp **** 	float outL,outR,input;
ARM GAS  /var/folders/wz/z09yph4n0qj4t7mjxhl6ttn80000gn/T//cctRKH6Z.s 			page 13


 300              		.loc 3 75 1 is_stmt 1 view -0
 301              		.cfi_startproc
 302              		@ args = 12, pretend = 0, frame = 24
 303              		@ frame_needed = 0, uses_anonymous_args = 0
  75:DSP/FX/Reverb/revmodel.cpp **** 	float outL,outR,input;
 304              		.loc 3 75 1 is_stmt 0 view .LVU90
 305 0000 2DE9F04F 		push	{r4, r5, r6, r7, r8, r9, r10, fp, lr}
 306              		.cfi_def_cfa_offset 36
 307              		.cfi_offset 4, -36
 308              		.cfi_offset 5, -32
 309              		.cfi_offset 6, -28
 310              		.cfi_offset 7, -24
 311              		.cfi_offset 8, -20
 312              		.cfi_offset 9, -16
 313              		.cfi_offset 10, -12
 314              		.cfi_offset 11, -8
 315              		.cfi_offset 14, -4
 316 0004 2DED048B 		vpush.64	{d8, d9}
 317              		.cfi_def_cfa_offset 52
 318              		.cfi_offset 80, -52
 319              		.cfi_offset 81, -48
 320              		.cfi_offset 82, -44
 321              		.cfi_offset 83, -40
 322 0008 87B0     		sub	sp, sp, #28
 323              		.cfi_def_cfa_offset 80
  75:DSP/FX/Reverb/revmodel.cpp **** 	float outL,outR,input;
 324              		.loc 3 75 1 view .LVU91
 325 000a 9A46     		mov	r10, r3
 326 000c 0446     		mov	r4, r0
 327              	.LBB41:
 102:DSP/FX/Reverb/revmodel.cpp **** 		inputR += skip;
 328              		.loc 3 102 10 view .LVU92
 329 000e 0026     		movs	r6, #0
 330 0010 169B     		ldr	r3, [sp, #88]
 331              	.LVL19:
 102:DSP/FX/Reverb/revmodel.cpp **** 		inputR += skip;
 332              		.loc 3 102 10 view .LVU93
 333 0012 159F     		ldr	r7, [sp, #84]
 334 0014 4FEA830B 		lsl	fp, r3, #2
 335              	.LBE41:
  75:DSP/FX/Reverb/revmodel.cpp **** 	float outL,outR,input;
 336              		.loc 3 75 1 view .LVU94
 337 0018 CDE90312 		strd	r1, r2, [sp, #12]
 338              	.LVL20:
 339              	.L24:
  75:DSP/FX/Reverb/revmodel.cpp **** 	float outL,outR,input;
 340              		.loc 3 75 1 view .LVU95
 341 001c 149B     		ldr	r3, [sp, #80]
  78:DSP/FX/Reverb/revmodel.cpp **** 	{
 342              		.loc 3 78 21 view .LVU96
 343 001e 002F     		cmp	r7, #0
 344 0020 3344     		add	r3, r3, r6
 345 0022 0293     		str	r3, [sp, #8]
 346 0024 049B     		ldr	r3, [sp, #16]
 347 0026 03EB0608 		add	r8, r3, r6
 348 002a 0AEB0603 		add	r3, r10, r6
 349 002e 0193     		str	r3, [sp, #4]
ARM GAS  /var/folders/wz/z09yph4n0qj4t7mjxhl6ttn80000gn/T//cctRKH6Z.s 			page 14


 350 0030 039B     		ldr	r3, [sp, #12]
 351 0032 03EB0609 		add	r9, r3, r6
 352              	.LVL21:
  76:DSP/FX/Reverb/revmodel.cpp **** 
 353              		.loc 3 76 2 is_stmt 1 view .LVU97
  78:DSP/FX/Reverb/revmodel.cpp **** 	{
 354              		.loc 3 78 2 view .LVU98
  78:DSP/FX/Reverb/revmodel.cpp **** 	{
 355              		.loc 3 78 21 view .LVU99
  78:DSP/FX/Reverb/revmodel.cpp **** 	{
 356              		.loc 3 78 21 is_stmt 0 view .LVU100
 357 0036 62DD     		ble	.L20
 358              	.LBB44:
  80:DSP/FX/Reverb/revmodel.cpp **** 		input = (*inputL + *inputR) * gain;
 359              		.loc 3 80 3 is_stmt 1 view .LVU101
 360              	.LVL22:
  81:DSP/FX/Reverb/revmodel.cpp **** 
 361              		.loc 3 81 3 view .LVU102
  81:DSP/FX/Reverb/revmodel.cpp **** 
 362              		.loc 3 81 20 is_stmt 0 view .LVU103
 363 0038 D8ED007A 		vldr.32	s15, [r8]
  81:DSP/FX/Reverb/revmodel.cpp **** 
 364              		.loc 3 81 9 view .LVU104
 365 003c 2546     		mov	r5, r4
  81:DSP/FX/Reverb/revmodel.cpp **** 
 366              		.loc 3 81 20 view .LVU105
 367 003e 99ED009A 		vldr.32	s18, [r9]
 368 0042 04F58671 		add	r1, r4, #268
  80:DSP/FX/Reverb/revmodel.cpp **** 		input = (*inputL + *inputR) * gain;
 369              		.loc 3 80 15 view .LVU106
 370 0046 DFED308A 		vldr.32	s17, .L27
  81:DSP/FX/Reverb/revmodel.cpp **** 
 371              		.loc 3 81 9 view .LVU107
 372 004a 2C35     		adds	r5, r5, #44
  81:DSP/FX/Reverb/revmodel.cpp **** 
 373              		.loc 3 81 20 view .LVU108
 374 004c 39EE279A 		vadd.f32	s18, s18, s15
  81:DSP/FX/Reverb/revmodel.cpp **** 
 375              		.loc 3 81 9 view .LVU109
 376 0050 D4ED007A 		vldr.32	s15, [r4]
  80:DSP/FX/Reverb/revmodel.cpp **** 		input = (*inputL + *inputR) * gain;
 377              		.loc 3 80 8 view .LVU110
 378 0054 B0EE688A 		vmov.f32	s16, s17
  81:DSP/FX/Reverb/revmodel.cpp **** 
 379              		.loc 3 81 9 view .LVU111
 380 0058 29EE279A 		vmul.f32	s18, s18, s15
 381              	.LVL23:
  84:DSP/FX/Reverb/revmodel.cpp **** 		{
 382              		.loc 3 84 3 is_stmt 1 view .LVU112
 383              	.LBB42:
  84:DSP/FX/Reverb/revmodel.cpp **** 		{
 384              		.loc 3 84 17 view .LVU113
 385              	.L22:
  86:DSP/FX/Reverb/revmodel.cpp **** 			outR += combR[i].process(input);
 386              		.loc 3 86 28 is_stmt 0 discriminator 2 view .LVU114
 387 005c 2846     		mov	r0, r5
 388 005e B0EE490A 		vmov.f32	s0, s18
ARM GAS  /var/folders/wz/z09yph4n0qj4t7mjxhl6ttn80000gn/T//cctRKH6Z.s 			page 15


 389 0062 0591     		str	r1, [sp, #20]
 390              	.LVL24:
  86:DSP/FX/Reverb/revmodel.cpp **** 			outR += combR[i].process(input);
 391              		.loc 3 86 4 is_stmt 1 discriminator 2 view .LVU115
  86:DSP/FX/Reverb/revmodel.cpp **** 			outR += combR[i].process(input);
 392              		.loc 3 86 28 is_stmt 0 discriminator 2 view .LVU116
 393 0064 FFF7FEFF 		bl	_ZN4comb7processEf
 394              	.LVL25:
  87:DSP/FX/Reverb/revmodel.cpp **** 		}
 395              		.loc 3 87 28 discriminator 2 view .LVU117
 396 0068 05F1E000 		add	r0, r5, #224
  86:DSP/FX/Reverb/revmodel.cpp **** 			outR += combR[i].process(input);
 397              		.loc 3 86 9 discriminator 2 view .LVU118
 398 006c 38EE008A 		vadd.f32	s16, s16, s0
 399              	.LVL26:
  87:DSP/FX/Reverb/revmodel.cpp **** 		}
 400              		.loc 3 87 4 is_stmt 1 discriminator 2 view .LVU119
  87:DSP/FX/Reverb/revmodel.cpp **** 		}
 401              		.loc 3 87 28 is_stmt 0 discriminator 2 view .LVU120
 402 0070 B0EE490A 		vmov.f32	s0, s18
  84:DSP/FX/Reverb/revmodel.cpp **** 		{
 403              		.loc 3 84 17 discriminator 2 view .LVU121
 404 0074 1C35     		adds	r5, r5, #28
  87:DSP/FX/Reverb/revmodel.cpp **** 		}
 405              		.loc 3 87 28 discriminator 2 view .LVU122
 406 0076 FFF7FEFF 		bl	_ZN4comb7processEf
 407              	.LVL27:
  84:DSP/FX/Reverb/revmodel.cpp **** 		{
 408              		.loc 3 84 17 discriminator 2 view .LVU123
 409 007a 0599     		ldr	r1, [sp, #20]
  87:DSP/FX/Reverb/revmodel.cpp **** 		}
 410              		.loc 3 87 9 discriminator 2 view .LVU124
 411 007c 78EE808A 		vadd.f32	s17, s17, s0
 412              	.LVL28:
  84:DSP/FX/Reverb/revmodel.cpp **** 		{
 413              		.loc 3 84 3 is_stmt 1 discriminator 2 view .LVU125
  84:DSP/FX/Reverb/revmodel.cpp **** 		{
 414              		.loc 3 84 17 discriminator 2 view .LVU126
 415 0080 8D42     		cmp	r5, r1
 416 0082 EBD1     		bne	.L22
 417 0084 04F5F675 		add	r5, r4, #492
 418 0088 04F50B71 		add	r1, r4, #556
 419              	.L23:
  84:DSP/FX/Reverb/revmodel.cpp **** 		{
 420              		.loc 3 84 17 is_stmt 0 discriminator 2 view .LVU127
 421              	.LBE42:
 422              	.LBB43:
  93:DSP/FX/Reverb/revmodel.cpp **** 			outR = allpassR[j].process(outR);
 423              		.loc 3 93 30 discriminator 2 view .LVU128
 424 008c 2846     		mov	r0, r5
 425 008e B0EE480A 		vmov.f32	s0, s16
 426 0092 0591     		str	r1, [sp, #20]
 427              	.LVL29:
  93:DSP/FX/Reverb/revmodel.cpp **** 			outR = allpassR[j].process(outR);
 428              		.loc 3 93 4 is_stmt 1 discriminator 2 view .LVU129
  93:DSP/FX/Reverb/revmodel.cpp **** 			outR = allpassR[j].process(outR);
 429              		.loc 3 93 30 is_stmt 0 discriminator 2 view .LVU130
ARM GAS  /var/folders/wz/z09yph4n0qj4t7mjxhl6ttn80000gn/T//cctRKH6Z.s 			page 16


 430 0094 FFF7FEFF 		bl	_ZN7allpass7processEf
 431              	.LVL30:
  94:DSP/FX/Reverb/revmodel.cpp **** 		}
 432              		.loc 3 94 30 discriminator 2 view .LVU131
 433 0098 05F14000 		add	r0, r5, #64
  93:DSP/FX/Reverb/revmodel.cpp **** 			outR = allpassR[j].process(outR);
 434              		.loc 3 93 30 discriminator 2 view .LVU132
 435 009c B0EE408A 		vmov.f32	s16, s0
 436              	.LVL31:
  94:DSP/FX/Reverb/revmodel.cpp **** 		}
 437              		.loc 3 94 4 is_stmt 1 discriminator 2 view .LVU133
  94:DSP/FX/Reverb/revmodel.cpp **** 		}
 438              		.loc 3 94 30 is_stmt 0 discriminator 2 view .LVU134
 439 00a0 B0EE680A 		vmov.f32	s0, s17
 440              	.LVL32:
  91:DSP/FX/Reverb/revmodel.cpp **** 		{
 441              		.loc 3 91 17 discriminator 2 view .LVU135
 442 00a4 1035     		adds	r5, r5, #16
  94:DSP/FX/Reverb/revmodel.cpp **** 		}
 443              		.loc 3 94 30 discriminator 2 view .LVU136
 444 00a6 FFF7FEFF 		bl	_ZN7allpass7processEf
 445              	.LVL33:
  91:DSP/FX/Reverb/revmodel.cpp **** 		{
 446              		.loc 3 91 17 discriminator 2 view .LVU137
 447 00aa 0599     		ldr	r1, [sp, #20]
  94:DSP/FX/Reverb/revmodel.cpp **** 		}
 448              		.loc 3 94 30 discriminator 2 view .LVU138
 449 00ac F0EE408A 		vmov.f32	s17, s0
 450              	.LVL34:
  91:DSP/FX/Reverb/revmodel.cpp **** 		{
 451              		.loc 3 91 3 is_stmt 1 discriminator 2 view .LVU139
  91:DSP/FX/Reverb/revmodel.cpp **** 		{
 452              		.loc 3 91 17 discriminator 2 view .LVU140
 453 00b0 8D42     		cmp	r5, r1
 454 00b2 EBD1     		bne	.L23
 455              	.LBE43:
  98:DSP/FX/Reverb/revmodel.cpp **** 		*outputR = outR*wet1 + outL*wet2 + *inputR*dry;
 456              		.loc 3 98 3 view .LVU141
  98:DSP/FX/Reverb/revmodel.cpp **** 		*outputR = outR*wet1 + outL*wet2 + *inputR*dry;
 457              		.loc 3 98 30 is_stmt 0 view .LVU142
 458 00b4 D4ED077A 		vldr.32	s15, [r4, #28]
 459 00b8 5E44     		add	r6, r6, fp
  98:DSP/FX/Reverb/revmodel.cpp **** 		*outputR = outR*wet1 + outL*wet2 + *inputR*dry;
 460              		.loc 3 98 24 view .LVU143
 461 00ba 94ED067A 		vldr.32	s14, [r4, #24]
 462 00be 013F     		subs	r7, r7, #1
 463              	.LVL35:
  98:DSP/FX/Reverb/revmodel.cpp **** 		*outputR = outR*wet1 + outL*wet2 + *inputR*dry;
 464              		.loc 3 98 30 view .LVU144
 465 00c0 60EE277A 		vmul.f32	s15, s0, s15
  98:DSP/FX/Reverb/revmodel.cpp **** 		*outputR = outR*wet1 + outL*wet2 + *inputR*dry;
 466              		.loc 3 98 36 view .LVU145
 467 00c4 D9ED006A 		vldr.32	s13, [r9]
  98:DSP/FX/Reverb/revmodel.cpp **** 		*outputR = outR*wet1 + outL*wet2 + *inputR*dry;
 468              		.loc 3 98 12 view .LVU146
 469 00c8 019B     		ldr	r3, [sp, #4]
  98:DSP/FX/Reverb/revmodel.cpp **** 		*outputR = outR*wet1 + outL*wet2 + *inputR*dry;
ARM GAS  /var/folders/wz/z09yph4n0qj4t7mjxhl6ttn80000gn/T//cctRKH6Z.s 			page 17


 470              		.loc 3 98 24 view .LVU147
 471 00ca E7EE087A 		vfma.f32	s15, s14, s16
  98:DSP/FX/Reverb/revmodel.cpp **** 		*outputR = outR*wet1 + outL*wet2 + *inputR*dry;
 472              		.loc 3 98 36 view .LVU148
 473 00ce 94ED087A 		vldr.32	s14, [r4, #32]
 474 00d2 E6EE877A 		vfma.f32	s15, s13, s14
  98:DSP/FX/Reverb/revmodel.cpp **** 		*outputR = outR*wet1 + outL*wet2 + *inputR*dry;
 475              		.loc 3 98 12 view .LVU149
 476 00d6 C3ED007A 		vstr.32	s15, [r3]
  99:DSP/FX/Reverb/revmodel.cpp **** 
 477              		.loc 3 99 3 is_stmt 1 view .LVU150
  99:DSP/FX/Reverb/revmodel.cpp **** 
 478              		.loc 3 99 30 is_stmt 0 view .LVU151
 479 00da 94ED070A 		vldr.32	s0, [r4, #28]
 480              	.LVL36:
  99:DSP/FX/Reverb/revmodel.cpp **** 
 481              		.loc 3 99 24 view .LVU152
 482 00de D4ED067A 		vldr.32	s15, [r4, #24]
  99:DSP/FX/Reverb/revmodel.cpp **** 
 483              		.loc 3 99 30 view .LVU153
 484 00e2 28EE008A 		vmul.f32	s16, s16, s0
 485              	.LVL37:
  99:DSP/FX/Reverb/revmodel.cpp **** 
 486              		.loc 3 99 36 view .LVU154
 487 00e6 98ED007A 		vldr.32	s14, [r8]
  99:DSP/FX/Reverb/revmodel.cpp **** 
 488              		.loc 3 99 12 view .LVU155
 489 00ea 029B     		ldr	r3, [sp, #8]
  99:DSP/FX/Reverb/revmodel.cpp **** 
 490              		.loc 3 99 24 view .LVU156
 491 00ec A7EEA88A 		vfma.f32	s16, s15, s17
  99:DSP/FX/Reverb/revmodel.cpp **** 
 492              		.loc 3 99 36 view .LVU157
 493 00f0 D4ED087A 		vldr.32	s15, [r4, #32]
 494 00f4 A7EE278A 		vfma.f32	s16, s14, s15
  99:DSP/FX/Reverb/revmodel.cpp **** 
 495              		.loc 3 99 12 view .LVU158
 496 00f8 83ED008A 		vstr.32	s16, [r3]
 102:DSP/FX/Reverb/revmodel.cpp **** 		inputR += skip;
 497              		.loc 3 102 3 is_stmt 1 view .LVU159
 498              	.LVL38:
 103:DSP/FX/Reverb/revmodel.cpp **** 		outputL += skip;
 499              		.loc 3 103 3 view .LVU160
 104:DSP/FX/Reverb/revmodel.cpp **** 		outputR += skip;
 500              		.loc 3 104 3 view .LVU161
 105:DSP/FX/Reverb/revmodel.cpp **** 	}
 501              		.loc 3 105 3 view .LVU162
 105:DSP/FX/Reverb/revmodel.cpp **** 	}
 502              		.loc 3 105 3 is_stmt 0 view .LVU163
 503              	.LBE44:
  78:DSP/FX/Reverb/revmodel.cpp **** 	{
 504              		.loc 3 78 2 view .LVU164
 505 00fc 8EE7     		b	.L24
 506              	.LVL39:
 507              	.L20:
 107:DSP/FX/Reverb/revmodel.cpp **** 
 508              		.loc 3 107 1 view .LVU165
ARM GAS  /var/folders/wz/z09yph4n0qj4t7mjxhl6ttn80000gn/T//cctRKH6Z.s 			page 18


 509 00fe 07B0     		add	sp, sp, #28
 510              		.cfi_def_cfa_offset 52
 511              		@ sp needed
 512 0100 BDEC048B 		vldm	sp!, {d8-d9}
 513              		.cfi_restore 82
 514              		.cfi_restore 83
 515              		.cfi_restore 80
 516              		.cfi_restore 81
 517              		.cfi_def_cfa_offset 36
 518 0104 BDE8F08F 		pop	{r4, r5, r6, r7, r8, r9, r10, fp, pc}
 519              	.LVL40:
 520              	.L28:
 107:DSP/FX/Reverb/revmodel.cpp **** 
 521              		.loc 3 107 1 view .LVU166
 522              		.align	2
 523              	.L27:
 524 0108 00000000 		.word	0
 525              		.cfi_endproc
 526              	.LFE550:
 528              		.section	.text._ZN8revmodel10processmixEPfS0_S0_S0_li,"ax",%progbits
 529              		.align	1
 530              		.global	_ZN8revmodel10processmixEPfS0_S0_S0_li
 531              		.syntax unified
 532              		.thumb
 533              		.thumb_func
 535              	_ZN8revmodel10processmixEPfS0_S0_S0_li:
 536              	.LVL41:
 537              	.LFB551:
 110:DSP/FX/Reverb/revmodel.cpp **** 	float outL,outR,input;
 538              		.loc 3 110 1 is_stmt 1 view -0
 539              		.cfi_startproc
 540              		@ args = 12, pretend = 0, frame = 24
 541              		@ frame_needed = 0, uses_anonymous_args = 0
 110:DSP/FX/Reverb/revmodel.cpp **** 	float outL,outR,input;
 542              		.loc 3 110 1 is_stmt 0 view .LVU168
 543 0000 2DE9F04F 		push	{r4, r5, r6, r7, r8, r9, r10, fp, lr}
 544              		.cfi_def_cfa_offset 36
 545              		.cfi_offset 4, -36
 546              		.cfi_offset 5, -32
 547              		.cfi_offset 6, -28
 548              		.cfi_offset 7, -24
 549              		.cfi_offset 8, -20
 550              		.cfi_offset 9, -16
 551              		.cfi_offset 10, -12
 552              		.cfi_offset 11, -8
 553              		.cfi_offset 14, -4
 554 0004 2DED048B 		vpush.64	{d8, d9}
 555              		.cfi_def_cfa_offset 52
 556              		.cfi_offset 80, -52
 557              		.cfi_offset 81, -48
 558              		.cfi_offset 82, -44
 559              		.cfi_offset 83, -40
 560 0008 87B0     		sub	sp, sp, #28
 561              		.cfi_def_cfa_offset 80
 110:DSP/FX/Reverb/revmodel.cpp **** 	float outL,outR,input;
 562              		.loc 3 110 1 view .LVU169
 563 000a 0446     		mov	r4, r0
ARM GAS  /var/folders/wz/z09yph4n0qj4t7mjxhl6ttn80000gn/T//cctRKH6Z.s 			page 19


 564              	.LBB45:
 137:DSP/FX/Reverb/revmodel.cpp **** 		inputR += skip;
 565              		.loc 3 137 10 view .LVU170
 566 000c 0026     		movs	r6, #0
 567              	.LBE45:
 110:DSP/FX/Reverb/revmodel.cpp **** 	float outL,outR,input;
 568              		.loc 3 110 1 view .LVU171
 569 000e 0493     		str	r3, [sp, #16]
 570              	.LBB48:
 137:DSP/FX/Reverb/revmodel.cpp **** 		inputR += skip;
 571              		.loc 3 137 10 view .LVU172
 572 0010 169B     		ldr	r3, [sp, #88]
 573              	.LVL42:
 137:DSP/FX/Reverb/revmodel.cpp **** 		inputR += skip;
 574              		.loc 3 137 10 view .LVU173
 575 0012 159F     		ldr	r7, [sp, #84]
 576 0014 9B00     		lsls	r3, r3, #2
 577              	.LBE48:
 110:DSP/FX/Reverb/revmodel.cpp **** 	float outL,outR,input;
 578              		.loc 3 110 1 view .LVU174
 579 0016 CDE90212 		strd	r1, r2, [sp, #8]
 580              	.LBB49:
 137:DSP/FX/Reverb/revmodel.cpp **** 		inputR += skip;
 581              		.loc 3 137 10 view .LVU175
 582 001a 0193     		str	r3, [sp, #4]
 583              	.LVL43:
 584              	.L33:
 137:DSP/FX/Reverb/revmodel.cpp **** 		inputR += skip;
 585              		.loc 3 137 10 view .LVU176
 586 001c 039B     		ldr	r3, [sp, #12]
 587              	.LBE49:
 113:DSP/FX/Reverb/revmodel.cpp **** 	{
 588              		.loc 3 113 21 view .LVU177
 589 001e 002F     		cmp	r7, #0
 590 0020 03EB060B 		add	fp, r3, r6
 591 0024 149B     		ldr	r3, [sp, #80]
 592 0026 03EB060A 		add	r10, r3, r6
 593 002a 029B     		ldr	r3, [sp, #8]
 594 002c 03EB0609 		add	r9, r3, r6
 595 0030 049B     		ldr	r3, [sp, #16]
 596 0032 03EB0608 		add	r8, r3, r6
 597              	.LVL44:
 111:DSP/FX/Reverb/revmodel.cpp **** 
 598              		.loc 3 111 2 is_stmt 1 view .LVU178
 113:DSP/FX/Reverb/revmodel.cpp **** 	{
 599              		.loc 3 113 2 view .LVU179
 113:DSP/FX/Reverb/revmodel.cpp **** 	{
 600              		.loc 3 113 21 view .LVU180
 113:DSP/FX/Reverb/revmodel.cpp **** 	{
 601              		.loc 3 113 21 is_stmt 0 view .LVU181
 602 0036 69DD     		ble	.L29
 603              	.LBB50:
 115:DSP/FX/Reverb/revmodel.cpp **** 		input = (*inputL + *inputR) * gain;
 604              		.loc 3 115 3 is_stmt 1 view .LVU182
 605              	.LVL45:
 116:DSP/FX/Reverb/revmodel.cpp **** 
 606              		.loc 3 116 3 view .LVU183
ARM GAS  /var/folders/wz/z09yph4n0qj4t7mjxhl6ttn80000gn/T//cctRKH6Z.s 			page 20


 116:DSP/FX/Reverb/revmodel.cpp **** 
 607              		.loc 3 116 20 is_stmt 0 view .LVU184
 608 0038 DBED007A 		vldr.32	s15, [fp]
 116:DSP/FX/Reverb/revmodel.cpp **** 
 609              		.loc 3 116 9 view .LVU185
 610 003c 2546     		mov	r5, r4
 116:DSP/FX/Reverb/revmodel.cpp **** 
 611              		.loc 3 116 20 view .LVU186
 612 003e 99ED009A 		vldr.32	s18, [r9]
 613 0042 04F58671 		add	r1, r4, #268
 115:DSP/FX/Reverb/revmodel.cpp **** 		input = (*inputL + *inputR) * gain;
 614              		.loc 3 115 15 view .LVU187
 615 0046 DFED348A 		vldr.32	s17, .L36
 116:DSP/FX/Reverb/revmodel.cpp **** 
 616              		.loc 3 116 9 view .LVU188
 617 004a 2C35     		adds	r5, r5, #44
 116:DSP/FX/Reverb/revmodel.cpp **** 
 618              		.loc 3 116 20 view .LVU189
 619 004c 39EE279A 		vadd.f32	s18, s18, s15
 116:DSP/FX/Reverb/revmodel.cpp **** 
 620              		.loc 3 116 9 view .LVU190
 621 0050 D4ED007A 		vldr.32	s15, [r4]
 115:DSP/FX/Reverb/revmodel.cpp **** 		input = (*inputL + *inputR) * gain;
 622              		.loc 3 115 8 view .LVU191
 623 0054 B0EE688A 		vmov.f32	s16, s17
 116:DSP/FX/Reverb/revmodel.cpp **** 
 624              		.loc 3 116 9 view .LVU192
 625 0058 29EE279A 		vmul.f32	s18, s18, s15
 626              	.LVL46:
 119:DSP/FX/Reverb/revmodel.cpp **** 		{
 627              		.loc 3 119 3 is_stmt 1 view .LVU193
 628              	.LBB46:
 119:DSP/FX/Reverb/revmodel.cpp **** 		{
 629              		.loc 3 119 17 view .LVU194
 630              	.L31:
 121:DSP/FX/Reverb/revmodel.cpp **** 			outR += combR[i].process(input);
 631              		.loc 3 121 28 is_stmt 0 discriminator 2 view .LVU195
 632 005c 2846     		mov	r0, r5
 633 005e B0EE490A 		vmov.f32	s0, s18
 634 0062 0591     		str	r1, [sp, #20]
 635              	.LVL47:
 121:DSP/FX/Reverb/revmodel.cpp **** 			outR += combR[i].process(input);
 636              		.loc 3 121 4 is_stmt 1 discriminator 2 view .LVU196
 121:DSP/FX/Reverb/revmodel.cpp **** 			outR += combR[i].process(input);
 637              		.loc 3 121 28 is_stmt 0 discriminator 2 view .LVU197
 638 0064 FFF7FEFF 		bl	_ZN4comb7processEf
 639              	.LVL48:
 122:DSP/FX/Reverb/revmodel.cpp **** 		}
 640              		.loc 3 122 28 discriminator 2 view .LVU198
 641 0068 05F1E000 		add	r0, r5, #224
 121:DSP/FX/Reverb/revmodel.cpp **** 			outR += combR[i].process(input);
 642              		.loc 3 121 9 discriminator 2 view .LVU199
 643 006c 38EE008A 		vadd.f32	s16, s16, s0
 644              	.LVL49:
 122:DSP/FX/Reverb/revmodel.cpp **** 		}
 645              		.loc 3 122 4 is_stmt 1 discriminator 2 view .LVU200
 122:DSP/FX/Reverb/revmodel.cpp **** 		}
ARM GAS  /var/folders/wz/z09yph4n0qj4t7mjxhl6ttn80000gn/T//cctRKH6Z.s 			page 21


 646              		.loc 3 122 28 is_stmt 0 discriminator 2 view .LVU201
 647 0070 B0EE490A 		vmov.f32	s0, s18
 119:DSP/FX/Reverb/revmodel.cpp **** 		{
 648              		.loc 3 119 17 discriminator 2 view .LVU202
 649 0074 1C35     		adds	r5, r5, #28
 122:DSP/FX/Reverb/revmodel.cpp **** 		}
 650              		.loc 3 122 28 discriminator 2 view .LVU203
 651 0076 FFF7FEFF 		bl	_ZN4comb7processEf
 652              	.LVL50:
 119:DSP/FX/Reverb/revmodel.cpp **** 		{
 653              		.loc 3 119 17 discriminator 2 view .LVU204
 654 007a 0599     		ldr	r1, [sp, #20]
 122:DSP/FX/Reverb/revmodel.cpp **** 		}
 655              		.loc 3 122 9 discriminator 2 view .LVU205
 656 007c 78EE808A 		vadd.f32	s17, s17, s0
 657              	.LVL51:
 119:DSP/FX/Reverb/revmodel.cpp **** 		{
 658              		.loc 3 119 3 is_stmt 1 discriminator 2 view .LVU206
 119:DSP/FX/Reverb/revmodel.cpp **** 		{
 659              		.loc 3 119 17 discriminator 2 view .LVU207
 660 0080 8D42     		cmp	r5, r1
 661 0082 EBD1     		bne	.L31
 662 0084 04F5F675 		add	r5, r4, #492
 663 0088 04F50B71 		add	r1, r4, #556
 664              	.L32:
 119:DSP/FX/Reverb/revmodel.cpp **** 		{
 665              		.loc 3 119 17 is_stmt 0 discriminator 2 view .LVU208
 666              	.LBE46:
 667              	.LBB47:
 128:DSP/FX/Reverb/revmodel.cpp **** 			outR = allpassR[j].process(outR);
 668              		.loc 3 128 30 discriminator 2 view .LVU209
 669 008c 2846     		mov	r0, r5
 670 008e B0EE480A 		vmov.f32	s0, s16
 671 0092 0591     		str	r1, [sp, #20]
 672              	.LVL52:
 128:DSP/FX/Reverb/revmodel.cpp **** 			outR = allpassR[j].process(outR);
 673              		.loc 3 128 4 is_stmt 1 discriminator 2 view .LVU210
 128:DSP/FX/Reverb/revmodel.cpp **** 			outR = allpassR[j].process(outR);
 674              		.loc 3 128 30 is_stmt 0 discriminator 2 view .LVU211
 675 0094 FFF7FEFF 		bl	_ZN7allpass7processEf
 676              	.LVL53:
 129:DSP/FX/Reverb/revmodel.cpp **** 		}
 677              		.loc 3 129 30 discriminator 2 view .LVU212
 678 0098 05F14000 		add	r0, r5, #64
 128:DSP/FX/Reverb/revmodel.cpp **** 			outR = allpassR[j].process(outR);
 679              		.loc 3 128 30 discriminator 2 view .LVU213
 680 009c B0EE408A 		vmov.f32	s16, s0
 681              	.LVL54:
 129:DSP/FX/Reverb/revmodel.cpp **** 		}
 682              		.loc 3 129 4 is_stmt 1 discriminator 2 view .LVU214
 129:DSP/FX/Reverb/revmodel.cpp **** 		}
 683              		.loc 3 129 30 is_stmt 0 discriminator 2 view .LVU215
 684 00a0 B0EE680A 		vmov.f32	s0, s17
 685              	.LVL55:
 126:DSP/FX/Reverb/revmodel.cpp **** 		{
 686              		.loc 3 126 17 discriminator 2 view .LVU216
 687 00a4 1035     		adds	r5, r5, #16
ARM GAS  /var/folders/wz/z09yph4n0qj4t7mjxhl6ttn80000gn/T//cctRKH6Z.s 			page 22


 129:DSP/FX/Reverb/revmodel.cpp **** 		}
 688              		.loc 3 129 30 discriminator 2 view .LVU217
 689 00a6 FFF7FEFF 		bl	_ZN7allpass7processEf
 690              	.LVL56:
 126:DSP/FX/Reverb/revmodel.cpp **** 		{
 691              		.loc 3 126 17 discriminator 2 view .LVU218
 692 00aa 0599     		ldr	r1, [sp, #20]
 129:DSP/FX/Reverb/revmodel.cpp **** 		}
 693              		.loc 3 129 30 discriminator 2 view .LVU219
 694 00ac F0EE408A 		vmov.f32	s17, s0
 695              	.LVL57:
 126:DSP/FX/Reverb/revmodel.cpp **** 		{
 696              		.loc 3 126 3 is_stmt 1 discriminator 2 view .LVU220
 126:DSP/FX/Reverb/revmodel.cpp **** 		{
 697              		.loc 3 126 17 discriminator 2 view .LVU221
 698 00b0 8D42     		cmp	r5, r1
 699 00b2 EBD1     		bne	.L32
 700              	.LBE47:
 133:DSP/FX/Reverb/revmodel.cpp **** 		*outputR += outR*wet1 + outL*wet2 + *inputR*dry;
 701              		.loc 3 133 3 view .LVU222
 133:DSP/FX/Reverb/revmodel.cpp **** 		*outputR += outR*wet1 + outL*wet2 + *inputR*dry;
 702              		.loc 3 133 31 is_stmt 0 view .LVU223
 703 00b4 D4ED077A 		vldr.32	s15, [r4, #28]
 704 00b8 013F     		subs	r7, r7, #1
 705              	.LVL58:
 133:DSP/FX/Reverb/revmodel.cpp **** 		*outputR += outR*wet1 + outL*wet2 + *inputR*dry;
 706              		.loc 3 133 25 view .LVU224
 707 00ba 94ED067A 		vldr.32	s14, [r4, #24]
 133:DSP/FX/Reverb/revmodel.cpp **** 		*outputR += outR*wet1 + outL*wet2 + *inputR*dry;
 708              		.loc 3 133 31 view .LVU225
 709 00be 60EE277A 		vmul.f32	s15, s0, s15
 133:DSP/FX/Reverb/revmodel.cpp **** 		*outputR += outR*wet1 + outL*wet2 + *inputR*dry;
 710              		.loc 3 133 37 view .LVU226
 711 00c2 D9ED006A 		vldr.32	s13, [r9]
 712 00c6 019B     		ldr	r3, [sp, #4]
 133:DSP/FX/Reverb/revmodel.cpp **** 		*outputR += outR*wet1 + outL*wet2 + *inputR*dry;
 713              		.loc 3 133 25 view .LVU227
 714 00c8 E7EE087A 		vfma.f32	s15, s14, s16
 133:DSP/FX/Reverb/revmodel.cpp **** 		*outputR += outR*wet1 + outL*wet2 + *inputR*dry;
 715              		.loc 3 133 37 view .LVU228
 716 00cc 94ED087A 		vldr.32	s14, [r4, #32]
 717 00d0 1E44     		add	r6, r6, r3
 718 00d2 E6EE877A 		vfma.f32	s15, s13, s14
 133:DSP/FX/Reverb/revmodel.cpp **** 		*outputR += outR*wet1 + outL*wet2 + *inputR*dry;
 719              		.loc 3 133 12 view .LVU229
 720 00d6 98ED007A 		vldr.32	s14, [r8]
 721 00da 77EE277A 		vadd.f32	s15, s14, s15
 722 00de C8ED007A 		vstr.32	s15, [r8]
 134:DSP/FX/Reverb/revmodel.cpp **** 
 723              		.loc 3 134 3 is_stmt 1 view .LVU230
 134:DSP/FX/Reverb/revmodel.cpp **** 
 724              		.loc 3 134 31 is_stmt 0 view .LVU231
 725 00e2 94ED070A 		vldr.32	s0, [r4, #28]
 726              	.LVL59:
 134:DSP/FX/Reverb/revmodel.cpp **** 
 727              		.loc 3 134 25 view .LVU232
 728 00e6 D4ED067A 		vldr.32	s15, [r4, #24]
ARM GAS  /var/folders/wz/z09yph4n0qj4t7mjxhl6ttn80000gn/T//cctRKH6Z.s 			page 23


 134:DSP/FX/Reverb/revmodel.cpp **** 
 729              		.loc 3 134 31 view .LVU233
 730 00ea 28EE008A 		vmul.f32	s16, s16, s0
 731              	.LVL60:
 134:DSP/FX/Reverb/revmodel.cpp **** 
 732              		.loc 3 134 37 view .LVU234
 733 00ee 9BED007A 		vldr.32	s14, [fp]
 134:DSP/FX/Reverb/revmodel.cpp **** 
 734              		.loc 3 134 25 view .LVU235
 735 00f2 A7EEA88A 		vfma.f32	s16, s15, s17
 134:DSP/FX/Reverb/revmodel.cpp **** 
 736              		.loc 3 134 37 view .LVU236
 737 00f6 D4ED087A 		vldr.32	s15, [r4, #32]
 738 00fa A7EE278A 		vfma.f32	s16, s14, s15
 134:DSP/FX/Reverb/revmodel.cpp **** 
 739              		.loc 3 134 12 view .LVU237
 740 00fe DAED007A 		vldr.32	s15, [r10]
 741 0102 37EE888A 		vadd.f32	s16, s15, s16
 742 0106 8AED008A 		vstr.32	s16, [r10]
 137:DSP/FX/Reverb/revmodel.cpp **** 		inputR += skip;
 743              		.loc 3 137 3 is_stmt 1 view .LVU238
 744              	.LVL61:
 138:DSP/FX/Reverb/revmodel.cpp **** 		outputL += skip;
 745              		.loc 3 138 3 view .LVU239
 139:DSP/FX/Reverb/revmodel.cpp **** 		outputR += skip;
 746              		.loc 3 139 3 view .LVU240
 140:DSP/FX/Reverb/revmodel.cpp **** 	}
 747              		.loc 3 140 3 view .LVU241
 140:DSP/FX/Reverb/revmodel.cpp **** 	}
 748              		.loc 3 140 3 is_stmt 0 view .LVU242
 749              	.LBE50:
 113:DSP/FX/Reverb/revmodel.cpp **** 	{
 750              		.loc 3 113 2 view .LVU243
 751 010a 87E7     		b	.L33
 752              	.LVL62:
 753              	.L29:
 142:DSP/FX/Reverb/revmodel.cpp **** 
 754              		.loc 3 142 1 view .LVU244
 755 010c 07B0     		add	sp, sp, #28
 756              		.cfi_def_cfa_offset 52
 757              		@ sp needed
 758 010e BDEC048B 		vldm	sp!, {d8-d9}
 759              		.cfi_restore 82
 760              		.cfi_restore 83
 761              		.cfi_restore 80
 762              		.cfi_restore 81
 763              		.cfi_def_cfa_offset 36
 764 0112 BDE8F08F 		pop	{r4, r5, r6, r7, r8, r9, r10, fp, pc}
 765              	.LVL63:
 766              	.L37:
 142:DSP/FX/Reverb/revmodel.cpp **** 
 767              		.loc 3 142 1 view .LVU245
 768 0116 00BF     		.align	2
 769              	.L36:
 770 0118 00000000 		.word	0
 771              		.cfi_endproc
 772              	.LFE551:
ARM GAS  /var/folders/wz/z09yph4n0qj4t7mjxhl6ttn80000gn/T//cctRKH6Z.s 			page 24


 774              		.section	.text._ZN8revmodel6updateEv,"ax",%progbits
 775              		.align	1
 776              		.global	_ZN8revmodel6updateEv
 777              		.syntax unified
 778              		.thumb
 779              		.thumb_func
 781              	_ZN8revmodel6updateEv:
 782              	.LVL64:
 783              	.LFB552:
 145:DSP/FX/Reverb/revmodel.cpp **** // Recalculate internal values after parameter change
 784              		.loc 3 145 1 is_stmt 1 view -0
 785              		.cfi_startproc
 786              		@ args = 0, pretend = 0, frame = 0
 787              		@ frame_needed = 0, uses_anonymous_args = 0
 148:DSP/FX/Reverb/revmodel.cpp **** 
 788              		.loc 3 148 2 view .LVU247
 150:DSP/FX/Reverb/revmodel.cpp **** 	wet2 = wet*((1-width)/2);
 789              		.loc 3 150 2 view .LVU248
 150:DSP/FX/Reverb/revmodel.cpp **** 	wet2 = wet*((1-width)/2);
 790              		.loc 3 150 22 is_stmt 0 view .LVU249
 791 0000 B6EE007A 		vmov.f32	s14, #5.0e-1
 150:DSP/FX/Reverb/revmodel.cpp **** 	wet2 = wet*((1-width)/2);
 792              		.loc 3 150 14 view .LVU250
 793 0004 D0ED097A 		vldr.32	s15, [r0, #36]
 150:DSP/FX/Reverb/revmodel.cpp **** 	wet2 = wet*((1-width)/2);
 794              		.loc 3 150 9 view .LVU251
 795 0008 90ED056A 		vldr.32	s12, [r0, #20]
 150:DSP/FX/Reverb/revmodel.cpp **** 	wet2 = wet*((1-width)/2);
 796              		.loc 3 150 22 view .LVU252
 797 000c F0EE476A 		vmov.f32	s13, s14
 145:DSP/FX/Reverb/revmodel.cpp **** // Recalculate internal values after parameter change
 798              		.loc 3 145 1 view .LVU253
 799 0010 F8B5     		push	{r3, r4, r5, r6, r7, lr}
 800              		.cfi_def_cfa_offset 24
 801              		.cfi_offset 3, -24
 802              		.cfi_offset 4, -20
 803              		.cfi_offset 5, -16
 804              		.cfi_offset 6, -12
 805              		.cfi_offset 7, -8
 806              		.cfi_offset 14, -4
 150:DSP/FX/Reverb/revmodel.cpp **** 	wet2 = wet*((1-width)/2);
 807              		.loc 3 150 22 view .LVU254
 808 0012 E7EE876A 		vfma.f32	s13, s15, s14
 809 0016 00F12C05 		add	r5, r0, #44
 145:DSP/FX/Reverb/revmodel.cpp **** // Recalculate internal values after parameter change
 810              		.loc 3 145 1 view .LVU255
 811 001a 0446     		mov	r4, r0
 812 001c 00F58677 		add	r7, r0, #268
 813 0020 2E46     		mov	r6, r5
 150:DSP/FX/Reverb/revmodel.cpp **** 	wet2 = wet*((1-width)/2);
 814              		.loc 3 150 12 view .LVU256
 815 0022 66EE266A 		vmul.f32	s13, s12, s13
 150:DSP/FX/Reverb/revmodel.cpp **** 	wet2 = wet*((1-width)/2);
 816              		.loc 3 150 7 view .LVU257
 817 0026 C0ED066A 		vstr.32	s13, [r0, #24]
 151:DSP/FX/Reverb/revmodel.cpp **** 
 818              		.loc 3 151 2 is_stmt 1 view .LVU258
ARM GAS  /var/folders/wz/z09yph4n0qj4t7mjxhl6ttn80000gn/T//cctRKH6Z.s 			page 25


 151:DSP/FX/Reverb/revmodel.cpp **** 
 819              		.loc 3 151 16 is_stmt 0 view .LVU259
 820 002a F7EE006A 		vmov.f32	s13, #1.0e+0
 821 002e 76EEE77A 		vsub.f32	s15, s13, s15
 151:DSP/FX/Reverb/revmodel.cpp **** 
 822              		.loc 3 151 23 view .LVU260
 823 0032 67EE877A 		vmul.f32	s15, s15, s14
 151:DSP/FX/Reverb/revmodel.cpp **** 
 824              		.loc 3 151 12 view .LVU261
 825 0036 67EE867A 		vmul.f32	s15, s15, s12
 151:DSP/FX/Reverb/revmodel.cpp **** 
 826              		.loc 3 151 7 view .LVU262
 827 003a C0ED077A 		vstr.32	s15, [r0, #28]
 153:DSP/FX/Reverb/revmodel.cpp **** 	{
 828              		.loc 3 153 2 is_stmt 1 view .LVU263
 829 003e D0ED0A7A 		vldr.32	s15, [r0, #40]
 830 0042 F4EEC77A 		vcmpe.f32	s15, s14
 831 0046 F1EE10FA 		vmrs	APSR_nzcv, FPSCR
 155:DSP/FX/Reverb/revmodel.cpp **** 		damp1 = 0;
 832              		.loc 3 155 3 view .LVU264
 161:DSP/FX/Reverb/revmodel.cpp **** 		damp1 = damp;
 833              		.loc 3 161 13 is_stmt 0 view .LVU265
 834 004a B3BF     		iteet	lt
 835 004c 4368     		ldrlt	r3, [r0, #4]	@ float
 156:DSP/FX/Reverb/revmodel.cpp **** 		gain = muted;
 836              		.loc 3 156 9 view .LVU266
 837 004e 0023     		movge	r3, #0
 155:DSP/FX/Reverb/revmodel.cpp **** 		damp1 = 0;
 838              		.loc 3 155 13 view .LVU267
 839 0050 C0ED026A 		vstrge.32	s13, [r0, #8]
 156:DSP/FX/Reverb/revmodel.cpp **** 		gain = muted;
 840              		.loc 3 156 3 is_stmt 1 view .LVU268
 161:DSP/FX/Reverb/revmodel.cpp **** 		damp1 = damp;
 841              		.loc 3 161 13 is_stmt 0 view .LVU269
 842 0054 8360     		strlt	r3, [r0, #8]	@ float
 162:DSP/FX/Reverb/revmodel.cpp **** 		gain = fixedgain;
 843              		.loc 3 162 9 view .LVU270
 844 0056 B7BF     		itett	lt
 845 0058 C368     		ldrlt	r3, [r0, #12]	@ float
 156:DSP/FX/Reverb/revmodel.cpp **** 		gain = muted;
 846              		.loc 3 156 9 view .LVU271
 847 005a 0361     		strge	r3, [r0, #16]	@ float
 157:DSP/FX/Reverb/revmodel.cpp **** 	}
 848              		.loc 3 157 3 is_stmt 1 view .LVU272
 161:DSP/FX/Reverb/revmodel.cpp **** 		damp1 = damp;
 849              		.loc 3 161 3 view .LVU273
 162:DSP/FX/Reverb/revmodel.cpp **** 		gain = fixedgain;
 850              		.loc 3 162 3 view .LVU274
 162:DSP/FX/Reverb/revmodel.cpp **** 		gain = fixedgain;
 851              		.loc 3 162 9 is_stmt 0 view .LVU275
 852 005c 0361     		strlt	r3, [r0, #16]	@ float
 163:DSP/FX/Reverb/revmodel.cpp **** 	}
 853              		.loc 3 163 3 is_stmt 1 view .LVU276
 163:DSP/FX/Reverb/revmodel.cpp **** 	}
 854              		.loc 3 163 8 is_stmt 0 view .LVU277
 855 005e 0F4B     		ldrlt	r3, .L49
 856 0060 0360     		str	r3, [r0]	@ float
ARM GAS  /var/folders/wz/z09yph4n0qj4t7mjxhl6ttn80000gn/T//cctRKH6Z.s 			page 26


 857              	.LVL65:
 858              	.L42:
 168:DSP/FX/Reverb/revmodel.cpp **** 		combR[i].setfeedback(roomsize1);
 859              		.loc 3 168 3 is_stmt 1 discriminator 2 view .LVU278
 168:DSP/FX/Reverb/revmodel.cpp **** 		combR[i].setfeedback(roomsize1);
 860              		.loc 3 168 23 is_stmt 0 discriminator 2 view .LVU279
 861 0062 3046     		mov	r0, r6
 862 0064 94ED020A 		vldr.32	s0, [r4, #8]
 863 0068 FFF7FEFF 		bl	_ZN4comb11setfeedbackEf
 864              	.LVL66:
 169:DSP/FX/Reverb/revmodel.cpp **** 	}
 865              		.loc 3 169 3 is_stmt 1 discriminator 2 view .LVU280
 169:DSP/FX/Reverb/revmodel.cpp **** 	}
 866              		.loc 3 169 23 is_stmt 0 discriminator 2 view .LVU281
 867 006c 06F1E000 		add	r0, r6, #224
 166:DSP/FX/Reverb/revmodel.cpp **** 	{
 868              		.loc 3 166 12 discriminator 2 view .LVU282
 869 0070 1C36     		adds	r6, r6, #28
 169:DSP/FX/Reverb/revmodel.cpp **** 	}
 870              		.loc 3 169 23 discriminator 2 view .LVU283
 871 0072 94ED020A 		vldr.32	s0, [r4, #8]
 872 0076 FFF7FEFF 		bl	_ZN4comb11setfeedbackEf
 873              	.LVL67:
 166:DSP/FX/Reverb/revmodel.cpp **** 	{
 874              		.loc 3 166 2 is_stmt 1 discriminator 2 view .LVU284
 166:DSP/FX/Reverb/revmodel.cpp **** 	{
 875              		.loc 3 166 12 discriminator 2 view .LVU285
 876 007a BE42     		cmp	r6, r7
 877 007c F1D1     		bne	.L42
 878              	.L43:
 174:DSP/FX/Reverb/revmodel.cpp **** 		combR[i].setdamp(damp1);
 879              		.loc 3 174 3 discriminator 2 view .LVU286
 174:DSP/FX/Reverb/revmodel.cpp **** 		combR[i].setdamp(damp1);
 880              		.loc 3 174 19 is_stmt 0 discriminator 2 view .LVU287
 881 007e 2846     		mov	r0, r5
 882 0080 94ED040A 		vldr.32	s0, [r4, #16]
 883 0084 FFF7FEFF 		bl	_ZN4comb7setdampEf
 884              	.LVL68:
 175:DSP/FX/Reverb/revmodel.cpp **** 	}
 885              		.loc 3 175 3 is_stmt 1 discriminator 2 view .LVU288
 175:DSP/FX/Reverb/revmodel.cpp **** 	}
 886              		.loc 3 175 19 is_stmt 0 discriminator 2 view .LVU289
 887 0088 05F1E000 		add	r0, r5, #224
 172:DSP/FX/Reverb/revmodel.cpp **** 	{
 888              		.loc 3 172 12 discriminator 2 view .LVU290
 889 008c 1C35     		adds	r5, r5, #28
 175:DSP/FX/Reverb/revmodel.cpp **** 	}
 890              		.loc 3 175 19 discriminator 2 view .LVU291
 891 008e 94ED040A 		vldr.32	s0, [r4, #16]
 892 0092 FFF7FEFF 		bl	_ZN4comb7setdampEf
 893              	.LVL69:
 172:DSP/FX/Reverb/revmodel.cpp **** 	{
 894              		.loc 3 172 2 is_stmt 1 discriminator 2 view .LVU292
 172:DSP/FX/Reverb/revmodel.cpp **** 	{
 895              		.loc 3 172 12 discriminator 2 view .LVU293
 896 0096 BD42     		cmp	r5, r7
 897 0098 F1D1     		bne	.L43
ARM GAS  /var/folders/wz/z09yph4n0qj4t7mjxhl6ttn80000gn/T//cctRKH6Z.s 			page 27


 177:DSP/FX/Reverb/revmodel.cpp **** 
 898              		.loc 3 177 1 is_stmt 0 view .LVU294
 899 009a F8BD     		pop	{r3, r4, r5, r6, r7, pc}
 900              	.LVL70:
 901              	.L50:
 177:DSP/FX/Reverb/revmodel.cpp **** 
 902              		.loc 3 177 1 view .LVU295
 903              		.align	2
 904              	.L49:
 905 009c 8FC2753C 		.word	1014350479
 906              		.cfi_endproc
 907              	.LFE552:
 909              		.section	.text._ZN8revmodelC2Ev,"ax",%progbits
 910              		.align	1
 911              		.global	_ZN8revmodelC2Ev
 912              		.syntax unified
 913              		.thumb
 914              		.thumb_func
 916              	_ZN8revmodelC2Ev:
 917              	.LVL71:
 918              	.LFB547:
   9:DSP/FX/Reverb/revmodel.cpp **** {
 919              		.loc 3 9 1 is_stmt 1 view -0
 920              		.cfi_startproc
 921              		@ args = 0, pretend = 0, frame = 8
 922              		@ frame_needed = 0, uses_anonymous_args = 0
   9:DSP/FX/Reverb/revmodel.cpp **** {
 923              		.loc 3 9 1 is_stmt 0 view .LVU297
 924 0000 2DE9F74F 		push	{r0, r1, r2, r4, r5, r6, r7, r8, r9, r10, fp, lr}
 925              		.cfi_def_cfa_offset 48
 926              		.cfi_offset 4, -36
 927              		.cfi_offset 5, -32
 928              		.cfi_offset 6, -28
 929              		.cfi_offset 7, -24
 930              		.cfi_offset 8, -20
 931              		.cfi_offset 9, -16
 932              		.cfi_offset 10, -12
 933              		.cfi_offset 11, -8
 934              		.cfi_offset 14, -4
 935              	.LBB51:
   9:DSP/FX/Reverb/revmodel.cpp **** {
 936              		.loc 3 9 20 view .LVU298
 937 0004 00F12C09 		add	r9, r0, #44
   9:DSP/FX/Reverb/revmodel.cpp **** {
 938              		.loc 3 9 20 is_stmt 1 view .LVU299
 939              	.LBE51:
   9:DSP/FX/Reverb/revmodel.cpp **** {
 940              		.loc 3 9 1 is_stmt 0 view .LVU300
 941 0008 0446     		mov	r4, r0
 942 000a 00F58678 		add	r8, r0, #268
 943 000e 4D46     		mov	r5, r9
 944              	.LVL72:
 945              	.L52:
 946              	.LBB72:
   9:DSP/FX/Reverb/revmodel.cpp **** {
 947              		.loc 3 9 20 discriminator 3 view .LVU301
 948 0010 2846     		mov	r0, r5
ARM GAS  /var/folders/wz/z09yph4n0qj4t7mjxhl6ttn80000gn/T//cctRKH6Z.s 			page 28


 949 0012 1C35     		adds	r5, r5, #28
 950 0014 FFF7FEFF 		bl	_ZN4combC1Ev
 951              	.LVL73:
   9:DSP/FX/Reverb/revmodel.cpp **** {
 952              		.loc 3 9 20 is_stmt 1 discriminator 3 view .LVU302
   9:DSP/FX/Reverb/revmodel.cpp **** {
 953              		.loc 3 9 20 discriminator 3 view .LVU303
 954 0018 4545     		cmp	r5, r8
 955 001a F9D1     		bne	.L52
   9:DSP/FX/Reverb/revmodel.cpp **** {
 956              		.loc 3 9 20 discriminator 2 view .LVU304
 957 001c 4546     		mov	r5, r8
 958 001e 04F5F677 		add	r7, r4, #492
 959              	.L53:
   9:DSP/FX/Reverb/revmodel.cpp **** {
 960              		.loc 3 9 20 is_stmt 0 discriminator 7 view .LVU305
 961 0022 2846     		mov	r0, r5
 962 0024 1C35     		adds	r5, r5, #28
 963 0026 FFF7FEFF 		bl	_ZN4combC1Ev
 964              	.LVL74:
   9:DSP/FX/Reverb/revmodel.cpp **** {
 965              		.loc 3 9 20 is_stmt 1 discriminator 7 view .LVU306
   9:DSP/FX/Reverb/revmodel.cpp **** {
 966              		.loc 3 9 20 discriminator 7 view .LVU307
 967 002a AF42     		cmp	r7, r5
 968 002c F9D1     		bne	.L53
   9:DSP/FX/Reverb/revmodel.cpp **** {
 969              		.loc 3 9 20 discriminator 6 view .LVU308
 970 002e 3D46     		mov	r5, r7
 971 0030 04F50B76 		add	r6, r4, #556
 972              	.L54:
   9:DSP/FX/Reverb/revmodel.cpp **** {
 973              		.loc 3 9 20 is_stmt 0 discriminator 11 view .LVU309
 974 0034 2846     		mov	r0, r5
 975 0036 1035     		adds	r5, r5, #16
 976 0038 FFF7FEFF 		bl	_ZN7allpassC1Ev
 977              	.LVL75:
   9:DSP/FX/Reverb/revmodel.cpp **** {
 978              		.loc 3 9 20 is_stmt 1 discriminator 11 view .LVU310
   9:DSP/FX/Reverb/revmodel.cpp **** {
 979              		.loc 3 9 20 discriminator 11 view .LVU311
 980 003c B542     		cmp	r5, r6
 981 003e F9D1     		bne	.L54
   9:DSP/FX/Reverb/revmodel.cpp **** {
 982              		.loc 3 9 20 discriminator 10 view .LVU312
 983 0040 3546     		mov	r5, r6
 984 0042 04F51B7A 		add	r10, r4, #620
 985              	.L55:
   9:DSP/FX/Reverb/revmodel.cpp **** {
 986              		.loc 3 9 20 is_stmt 0 discriminator 15 view .LVU313
 987 0046 2846     		mov	r0, r5
 988 0048 1035     		adds	r5, r5, #16
 989 004a FFF7FEFF 		bl	_ZN7allpassC1Ev
 990              	.LVL76:
   9:DSP/FX/Reverb/revmodel.cpp **** {
 991              		.loc 3 9 20 is_stmt 1 discriminator 15 view .LVU314
   9:DSP/FX/Reverb/revmodel.cpp **** {
ARM GAS  /var/folders/wz/z09yph4n0qj4t7mjxhl6ttn80000gn/T//cctRKH6Z.s 			page 29


 992              		.loc 3 9 20 discriminator 15 view .LVU315
 993 004e 5545     		cmp	r5, r10
 994 0050 F9D1     		bne	.L55
  12:DSP/FX/Reverb/revmodel.cpp **** 	combR[0].setbuffer(bufcombR1,combtuningR1);
 995              		.loc 3 12 2 discriminator 14 view .LVU316
  12:DSP/FX/Reverb/revmodel.cpp **** 	combR[0].setbuffer(bufcombR1,combtuningR1);
 996              		.loc 3 12 20 is_stmt 0 discriminator 14 view .LVU317
 997 0052 2946     		mov	r1, r5
 998 0054 4846     		mov	r0, r9
 999 0056 40F25C42 		movw	r2, #1116
  31:DSP/FX/Reverb/revmodel.cpp **** 	allpassL[2].setbuffer(bufallpassL3,allpasstuningL3);
 1000              		.loc 3 31 23 discriminator 14 view .LVU318
 1001 005a 04F50F7B 		add	fp, r4, #572
  12:DSP/FX/Reverb/revmodel.cpp **** 	combR[0].setbuffer(bufcombR1,combtuningR1);
 1002              		.loc 3 12 20 discriminator 14 view .LVU319
 1003 005e FFF7FEFF 		bl	_ZN4comb9setbufferEPfi
 1004              	.LVL77:
  13:DSP/FX/Reverb/revmodel.cpp **** 	combL[1].setbuffer(bufcombL2,combtuningL2);
 1005              		.loc 3 13 2 is_stmt 1 discriminator 14 view .LVU320
  13:DSP/FX/Reverb/revmodel.cpp **** 	combL[1].setbuffer(bufcombL2,combtuningL2);
 1006              		.loc 3 13 20 is_stmt 0 discriminator 14 view .LVU321
 1007 0062 04F59E51 		add	r1, r4, #5056
 1008 0066 4046     		mov	r0, r8
 1009 0068 40F27342 		movw	r2, #1139
 1010 006c 1C31     		adds	r1, r1, #28
  32:DSP/FX/Reverb/revmodel.cpp **** 	allpassR[2].setbuffer(bufallpassR3,allpasstuningR3);
 1011              		.loc 3 32 23 discriminator 14 view .LVU322
 1012 006e 04F5037A 		add	r10, r4, #524
  13:DSP/FX/Reverb/revmodel.cpp **** 	combL[1].setbuffer(bufcombL2,combtuningL2);
 1013              		.loc 3 13 20 discriminator 14 view .LVU323
 1014 0072 FFF7FEFF 		bl	_ZN4comb9setbufferEPfi
 1015              	.LVL78:
  14:DSP/FX/Reverb/revmodel.cpp **** 	combR[1].setbuffer(bufcombR2,combtuningR2);
 1016              		.loc 3 14 2 is_stmt 1 discriminator 14 view .LVU324
  14:DSP/FX/Reverb/revmodel.cpp **** 	combR[1].setbuffer(bufcombR2,combtuningR2);
 1017              		.loc 3 14 20 is_stmt 0 discriminator 14 view .LVU325
 1018 0076 04F51651 		add	r1, r4, #9600
 1019 007a 04F14800 		add	r0, r4, #72
 1020 007e 40F2A442 		movw	r2, #1188
 1021 0082 2831     		adds	r1, r1, #40
  33:DSP/FX/Reverb/revmodel.cpp **** 	allpassL[3].setbuffer(bufallpassL4,allpasstuningL4);
 1022              		.loc 3 33 23 discriminator 14 view .LVU326
 1023 0084 04F51379 		add	r9, r4, #588
  14:DSP/FX/Reverb/revmodel.cpp **** 	combR[1].setbuffer(bufcombR2,combtuningR2);
 1024              		.loc 3 14 20 discriminator 14 view .LVU327
 1025 0088 FFF7FEFF 		bl	_ZN4comb9setbufferEPfi
 1026              	.LVL79:
  15:DSP/FX/Reverb/revmodel.cpp **** 	combL[2].setbuffer(bufcombL3,combtuningL3);
 1027              		.loc 3 15 2 is_stmt 1 discriminator 14 view .LVU328
  15:DSP/FX/Reverb/revmodel.cpp **** 	combL[2].setbuffer(bufcombL3,combtuningL3);
 1028              		.loc 3 15 20 is_stmt 0 discriminator 14 view .LVU329
 1029 008c 04F56051 		add	r1, r4, #14336
 1030 0090 04F59470 		add	r0, r4, #296
 1031 0094 40F2BB42 		movw	r2, #1211
 1032 0098 3831     		adds	r1, r1, #56
  34:DSP/FX/Reverb/revmodel.cpp **** 	allpassR[3].setbuffer(bufallpassR4,allpasstuningR4);
 1033              		.loc 3 34 23 discriminator 14 view .LVU330
ARM GAS  /var/folders/wz/z09yph4n0qj4t7mjxhl6ttn80000gn/T//cctRKH6Z.s 			page 30


 1034 009a 04F50778 		add	r8, r4, #540
  15:DSP/FX/Reverb/revmodel.cpp **** 	combL[2].setbuffer(bufcombL3,combtuningL3);
 1035              		.loc 3 15 20 discriminator 14 view .LVU331
 1036 009e FFF7FEFF 		bl	_ZN4comb9setbufferEPfi
 1037              	.LVL80:
  16:DSP/FX/Reverb/revmodel.cpp **** 	combR[2].setbuffer(bufcombR3,combtuningR3);
 1038              		.loc 3 16 2 is_stmt 1 discriminator 14 view .LVU332
  16:DSP/FX/Reverb/revmodel.cpp **** 	combR[2].setbuffer(bufcombR3,combtuningR3);
 1039              		.loc 3 16 20 is_stmt 0 discriminator 14 view .LVU333
 1040 00a2 04F59641 		add	r1, r4, #19200
 1041 00a6 04F16400 		add	r0, r4, #100
 1042 00aa 40F2FD42 		movw	r2, #1277
 1043 00ae 2431     		adds	r1, r1, #36
  35:DSP/FX/Reverb/revmodel.cpp **** 
 1044              		.loc 3 35 23 discriminator 14 view .LVU334
 1045 00b0 04F51775 		add	r5, r4, #604
  16:DSP/FX/Reverb/revmodel.cpp **** 	combR[2].setbuffer(bufcombR3,combtuningR3);
 1046              		.loc 3 16 20 discriminator 14 view .LVU335
 1047 00b4 FFF7FEFF 		bl	_ZN4comb9setbufferEPfi
 1048              	.LVL81:
  17:DSP/FX/Reverb/revmodel.cpp **** 	combL[3].setbuffer(bufcombL4,combtuningL4);
 1049              		.loc 3 17 2 is_stmt 1 discriminator 14 view .LVU336
  17:DSP/FX/Reverb/revmodel.cpp **** 	combL[3].setbuffer(bufcombL4,combtuningL4);
 1050              		.loc 3 17 20 is_stmt 0 discriminator 14 view .LVU337
 1051 00b8 04F5BE41 		add	r1, r4, #24320
 1052 00bc 04F5A270 		add	r0, r4, #324
 1053 00c0 40F21452 		movw	r2, #1300
 1054 00c4 1831     		adds	r1, r1, #24
 1055 00c6 FFF7FEFF 		bl	_ZN4comb9setbufferEPfi
 1056              	.LVL82:
  18:DSP/FX/Reverb/revmodel.cpp **** 	combR[3].setbuffer(bufcombR4,combtuningR4);
 1057              		.loc 3 18 2 is_stmt 1 discriminator 14 view .LVU338
  18:DSP/FX/Reverb/revmodel.cpp **** 	combR[3].setbuffer(bufcombR4,combtuningR4);
 1058              		.loc 3 18 20 is_stmt 0 discriminator 14 view .LVU339
 1059 00ca 04F5E641 		add	r1, r4, #29440
 1060 00ce 04F18000 		add	r0, r4, #128
 1061 00d2 40F24C52 		movw	r2, #1356
 1062 00d6 6831     		adds	r1, r1, #104
 1063 00d8 FFF7FEFF 		bl	_ZN4comb9setbufferEPfi
 1064              	.LVL83:
  19:DSP/FX/Reverb/revmodel.cpp **** 	combL[4].setbuffer(bufcombL5,combtuningL5);
 1065              		.loc 3 19 2 is_stmt 1 discriminator 14 view .LVU340
  19:DSP/FX/Reverb/revmodel.cpp **** 	combL[4].setbuffer(bufcombL5,combtuningL5);
 1066              		.loc 3 19 20 is_stmt 0 discriminator 14 view .LVU341
 1067 00dc 04F50841 		add	r1, r4, #34816
 1068 00e0 04F5B070 		add	r0, r4, #352
 1069 00e4 40F26352 		movw	r2, #1379
 1070 00e8 9831     		adds	r1, r1, #152
 1071 00ea FFF7FEFF 		bl	_ZN4comb9setbufferEPfi
 1072              	.LVL84:
  20:DSP/FX/Reverb/revmodel.cpp **** 	combR[4].setbuffer(bufcombR5,combtuningR5);
 1073              		.loc 3 20 2 is_stmt 1 discriminator 14 view .LVU342
  20:DSP/FX/Reverb/revmodel.cpp **** 	combR[4].setbuffer(bufcombR5,combtuningR5);
 1074              		.loc 3 20 20 is_stmt 0 discriminator 14 view .LVU343
 1075 00ee 04F51E41 		add	r1, r4, #40448
 1076 00f2 04F19C00 		add	r0, r4, #156
 1077 00f6 40F28E52 		movw	r2, #1422
ARM GAS  /var/folders/wz/z09yph4n0qj4t7mjxhl6ttn80000gn/T//cctRKH6Z.s 			page 31


 1078 00fa 2431     		adds	r1, r1, #36
 1079 00fc FFF7FEFF 		bl	_ZN4comb9setbufferEPfi
 1080              	.LVL85:
  21:DSP/FX/Reverb/revmodel.cpp **** 	combL[5].setbuffer(bufcombL6,combtuningL6);
 1081              		.loc 3 21 2 is_stmt 1 discriminator 14 view .LVU344
  21:DSP/FX/Reverb/revmodel.cpp **** 	combL[5].setbuffer(bufcombL6,combtuningL6);
 1082              		.loc 3 21 20 is_stmt 0 discriminator 14 view .LVU345
 1083 0100 04F53441 		add	r1, r4, #46080
 1084 0104 04F5BE70 		add	r0, r4, #380
 1085 0108 40F2A552 		movw	r2, #1445
 1086 010c 5C31     		adds	r1, r1, #92
 1087 010e FFF7FEFF 		bl	_ZN4comb9setbufferEPfi
 1088              	.LVL86:
  22:DSP/FX/Reverb/revmodel.cpp **** 	combR[5].setbuffer(bufcombR6,combtuningR6);
 1089              		.loc 3 22 2 is_stmt 1 discriminator 14 view .LVU346
  22:DSP/FX/Reverb/revmodel.cpp **** 	combR[5].setbuffer(bufcombR6,combtuningR6);
 1090              		.loc 3 22 20 is_stmt 0 discriminator 14 view .LVU347
 1091 0112 04F54A41 		add	r1, r4, #51712
 1092 0116 04F1B800 		add	r0, r4, #184
 1093 011a 40F2D352 		movw	r2, #1491
 1094 011e F031     		adds	r1, r1, #240
 1095 0120 FFF7FEFF 		bl	_ZN4comb9setbufferEPfi
 1096              	.LVL87:
  23:DSP/FX/Reverb/revmodel.cpp **** 	combL[6].setbuffer(bufcombL7,combtuningL7);
 1097              		.loc 3 23 2 is_stmt 1 discriminator 14 view .LVU348
  23:DSP/FX/Reverb/revmodel.cpp **** 	combL[6].setbuffer(bufcombL7,combtuningL7);
 1098              		.loc 3 23 20 is_stmt 0 discriminator 14 view .LVU349
 1099 0124 04F56241 		add	r1, r4, #57856
 1100 0128 04F5CC70 		add	r0, r4, #408
 1101 012c 40F2EA52 		movw	r2, #1514
 1102 0130 3C31     		adds	r1, r1, #60
 1103 0132 FFF7FEFF 		bl	_ZN4comb9setbufferEPfi
 1104              	.LVL88:
  24:DSP/FX/Reverb/revmodel.cpp **** 	combR[6].setbuffer(bufcombR7,combtuningR7);
 1105              		.loc 3 24 2 is_stmt 1 discriminator 14 view .LVU350
  24:DSP/FX/Reverb/revmodel.cpp **** 	combR[6].setbuffer(bufcombR7,combtuningR7);
 1106              		.loc 3 24 20 is_stmt 0 discriminator 14 view .LVU351
 1107 0136 04F57941 		add	r1, r4, #63744
 1108 013a 04F1D400 		add	r0, r4, #212
 1109 013e 40F21562 		movw	r2, #1557
 1110 0142 E431     		adds	r1, r1, #228
 1111 0144 FFF7FEFF 		bl	_ZN4comb9setbufferEPfi
 1112              	.LVL89:
  25:DSP/FX/Reverb/revmodel.cpp **** 	combL[7].setbuffer(bufcombL8,combtuningL8);
 1113              		.loc 3 25 2 is_stmt 1 discriminator 14 view .LVU352
  25:DSP/FX/Reverb/revmodel.cpp **** 	combL[7].setbuffer(bufcombL8,combtuningL8);
 1114              		.loc 3 25 20 is_stmt 0 discriminator 14 view .LVU353
 1115 0148 04F58931 		add	r1, r4, #70144
 1116 014c 04F5DA70 		add	r0, r4, #436
 1117 0150 40F22C62 		movw	r2, #1580
 1118 0154 3831     		adds	r1, r1, #56
 1119 0156 FFF7FEFF 		bl	_ZN4comb9setbufferEPfi
 1120              	.LVL90:
  26:DSP/FX/Reverb/revmodel.cpp **** 	combR[7].setbuffer(bufcombR8,combtuningR8);
 1121              		.loc 3 26 2 is_stmt 1 discriminator 14 view .LVU354
  26:DSP/FX/Reverb/revmodel.cpp **** 	combR[7].setbuffer(bufcombR8,combtuningR8);
 1122              		.loc 3 26 20 is_stmt 0 discriminator 14 view .LVU355
ARM GAS  /var/folders/wz/z09yph4n0qj4t7mjxhl6ttn80000gn/T//cctRKH6Z.s 			page 32


 1123 015a 04F59531 		add	r1, r4, #76288
 1124 015e 04F1F000 		add	r0, r4, #240
 1125 0162 40F25162 		movw	r2, #1617
 1126 0166 E831     		adds	r1, r1, #232
 1127 0168 FFF7FEFF 		bl	_ZN4comb9setbufferEPfi
 1128              	.LVL91:
  27:DSP/FX/Reverb/revmodel.cpp **** 	allpassL[0].setbuffer(bufallpassL1,allpasstuningL1);
 1129              		.loc 3 27 2 is_stmt 1 discriminator 14 view .LVU356
  27:DSP/FX/Reverb/revmodel.cpp **** 	allpassL[0].setbuffer(bufallpassL1,allpasstuningL1);
 1130              		.loc 3 27 20 is_stmt 0 discriminator 14 view .LVU357
 1131 016c 04F5A231 		add	r1, r4, #82944
 1132 0170 04F5E870 		add	r0, r4, #464
 1133 0174 4FF4CD62 		mov	r2, #1640
 1134 0178 2C31     		adds	r1, r1, #44
 1135 017a FFF7FEFF 		bl	_ZN4comb9setbufferEPfi
 1136              	.LVL92:
  28:DSP/FX/Reverb/revmodel.cpp **** 	allpassR[0].setbuffer(bufallpassR1,allpasstuningR1);
 1137              		.loc 3 28 2 is_stmt 1 discriminator 14 view .LVU358
  28:DSP/FX/Reverb/revmodel.cpp **** 	allpassR[0].setbuffer(bufallpassR1,allpasstuningR1);
 1138              		.loc 3 28 23 is_stmt 0 discriminator 14 view .LVU359
 1139 017e 04F5AE31 		add	r1, r4, #89088
 1140 0182 3846     		mov	r0, r7
 1141 0184 4FF40B72 		mov	r2, #556
 1142 0188 01F5E671 		add	r1, r1, #460
 1143 018c FFF7FEFF 		bl	_ZN7allpass9setbufferEPfi
 1144              	.LVL93:
  29:DSP/FX/Reverb/revmodel.cpp **** 	allpassL[1].setbuffer(bufallpassL2,allpasstuningL2);
 1145              		.loc 3 29 2 is_stmt 1 discriminator 14 view .LVU360
  29:DSP/FX/Reverb/revmodel.cpp **** 	allpassL[1].setbuffer(bufallpassL2,allpasstuningL2);
 1146              		.loc 3 29 23 is_stmt 0 discriminator 14 view .LVU361
 1147 0190 04F5B331 		add	r1, r4, #91648
 1148 0194 3046     		mov	r0, r6
 1149 0196 40F24322 		movw	r2, #579
 1150 019a 7C31     		adds	r1, r1, #124
 1151 019c FFF7FEFF 		bl	_ZN7allpass9setbufferEPfi
 1152              	.LVL94:
  30:DSP/FX/Reverb/revmodel.cpp **** 	allpassR[1].setbuffer(bufallpassR2,allpasstuningR2);
 1153              		.loc 3 30 2 is_stmt 1 discriminator 14 view .LVU362
  30:DSP/FX/Reverb/revmodel.cpp **** 	allpassR[1].setbuffer(bufallpassR2,allpasstuningR2);
 1154              		.loc 3 30 23 is_stmt 0 discriminator 14 view .LVU363
 1155 01a0 04F5FE73 		add	r3, r4, #508
 1156 01a4 04F5B731 		add	r1, r4, #93696
 1157 01a8 40F2B912 		movw	r2, #441
 1158 01ac 1846     		mov	r0, r3
 1159 01ae 0193     		str	r3, [sp, #4]
 1160 01b0 01F5C471 		add	r1, r1, #392
 1161 01b4 FFF7FEFF 		bl	_ZN7allpass9setbufferEPfi
 1162              	.LVL95:
  31:DSP/FX/Reverb/revmodel.cpp **** 	allpassL[2].setbuffer(bufallpassL3,allpasstuningL3);
 1163              		.loc 3 31 2 is_stmt 1 discriminator 14 view .LVU364
  31:DSP/FX/Reverb/revmodel.cpp **** 	allpassL[2].setbuffer(bufallpassL3,allpasstuningL3);
 1164              		.loc 3 31 23 is_stmt 0 discriminator 14 view .LVU365
 1165 01b8 04F5BB31 		add	r1, r4, #95744
 1166 01bc 5846     		mov	r0, fp
 1167 01be 4FF4E872 		mov	r2, #464
 1168 01c2 6C31     		adds	r1, r1, #108
 1169 01c4 FFF7FEFF 		bl	_ZN7allpass9setbufferEPfi
ARM GAS  /var/folders/wz/z09yph4n0qj4t7mjxhl6ttn80000gn/T//cctRKH6Z.s 			page 33


 1170              	.LVL96:
  32:DSP/FX/Reverb/revmodel.cpp **** 	allpassR[2].setbuffer(bufallpassR3,allpasstuningR3);
 1171              		.loc 3 32 2 is_stmt 1 discriminator 14 view .LVU366
  32:DSP/FX/Reverb/revmodel.cpp **** 	allpassR[2].setbuffer(bufallpassR3,allpasstuningR3);
 1172              		.loc 3 32 23 is_stmt 0 discriminator 14 view .LVU367
 1173 01c8 04F5BE31 		add	r1, r4, #97280
 1174 01cc 5046     		mov	r0, r10
 1175 01ce 40F25512 		movw	r2, #341
 1176 01d2 01F5D671 		add	r1, r1, #428
 1177 01d6 FFF7FEFF 		bl	_ZN7allpass9setbufferEPfi
 1178              	.LVL97:
  33:DSP/FX/Reverb/revmodel.cpp **** 	allpassL[3].setbuffer(bufallpassL4,allpasstuningL4);
 1179              		.loc 3 33 2 is_stmt 1 discriminator 14 view .LVU368
  33:DSP/FX/Reverb/revmodel.cpp **** 	allpassL[3].setbuffer(bufallpassL4,allpasstuningL4);
 1180              		.loc 3 33 23 is_stmt 0 discriminator 14 view .LVU369
 1181 01da 04F5C131 		add	r1, r4, #98816
 1182 01de 4846     		mov	r0, r9
 1183 01e0 4FF4B672 		mov	r2, #364
 1184 01e4 01F58071 		add	r1, r1, #256
 1185 01e8 FFF7FEFF 		bl	_ZN7allpass9setbufferEPfi
 1186              	.LVL98:
  34:DSP/FX/Reverb/revmodel.cpp **** 	allpassR[3].setbuffer(bufallpassR4,allpasstuningR4);
 1187              		.loc 3 34 2 is_stmt 1 discriminator 14 view .LVU370
  34:DSP/FX/Reverb/revmodel.cpp **** 	allpassR[3].setbuffer(bufallpassR4,allpasstuningR4);
 1188              		.loc 3 34 23 is_stmt 0 discriminator 14 view .LVU371
 1189 01ec 04F5C431 		add	r1, r4, #100352
 1190 01f0 4046     		mov	r0, r8
 1191 01f2 E122     		movs	r2, #225
 1192 01f4 B031     		adds	r1, r1, #176
 1193 01f6 FFF7FEFF 		bl	_ZN7allpass9setbufferEPfi
 1194              	.LVL99:
  35:DSP/FX/Reverb/revmodel.cpp **** 
 1195              		.loc 3 35 2 is_stmt 1 discriminator 14 view .LVU372
  35:DSP/FX/Reverb/revmodel.cpp **** 
 1196              		.loc 3 35 23 is_stmt 0 discriminator 14 view .LVU373
 1197 01fa 04F5C631 		add	r1, r4, #101376
 1198 01fe F822     		movs	r2, #248
 1199 0200 2846     		mov	r0, r5
 1200 0202 3431     		adds	r1, r1, #52
 1201 0204 FFF7FEFF 		bl	_ZN7allpass9setbufferEPfi
 1202              	.LVL100:
  38:DSP/FX/Reverb/revmodel.cpp **** 	allpassR[0].setfeedback(0.5f);
 1203              		.loc 3 38 2 is_stmt 1 discriminator 14 view .LVU374
  38:DSP/FX/Reverb/revmodel.cpp **** 	allpassR[0].setfeedback(0.5f);
 1204              		.loc 3 38 25 is_stmt 0 discriminator 14 view .LVU375
 1205 0208 3846     		mov	r0, r7
 1206 020a B6EE000A 		vmov.f32	s0, #5.0e-1
 1207 020e FFF7FEFF 		bl	_ZN7allpass11setfeedbackEf
 1208              	.LVL101:
  39:DSP/FX/Reverb/revmodel.cpp **** 	allpassL[1].setfeedback(0.5f);
 1209              		.loc 3 39 2 is_stmt 1 discriminator 14 view .LVU376
  39:DSP/FX/Reverb/revmodel.cpp **** 	allpassL[1].setfeedback(0.5f);
 1210              		.loc 3 39 25 is_stmt 0 discriminator 14 view .LVU377
 1211 0212 3046     		mov	r0, r6
 1212 0214 B6EE000A 		vmov.f32	s0, #5.0e-1
 1213              	.LBB52:
 1214              	.LBB53:
ARM GAS  /var/folders/wz/z09yph4n0qj4t7mjxhl6ttn80000gn/T//cctRKH6Z.s 			page 34


 208:DSP/FX/Reverb/revmodel.cpp **** 	update();
 1215              		.loc 3 208 6 discriminator 14 view .LVU378
 1216 0218 4FF07E56 		mov	r6, #1065353216
 1217              	.LBE53:
 1218              	.LBE52:
  39:DSP/FX/Reverb/revmodel.cpp **** 	allpassL[1].setfeedback(0.5f);
 1219              		.loc 3 39 25 discriminator 14 view .LVU379
 1220 021c FFF7FEFF 		bl	_ZN7allpass11setfeedbackEf
 1221              	.LVL102:
  40:DSP/FX/Reverb/revmodel.cpp **** 	allpassR[1].setfeedback(0.5f);
 1222              		.loc 3 40 2 is_stmt 1 discriminator 14 view .LVU380
  40:DSP/FX/Reverb/revmodel.cpp **** 	allpassR[1].setfeedback(0.5f);
 1223              		.loc 3 40 25 is_stmt 0 discriminator 14 view .LVU381
 1224 0220 019B     		ldr	r3, [sp, #4]
 1225 0222 B6EE000A 		vmov.f32	s0, #5.0e-1
 1226 0226 1846     		mov	r0, r3
 1227 0228 FFF7FEFF 		bl	_ZN7allpass11setfeedbackEf
 1228              	.LVL103:
  41:DSP/FX/Reverb/revmodel.cpp **** 	allpassL[2].setfeedback(0.5f);
 1229              		.loc 3 41 2 is_stmt 1 discriminator 14 view .LVU382
  41:DSP/FX/Reverb/revmodel.cpp **** 	allpassL[2].setfeedback(0.5f);
 1230              		.loc 3 41 25 is_stmt 0 discriminator 14 view .LVU383
 1231 022c 5846     		mov	r0, fp
 1232 022e B6EE000A 		vmov.f32	s0, #5.0e-1
 1233 0232 FFF7FEFF 		bl	_ZN7allpass11setfeedbackEf
 1234              	.LVL104:
  42:DSP/FX/Reverb/revmodel.cpp **** 	allpassR[2].setfeedback(0.5f);
 1235              		.loc 3 42 2 is_stmt 1 discriminator 14 view .LVU384
  42:DSP/FX/Reverb/revmodel.cpp **** 	allpassR[2].setfeedback(0.5f);
 1236              		.loc 3 42 25 is_stmt 0 discriminator 14 view .LVU385
 1237 0236 5046     		mov	r0, r10
 1238 0238 B6EE000A 		vmov.f32	s0, #5.0e-1
 1239 023c FFF7FEFF 		bl	_ZN7allpass11setfeedbackEf
 1240              	.LVL105:
  43:DSP/FX/Reverb/revmodel.cpp **** 	allpassL[3].setfeedback(0.5f);
 1241              		.loc 3 43 2 is_stmt 1 discriminator 14 view .LVU386
  43:DSP/FX/Reverb/revmodel.cpp **** 	allpassL[3].setfeedback(0.5f);
 1242              		.loc 3 43 25 is_stmt 0 discriminator 14 view .LVU387
 1243 0240 4846     		mov	r0, r9
 1244 0242 B6EE000A 		vmov.f32	s0, #5.0e-1
 1245 0246 FFF7FEFF 		bl	_ZN7allpass11setfeedbackEf
 1246              	.LVL106:
  44:DSP/FX/Reverb/revmodel.cpp **** 	allpassR[3].setfeedback(0.5f);
 1247              		.loc 3 44 2 is_stmt 1 discriminator 14 view .LVU388
  44:DSP/FX/Reverb/revmodel.cpp **** 	allpassR[3].setfeedback(0.5f);
 1248              		.loc 3 44 25 is_stmt 0 discriminator 14 view .LVU389
 1249 024a 4046     		mov	r0, r8
 1250 024c B6EE000A 		vmov.f32	s0, #5.0e-1
 1251 0250 FFF7FEFF 		bl	_ZN7allpass11setfeedbackEf
 1252              	.LVL107:
  45:DSP/FX/Reverb/revmodel.cpp **** 	setwet(initialwet);
 1253              		.loc 3 45 2 is_stmt 1 discriminator 14 view .LVU390
  45:DSP/FX/Reverb/revmodel.cpp **** 	setwet(initialwet);
 1254              		.loc 3 45 25 is_stmt 0 discriminator 14 view .LVU391
 1255 0254 B6EE000A 		vmov.f32	s0, #5.0e-1
 1256 0258 2846     		mov	r0, r5
 1257              	.LBB55:
ARM GAS  /var/folders/wz/z09yph4n0qj4t7mjxhl6ttn80000gn/T//cctRKH6Z.s 			page 35


 1258              	.LBB56:
 219:DSP/FX/Reverb/revmodel.cpp **** }
 1259              		.loc 3 219 6 discriminator 14 view .LVU392
 1260 025a 0025     		movs	r5, #0
 1261              	.LBE56:
 1262              	.LBE55:
  45:DSP/FX/Reverb/revmodel.cpp **** 	setwet(initialwet);
 1263              		.loc 3 45 25 discriminator 14 view .LVU393
 1264 025c FFF7FEFF 		bl	_ZN7allpass11setfeedbackEf
 1265              	.LVL108:
  46:DSP/FX/Reverb/revmodel.cpp **** 	setroomsize(initialroom);
 1266              		.loc 3 46 2 is_stmt 1 discriminator 14 view .LVU394
 1267              	.LBB59:
 1268              	.LBI52:
 206:DSP/FX/Reverb/revmodel.cpp **** {
 1269              		.loc 3 206 6 discriminator 14 view .LVU395
 1270              	.LBB54:
 208:DSP/FX/Reverb/revmodel.cpp **** 	update();
 1271              		.loc 3 208 2 discriminator 14 view .LVU396
 209:DSP/FX/Reverb/revmodel.cpp **** }
 1272              		.loc 3 209 8 is_stmt 0 discriminator 14 view .LVU397
 1273 0260 2046     		mov	r0, r4
 208:DSP/FX/Reverb/revmodel.cpp **** 	update();
 1274              		.loc 3 208 6 discriminator 14 view .LVU398
 1275 0262 6661     		str	r6, [r4, #20]	@ float
 209:DSP/FX/Reverb/revmodel.cpp **** }
 1276              		.loc 3 209 2 is_stmt 1 discriminator 14 view .LVU399
 209:DSP/FX/Reverb/revmodel.cpp **** }
 1277              		.loc 3 209 8 is_stmt 0 discriminator 14 view .LVU400
 1278 0264 FFF7FEFF 		bl	_ZN8revmodel6updateEv
 1279              	.LVL109:
 209:DSP/FX/Reverb/revmodel.cpp **** }
 1280              		.loc 3 209 8 discriminator 14 view .LVU401
 1281              	.LBE54:
 1282              	.LBE59:
  47:DSP/FX/Reverb/revmodel.cpp **** 	setdry(initialdry);
 1283              		.loc 3 47 2 is_stmt 1 discriminator 14 view .LVU402
 1284              	.LBB60:
 1285              	.LBI60:
 184:DSP/FX/Reverb/revmodel.cpp **** {
 1286              		.loc 3 184 6 discriminator 14 view .LVU403
 1287              	.LBB61:
 186:DSP/FX/Reverb/revmodel.cpp **** 	update();
 1288              		.loc 3 186 2 discriminator 14 view .LVU404
 186:DSP/FX/Reverb/revmodel.cpp **** 	update();
 1289              		.loc 3 186 11 is_stmt 0 discriminator 14 view .LVU405
 1290 0268 0C4B     		ldr	r3, .L60
 187:DSP/FX/Reverb/revmodel.cpp **** }
 1291              		.loc 3 187 8 discriminator 14 view .LVU406
 1292 026a 2046     		mov	r0, r4
 186:DSP/FX/Reverb/revmodel.cpp **** 	update();
 1293              		.loc 3 186 11 discriminator 14 view .LVU407
 1294 026c 6360     		str	r3, [r4, #4]	@ float
 187:DSP/FX/Reverb/revmodel.cpp **** }
 1295              		.loc 3 187 2 is_stmt 1 discriminator 14 view .LVU408
 187:DSP/FX/Reverb/revmodel.cpp **** }
 1296              		.loc 3 187 8 is_stmt 0 discriminator 14 view .LVU409
ARM GAS  /var/folders/wz/z09yph4n0qj4t7mjxhl6ttn80000gn/T//cctRKH6Z.s 			page 36


 1297 026e FFF7FEFF 		bl	_ZN8revmodel6updateEv
 1298              	.LVL110:
 187:DSP/FX/Reverb/revmodel.cpp **** }
 1299              		.loc 3 187 8 discriminator 14 view .LVU410
 1300              	.LBE61:
 1301              	.LBE60:
  48:DSP/FX/Reverb/revmodel.cpp **** 	setdamp(initialdamp);
 1302              		.loc 3 48 2 is_stmt 1 discriminator 14 view .LVU411
 1303              	.LBB62:
 1304              	.LBI55:
 217:DSP/FX/Reverb/revmodel.cpp **** {
 1305              		.loc 3 217 6 discriminator 14 view .LVU412
 1306              	.LBB57:
 219:DSP/FX/Reverb/revmodel.cpp **** }
 1307              		.loc 3 219 2 discriminator 14 view .LVU413
 1308              	.LBE57:
 1309              	.LBE62:
 1310              	.LBB63:
 1311              	.LBB64:
 197:DSP/FX/Reverb/revmodel.cpp **** 	update();
 1312              		.loc 3 197 7 is_stmt 0 discriminator 14 view .LVU414
 1313 0272 0B4B     		ldr	r3, .L60+4
 198:DSP/FX/Reverb/revmodel.cpp **** }
 1314              		.loc 3 198 8 discriminator 14 view .LVU415
 1315 0274 2046     		mov	r0, r4
 1316              	.LBE64:
 1317              	.LBE63:
 1318              	.LBB66:
 1319              	.LBB58:
 219:DSP/FX/Reverb/revmodel.cpp **** }
 1320              		.loc 3 219 6 discriminator 14 view .LVU416
 1321 0276 2562     		str	r5, [r4, #32]	@ float
 1322              	.LVL111:
 219:DSP/FX/Reverb/revmodel.cpp **** }
 1323              		.loc 3 219 6 discriminator 14 view .LVU417
 1324              	.LBE58:
 1325              	.LBE66:
  49:DSP/FX/Reverb/revmodel.cpp **** 	setwidth(initialwidth);
 1326              		.loc 3 49 2 is_stmt 1 discriminator 14 view .LVU418
 1327              	.LBB67:
 1328              	.LBI63:
 195:DSP/FX/Reverb/revmodel.cpp **** {
 1329              		.loc 3 195 6 discriminator 14 view .LVU419
 1330              	.LBB65:
 197:DSP/FX/Reverb/revmodel.cpp **** 	update();
 1331              		.loc 3 197 2 discriminator 14 view .LVU420
 197:DSP/FX/Reverb/revmodel.cpp **** 	update();
 1332              		.loc 3 197 7 is_stmt 0 discriminator 14 view .LVU421
 1333 0278 E360     		str	r3, [r4, #12]	@ float
 198:DSP/FX/Reverb/revmodel.cpp **** }
 1334              		.loc 3 198 2 is_stmt 1 discriminator 14 view .LVU422
 198:DSP/FX/Reverb/revmodel.cpp **** }
 1335              		.loc 3 198 8 is_stmt 0 discriminator 14 view .LVU423
 1336 027a FFF7FEFF 		bl	_ZN8revmodel6updateEv
 1337              	.LVL112:
 198:DSP/FX/Reverb/revmodel.cpp **** }
 1338              		.loc 3 198 8 discriminator 14 view .LVU424
ARM GAS  /var/folders/wz/z09yph4n0qj4t7mjxhl6ttn80000gn/T//cctRKH6Z.s 			page 37


 1339              	.LBE65:
 1340              	.LBE67:
  50:DSP/FX/Reverb/revmodel.cpp **** 	setmode(initialmode);
 1341              		.loc 3 50 2 is_stmt 1 discriminator 14 view .LVU425
 1342              	.LBB68:
 1343              	.LBI68:
 227:DSP/FX/Reverb/revmodel.cpp **** {
 1344              		.loc 3 227 6 discriminator 14 view .LVU426
 1345              	.LBB69:
 229:DSP/FX/Reverb/revmodel.cpp **** 	update();
 1346              		.loc 3 229 2 discriminator 14 view .LVU427
 230:DSP/FX/Reverb/revmodel.cpp **** }
 1347              		.loc 3 230 8 is_stmt 0 discriminator 14 view .LVU428
 1348 027e 2046     		mov	r0, r4
 229:DSP/FX/Reverb/revmodel.cpp **** 	update();
 1349              		.loc 3 229 8 discriminator 14 view .LVU429
 1350 0280 6662     		str	r6, [r4, #36]	@ float
 230:DSP/FX/Reverb/revmodel.cpp **** }
 1351              		.loc 3 230 2 is_stmt 1 discriminator 14 view .LVU430
 230:DSP/FX/Reverb/revmodel.cpp **** }
 1352              		.loc 3 230 8 is_stmt 0 discriminator 14 view .LVU431
 1353 0282 FFF7FEFF 		bl	_ZN8revmodel6updateEv
 1354              	.LVL113:
 230:DSP/FX/Reverb/revmodel.cpp **** }
 1355              		.loc 3 230 8 discriminator 14 view .LVU432
 1356              	.LBE69:
 1357              	.LBE68:
  51:DSP/FX/Reverb/revmodel.cpp **** 
 1358              		.loc 3 51 2 is_stmt 1 discriminator 14 view .LVU433
 1359              	.LBB70:
 1360              	.LBI70:
 238:DSP/FX/Reverb/revmodel.cpp **** {
 1361              		.loc 3 238 6 discriminator 14 view .LVU434
 1362              	.LBB71:
 240:DSP/FX/Reverb/revmodel.cpp **** 	update();
 1363              		.loc 3 240 2 discriminator 14 view .LVU435
 241:DSP/FX/Reverb/revmodel.cpp **** }
 1364              		.loc 3 241 8 is_stmt 0 discriminator 14 view .LVU436
 1365 0286 2046     		mov	r0, r4
 240:DSP/FX/Reverb/revmodel.cpp **** 	update();
 1366              		.loc 3 240 7 discriminator 14 view .LVU437
 1367 0288 A562     		str	r5, [r4, #40]	@ float
 241:DSP/FX/Reverb/revmodel.cpp **** }
 1368              		.loc 3 241 2 is_stmt 1 discriminator 14 view .LVU438
 241:DSP/FX/Reverb/revmodel.cpp **** }
 1369              		.loc 3 241 8 is_stmt 0 discriminator 14 view .LVU439
 1370 028a FFF7FEFF 		bl	_ZN8revmodel6updateEv
 1371              	.LVL114:
 241:DSP/FX/Reverb/revmodel.cpp **** }
 1372              		.loc 3 241 8 discriminator 14 view .LVU440
 1373              	.LBE71:
 1374              	.LBE70:
  54:DSP/FX/Reverb/revmodel.cpp **** }
 1375              		.loc 3 54 2 is_stmt 1 discriminator 14 view .LVU441
  54:DSP/FX/Reverb/revmodel.cpp **** }
 1376              		.loc 3 54 6 is_stmt 0 discriminator 14 view .LVU442
 1377 028e 2046     		mov	r0, r4
ARM GAS  /var/folders/wz/z09yph4n0qj4t7mjxhl6ttn80000gn/T//cctRKH6Z.s 			page 38


 1378 0290 FFF7FEFF 		bl	_ZN8revmodel4muteEv
 1379              	.LVL115:
 1380              	.LBE72:
  55:DSP/FX/Reverb/revmodel.cpp **** 
 1381              		.loc 3 55 1 discriminator 14 view .LVU443
 1382 0294 2046     		mov	r0, r4
 1383 0296 03B0     		add	sp, sp, #12
 1384              		.cfi_def_cfa_offset 36
 1385              		@ sp needed
 1386 0298 BDE8F08F 		pop	{r4, r5, r6, r7, r8, r9, r10, fp, pc}
 1387              	.LVL116:
 1388              	.L61:
  55:DSP/FX/Reverb/revmodel.cpp **** 
 1389              		.loc 3 55 1 discriminator 14 view .LVU444
 1390              		.align	2
 1391              	.L60:
 1392 029c 3D0A573F 		.word	1062668861
 1393 02a0 CDCC4C3E 		.word	1045220557
 1394              		.cfi_endproc
 1395              	.LFE547:
 1397              		.global	_ZN8revmodelC1Ev
 1398              		.thumb_set _ZN8revmodelC1Ev,_ZN8revmodelC2Ev
 1399              		.section	.text._ZN8revmodel11setroomsizeEf,"ax",%progbits
 1400              		.align	1
 1401              		.global	_ZN8revmodel11setroomsizeEf
 1402              		.syntax unified
 1403              		.thumb
 1404              		.thumb_func
 1406              	_ZN8revmodel11setroomsizeEf:
 1407              	.LVL117:
 1408              	.LFB553:
 185:DSP/FX/Reverb/revmodel.cpp **** 	roomsize = (value*scaleroom) + offsetroom;
 1409              		.loc 3 185 1 is_stmt 1 view -0
 1410              		.cfi_startproc
 1411              		@ args = 0, pretend = 0, frame = 0
 1412              		@ frame_needed = 0, uses_anonymous_args = 0
 1413              		@ link register save eliminated.
 186:DSP/FX/Reverb/revmodel.cpp **** 	update();
 1414              		.loc 3 186 2 view .LVU446
 186:DSP/FX/Reverb/revmodel.cpp **** 	update();
 1415              		.loc 3 186 31 is_stmt 0 view .LVU447
 1416 0000 9FED047A 		vldr.32	s14, .L63
 1417 0004 DFED047A 		vldr.32	s15, .L63+4
 1418 0008 E0EE077A 		vfma.f32	s15, s0, s14
 186:DSP/FX/Reverb/revmodel.cpp **** 	update();
 1419              		.loc 3 186 11 view .LVU448
 1420 000c C0ED017A 		vstr.32	s15, [r0, #4]
 187:DSP/FX/Reverb/revmodel.cpp **** }
 1421              		.loc 3 187 2 is_stmt 1 view .LVU449
 187:DSP/FX/Reverb/revmodel.cpp **** }
 1422              		.loc 3 187 8 is_stmt 0 view .LVU450
 1423 0010 FFF7FEBF 		b	_ZN8revmodel6updateEv
 1424              	.LVL118:
 1425              	.L64:
 187:DSP/FX/Reverb/revmodel.cpp **** }
 1426              		.loc 3 187 8 view .LVU451
 1427              		.align	2
ARM GAS  /var/folders/wz/z09yph4n0qj4t7mjxhl6ttn80000gn/T//cctRKH6Z.s 			page 39


 1428              	.L63:
 1429 0014 295C8F3E 		.word	1049582633
 1430 0018 3333333F 		.word	1060320051
 1431              		.cfi_endproc
 1432              	.LFE553:
 1434              		.section	.text._ZN8revmodel11getroomsizeEv,"ax",%progbits
 1435              		.align	1
 1436              		.global	_ZN8revmodel11getroomsizeEv
 1437              		.syntax unified
 1438              		.thumb
 1439              		.thumb_func
 1441              	_ZN8revmodel11getroomsizeEv:
 1442              	.LVL119:
 1443              	.LFB554:
 191:DSP/FX/Reverb/revmodel.cpp **** 	return (roomsize-offsetroom)/scaleroom;
 1444              		.loc 3 191 1 is_stmt 1 view -0
 1445              		.cfi_startproc
 1446              		@ args = 0, pretend = 0, frame = 0
 1447              		@ frame_needed = 0, uses_anonymous_args = 0
 1448              		@ link register save eliminated.
 192:DSP/FX/Reverb/revmodel.cpp **** }
 1449              		.loc 3 192 2 view .LVU453
 192:DSP/FX/Reverb/revmodel.cpp **** }
 1450              		.loc 3 192 18 is_stmt 0 view .LVU454
 1451 0000 D0ED017A 		vldr.32	s15, [r0, #4]
 1452 0004 9FED040A 		vldr.32	s0, .L66
 1453 0008 77EEC07A 		vsub.f32	s15, s15, s0
 193:DSP/FX/Reverb/revmodel.cpp **** 
 1454              		.loc 3 193 1 view .LVU455
 1455 000c 9FED030A 		vldr.32	s0, .L66+4
 1456 0010 87EE800A 		vdiv.f32	s0, s15, s0
 1457 0014 7047     		bx	lr
 1458              	.L67:
 1459 0016 00BF     		.align	2
 1460              	.L66:
 1461 0018 3333333F 		.word	1060320051
 1462 001c 295C8F3E 		.word	1049582633
 1463              		.cfi_endproc
 1464              	.LFE554:
 1466              		.section	.text._ZN8revmodel7setdampEf,"ax",%progbits
 1467              		.align	1
 1468              		.global	_ZN8revmodel7setdampEf
 1469              		.syntax unified
 1470              		.thumb
 1471              		.thumb_func
 1473              	_ZN8revmodel7setdampEf:
 1474              	.LVL120:
 1475              	.LFB555:
 196:DSP/FX/Reverb/revmodel.cpp **** 	damp = value*scaledamp;
 1476              		.loc 3 196 1 is_stmt 1 view -0
 1477              		.cfi_startproc
 1478              		@ args = 0, pretend = 0, frame = 0
 1479              		@ frame_needed = 0, uses_anonymous_args = 0
 1480              		@ link register save eliminated.
 197:DSP/FX/Reverb/revmodel.cpp **** 	update();
 1481              		.loc 3 197 2 view .LVU457
 197:DSP/FX/Reverb/revmodel.cpp **** 	update();
ARM GAS  /var/folders/wz/z09yph4n0qj4t7mjxhl6ttn80000gn/T//cctRKH6Z.s 			page 40


 1482              		.loc 3 197 14 is_stmt 0 view .LVU458
 1483 0000 DFED037A 		vldr.32	s15, .L69
 1484 0004 20EE270A 		vmul.f32	s0, s0, s15
 1485              	.LVL121:
 197:DSP/FX/Reverb/revmodel.cpp **** 	update();
 1486              		.loc 3 197 7 view .LVU459
 1487 0008 80ED030A 		vstr.32	s0, [r0, #12]
 198:DSP/FX/Reverb/revmodel.cpp **** }
 1488              		.loc 3 198 2 is_stmt 1 view .LVU460
 198:DSP/FX/Reverb/revmodel.cpp **** }
 1489              		.loc 3 198 8 is_stmt 0 view .LVU461
 1490 000c FFF7FEBF 		b	_ZN8revmodel6updateEv
 1491              	.LVL122:
 1492              	.L70:
 198:DSP/FX/Reverb/revmodel.cpp **** }
 1493              		.loc 3 198 8 view .LVU462
 1494              		.align	2
 1495              	.L69:
 1496 0010 CDCCCC3E 		.word	1053609165
 1497              		.cfi_endproc
 1498              	.LFE555:
 1500              		.section	.text._ZN8revmodel7getdampEv,"ax",%progbits
 1501              		.align	1
 1502              		.global	_ZN8revmodel7getdampEv
 1503              		.syntax unified
 1504              		.thumb
 1505              		.thumb_func
 1507              	_ZN8revmodel7getdampEv:
 1508              	.LVL123:
 1509              	.LFB556:
 202:DSP/FX/Reverb/revmodel.cpp **** 	return damp/scaledamp;
 1510              		.loc 3 202 1 is_stmt 1 view -0
 1511              		.cfi_startproc
 1512              		@ args = 0, pretend = 0, frame = 0
 1513              		@ frame_needed = 0, uses_anonymous_args = 0
 1514              		@ link register save eliminated.
 203:DSP/FX/Reverb/revmodel.cpp **** }
 1515              		.loc 3 203 2 view .LVU464
 203:DSP/FX/Reverb/revmodel.cpp **** }
 1516              		.loc 3 203 14 is_stmt 0 view .LVU465
 1517 0000 90ED030A 		vldr.32	s0, [r0, #12]
 204:DSP/FX/Reverb/revmodel.cpp **** 
 1518              		.loc 3 204 1 view .LVU466
 1519 0004 DFED027A 		vldr.32	s15, .L72
 1520 0008 80EE270A 		vdiv.f32	s0, s0, s15
 1521 000c 7047     		bx	lr
 1522              	.L73:
 1523 000e 00BF     		.align	2
 1524              	.L72:
 1525 0010 CDCCCC3E 		.word	1053609165
 1526              		.cfi_endproc
 1527              	.LFE556:
 1529              		.section	.text._ZN8revmodel6setwetEf,"ax",%progbits
 1530              		.align	1
 1531              		.global	_ZN8revmodel6setwetEf
 1532              		.syntax unified
 1533              		.thumb
ARM GAS  /var/folders/wz/z09yph4n0qj4t7mjxhl6ttn80000gn/T//cctRKH6Z.s 			page 41


 1534              		.thumb_func
 1536              	_ZN8revmodel6setwetEf:
 1537              	.LVL124:
 1538              	.LFB557:
 207:DSP/FX/Reverb/revmodel.cpp **** 	wet = value*scalewet;
 1539              		.loc 3 207 1 is_stmt 1 view -0
 1540              		.cfi_startproc
 1541              		@ args = 0, pretend = 0, frame = 0
 1542              		@ frame_needed = 0, uses_anonymous_args = 0
 1543              		@ link register save eliminated.
 208:DSP/FX/Reverb/revmodel.cpp **** 	update();
 1544              		.loc 3 208 2 view .LVU468
 208:DSP/FX/Reverb/revmodel.cpp **** 	update();
 1545              		.loc 3 208 13 is_stmt 0 view .LVU469
 1546 0000 F0EE087A 		vmov.f32	s15, #3.0e+0
 1547 0004 20EE270A 		vmul.f32	s0, s0, s15
 1548              	.LVL125:
 208:DSP/FX/Reverb/revmodel.cpp **** 	update();
 1549              		.loc 3 208 6 view .LVU470
 1550 0008 80ED050A 		vstr.32	s0, [r0, #20]
 209:DSP/FX/Reverb/revmodel.cpp **** }
 1551              		.loc 3 209 2 is_stmt 1 view .LVU471
 209:DSP/FX/Reverb/revmodel.cpp **** }
 1552              		.loc 3 209 8 is_stmt 0 view .LVU472
 1553 000c FFF7FEBF 		b	_ZN8revmodel6updateEv
 1554              	.LVL126:
 209:DSP/FX/Reverb/revmodel.cpp **** }
 1555              		.loc 3 209 8 view .LVU473
 1556              		.cfi_endproc
 1557              	.LFE557:
 1559              		.section	.text._ZN8revmodel6getwetEv,"ax",%progbits
 1560              		.align	1
 1561              		.global	_ZN8revmodel6getwetEv
 1562              		.syntax unified
 1563              		.thumb
 1564              		.thumb_func
 1566              	_ZN8revmodel6getwetEv:
 1567              	.LVL127:
 1568              	.LFB558:
 213:DSP/FX/Reverb/revmodel.cpp **** 	return wet/scalewet;
 1569              		.loc 3 213 1 is_stmt 1 view -0
 1570              		.cfi_startproc
 1571              		@ args = 0, pretend = 0, frame = 0
 1572              		@ frame_needed = 0, uses_anonymous_args = 0
 1573              		@ link register save eliminated.
 214:DSP/FX/Reverb/revmodel.cpp **** }
 1574              		.loc 3 214 2 view .LVU475
 215:DSP/FX/Reverb/revmodel.cpp **** 
 1575              		.loc 3 215 1 is_stmt 0 view .LVU476
 1576 0000 F0EE087A 		vmov.f32	s15, #3.0e+0
 214:DSP/FX/Reverb/revmodel.cpp **** }
 1577              		.loc 3 214 13 view .LVU477
 1578 0004 90ED050A 		vldr.32	s0, [r0, #20]
 215:DSP/FX/Reverb/revmodel.cpp **** 
 1579              		.loc 3 215 1 view .LVU478
 1580 0008 80EE270A 		vdiv.f32	s0, s0, s15
 1581 000c 7047     		bx	lr
ARM GAS  /var/folders/wz/z09yph4n0qj4t7mjxhl6ttn80000gn/T//cctRKH6Z.s 			page 42


 1582              		.cfi_endproc
 1583              	.LFE558:
 1585              		.section	.text._ZN8revmodel6setdryEf,"ax",%progbits
 1586              		.align	1
 1587              		.global	_ZN8revmodel6setdryEf
 1588              		.syntax unified
 1589              		.thumb
 1590              		.thumb_func
 1592              	_ZN8revmodel6setdryEf:
 1593              	.LVL128:
 1594              	.LFB559:
 218:DSP/FX/Reverb/revmodel.cpp **** 	dry = value*scaledry;
 1595              		.loc 3 218 1 is_stmt 1 view -0
 1596              		.cfi_startproc
 1597              		@ args = 0, pretend = 0, frame = 0
 1598              		@ frame_needed = 0, uses_anonymous_args = 0
 1599              		@ link register save eliminated.
 219:DSP/FX/Reverb/revmodel.cpp **** }
 1600              		.loc 3 219 2 view .LVU480
 219:DSP/FX/Reverb/revmodel.cpp **** }
 1601              		.loc 3 219 13 is_stmt 0 view .LVU481
 1602 0000 30EE000A 		vadd.f32	s0, s0, s0
 1603              	.LVL129:
 219:DSP/FX/Reverb/revmodel.cpp **** }
 1604              		.loc 3 219 6 view .LVU482
 1605 0004 80ED080A 		vstr.32	s0, [r0, #32]
 220:DSP/FX/Reverb/revmodel.cpp **** 
 1606              		.loc 3 220 1 view .LVU483
 1607 0008 7047     		bx	lr
 1608              		.cfi_endproc
 1609              	.LFE559:
 1611              		.section	.text._ZN8revmodel6getdryEv,"ax",%progbits
 1612              		.align	1
 1613              		.global	_ZN8revmodel6getdryEv
 1614              		.syntax unified
 1615              		.thumb
 1616              		.thumb_func
 1618              	_ZN8revmodel6getdryEv:
 1619              	.LVL130:
 1620              	.LFB560:
 223:DSP/FX/Reverb/revmodel.cpp **** 	return dry/scaledry;
 1621              		.loc 3 223 1 is_stmt 1 view -0
 1622              		.cfi_startproc
 1623              		@ args = 0, pretend = 0, frame = 0
 1624              		@ frame_needed = 0, uses_anonymous_args = 0
 1625              		@ link register save eliminated.
 224:DSP/FX/Reverb/revmodel.cpp **** }
 1626              		.loc 3 224 2 view .LVU485
 225:DSP/FX/Reverb/revmodel.cpp **** 
 1627              		.loc 3 225 1 is_stmt 0 view .LVU486
 1628 0000 F6EE007A 		vmov.f32	s15, #5.0e-1
 224:DSP/FX/Reverb/revmodel.cpp **** }
 1629              		.loc 3 224 13 view .LVU487
 1630 0004 90ED080A 		vldr.32	s0, [r0, #32]
 225:DSP/FX/Reverb/revmodel.cpp **** 
 1631              		.loc 3 225 1 view .LVU488
 1632 0008 20EE270A 		vmul.f32	s0, s0, s15
ARM GAS  /var/folders/wz/z09yph4n0qj4t7mjxhl6ttn80000gn/T//cctRKH6Z.s 			page 43


 1633 000c 7047     		bx	lr
 1634              		.cfi_endproc
 1635              	.LFE560:
 1637              		.section	.text._ZN8revmodel8setwidthEf,"ax",%progbits
 1638              		.align	1
 1639              		.global	_ZN8revmodel8setwidthEf
 1640              		.syntax unified
 1641              		.thumb
 1642              		.thumb_func
 1644              	_ZN8revmodel8setwidthEf:
 1645              	.LVL131:
 1646              	.LFB561:
 228:DSP/FX/Reverb/revmodel.cpp **** 	width = value;
 1647              		.loc 3 228 1 is_stmt 1 view -0
 1648              		.cfi_startproc
 1649              		@ args = 0, pretend = 0, frame = 0
 1650              		@ frame_needed = 0, uses_anonymous_args = 0
 1651              		@ link register save eliminated.
 229:DSP/FX/Reverb/revmodel.cpp **** 	update();
 1652              		.loc 3 229 2 view .LVU490
 229:DSP/FX/Reverb/revmodel.cpp **** 	update();
 1653              		.loc 3 229 8 is_stmt 0 view .LVU491
 1654 0000 80ED090A 		vstr.32	s0, [r0, #36]
 230:DSP/FX/Reverb/revmodel.cpp **** }
 1655              		.loc 3 230 2 is_stmt 1 view .LVU492
 230:DSP/FX/Reverb/revmodel.cpp **** }
 1656              		.loc 3 230 8 is_stmt 0 view .LVU493
 1657 0004 FFF7FEBF 		b	_ZN8revmodel6updateEv
 1658              	.LVL132:
 230:DSP/FX/Reverb/revmodel.cpp **** }
 1659              		.loc 3 230 8 view .LVU494
 1660              		.cfi_endproc
 1661              	.LFE561:
 1663              		.section	.text._ZN8revmodel8getwidthEv,"ax",%progbits
 1664              		.align	1
 1665              		.global	_ZN8revmodel8getwidthEv
 1666              		.syntax unified
 1667              		.thumb
 1668              		.thumb_func
 1670              	_ZN8revmodel8getwidthEv:
 1671              	.LVL133:
 1672              	.LFB562:
 234:DSP/FX/Reverb/revmodel.cpp **** 	return width;
 1673              		.loc 3 234 1 is_stmt 1 view -0
 1674              		.cfi_startproc
 1675              		@ args = 0, pretend = 0, frame = 0
 1676              		@ frame_needed = 0, uses_anonymous_args = 0
 1677              		@ link register save eliminated.
 235:DSP/FX/Reverb/revmodel.cpp **** }
 1678              		.loc 3 235 2 view .LVU496
 236:DSP/FX/Reverb/revmodel.cpp **** 
 1679              		.loc 3 236 1 is_stmt 0 view .LVU497
 1680 0000 90ED090A 		vldr.32	s0, [r0, #36]
 1681 0004 7047     		bx	lr
 1682              		.cfi_endproc
 1683              	.LFE562:
 1685              		.section	.text._ZN8revmodel7setmodeEf,"ax",%progbits
ARM GAS  /var/folders/wz/z09yph4n0qj4t7mjxhl6ttn80000gn/T//cctRKH6Z.s 			page 44


 1686              		.align	1
 1687              		.global	_ZN8revmodel7setmodeEf
 1688              		.syntax unified
 1689              		.thumb
 1690              		.thumb_func
 1692              	_ZN8revmodel7setmodeEf:
 1693              	.LVL134:
 1694              	.LFB563:
 239:DSP/FX/Reverb/revmodel.cpp **** 	mode = value;
 1695              		.loc 3 239 1 is_stmt 1 view -0
 1696              		.cfi_startproc
 1697              		@ args = 0, pretend = 0, frame = 0
 1698              		@ frame_needed = 0, uses_anonymous_args = 0
 1699              		@ link register save eliminated.
 240:DSP/FX/Reverb/revmodel.cpp **** 	update();
 1700              		.loc 3 240 2 view .LVU499
 240:DSP/FX/Reverb/revmodel.cpp **** 	update();
 1701              		.loc 3 240 7 is_stmt 0 view .LVU500
 1702 0000 80ED0A0A 		vstr.32	s0, [r0, #40]
 241:DSP/FX/Reverb/revmodel.cpp **** }
 1703              		.loc 3 241 2 is_stmt 1 view .LVU501
 241:DSP/FX/Reverb/revmodel.cpp **** }
 1704              		.loc 3 241 8 is_stmt 0 view .LVU502
 1705 0004 FFF7FEBF 		b	_ZN8revmodel6updateEv
 1706              	.LVL135:
 241:DSP/FX/Reverb/revmodel.cpp **** }
 1707              		.loc 3 241 8 view .LVU503
 1708              		.cfi_endproc
 1709              	.LFE563:
 1711              		.section	.text._ZN8revmodel7getmodeEv,"ax",%progbits
 1712              		.align	1
 1713              		.global	_ZN8revmodel7getmodeEv
 1714              		.syntax unified
 1715              		.thumb
 1716              		.thumb_func
 1718              	_ZN8revmodel7getmodeEv:
 1719              	.LVL136:
 1720              	.LFB564:
 245:DSP/FX/Reverb/revmodel.cpp **** 	if (mode >= freezemode)
 1721              		.loc 3 245 1 is_stmt 1 view -0
 1722              		.cfi_startproc
 1723              		@ args = 0, pretend = 0, frame = 0
 1724              		@ frame_needed = 0, uses_anonymous_args = 0
 1725              		@ link register save eliminated.
 1726              		.loc 3 246 2 view .LVU505
 247:DSP/FX/Reverb/revmodel.cpp **** 		return 1;
 248:DSP/FX/Reverb/revmodel.cpp **** 	else
 249:DSP/FX/Reverb/revmodel.cpp **** 		return 0;
 1727              		.loc 3 249 10 is_stmt 0 view .LVU506
 1728 0000 F6EE007A 		vmov.f32	s15, #5.0e-1
 246:DSP/FX/Reverb/revmodel.cpp **** 		return 1;
 1729              		.loc 3 246 2 view .LVU507
 1730 0004 90ED0A7A 		vldr.32	s14, [r0, #40]
 250:DSP/FX/Reverb/revmodel.cpp **** }
 1731              		.loc 3 250 1 view .LVU508
 1732 0008 B7EE000A 		vmov.f32	s0, #1.0e+0
 249:DSP/FX/Reverb/revmodel.cpp **** }
ARM GAS  /var/folders/wz/z09yph4n0qj4t7mjxhl6ttn80000gn/T//cctRKH6Z.s 			page 45


 1733              		.loc 3 249 10 view .LVU509
 1734 000c B4EEE77A 		vcmpe.f32	s14, s15
 1735              		.loc 3 250 1 view .LVU510
 1736 0010 DFED037A 		vldr.32	s15, .L84
 249:DSP/FX/Reverb/revmodel.cpp **** }
 1737              		.loc 3 249 10 view .LVU511
 1738 0014 F1EE10FA 		vmrs	APSR_nzcv, FPSCR
 1739              		.loc 3 250 1 view .LVU512
 1740 0018 20FE270A 		vselge.f32	s0, s0, s15
 1741 001c 7047     		bx	lr
 1742              	.L85:
 1743 001e 00BF     		.align	2
 1744              	.L84:
 1745 0020 00000000 		.word	0
 1746              		.cfi_endproc
 1747              	.LFE564:
 1749              		.text
 1750              	.Letext0:
 1751              		.file 4 "/Library/DaisyToolchain/0.2.0/arm/arm-none-eabi/include/c++/10.3.1/cmath"
 1752              		.file 5 "/Library/DaisyToolchain/0.2.0/arm/arm-none-eabi/include/c++/10.3.1/bits/std_abs.h"
 1753              		.file 6 "/Library/DaisyToolchain/0.2.0/arm/arm-none-eabi/include/c++/10.3.1/arm-none-eabi/thumb/v7
 1754              		.file 7 "/Library/DaisyToolchain/0.2.0/arm/arm-none-eabi/include/math.h"
 1755              		.file 8 "/Library/DaisyToolchain/0.2.0/arm/arm-none-eabi/include/c++/10.3.1/math.h"
 1756              		.file 9 "DSP/FX/Reverb/tuning.h"
 1757              		.file 10 "DSP/FX/Reverb/revmodel.hpp"
 1758              		.file 11 "<built-in>"
ARM GAS  /var/folders/wz/z09yph4n0qj4t7mjxhl6ttn80000gn/T//cctRKH6Z.s 			page 46


DEFINED SYMBOLS
                            *ABS*:0000000000000000 revmodel.cpp
/var/folders/wz/z09yph4n0qj4t7mjxhl6ttn80000gn/T//cctRKH6Z.s:19     .text._ZN4comb7processEf:0000000000000000 $t
/var/folders/wz/z09yph4n0qj4t7mjxhl6ttn80000gn/T//cctRKH6Z.s:25     .text._ZN4comb7processEf:0000000000000000 _ZN4comb7processEf
/var/folders/wz/z09yph4n0qj4t7mjxhl6ttn80000gn/T//cctRKH6Z.s:108    .text._ZN4comb7processEf:000000000000006c $d
/var/folders/wz/z09yph4n0qj4t7mjxhl6ttn80000gn/T//cctRKH6Z.s:113    .text._ZN7allpass7processEf:0000000000000000 $t
/var/folders/wz/z09yph4n0qj4t7mjxhl6ttn80000gn/T//cctRKH6Z.s:119    .text._ZN7allpass7processEf:0000000000000000 _ZN7allpass7processEf
/var/folders/wz/z09yph4n0qj4t7mjxhl6ttn80000gn/T//cctRKH6Z.s:181    .text._ZN7allpass7processEf:0000000000000040 $d
/var/folders/wz/z09yph4n0qj4t7mjxhl6ttn80000gn/T//cctRKH6Z.s:186    .text._ZN8revmodel4muteEv:0000000000000000 $t
/var/folders/wz/z09yph4n0qj4t7mjxhl6ttn80000gn/T//cctRKH6Z.s:192    .text._ZN8revmodel4muteEv:0000000000000000 _ZN8revmodel4muteEv
/var/folders/wz/z09yph4n0qj4t7mjxhl6ttn80000gn/T//cctRKH6Z.s:291    .text._ZN8revmodel14processreplaceEPfS0_S0_S0_li:0000000000000000 $t
/var/folders/wz/z09yph4n0qj4t7mjxhl6ttn80000gn/T//cctRKH6Z.s:297    .text._ZN8revmodel14processreplaceEPfS0_S0_S0_li:0000000000000000 _ZN8revmodel14processreplaceEPfS0_S0_S0_li
/var/folders/wz/z09yph4n0qj4t7mjxhl6ttn80000gn/T//cctRKH6Z.s:524    .text._ZN8revmodel14processreplaceEPfS0_S0_S0_li:0000000000000108 $d
/var/folders/wz/z09yph4n0qj4t7mjxhl6ttn80000gn/T//cctRKH6Z.s:529    .text._ZN8revmodel10processmixEPfS0_S0_S0_li:0000000000000000 $t
/var/folders/wz/z09yph4n0qj4t7mjxhl6ttn80000gn/T//cctRKH6Z.s:535    .text._ZN8revmodel10processmixEPfS0_S0_S0_li:0000000000000000 _ZN8revmodel10processmixEPfS0_S0_S0_li
/var/folders/wz/z09yph4n0qj4t7mjxhl6ttn80000gn/T//cctRKH6Z.s:770    .text._ZN8revmodel10processmixEPfS0_S0_S0_li:0000000000000118 $d
/var/folders/wz/z09yph4n0qj4t7mjxhl6ttn80000gn/T//cctRKH6Z.s:775    .text._ZN8revmodel6updateEv:0000000000000000 $t
/var/folders/wz/z09yph4n0qj4t7mjxhl6ttn80000gn/T//cctRKH6Z.s:781    .text._ZN8revmodel6updateEv:0000000000000000 _ZN8revmodel6updateEv
/var/folders/wz/z09yph4n0qj4t7mjxhl6ttn80000gn/T//cctRKH6Z.s:905    .text._ZN8revmodel6updateEv:000000000000009c $d
/var/folders/wz/z09yph4n0qj4t7mjxhl6ttn80000gn/T//cctRKH6Z.s:910    .text._ZN8revmodelC2Ev:0000000000000000 $t
/var/folders/wz/z09yph4n0qj4t7mjxhl6ttn80000gn/T//cctRKH6Z.s:916    .text._ZN8revmodelC2Ev:0000000000000000 _ZN8revmodelC2Ev
/var/folders/wz/z09yph4n0qj4t7mjxhl6ttn80000gn/T//cctRKH6Z.s:1392   .text._ZN8revmodelC2Ev:000000000000029c $d
/var/folders/wz/z09yph4n0qj4t7mjxhl6ttn80000gn/T//cctRKH6Z.s:916    .text._ZN8revmodelC2Ev:0000000000000000 _ZN8revmodelC1Ev
/var/folders/wz/z09yph4n0qj4t7mjxhl6ttn80000gn/T//cctRKH6Z.s:1400   .text._ZN8revmodel11setroomsizeEf:0000000000000000 $t
/var/folders/wz/z09yph4n0qj4t7mjxhl6ttn80000gn/T//cctRKH6Z.s:1406   .text._ZN8revmodel11setroomsizeEf:0000000000000000 _ZN8revmodel11setroomsizeEf
/var/folders/wz/z09yph4n0qj4t7mjxhl6ttn80000gn/T//cctRKH6Z.s:1429   .text._ZN8revmodel11setroomsizeEf:0000000000000014 $d
/var/folders/wz/z09yph4n0qj4t7mjxhl6ttn80000gn/T//cctRKH6Z.s:1435   .text._ZN8revmodel11getroomsizeEv:0000000000000000 $t
/var/folders/wz/z09yph4n0qj4t7mjxhl6ttn80000gn/T//cctRKH6Z.s:1441   .text._ZN8revmodel11getroomsizeEv:0000000000000000 _ZN8revmodel11getroomsizeEv
/var/folders/wz/z09yph4n0qj4t7mjxhl6ttn80000gn/T//cctRKH6Z.s:1461   .text._ZN8revmodel11getroomsizeEv:0000000000000018 $d
/var/folders/wz/z09yph4n0qj4t7mjxhl6ttn80000gn/T//cctRKH6Z.s:1467   .text._ZN8revmodel7setdampEf:0000000000000000 $t
/var/folders/wz/z09yph4n0qj4t7mjxhl6ttn80000gn/T//cctRKH6Z.s:1473   .text._ZN8revmodel7setdampEf:0000000000000000 _ZN8revmodel7setdampEf
/var/folders/wz/z09yph4n0qj4t7mjxhl6ttn80000gn/T//cctRKH6Z.s:1496   .text._ZN8revmodel7setdampEf:0000000000000010 $d
/var/folders/wz/z09yph4n0qj4t7mjxhl6ttn80000gn/T//cctRKH6Z.s:1501   .text._ZN8revmodel7getdampEv:0000000000000000 $t
/var/folders/wz/z09yph4n0qj4t7mjxhl6ttn80000gn/T//cctRKH6Z.s:1507   .text._ZN8revmodel7getdampEv:0000000000000000 _ZN8revmodel7getdampEv
/var/folders/wz/z09yph4n0qj4t7mjxhl6ttn80000gn/T//cctRKH6Z.s:1525   .text._ZN8revmodel7getdampEv:0000000000000010 $d
/var/folders/wz/z09yph4n0qj4t7mjxhl6ttn80000gn/T//cctRKH6Z.s:1530   .text._ZN8revmodel6setwetEf:0000000000000000 $t
/var/folders/wz/z09yph4n0qj4t7mjxhl6ttn80000gn/T//cctRKH6Z.s:1536   .text._ZN8revmodel6setwetEf:0000000000000000 _ZN8revmodel6setwetEf
/var/folders/wz/z09yph4n0qj4t7mjxhl6ttn80000gn/T//cctRKH6Z.s:1560   .text._ZN8revmodel6getwetEv:0000000000000000 $t
/var/folders/wz/z09yph4n0qj4t7mjxhl6ttn80000gn/T//cctRKH6Z.s:1566   .text._ZN8revmodel6getwetEv:0000000000000000 _ZN8revmodel6getwetEv
/var/folders/wz/z09yph4n0qj4t7mjxhl6ttn80000gn/T//cctRKH6Z.s:1586   .text._ZN8revmodel6setdryEf:0000000000000000 $t
/var/folders/wz/z09yph4n0qj4t7mjxhl6ttn80000gn/T//cctRKH6Z.s:1592   .text._ZN8revmodel6setdryEf:0000000000000000 _ZN8revmodel6setdryEf
/var/folders/wz/z09yph4n0qj4t7mjxhl6ttn80000gn/T//cctRKH6Z.s:1612   .text._ZN8revmodel6getdryEv:0000000000000000 $t
/var/folders/wz/z09yph4n0qj4t7mjxhl6ttn80000gn/T//cctRKH6Z.s:1618   .text._ZN8revmodel6getdryEv:0000000000000000 _ZN8revmodel6getdryEv
/var/folders/wz/z09yph4n0qj4t7mjxhl6ttn80000gn/T//cctRKH6Z.s:1638   .text._ZN8revmodel8setwidthEf:0000000000000000 $t
/var/folders/wz/z09yph4n0qj4t7mjxhl6ttn80000gn/T//cctRKH6Z.s:1644   .text._ZN8revmodel8setwidthEf:0000000000000000 _ZN8revmodel8setwidthEf
/var/folders/wz/z09yph4n0qj4t7mjxhl6ttn80000gn/T//cctRKH6Z.s:1664   .text._ZN8revmodel8getwidthEv:0000000000000000 $t
/var/folders/wz/z09yph4n0qj4t7mjxhl6ttn80000gn/T//cctRKH6Z.s:1670   .text._ZN8revmodel8getwidthEv:0000000000000000 _ZN8revmodel8getwidthEv
/var/folders/wz/z09yph4n0qj4t7mjxhl6ttn80000gn/T//cctRKH6Z.s:1686   .text._ZN8revmodel7setmodeEf:0000000000000000 $t
/var/folders/wz/z09yph4n0qj4t7mjxhl6ttn80000gn/T//cctRKH6Z.s:1692   .text._ZN8revmodel7setmodeEf:0000000000000000 _ZN8revmodel7setmodeEf
/var/folders/wz/z09yph4n0qj4t7mjxhl6ttn80000gn/T//cctRKH6Z.s:1712   .text._ZN8revmodel7getmodeEv:0000000000000000 $t
/var/folders/wz/z09yph4n0qj4t7mjxhl6ttn80000gn/T//cctRKH6Z.s:1718   .text._ZN8revmodel7getmodeEv:0000000000000000 _ZN8revmodel7getmodeEv
/var/folders/wz/z09yph4n0qj4t7mjxhl6ttn80000gn/T//cctRKH6Z.s:1745   .text._ZN8revmodel7getmodeEv:0000000000000020 $d

UNDEFINED SYMBOLS
_ZN4comb4muteEv
_ZN7allpass4muteEv
_ZN4comb11setfeedbackEf
ARM GAS  /var/folders/wz/z09yph4n0qj4t7mjxhl6ttn80000gn/T//cctRKH6Z.s 			page 47


_ZN4comb7setdampEf
_ZN4combC1Ev
_ZN7allpassC1Ev
_ZN4comb9setbufferEPfi
_ZN7allpass9setbufferEPfi
_ZN7allpass11setfeedbackEf
