ARM GAS  /var/folders/wz/z09yph4n0qj4t7mjxhl6ttn80000gn/T//ccuf4pAF.s 			page 1


   1              		.cpu cortex-m7
   2              		.arch armv7e-m
   3              		.fpu fpv5-d16
   4              		.eabi_attribute 28, 1
   5              		.eabi_attribute 20, 1
   6              		.eabi_attribute 21, 1
   7              		.eabi_attribute 23, 3
   8              		.eabi_attribute 24, 1
   9              		.eabi_attribute 25, 1
  10              		.eabi_attribute 26, 1
  11              		.eabi_attribute 30, 2
  12              		.eabi_attribute 34, 1
  13              		.eabi_attribute 18, 4
  14              		.file	"Track.cpp"
  15              		.text
  16              	.Ltext0:
  17              		.cfi_sections	.debug_frame
  18              		.section	.text._ZN5Track4initEPPfj,"ax",%progbits
  19              		.align	1
  20              		.p2align 2,,3
  21              		.global	_ZN5Track4initEPPfj
  22              		.syntax unified
  23              		.thumb
  24              		.thumb_func
  26              	_ZN5Track4initEPPfj:
  27              	.LVL0:
  28              	.LFB1384:
  29              		.file 1 "DSP/Track.cpp"
   1:DSP/Track.cpp **** #include "Track.h"
   2:DSP/Track.cpp **** 
   3:DSP/Track.cpp **** void Track::init(float* mem[2], const size_t s)
   4:DSP/Track.cpp **** {
  30              		.loc 1 4 1 view -0
  31              		.cfi_startproc
  32              		@ args = 0, pretend = 0, frame = 8
  33              		@ frame_needed = 0, uses_anonymous_args = 0
   5:DSP/Track.cpp ****     bufferSize = s;
  34              		.loc 1 5 5 view .LVU1
   4:DSP/Track.cpp ****     bufferSize = s;
  35              		.loc 1 4 1 is_stmt 0 view .LVU2
  36 0000 30B5     		push	{r4, r5, lr}
  37              		.cfi_def_cfa_offset 12
  38              		.cfi_offset 4, -12
  39              		.cfi_offset 5, -8
  40              		.cfi_offset 14, -4
  41 0002 0446     		mov	r4, r0
  42              	.LBB16:
   6:DSP/Track.cpp ****     for(int i = 0 ; i < 2 ; i++)
   7:DSP/Track.cpp ****         buffer[i] = mem[i];
  43              		.loc 1 7 26 view .LVU3
  44 0004 0868     		ldr	r0, [r1]
  45              	.LVL1:
  46              		.loc 1 7 26 view .LVU4
  47              	.LBE16:
   4:DSP/Track.cpp ****     bufferSize = s;
  48              		.loc 1 4 1 view .LVU5
  49 0006 83B0     		sub	sp, sp, #12
ARM GAS  /var/folders/wz/z09yph4n0qj4t7mjxhl6ttn80000gn/T//ccuf4pAF.s 			page 2


  50              		.cfi_def_cfa_offset 24
  51              	.LBB17:
  52              		.loc 1 7 19 view .LVU6
  53 0008 6061     		str	r0, [r4, #20]
  54              		.loc 1 7 26 view .LVU7
  55 000a 4D68     		ldr	r5, [r1, #4]
  56              	.LBE17:
   5:DSP/Track.cpp ****     for(int i = 0 ; i < 2 ; i++)
  57              		.loc 1 5 16 view .LVU8
  58 000c E261     		str	r2, [r4, #28]
   6:DSP/Track.cpp ****     for(int i = 0 ; i < 2 ; i++)
  59              		.loc 1 6 5 is_stmt 1 view .LVU9
  60              	.LVL2:
  61              	.LBB18:
   6:DSP/Track.cpp ****     for(int i = 0 ; i < 2 ; i++)
  62              		.loc 1 6 23 view .LVU10
  63              		.loc 1 7 9 view .LVU11
   6:DSP/Track.cpp ****     for(int i = 0 ; i < 2 ; i++)
  64              		.loc 1 6 5 view .LVU12
   6:DSP/Track.cpp ****     for(int i = 0 ; i < 2 ; i++)
  65              		.loc 1 6 23 view .LVU13
  66              		.loc 1 7 9 view .LVU14
  67              		.loc 1 7 19 is_stmt 0 view .LVU15
  68 000e A561     		str	r5, [r4, #24]
   6:DSP/Track.cpp ****     for(int i = 0 ; i < 2 ; i++)
  69              		.loc 1 6 5 is_stmt 1 view .LVU16
  70              	.LVL3:
   6:DSP/Track.cpp ****     for(int i = 0 ; i < 2 ; i++)
  71              		.loc 1 6 23 view .LVU17
   6:DSP/Track.cpp ****     for(int i = 0 ; i < 2 ; i++)
  72              		.loc 1 6 23 is_stmt 0 view .LVU18
  73              	.LBE18:
  74              	.LBB19:
   8:DSP/Track.cpp **** 
   9:DSP/Track.cpp ****     for(size_t i = 0 ; i < s ; i++)
  75              		.loc 1 9 26 is_stmt 1 view .LVU19
  76 0010 8AB1     		cbz	r2, .L2
  77 0012 1346     		mov	r3, r2
  78 0014 9200     		lsls	r2, r2, #2
  79              	.LVL4:
  80              		.loc 1 9 26 is_stmt 0 view .LVU20
  81 0016 05EB8303 		add	r3, r5, r3, lsl #2
  82              	.LVL5:
  83              		.loc 1 9 26 view .LVU21
  84 001a 9842     		cmp	r0, r3
  85 001c 02D2     		bcs	.L6
  86 001e 8118     		adds	r1, r0, r2
  87              	.LVL6:
  88              		.loc 1 9 26 view .LVU22
  89 0020 8D42     		cmp	r5, r1
  90 0022 11D3     		bcc	.L5
  91              	.L6:
  10:DSP/Track.cpp ****     {
  11:DSP/Track.cpp ****         buffer[L][i] = 0.0f;
  92              		.loc 1 11 22 view .LVU23
  93 0024 0021     		movs	r1, #0
  94 0026 0192     		str	r2, [sp, #4]
ARM GAS  /var/folders/wz/z09yph4n0qj4t7mjxhl6ttn80000gn/T//ccuf4pAF.s 			page 3


  95 0028 FFF7FEFF 		bl	memset
  96              	.LVL7:
  12:DSP/Track.cpp ****         buffer[R][i] = 0.0f;
  97              		.loc 1 12 22 view .LVU24
  98 002c 019A     		ldr	r2, [sp, #4]
  99 002e 0021     		movs	r1, #0
 100 0030 2846     		mov	r0, r5
 101 0032 FFF7FEFF 		bl	memset
 102              	.LVL8:
 103              	.L2:
 104              		.loc 1 12 22 view .LVU25
 105              	.LBE19:
  13:DSP/Track.cpp ****     }
  14:DSP/Track.cpp **** 
  15:DSP/Track.cpp ****     ph.isRecording = false;
 106              		.loc 1 15 5 is_stmt 1 view .LVU26
  16:DSP/Track.cpp ****     ph.isPlaying = false;
 107              		.loc 1 16 5 view .LVU27
  15:DSP/Track.cpp ****     ph.isPlaying = false;
 108              		.loc 1 15 20 is_stmt 0 view .LVU28
 109 0036 0023     		movs	r3, #0
  17:DSP/Track.cpp ****     ph.reset();
  18:DSP/Track.cpp **** 
  19:DSP/Track.cpp ****     ti.isEmpty = true;
 110              		.loc 1 19 16 view .LVU29
 111 0038 0122     		movs	r2, #1
  15:DSP/Track.cpp ****     ph.isPlaying = false;
 112              		.loc 1 15 20 view .LVU30
 113 003a 2380     		strh	r3, [r4]	@ movhi
  17:DSP/Track.cpp ****     ph.reset();
 114              		.loc 1 17 5 is_stmt 1 view .LVU31
 115              	.LVL9:
 116              	.LBB20:
 117              	.LBI20:
 118              		.file 2 "DSP/../Utils/Helpers.h"
   1:DSP/../Utils/Helpers.h **** #include "stddef.h"
   2:DSP/../Utils/Helpers.h **** #include <algorithm>
   3:DSP/../Utils/Helpers.h **** 
   4:DSP/../Utils/Helpers.h **** // playhead
   5:DSP/../Utils/Helpers.h **** struct Playhead
   6:DSP/../Utils/Helpers.h **** {
   7:DSP/../Utils/Helpers.h ****     bool isRecording;
   8:DSP/../Utils/Helpers.h ****     bool isPlaying;
   9:DSP/../Utils/Helpers.h ****     size_t writePos;
  10:DSP/../Utils/Helpers.h ****     size_t readPos;
  11:DSP/../Utils/Helpers.h **** 
  12:DSP/../Utils/Helpers.h ****     void reset() 
 119              		.loc 2 12 10 view .LVU32
 120              	.LBB21:
  13:DSP/../Utils/Helpers.h ****     { 
  14:DSP/../Utils/Helpers.h ****         writePos = 0;
 121              		.loc 2 14 9 view .LVU33
 122              	.LBE21:
 123              	.LBE20:
 124              		.loc 1 19 16 is_stmt 0 view .LVU34
 125 003c 2273     		strb	r2, [r4, #12]
  20:DSP/Track.cpp ****     ti.loopLength = 0;
ARM GAS  /var/folders/wz/z09yph4n0qj4t7mjxhl6ttn80000gn/T//ccuf4pAF.s 			page 4


 126              		.loc 1 20 19 view .LVU35
 127 003e 2361     		str	r3, [r4, #16]
 128              	.LBB23:
 129              	.LBB22:
  15:DSP/../Utils/Helpers.h ****         readPos = 0; 
 130              		.loc 2 15 17 view .LVU36
 131 0040 C4E90133 		strd	r3, r3, [r4, #4]
 132              	.LVL10:
 133              		.loc 2 15 17 view .LVU37
 134              	.LBE22:
 135              	.LBE23:
  19:DSP/Track.cpp ****     ti.loopLength = 0;
 136              		.loc 1 19 5 is_stmt 1 view .LVU38
 137              		.loc 1 20 5 view .LVU39
  21:DSP/Track.cpp **** }
 138              		.loc 1 21 1 is_stmt 0 view .LVU40
 139 0044 03B0     		add	sp, sp, #12
 140              		.cfi_remember_state
 141              		.cfi_def_cfa_offset 12
 142              		@ sp needed
 143 0046 30BD     		pop	{r4, r5, pc}
 144              	.LVL11:
 145              	.L5:
 146              		.cfi_restore_state
 147              	.LBB24:
  11:DSP/Track.cpp ****         buffer[R][i] = 0.0f;
 148              		.loc 1 11 9 is_stmt 1 view .LVU41
  11:DSP/Track.cpp ****         buffer[R][i] = 0.0f;
 149              		.loc 1 11 22 is_stmt 0 view .LVU42
 150 0048 0023     		movs	r3, #0
 151 004a 40F8043B 		str	r3, [r0], #4	@ float
  12:DSP/Track.cpp ****     }
 152              		.loc 1 12 9 is_stmt 1 view .LVU43
   9:DSP/Track.cpp ****     {
 153              		.loc 1 9 26 is_stmt 0 view .LVU44
 154 004e 8842     		cmp	r0, r1
  12:DSP/Track.cpp ****     }
 155              		.loc 1 12 22 view .LVU45
 156 0050 45F8043B 		str	r3, [r5], #4	@ float
   9:DSP/Track.cpp ****     {
 157              		.loc 1 9 5 is_stmt 1 view .LVU46
   9:DSP/Track.cpp ****     {
 158              		.loc 1 9 26 view .LVU47
 159 0054 EFD0     		beq	.L2
  11:DSP/Track.cpp ****         buffer[R][i] = 0.0f;
 160              		.loc 1 11 9 view .LVU48
  11:DSP/Track.cpp ****         buffer[R][i] = 0.0f;
 161              		.loc 1 11 22 is_stmt 0 view .LVU49
 162 0056 0023     		movs	r3, #0
 163 0058 40F8043B 		str	r3, [r0], #4	@ float
  12:DSP/Track.cpp ****     }
 164              		.loc 1 12 9 is_stmt 1 view .LVU50
   9:DSP/Track.cpp ****     {
 165              		.loc 1 9 26 is_stmt 0 view .LVU51
 166 005c 8842     		cmp	r0, r1
  12:DSP/Track.cpp ****     }
 167              		.loc 1 12 22 view .LVU52
ARM GAS  /var/folders/wz/z09yph4n0qj4t7mjxhl6ttn80000gn/T//ccuf4pAF.s 			page 5


 168 005e 45F8043B 		str	r3, [r5], #4	@ float
   9:DSP/Track.cpp ****     {
 169              		.loc 1 9 5 is_stmt 1 view .LVU53
   9:DSP/Track.cpp ****     {
 170              		.loc 1 9 26 view .LVU54
 171 0062 F1D1     		bne	.L5
 172 0064 E7E7     		b	.L2
 173              	.LBE24:
 174              		.cfi_endproc
 175              	.LFE1384:
 177 0066 00BF     		.section	.text._ZN5Track7prepareEv,"ax",%progbits
 178              		.align	1
 179              		.p2align 2,,3
 180              		.global	_ZN5Track7prepareEv
 181              		.syntax unified
 182              		.thumb
 183              		.thumb_func
 185              	_ZN5Track7prepareEv:
 186              	.LVL12:
 187              	.LFB1385:
  22:DSP/Track.cpp **** 
  23:DSP/Track.cpp **** void Track::prepare()
  24:DSP/Track.cpp **** {
 188              		.loc 1 24 1 view -0
 189              		.cfi_startproc
 190              		@ args = 0, pretend = 0, frame = 0
 191              		@ frame_needed = 0, uses_anonymous_args = 0
 192              		@ link register save eliminated.
  25:DSP/Track.cpp **** 
  26:DSP/Track.cpp **** }
 193              		.loc 1 26 1 is_stmt 0 view .LVU56
 194 0000 7047     		bx	lr
 195              		.cfi_endproc
 196              	.LFE1385:
 198 0002 00BF     		.section	.text._ZN5Track4tickEv,"ax",%progbits
 199              		.align	1
 200              		.p2align 2,,3
 201              		.global	_ZN5Track4tickEv
 202              		.syntax unified
 203              		.thumb
 204              		.thumb_func
 206              	_ZN5Track4tickEv:
 207              	.LFB1394:
 208              		.cfi_startproc
 209              		@ args = 0, pretend = 0, frame = 0
 210              		@ frame_needed = 0, uses_anonymous_args = 0
 211              		@ link register save eliminated.
 212 0000 7047     		bx	lr
 213              		.cfi_endproc
 214              	.LFE1394:
 216 0002 00BF     		.section	.text._ZN5Track14setIsRecordingEv,"ax",%progbits
 217              		.align	1
 218              		.p2align 2,,3
 219              		.global	_ZN5Track14setIsRecordingEv
 220              		.syntax unified
 221              		.thumb
 222              		.thumb_func
ARM GAS  /var/folders/wz/z09yph4n0qj4t7mjxhl6ttn80000gn/T//ccuf4pAF.s 			page 6


 224              	_ZN5Track14setIsRecordingEv:
 225              	.LVL13:
 226              	.LFB1387:
  27:DSP/Track.cpp **** 
  28:DSP/Track.cpp **** void Track::tick()
  29:DSP/Track.cpp **** {
  30:DSP/Track.cpp ****     
  31:DSP/Track.cpp **** }
  32:DSP/Track.cpp **** 
  33:DSP/Track.cpp **** void Track::setIsRecording()
  34:DSP/Track.cpp **** {
 227              		.loc 1 34 1 is_stmt 1 view -0
 228              		.cfi_startproc
 229              		@ args = 0, pretend = 0, frame = 0
 230              		@ frame_needed = 0, uses_anonymous_args = 0
 231              		@ link register save eliminated.
  35:DSP/Track.cpp ****     ph.isRecording = !ph.isRecording;
 232              		.loc 1 35 5 view .LVU58
 233              		.loc 1 35 22 is_stmt 0 view .LVU59
 234 0000 0378     		ldrb	r3, [r0]	@ zero_extendqisi2
 235 0002 83F00103 		eor	r3, r3, #1
 236              		.loc 1 35 20 view .LVU60
 237 0006 0370     		strb	r3, [r0]
  36:DSP/Track.cpp **** 
  37:DSP/Track.cpp ****     if(!ph.isRecording)
 238              		.loc 1 37 5 is_stmt 1 view .LVU61
 239 0008 13B9     		cbnz	r3, .L17
  38:DSP/Track.cpp ****     {
  39:DSP/Track.cpp ****         ti.isEmpty = false;
 240              		.loc 1 39 9 view .LVU62
  40:DSP/Track.cpp ****         ti.loopLength = ph.writePos;
 241              		.loc 1 40 23 is_stmt 0 view .LVU63
 242 000a 4268     		ldr	r2, [r0, #4]
  39:DSP/Track.cpp ****         ti.loopLength = ph.writePos;
 243              		.loc 1 39 20 view .LVU64
 244 000c 0373     		strb	r3, [r0, #12]
 245              		.loc 1 40 9 is_stmt 1 view .LVU65
 246              		.loc 1 40 23 is_stmt 0 view .LVU66
 247 000e 0261     		str	r2, [r0, #16]
 248              	.L17:
  41:DSP/Track.cpp ****     }
  42:DSP/Track.cpp **** 
  43:DSP/Track.cpp ****     ph.reset();
 249              		.loc 1 43 5 is_stmt 1 view .LVU67
 250              	.LVL14:
 251              	.LBB25:
 252              	.LBI25:
  12:DSP/../Utils/Helpers.h ****     { 
 253              		.loc 2 12 10 view .LVU68
 254              	.LBB26:
  14:DSP/../Utils/Helpers.h ****         readPos = 0; 
 255              		.loc 2 14 9 view .LVU69
  14:DSP/../Utils/Helpers.h ****         readPos = 0; 
 256              		.loc 2 14 18 is_stmt 0 view .LVU70
 257 0010 0023     		movs	r3, #0
 258              		.loc 2 15 17 view .LVU71
 259 0012 C0E90133 		strd	r3, r3, [r0, #4]
ARM GAS  /var/folders/wz/z09yph4n0qj4t7mjxhl6ttn80000gn/T//ccuf4pAF.s 			page 7


 260              	.LVL15:
 261              		.loc 2 15 17 view .LVU72
 262              	.LBE26:
 263              	.LBE25:
  44:DSP/Track.cpp **** }
 264              		.loc 1 44 1 view .LVU73
 265 0016 7047     		bx	lr
 266              		.cfi_endproc
 267              	.LFE1387:
 269              		.section	.text._ZN5Track12setIsPlayingEv,"ax",%progbits
 270              		.align	1
 271              		.p2align 2,,3
 272              		.global	_ZN5Track12setIsPlayingEv
 273              		.syntax unified
 274              		.thumb
 275              		.thumb_func
 277              	_ZN5Track12setIsPlayingEv:
 278              	.LVL16:
 279              	.LFB1388:
  45:DSP/Track.cpp **** 
  46:DSP/Track.cpp **** void Track::setIsPlaying()
  47:DSP/Track.cpp **** {
 280              		.loc 1 47 1 is_stmt 1 view -0
 281              		.cfi_startproc
 282              		@ args = 0, pretend = 0, frame = 0
 283              		@ frame_needed = 0, uses_anonymous_args = 0
 284              		@ link register save eliminated.
  48:DSP/Track.cpp ****     ph.isPlaying = !ph.isPlaying;
 285              		.loc 1 48 5 view .LVU75
 286              		.loc 1 48 20 is_stmt 0 view .LVU76
 287 0000 4378     		ldrb	r3, [r0, #1]	@ zero_extendqisi2
 288              	.LBB27:
 289              	.LBB28:
  14:DSP/../Utils/Helpers.h ****         readPos = 0; 
 290              		.loc 2 14 18 view .LVU77
 291 0002 0022     		movs	r2, #0
 292              	.LBE28:
 293              	.LBE27:
 294              		.loc 1 48 20 view .LVU78
 295 0004 83F00103 		eor	r3, r3, #1
 296              	.LBB31:
 297              	.LBB29:
 298              		.loc 2 15 17 view .LVU79
 299 0008 C0E90122 		strd	r2, r2, [r0, #4]
 300              	.LBE29:
 301              	.LBE31:
 302              		.loc 1 48 18 view .LVU80
 303 000c 4370     		strb	r3, [r0, #1]
  49:DSP/Track.cpp ****     ph.reset();
 304              		.loc 1 49 5 is_stmt 1 view .LVU81
 305              	.LVL17:
 306              	.LBB32:
 307              	.LBI27:
  12:DSP/../Utils/Helpers.h ****     { 
 308              		.loc 2 12 10 view .LVU82
 309              	.LBB30:
  14:DSP/../Utils/Helpers.h ****         readPos = 0; 
ARM GAS  /var/folders/wz/z09yph4n0qj4t7mjxhl6ttn80000gn/T//ccuf4pAF.s 			page 8


 310              		.loc 2 14 9 view .LVU83
 311              		.loc 2 15 9 view .LVU84
 312              		.loc 2 15 9 is_stmt 0 view .LVU85
 313              	.LBE30:
 314              	.LBE32:
  50:DSP/Track.cpp **** }
 315              		.loc 1 50 1 view .LVU86
 316 000e 7047     		bx	lr
 317              		.cfi_endproc
 318              	.LFE1388:
 320              		.section	.text._ZN5Track17incrementWritePosEv,"ax",%progbits
 321              		.align	1
 322              		.p2align 2,,3
 323              		.global	_ZN5Track17incrementWritePosEv
 324              		.syntax unified
 325              		.thumb
 326              		.thumb_func
 328              	_ZN5Track17incrementWritePosEv:
 329              	.LVL18:
 330              	.LFB1389:
  51:DSP/Track.cpp **** 
  52:DSP/Track.cpp **** void Track::incrementWritePos()
  53:DSP/Track.cpp **** {
 331              		.loc 1 53 1 is_stmt 1 view -0
 332              		.cfi_startproc
 333              		@ args = 0, pretend = 0, frame = 0
 334              		@ frame_needed = 0, uses_anonymous_args = 0
 335              		@ link register save eliminated.
  54:DSP/Track.cpp ****     if(ph.writePos > (bufferSize - 1))
 336              		.loc 1 54 5 view .LVU88
 337              		.loc 1 54 34 is_stmt 0 view .LVU89
 338 0000 C269     		ldr	r2, [r0, #28]
 339              		.loc 1 54 11 view .LVU90
 340 0002 4368     		ldr	r3, [r0, #4]
 341              		.loc 1 54 34 view .LVU91
 342 0004 013A     		subs	r2, r2, #1
 343              		.loc 1 54 5 view .LVU92
 344 0006 9342     		cmp	r3, r2
  55:DSP/Track.cpp ****             ph.writePos = 0;
  56:DSP/Track.cpp ****         else
  57:DSP/Track.cpp ****             ph.writePos++;
 345              		.loc 1 57 13 is_stmt 1 view .LVU93
 346              		.loc 1 57 24 is_stmt 0 view .LVU94
 347 0008 94BF     		ite	ls
 348 000a 0133     		addls	r3, r3, #1
  55:DSP/Track.cpp ****             ph.writePos = 0;
 349              		.loc 1 55 25 view .LVU95
 350 000c 0023     		movhi	r3, #0
 351 000e 4360     		str	r3, [r0, #4]
  58:DSP/Track.cpp **** }
 352              		.loc 1 58 1 view .LVU96
 353 0010 7047     		bx	lr
 354              		.cfi_endproc
 355              	.LFE1389:
 357 0012 00BF     		.section	.text._ZN5Track16incrementReadPosEv,"ax",%progbits
 358              		.align	1
 359              		.p2align 2,,3
ARM GAS  /var/folders/wz/z09yph4n0qj4t7mjxhl6ttn80000gn/T//ccuf4pAF.s 			page 9


 360              		.global	_ZN5Track16incrementReadPosEv
 361              		.syntax unified
 362              		.thumb
 363              		.thumb_func
 365              	_ZN5Track16incrementReadPosEv:
 366              	.LVL19:
 367              	.LFB1390:
  59:DSP/Track.cpp **** 
  60:DSP/Track.cpp **** void Track::incrementReadPos()
  61:DSP/Track.cpp **** {
 368              		.loc 1 61 1 is_stmt 1 view -0
 369              		.cfi_startproc
 370              		@ args = 0, pretend = 0, frame = 0
 371              		@ frame_needed = 0, uses_anonymous_args = 0
 372              		@ link register save eliminated.
  62:DSP/Track.cpp ****     if(ph.readPos > (ti.loopLength - 1))
 373              		.loc 1 62 5 view .LVU98
 374              		.loc 1 62 36 is_stmt 0 view .LVU99
 375 0000 0269     		ldr	r2, [r0, #16]
 376              		.loc 1 62 11 view .LVU100
 377 0002 8368     		ldr	r3, [r0, #8]
 378              		.loc 1 62 36 view .LVU101
 379 0004 013A     		subs	r2, r2, #1
 380              		.loc 1 62 5 view .LVU102
 381 0006 9342     		cmp	r3, r2
  63:DSP/Track.cpp ****             ph.readPos = 0;
  64:DSP/Track.cpp ****         else
  65:DSP/Track.cpp ****             ph.readPos++;
 382              		.loc 1 65 13 is_stmt 1 view .LVU103
 383              		.loc 1 65 23 is_stmt 0 view .LVU104
 384 0008 94BF     		ite	ls
 385 000a 0133     		addls	r3, r3, #1
  63:DSP/Track.cpp ****             ph.readPos = 0;
 386              		.loc 1 63 24 view .LVU105
 387 000c 0023     		movhi	r3, #0
 388 000e 8360     		str	r3, [r0, #8]
  66:DSP/Track.cpp **** }
 389              		.loc 1 66 1 view .LVU106
 390 0010 7047     		bx	lr
 391              		.cfi_endproc
 392              	.LFE1390:
 394 0012 00BF     		.section	.text._ZN5Track17processInputBlockEPKfS1_j,"ax",%progbits
 395              		.align	1
 396              		.p2align 2,,3
 397              		.global	_ZN5Track17processInputBlockEPKfS1_j
 398              		.syntax unified
 399              		.thumb
 400              		.thumb_func
 402              	_ZN5Track17processInputBlockEPKfS1_j:
 403              	.LVL20:
 404              	.LFB1391:
  67:DSP/Track.cpp **** 
  68:DSP/Track.cpp **** void Track::processInputBlock(const float* left, const float* right, size_t size)
  69:DSP/Track.cpp **** {
 405              		.loc 1 69 1 is_stmt 1 view -0
 406              		.cfi_startproc
 407              		@ args = 0, pretend = 0, frame = 0
ARM GAS  /var/folders/wz/z09yph4n0qj4t7mjxhl6ttn80000gn/T//ccuf4pAF.s 			page 10


 408              		@ frame_needed = 0, uses_anonymous_args = 0
  70:DSP/Track.cpp ****     if(!ph.isRecording)
 409              		.loc 1 70 5 view .LVU108
  69:DSP/Track.cpp ****     if(!ph.isRecording)
 410              		.loc 1 69 1 is_stmt 0 view .LVU109
 411 0000 F0B5     		push	{r4, r5, r6, r7, lr}
 412              		.cfi_def_cfa_offset 20
 413              		.cfi_offset 4, -20
 414              		.cfi_offset 5, -16
 415              		.cfi_offset 6, -12
 416              		.cfi_offset 7, -8
 417              		.cfi_offset 14, -4
 418              		.loc 1 70 5 view .LVU110
 419 0002 0478     		ldrb	r4, [r0]	@ zero_extendqisi2
 420 0004 DCB1     		cbz	r4, .L25
 421              	.LVL21:
 422              	.LBB33:
  71:DSP/Track.cpp ****         return;
  72:DSP/Track.cpp **** 
  73:DSP/Track.cpp ****     for(size_t i = 0 ; i < size ; i++)
 423              		.loc 1 73 26 is_stmt 1 view .LVU111
 424 0006 D3B1     		cbz	r3, .L25
 425              	.LBB34:
 426              	.LBB35:
  54:DSP/Track.cpp ****             ph.writePos = 0;
 427              		.loc 1 54 34 is_stmt 0 view .LVU112
 428 0008 C569     		ldr	r5, [r0, #28]
 429 000a 01EB8304 		add	r4, r1, r3, lsl #2
 430              	.LBE35:
 431              	.LBE34:
  74:DSP/Track.cpp ****     {
  75:DSP/Track.cpp ****         buffer[L][ph.writePos] = left[i];
 432              		.loc 1 75 17 view .LVU113
 433 000e 4669     		ldr	r6, [r0, #20]
 434              	.LBB42:
 435              	.LBB36:
  54:DSP/Track.cpp ****             ph.writePos = 0;
 436              		.loc 1 54 34 view .LVU114
 437 0010 013D     		subs	r5, r5, #1
 438 0012 4368     		ldr	r3, [r0, #4]
 439              	.LVL22:
  54:DSP/Track.cpp ****             ph.writePos = 0;
 440              		.loc 1 54 34 view .LVU115
 441              	.LBE36:
 442              	.LBE42:
  76:DSP/Track.cpp ****         buffer[R][ph.writePos] = right[i];
 443              		.loc 1 76 17 view .LVU116
 444 0014 8769     		ldr	r7, [r0, #24]
 445              	.LVL23:
 446              	.L28:
  75:DSP/Track.cpp ****         buffer[R][ph.writePos] = right[i];
 447              		.loc 1 75 9 is_stmt 1 discriminator 2 view .LVU117
 448              	.LBB43:
 449              	.LBB37:
  57:DSP/Track.cpp **** }
 450              		.loc 1 57 13 discriminator 2 view .LVU118
 451              	.LBE37:
ARM GAS  /var/folders/wz/z09yph4n0qj4t7mjxhl6ttn80000gn/T//ccuf4pAF.s 			page 11


 452              	.LBE43:
  75:DSP/Track.cpp ****         buffer[R][ph.writePos] = right[i];
 453              		.loc 1 75 40 is_stmt 0 discriminator 2 view .LVU119
 454 0016 F1EC017A 		vldmia.32	r1!, {s15}
  75:DSP/Track.cpp ****         buffer[R][ph.writePos] = right[i];
 455              		.loc 1 75 32 discriminator 2 view .LVU120
 456 001a 06EB830E 		add	lr, r6, r3, lsl #2
 457              	.LBB44:
 458              	.LBB38:
  54:DSP/Track.cpp ****             ph.writePos = 0;
 459              		.loc 1 54 5 discriminator 2 view .LVU121
 460 001e 9D42     		cmp	r5, r3
 461              	.LBE38:
 462              	.LBE44:
 463              		.loc 1 76 32 discriminator 2 view .LVU122
 464 0020 07EB830C 		add	ip, r7, r3, lsl #2
  75:DSP/Track.cpp ****         buffer[R][ph.writePos] = right[i];
 465              		.loc 1 75 32 discriminator 2 view .LVU123
 466 0024 CEED007A 		vstr.32	s15, [lr]
 467              		.loc 1 76 9 is_stmt 1 discriminator 2 view .LVU124
 468              	.LBB45:
 469              	.LBB39:
  57:DSP/Track.cpp **** }
 470              		.loc 1 57 24 is_stmt 0 discriminator 2 view .LVU125
 471 0028 03F10103 		add	r3, r3, #1
 472              	.LBE39:
 473              	.LBE45:
 474              		.loc 1 76 41 discriminator 2 view .LVU126
 475 002c 52F804EB 		ldr	lr, [r2], #4	@ float
 476              	.LBB46:
 477              	.LBB40:
  55:DSP/Track.cpp ****         else
 478              		.loc 1 55 25 discriminator 2 view .LVU127
 479 0030 38BF     		it	cc
 480 0032 0023     		movcc	r3, #0
 481              	.LBE40:
 482              	.LBE46:
  73:DSP/Track.cpp ****     {
 483              		.loc 1 73 26 discriminator 2 view .LVU128
 484 0034 A142     		cmp	r1, r4
 485              		.loc 1 76 32 discriminator 2 view .LVU129
 486 0036 CCF800E0 		str	lr, [ip]	@ float
  77:DSP/Track.cpp **** 
  78:DSP/Track.cpp ****         incrementWritePos();
 487              		.loc 1 78 9 is_stmt 1 discriminator 2 view .LVU130
 488              	.LBB47:
 489              	.LBI34:
  52:DSP/Track.cpp **** {
 490              		.loc 1 52 6 discriminator 2 view .LVU131
 491              	.LBB41:
  54:DSP/Track.cpp ****             ph.writePos = 0;
 492              		.loc 1 54 5 discriminator 2 view .LVU132
 493              	.LBE41:
 494              	.LBE47:
  73:DSP/Track.cpp ****     {
 495              		.loc 1 73 5 discriminator 2 view .LVU133
  73:DSP/Track.cpp ****     {
ARM GAS  /var/folders/wz/z09yph4n0qj4t7mjxhl6ttn80000gn/T//ccuf4pAF.s 			page 12


 496              		.loc 1 73 26 discriminator 2 view .LVU134
 497 003a ECD1     		bne	.L28
 498 003c 4360     		str	r3, [r0, #4]
 499              	.L25:
  73:DSP/Track.cpp ****     {
 500              		.loc 1 73 26 is_stmt 0 discriminator 2 view .LVU135
 501              	.LBE33:
  79:DSP/Track.cpp ****     }
  80:DSP/Track.cpp **** }
 502              		.loc 1 80 1 view .LVU136
 503 003e F0BD     		pop	{r4, r5, r6, r7, pc}
 504              		.cfi_endproc
 505              	.LFE1391:
 507              		.section	.text._ZN5Track18processOutputBlockEPfS0_j,"ax",%progbits
 508              		.align	1
 509              		.p2align 2,,3
 510              		.global	_ZN5Track18processOutputBlockEPfS0_j
 511              		.syntax unified
 512              		.thumb
 513              		.thumb_func
 515              	_ZN5Track18processOutputBlockEPfS0_j:
 516              	.LVL24:
 517              	.LFB1392:
  81:DSP/Track.cpp **** 
  82:DSP/Track.cpp ****  void Track::processOutputBlock(float* left, float* right, size_t size)
  83:DSP/Track.cpp ****  {
 518              		.loc 1 83 2 is_stmt 1 view -0
 519              		.cfi_startproc
 520              		@ args = 0, pretend = 0, frame = 0
 521              		@ frame_needed = 0, uses_anonymous_args = 0
  84:DSP/Track.cpp ****     if(!ph.isRecording && !ph.isPlaying)
 522              		.loc 1 84 5 view .LVU138
  83:DSP/Track.cpp ****     if(!ph.isRecording && !ph.isPlaying)
 523              		.loc 1 83 2 is_stmt 0 view .LVU139
 524 0000 F0B5     		push	{r4, r5, r6, r7, lr}
 525              		.cfi_def_cfa_offset 20
 526              		.cfi_offset 4, -20
 527              		.cfi_offset 5, -16
 528              		.cfi_offset 6, -12
 529              		.cfi_offset 7, -8
 530              		.cfi_offset 14, -4
 531              		.loc 1 84 5 view .LVU140
 532 0002 0478     		ldrb	r4, [r0]	@ zero_extendqisi2
 533 0004 0CB9     		cbnz	r4, .L42
 534              		.loc 1 84 24 discriminator 1 view .LVU141
 535 0006 4478     		ldrb	r4, [r0, #1]	@ zero_extendqisi2
 536 0008 DCB1     		cbz	r4, .L38
 537              	.L42:
 538              	.LVL25:
 539              	.LBB48:
  85:DSP/Track.cpp ****         return;
  86:DSP/Track.cpp **** 
  87:DSP/Track.cpp ****     for(size_t i = 0 ; i < size ; i++)
 540              		.loc 1 87 26 is_stmt 1 discriminator 3 view .LVU142
 541 000a D3B1     		cbz	r3, .L38
 542              	.LBB49:
 543              	.LBB50:
ARM GAS  /var/folders/wz/z09yph4n0qj4t7mjxhl6ttn80000gn/T//ccuf4pAF.s 			page 13


  62:DSP/Track.cpp ****             ph.readPos = 0;
 544              		.loc 1 62 36 is_stmt 0 view .LVU143
 545 000c 0569     		ldr	r5, [r0, #16]
 546 000e 01EB8304 		add	r4, r1, r3, lsl #2
 547              	.LBE50:
 548              	.LBE49:
  88:DSP/Track.cpp ****     {
  89:DSP/Track.cpp ****         left[i] = buffer[L][ph.readPos];
 549              		.loc 1 89 27 view .LVU144
 550 0012 4669     		ldr	r6, [r0, #20]
 551              	.LBB57:
 552              	.LBB51:
  62:DSP/Track.cpp ****             ph.readPos = 0;
 553              		.loc 1 62 36 view .LVU145
 554 0014 013D     		subs	r5, r5, #1
 555 0016 8368     		ldr	r3, [r0, #8]
 556              	.LVL26:
  62:DSP/Track.cpp ****             ph.readPos = 0;
 557              		.loc 1 62 36 view .LVU146
 558              	.LBE51:
 559              	.LBE57:
  90:DSP/Track.cpp ****         right[i] = buffer[R][ph.readPos];
 560              		.loc 1 90 28 view .LVU147
 561 0018 8769     		ldr	r7, [r0, #24]
 562              	.LVL27:
 563              	.L44:
  89:DSP/Track.cpp ****         right[i] = buffer[R][ph.readPos];
 564              		.loc 1 89 9 is_stmt 1 discriminator 2 view .LVU148
 565              	.LBB58:
 566              	.LBB52:
  65:DSP/Track.cpp **** }
 567              		.loc 1 65 13 discriminator 2 view .LVU149
 568              	.LBE52:
 569              	.LBE58:
  89:DSP/Track.cpp ****         right[i] = buffer[R][ph.readPos];
 570              		.loc 1 89 39 is_stmt 0 discriminator 2 view .LVU150
 571 001a 06EB830E 		add	lr, r6, r3, lsl #2
 572              	.LBB59:
 573              	.LBB53:
  62:DSP/Track.cpp ****             ph.readPos = 0;
 574              		.loc 1 62 5 discriminator 2 view .LVU151
 575 001e 9D42     		cmp	r5, r3
 576              	.LBE53:
 577              	.LBE59:
 578              		.loc 1 90 40 discriminator 2 view .LVU152
 579 0020 07EB830C 		add	ip, r7, r3, lsl #2
 580              	.LBB60:
 581              	.LBB54:
  65:DSP/Track.cpp **** }
 582              		.loc 1 65 23 discriminator 2 view .LVU153
 583 0024 03F10103 		add	r3, r3, #1
 584              	.LBE54:
 585              	.LBE60:
  89:DSP/Track.cpp ****         right[i] = buffer[R][ph.readPos];
 586              		.loc 1 89 39 discriminator 2 view .LVU154
 587 0028 DEF800E0 		ldr	lr, [lr]	@ float
 588              	.LBB61:
ARM GAS  /var/folders/wz/z09yph4n0qj4t7mjxhl6ttn80000gn/T//ccuf4pAF.s 			page 14


 589              	.LBB55:
  63:DSP/Track.cpp ****         else
 590              		.loc 1 63 24 discriminator 2 view .LVU155
 591 002c 38BF     		it	cc
 592 002e 0023     		movcc	r3, #0
 593              	.LBE55:
 594              	.LBE61:
  89:DSP/Track.cpp ****         right[i] = buffer[R][ph.readPos];
 595              		.loc 1 89 17 discriminator 2 view .LVU156
 596 0030 41F804EB 		str	lr, [r1], #4	@ float
 597              		.loc 1 90 9 is_stmt 1 discriminator 2 view .LVU157
  87:DSP/Track.cpp ****     {
 598              		.loc 1 87 26 is_stmt 0 discriminator 2 view .LVU158
 599 0034 8C42     		cmp	r4, r1
 600              		.loc 1 90 40 discriminator 2 view .LVU159
 601 0036 DCF800C0 		ldr	ip, [ip]	@ float
 602              		.loc 1 90 18 discriminator 2 view .LVU160
 603 003a 42F804CB 		str	ip, [r2], #4	@ float
  91:DSP/Track.cpp **** 
  92:DSP/Track.cpp ****         incrementReadPos();
 604              		.loc 1 92 9 is_stmt 1 discriminator 2 view .LVU161
 605              	.LBB62:
 606              	.LBI49:
  60:DSP/Track.cpp **** {
 607              		.loc 1 60 6 discriminator 2 view .LVU162
 608              	.LBB56:
  62:DSP/Track.cpp ****             ph.readPos = 0;
 609              		.loc 1 62 5 discriminator 2 view .LVU163
 610              	.LBE56:
 611              	.LBE62:
  87:DSP/Track.cpp ****     {
 612              		.loc 1 87 5 discriminator 2 view .LVU164
  87:DSP/Track.cpp ****     {
 613              		.loc 1 87 26 discriminator 2 view .LVU165
 614 003e ECD1     		bne	.L44
 615 0040 8360     		str	r3, [r0, #8]
 616              	.L38:
  87:DSP/Track.cpp ****     {
 617              		.loc 1 87 26 is_stmt 0 discriminator 2 view .LVU166
 618              	.LBE48:
  93:DSP/Track.cpp ****     }
  94:DSP/Track.cpp ****  }...
 619              		.loc 1 94 2 view .LVU167
 620 0042 F0BD     		pop	{r4, r5, r6, r7, pc}
 621              		.cfi_endproc
 622              	.LFE1392:
 624              		.text
 625              	.Letext0:
 626              		.file 3 "/Library/DaisyToolchain/0.2.0/arm/arm-none-eabi/include/c++/10.3.1/cmath"
 627              		.file 4 "/Library/DaisyToolchain/0.2.0/arm/arm-none-eabi/include/c++/10.3.1/bits/std_abs.h"
 628              		.file 5 "/Library/DaisyToolchain/0.2.0/arm/arm-none-eabi/include/c++/10.3.1/type_traits"
 629              		.file 6 "/Library/DaisyToolchain/0.2.0/arm/arm-none-eabi/include/c++/10.3.1/debug/debug.h"
 630              		.file 7 "/Library/DaisyToolchain/0.2.0/arm/arm-none-eabi/include/c++/10.3.1/cstdlib"
 631              		.file 8 "/Library/DaisyToolchain/0.2.0/arm/arm-none-eabi/include/c++/10.3.1/arm-none-eabi/thumb/v7
 632              		.file 9 "/Library/DaisyToolchain/0.2.0/arm/arm-none-eabi/include/c++/10.3.1/bits/algorithmfwd.h"
 633              		.file 10 "/Library/DaisyToolchain/0.2.0/arm/arm-none-eabi/include/c++/10.3.1/bits/stl_pair.h"
 634              		.file 11 "/Library/DaisyToolchain/0.2.0/arm/arm-none-eabi/include/c++/10.3.1/bits/exception_ptr.h"
ARM GAS  /var/folders/wz/z09yph4n0qj4t7mjxhl6ttn80000gn/T//ccuf4pAF.s 			page 15


 635              		.file 12 "/Library/DaisyToolchain/0.2.0/arm/lib/gcc/arm-none-eabi/10.3.1/include/stddef.h"
 636              		.file 13 "/Library/DaisyToolchain/0.2.0/arm/arm-none-eabi/include/c++/10.3.1/bits/predefined_ops.h
 637              		.file 14 "/Library/DaisyToolchain/0.2.0/arm/arm-none-eabi/include/math.h"
 638              		.file 15 "/Library/DaisyToolchain/0.2.0/arm/arm-none-eabi/include/stdlib.h"
 639              		.file 16 "/Library/DaisyToolchain/0.2.0/arm/arm-none-eabi/include/c++/10.3.1/math.h"
 640              		.file 17 "DSP/Track.h"
 641              		.file 18 "<built-in>"
ARM GAS  /var/folders/wz/z09yph4n0qj4t7mjxhl6ttn80000gn/T//ccuf4pAF.s 			page 16


DEFINED SYMBOLS
                            *ABS*:0000000000000000 Track.cpp
/var/folders/wz/z09yph4n0qj4t7mjxhl6ttn80000gn/T//ccuf4pAF.s:19     .text._ZN5Track4initEPPfj:0000000000000000 $t
/var/folders/wz/z09yph4n0qj4t7mjxhl6ttn80000gn/T//ccuf4pAF.s:26     .text._ZN5Track4initEPPfj:0000000000000000 _ZN5Track4initEPPfj
/var/folders/wz/z09yph4n0qj4t7mjxhl6ttn80000gn/T//ccuf4pAF.s:178    .text._ZN5Track7prepareEv:0000000000000000 $t
/var/folders/wz/z09yph4n0qj4t7mjxhl6ttn80000gn/T//ccuf4pAF.s:185    .text._ZN5Track7prepareEv:0000000000000000 _ZN5Track7prepareEv
/var/folders/wz/z09yph4n0qj4t7mjxhl6ttn80000gn/T//ccuf4pAF.s:199    .text._ZN5Track4tickEv:0000000000000000 $t
/var/folders/wz/z09yph4n0qj4t7mjxhl6ttn80000gn/T//ccuf4pAF.s:206    .text._ZN5Track4tickEv:0000000000000000 _ZN5Track4tickEv
/var/folders/wz/z09yph4n0qj4t7mjxhl6ttn80000gn/T//ccuf4pAF.s:217    .text._ZN5Track14setIsRecordingEv:0000000000000000 $t
/var/folders/wz/z09yph4n0qj4t7mjxhl6ttn80000gn/T//ccuf4pAF.s:224    .text._ZN5Track14setIsRecordingEv:0000000000000000 _ZN5Track14setIsRecordingEv
/var/folders/wz/z09yph4n0qj4t7mjxhl6ttn80000gn/T//ccuf4pAF.s:270    .text._ZN5Track12setIsPlayingEv:0000000000000000 $t
/var/folders/wz/z09yph4n0qj4t7mjxhl6ttn80000gn/T//ccuf4pAF.s:277    .text._ZN5Track12setIsPlayingEv:0000000000000000 _ZN5Track12setIsPlayingEv
/var/folders/wz/z09yph4n0qj4t7mjxhl6ttn80000gn/T//ccuf4pAF.s:321    .text._ZN5Track17incrementWritePosEv:0000000000000000 $t
/var/folders/wz/z09yph4n0qj4t7mjxhl6ttn80000gn/T//ccuf4pAF.s:328    .text._ZN5Track17incrementWritePosEv:0000000000000000 _ZN5Track17incrementWritePosEv
/var/folders/wz/z09yph4n0qj4t7mjxhl6ttn80000gn/T//ccuf4pAF.s:358    .text._ZN5Track16incrementReadPosEv:0000000000000000 $t
/var/folders/wz/z09yph4n0qj4t7mjxhl6ttn80000gn/T//ccuf4pAF.s:365    .text._ZN5Track16incrementReadPosEv:0000000000000000 _ZN5Track16incrementReadPosEv
/var/folders/wz/z09yph4n0qj4t7mjxhl6ttn80000gn/T//ccuf4pAF.s:395    .text._ZN5Track17processInputBlockEPKfS1_j:0000000000000000 $t
/var/folders/wz/z09yph4n0qj4t7mjxhl6ttn80000gn/T//ccuf4pAF.s:402    .text._ZN5Track17processInputBlockEPKfS1_j:0000000000000000 _ZN5Track17processInputBlockEPKfS1_j
/var/folders/wz/z09yph4n0qj4t7mjxhl6ttn80000gn/T//ccuf4pAF.s:508    .text._ZN5Track18processOutputBlockEPfS0_j:0000000000000000 $t
/var/folders/wz/z09yph4n0qj4t7mjxhl6ttn80000gn/T//ccuf4pAF.s:515    .text._ZN5Track18processOutputBlockEPfS0_j:0000000000000000 _ZN5Track18processOutputBlockEPfS0_j

UNDEFINED SYMBOLS
memset
