ARM GAS  /var/folders/wz/z09yph4n0qj4t7mjxhl6ttn80000gn/T//cc4Kfnvs.s 			page 1


   1              		.cpu cortex-m7
   2              		.arch armv7e-m
   3              		.fpu fpv5-d16
   4              		.eabi_attribute 28, 1
   5              		.eabi_attribute 20, 1
   6              		.eabi_attribute 21, 1
   7              		.eabi_attribute 23, 3
   8              		.eabi_attribute 24, 1
   9              		.eabi_attribute 25, 1
  10              		.eabi_attribute 26, 1
  11              		.eabi_attribute 30, 2
  12              		.eabi_attribute 34, 1
  13              		.eabi_attribute 18, 4
  14              		.file	"Track.cpp"
  15              		.text
  16              	.Ltext0:
  17              		.cfi_sections	.debug_frame
  18              		.section	.text._ZN5Track4initEPPfj,"ax",%progbits
  19              		.align	1
  20              		.p2align 2,,3
  21              		.global	_ZN5Track4initEPPfj
  22              		.syntax unified
  23              		.thumb
  24              		.thumb_func
  26              	_ZN5Track4initEPPfj:
  27              	.LVL0:
  28              	.LFB1386:
  29              		.file 1 "DSP/Track.cpp"
   1:DSP/Track.cpp **** #include "Track.h"
   2:DSP/Track.cpp **** 
   3:DSP/Track.cpp **** void Track::init(float* mem[2], const size_t s)
   4:DSP/Track.cpp **** {
  30              		.loc 1 4 1 view -0
  31              		.cfi_startproc
  32              		@ args = 0, pretend = 0, frame = 8
  33              		@ frame_needed = 0, uses_anonymous_args = 0
   5:DSP/Track.cpp ****     bufferSize = s;
  34              		.loc 1 5 5 view .LVU1
   4:DSP/Track.cpp ****     bufferSize = s;
  35              		.loc 1 4 1 is_stmt 0 view .LVU2
  36 0000 30B5     		push	{r4, r5, lr}
  37              		.cfi_def_cfa_offset 12
  38              		.cfi_offset 4, -12
  39              		.cfi_offset 5, -8
  40              		.cfi_offset 14, -4
  41 0002 0446     		mov	r4, r0
  42              	.LBB13:
   6:DSP/Track.cpp ****     for(int i = 0 ; i < 2 ; i++)
   7:DSP/Track.cpp ****         buffer[i] = mem[i];
  43              		.loc 1 7 26 view .LVU3
  44 0004 0868     		ldr	r0, [r1]
  45              	.LVL1:
  46              		.loc 1 7 26 view .LVU4
  47              	.LBE13:
   4:DSP/Track.cpp ****     bufferSize = s;
  48              		.loc 1 4 1 view .LVU5
  49 0006 83B0     		sub	sp, sp, #12
ARM GAS  /var/folders/wz/z09yph4n0qj4t7mjxhl6ttn80000gn/T//cc4Kfnvs.s 			page 2


  50              		.cfi_def_cfa_offset 24
  51              	.LBB14:
  52              		.loc 1 7 19 view .LVU6
  53 0008 E060     		str	r0, [r4, #12]
  54              		.loc 1 7 26 view .LVU7
  55 000a 4D68     		ldr	r5, [r1, #4]
  56              	.LBE14:
   5:DSP/Track.cpp ****     for(int i = 0 ; i < 2 ; i++)
  57              		.loc 1 5 16 view .LVU8
  58 000c 6261     		str	r2, [r4, #20]
   6:DSP/Track.cpp ****     for(int i = 0 ; i < 2 ; i++)
  59              		.loc 1 6 5 is_stmt 1 view .LVU9
  60              	.LVL2:
  61              	.LBB15:
   6:DSP/Track.cpp ****     for(int i = 0 ; i < 2 ; i++)
  62              		.loc 1 6 23 view .LVU10
  63              		.loc 1 7 9 view .LVU11
   6:DSP/Track.cpp ****     for(int i = 0 ; i < 2 ; i++)
  64              		.loc 1 6 5 view .LVU12
   6:DSP/Track.cpp ****     for(int i = 0 ; i < 2 ; i++)
  65              		.loc 1 6 23 view .LVU13
  66              		.loc 1 7 9 view .LVU14
  67              		.loc 1 7 19 is_stmt 0 view .LVU15
  68 000e 2561     		str	r5, [r4, #16]
   6:DSP/Track.cpp ****     for(int i = 0 ; i < 2 ; i++)
  69              		.loc 1 6 5 is_stmt 1 view .LVU16
  70              	.LVL3:
   6:DSP/Track.cpp ****     for(int i = 0 ; i < 2 ; i++)
  71              		.loc 1 6 23 view .LVU17
   6:DSP/Track.cpp ****     for(int i = 0 ; i < 2 ; i++)
  72              		.loc 1 6 23 is_stmt 0 view .LVU18
  73              	.LBE15:
  74              	.LBB16:
   8:DSP/Track.cpp **** 
   9:DSP/Track.cpp ****     for(size_t i = 0 ; i < s ; i++)
  75              		.loc 1 9 26 is_stmt 1 view .LVU19
  76 0010 8AB1     		cbz	r2, .L2
  77 0012 1346     		mov	r3, r2
  78 0014 9200     		lsls	r2, r2, #2
  79              	.LVL4:
  80              		.loc 1 9 26 is_stmt 0 view .LVU20
  81 0016 05EB8303 		add	r3, r5, r3, lsl #2
  82              	.LVL5:
  83              		.loc 1 9 26 view .LVU21
  84 001a 9842     		cmp	r0, r3
  85 001c 02D2     		bcs	.L6
  86 001e 8118     		adds	r1, r0, r2
  87              	.LVL6:
  88              		.loc 1 9 26 view .LVU22
  89 0020 8D42     		cmp	r5, r1
  90 0022 0DD3     		bcc	.L5
  91              	.L6:
  10:DSP/Track.cpp ****     {
  11:DSP/Track.cpp ****         buffer[L][i] = 0.0f;
  92              		.loc 1 11 22 view .LVU23
  93 0024 0021     		movs	r1, #0
  94 0026 0192     		str	r2, [sp, #4]
ARM GAS  /var/folders/wz/z09yph4n0qj4t7mjxhl6ttn80000gn/T//cc4Kfnvs.s 			page 3


  95 0028 FFF7FEFF 		bl	memset
  96              	.LVL7:
  12:DSP/Track.cpp ****         buffer[R][i] = 0.0f;
  97              		.loc 1 12 22 view .LVU24
  98 002c 019A     		ldr	r2, [sp, #4]
  99 002e 0021     		movs	r1, #0
 100 0030 2846     		mov	r0, r5
 101 0032 FFF7FEFF 		bl	memset
 102              	.LVL8:
 103              	.L2:
 104              		.loc 1 12 22 view .LVU25
 105              	.LBE16:
  13:DSP/Track.cpp ****     }
  14:DSP/Track.cpp **** 
  15:DSP/Track.cpp ****     ph.isRecording = false;
 106              		.loc 1 15 5 is_stmt 1 view .LVU26
  16:DSP/Track.cpp ****     ph.isPlaying = false;
 107              		.loc 1 16 5 view .LVU27
  15:DSP/Track.cpp ****     ph.isPlaying = false;
 108              		.loc 1 15 20 is_stmt 0 view .LVU28
 109 0036 0023     		movs	r3, #0
 110 0038 2380     		strh	r3, [r4]	@ movhi
  17:DSP/Track.cpp ****     ph.reset();
 111              		.loc 1 17 5 is_stmt 1 view .LVU29
 112              	.LVL9:
 113              	.LBB17:
 114              	.LBI17:
 115              		.file 2 "DSP/Helpers.h"
   1:DSP/Helpers.h **** #include "stddef.h"
   2:DSP/Helpers.h **** #include <algorithm>
   3:DSP/Helpers.h **** 
   4:DSP/Helpers.h **** // playhead
   5:DSP/Helpers.h **** struct Playhead
   6:DSP/Helpers.h **** {
   7:DSP/Helpers.h ****     bool isRecording;
   8:DSP/Helpers.h ****     bool isPlaying;
   9:DSP/Helpers.h ****     size_t pos;
  10:DSP/Helpers.h **** 
  11:DSP/Helpers.h ****     void reset() { pos = 0; }
 116              		.loc 2 11 10 view .LVU30
 117              	.LBB18:
 118              		.loc 2 11 20 view .LVU31
 119              		.loc 2 11 24 is_stmt 0 view .LVU32
 120 003a 6360     		str	r3, [r4, #4]
 121              	.LVL10:
 122              		.loc 2 11 24 view .LVU33
 123              	.LBE18:
 124              	.LBE17:
  18:DSP/Track.cpp **** }
 125              		.loc 1 18 1 view .LVU34
 126 003c 03B0     		add	sp, sp, #12
 127              		.cfi_remember_state
 128              		.cfi_def_cfa_offset 12
 129              		@ sp needed
 130 003e 30BD     		pop	{r4, r5, pc}
 131              	.LVL11:
 132              	.L5:
ARM GAS  /var/folders/wz/z09yph4n0qj4t7mjxhl6ttn80000gn/T//cc4Kfnvs.s 			page 4


 133              		.cfi_restore_state
 134              	.LBB19:
  11:DSP/Track.cpp ****         buffer[R][i] = 0.0f;
 135              		.loc 1 11 9 is_stmt 1 view .LVU35
  11:DSP/Track.cpp ****         buffer[R][i] = 0.0f;
 136              		.loc 1 11 22 is_stmt 0 view .LVU36
 137 0040 0023     		movs	r3, #0
 138 0042 40F8043B 		str	r3, [r0], #4	@ float
  12:DSP/Track.cpp ****     }
 139              		.loc 1 12 9 is_stmt 1 view .LVU37
   9:DSP/Track.cpp ****     {
 140              		.loc 1 9 26 is_stmt 0 view .LVU38
 141 0046 8842     		cmp	r0, r1
  12:DSP/Track.cpp ****     }
 142              		.loc 1 12 22 view .LVU39
 143 0048 45F8043B 		str	r3, [r5], #4	@ float
   9:DSP/Track.cpp ****     {
 144              		.loc 1 9 5 is_stmt 1 view .LVU40
   9:DSP/Track.cpp ****     {
 145              		.loc 1 9 26 view .LVU41
 146 004c F3D0     		beq	.L2
  11:DSP/Track.cpp ****         buffer[R][i] = 0.0f;
 147              		.loc 1 11 9 view .LVU42
  11:DSP/Track.cpp ****         buffer[R][i] = 0.0f;
 148              		.loc 1 11 22 is_stmt 0 view .LVU43
 149 004e 0023     		movs	r3, #0
 150 0050 40F8043B 		str	r3, [r0], #4	@ float
  12:DSP/Track.cpp ****     }
 151              		.loc 1 12 9 is_stmt 1 view .LVU44
   9:DSP/Track.cpp ****     {
 152              		.loc 1 9 26 is_stmt 0 view .LVU45
 153 0054 8842     		cmp	r0, r1
  12:DSP/Track.cpp ****     }
 154              		.loc 1 12 22 view .LVU46
 155 0056 45F8043B 		str	r3, [r5], #4	@ float
   9:DSP/Track.cpp ****     {
 156              		.loc 1 9 5 is_stmt 1 view .LVU47
   9:DSP/Track.cpp ****     {
 157              		.loc 1 9 26 view .LVU48
 158 005a F1D1     		bne	.L5
 159 005c EBE7     		b	.L2
 160              	.LBE19:
 161              		.cfi_endproc
 162              	.LFE1386:
 164 005e 00BF     		.section	.text._ZN5Track7prepareEv,"ax",%progbits
 165              		.align	1
 166              		.p2align 2,,3
 167              		.global	_ZN5Track7prepareEv
 168              		.syntax unified
 169              		.thumb
 170              		.thumb_func
 172              	_ZN5Track7prepareEv:
 173              	.LVL12:
 174              	.LFB1387:
  19:DSP/Track.cpp **** 
  20:DSP/Track.cpp **** void Track::prepare()
  21:DSP/Track.cpp **** {
ARM GAS  /var/folders/wz/z09yph4n0qj4t7mjxhl6ttn80000gn/T//cc4Kfnvs.s 			page 5


 175              		.loc 1 21 1 view -0
 176              		.cfi_startproc
 177              		@ args = 0, pretend = 0, frame = 0
 178              		@ frame_needed = 0, uses_anonymous_args = 0
 179              		@ link register save eliminated.
  22:DSP/Track.cpp **** 
  23:DSP/Track.cpp **** }
 180              		.loc 1 23 1 is_stmt 0 view .LVU50
 181 0000 7047     		bx	lr
 182              		.cfi_endproc
 183              	.LFE1387:
 185 0002 00BF     		.section	.text._ZN5Track12processBlockEj,"ax",%progbits
 186              		.align	1
 187              		.p2align 2,,3
 188              		.global	_ZN5Track12processBlockEj
 189              		.syntax unified
 190              		.thumb
 191              		.thumb_func
 193              	_ZN5Track12processBlockEj:
 194              	.LVL13:
 195              	.LFB1388:
  24:DSP/Track.cpp **** 
  25:DSP/Track.cpp **** void Track::processBlock(size_t size)
  26:DSP/Track.cpp **** {
 196              		.loc 1 26 1 is_stmt 1 view -0
 197              		.cfi_startproc
 198              		@ args = 0, pretend = 0, frame = 0
 199              		@ frame_needed = 0, uses_anonymous_args = 0
 200              		@ link register save eliminated.
  27:DSP/Track.cpp ****     for(size_t i = 0 ; i < size ; i++)
 201              		.loc 1 27 5 view .LVU52
 202              	.LBB25:
 203              		.loc 1 27 26 view .LVU53
 204 0000 89B1     		cbz	r1, .L28
 205              		.loc 1 27 16 is_stmt 0 view .LVU54
 206 0002 0023     		movs	r3, #0
 207              	.LBE25:
  26:DSP/Track.cpp ****     for(size_t i = 0 ; i < size ; i++)
 208              		.loc 1 26 1 view .LVU55
 209 0004 F0B4     		push	{r4, r5, r6, r7}
 210              		.cfi_def_cfa_offset 16
 211              		.cfi_offset 4, -16
 212              		.cfi_offset 5, -12
 213              		.cfi_offset 6, -8
 214              		.cfi_offset 7, -4
 215              	.LBB34:
 216              	.LBB26:
 217              	.LBB27:
  28:DSP/Track.cpp ****     {
  29:DSP/Track.cpp ****         
  30:DSP/Track.cpp **** 
  31:DSP/Track.cpp **** 
  32:DSP/Track.cpp ****         incrementPlayhead();
  33:DSP/Track.cpp ****     }
  34:DSP/Track.cpp **** }
  35:DSP/Track.cpp **** 
  36:DSP/Track.cpp **** void Track::processInput(const float* left, const float* right, size_t size)
ARM GAS  /var/folders/wz/z09yph4n0qj4t7mjxhl6ttn80000gn/T//cc4Kfnvs.s 			page 6


  37:DSP/Track.cpp **** {
  38:DSP/Track.cpp ****     for(size_t i = 0 ; i < size ; i++)
  39:DSP/Track.cpp ****     {
  40:DSP/Track.cpp ****         buffer[L][i] = left[i];
  41:DSP/Track.cpp ****         buffer[R][i] = right[i];
  42:DSP/Track.cpp ****     }
  43:DSP/Track.cpp **** }
  44:DSP/Track.cpp **** 
  45:DSP/Track.cpp **** float* Track::processOutputLeft(size_t pos)
  46:DSP/Track.cpp **** {
  47:DSP/Track.cpp ****     return &buffer[L][pos];
  48:DSP/Track.cpp **** }
  49:DSP/Track.cpp **** 
  50:DSP/Track.cpp **** float* Track::processOutputRight(size_t pos)
  51:DSP/Track.cpp **** {
  52:DSP/Track.cpp ****     return &buffer[R][pos];
  53:DSP/Track.cpp **** }
  54:DSP/Track.cpp **** 
  55:DSP/Track.cpp **** void Track::setIsRecording()
  56:DSP/Track.cpp **** {
  57:DSP/Track.cpp ****     ph.isRecording = !ph.isRecording;
  58:DSP/Track.cpp ****     ph.reset();
  59:DSP/Track.cpp **** }
  60:DSP/Track.cpp **** 
  61:DSP/Track.cpp **** void Track::setIsPlaying()
  62:DSP/Track.cpp **** {
  63:DSP/Track.cpp ****     ph.isPlaying = !ph.isPlaying;
  64:DSP/Track.cpp ****     ph.reset();
  65:DSP/Track.cpp **** }
  66:DSP/Track.cpp **** 
  67:DSP/Track.cpp **** void Track::incrementPlayhead()
  68:DSP/Track.cpp **** {
  69:DSP/Track.cpp ****     if(!ph.isPlaying)
 218              		.loc 1 69 12 view .LVU56
 219 0006 4578     		ldrb	r5, [r0, #1]	@ zero_extendqisi2
 220              	.LVL14:
 221              	.L19:
 222              		.loc 1 69 12 view .LVU57
 223              	.LBE27:
 224              	.LBE26:
  32:DSP/Track.cpp ****     }
 225              		.loc 1 32 9 is_stmt 1 view .LVU58
 226              	.LBB33:
 227              	.LBI26:
  67:DSP/Track.cpp **** {
 228              		.loc 1 67 6 view .LVU59
 229              	.LBB32:
 230              		.loc 1 69 5 view .LVU60
 231              	.LBB28:
 232              	.LBI28:
  67:DSP/Track.cpp **** {
 233              		.loc 1 67 6 view .LVU61
 234              	.LBB29:
  70:DSP/Track.cpp ****         return;
  71:DSP/Track.cpp **** 
  72:DSP/Track.cpp ****     if(ph.pos > (ti.loopLength-1))
 235              		.loc 1 72 5 view .LVU62
ARM GAS  /var/folders/wz/z09yph4n0qj4t7mjxhl6ttn80000gn/T//cc4Kfnvs.s 			page 7


 236              	.LBE29:
 237              	.LBE28:
  69:DSP/Track.cpp ****         return;
 238              		.loc 1 69 5 is_stmt 0 view .LVU63
 239 0008 45B1     		cbz	r5, .L17
 240              	.LBB31:
 241              	.LBB30:
  73:DSP/Track.cpp ****         ph.pos = 0;
 242              		.loc 1 73 9 is_stmt 1 view .LVU64
  74:DSP/Track.cpp ****     else
  75:DSP/Track.cpp ****         ph.pos++;
 243              		.loc 1 75 9 view .LVU65
  73:DSP/Track.cpp ****         ph.pos = 0;
 244              		.loc 1 73 16 is_stmt 0 view .LVU66
 245 000a 0027     		movs	r7, #0
  72:DSP/Track.cpp ****         ph.pos = 0;
 246              		.loc 1 72 11 view .LVU67
 247 000c D0E90142 		ldrd	r4, r2, [r0, #4]
  72:DSP/Track.cpp ****         ph.pos = 0;
 248              		.loc 1 72 31 view .LVU68
 249 0010 013A     		subs	r2, r2, #1
 250              		.loc 1 75 15 view .LVU69
 251 0012 661C     		adds	r6, r4, #1
  72:DSP/Track.cpp ****         ph.pos = 0;
 252              		.loc 1 72 5 view .LVU70
 253 0014 9442     		cmp	r4, r2
  73:DSP/Track.cpp ****         ph.pos = 0;
 254              		.loc 1 73 16 view .LVU71
 255 0016 8CBF     		ite	hi
 256 0018 4760     		strhi	r7, [r0, #4]
 257              		.loc 1 75 15 view .LVU72
 258 001a 4660     		strls	r6, [r0, #4]
 259              	.L17:
 260              	.LVL15:
 261              		.loc 1 75 15 view .LVU73
 262              	.LBE30:
 263              	.LBE31:
 264              	.LBE32:
 265              	.LBE33:
  27:DSP/Track.cpp ****     {
 266              		.loc 1 27 5 is_stmt 1 view .LVU74
 267 001c 0133     		adds	r3, r3, #1
 268              	.LVL16:
  27:DSP/Track.cpp ****     {
 269              		.loc 1 27 26 view .LVU75
 270 001e 9942     		cmp	r1, r3
 271 0020 F2D1     		bne	.L19
 272              	.LBE34:
  34:DSP/Track.cpp **** 
 273              		.loc 1 34 1 is_stmt 0 view .LVU76
 274 0022 F0BC     		pop	{r4, r5, r6, r7}
 275              		.cfi_restore 7
 276              		.cfi_restore 6
 277              		.cfi_restore 5
 278              		.cfi_restore 4
 279              		.cfi_def_cfa_offset 0
 280 0024 7047     		bx	lr
ARM GAS  /var/folders/wz/z09yph4n0qj4t7mjxhl6ttn80000gn/T//cc4Kfnvs.s 			page 8


 281              	.LVL17:
 282              	.L28:
  34:DSP/Track.cpp **** 
 283              		.loc 1 34 1 view .LVU77
 284 0026 7047     		bx	lr
 285              		.cfi_endproc
 286              	.LFE1388:
 288              		.section	.text._ZN5Track12processInputEPKfS1_j,"ax",%progbits
 289              		.align	1
 290              		.p2align 2,,3
 291              		.global	_ZN5Track12processInputEPKfS1_j
 292              		.syntax unified
 293              		.thumb
 294              		.thumb_func
 296              	_ZN5Track12processInputEPKfS1_j:
 297              	.LVL18:
 298              	.LFB1389:
  37:DSP/Track.cpp ****     for(size_t i = 0 ; i < size ; i++)
 299              		.loc 1 37 1 is_stmt 1 view -0
 300              		.cfi_startproc
 301              		@ args = 0, pretend = 0, frame = 0
 302              		@ frame_needed = 0, uses_anonymous_args = 0
 303              		@ link register save eliminated.
  38:DSP/Track.cpp ****     {
 304              		.loc 1 38 5 view .LVU79
 305              	.LBB35:
  38:DSP/Track.cpp ****     {
 306              		.loc 1 38 26 view .LVU80
 307 0000 8BB1     		cbz	r3, .L39
 308 0002 01EB830C 		add	ip, r1, r3, lsl #2
 309              	.LBE35:
  37:DSP/Track.cpp ****     for(size_t i = 0 ; i < size ; i++)
 310              		.loc 1 37 1 is_stmt 0 view .LVU81
 311 0006 10B4     		push	{r4}
 312              		.cfi_def_cfa_offset 4
 313              		.cfi_offset 4, -4
 314 0008 D0E90340 		ldrd	r4, r0, [r0, #12]
 315              	.LVL19:
 316              	.L33:
 317              	.LBB36:
  40:DSP/Track.cpp ****         buffer[R][i] = right[i];
 318              		.loc 1 40 9 is_stmt 1 discriminator 2 view .LVU82
  40:DSP/Track.cpp ****         buffer[R][i] = right[i];
 319              		.loc 1 40 30 is_stmt 0 discriminator 2 view .LVU83
 320 000c 51F8043B 		ldr	r3, [r1], #4	@ float
  40:DSP/Track.cpp ****         buffer[R][i] = right[i];
 321              		.loc 1 40 22 discriminator 2 view .LVU84
 322 0010 44F8043B 		str	r3, [r4], #4	@ float
  41:DSP/Track.cpp ****     }
 323              		.loc 1 41 9 is_stmt 1 discriminator 2 view .LVU85
  38:DSP/Track.cpp ****     {
 324              		.loc 1 38 26 is_stmt 0 discriminator 2 view .LVU86
 325 0014 6145     		cmp	r1, ip
  41:DSP/Track.cpp ****     }
 326              		.loc 1 41 31 discriminator 2 view .LVU87
 327 0016 52F8043B 		ldr	r3, [r2], #4	@ float
  41:DSP/Track.cpp ****     }
ARM GAS  /var/folders/wz/z09yph4n0qj4t7mjxhl6ttn80000gn/T//cc4Kfnvs.s 			page 9


 328              		.loc 1 41 22 discriminator 2 view .LVU88
 329 001a 40F8043B 		str	r3, [r0], #4	@ float
  38:DSP/Track.cpp ****     {
 330              		.loc 1 38 5 is_stmt 1 discriminator 2 view .LVU89
  38:DSP/Track.cpp ****     {
 331              		.loc 1 38 26 discriminator 2 view .LVU90
 332 001e F5D1     		bne	.L33
 333              	.LBE36:
  43:DSP/Track.cpp **** 
 334              		.loc 1 43 1 is_stmt 0 view .LVU91
 335 0020 5DF8044B 		ldr	r4, [sp], #4
 336              		.cfi_restore 4
 337              		.cfi_def_cfa_offset 0
 338 0024 7047     		bx	lr
 339              	.LVL20:
 340              	.L39:
  43:DSP/Track.cpp **** 
 341              		.loc 1 43 1 view .LVU92
 342 0026 7047     		bx	lr
 343              		.cfi_endproc
 344              	.LFE1389:
 346              		.section	.text._ZN5Track17processOutputLeftEj,"ax",%progbits
 347              		.align	1
 348              		.p2align 2,,3
 349              		.global	_ZN5Track17processOutputLeftEj
 350              		.syntax unified
 351              		.thumb
 352              		.thumb_func
 354              	_ZN5Track17processOutputLeftEj:
 355              	.LVL21:
 356              	.LFB1390:
  46:DSP/Track.cpp ****     return &buffer[L][pos];
 357              		.loc 1 46 1 is_stmt 1 view -0
 358              		.cfi_startproc
 359              		@ args = 0, pretend = 0, frame = 0
 360              		@ frame_needed = 0, uses_anonymous_args = 0
 361              		@ link register save eliminated.
  47:DSP/Track.cpp **** }
 362              		.loc 1 47 5 view .LVU94
  47:DSP/Track.cpp **** }
 363              		.loc 1 47 26 is_stmt 0 view .LVU95
 364 0000 C068     		ldr	r0, [r0, #12]
 365              	.LVL22:
  48:DSP/Track.cpp **** 
 366              		.loc 1 48 1 view .LVU96
 367 0002 00EB8100 		add	r0, r0, r1, lsl #2
 368 0006 7047     		bx	lr
 369              		.cfi_endproc
 370              	.LFE1390:
 372              		.section	.text._ZN5Track18processOutputRightEj,"ax",%progbits
 373              		.align	1
 374              		.p2align 2,,3
 375              		.global	_ZN5Track18processOutputRightEj
 376              		.syntax unified
 377              		.thumb
 378              		.thumb_func
 380              	_ZN5Track18processOutputRightEj:
ARM GAS  /var/folders/wz/z09yph4n0qj4t7mjxhl6ttn80000gn/T//cc4Kfnvs.s 			page 10


 381              	.LVL23:
 382              	.LFB1391:
  51:DSP/Track.cpp ****     return &buffer[R][pos];
 383              		.loc 1 51 1 is_stmt 1 view -0
 384              		.cfi_startproc
 385              		@ args = 0, pretend = 0, frame = 0
 386              		@ frame_needed = 0, uses_anonymous_args = 0
 387              		@ link register save eliminated.
  52:DSP/Track.cpp **** }
 388              		.loc 1 52 5 view .LVU98
  52:DSP/Track.cpp **** }
 389              		.loc 1 52 26 is_stmt 0 view .LVU99
 390 0000 0069     		ldr	r0, [r0, #16]
 391              	.LVL24:
  53:DSP/Track.cpp **** 
 392              		.loc 1 53 1 view .LVU100
 393 0002 00EB8100 		add	r0, r0, r1, lsl #2
 394 0006 7047     		bx	lr
 395              		.cfi_endproc
 396              	.LFE1391:
 398              		.section	.text._ZN5Track14setIsRecordingEv,"ax",%progbits
 399              		.align	1
 400              		.p2align 2,,3
 401              		.global	_ZN5Track14setIsRecordingEv
 402              		.syntax unified
 403              		.thumb
 404              		.thumb_func
 406              	_ZN5Track14setIsRecordingEv:
 407              	.LVL25:
 408              	.LFB1392:
  56:DSP/Track.cpp ****     ph.isRecording = !ph.isRecording;
 409              		.loc 1 56 1 is_stmt 1 view -0
 410              		.cfi_startproc
 411              		@ args = 0, pretend = 0, frame = 0
 412              		@ frame_needed = 0, uses_anonymous_args = 0
 413              		@ link register save eliminated.
  57:DSP/Track.cpp ****     ph.reset();
 414              		.loc 1 57 5 view .LVU102
  57:DSP/Track.cpp ****     ph.reset();
 415              		.loc 1 57 22 is_stmt 0 view .LVU103
 416 0000 0378     		ldrb	r3, [r0]	@ zero_extendqisi2
 417              	.LBB37:
 418              	.LBB38:
 419              		.loc 2 11 24 view .LVU104
 420 0002 0022     		movs	r2, #0
 421              	.LBE38:
 422              	.LBE37:
  57:DSP/Track.cpp ****     ph.reset();
 423              		.loc 1 57 22 view .LVU105
 424 0004 83F00103 		eor	r3, r3, #1
 425              	.LBB41:
 426              	.LBB39:
 427              		.loc 2 11 24 view .LVU106
 428 0008 4260     		str	r2, [r0, #4]
 429              	.LBE39:
 430              	.LBE41:
  57:DSP/Track.cpp ****     ph.reset();
ARM GAS  /var/folders/wz/z09yph4n0qj4t7mjxhl6ttn80000gn/T//cc4Kfnvs.s 			page 11


 431              		.loc 1 57 20 view .LVU107
 432 000a 0370     		strb	r3, [r0]
  58:DSP/Track.cpp **** }
 433              		.loc 1 58 5 is_stmt 1 view .LVU108
 434              	.LVL26:
 435              	.LBB42:
 436              	.LBI37:
 437              		.loc 2 11 10 view .LVU109
 438              	.LBB40:
 439              		.loc 2 11 20 view .LVU110
 440              		.loc 2 11 20 is_stmt 0 view .LVU111
 441              	.LBE40:
 442              	.LBE42:
  59:DSP/Track.cpp **** 
 443              		.loc 1 59 1 view .LVU112
 444 000c 7047     		bx	lr
 445              		.cfi_endproc
 446              	.LFE1392:
 448 000e 00BF     		.section	.text._ZN5Track12setIsPlayingEv,"ax",%progbits
 449              		.align	1
 450              		.p2align 2,,3
 451              		.global	_ZN5Track12setIsPlayingEv
 452              		.syntax unified
 453              		.thumb
 454              		.thumb_func
 456              	_ZN5Track12setIsPlayingEv:
 457              	.LVL27:
 458              	.LFB1393:
  62:DSP/Track.cpp ****     ph.isPlaying = !ph.isPlaying;
 459              		.loc 1 62 1 is_stmt 1 view -0
 460              		.cfi_startproc
 461              		@ args = 0, pretend = 0, frame = 0
 462              		@ frame_needed = 0, uses_anonymous_args = 0
 463              		@ link register save eliminated.
  63:DSP/Track.cpp ****     ph.reset();
 464              		.loc 1 63 5 view .LVU114
  63:DSP/Track.cpp ****     ph.reset();
 465              		.loc 1 63 20 is_stmt 0 view .LVU115
 466 0000 4378     		ldrb	r3, [r0, #1]	@ zero_extendqisi2
 467              	.LBB43:
 468              	.LBB44:
 469              		.loc 2 11 24 view .LVU116
 470 0002 0022     		movs	r2, #0
 471              	.LBE44:
 472              	.LBE43:
  63:DSP/Track.cpp ****     ph.reset();
 473              		.loc 1 63 20 view .LVU117
 474 0004 83F00103 		eor	r3, r3, #1
 475              	.LBB47:
 476              	.LBB45:
 477              		.loc 2 11 24 view .LVU118
 478 0008 4260     		str	r2, [r0, #4]
 479              	.LBE45:
 480              	.LBE47:
  63:DSP/Track.cpp ****     ph.reset();
 481              		.loc 1 63 18 view .LVU119
 482 000a 4370     		strb	r3, [r0, #1]
ARM GAS  /var/folders/wz/z09yph4n0qj4t7mjxhl6ttn80000gn/T//cc4Kfnvs.s 			page 12


  64:DSP/Track.cpp **** }
 483              		.loc 1 64 5 is_stmt 1 view .LVU120
 484              	.LVL28:
 485              	.LBB48:
 486              	.LBI43:
 487              		.loc 2 11 10 view .LVU121
 488              	.LBB46:
 489              		.loc 2 11 20 view .LVU122
 490              		.loc 2 11 20 is_stmt 0 view .LVU123
 491              	.LBE46:
 492              	.LBE48:
  65:DSP/Track.cpp **** 
 493              		.loc 1 65 1 view .LVU124
 494 000c 7047     		bx	lr
 495              		.cfi_endproc
 496              	.LFE1393:
 498 000e 00BF     		.section	.text._ZN5Track17incrementPlayheadEv,"ax",%progbits
 499              		.align	1
 500              		.p2align 2,,3
 501              		.global	_ZN5Track17incrementPlayheadEv
 502              		.syntax unified
 503              		.thumb
 504              		.thumb_func
 506              	_ZN5Track17incrementPlayheadEv:
 507              	.LVL29:
 508              	.LFB1394:
  68:DSP/Track.cpp ****     if(!ph.isPlaying)
 509              		.loc 1 68 1 is_stmt 1 view -0
 510              		.cfi_startproc
 511              		@ args = 0, pretend = 0, frame = 0
 512              		@ frame_needed = 0, uses_anonymous_args = 0
 513              		@ link register save eliminated.
  69:DSP/Track.cpp ****         return;
 514              		.loc 1 69 5 view .LVU126
 515 0000 4378     		ldrb	r3, [r0, #1]	@ zero_extendqisi2
 516 0002 4BB1     		cbz	r3, .L46
 517              	.LVL30:
 518              	.LBB51:
 519              	.LBI51:
  67:DSP/Track.cpp **** {
 520              		.loc 1 67 6 view .LVU127
 521              	.LBB52:
  72:DSP/Track.cpp ****         ph.pos = 0;
 522              		.loc 1 72 5 view .LVU128
  72:DSP/Track.cpp ****         ph.pos = 0;
 523              		.loc 1 72 11 is_stmt 0 view .LVU129
 524 0004 D0E90123 		ldrd	r2, r3, [r0, #4]
  72:DSP/Track.cpp ****         ph.pos = 0;
 525              		.loc 1 72 31 view .LVU130
 526 0008 013B     		subs	r3, r3, #1
  72:DSP/Track.cpp ****         ph.pos = 0;
 527              		.loc 1 72 5 view .LVU131
 528 000a 9A42     		cmp	r2, r3
 529 000c 02D9     		bls	.L48
  73:DSP/Track.cpp ****     else
 530              		.loc 1 73 9 is_stmt 1 view .LVU132
  73:DSP/Track.cpp ****     else
ARM GAS  /var/folders/wz/z09yph4n0qj4t7mjxhl6ttn80000gn/T//cc4Kfnvs.s 			page 13


 531              		.loc 1 73 16 is_stmt 0 view .LVU133
 532 000e 0023     		movs	r3, #0
 533 0010 4360     		str	r3, [r0, #4]
 534 0012 7047     		bx	lr
 535              	.L48:
 536              		.loc 1 75 9 is_stmt 1 view .LVU134
 537              		.loc 1 75 15 is_stmt 0 view .LVU135
 538 0014 0132     		adds	r2, r2, #1
 539 0016 4260     		str	r2, [r0, #4]
 540              	.LVL31:
 541              	.L46:
 542              		.loc 1 75 15 view .LVU136
 543              	.LBE52:
 544              	.LBE51:
  76:DSP/Track.cpp **** }...
 545              		.loc 1 76 1 view .LVU137
 546 0018 7047     		bx	lr
 547              		.cfi_endproc
 548              	.LFE1394:
 550 001a 00BF     		.text
 551              	.Letext0:
 552              		.file 3 "/Library/DaisyToolchain/0.2.0/arm/arm-none-eabi/include/c++/10.3.1/cmath"
 553              		.file 4 "/Library/DaisyToolchain/0.2.0/arm/arm-none-eabi/include/c++/10.3.1/bits/std_abs.h"
 554              		.file 5 "/Library/DaisyToolchain/0.2.0/arm/arm-none-eabi/include/c++/10.3.1/type_traits"
 555              		.file 6 "/Library/DaisyToolchain/0.2.0/arm/arm-none-eabi/include/c++/10.3.1/debug/debug.h"
 556              		.file 7 "/Library/DaisyToolchain/0.2.0/arm/arm-none-eabi/include/c++/10.3.1/cstdlib"
 557              		.file 8 "/Library/DaisyToolchain/0.2.0/arm/arm-none-eabi/include/c++/10.3.1/arm-none-eabi/thumb/v7
 558              		.file 9 "/Library/DaisyToolchain/0.2.0/arm/arm-none-eabi/include/c++/10.3.1/bits/algorithmfwd.h"
 559              		.file 10 "/Library/DaisyToolchain/0.2.0/arm/arm-none-eabi/include/c++/10.3.1/bits/stl_pair.h"
 560              		.file 11 "/Library/DaisyToolchain/0.2.0/arm/arm-none-eabi/include/c++/10.3.1/bits/exception_ptr.h"
 561              		.file 12 "/Library/DaisyToolchain/0.2.0/arm/lib/gcc/arm-none-eabi/10.3.1/include/stddef.h"
 562              		.file 13 "/Library/DaisyToolchain/0.2.0/arm/arm-none-eabi/include/c++/10.3.1/bits/predefined_ops.h
 563              		.file 14 "/Library/DaisyToolchain/0.2.0/arm/arm-none-eabi/include/math.h"
 564              		.file 15 "/Library/DaisyToolchain/0.2.0/arm/arm-none-eabi/include/stdlib.h"
 565              		.file 16 "/Library/DaisyToolchain/0.2.0/arm/arm-none-eabi/include/c++/10.3.1/math.h"
 566              		.file 17 "DSP/Track.h"
 567              		.file 18 "<built-in>"
ARM GAS  /var/folders/wz/z09yph4n0qj4t7mjxhl6ttn80000gn/T//cc4Kfnvs.s 			page 14


DEFINED SYMBOLS
                            *ABS*:0000000000000000 Track.cpp
/var/folders/wz/z09yph4n0qj4t7mjxhl6ttn80000gn/T//cc4Kfnvs.s:19     .text._ZN5Track4initEPPfj:0000000000000000 $t
/var/folders/wz/z09yph4n0qj4t7mjxhl6ttn80000gn/T//cc4Kfnvs.s:26     .text._ZN5Track4initEPPfj:0000000000000000 _ZN5Track4initEPPfj
/var/folders/wz/z09yph4n0qj4t7mjxhl6ttn80000gn/T//cc4Kfnvs.s:165    .text._ZN5Track7prepareEv:0000000000000000 $t
/var/folders/wz/z09yph4n0qj4t7mjxhl6ttn80000gn/T//cc4Kfnvs.s:172    .text._ZN5Track7prepareEv:0000000000000000 _ZN5Track7prepareEv
/var/folders/wz/z09yph4n0qj4t7mjxhl6ttn80000gn/T//cc4Kfnvs.s:186    .text._ZN5Track12processBlockEj:0000000000000000 $t
/var/folders/wz/z09yph4n0qj4t7mjxhl6ttn80000gn/T//cc4Kfnvs.s:193    .text._ZN5Track12processBlockEj:0000000000000000 _ZN5Track12processBlockEj
/var/folders/wz/z09yph4n0qj4t7mjxhl6ttn80000gn/T//cc4Kfnvs.s:289    .text._ZN5Track12processInputEPKfS1_j:0000000000000000 $t
/var/folders/wz/z09yph4n0qj4t7mjxhl6ttn80000gn/T//cc4Kfnvs.s:296    .text._ZN5Track12processInputEPKfS1_j:0000000000000000 _ZN5Track12processInputEPKfS1_j
/var/folders/wz/z09yph4n0qj4t7mjxhl6ttn80000gn/T//cc4Kfnvs.s:347    .text._ZN5Track17processOutputLeftEj:0000000000000000 $t
/var/folders/wz/z09yph4n0qj4t7mjxhl6ttn80000gn/T//cc4Kfnvs.s:354    .text._ZN5Track17processOutputLeftEj:0000000000000000 _ZN5Track17processOutputLeftEj
/var/folders/wz/z09yph4n0qj4t7mjxhl6ttn80000gn/T//cc4Kfnvs.s:373    .text._ZN5Track18processOutputRightEj:0000000000000000 $t
/var/folders/wz/z09yph4n0qj4t7mjxhl6ttn80000gn/T//cc4Kfnvs.s:380    .text._ZN5Track18processOutputRightEj:0000000000000000 _ZN5Track18processOutputRightEj
/var/folders/wz/z09yph4n0qj4t7mjxhl6ttn80000gn/T//cc4Kfnvs.s:399    .text._ZN5Track14setIsRecordingEv:0000000000000000 $t
/var/folders/wz/z09yph4n0qj4t7mjxhl6ttn80000gn/T//cc4Kfnvs.s:406    .text._ZN5Track14setIsRecordingEv:0000000000000000 _ZN5Track14setIsRecordingEv
/var/folders/wz/z09yph4n0qj4t7mjxhl6ttn80000gn/T//cc4Kfnvs.s:449    .text._ZN5Track12setIsPlayingEv:0000000000000000 $t
/var/folders/wz/z09yph4n0qj4t7mjxhl6ttn80000gn/T//cc4Kfnvs.s:456    .text._ZN5Track12setIsPlayingEv:0000000000000000 _ZN5Track12setIsPlayingEv
/var/folders/wz/z09yph4n0qj4t7mjxhl6ttn80000gn/T//cc4Kfnvs.s:499    .text._ZN5Track17incrementPlayheadEv:0000000000000000 $t
/var/folders/wz/z09yph4n0qj4t7mjxhl6ttn80000gn/T//cc4Kfnvs.s:506    .text._ZN5Track17incrementPlayheadEv:0000000000000000 _ZN5Track17incrementPlayheadEv

UNDEFINED SYMBOLS
memset
