ARM GAS  /var/folders/wz/z09yph4n0qj4t7mjxhl6ttn80000gn/T//ccQxc3in.s 			page 1


   1              		.cpu cortex-m7
   2              		.arch armv7e-m
   3              		.fpu fpv5-d16
   4              		.eabi_attribute 28, 1
   5              		.eabi_attribute 20, 1
   6              		.eabi_attribute 21, 1
   7              		.eabi_attribute 23, 3
   8              		.eabi_attribute 24, 1
   9              		.eabi_attribute 25, 1
  10              		.eabi_attribute 26, 1
  11              		.eabi_attribute 30, 2
  12              		.eabi_attribute 34, 1
  13              		.eabi_attribute 18, 4
  14              		.file	"Track.cpp"
  15              		.text
  16              	.Ltext0:
  17              		.cfi_sections	.debug_frame
  18              		.section	.text._ZN5Track4initEPPfj,"ax",%progbits
  19              		.align	1
  20              		.p2align 2,,3
  21              		.global	_ZN5Track4initEPPfj
  22              		.syntax unified
  23              		.thumb
  24              		.thumb_func
  26              	_ZN5Track4initEPPfj:
  27              	.LVL0:
  28              	.LFB1386:
  29              		.file 1 "DSP/Track.cpp"
   1:DSP/Track.cpp **** #include "Track.h"
   2:DSP/Track.cpp **** 
   3:DSP/Track.cpp **** void Track::init(float* mem[2], const size_t s)
   4:DSP/Track.cpp **** {
  30              		.loc 1 4 1 view -0
  31              		.cfi_startproc
  32              		@ args = 0, pretend = 0, frame = 8
  33              		@ frame_needed = 0, uses_anonymous_args = 0
   5:DSP/Track.cpp ****     bufferSize = s;
  34              		.loc 1 5 5 view .LVU1
   4:DSP/Track.cpp ****     bufferSize = s;
  35              		.loc 1 4 1 is_stmt 0 view .LVU2
  36 0000 30B5     		push	{r4, r5, lr}
  37              		.cfi_def_cfa_offset 12
  38              		.cfi_offset 4, -12
  39              		.cfi_offset 5, -8
  40              		.cfi_offset 14, -4
  41 0002 0446     		mov	r4, r0
  42              	.LBB10:
   6:DSP/Track.cpp ****     for(int i = 0 ; i < 2 ; i++)
   7:DSP/Track.cpp ****         buffer[i] = mem[i];
  43              		.loc 1 7 26 view .LVU3
  44 0004 0868     		ldr	r0, [r1]
  45              	.LVL1:
  46              		.loc 1 7 26 view .LVU4
  47              	.LBE10:
   4:DSP/Track.cpp ****     bufferSize = s;
  48              		.loc 1 4 1 view .LVU5
  49 0006 83B0     		sub	sp, sp, #12
ARM GAS  /var/folders/wz/z09yph4n0qj4t7mjxhl6ttn80000gn/T//ccQxc3in.s 			page 2


  50              		.cfi_def_cfa_offset 24
  51              	.LBB11:
  52              		.loc 1 7 19 view .LVU6
  53 0008 2061     		str	r0, [r4, #16]
  54              		.loc 1 7 26 view .LVU7
  55 000a 4D68     		ldr	r5, [r1, #4]
  56              	.LBE11:
   5:DSP/Track.cpp ****     for(int i = 0 ; i < 2 ; i++)
  57              		.loc 1 5 16 view .LVU8
  58 000c A261     		str	r2, [r4, #24]
   6:DSP/Track.cpp ****     for(int i = 0 ; i < 2 ; i++)
  59              		.loc 1 6 5 is_stmt 1 view .LVU9
  60              	.LVL2:
  61              	.LBB12:
   6:DSP/Track.cpp ****     for(int i = 0 ; i < 2 ; i++)
  62              		.loc 1 6 23 view .LVU10
  63              		.loc 1 7 9 view .LVU11
   6:DSP/Track.cpp ****     for(int i = 0 ; i < 2 ; i++)
  64              		.loc 1 6 5 view .LVU12
   6:DSP/Track.cpp ****     for(int i = 0 ; i < 2 ; i++)
  65              		.loc 1 6 23 view .LVU13
  66              		.loc 1 7 9 view .LVU14
  67              		.loc 1 7 19 is_stmt 0 view .LVU15
  68 000e 6561     		str	r5, [r4, #20]
   6:DSP/Track.cpp ****     for(int i = 0 ; i < 2 ; i++)
  69              		.loc 1 6 5 is_stmt 1 view .LVU16
  70              	.LVL3:
   6:DSP/Track.cpp ****     for(int i = 0 ; i < 2 ; i++)
  71              		.loc 1 6 23 view .LVU17
   6:DSP/Track.cpp ****     for(int i = 0 ; i < 2 ; i++)
  72              		.loc 1 6 23 is_stmt 0 view .LVU18
  73              	.LBE12:
  74              	.LBB13:
   8:DSP/Track.cpp **** 
   9:DSP/Track.cpp ****     for(size_t i = 0 ; i < s ; i++)
  75              		.loc 1 9 26 is_stmt 1 view .LVU19
  76 0010 8AB1     		cbz	r2, .L2
  77 0012 1346     		mov	r3, r2
  78 0014 9200     		lsls	r2, r2, #2
  79              	.LVL4:
  80              		.loc 1 9 26 is_stmt 0 view .LVU20
  81 0016 05EB8303 		add	r3, r5, r3, lsl #2
  82              	.LVL5:
  83              		.loc 1 9 26 view .LVU21
  84 001a 9842     		cmp	r0, r3
  85 001c 02D2     		bcs	.L6
  86 001e 8118     		adds	r1, r0, r2
  87              	.LVL6:
  88              		.loc 1 9 26 view .LVU22
  89 0020 8D42     		cmp	r5, r1
  90 0022 10D3     		bcc	.L5
  91              	.L6:
  10:DSP/Track.cpp ****     {
  11:DSP/Track.cpp ****         buffer[L][i] = 0.0f;
  92              		.loc 1 11 22 view .LVU23
  93 0024 0021     		movs	r1, #0
  94 0026 0192     		str	r2, [sp, #4]
ARM GAS  /var/folders/wz/z09yph4n0qj4t7mjxhl6ttn80000gn/T//ccQxc3in.s 			page 3


  95 0028 FFF7FEFF 		bl	memset
  96              	.LVL7:
  12:DSP/Track.cpp ****         buffer[R][i] = 0.0f;
  97              		.loc 1 12 22 view .LVU24
  98 002c 019A     		ldr	r2, [sp, #4]
  99 002e 0021     		movs	r1, #0
 100 0030 2846     		mov	r0, r5
 101 0032 FFF7FEFF 		bl	memset
 102              	.LVL8:
 103              	.L2:
 104              		.loc 1 12 22 view .LVU25
 105              	.LBE13:
  13:DSP/Track.cpp ****     }
  14:DSP/Track.cpp **** 
  15:DSP/Track.cpp ****     ph.isRecording = false;
 106              		.loc 1 15 5 is_stmt 1 view .LVU26
  16:DSP/Track.cpp ****     ph.isPlaying = false;
 107              		.loc 1 16 5 view .LVU27
  15:DSP/Track.cpp ****     ph.isPlaying = false;
 108              		.loc 1 15 20 is_stmt 0 view .LVU28
 109 0036 0023     		movs	r3, #0
  17:DSP/Track.cpp ****     ph.reset();
  18:DSP/Track.cpp **** 
  19:DSP/Track.cpp ****     ti.isEmpty = true;
 110              		.loc 1 19 16 view .LVU29
 111 0038 0122     		movs	r2, #1
  15:DSP/Track.cpp ****     ph.isPlaying = false;
 112              		.loc 1 15 20 view .LVU30
 113 003a 2380     		strh	r3, [r4]	@ movhi
  17:DSP/Track.cpp ****     ph.reset();
 114              		.loc 1 17 5 is_stmt 1 view .LVU31
 115              	.LVL9:
 116              	.LBB14:
 117              	.LBI14:
 118              		.file 2 "DSP/Helpers.h"
   1:DSP/Helpers.h **** #include "stddef.h"
   2:DSP/Helpers.h **** #include <algorithm>
   3:DSP/Helpers.h **** 
   4:DSP/Helpers.h **** // playhead
   5:DSP/Helpers.h **** struct Playhead
   6:DSP/Helpers.h **** {
   7:DSP/Helpers.h ****     bool isRecording;
   8:DSP/Helpers.h ****     bool isPlaying;
   9:DSP/Helpers.h ****     size_t pos;
  10:DSP/Helpers.h **** 
  11:DSP/Helpers.h ****     void reset() { pos = 0; }
 119              		.loc 2 11 10 view .LVU32
 120              	.LBB15:
 121              		.loc 2 11 20 view .LVU33
 122              		.loc 2 11 24 is_stmt 0 view .LVU34
 123 003c 6360     		str	r3, [r4, #4]
 124              	.LVL10:
 125              		.loc 2 11 24 view .LVU35
 126              	.LBE15:
 127              	.LBE14:
 128              		.loc 1 19 5 is_stmt 1 view .LVU36
 129              		.loc 1 19 16 is_stmt 0 view .LVU37
ARM GAS  /var/folders/wz/z09yph4n0qj4t7mjxhl6ttn80000gn/T//ccQxc3in.s 			page 4


 130 003e 2272     		strb	r2, [r4, #8]
  20:DSP/Track.cpp ****     ti.loopLength = 0;
 131              		.loc 1 20 5 is_stmt 1 view .LVU38
 132              		.loc 1 20 19 is_stmt 0 view .LVU39
 133 0040 E360     		str	r3, [r4, #12]
  21:DSP/Track.cpp **** }
 134              		.loc 1 21 1 view .LVU40
 135 0042 03B0     		add	sp, sp, #12
 136              		.cfi_remember_state
 137              		.cfi_def_cfa_offset 12
 138              		@ sp needed
 139 0044 30BD     		pop	{r4, r5, pc}
 140              	.LVL11:
 141              	.L5:
 142              		.cfi_restore_state
 143              	.LBB16:
  11:DSP/Track.cpp ****         buffer[R][i] = 0.0f;
 144              		.loc 1 11 9 is_stmt 1 view .LVU41
  11:DSP/Track.cpp ****         buffer[R][i] = 0.0f;
 145              		.loc 1 11 22 is_stmt 0 view .LVU42
 146 0046 0023     		movs	r3, #0
 147 0048 40F8043B 		str	r3, [r0], #4	@ float
  12:DSP/Track.cpp ****     }
 148              		.loc 1 12 9 is_stmt 1 view .LVU43
   9:DSP/Track.cpp ****     {
 149              		.loc 1 9 26 is_stmt 0 view .LVU44
 150 004c 8842     		cmp	r0, r1
  12:DSP/Track.cpp ****     }
 151              		.loc 1 12 22 view .LVU45
 152 004e 45F8043B 		str	r3, [r5], #4	@ float
   9:DSP/Track.cpp ****     {
 153              		.loc 1 9 5 is_stmt 1 view .LVU46
   9:DSP/Track.cpp ****     {
 154              		.loc 1 9 26 view .LVU47
 155 0052 F0D0     		beq	.L2
  11:DSP/Track.cpp ****         buffer[R][i] = 0.0f;
 156              		.loc 1 11 9 view .LVU48
  11:DSP/Track.cpp ****         buffer[R][i] = 0.0f;
 157              		.loc 1 11 22 is_stmt 0 view .LVU49
 158 0054 0023     		movs	r3, #0
 159 0056 40F8043B 		str	r3, [r0], #4	@ float
  12:DSP/Track.cpp ****     }
 160              		.loc 1 12 9 is_stmt 1 view .LVU50
   9:DSP/Track.cpp ****     {
 161              		.loc 1 9 26 is_stmt 0 view .LVU51
 162 005a 8842     		cmp	r0, r1
  12:DSP/Track.cpp ****     }
 163              		.loc 1 12 22 view .LVU52
 164 005c 45F8043B 		str	r3, [r5], #4	@ float
   9:DSP/Track.cpp ****     {
 165              		.loc 1 9 5 is_stmt 1 view .LVU53
   9:DSP/Track.cpp ****     {
 166              		.loc 1 9 26 view .LVU54
 167 0060 F1D1     		bne	.L5
 168 0062 E8E7     		b	.L2
 169              	.LBE16:
 170              		.cfi_endproc
ARM GAS  /var/folders/wz/z09yph4n0qj4t7mjxhl6ttn80000gn/T//ccQxc3in.s 			page 5


 171              	.LFE1386:
 173              		.section	.text._ZN5Track7prepareEv,"ax",%progbits
 174              		.align	1
 175              		.p2align 2,,3
 176              		.global	_ZN5Track7prepareEv
 177              		.syntax unified
 178              		.thumb
 179              		.thumb_func
 181              	_ZN5Track7prepareEv:
 182              	.LVL12:
 183              	.LFB1387:
  22:DSP/Track.cpp **** 
  23:DSP/Track.cpp **** void Track::prepare()
  24:DSP/Track.cpp **** {
 184              		.loc 1 24 1 view -0
 185              		.cfi_startproc
 186              		@ args = 0, pretend = 0, frame = 0
 187              		@ frame_needed = 0, uses_anonymous_args = 0
 188              		@ link register save eliminated.
  25:DSP/Track.cpp **** 
  26:DSP/Track.cpp **** }
 189              		.loc 1 26 1 is_stmt 0 view .LVU56
 190 0000 7047     		bx	lr
 191              		.cfi_endproc
 192              	.LFE1387:
 194 0002 00BF     		.section	.text._ZN5Track12processBlockEj,"ax",%progbits
 195              		.align	1
 196              		.p2align 2,,3
 197              		.global	_ZN5Track12processBlockEj
 198              		.syntax unified
 199              		.thumb
 200              		.thumb_func
 202              	_ZN5Track12processBlockEj:
 203              	.LVL13:
 204              	.LFB1388:
  27:DSP/Track.cpp **** 
  28:DSP/Track.cpp **** void Track::processBlock(size_t size)
  29:DSP/Track.cpp **** {
 205              		.loc 1 29 1 is_stmt 1 view -0
 206              		.cfi_startproc
 207              		@ args = 0, pretend = 0, frame = 0
 208              		@ frame_needed = 0, uses_anonymous_args = 0
 209              		@ link register save eliminated.
  30:DSP/Track.cpp ****     for(size_t i = 0 ; i < size ; i++)
 210              		.loc 1 30 5 view .LVU58
 211              	.LBB22:
 212              		.loc 1 30 26 view .LVU59
 213 0000 99B1     		cbz	r1, .L31
 214              		.loc 1 30 16 is_stmt 0 view .LVU60
 215 0002 0023     		movs	r3, #0
 216              	.LBE22:
  29:DSP/Track.cpp ****     for(size_t i = 0 ; i < size ; i++)
 217              		.loc 1 29 1 view .LVU61
 218 0004 F0B4     		push	{r4, r5, r6, r7}
 219              		.cfi_def_cfa_offset 16
 220              		.cfi_offset 4, -16
 221              		.cfi_offset 5, -12
ARM GAS  /var/folders/wz/z09yph4n0qj4t7mjxhl6ttn80000gn/T//ccQxc3in.s 			page 6


 222              		.cfi_offset 6, -8
 223              		.cfi_offset 7, -4
 224              	.LBB31:
 225              	.LBB23:
 226              	.LBB24:
  31:DSP/Track.cpp ****     {
  32:DSP/Track.cpp ****         
  33:DSP/Track.cpp **** 
  34:DSP/Track.cpp **** 
  35:DSP/Track.cpp ****         incrementPlayhead();
  36:DSP/Track.cpp ****     }
  37:DSP/Track.cpp **** }
  38:DSP/Track.cpp **** 
  39:DSP/Track.cpp **** void Track::tick()
  40:DSP/Track.cpp **** {
  41:DSP/Track.cpp ****     if(!ph.isPlaying || ph.isRecording)
  42:DSP/Track.cpp ****         return;
  43:DSP/Track.cpp **** 
  44:DSP/Track.cpp ****     incrementPlayhead();
  45:DSP/Track.cpp **** }
  46:DSP/Track.cpp **** 
  47:DSP/Track.cpp **** void Track::setIsRecording()
  48:DSP/Track.cpp **** {
  49:DSP/Track.cpp ****     ph.isRecording = !ph.isRecording;
  50:DSP/Track.cpp **** 
  51:DSP/Track.cpp ****     if(!ph.isRecording)
  52:DSP/Track.cpp ****     {
  53:DSP/Track.cpp ****         ti.isEmpty = false;
  54:DSP/Track.cpp ****         ti.loopLength = ph.pos;
  55:DSP/Track.cpp ****     }
  56:DSP/Track.cpp **** 
  57:DSP/Track.cpp ****     ph.reset();
  58:DSP/Track.cpp **** }
  59:DSP/Track.cpp **** 
  60:DSP/Track.cpp **** void Track::setIsPlaying()
  61:DSP/Track.cpp **** {
  62:DSP/Track.cpp ****     ph.isPlaying = !ph.isPlaying;
  63:DSP/Track.cpp ****     ph.reset();
  64:DSP/Track.cpp **** }
  65:DSP/Track.cpp **** 
  66:DSP/Track.cpp **** void Track::incrementPlayhead()
  67:DSP/Track.cpp **** {
  68:DSP/Track.cpp ****     if(!ph.isRecording || !ph.isPlaying)
 227              		.loc 1 68 12 view .LVU62
 228 0006 0578     		ldrb	r5, [r0]	@ zero_extendqisi2
 229              	.LVL14:
 230              	.L19:
 231              		.loc 1 68 12 view .LVU63
 232              	.LBE24:
 233              	.LBE23:
  35:DSP/Track.cpp ****     }
 234              		.loc 1 35 9 is_stmt 1 view .LVU64
 235              	.LBB30:
 236              	.LBI23:
  66:DSP/Track.cpp **** {
 237              		.loc 1 66 6 view .LVU65
 238              	.LBB29:
ARM GAS  /var/folders/wz/z09yph4n0qj4t7mjxhl6ttn80000gn/T//ccQxc3in.s 			page 7


 239              		.loc 1 68 5 view .LVU66
 240              	.LBB25:
 241              	.LBI25:
  66:DSP/Track.cpp **** {
 242              		.loc 1 66 6 view .LVU67
 243              	.LBB26:
  69:DSP/Track.cpp ****         return;
  70:DSP/Track.cpp **** 
  71:DSP/Track.cpp ****     if(ph.isRecording)
 244              		.loc 1 71 5 view .LVU68
  72:DSP/Track.cpp ****     {
  73:DSP/Track.cpp ****         if(ph.pos > (bufferSize - 1))
 245              		.loc 1 73 9 view .LVU69
 246              	.LBE26:
 247              	.LBE25:
  68:DSP/Track.cpp ****         return;
 248              		.loc 1 68 5 is_stmt 0 view .LVU70
 249 0008 55B1     		cbz	r5, .L17
  68:DSP/Track.cpp ****         return;
 250              		.loc 1 68 24 view .LVU71
 251 000a 4278     		ldrb	r2, [r0, #1]	@ zero_extendqisi2
 252 000c 42B1     		cbz	r2, .L17
 253              	.LBB28:
 254              	.LBB27:
  74:DSP/Track.cpp ****             ph.pos = 0;
 255              		.loc 1 74 13 is_stmt 1 view .LVU72
  75:DSP/Track.cpp ****         else
  76:DSP/Track.cpp ****             ph.pos++;
 256              		.loc 1 76 13 view .LVU73
  73:DSP/Track.cpp ****             ph.pos = 0;
 257              		.loc 1 73 33 is_stmt 0 view .LVU74
 258 000e 8269     		ldr	r2, [r0, #24]
  74:DSP/Track.cpp ****             ph.pos = 0;
 259              		.loc 1 74 20 view .LVU75
 260 0010 0027     		movs	r7, #0
  73:DSP/Track.cpp ****             ph.pos = 0;
 261              		.loc 1 73 15 view .LVU76
 262 0012 4468     		ldr	r4, [r0, #4]
  73:DSP/Track.cpp ****             ph.pos = 0;
 263              		.loc 1 73 33 view .LVU77
 264 0014 013A     		subs	r2, r2, #1
 265              		.loc 1 76 19 view .LVU78
 266 0016 661C     		adds	r6, r4, #1
  73:DSP/Track.cpp ****             ph.pos = 0;
 267              		.loc 1 73 9 view .LVU79
 268 0018 9442     		cmp	r4, r2
  74:DSP/Track.cpp ****             ph.pos = 0;
 269              		.loc 1 74 20 view .LVU80
 270 001a 8CBF     		ite	hi
 271 001c 4760     		strhi	r7, [r0, #4]
 272              		.loc 1 76 19 view .LVU81
 273 001e 4660     		strls	r6, [r0, #4]
 274              	.L17:
 275              	.LVL15:
 276              		.loc 1 76 19 view .LVU82
 277              	.LBE27:
 278              	.LBE28:
ARM GAS  /var/folders/wz/z09yph4n0qj4t7mjxhl6ttn80000gn/T//ccQxc3in.s 			page 8


 279              	.LBE29:
 280              	.LBE30:
  30:DSP/Track.cpp ****     {
 281              		.loc 1 30 5 is_stmt 1 view .LVU83
 282 0020 0133     		adds	r3, r3, #1
 283              	.LVL16:
  30:DSP/Track.cpp ****     {
 284              		.loc 1 30 26 view .LVU84
 285 0022 9942     		cmp	r1, r3
 286 0024 F0D1     		bne	.L19
 287              	.LBE31:
  37:DSP/Track.cpp **** 
 288              		.loc 1 37 1 is_stmt 0 view .LVU85
 289 0026 F0BC     		pop	{r4, r5, r6, r7}
 290              		.cfi_restore 7
 291              		.cfi_restore 6
 292              		.cfi_restore 5
 293              		.cfi_restore 4
 294              		.cfi_def_cfa_offset 0
 295 0028 7047     		bx	lr
 296              	.LVL17:
 297              	.L31:
  37:DSP/Track.cpp **** 
 298              		.loc 1 37 1 view .LVU86
 299 002a 7047     		bx	lr
 300              		.cfi_endproc
 301              	.LFE1388:
 303              		.section	.text._ZN5Track4tickEv,"ax",%progbits
 304              		.align	1
 305              		.p2align 2,,3
 306              		.global	_ZN5Track4tickEv
 307              		.syntax unified
 308              		.thumb
 309              		.thumb_func
 311              	_ZN5Track4tickEv:
 312              	.LVL18:
 313              	.LFB1389:
  40:DSP/Track.cpp ****     if(!ph.isPlaying || ph.isRecording)
 314              		.loc 1 40 1 is_stmt 1 view -0
 315              		.cfi_startproc
 316              		@ args = 0, pretend = 0, frame = 0
 317              		@ frame_needed = 0, uses_anonymous_args = 0
 318              		@ link register save eliminated.
  41:DSP/Track.cpp ****         return;
 319              		.loc 1 41 5 view .LVU88
  45:DSP/Track.cpp **** 
 320              		.loc 1 45 1 is_stmt 0 view .LVU89
 321 0000 7047     		bx	lr
 322              		.cfi_endproc
 323              	.LFE1389:
 325 0002 00BF     		.section	.text._ZN5Track14setIsRecordingEv,"ax",%progbits
 326              		.align	1
 327              		.p2align 2,,3
 328              		.global	_ZN5Track14setIsRecordingEv
 329              		.syntax unified
 330              		.thumb
 331              		.thumb_func
ARM GAS  /var/folders/wz/z09yph4n0qj4t7mjxhl6ttn80000gn/T//ccQxc3in.s 			page 9


 333              	_ZN5Track14setIsRecordingEv:
 334              	.LVL19:
 335              	.LFB1390:
  48:DSP/Track.cpp ****     ph.isRecording = !ph.isRecording;
 336              		.loc 1 48 1 is_stmt 1 view -0
 337              		.cfi_startproc
 338              		@ args = 0, pretend = 0, frame = 0
 339              		@ frame_needed = 0, uses_anonymous_args = 0
 340              		@ link register save eliminated.
  49:DSP/Track.cpp **** 
 341              		.loc 1 49 5 view .LVU91
  49:DSP/Track.cpp **** 
 342              		.loc 1 49 22 is_stmt 0 view .LVU92
 343 0000 0378     		ldrb	r3, [r0]	@ zero_extendqisi2
 344 0002 83F00103 		eor	r3, r3, #1
  49:DSP/Track.cpp **** 
 345              		.loc 1 49 20 view .LVU93
 346 0006 0370     		strb	r3, [r0]
  51:DSP/Track.cpp ****     {
 347              		.loc 1 51 5 is_stmt 1 view .LVU94
 348 0008 13B9     		cbnz	r3, .L36
  53:DSP/Track.cpp ****         ti.loopLength = ph.pos;
 349              		.loc 1 53 9 view .LVU95
  54:DSP/Track.cpp ****     }
 350              		.loc 1 54 23 is_stmt 0 view .LVU96
 351 000a 4268     		ldr	r2, [r0, #4]
  53:DSP/Track.cpp ****         ti.loopLength = ph.pos;
 352              		.loc 1 53 20 view .LVU97
 353 000c 0372     		strb	r3, [r0, #8]
  54:DSP/Track.cpp ****     }
 354              		.loc 1 54 9 is_stmt 1 view .LVU98
  54:DSP/Track.cpp ****     }
 355              		.loc 1 54 23 is_stmt 0 view .LVU99
 356 000e C260     		str	r2, [r0, #12]
 357              	.L36:
  57:DSP/Track.cpp **** }
 358              		.loc 1 57 5 is_stmt 1 view .LVU100
 359              	.LVL20:
 360              	.LBB36:
 361              	.LBI36:
 362              		.loc 2 11 10 view .LVU101
 363              	.LBB37:
 364              		.loc 2 11 20 view .LVU102
 365              		.loc 2 11 24 is_stmt 0 view .LVU103
 366 0010 0023     		movs	r3, #0
 367 0012 4360     		str	r3, [r0, #4]
 368              	.LVL21:
 369              		.loc 2 11 24 view .LVU104
 370              	.LBE37:
 371              	.LBE36:
  58:DSP/Track.cpp **** 
 372              		.loc 1 58 1 view .LVU105
 373 0014 7047     		bx	lr
 374              		.cfi_endproc
 375              	.LFE1390:
 377 0016 00BF     		.section	.text._ZN5Track12setIsPlayingEv,"ax",%progbits
 378              		.align	1
ARM GAS  /var/folders/wz/z09yph4n0qj4t7mjxhl6ttn80000gn/T//ccQxc3in.s 			page 10


 379              		.p2align 2,,3
 380              		.global	_ZN5Track12setIsPlayingEv
 381              		.syntax unified
 382              		.thumb
 383              		.thumb_func
 385              	_ZN5Track12setIsPlayingEv:
 386              	.LVL22:
 387              	.LFB1391:
  61:DSP/Track.cpp ****     ph.isPlaying = !ph.isPlaying;
 388              		.loc 1 61 1 is_stmt 1 view -0
 389              		.cfi_startproc
 390              		@ args = 0, pretend = 0, frame = 0
 391              		@ frame_needed = 0, uses_anonymous_args = 0
 392              		@ link register save eliminated.
  62:DSP/Track.cpp ****     ph.reset();
 393              		.loc 1 62 5 view .LVU107
  62:DSP/Track.cpp ****     ph.reset();
 394              		.loc 1 62 20 is_stmt 0 view .LVU108
 395 0000 4378     		ldrb	r3, [r0, #1]	@ zero_extendqisi2
 396              	.LBB38:
 397              	.LBB39:
 398              		.loc 2 11 24 view .LVU109
 399 0002 0022     		movs	r2, #0
 400              	.LBE39:
 401              	.LBE38:
  62:DSP/Track.cpp ****     ph.reset();
 402              		.loc 1 62 20 view .LVU110
 403 0004 83F00103 		eor	r3, r3, #1
 404              	.LBB42:
 405              	.LBB40:
 406              		.loc 2 11 24 view .LVU111
 407 0008 4260     		str	r2, [r0, #4]
 408              	.LBE40:
 409              	.LBE42:
  62:DSP/Track.cpp ****     ph.reset();
 410              		.loc 1 62 18 view .LVU112
 411 000a 4370     		strb	r3, [r0, #1]
  63:DSP/Track.cpp **** }
 412              		.loc 1 63 5 is_stmt 1 view .LVU113
 413              	.LVL23:
 414              	.LBB43:
 415              	.LBI38:
 416              		.loc 2 11 10 view .LVU114
 417              	.LBB41:
 418              		.loc 2 11 20 view .LVU115
 419              		.loc 2 11 20 is_stmt 0 view .LVU116
 420              	.LBE41:
 421              	.LBE43:
  64:DSP/Track.cpp **** 
 422              		.loc 1 64 1 view .LVU117
 423 000c 7047     		bx	lr
 424              		.cfi_endproc
 425              	.LFE1391:
 427 000e 00BF     		.section	.text._ZN5Track17incrementPlayheadEv,"ax",%progbits
 428              		.align	1
 429              		.p2align 2,,3
 430              		.global	_ZN5Track17incrementPlayheadEv
ARM GAS  /var/folders/wz/z09yph4n0qj4t7mjxhl6ttn80000gn/T//ccQxc3in.s 			page 11


 431              		.syntax unified
 432              		.thumb
 433              		.thumb_func
 435              	_ZN5Track17incrementPlayheadEv:
 436              	.LVL24:
 437              	.LFB1392:
  67:DSP/Track.cpp ****     if(!ph.isRecording || !ph.isPlaying)
 438              		.loc 1 67 1 is_stmt 1 view -0
 439              		.cfi_startproc
 440              		@ args = 0, pretend = 0, frame = 0
 441              		@ frame_needed = 0, uses_anonymous_args = 0
 442              		@ link register save eliminated.
  68:DSP/Track.cpp ****         return;
 443              		.loc 1 68 5 view .LVU119
 444 0000 0378     		ldrb	r3, [r0]	@ zero_extendqisi2
 445 0002 5BB1     		cbz	r3, .L38
  68:DSP/Track.cpp ****         return;
 446              		.loc 1 68 24 is_stmt 0 discriminator 1 view .LVU120
 447 0004 4378     		ldrb	r3, [r0, #1]	@ zero_extendqisi2
 448 0006 4BB1     		cbz	r3, .L38
 449              	.LVL25:
 450              	.LBB46:
 451              	.LBI46:
  66:DSP/Track.cpp **** {
 452              		.loc 1 66 6 is_stmt 1 view .LVU121
 453              	.LBB47:
  71:DSP/Track.cpp ****     {
 454              		.loc 1 71 5 view .LVU122
  73:DSP/Track.cpp ****             ph.pos = 0;
 455              		.loc 1 73 9 view .LVU123
  73:DSP/Track.cpp ****             ph.pos = 0;
 456              		.loc 1 73 33 is_stmt 0 view .LVU124
 457 0008 8369     		ldr	r3, [r0, #24]
  73:DSP/Track.cpp ****             ph.pos = 0;
 458              		.loc 1 73 15 view .LVU125
 459 000a 4268     		ldr	r2, [r0, #4]
  73:DSP/Track.cpp ****             ph.pos = 0;
 460              		.loc 1 73 33 view .LVU126
 461 000c 013B     		subs	r3, r3, #1
  73:DSP/Track.cpp ****             ph.pos = 0;
 462              		.loc 1 73 9 view .LVU127
 463 000e 9A42     		cmp	r2, r3
 464 0010 02D9     		bls	.L40
  74:DSP/Track.cpp ****         else
 465              		.loc 1 74 13 is_stmt 1 view .LVU128
  74:DSP/Track.cpp ****         else
 466              		.loc 1 74 20 is_stmt 0 view .LVU129
 467 0012 0023     		movs	r3, #0
 468 0014 4360     		str	r3, [r0, #4]
 469 0016 7047     		bx	lr
 470              	.L40:
 471              		.loc 1 76 13 is_stmt 1 view .LVU130
 472              		.loc 1 76 19 is_stmt 0 view .LVU131
 473 0018 0132     		adds	r2, r2, #1
 474 001a 4260     		str	r2, [r0, #4]
 475              	.LVL26:
 476              	.L38:
ARM GAS  /var/folders/wz/z09yph4n0qj4t7mjxhl6ttn80000gn/T//ccQxc3in.s 			page 12


 477              		.loc 1 76 19 view .LVU132
 478              	.LBE47:
 479              	.LBE46:
  77:DSP/Track.cpp ****     } else if(ph.isPlaying)
  78:DSP/Track.cpp ****     {
  79:DSP/Track.cpp ****         if(ph.pos > (ti.loopLength - 1))
  80:DSP/Track.cpp ****             ph.pos = 0;
  81:DSP/Track.cpp ****         else
  82:DSP/Track.cpp ****             ph.pos++;
  83:DSP/Track.cpp ****     }
  84:DSP/Track.cpp **** }
 480              		.loc 1 84 1 view .LVU133
 481 001c 7047     		bx	lr
 482              		.cfi_endproc
 483              	.LFE1392:
 485 001e 00BF     		.section	.text._ZN5Track12processInputEPKfS1_j,"ax",%progbits
 486              		.align	1
 487              		.p2align 2,,3
 488              		.global	_ZN5Track12processInputEPKfS1_j
 489              		.syntax unified
 490              		.thumb
 491              		.thumb_func
 493              	_ZN5Track12processInputEPKfS1_j:
 494              	.LVL27:
 495              	.LFB1393:
  85:DSP/Track.cpp **** 
  86:DSP/Track.cpp **** void Track::processInput(const float* left, const float* right, size_t size)
  87:DSP/Track.cpp **** {
 496              		.loc 1 87 1 is_stmt 1 view -0
 497              		.cfi_startproc
 498              		@ args = 0, pretend = 0, frame = 0
 499              		@ frame_needed = 0, uses_anonymous_args = 0
  88:DSP/Track.cpp ****     if(!ph.isRecording)
 500              		.loc 1 88 5 view .LVU135
  87:DSP/Track.cpp ****     if(!ph.isRecording)
 501              		.loc 1 87 1 is_stmt 0 view .LVU136
 502 0000 2DE9F043 		push	{r4, r5, r6, r7, r8, r9, lr}
 503              		.cfi_def_cfa_offset 28
 504              		.cfi_offset 4, -28
 505              		.cfi_offset 5, -24
 506              		.cfi_offset 6, -20
 507              		.cfi_offset 7, -16
 508              		.cfi_offset 8, -12
 509              		.cfi_offset 9, -8
 510              		.cfi_offset 14, -4
 511              		.loc 1 88 5 view .LVU137
 512 0004 0478     		ldrb	r4, [r0]	@ zero_extendqisi2
 513 0006 1CB3     		cbz	r4, .L47
 514              	.LVL28:
 515              	.LBB53:
  89:DSP/Track.cpp ****         return;
  90:DSP/Track.cpp **** 
  91:DSP/Track.cpp ****     for(size_t i = 0 ; i < size ; i++)
 516              		.loc 1 91 26 is_stmt 1 view .LVU138
 517 0008 13B3     		cbz	r3, .L47
  92:DSP/Track.cpp ****     {
  93:DSP/Track.cpp ****         buffer[L][ph.pos] = left[i];
ARM GAS  /var/folders/wz/z09yph4n0qj4t7mjxhl6ttn80000gn/T//ccQxc3in.s 			page 13


 518              		.loc 1 93 17 is_stmt 0 view .LVU139
 519 000a 0769     		ldr	r7, [r0, #16]
 520 000c 9146     		mov	r9, r2
 521 000e 01EB8304 		add	r4, r1, r3, lsl #2
  94:DSP/Track.cpp ****         buffer[R][ph.pos] = right[i];
 522              		.loc 1 94 17 view .LVU140
 523 0012 4669     		ldr	r6, [r0, #20]
 524              	.LBB54:
 525              	.LBB55:
  68:DSP/Track.cpp ****         return;
 526              		.loc 1 68 31 view .LVU141
 527 0014 4578     		ldrb	r5, [r0, #1]	@ zero_extendqisi2
 528              	.LVL29:
 529              	.L51:
  68:DSP/Track.cpp ****         return;
 530              		.loc 1 68 31 view .LVU142
 531              	.LBE55:
 532              	.LBE54:
  93:DSP/Track.cpp ****         buffer[R][ph.pos] = right[i];
 533              		.loc 1 93 9 is_stmt 1 discriminator 2 view .LVU143
 534              	.LBB62:
 535              	.LBB60:
 536              	.LBB56:
 537              	.LBI56:
  66:DSP/Track.cpp **** {
 538              		.loc 1 66 6 discriminator 2 view .LVU144
 539              	.LBB57:
  71:DSP/Track.cpp ****     {
 540              		.loc 1 71 5 discriminator 2 view .LVU145
  73:DSP/Track.cpp ****             ph.pos = 0;
 541              		.loc 1 73 9 discriminator 2 view .LVU146
 542              	.LBE57:
 543              	.LBE56:
 544              	.LBE60:
 545              	.LBE62:
  93:DSP/Track.cpp ****         buffer[R][ph.pos] = right[i];
 546              		.loc 1 93 22 is_stmt 0 discriminator 2 view .LVU147
 547 0016 4368     		ldr	r3, [r0, #4]
  93:DSP/Track.cpp ****         buffer[R][ph.pos] = right[i];
 548              		.loc 1 93 35 discriminator 2 view .LVU148
 549 0018 F1EC017A 		vldmia.32	r1!, {s15}
  93:DSP/Track.cpp ****         buffer[R][ph.pos] = right[i];
 550              		.loc 1 93 27 discriminator 2 view .LVU149
 551 001c 07EB830E 		add	lr, r7, r3, lsl #2
 552              		.loc 1 94 27 discriminator 2 view .LVU150
 553 0020 06EB830C 		add	ip, r6, r3, lsl #2
  93:DSP/Track.cpp ****         buffer[R][ph.pos] = right[i];
 554              		.loc 1 93 27 discriminator 2 view .LVU151
 555 0024 CEED007A 		vstr.32	s15, [lr]
 556              		.loc 1 94 9 is_stmt 1 discriminator 2 view .LVU152
 557              		.loc 1 94 36 is_stmt 0 discriminator 2 view .LVU153
 558 0028 59F804EB 		ldr	lr, [r9], #4	@ float
 559              		.loc 1 94 27 discriminator 2 view .LVU154
 560 002c CCF800E0 		str	lr, [ip]	@ float
  95:DSP/Track.cpp **** 
  96:DSP/Track.cpp ****         incrementPlayhead();
 561              		.loc 1 96 9 is_stmt 1 discriminator 2 view .LVU155
ARM GAS  /var/folders/wz/z09yph4n0qj4t7mjxhl6ttn80000gn/T//ccQxc3in.s 			page 14


 562              	.LVL30:
 563              	.LBB63:
 564              	.LBI54:
  66:DSP/Track.cpp **** {
 565              		.loc 1 66 6 discriminator 2 view .LVU156
 566              	.LBB61:
  68:DSP/Track.cpp ****         return;
 567              		.loc 1 68 5 discriminator 2 view .LVU157
  68:DSP/Track.cpp ****         return;
 568              		.loc 1 68 24 is_stmt 0 discriminator 2 view .LVU158
 569 0030 65B1     		cbz	r5, .L49
 570              	.LBB59:
 571              	.LBB58:
  74:DSP/Track.cpp ****         else
 572              		.loc 1 74 13 is_stmt 1 view .LVU159
  76:DSP/Track.cpp ****     } else if(ph.isPlaying)
 573              		.loc 1 76 13 view .LVU160
  73:DSP/Track.cpp ****             ph.pos = 0;
 574              		.loc 1 73 33 is_stmt 0 view .LVU161
 575 0032 8269     		ldr	r2, [r0, #24]
  74:DSP/Track.cpp ****         else
 576              		.loc 1 74 20 view .LVU162
 577 0034 4FF00008 		mov	r8, #0
  76:DSP/Track.cpp ****     } else if(ph.isPlaying)
 578              		.loc 1 76 19 view .LVU163
 579 0038 03F1010E 		add	lr, r3, #1
  73:DSP/Track.cpp ****             ph.pos = 0;
 580              		.loc 1 73 33 view .LVU164
 581 003c 02F1FF3C 		add	ip, r2, #-1
  73:DSP/Track.cpp ****             ph.pos = 0;
 582              		.loc 1 73 9 view .LVU165
 583 0040 6345     		cmp	r3, ip
  74:DSP/Track.cpp ****         else
 584              		.loc 1 74 20 view .LVU166
 585 0042 8CBF     		ite	hi
 586 0044 C0F80480 		strhi	r8, [r0, #4]
  76:DSP/Track.cpp ****     } else if(ph.isPlaying)
 587              		.loc 1 76 19 view .LVU167
 588 0048 C0F804E0 		strls	lr, [r0, #4]
 589              	.L49:
 590              	.LVL31:
  76:DSP/Track.cpp ****     } else if(ph.isPlaying)
 591              		.loc 1 76 19 view .LVU168
 592              	.LBE58:
 593              	.LBE59:
 594              	.LBE61:
 595              	.LBE63:
  91:DSP/Track.cpp ****     {
 596              		.loc 1 91 5 is_stmt 1 view .LVU169
  91:DSP/Track.cpp ****     {
 597              		.loc 1 91 26 view .LVU170
 598 004c A142     		cmp	r1, r4
 599 004e E2D1     		bne	.L51
 600              	.L47:
  91:DSP/Track.cpp ****     {
 601              		.loc 1 91 26 is_stmt 0 view .LVU171
 602              	.LBE53:
ARM GAS  /var/folders/wz/z09yph4n0qj4t7mjxhl6ttn80000gn/T//ccQxc3in.s 			page 15


  97:DSP/Track.cpp ****     }
  98:DSP/Track.cpp **** }
 603              		.loc 1 98 1 view .LVU172
 604 0050 BDE8F083 		pop	{r4, r5, r6, r7, r8, r9, pc}
 605              		.cfi_endproc
 606              	.LFE1393:
 608              		.section	.text._ZN5Track17processOutputLeftEv,"ax",%progbits
 609              		.align	1
 610              		.p2align 2,,3
 611              		.global	_ZN5Track17processOutputLeftEv
 612              		.syntax unified
 613              		.thumb
 614              		.thumb_func
 616              	_ZN5Track17processOutputLeftEv:
 617              	.LVL32:
 618              	.LFB1394:
  99:DSP/Track.cpp **** 
 100:DSP/Track.cpp **** float* Track::processOutputLeft()
 101:DSP/Track.cpp **** {
 619              		.loc 1 101 1 is_stmt 1 view -0
 620              		.cfi_startproc
 621              		@ args = 0, pretend = 0, frame = 0
 622              		@ frame_needed = 0, uses_anonymous_args = 0
 623              		@ link register save eliminated.
 102:DSP/Track.cpp ****     if(!ph.isPlaying)
 624              		.loc 1 102 5 view .LVU174
 625 0000 4378     		ldrb	r3, [r0, #1]	@ zero_extendqisi2
 626 0002 23B1     		cbz	r3, .L65
 103:DSP/Track.cpp ****         return nullptr;;
 627              		.loc 1 103 24 view .LVU175
 104:DSP/Track.cpp ****     
 105:DSP/Track.cpp ****     return &buffer[L][ph.pos];
 628              		.loc 1 105 5 view .LVU176
 629              		.loc 1 105 29 is_stmt 0 view .LVU177
 630 0004 4368     		ldr	r3, [r0, #4]
 631 0006 0069     		ldr	r0, [r0, #16]
 632              	.LVL33:
 633              		.loc 1 105 29 view .LVU178
 634 0008 00EB8300 		add	r0, r0, r3, lsl #2
 635 000c 7047     		bx	lr
 636              	.LVL34:
 637              	.L65:
 103:DSP/Track.cpp ****         return nullptr;;
 638              		.loc 1 103 16 view .LVU179
 639 000e 1846     		mov	r0, r3
 640              	.LVL35:
 106:DSP/Track.cpp **** }
 641              		.loc 1 106 1 view .LVU180
 642 0010 7047     		bx	lr
 643              		.cfi_endproc
 644              	.LFE1394:
 646 0012 00BF     		.section	.text._ZN5Track18processOutputRightEv,"ax",%progbits
 647              		.align	1
 648              		.p2align 2,,3
 649              		.global	_ZN5Track18processOutputRightEv
 650              		.syntax unified
 651              		.thumb
ARM GAS  /var/folders/wz/z09yph4n0qj4t7mjxhl6ttn80000gn/T//ccQxc3in.s 			page 16


 652              		.thumb_func
 654              	_ZN5Track18processOutputRightEv:
 655              	.LVL36:
 656              	.LFB1395:
 107:DSP/Track.cpp **** 
 108:DSP/Track.cpp **** float* Track::processOutputRight()
 109:DSP/Track.cpp **** {
 657              		.loc 1 109 1 is_stmt 1 view -0
 658              		.cfi_startproc
 659              		@ args = 0, pretend = 0, frame = 0
 660              		@ frame_needed = 0, uses_anonymous_args = 0
 661              		@ link register save eliminated.
 110:DSP/Track.cpp ****     if(!ph.isPlaying)
 662              		.loc 1 110 5 view .LVU182
 663 0000 4378     		ldrb	r3, [r0, #1]	@ zero_extendqisi2
 664 0002 23B1     		cbz	r3, .L68
 111:DSP/Track.cpp ****         return nullptr;
 112:DSP/Track.cpp **** 
 113:DSP/Track.cpp ****     return &buffer[R][ph.pos];
 665              		.loc 1 113 5 view .LVU183
 666              		.loc 1 113 29 is_stmt 0 view .LVU184
 667 0004 4368     		ldr	r3, [r0, #4]
 668 0006 4069     		ldr	r0, [r0, #20]
 669              	.LVL37:
 670              		.loc 1 113 29 view .LVU185
 671 0008 00EB8300 		add	r0, r0, r3, lsl #2
 672 000c 7047     		bx	lr
 673              	.LVL38:
 674              	.L68:
 111:DSP/Track.cpp ****         return nullptr;
 675              		.loc 1 111 16 view .LVU186
 676 000e 1846     		mov	r0, r3
 677              	.LVL39:
 114:DSP/Track.cpp **** }...
 678              		.loc 1 114 1 view .LVU187
 679 0010 7047     		bx	lr
 680              		.cfi_endproc
 681              	.LFE1395:
 683 0012 00BF     		.text
 684              	.Letext0:
 685              		.file 3 "/Library/DaisyToolchain/0.2.0/arm/arm-none-eabi/include/c++/10.3.1/cmath"
 686              		.file 4 "/Library/DaisyToolchain/0.2.0/arm/arm-none-eabi/include/c++/10.3.1/bits/std_abs.h"
 687              		.file 5 "/Library/DaisyToolchain/0.2.0/arm/arm-none-eabi/include/c++/10.3.1/type_traits"
 688              		.file 6 "/Library/DaisyToolchain/0.2.0/arm/arm-none-eabi/include/c++/10.3.1/debug/debug.h"
 689              		.file 7 "/Library/DaisyToolchain/0.2.0/arm/arm-none-eabi/include/c++/10.3.1/cstdlib"
 690              		.file 8 "/Library/DaisyToolchain/0.2.0/arm/arm-none-eabi/include/c++/10.3.1/arm-none-eabi/thumb/v7
 691              		.file 9 "/Library/DaisyToolchain/0.2.0/arm/arm-none-eabi/include/c++/10.3.1/bits/algorithmfwd.h"
 692              		.file 10 "/Library/DaisyToolchain/0.2.0/arm/arm-none-eabi/include/c++/10.3.1/bits/stl_pair.h"
 693              		.file 11 "/Library/DaisyToolchain/0.2.0/arm/arm-none-eabi/include/c++/10.3.1/bits/exception_ptr.h"
 694              		.file 12 "/Library/DaisyToolchain/0.2.0/arm/lib/gcc/arm-none-eabi/10.3.1/include/stddef.h"
 695              		.file 13 "/Library/DaisyToolchain/0.2.0/arm/arm-none-eabi/include/c++/10.3.1/bits/predefined_ops.h
 696              		.file 14 "/Library/DaisyToolchain/0.2.0/arm/arm-none-eabi/include/math.h"
 697              		.file 15 "/Library/DaisyToolchain/0.2.0/arm/arm-none-eabi/include/stdlib.h"
 698              		.file 16 "/Library/DaisyToolchain/0.2.0/arm/arm-none-eabi/include/c++/10.3.1/math.h"
 699              		.file 17 "DSP/Track.h"
 700              		.file 18 "<built-in>"
ARM GAS  /var/folders/wz/z09yph4n0qj4t7mjxhl6ttn80000gn/T//ccQxc3in.s 			page 17


DEFINED SYMBOLS
                            *ABS*:0000000000000000 Track.cpp
/var/folders/wz/z09yph4n0qj4t7mjxhl6ttn80000gn/T//ccQxc3in.s:19     .text._ZN5Track4initEPPfj:0000000000000000 $t
/var/folders/wz/z09yph4n0qj4t7mjxhl6ttn80000gn/T//ccQxc3in.s:26     .text._ZN5Track4initEPPfj:0000000000000000 _ZN5Track4initEPPfj
/var/folders/wz/z09yph4n0qj4t7mjxhl6ttn80000gn/T//ccQxc3in.s:174    .text._ZN5Track7prepareEv:0000000000000000 $t
/var/folders/wz/z09yph4n0qj4t7mjxhl6ttn80000gn/T//ccQxc3in.s:181    .text._ZN5Track7prepareEv:0000000000000000 _ZN5Track7prepareEv
/var/folders/wz/z09yph4n0qj4t7mjxhl6ttn80000gn/T//ccQxc3in.s:195    .text._ZN5Track12processBlockEj:0000000000000000 $t
/var/folders/wz/z09yph4n0qj4t7mjxhl6ttn80000gn/T//ccQxc3in.s:202    .text._ZN5Track12processBlockEj:0000000000000000 _ZN5Track12processBlockEj
/var/folders/wz/z09yph4n0qj4t7mjxhl6ttn80000gn/T//ccQxc3in.s:304    .text._ZN5Track4tickEv:0000000000000000 $t
/var/folders/wz/z09yph4n0qj4t7mjxhl6ttn80000gn/T//ccQxc3in.s:311    .text._ZN5Track4tickEv:0000000000000000 _ZN5Track4tickEv
/var/folders/wz/z09yph4n0qj4t7mjxhl6ttn80000gn/T//ccQxc3in.s:326    .text._ZN5Track14setIsRecordingEv:0000000000000000 $t
/var/folders/wz/z09yph4n0qj4t7mjxhl6ttn80000gn/T//ccQxc3in.s:333    .text._ZN5Track14setIsRecordingEv:0000000000000000 _ZN5Track14setIsRecordingEv
/var/folders/wz/z09yph4n0qj4t7mjxhl6ttn80000gn/T//ccQxc3in.s:378    .text._ZN5Track12setIsPlayingEv:0000000000000000 $t
/var/folders/wz/z09yph4n0qj4t7mjxhl6ttn80000gn/T//ccQxc3in.s:385    .text._ZN5Track12setIsPlayingEv:0000000000000000 _ZN5Track12setIsPlayingEv
/var/folders/wz/z09yph4n0qj4t7mjxhl6ttn80000gn/T//ccQxc3in.s:428    .text._ZN5Track17incrementPlayheadEv:0000000000000000 $t
/var/folders/wz/z09yph4n0qj4t7mjxhl6ttn80000gn/T//ccQxc3in.s:435    .text._ZN5Track17incrementPlayheadEv:0000000000000000 _ZN5Track17incrementPlayheadEv
/var/folders/wz/z09yph4n0qj4t7mjxhl6ttn80000gn/T//ccQxc3in.s:486    .text._ZN5Track12processInputEPKfS1_j:0000000000000000 $t
/var/folders/wz/z09yph4n0qj4t7mjxhl6ttn80000gn/T//ccQxc3in.s:493    .text._ZN5Track12processInputEPKfS1_j:0000000000000000 _ZN5Track12processInputEPKfS1_j
/var/folders/wz/z09yph4n0qj4t7mjxhl6ttn80000gn/T//ccQxc3in.s:609    .text._ZN5Track17processOutputLeftEv:0000000000000000 $t
/var/folders/wz/z09yph4n0qj4t7mjxhl6ttn80000gn/T//ccQxc3in.s:616    .text._ZN5Track17processOutputLeftEv:0000000000000000 _ZN5Track17processOutputLeftEv
/var/folders/wz/z09yph4n0qj4t7mjxhl6ttn80000gn/T//ccQxc3in.s:647    .text._ZN5Track18processOutputRightEv:0000000000000000 $t
/var/folders/wz/z09yph4n0qj4t7mjxhl6ttn80000gn/T//ccQxc3in.s:654    .text._ZN5Track18processOutputRightEv:0000000000000000 _ZN5Track18processOutputRightEv

UNDEFINED SYMBOLS
memset
