ARM GAS  /var/folders/wz/z09yph4n0qj4t7mjxhl6ttn80000gn/T//cco13aXs.s 			page 1


   1              		.cpu cortex-m7
   2              		.arch armv7e-m
   3              		.fpu fpv5-d16
   4              		.eabi_attribute 28, 1
   5              		.eabi_attribute 20, 1
   6              		.eabi_attribute 21, 1
   7              		.eabi_attribute 23, 3
   8              		.eabi_attribute 24, 1
   9              		.eabi_attribute 25, 1
  10              		.eabi_attribute 26, 1
  11              		.eabi_attribute 30, 2
  12              		.eabi_attribute 34, 1
  13              		.eabi_attribute 18, 4
  14              		.file	"Track.cpp"
  15              		.text
  16              	.Ltext0:
  17              		.cfi_sections	.debug_frame
  18              		.section	.text._ZN7daisysp9DelayLineIfLj240000EED2Ev,"axG",%progbits,_ZN7daisysp9DelayLineIfLj2400
  19              		.align	1
  20              		.p2align 2,,3
  21              		.weak	_ZN7daisysp9DelayLineIfLj240000EED2Ev
  22              		.syntax unified
  23              		.thumb
  24              		.thumb_func
  26              	_ZN7daisysp9DelayLineIfLj240000EED2Ev:
  27              	.LVL0:
  28              	.LFB5730:
  29              		.file 1 "../../../DaisySP//Source/Utility/delayline.h"
   1:../../../DaisySP//Source/Utility/delayline.h **** #pragma once
   2:../../../DaisySP//Source/Utility/delayline.h **** #ifndef DSY_DELAY_H
   3:../../../DaisySP//Source/Utility/delayline.h **** #define DSY_DELAY_H
   4:../../../DaisySP//Source/Utility/delayline.h **** #include <stdlib.h>
   5:../../../DaisySP//Source/Utility/delayline.h **** #include <stdint.h>
   6:../../../DaisySP//Source/Utility/delayline.h **** namespace daisysp
   7:../../../DaisySP//Source/Utility/delayline.h **** {
   8:../../../DaisySP//Source/Utility/delayline.h **** /** Simple Delay line.
   9:../../../DaisySP//Source/Utility/delayline.h **** November 2019
  10:../../../DaisySP//Source/Utility/delayline.h **** 
  11:../../../DaisySP//Source/Utility/delayline.h **** Converted to Template December 2019
  12:../../../DaisySP//Source/Utility/delayline.h **** 
  13:../../../DaisySP//Source/Utility/delayline.h **** declaration example: (1 second of floats)
  14:../../../DaisySP//Source/Utility/delayline.h **** 
  15:../../../DaisySP//Source/Utility/delayline.h **** DelayLine<float, SAMPLE_RATE> del;
  16:../../../DaisySP//Source/Utility/delayline.h **** 
  17:../../../DaisySP//Source/Utility/delayline.h **** By: shensley
  18:../../../DaisySP//Source/Utility/delayline.h **** */
  19:../../../DaisySP//Source/Utility/delayline.h **** template <typename T, size_t max_size>
  20:../../../DaisySP//Source/Utility/delayline.h **** class DelayLine
  21:../../../DaisySP//Source/Utility/delayline.h **** {
  22:../../../DaisySP//Source/Utility/delayline.h ****   public:
  23:../../../DaisySP//Source/Utility/delayline.h ****     DelayLine() {}
  24:../../../DaisySP//Source/Utility/delayline.h ****     ~DelayLine() {}
  30              		.loc 1 24 5 view -0
  31              		.cfi_startproc
  32              		@ args = 0, pretend = 0, frame = 0
  33              		@ frame_needed = 0, uses_anonymous_args = 0
  34              		@ link register save eliminated.
ARM GAS  /var/folders/wz/z09yph4n0qj4t7mjxhl6ttn80000gn/T//cco13aXs.s 			page 2


  35              		.loc 1 24 19 is_stmt 0 view .LVU1
  36 0000 7047     		bx	lr
  37              		.cfi_endproc
  38              	.LFE5730:
  40              		.weak	_ZN7daisysp9DelayLineIfLj240000EED1Ev
  41              		.thumb_set _ZN7daisysp9DelayLineIfLj240000EED1Ev,_ZN7daisysp9DelayLineIfLj240000EED2Ev
  42 0002 00BF     		.section	.text._ZN5Track4initEPPf,"ax",%progbits
  43              		.align	1
  44              		.p2align 2,,3
  45              		.global	_ZN5Track4initEPPf
  46              		.syntax unified
  47              		.thumb
  48              		.thumb_func
  50              	_ZN5Track4initEPPf:
  51              	.LVL1:
  52              	.LFB5123:
  53              		.file 2 "DSP/Track.cpp"
   1:DSP/Track.cpp **** #include "Track.h"
   2:DSP/Track.cpp **** 
   3:DSP/Track.cpp **** void Track::init(float* mem[2])
   4:DSP/Track.cpp **** {
  54              		.loc 2 4 1 is_stmt 1 view -0
  55              		.cfi_startproc
  56              		@ args = 0, pretend = 0, frame = 0
  57              		@ frame_needed = 0, uses_anonymous_args = 0
   5:DSP/Track.cpp ****     bufferSize = SAMPLERATE * DURATION;
  58              		.loc 2 5 5 view .LVU3
   4:DSP/Track.cpp ****     bufferSize = SAMPLERATE * DURATION;
  59              		.loc 2 4 1 is_stmt 0 view .LVU4
  60 0000 38B5     		push	{r3, r4, r5, lr}
  61              		.cfi_def_cfa_offset 16
  62              		.cfi_offset 3, -16
  63              		.cfi_offset 4, -12
  64              		.cfi_offset 5, -8
  65              		.cfi_offset 14, -4
  66 0002 154A     		ldr	r2, .L9
   4:DSP/Track.cpp ****     bufferSize = SAMPLERATE * DURATION;
  67              		.loc 2 4 1 view .LVU5
  68 0004 0546     		mov	r5, r0
  69              		.loc 2 5 16 view .LVU6
  70 0006 154C     		ldr	r4, .L9+4
  71              	.LBB42:
   6:DSP/Track.cpp ****     for(int i = 0 ; i < 2 ; i++)
   7:DSP/Track.cpp ****         buffer[i] = mem[i];
  72              		.loc 2 7 26 view .LVU7
  73 0008 0868     		ldr	r0, [r1]
  74              	.LVL2:
  75              		.loc 2 7 26 view .LVU8
  76              	.LBE42:
   5:DSP/Track.cpp ****     for(int i = 0 ; i < 2 ; i++)
  77              		.loc 2 5 16 view .LVU9
  78 000a 6C66     		str	r4, [r5, #100]
   6:DSP/Track.cpp ****     for(int i = 0 ; i < 2 ; i++)
  79              		.loc 2 6 5 is_stmt 1 view .LVU10
  80              	.LVL3:
  81              	.LBB43:
   6:DSP/Track.cpp ****     for(int i = 0 ; i < 2 ; i++)
ARM GAS  /var/folders/wz/z09yph4n0qj4t7mjxhl6ttn80000gn/T//cco13aXs.s 			page 3


  82              		.loc 2 6 23 view .LVU11
  83              		.loc 2 7 9 view .LVU12
  84 000c 0244     		add	r2, r2, r0
  85              		.loc 2 7 19 is_stmt 0 view .LVU13
  86 000e E865     		str	r0, [r5, #92]
   6:DSP/Track.cpp ****     for(int i = 0 ; i < 2 ; i++)
  87              		.loc 2 6 5 is_stmt 1 view .LVU14
  88              	.LVL4:
   6:DSP/Track.cpp ****     for(int i = 0 ; i < 2 ; i++)
  89              		.loc 2 6 23 view .LVU15
  90              		.loc 2 7 9 view .LVU16
  91              		.loc 2 7 26 is_stmt 0 view .LVU17
  92 0010 4C68     		ldr	r4, [r1, #4]
  93 0012 1349     		ldr	r1, .L9+8
  94              	.LVL5:
  95              		.loc 2 7 26 view .LVU18
  96 0014 121B     		subs	r2, r2, r4
  97              		.loc 2 7 19 view .LVU19
  98 0016 2C66     		str	r4, [r5, #96]
   6:DSP/Track.cpp ****     for(int i = 0 ; i < 2 ; i++)
  99              		.loc 2 6 5 is_stmt 1 view .LVU20
 100              	.LVL6:
   6:DSP/Track.cpp ****     for(int i = 0 ; i < 2 ; i++)
 101              		.loc 2 6 23 view .LVU21
   6:DSP/Track.cpp ****     for(int i = 0 ; i < 2 ; i++)
 102              		.loc 2 6 23 is_stmt 0 view .LVU22
 103              	.LBE43:
 104              	.LBB44:
   8:DSP/Track.cpp **** 
   9:DSP/Track.cpp ****     for(size_t i = 0 ; i < bufferSize ; i++)
 105              		.loc 2 9 26 is_stmt 1 view .LVU23
 106 0018 8A42     		cmp	r2, r1
 107 001a 10D9     		bls	.L4
  10:DSP/Track.cpp ****     {
  11:DSP/Track.cpp ****         buffer[L][i] = 0.0f;
 108              		.loc 2 11 22 is_stmt 0 view .LVU24
 109 001c 114A     		ldr	r2, .L9+12
 110 001e 0021     		movs	r1, #0
 111 0020 FFF7FEFF 		bl	memset
 112              	.LVL7:
  12:DSP/Track.cpp ****         buffer[R][i] = 0.0f;
 113              		.loc 2 12 22 view .LVU25
 114 0024 0F4A     		ldr	r2, .L9+12
 115 0026 0021     		movs	r1, #0
 116 0028 2046     		mov	r0, r4
 117 002a FFF7FEFF 		bl	memset
 118              	.LVL8:
 119              	.L5:
 120              		.loc 2 12 22 view .LVU26
 121              	.LBE44:
  13:DSP/Track.cpp ****     }
  14:DSP/Track.cpp **** 
  15:DSP/Track.cpp ****     ph.isRecording = false;
 122              		.loc 2 15 5 is_stmt 1 view .LVU27
  16:DSP/Track.cpp ****     ph.isPlaying = false;
 123              		.loc 2 16 5 view .LVU28
  15:DSP/Track.cpp ****     ph.isPlaying = false;
ARM GAS  /var/folders/wz/z09yph4n0qj4t7mjxhl6ttn80000gn/T//cco13aXs.s 			page 4


 124              		.loc 2 15 20 is_stmt 0 view .LVU29
 125 002e 0023     		movs	r3, #0
  17:DSP/Track.cpp ****     ph.reset();
  18:DSP/Track.cpp **** 
  19:DSP/Track.cpp ****     ti.isEmpty = true;
 126              		.loc 2 19 16 view .LVU30
 127 0030 0122     		movs	r2, #1
  15:DSP/Track.cpp ****     ph.isPlaying = false;
 128              		.loc 2 15 20 view .LVU31
 129 0032 2B80     		strh	r3, [r5]	@ movhi
  17:DSP/Track.cpp ****     ph.reset();
 130              		.loc 2 17 5 is_stmt 1 view .LVU32
 131              	.LVL9:
 132              	.LBB45:
 133              	.LBI45:
 134              		.file 3 "DSP/FX/../../Parameters/../Utils/Helpers.h"
   1:DSP/FX/../../Parameters/../Utils/Helpers.h **** #include "stddef.h"
   2:DSP/FX/../../Parameters/../Utils/Helpers.h **** #include <algorithm>
   3:DSP/FX/../../Parameters/../Utils/Helpers.h **** 
   4:DSP/FX/../../Parameters/../Utils/Helpers.h **** // playhead
   5:DSP/FX/../../Parameters/../Utils/Helpers.h **** struct Playhead
   6:DSP/FX/../../Parameters/../Utils/Helpers.h **** {
   7:DSP/FX/../../Parameters/../Utils/Helpers.h ****     bool isRecording;
   8:DSP/FX/../../Parameters/../Utils/Helpers.h ****     bool isPlaying;
   9:DSP/FX/../../Parameters/../Utils/Helpers.h ****     size_t writePos;
  10:DSP/FX/../../Parameters/../Utils/Helpers.h ****     size_t readPos;
  11:DSP/FX/../../Parameters/../Utils/Helpers.h **** 
  12:DSP/FX/../../Parameters/../Utils/Helpers.h ****     void reset() 
 135              		.loc 3 12 10 view .LVU33
 136              	.LBB46:
  13:DSP/FX/../../Parameters/../Utils/Helpers.h ****     { 
  14:DSP/FX/../../Parameters/../Utils/Helpers.h ****         writePos = 0;
 137              		.loc 3 14 9 view .LVU34
 138              	.LBE46:
 139              	.LBE45:
 140              		.loc 2 19 16 is_stmt 0 view .LVU35
 141 0034 2A73     		strb	r2, [r5, #12]
  20:DSP/Track.cpp ****     ti.loopLength = 0;
 142              		.loc 2 20 19 view .LVU36
 143 0036 2B61     		str	r3, [r5, #16]
 144              	.LBB48:
 145              	.LBB47:
  15:DSP/FX/../../Parameters/../Utils/Helpers.h ****         readPos = 0; 
 146              		.loc 3 15 17 view .LVU37
 147 0038 C5E90133 		strd	r3, r3, [r5, #4]
 148              	.LVL10:
 149              		.loc 3 15 17 view .LVU38
 150              	.LBE47:
 151              	.LBE48:
  19:DSP/Track.cpp ****     ti.loopLength = 0;
 152              		.loc 2 19 5 is_stmt 1 view .LVU39
 153              		.loc 2 20 5 view .LVU40
  21:DSP/Track.cpp **** }
 154              		.loc 2 21 1 is_stmt 0 view .LVU41
 155 003c 38BD     		pop	{r3, r4, r5, pc}
 156              	.LVL11:
 157              	.L4:
ARM GAS  /var/folders/wz/z09yph4n0qj4t7mjxhl6ttn80000gn/T//cco13aXs.s 			page 5


 158              		.loc 2 21 1 view .LVU42
 159 003e 0346     		mov	r3, r0
 160 0040 0848     		ldr	r0, .L9+12
 161 0042 2146     		mov	r1, r4
 162 0044 1844     		add	r0, r0, r3
 163              	.LVL12:
 164              	.L6:
 165              	.LBB49:
  11:DSP/Track.cpp ****         buffer[R][i] = 0.0f;
 166              		.loc 2 11 9 is_stmt 1 view .LVU43
  11:DSP/Track.cpp ****         buffer[R][i] = 0.0f;
 167              		.loc 2 11 22 is_stmt 0 view .LVU44
 168 0046 0022     		movs	r2, #0
 169 0048 43F8042B 		str	r2, [r3], #4	@ float
  12:DSP/Track.cpp ****     }
 170              		.loc 2 12 9 is_stmt 1 view .LVU45
   9:DSP/Track.cpp ****     {
 171              		.loc 2 9 26 is_stmt 0 view .LVU46
 172 004c 9842     		cmp	r0, r3
  12:DSP/Track.cpp ****     }
 173              		.loc 2 12 22 view .LVU47
 174 004e 41F8042B 		str	r2, [r1], #4	@ float
   9:DSP/Track.cpp ****     {
 175              		.loc 2 9 5 is_stmt 1 view .LVU48
   9:DSP/Track.cpp ****     {
 176              		.loc 2 9 26 view .LVU49
 177 0052 F8D1     		bne	.L6
 178 0054 EBE7     		b	.L5
 179              	.L10:
 180 0056 00BF     		.align	2
 181              	.L9:
 182 0058 FF4B1D00 		.word	1919999
 183 005c 00530700 		.word	480000
 184 0060 FE973A00 		.word	3839998
 185 0064 004C1D00 		.word	1920000
 186              	.LBE49:
 187              		.cfi_endproc
 188              	.LFE5123:
 190              		.section	.text._ZN5Track4tickEv,"ax",%progbits
 191              		.align	1
 192              		.p2align 2,,3
 193              		.global	_ZN5Track4tickEv
 194              		.syntax unified
 195              		.thumb
 196              		.thumb_func
 198              	_ZN5Track4tickEv:
 199              	.LVL13:
 200              	.LFB5124:
  22:DSP/Track.cpp **** 
  23:DSP/Track.cpp **** void Track::tick()
  24:DSP/Track.cpp **** {
 201              		.loc 2 24 1 view -0
 202              		.cfi_startproc
 203              		@ args = 0, pretend = 0, frame = 0
 204              		@ frame_needed = 0, uses_anonymous_args = 0
 205              		@ link register save eliminated.
  25:DSP/Track.cpp ****     
ARM GAS  /var/folders/wz/z09yph4n0qj4t7mjxhl6ttn80000gn/T//cco13aXs.s 			page 6


  26:DSP/Track.cpp **** }
 206              		.loc 2 26 1 is_stmt 0 view .LVU51
 207 0000 7047     		bx	lr
 208              		.cfi_endproc
 209              	.LFE5124:
 211 0002 00BF     		.section	.text._ZN5Track14setIsRecordingEv,"ax",%progbits
 212              		.align	1
 213              		.p2align 2,,3
 214              		.global	_ZN5Track14setIsRecordingEv
 215              		.syntax unified
 216              		.thumb
 217              		.thumb_func
 219              	_ZN5Track14setIsRecordingEv:
 220              	.LVL14:
 221              	.LFB5125:
  27:DSP/Track.cpp **** 
  28:DSP/Track.cpp **** void Track::setIsRecording()
  29:DSP/Track.cpp **** {
 222              		.loc 2 29 1 is_stmt 1 view -0
 223              		.cfi_startproc
 224              		@ args = 0, pretend = 0, frame = 0
 225              		@ frame_needed = 0, uses_anonymous_args = 0
 226              		@ link register save eliminated.
  30:DSP/Track.cpp ****     ph.isRecording = !ph.isRecording;
 227              		.loc 2 30 5 view .LVU53
 228              		.loc 2 30 22 is_stmt 0 view .LVU54
 229 0000 0378     		ldrb	r3, [r0]	@ zero_extendqisi2
 230 0002 83F00103 		eor	r3, r3, #1
 231              		.loc 2 30 20 view .LVU55
 232 0006 0370     		strb	r3, [r0]
  31:DSP/Track.cpp **** 
  32:DSP/Track.cpp ****     if(!ph.isRecording)
 233              		.loc 2 32 5 is_stmt 1 view .LVU56
 234 0008 13B9     		cbnz	r3, .L13
  33:DSP/Track.cpp ****     {
  34:DSP/Track.cpp ****         ti.isEmpty = false;
 235              		.loc 2 34 9 view .LVU57
  35:DSP/Track.cpp ****         ti.loopLength = ph.writePos;
 236              		.loc 2 35 23 is_stmt 0 view .LVU58
 237 000a 4268     		ldr	r2, [r0, #4]
  34:DSP/Track.cpp ****         ti.loopLength = ph.writePos;
 238              		.loc 2 34 20 view .LVU59
 239 000c 0373     		strb	r3, [r0, #12]
 240              		.loc 2 35 9 is_stmt 1 view .LVU60
 241              		.loc 2 35 23 is_stmt 0 view .LVU61
 242 000e 0261     		str	r2, [r0, #16]
 243              	.L13:
  36:DSP/Track.cpp ****     }
  37:DSP/Track.cpp **** 
  38:DSP/Track.cpp ****     ph.reset();
 244              		.loc 2 38 5 is_stmt 1 view .LVU62
 245              	.LVL15:
 246              	.LBB50:
 247              	.LBI50:
  12:DSP/FX/../../Parameters/../Utils/Helpers.h ****     { 
 248              		.loc 3 12 10 view .LVU63
 249              	.LBB51:
ARM GAS  /var/folders/wz/z09yph4n0qj4t7mjxhl6ttn80000gn/T//cco13aXs.s 			page 7


  14:DSP/FX/../../Parameters/../Utils/Helpers.h ****         readPos = 0; 
 250              		.loc 3 14 9 view .LVU64
  14:DSP/FX/../../Parameters/../Utils/Helpers.h ****         readPos = 0; 
 251              		.loc 3 14 18 is_stmt 0 view .LVU65
 252 0010 0023     		movs	r3, #0
 253              		.loc 3 15 17 view .LVU66
 254 0012 C0E90133 		strd	r3, r3, [r0, #4]
 255              	.LVL16:
 256              		.loc 3 15 17 view .LVU67
 257              	.LBE51:
 258              	.LBE50:
  39:DSP/Track.cpp **** }
 259              		.loc 2 39 1 view .LVU68
 260 0016 7047     		bx	lr
 261              		.cfi_endproc
 262              	.LFE5125:
 264              		.section	.text._ZN5Track12setIsPlayingEv,"ax",%progbits
 265              		.align	1
 266              		.p2align 2,,3
 267              		.global	_ZN5Track12setIsPlayingEv
 268              		.syntax unified
 269              		.thumb
 270              		.thumb_func
 272              	_ZN5Track12setIsPlayingEv:
 273              	.LVL17:
 274              	.LFB5126:
  40:DSP/Track.cpp **** 
  41:DSP/Track.cpp **** void Track::setIsPlaying()
  42:DSP/Track.cpp **** {
 275              		.loc 2 42 1 is_stmt 1 view -0
 276              		.cfi_startproc
 277              		@ args = 0, pretend = 0, frame = 0
 278              		@ frame_needed = 0, uses_anonymous_args = 0
 279              		@ link register save eliminated.
  43:DSP/Track.cpp ****     ph.isPlaying = !ph.isPlaying;
 280              		.loc 2 43 5 view .LVU70
 281              		.loc 2 43 20 is_stmt 0 view .LVU71
 282 0000 4378     		ldrb	r3, [r0, #1]	@ zero_extendqisi2
 283              	.LBB52:
 284              	.LBB53:
  14:DSP/FX/../../Parameters/../Utils/Helpers.h ****         readPos = 0; 
 285              		.loc 3 14 18 view .LVU72
 286 0002 0022     		movs	r2, #0
 287              	.LBE53:
 288              	.LBE52:
 289              		.loc 2 43 20 view .LVU73
 290 0004 83F00103 		eor	r3, r3, #1
 291              	.LBB56:
 292              	.LBB54:
 293              		.loc 3 15 17 view .LVU74
 294 0008 C0E90122 		strd	r2, r2, [r0, #4]
 295              	.LBE54:
 296              	.LBE56:
 297              		.loc 2 43 18 view .LVU75
 298 000c 4370     		strb	r3, [r0, #1]
  44:DSP/Track.cpp ****     ph.reset();
 299              		.loc 2 44 5 is_stmt 1 view .LVU76
ARM GAS  /var/folders/wz/z09yph4n0qj4t7mjxhl6ttn80000gn/T//cco13aXs.s 			page 8


 300              	.LVL18:
 301              	.LBB57:
 302              	.LBI52:
  12:DSP/FX/../../Parameters/../Utils/Helpers.h ****     { 
 303              		.loc 3 12 10 view .LVU77
 304              	.LBB55:
  14:DSP/FX/../../Parameters/../Utils/Helpers.h ****         readPos = 0; 
 305              		.loc 3 14 9 view .LVU78
 306              		.loc 3 15 9 view .LVU79
 307              		.loc 3 15 9 is_stmt 0 view .LVU80
 308              	.LBE55:
 309              	.LBE57:
  45:DSP/Track.cpp **** }
 310              		.loc 2 45 1 view .LVU81
 311 000e 7047     		bx	lr
 312              		.cfi_endproc
 313              	.LFE5126:
 315              		.section	.text._ZN5Track17incrementWritePosEv,"ax",%progbits
 316              		.align	1
 317              		.p2align 2,,3
 318              		.global	_ZN5Track17incrementWritePosEv
 319              		.syntax unified
 320              		.thumb
 321              		.thumb_func
 323              	_ZN5Track17incrementWritePosEv:
 324              	.LVL19:
 325              	.LFB5127:
  46:DSP/Track.cpp **** 
  47:DSP/Track.cpp **** void Track::incrementWritePos()
  48:DSP/Track.cpp **** {
 326              		.loc 2 48 1 is_stmt 1 view -0
 327              		.cfi_startproc
 328              		@ args = 0, pretend = 0, frame = 0
 329              		@ frame_needed = 0, uses_anonymous_args = 0
 330              		@ link register save eliminated.
  49:DSP/Track.cpp ****     if(ph.writePos >= (bufferSize - 1))
 331              		.loc 2 49 5 view .LVU83
 332              		.loc 2 49 35 is_stmt 0 view .LVU84
 333 0000 426E     		ldr	r2, [r0, #100]
 334              		.loc 2 49 11 view .LVU85
 335 0002 4368     		ldr	r3, [r0, #4]
 336              		.loc 2 49 35 view .LVU86
 337 0004 013A     		subs	r2, r2, #1
 338              		.loc 2 49 5 view .LVU87
 339 0006 9342     		cmp	r3, r2
  50:DSP/Track.cpp ****         ph.writePos = 0;
  51:DSP/Track.cpp ****     else
  52:DSP/Track.cpp ****         ph.writePos++;
 340              		.loc 2 52 9 is_stmt 1 view .LVU88
 341              		.loc 2 52 20 is_stmt 0 view .LVU89
 342 0008 34BF     		ite	cc
 343 000a 0133     		addcc	r3, r3, #1
  50:DSP/Track.cpp ****         ph.writePos = 0;
 344              		.loc 2 50 21 view .LVU90
 345 000c 0023     		movcs	r3, #0
 346 000e 4360     		str	r3, [r0, #4]
  53:DSP/Track.cpp **** }
ARM GAS  /var/folders/wz/z09yph4n0qj4t7mjxhl6ttn80000gn/T//cco13aXs.s 			page 9


 347              		.loc 2 53 1 view .LVU91
 348 0010 7047     		bx	lr
 349              		.cfi_endproc
 350              	.LFE5127:
 352 0012 00BF     		.section	.text._ZN5Track16incrementReadPosEv,"ax",%progbits
 353              		.align	1
 354              		.p2align 2,,3
 355              		.global	_ZN5Track16incrementReadPosEv
 356              		.syntax unified
 357              		.thumb
 358              		.thumb_func
 360              	_ZN5Track16incrementReadPosEv:
 361              	.LVL20:
 362              	.LFB5128:
  54:DSP/Track.cpp **** 
  55:DSP/Track.cpp **** void Track::incrementReadPos()
  56:DSP/Track.cpp **** {
 363              		.loc 2 56 1 is_stmt 1 view -0
 364              		.cfi_startproc
 365              		@ args = 0, pretend = 0, frame = 0
 366              		@ frame_needed = 0, uses_anonymous_args = 0
 367              		@ link register save eliminated.
  57:DSP/Track.cpp ****     if(ph.readPos >= (ti.loopLength - 1))
 368              		.loc 2 57 5 view .LVU93
 369              		.loc 2 57 37 is_stmt 0 view .LVU94
 370 0000 0269     		ldr	r2, [r0, #16]
 371              		.loc 2 57 11 view .LVU95
 372 0002 8368     		ldr	r3, [r0, #8]
 373              		.loc 2 57 37 view .LVU96
 374 0004 013A     		subs	r2, r2, #1
 375              		.loc 2 57 5 view .LVU97
 376 0006 9342     		cmp	r3, r2
  58:DSP/Track.cpp ****         ph.readPos = 0;
  59:DSP/Track.cpp ****     else
  60:DSP/Track.cpp ****         ph.readPos++;
 377              		.loc 2 60 9 is_stmt 1 view .LVU98
 378              		.loc 2 60 19 is_stmt 0 view .LVU99
 379 0008 34BF     		ite	cc
 380 000a 0133     		addcc	r3, r3, #1
  58:DSP/Track.cpp ****         ph.readPos = 0;
 381              		.loc 2 58 20 view .LVU100
 382 000c 0023     		movcs	r3, #0
 383 000e 8360     		str	r3, [r0, #8]
  61:DSP/Track.cpp **** }
 384              		.loc 2 61 1 view .LVU101
 385 0010 7047     		bx	lr
 386              		.cfi_endproc
 387              	.LFE5128:
 389 0012 00BF     		.section	.text._ZN5Track7prepareEv,"ax",%progbits
 390              		.align	1
 391              		.p2align 2,,3
 392              		.global	_ZN5Track7prepareEv
 393              		.syntax unified
 394              		.thumb
 395              		.thumb_func
 397              	_ZN5Track7prepareEv:
 398              	.LFB5734:
ARM GAS  /var/folders/wz/z09yph4n0qj4t7mjxhl6ttn80000gn/T//cco13aXs.s 			page 10


 399              		.cfi_startproc
 400              		@ args = 0, pretend = 0, frame = 0
 401              		@ frame_needed = 0, uses_anonymous_args = 0
 402              		@ link register save eliminated.
 403 0000 7047     		bx	lr
 404              		.cfi_endproc
 405              	.LFE5734:
 407 0002 00BF     		.section	.text._ZN5Track17processInputBlockEPKfS1_j,"ax",%progbits
 408              		.align	1
 409              		.p2align 2,,3
 410              		.global	_ZN5Track17processInputBlockEPKfS1_j
 411              		.syntax unified
 412              		.thumb
 413              		.thumb_func
 415              	_ZN5Track17processInputBlockEPKfS1_j:
 416              	.LVL21:
 417              	.LFB5130:
  62:DSP/Track.cpp **** 
  63:DSP/Track.cpp **** void Track::prepare()
  64:DSP/Track.cpp **** {
  65:DSP/Track.cpp **** 
  66:DSP/Track.cpp **** }
  67:DSP/Track.cpp **** 
  68:DSP/Track.cpp **** void Track::processInputBlock(const float* left, const float* right, size_t size)
  69:DSP/Track.cpp **** {
 418              		.loc 2 69 1 is_stmt 1 view -0
 419              		.cfi_startproc
 420              		@ args = 0, pretend = 0, frame = 0
 421              		@ frame_needed = 0, uses_anonymous_args = 0
  70:DSP/Track.cpp ****     if(!ph.isRecording)
 422              		.loc 2 70 5 view .LVU103
  69:DSP/Track.cpp ****     if(!ph.isRecording)
 423              		.loc 2 69 1 is_stmt 0 view .LVU104
 424 0000 F0B5     		push	{r4, r5, r6, r7, lr}
 425              		.cfi_def_cfa_offset 20
 426              		.cfi_offset 4, -20
 427              		.cfi_offset 5, -16
 428              		.cfi_offset 6, -12
 429              		.cfi_offset 7, -8
 430              		.cfi_offset 14, -4
 431              		.loc 2 70 5 view .LVU105
 432 0002 0478     		ldrb	r4, [r0]	@ zero_extendqisi2
 433 0004 DCB1     		cbz	r4, .L22
 434              	.LVL22:
 435              	.LBB58:
  71:DSP/Track.cpp ****         return;
  72:DSP/Track.cpp **** 
  73:DSP/Track.cpp ****     for(size_t i = 0 ; i < size ; i++)
 436              		.loc 2 73 26 is_stmt 1 view .LVU106
 437 0006 D3B1     		cbz	r3, .L22
 438              	.LBB59:
 439              	.LBB60:
  49:DSP/Track.cpp ****         ph.writePos = 0;
 440              		.loc 2 49 35 is_stmt 0 view .LVU107
 441 0008 456E     		ldr	r5, [r0, #100]
 442 000a 01EB8304 		add	r4, r1, r3, lsl #2
 443              	.LBE60:
ARM GAS  /var/folders/wz/z09yph4n0qj4t7mjxhl6ttn80000gn/T//cco13aXs.s 			page 11


 444              	.LBE59:
  74:DSP/Track.cpp ****     {
  75:DSP/Track.cpp ****         buffer[L][ph.writePos] = left[i];
 445              		.loc 2 75 17 view .LVU108
 446 000e C66D     		ldr	r6, [r0, #92]
 447              	.LBB67:
 448              	.LBB61:
  49:DSP/Track.cpp ****         ph.writePos = 0;
 449              		.loc 2 49 35 view .LVU109
 450 0010 013D     		subs	r5, r5, #1
 451 0012 4368     		ldr	r3, [r0, #4]
 452              	.LVL23:
  49:DSP/Track.cpp ****         ph.writePos = 0;
 453              		.loc 2 49 35 view .LVU110
 454              	.LBE61:
 455              	.LBE67:
  76:DSP/Track.cpp ****         buffer[R][ph.writePos] = right[i];
 456              		.loc 2 76 17 view .LVU111
 457 0014 076E     		ldr	r7, [r0, #96]
 458              	.LVL24:
 459              	.L25:
  75:DSP/Track.cpp ****         buffer[R][ph.writePos] = right[i];
 460              		.loc 2 75 9 is_stmt 1 discriminator 2 view .LVU112
 461              	.LBB68:
 462              	.LBB62:
  52:DSP/Track.cpp **** }
 463              		.loc 2 52 9 discriminator 2 view .LVU113
 464              	.LBE62:
 465              	.LBE68:
  75:DSP/Track.cpp ****         buffer[R][ph.writePos] = right[i];
 466              		.loc 2 75 40 is_stmt 0 discriminator 2 view .LVU114
 467 0016 F1EC017A 		vldmia.32	r1!, {s15}
  75:DSP/Track.cpp ****         buffer[R][ph.writePos] = right[i];
 468              		.loc 2 75 32 discriminator 2 view .LVU115
 469 001a 06EB830E 		add	lr, r6, r3, lsl #2
 470              	.LBB69:
 471              	.LBB63:
  49:DSP/Track.cpp ****         ph.writePos = 0;
 472              		.loc 2 49 5 discriminator 2 view .LVU116
 473 001e 9D42     		cmp	r5, r3
 474              	.LBE63:
 475              	.LBE69:
 476              		.loc 2 76 32 discriminator 2 view .LVU117
 477 0020 07EB830C 		add	ip, r7, r3, lsl #2
  75:DSP/Track.cpp ****         buffer[R][ph.writePos] = right[i];
 478              		.loc 2 75 32 discriminator 2 view .LVU118
 479 0024 CEED007A 		vstr.32	s15, [lr]
 480              		.loc 2 76 9 is_stmt 1 discriminator 2 view .LVU119
 481              	.LBB70:
 482              	.LBB64:
  52:DSP/Track.cpp **** }
 483              		.loc 2 52 20 is_stmt 0 discriminator 2 view .LVU120
 484 0028 03F10103 		add	r3, r3, #1
 485              	.LBE64:
 486              	.LBE70:
 487              		.loc 2 76 41 discriminator 2 view .LVU121
 488 002c 52F804EB 		ldr	lr, [r2], #4	@ float
ARM GAS  /var/folders/wz/z09yph4n0qj4t7mjxhl6ttn80000gn/T//cco13aXs.s 			page 12


 489              	.LBB71:
 490              	.LBB65:
  50:DSP/Track.cpp ****     else
 491              		.loc 2 50 21 discriminator 2 view .LVU122
 492 0030 98BF     		it	ls
 493 0032 0023     		movls	r3, #0
 494              	.LBE65:
 495              	.LBE71:
  73:DSP/Track.cpp ****     {
 496              		.loc 2 73 26 discriminator 2 view .LVU123
 497 0034 A142     		cmp	r1, r4
 498              		.loc 2 76 32 discriminator 2 view .LVU124
 499 0036 CCF800E0 		str	lr, [ip]	@ float
  77:DSP/Track.cpp **** 
  78:DSP/Track.cpp ****         incrementWritePos();
 500              		.loc 2 78 9 is_stmt 1 discriminator 2 view .LVU125
 501              	.LBB72:
 502              	.LBI59:
  47:DSP/Track.cpp **** {
 503              		.loc 2 47 6 discriminator 2 view .LVU126
 504              	.LBB66:
  49:DSP/Track.cpp ****         ph.writePos = 0;
 505              		.loc 2 49 5 discriminator 2 view .LVU127
 506              	.LBE66:
 507              	.LBE72:
  73:DSP/Track.cpp ****     {
 508              		.loc 2 73 5 discriminator 2 view .LVU128
  73:DSP/Track.cpp ****     {
 509              		.loc 2 73 26 discriminator 2 view .LVU129
 510 003a ECD1     		bne	.L25
 511 003c 4360     		str	r3, [r0, #4]
 512              	.L22:
  73:DSP/Track.cpp ****     {
 513              		.loc 2 73 26 is_stmt 0 discriminator 2 view .LVU130
 514              	.LBE58:
  79:DSP/Track.cpp ****     }
  80:DSP/Track.cpp **** }
 515              		.loc 2 80 1 view .LVU131
 516 003e F0BD     		pop	{r4, r5, r6, r7, pc}
 517              		.cfi_endproc
 518              	.LFE5130:
 520              		.section	.text._ZN5Track13processOutputEv,"ax",%progbits
 521              		.align	1
 522              		.p2align 2,,3
 523              		.global	_ZN5Track13processOutputEv
 524              		.syntax unified
 525              		.thumb
 526              		.thumb_func
 528              	_ZN5Track13processOutputEv:
 529              	.LVL25:
 530              	.LFB5132:
  81:DSP/Track.cpp **** 
  82:DSP/Track.cpp **** std::pair<float*, float*> Track::processOutput()
  83:DSP/Track.cpp **** {
 531              		.loc 2 83 1 is_stmt 1 view -0
 532              		.cfi_startproc
 533              		@ args = 0, pretend = 0, frame = 0
ARM GAS  /var/folders/wz/z09yph4n0qj4t7mjxhl6ttn80000gn/T//cco13aXs.s 			page 13


 534              		@ frame_needed = 0, uses_anonymous_args = 0
 535              		@ link register save eliminated.
  84:DSP/Track.cpp ****     auto curSample = std::make_pair(&buffer[L][ph.readPos], &buffer[R][ph.readPos]);
 536              		.loc 2 84 5 view .LVU133
 537              		.loc 2 84 51 is_stmt 0 view .LVU134
 538 0000 8B68     		ldr	r3, [r1, #8]
  83:DSP/Track.cpp ****     auto curSample = std::make_pair(&buffer[L][ph.readPos], &buffer[R][ph.readPos]);
 539              		.loc 2 83 1 view .LVU135
 540 0002 30B4     		push	{r4, r5}
 541              		.cfi_def_cfa_offset 8
 542              		.cfi_offset 4, -8
 543              		.cfi_offset 5, -4
 544              		.loc 2 84 61 view .LVU136
 545 0004 D1E91742 		ldrd	r4, r2, [r1, #92]
 546              		.loc 2 84 37 view .LVU137
 547 0008 04EB8305 		add	r5, r4, r3, lsl #2
 548              		.loc 2 84 61 view .LVU138
 549 000c 02EB8304 		add	r4, r2, r3, lsl #2
 550              	.LVL26:
 551              	.LBB73:
 552              	.LBI73:
 553              		.file 4 "/Library/DaisyToolchain/0.2.0/arm/arm-none-eabi/include/c++/10.3.1/bits/stl_pair.h"
   1:/Library/DaisyToolchain/0.2.0/arm/arm-none-eabi/include/c++/10.3.1/bits/stl_pair.h **** // Pair implementation -*- C++ -*-
   2:/Library/DaisyToolchain/0.2.0/arm/arm-none-eabi/include/c++/10.3.1/bits/stl_pair.h **** 
   3:/Library/DaisyToolchain/0.2.0/arm/arm-none-eabi/include/c++/10.3.1/bits/stl_pair.h **** // Copyright (C) 2001-2020 Free Software Foundation, Inc.
   4:/Library/DaisyToolchain/0.2.0/arm/arm-none-eabi/include/c++/10.3.1/bits/stl_pair.h **** //
   5:/Library/DaisyToolchain/0.2.0/arm/arm-none-eabi/include/c++/10.3.1/bits/stl_pair.h **** // This file is part of the GNU ISO C++ Library.  This library is free
   6:/Library/DaisyToolchain/0.2.0/arm/arm-none-eabi/include/c++/10.3.1/bits/stl_pair.h **** // software; you can redistribute it and/or modify it under the
   7:/Library/DaisyToolchain/0.2.0/arm/arm-none-eabi/include/c++/10.3.1/bits/stl_pair.h **** // terms of the GNU General Public License as published by the
   8:/Library/DaisyToolchain/0.2.0/arm/arm-none-eabi/include/c++/10.3.1/bits/stl_pair.h **** // Free Software Foundation; either version 3, or (at your option)
   9:/Library/DaisyToolchain/0.2.0/arm/arm-none-eabi/include/c++/10.3.1/bits/stl_pair.h **** // any later version.
  10:/Library/DaisyToolchain/0.2.0/arm/arm-none-eabi/include/c++/10.3.1/bits/stl_pair.h **** 
  11:/Library/DaisyToolchain/0.2.0/arm/arm-none-eabi/include/c++/10.3.1/bits/stl_pair.h **** // This library is distributed in the hope that it will be useful,
  12:/Library/DaisyToolchain/0.2.0/arm/arm-none-eabi/include/c++/10.3.1/bits/stl_pair.h **** // but WITHOUT ANY WARRANTY; without even the implied warranty of
  13:/Library/DaisyToolchain/0.2.0/arm/arm-none-eabi/include/c++/10.3.1/bits/stl_pair.h **** // MERCHANTABILITY or FITNESS FOR A PARTICULAR PURPOSE.  See the
  14:/Library/DaisyToolchain/0.2.0/arm/arm-none-eabi/include/c++/10.3.1/bits/stl_pair.h **** // GNU General Public License for more details.
  15:/Library/DaisyToolchain/0.2.0/arm/arm-none-eabi/include/c++/10.3.1/bits/stl_pair.h **** 
  16:/Library/DaisyToolchain/0.2.0/arm/arm-none-eabi/include/c++/10.3.1/bits/stl_pair.h **** // Under Section 7 of GPL version 3, you are granted additional
  17:/Library/DaisyToolchain/0.2.0/arm/arm-none-eabi/include/c++/10.3.1/bits/stl_pair.h **** // permissions described in the GCC Runtime Library Exception, version
  18:/Library/DaisyToolchain/0.2.0/arm/arm-none-eabi/include/c++/10.3.1/bits/stl_pair.h **** // 3.1, as published by the Free Software Foundation.
  19:/Library/DaisyToolchain/0.2.0/arm/arm-none-eabi/include/c++/10.3.1/bits/stl_pair.h **** 
  20:/Library/DaisyToolchain/0.2.0/arm/arm-none-eabi/include/c++/10.3.1/bits/stl_pair.h **** // You should have received a copy of the GNU General Public License and
  21:/Library/DaisyToolchain/0.2.0/arm/arm-none-eabi/include/c++/10.3.1/bits/stl_pair.h **** // a copy of the GCC Runtime Library Exception along with this program;
  22:/Library/DaisyToolchain/0.2.0/arm/arm-none-eabi/include/c++/10.3.1/bits/stl_pair.h **** // see the files COPYING3 and COPYING.RUNTIME respectively.  If not, see
  23:/Library/DaisyToolchain/0.2.0/arm/arm-none-eabi/include/c++/10.3.1/bits/stl_pair.h **** // <http://www.gnu.org/licenses/>.
  24:/Library/DaisyToolchain/0.2.0/arm/arm-none-eabi/include/c++/10.3.1/bits/stl_pair.h **** 
  25:/Library/DaisyToolchain/0.2.0/arm/arm-none-eabi/include/c++/10.3.1/bits/stl_pair.h **** /*
  26:/Library/DaisyToolchain/0.2.0/arm/arm-none-eabi/include/c++/10.3.1/bits/stl_pair.h ****  *
  27:/Library/DaisyToolchain/0.2.0/arm/arm-none-eabi/include/c++/10.3.1/bits/stl_pair.h ****  * Copyright (c) 1994
  28:/Library/DaisyToolchain/0.2.0/arm/arm-none-eabi/include/c++/10.3.1/bits/stl_pair.h ****  * Hewlett-Packard Company
  29:/Library/DaisyToolchain/0.2.0/arm/arm-none-eabi/include/c++/10.3.1/bits/stl_pair.h ****  *
  30:/Library/DaisyToolchain/0.2.0/arm/arm-none-eabi/include/c++/10.3.1/bits/stl_pair.h ****  * Permission to use, copy, modify, distribute and sell this software
  31:/Library/DaisyToolchain/0.2.0/arm/arm-none-eabi/include/c++/10.3.1/bits/stl_pair.h ****  * and its documentation for any purpose is hereby granted without fee,
  32:/Library/DaisyToolchain/0.2.0/arm/arm-none-eabi/include/c++/10.3.1/bits/stl_pair.h ****  * provided that the above copyright notice appear in all copies and
  33:/Library/DaisyToolchain/0.2.0/arm/arm-none-eabi/include/c++/10.3.1/bits/stl_pair.h ****  * that both that copyright notice and this permission notice appear
  34:/Library/DaisyToolchain/0.2.0/arm/arm-none-eabi/include/c++/10.3.1/bits/stl_pair.h ****  * in supporting documentation.  Hewlett-Packard Company makes no
  35:/Library/DaisyToolchain/0.2.0/arm/arm-none-eabi/include/c++/10.3.1/bits/stl_pair.h ****  * representations about the suitability of this software for any
ARM GAS  /var/folders/wz/z09yph4n0qj4t7mjxhl6ttn80000gn/T//cco13aXs.s 			page 14


  36:/Library/DaisyToolchain/0.2.0/arm/arm-none-eabi/include/c++/10.3.1/bits/stl_pair.h ****  * purpose.  It is provided "as is" without express or implied warranty.
  37:/Library/DaisyToolchain/0.2.0/arm/arm-none-eabi/include/c++/10.3.1/bits/stl_pair.h ****  *
  38:/Library/DaisyToolchain/0.2.0/arm/arm-none-eabi/include/c++/10.3.1/bits/stl_pair.h ****  *
  39:/Library/DaisyToolchain/0.2.0/arm/arm-none-eabi/include/c++/10.3.1/bits/stl_pair.h ****  * Copyright (c) 1996,1997
  40:/Library/DaisyToolchain/0.2.0/arm/arm-none-eabi/include/c++/10.3.1/bits/stl_pair.h ****  * Silicon Graphics Computer Systems, Inc.
  41:/Library/DaisyToolchain/0.2.0/arm/arm-none-eabi/include/c++/10.3.1/bits/stl_pair.h ****  *
  42:/Library/DaisyToolchain/0.2.0/arm/arm-none-eabi/include/c++/10.3.1/bits/stl_pair.h ****  * Permission to use, copy, modify, distribute and sell this software
  43:/Library/DaisyToolchain/0.2.0/arm/arm-none-eabi/include/c++/10.3.1/bits/stl_pair.h ****  * and its documentation for any purpose is hereby granted without fee,
  44:/Library/DaisyToolchain/0.2.0/arm/arm-none-eabi/include/c++/10.3.1/bits/stl_pair.h ****  * provided that the above copyright notice appear in all copies and
  45:/Library/DaisyToolchain/0.2.0/arm/arm-none-eabi/include/c++/10.3.1/bits/stl_pair.h ****  * that both that copyright notice and this permission notice appear
  46:/Library/DaisyToolchain/0.2.0/arm/arm-none-eabi/include/c++/10.3.1/bits/stl_pair.h ****  * in supporting documentation.  Silicon Graphics makes no
  47:/Library/DaisyToolchain/0.2.0/arm/arm-none-eabi/include/c++/10.3.1/bits/stl_pair.h ****  * representations about the suitability of this software for any
  48:/Library/DaisyToolchain/0.2.0/arm/arm-none-eabi/include/c++/10.3.1/bits/stl_pair.h ****  * purpose.  It is provided "as is" without express or implied warranty.
  49:/Library/DaisyToolchain/0.2.0/arm/arm-none-eabi/include/c++/10.3.1/bits/stl_pair.h ****  */
  50:/Library/DaisyToolchain/0.2.0/arm/arm-none-eabi/include/c++/10.3.1/bits/stl_pair.h **** 
  51:/Library/DaisyToolchain/0.2.0/arm/arm-none-eabi/include/c++/10.3.1/bits/stl_pair.h **** /** @file bits/stl_pair.h
  52:/Library/DaisyToolchain/0.2.0/arm/arm-none-eabi/include/c++/10.3.1/bits/stl_pair.h ****  *  This is an internal header file, included by other library headers.
  53:/Library/DaisyToolchain/0.2.0/arm/arm-none-eabi/include/c++/10.3.1/bits/stl_pair.h ****  *  Do not attempt to use it directly. @headername{utility}
  54:/Library/DaisyToolchain/0.2.0/arm/arm-none-eabi/include/c++/10.3.1/bits/stl_pair.h ****  */
  55:/Library/DaisyToolchain/0.2.0/arm/arm-none-eabi/include/c++/10.3.1/bits/stl_pair.h **** 
  56:/Library/DaisyToolchain/0.2.0/arm/arm-none-eabi/include/c++/10.3.1/bits/stl_pair.h **** #ifndef _STL_PAIR_H
  57:/Library/DaisyToolchain/0.2.0/arm/arm-none-eabi/include/c++/10.3.1/bits/stl_pair.h **** #define _STL_PAIR_H 1
  58:/Library/DaisyToolchain/0.2.0/arm/arm-none-eabi/include/c++/10.3.1/bits/stl_pair.h **** 
  59:/Library/DaisyToolchain/0.2.0/arm/arm-none-eabi/include/c++/10.3.1/bits/stl_pair.h **** #include <bits/move.h> // for std::move / std::forward, and std::swap
  60:/Library/DaisyToolchain/0.2.0/arm/arm-none-eabi/include/c++/10.3.1/bits/stl_pair.h **** 
  61:/Library/DaisyToolchain/0.2.0/arm/arm-none-eabi/include/c++/10.3.1/bits/stl_pair.h **** #if __cplusplus >= 201103L
  62:/Library/DaisyToolchain/0.2.0/arm/arm-none-eabi/include/c++/10.3.1/bits/stl_pair.h **** # include <type_traits> // for std::__decay_and_strip, std::is_reference_v
  63:/Library/DaisyToolchain/0.2.0/arm/arm-none-eabi/include/c++/10.3.1/bits/stl_pair.h **** #endif
  64:/Library/DaisyToolchain/0.2.0/arm/arm-none-eabi/include/c++/10.3.1/bits/stl_pair.h **** #if __cplusplus > 201703L
  65:/Library/DaisyToolchain/0.2.0/arm/arm-none-eabi/include/c++/10.3.1/bits/stl_pair.h **** # include <compare>
  66:/Library/DaisyToolchain/0.2.0/arm/arm-none-eabi/include/c++/10.3.1/bits/stl_pair.h **** # define __cpp_lib_constexpr_utility 201811L
  67:/Library/DaisyToolchain/0.2.0/arm/arm-none-eabi/include/c++/10.3.1/bits/stl_pair.h **** #endif
  68:/Library/DaisyToolchain/0.2.0/arm/arm-none-eabi/include/c++/10.3.1/bits/stl_pair.h **** 
  69:/Library/DaisyToolchain/0.2.0/arm/arm-none-eabi/include/c++/10.3.1/bits/stl_pair.h **** namespace std _GLIBCXX_VISIBILITY(default)
  70:/Library/DaisyToolchain/0.2.0/arm/arm-none-eabi/include/c++/10.3.1/bits/stl_pair.h **** {
  71:/Library/DaisyToolchain/0.2.0/arm/arm-none-eabi/include/c++/10.3.1/bits/stl_pair.h **** _GLIBCXX_BEGIN_NAMESPACE_VERSION
  72:/Library/DaisyToolchain/0.2.0/arm/arm-none-eabi/include/c++/10.3.1/bits/stl_pair.h **** 
  73:/Library/DaisyToolchain/0.2.0/arm/arm-none-eabi/include/c++/10.3.1/bits/stl_pair.h ****   /**
  74:/Library/DaisyToolchain/0.2.0/arm/arm-none-eabi/include/c++/10.3.1/bits/stl_pair.h ****    *  @addtogroup utilities
  75:/Library/DaisyToolchain/0.2.0/arm/arm-none-eabi/include/c++/10.3.1/bits/stl_pair.h ****    *  @{
  76:/Library/DaisyToolchain/0.2.0/arm/arm-none-eabi/include/c++/10.3.1/bits/stl_pair.h ****    */
  77:/Library/DaisyToolchain/0.2.0/arm/arm-none-eabi/include/c++/10.3.1/bits/stl_pair.h **** 
  78:/Library/DaisyToolchain/0.2.0/arm/arm-none-eabi/include/c++/10.3.1/bits/stl_pair.h **** #if __cplusplus >= 201103L
  79:/Library/DaisyToolchain/0.2.0/arm/arm-none-eabi/include/c++/10.3.1/bits/stl_pair.h ****   /// Tag type for piecewise construction of std::pair objects.
  80:/Library/DaisyToolchain/0.2.0/arm/arm-none-eabi/include/c++/10.3.1/bits/stl_pair.h ****   struct piecewise_construct_t { explicit piecewise_construct_t() = default; };
  81:/Library/DaisyToolchain/0.2.0/arm/arm-none-eabi/include/c++/10.3.1/bits/stl_pair.h **** 
  82:/Library/DaisyToolchain/0.2.0/arm/arm-none-eabi/include/c++/10.3.1/bits/stl_pair.h ****   /// Tag for piecewise construction of std::pair objects.
  83:/Library/DaisyToolchain/0.2.0/arm/arm-none-eabi/include/c++/10.3.1/bits/stl_pair.h ****   _GLIBCXX17_INLINE constexpr piecewise_construct_t piecewise_construct =
  84:/Library/DaisyToolchain/0.2.0/arm/arm-none-eabi/include/c++/10.3.1/bits/stl_pair.h ****     piecewise_construct_t();
  85:/Library/DaisyToolchain/0.2.0/arm/arm-none-eabi/include/c++/10.3.1/bits/stl_pair.h **** 
  86:/Library/DaisyToolchain/0.2.0/arm/arm-none-eabi/include/c++/10.3.1/bits/stl_pair.h ****   /// @cond undocumented
  87:/Library/DaisyToolchain/0.2.0/arm/arm-none-eabi/include/c++/10.3.1/bits/stl_pair.h **** 
  88:/Library/DaisyToolchain/0.2.0/arm/arm-none-eabi/include/c++/10.3.1/bits/stl_pair.h ****   // Forward declarations.
  89:/Library/DaisyToolchain/0.2.0/arm/arm-none-eabi/include/c++/10.3.1/bits/stl_pair.h ****   template<typename...>
  90:/Library/DaisyToolchain/0.2.0/arm/arm-none-eabi/include/c++/10.3.1/bits/stl_pair.h ****     class tuple;
  91:/Library/DaisyToolchain/0.2.0/arm/arm-none-eabi/include/c++/10.3.1/bits/stl_pair.h **** 
  92:/Library/DaisyToolchain/0.2.0/arm/arm-none-eabi/include/c++/10.3.1/bits/stl_pair.h ****   template<std::size_t...>
ARM GAS  /var/folders/wz/z09yph4n0qj4t7mjxhl6ttn80000gn/T//cco13aXs.s 			page 15


  93:/Library/DaisyToolchain/0.2.0/arm/arm-none-eabi/include/c++/10.3.1/bits/stl_pair.h ****     struct _Index_tuple;
  94:/Library/DaisyToolchain/0.2.0/arm/arm-none-eabi/include/c++/10.3.1/bits/stl_pair.h **** 
  95:/Library/DaisyToolchain/0.2.0/arm/arm-none-eabi/include/c++/10.3.1/bits/stl_pair.h ****   // Concept utility functions, reused in conditionally-explicit
  96:/Library/DaisyToolchain/0.2.0/arm/arm-none-eabi/include/c++/10.3.1/bits/stl_pair.h ****   // constructors.
  97:/Library/DaisyToolchain/0.2.0/arm/arm-none-eabi/include/c++/10.3.1/bits/stl_pair.h ****   // See PR 70437, don't look at is_constructible or
  98:/Library/DaisyToolchain/0.2.0/arm/arm-none-eabi/include/c++/10.3.1/bits/stl_pair.h ****   // is_convertible if the types are the same to
  99:/Library/DaisyToolchain/0.2.0/arm/arm-none-eabi/include/c++/10.3.1/bits/stl_pair.h ****   // avoid querying those properties for incomplete types.
 100:/Library/DaisyToolchain/0.2.0/arm/arm-none-eabi/include/c++/10.3.1/bits/stl_pair.h ****   template <bool, typename _T1, typename _T2>
 101:/Library/DaisyToolchain/0.2.0/arm/arm-none-eabi/include/c++/10.3.1/bits/stl_pair.h ****     struct _PCC
 102:/Library/DaisyToolchain/0.2.0/arm/arm-none-eabi/include/c++/10.3.1/bits/stl_pair.h ****     {
 103:/Library/DaisyToolchain/0.2.0/arm/arm-none-eabi/include/c++/10.3.1/bits/stl_pair.h ****       template <typename _U1, typename _U2>
 104:/Library/DaisyToolchain/0.2.0/arm/arm-none-eabi/include/c++/10.3.1/bits/stl_pair.h ****       static constexpr bool _ConstructiblePair()
 105:/Library/DaisyToolchain/0.2.0/arm/arm-none-eabi/include/c++/10.3.1/bits/stl_pair.h ****       {
 106:/Library/DaisyToolchain/0.2.0/arm/arm-none-eabi/include/c++/10.3.1/bits/stl_pair.h **** 	return __and_<is_constructible<_T1, const _U1&>,
 107:/Library/DaisyToolchain/0.2.0/arm/arm-none-eabi/include/c++/10.3.1/bits/stl_pair.h **** 		      is_constructible<_T2, const _U2&>>::value;
 108:/Library/DaisyToolchain/0.2.0/arm/arm-none-eabi/include/c++/10.3.1/bits/stl_pair.h ****       }
 109:/Library/DaisyToolchain/0.2.0/arm/arm-none-eabi/include/c++/10.3.1/bits/stl_pair.h **** 
 110:/Library/DaisyToolchain/0.2.0/arm/arm-none-eabi/include/c++/10.3.1/bits/stl_pair.h ****       template <typename _U1, typename _U2>
 111:/Library/DaisyToolchain/0.2.0/arm/arm-none-eabi/include/c++/10.3.1/bits/stl_pair.h ****       static constexpr bool _ImplicitlyConvertiblePair()
 112:/Library/DaisyToolchain/0.2.0/arm/arm-none-eabi/include/c++/10.3.1/bits/stl_pair.h ****       {
 113:/Library/DaisyToolchain/0.2.0/arm/arm-none-eabi/include/c++/10.3.1/bits/stl_pair.h **** 	return __and_<is_convertible<const _U1&, _T1>,
 114:/Library/DaisyToolchain/0.2.0/arm/arm-none-eabi/include/c++/10.3.1/bits/stl_pair.h **** 		      is_convertible<const _U2&, _T2>>::value;
 115:/Library/DaisyToolchain/0.2.0/arm/arm-none-eabi/include/c++/10.3.1/bits/stl_pair.h ****       }
 116:/Library/DaisyToolchain/0.2.0/arm/arm-none-eabi/include/c++/10.3.1/bits/stl_pair.h **** 
 117:/Library/DaisyToolchain/0.2.0/arm/arm-none-eabi/include/c++/10.3.1/bits/stl_pair.h ****       template <typename _U1, typename _U2>
 118:/Library/DaisyToolchain/0.2.0/arm/arm-none-eabi/include/c++/10.3.1/bits/stl_pair.h ****       static constexpr bool _MoveConstructiblePair()
 119:/Library/DaisyToolchain/0.2.0/arm/arm-none-eabi/include/c++/10.3.1/bits/stl_pair.h ****       {
 120:/Library/DaisyToolchain/0.2.0/arm/arm-none-eabi/include/c++/10.3.1/bits/stl_pair.h **** 	return __and_<is_constructible<_T1, _U1&&>,
 121:/Library/DaisyToolchain/0.2.0/arm/arm-none-eabi/include/c++/10.3.1/bits/stl_pair.h **** 		      is_constructible<_T2, _U2&&>>::value;
 122:/Library/DaisyToolchain/0.2.0/arm/arm-none-eabi/include/c++/10.3.1/bits/stl_pair.h ****       }
 123:/Library/DaisyToolchain/0.2.0/arm/arm-none-eabi/include/c++/10.3.1/bits/stl_pair.h **** 
 124:/Library/DaisyToolchain/0.2.0/arm/arm-none-eabi/include/c++/10.3.1/bits/stl_pair.h ****       template <typename _U1, typename _U2>
 125:/Library/DaisyToolchain/0.2.0/arm/arm-none-eabi/include/c++/10.3.1/bits/stl_pair.h ****       static constexpr bool _ImplicitlyMoveConvertiblePair()
 126:/Library/DaisyToolchain/0.2.0/arm/arm-none-eabi/include/c++/10.3.1/bits/stl_pair.h ****       {
 127:/Library/DaisyToolchain/0.2.0/arm/arm-none-eabi/include/c++/10.3.1/bits/stl_pair.h **** 	return __and_<is_convertible<_U1&&, _T1>,
 128:/Library/DaisyToolchain/0.2.0/arm/arm-none-eabi/include/c++/10.3.1/bits/stl_pair.h **** 		      is_convertible<_U2&&, _T2>>::value;
 129:/Library/DaisyToolchain/0.2.0/arm/arm-none-eabi/include/c++/10.3.1/bits/stl_pair.h ****       }
 130:/Library/DaisyToolchain/0.2.0/arm/arm-none-eabi/include/c++/10.3.1/bits/stl_pair.h **** 
 131:/Library/DaisyToolchain/0.2.0/arm/arm-none-eabi/include/c++/10.3.1/bits/stl_pair.h ****       template <bool __implicit, typename _U1, typename _U2>
 132:/Library/DaisyToolchain/0.2.0/arm/arm-none-eabi/include/c++/10.3.1/bits/stl_pair.h ****       static constexpr bool _CopyMovePair()
 133:/Library/DaisyToolchain/0.2.0/arm/arm-none-eabi/include/c++/10.3.1/bits/stl_pair.h ****       {
 134:/Library/DaisyToolchain/0.2.0/arm/arm-none-eabi/include/c++/10.3.1/bits/stl_pair.h **** 	using __do_converts = __and_<is_convertible<const _U1&, _T1>,
 135:/Library/DaisyToolchain/0.2.0/arm/arm-none-eabi/include/c++/10.3.1/bits/stl_pair.h **** 				  is_convertible<_U2&&, _T2>>;
 136:/Library/DaisyToolchain/0.2.0/arm/arm-none-eabi/include/c++/10.3.1/bits/stl_pair.h **** 	using __converts = typename conditional<__implicit,
 137:/Library/DaisyToolchain/0.2.0/arm/arm-none-eabi/include/c++/10.3.1/bits/stl_pair.h **** 				       __do_converts,
 138:/Library/DaisyToolchain/0.2.0/arm/arm-none-eabi/include/c++/10.3.1/bits/stl_pair.h **** 				       __not_<__do_converts>>::type;
 139:/Library/DaisyToolchain/0.2.0/arm/arm-none-eabi/include/c++/10.3.1/bits/stl_pair.h **** 	return __and_<is_constructible<_T1, const _U1&>,
 140:/Library/DaisyToolchain/0.2.0/arm/arm-none-eabi/include/c++/10.3.1/bits/stl_pair.h **** 		      is_constructible<_T2, _U2&&>,
 141:/Library/DaisyToolchain/0.2.0/arm/arm-none-eabi/include/c++/10.3.1/bits/stl_pair.h **** 		      __converts
 142:/Library/DaisyToolchain/0.2.0/arm/arm-none-eabi/include/c++/10.3.1/bits/stl_pair.h **** 		      >::value;
 143:/Library/DaisyToolchain/0.2.0/arm/arm-none-eabi/include/c++/10.3.1/bits/stl_pair.h ****       }
 144:/Library/DaisyToolchain/0.2.0/arm/arm-none-eabi/include/c++/10.3.1/bits/stl_pair.h **** 
 145:/Library/DaisyToolchain/0.2.0/arm/arm-none-eabi/include/c++/10.3.1/bits/stl_pair.h ****       template <bool __implicit, typename _U1, typename _U2>
 146:/Library/DaisyToolchain/0.2.0/arm/arm-none-eabi/include/c++/10.3.1/bits/stl_pair.h ****       static constexpr bool _MoveCopyPair()
 147:/Library/DaisyToolchain/0.2.0/arm/arm-none-eabi/include/c++/10.3.1/bits/stl_pair.h ****       {
 148:/Library/DaisyToolchain/0.2.0/arm/arm-none-eabi/include/c++/10.3.1/bits/stl_pair.h **** 	using __do_converts = __and_<is_convertible<_U1&&, _T1>,
 149:/Library/DaisyToolchain/0.2.0/arm/arm-none-eabi/include/c++/10.3.1/bits/stl_pair.h **** 				  is_convertible<const _U2&, _T2>>;
ARM GAS  /var/folders/wz/z09yph4n0qj4t7mjxhl6ttn80000gn/T//cco13aXs.s 			page 16


 150:/Library/DaisyToolchain/0.2.0/arm/arm-none-eabi/include/c++/10.3.1/bits/stl_pair.h **** 	using __converts = typename conditional<__implicit,
 151:/Library/DaisyToolchain/0.2.0/arm/arm-none-eabi/include/c++/10.3.1/bits/stl_pair.h **** 				       __do_converts,
 152:/Library/DaisyToolchain/0.2.0/arm/arm-none-eabi/include/c++/10.3.1/bits/stl_pair.h **** 				       __not_<__do_converts>>::type;
 153:/Library/DaisyToolchain/0.2.0/arm/arm-none-eabi/include/c++/10.3.1/bits/stl_pair.h **** 	return __and_<is_constructible<_T1, _U1&&>,
 154:/Library/DaisyToolchain/0.2.0/arm/arm-none-eabi/include/c++/10.3.1/bits/stl_pair.h **** 		      is_constructible<_T2, const _U2&&>,
 155:/Library/DaisyToolchain/0.2.0/arm/arm-none-eabi/include/c++/10.3.1/bits/stl_pair.h **** 		      __converts
 156:/Library/DaisyToolchain/0.2.0/arm/arm-none-eabi/include/c++/10.3.1/bits/stl_pair.h **** 		      >::value;
 157:/Library/DaisyToolchain/0.2.0/arm/arm-none-eabi/include/c++/10.3.1/bits/stl_pair.h ****       }
 158:/Library/DaisyToolchain/0.2.0/arm/arm-none-eabi/include/c++/10.3.1/bits/stl_pair.h ****   };
 159:/Library/DaisyToolchain/0.2.0/arm/arm-none-eabi/include/c++/10.3.1/bits/stl_pair.h **** 
 160:/Library/DaisyToolchain/0.2.0/arm/arm-none-eabi/include/c++/10.3.1/bits/stl_pair.h ****   template <typename _T1, typename _T2>
 161:/Library/DaisyToolchain/0.2.0/arm/arm-none-eabi/include/c++/10.3.1/bits/stl_pair.h ****     struct _PCC<false, _T1, _T2>
 162:/Library/DaisyToolchain/0.2.0/arm/arm-none-eabi/include/c++/10.3.1/bits/stl_pair.h ****     {
 163:/Library/DaisyToolchain/0.2.0/arm/arm-none-eabi/include/c++/10.3.1/bits/stl_pair.h ****       template <typename _U1, typename _U2>
 164:/Library/DaisyToolchain/0.2.0/arm/arm-none-eabi/include/c++/10.3.1/bits/stl_pair.h ****       static constexpr bool _ConstructiblePair()
 165:/Library/DaisyToolchain/0.2.0/arm/arm-none-eabi/include/c++/10.3.1/bits/stl_pair.h ****       {
 166:/Library/DaisyToolchain/0.2.0/arm/arm-none-eabi/include/c++/10.3.1/bits/stl_pair.h **** 	return false;
 167:/Library/DaisyToolchain/0.2.0/arm/arm-none-eabi/include/c++/10.3.1/bits/stl_pair.h ****       }
 168:/Library/DaisyToolchain/0.2.0/arm/arm-none-eabi/include/c++/10.3.1/bits/stl_pair.h **** 
 169:/Library/DaisyToolchain/0.2.0/arm/arm-none-eabi/include/c++/10.3.1/bits/stl_pair.h ****       template <typename _U1, typename _U2>
 170:/Library/DaisyToolchain/0.2.0/arm/arm-none-eabi/include/c++/10.3.1/bits/stl_pair.h ****       static constexpr bool _ImplicitlyConvertiblePair()
 171:/Library/DaisyToolchain/0.2.0/arm/arm-none-eabi/include/c++/10.3.1/bits/stl_pair.h ****       {
 172:/Library/DaisyToolchain/0.2.0/arm/arm-none-eabi/include/c++/10.3.1/bits/stl_pair.h **** 	return false;
 173:/Library/DaisyToolchain/0.2.0/arm/arm-none-eabi/include/c++/10.3.1/bits/stl_pair.h ****       }
 174:/Library/DaisyToolchain/0.2.0/arm/arm-none-eabi/include/c++/10.3.1/bits/stl_pair.h **** 
 175:/Library/DaisyToolchain/0.2.0/arm/arm-none-eabi/include/c++/10.3.1/bits/stl_pair.h ****       template <typename _U1, typename _U2>
 176:/Library/DaisyToolchain/0.2.0/arm/arm-none-eabi/include/c++/10.3.1/bits/stl_pair.h ****       static constexpr bool _MoveConstructiblePair()
 177:/Library/DaisyToolchain/0.2.0/arm/arm-none-eabi/include/c++/10.3.1/bits/stl_pair.h ****       {
 178:/Library/DaisyToolchain/0.2.0/arm/arm-none-eabi/include/c++/10.3.1/bits/stl_pair.h **** 	return false;
 179:/Library/DaisyToolchain/0.2.0/arm/arm-none-eabi/include/c++/10.3.1/bits/stl_pair.h ****       }
 180:/Library/DaisyToolchain/0.2.0/arm/arm-none-eabi/include/c++/10.3.1/bits/stl_pair.h **** 
 181:/Library/DaisyToolchain/0.2.0/arm/arm-none-eabi/include/c++/10.3.1/bits/stl_pair.h ****       template <typename _U1, typename _U2>
 182:/Library/DaisyToolchain/0.2.0/arm/arm-none-eabi/include/c++/10.3.1/bits/stl_pair.h ****       static constexpr bool _ImplicitlyMoveConvertiblePair()
 183:/Library/DaisyToolchain/0.2.0/arm/arm-none-eabi/include/c++/10.3.1/bits/stl_pair.h ****       {
 184:/Library/DaisyToolchain/0.2.0/arm/arm-none-eabi/include/c++/10.3.1/bits/stl_pair.h **** 	return false;
 185:/Library/DaisyToolchain/0.2.0/arm/arm-none-eabi/include/c++/10.3.1/bits/stl_pair.h ****       }
 186:/Library/DaisyToolchain/0.2.0/arm/arm-none-eabi/include/c++/10.3.1/bits/stl_pair.h ****   };
 187:/Library/DaisyToolchain/0.2.0/arm/arm-none-eabi/include/c++/10.3.1/bits/stl_pair.h **** #endif // C++11
 188:/Library/DaisyToolchain/0.2.0/arm/arm-none-eabi/include/c++/10.3.1/bits/stl_pair.h **** 
 189:/Library/DaisyToolchain/0.2.0/arm/arm-none-eabi/include/c++/10.3.1/bits/stl_pair.h ****   template<typename _U1, typename _U2> class __pair_base
 190:/Library/DaisyToolchain/0.2.0/arm/arm-none-eabi/include/c++/10.3.1/bits/stl_pair.h ****   {
 191:/Library/DaisyToolchain/0.2.0/arm/arm-none-eabi/include/c++/10.3.1/bits/stl_pair.h **** #if __cplusplus >= 201103L
 192:/Library/DaisyToolchain/0.2.0/arm/arm-none-eabi/include/c++/10.3.1/bits/stl_pair.h ****     template<typename _T1, typename _T2> friend struct pair;
 193:/Library/DaisyToolchain/0.2.0/arm/arm-none-eabi/include/c++/10.3.1/bits/stl_pair.h ****     __pair_base() = default;
 194:/Library/DaisyToolchain/0.2.0/arm/arm-none-eabi/include/c++/10.3.1/bits/stl_pair.h ****     ~__pair_base() = default;
 195:/Library/DaisyToolchain/0.2.0/arm/arm-none-eabi/include/c++/10.3.1/bits/stl_pair.h ****     __pair_base(const __pair_base&) = default;
 196:/Library/DaisyToolchain/0.2.0/arm/arm-none-eabi/include/c++/10.3.1/bits/stl_pair.h ****     __pair_base& operator=(const __pair_base&) = delete;
 197:/Library/DaisyToolchain/0.2.0/arm/arm-none-eabi/include/c++/10.3.1/bits/stl_pair.h **** #endif // C++11
 198:/Library/DaisyToolchain/0.2.0/arm/arm-none-eabi/include/c++/10.3.1/bits/stl_pair.h ****   };
 199:/Library/DaisyToolchain/0.2.0/arm/arm-none-eabi/include/c++/10.3.1/bits/stl_pair.h **** 
 200:/Library/DaisyToolchain/0.2.0/arm/arm-none-eabi/include/c++/10.3.1/bits/stl_pair.h ****   /// @endcond
 201:/Library/DaisyToolchain/0.2.0/arm/arm-none-eabi/include/c++/10.3.1/bits/stl_pair.h **** 
 202:/Library/DaisyToolchain/0.2.0/arm/arm-none-eabi/include/c++/10.3.1/bits/stl_pair.h ****  /**
 203:/Library/DaisyToolchain/0.2.0/arm/arm-none-eabi/include/c++/10.3.1/bits/stl_pair.h ****    *  @brief Struct holding two objects of arbitrary type.
 204:/Library/DaisyToolchain/0.2.0/arm/arm-none-eabi/include/c++/10.3.1/bits/stl_pair.h ****    *
 205:/Library/DaisyToolchain/0.2.0/arm/arm-none-eabi/include/c++/10.3.1/bits/stl_pair.h ****    *  @tparam _T1  Type of first object.
 206:/Library/DaisyToolchain/0.2.0/arm/arm-none-eabi/include/c++/10.3.1/bits/stl_pair.h ****    *  @tparam _T2  Type of second object.
ARM GAS  /var/folders/wz/z09yph4n0qj4t7mjxhl6ttn80000gn/T//cco13aXs.s 			page 17


 207:/Library/DaisyToolchain/0.2.0/arm/arm-none-eabi/include/c++/10.3.1/bits/stl_pair.h ****    *
 208:/Library/DaisyToolchain/0.2.0/arm/arm-none-eabi/include/c++/10.3.1/bits/stl_pair.h ****    *  <https://gcc.gnu.org/onlinedocs/libstdc++/manual/utilities.html>
 209:/Library/DaisyToolchain/0.2.0/arm/arm-none-eabi/include/c++/10.3.1/bits/stl_pair.h ****    */
 210:/Library/DaisyToolchain/0.2.0/arm/arm-none-eabi/include/c++/10.3.1/bits/stl_pair.h ****   template<typename _T1, typename _T2>
 211:/Library/DaisyToolchain/0.2.0/arm/arm-none-eabi/include/c++/10.3.1/bits/stl_pair.h ****     struct pair
 212:/Library/DaisyToolchain/0.2.0/arm/arm-none-eabi/include/c++/10.3.1/bits/stl_pair.h ****     : private __pair_base<_T1, _T2>
 213:/Library/DaisyToolchain/0.2.0/arm/arm-none-eabi/include/c++/10.3.1/bits/stl_pair.h ****     {
 214:/Library/DaisyToolchain/0.2.0/arm/arm-none-eabi/include/c++/10.3.1/bits/stl_pair.h ****       typedef _T1 first_type;    ///< The type of the `first` member
 215:/Library/DaisyToolchain/0.2.0/arm/arm-none-eabi/include/c++/10.3.1/bits/stl_pair.h ****       typedef _T2 second_type;   ///< The type of the `second` member
 216:/Library/DaisyToolchain/0.2.0/arm/arm-none-eabi/include/c++/10.3.1/bits/stl_pair.h **** 
 217:/Library/DaisyToolchain/0.2.0/arm/arm-none-eabi/include/c++/10.3.1/bits/stl_pair.h ****       _T1 first;                 ///< The first member
 218:/Library/DaisyToolchain/0.2.0/arm/arm-none-eabi/include/c++/10.3.1/bits/stl_pair.h ****       _T2 second;                ///< The second member
 219:/Library/DaisyToolchain/0.2.0/arm/arm-none-eabi/include/c++/10.3.1/bits/stl_pair.h **** 
 220:/Library/DaisyToolchain/0.2.0/arm/arm-none-eabi/include/c++/10.3.1/bits/stl_pair.h ****       // _GLIBCXX_RESOLVE_LIB_DEFECTS
 221:/Library/DaisyToolchain/0.2.0/arm/arm-none-eabi/include/c++/10.3.1/bits/stl_pair.h ****       // 265.  std::pair::pair() effects overly restrictive
 222:/Library/DaisyToolchain/0.2.0/arm/arm-none-eabi/include/c++/10.3.1/bits/stl_pair.h ****       /** The default constructor creates @c first and @c second using their
 223:/Library/DaisyToolchain/0.2.0/arm/arm-none-eabi/include/c++/10.3.1/bits/stl_pair.h ****        *  respective default constructors.  */
 224:/Library/DaisyToolchain/0.2.0/arm/arm-none-eabi/include/c++/10.3.1/bits/stl_pair.h **** #if __cplusplus >= 201103L
 225:/Library/DaisyToolchain/0.2.0/arm/arm-none-eabi/include/c++/10.3.1/bits/stl_pair.h ****       template <typename _U1 = _T1,
 226:/Library/DaisyToolchain/0.2.0/arm/arm-none-eabi/include/c++/10.3.1/bits/stl_pair.h ****                 typename _U2 = _T2,
 227:/Library/DaisyToolchain/0.2.0/arm/arm-none-eabi/include/c++/10.3.1/bits/stl_pair.h ****                 typename enable_if<__and_<
 228:/Library/DaisyToolchain/0.2.0/arm/arm-none-eabi/include/c++/10.3.1/bits/stl_pair.h ****                                      __is_implicitly_default_constructible<_U1>,
 229:/Library/DaisyToolchain/0.2.0/arm/arm-none-eabi/include/c++/10.3.1/bits/stl_pair.h ****                                      __is_implicitly_default_constructible<_U2>>
 230:/Library/DaisyToolchain/0.2.0/arm/arm-none-eabi/include/c++/10.3.1/bits/stl_pair.h ****                                    ::value, bool>::type = true>
 231:/Library/DaisyToolchain/0.2.0/arm/arm-none-eabi/include/c++/10.3.1/bits/stl_pair.h **** #endif
 232:/Library/DaisyToolchain/0.2.0/arm/arm-none-eabi/include/c++/10.3.1/bits/stl_pair.h ****       _GLIBCXX_CONSTEXPR pair()
 233:/Library/DaisyToolchain/0.2.0/arm/arm-none-eabi/include/c++/10.3.1/bits/stl_pair.h ****       : first(), second() { }
 234:/Library/DaisyToolchain/0.2.0/arm/arm-none-eabi/include/c++/10.3.1/bits/stl_pair.h **** 
 235:/Library/DaisyToolchain/0.2.0/arm/arm-none-eabi/include/c++/10.3.1/bits/stl_pair.h **** #if __cplusplus >= 201103L
 236:/Library/DaisyToolchain/0.2.0/arm/arm-none-eabi/include/c++/10.3.1/bits/stl_pair.h ****       template <typename _U1 = _T1,
 237:/Library/DaisyToolchain/0.2.0/arm/arm-none-eabi/include/c++/10.3.1/bits/stl_pair.h ****                 typename _U2 = _T2,
 238:/Library/DaisyToolchain/0.2.0/arm/arm-none-eabi/include/c++/10.3.1/bits/stl_pair.h ****                 typename enable_if<__and_<
 239:/Library/DaisyToolchain/0.2.0/arm/arm-none-eabi/include/c++/10.3.1/bits/stl_pair.h ****                        is_default_constructible<_U1>,
 240:/Library/DaisyToolchain/0.2.0/arm/arm-none-eabi/include/c++/10.3.1/bits/stl_pair.h ****                        is_default_constructible<_U2>,
 241:/Library/DaisyToolchain/0.2.0/arm/arm-none-eabi/include/c++/10.3.1/bits/stl_pair.h ****                        __not_<
 242:/Library/DaisyToolchain/0.2.0/arm/arm-none-eabi/include/c++/10.3.1/bits/stl_pair.h ****                          __and_<__is_implicitly_default_constructible<_U1>,
 243:/Library/DaisyToolchain/0.2.0/arm/arm-none-eabi/include/c++/10.3.1/bits/stl_pair.h ****                                 __is_implicitly_default_constructible<_U2>>>>
 244:/Library/DaisyToolchain/0.2.0/arm/arm-none-eabi/include/c++/10.3.1/bits/stl_pair.h ****                                    ::value, bool>::type = false>
 245:/Library/DaisyToolchain/0.2.0/arm/arm-none-eabi/include/c++/10.3.1/bits/stl_pair.h ****       explicit constexpr pair()
 246:/Library/DaisyToolchain/0.2.0/arm/arm-none-eabi/include/c++/10.3.1/bits/stl_pair.h ****       : first(), second() { }
 247:/Library/DaisyToolchain/0.2.0/arm/arm-none-eabi/include/c++/10.3.1/bits/stl_pair.h **** #endif
 248:/Library/DaisyToolchain/0.2.0/arm/arm-none-eabi/include/c++/10.3.1/bits/stl_pair.h **** 
 249:/Library/DaisyToolchain/0.2.0/arm/arm-none-eabi/include/c++/10.3.1/bits/stl_pair.h **** #if __cplusplus < 201103L
 250:/Library/DaisyToolchain/0.2.0/arm/arm-none-eabi/include/c++/10.3.1/bits/stl_pair.h ****       /// Two objects may be passed to a @c pair constructor to be copied.
 251:/Library/DaisyToolchain/0.2.0/arm/arm-none-eabi/include/c++/10.3.1/bits/stl_pair.h ****       pair(const _T1& __a, const _T2& __b)
 252:/Library/DaisyToolchain/0.2.0/arm/arm-none-eabi/include/c++/10.3.1/bits/stl_pair.h ****       : first(__a), second(__b) { }
 253:/Library/DaisyToolchain/0.2.0/arm/arm-none-eabi/include/c++/10.3.1/bits/stl_pair.h **** #else
 254:/Library/DaisyToolchain/0.2.0/arm/arm-none-eabi/include/c++/10.3.1/bits/stl_pair.h ****       // Shortcut for constraining the templates that don't take pairs.
 255:/Library/DaisyToolchain/0.2.0/arm/arm-none-eabi/include/c++/10.3.1/bits/stl_pair.h ****       /// @cond undocumented
 256:/Library/DaisyToolchain/0.2.0/arm/arm-none-eabi/include/c++/10.3.1/bits/stl_pair.h ****       using _PCCP = _PCC<true, _T1, _T2>;
 257:/Library/DaisyToolchain/0.2.0/arm/arm-none-eabi/include/c++/10.3.1/bits/stl_pair.h ****       /// @endcond
 258:/Library/DaisyToolchain/0.2.0/arm/arm-none-eabi/include/c++/10.3.1/bits/stl_pair.h **** 
 259:/Library/DaisyToolchain/0.2.0/arm/arm-none-eabi/include/c++/10.3.1/bits/stl_pair.h ****       /// Construct from two const lvalues, allowing implicit conversions.
 260:/Library/DaisyToolchain/0.2.0/arm/arm-none-eabi/include/c++/10.3.1/bits/stl_pair.h ****       template<typename _U1 = _T1, typename _U2=_T2, typename
 261:/Library/DaisyToolchain/0.2.0/arm/arm-none-eabi/include/c++/10.3.1/bits/stl_pair.h **** 	       enable_if<_PCCP::template
 262:/Library/DaisyToolchain/0.2.0/arm/arm-none-eabi/include/c++/10.3.1/bits/stl_pair.h **** 			   _ConstructiblePair<_U1, _U2>()
 263:/Library/DaisyToolchain/0.2.0/arm/arm-none-eabi/include/c++/10.3.1/bits/stl_pair.h **** 	                 && _PCCP::template
ARM GAS  /var/folders/wz/z09yph4n0qj4t7mjxhl6ttn80000gn/T//cco13aXs.s 			page 18


 264:/Library/DaisyToolchain/0.2.0/arm/arm-none-eabi/include/c++/10.3.1/bits/stl_pair.h **** 			   _ImplicitlyConvertiblePair<_U1, _U2>(),
 265:/Library/DaisyToolchain/0.2.0/arm/arm-none-eabi/include/c++/10.3.1/bits/stl_pair.h ****                          bool>::type=true>
 266:/Library/DaisyToolchain/0.2.0/arm/arm-none-eabi/include/c++/10.3.1/bits/stl_pair.h ****       constexpr pair(const _T1& __a, const _T2& __b)
 267:/Library/DaisyToolchain/0.2.0/arm/arm-none-eabi/include/c++/10.3.1/bits/stl_pair.h ****       : first(__a), second(__b) { }
 268:/Library/DaisyToolchain/0.2.0/arm/arm-none-eabi/include/c++/10.3.1/bits/stl_pair.h **** 
 269:/Library/DaisyToolchain/0.2.0/arm/arm-none-eabi/include/c++/10.3.1/bits/stl_pair.h ****       /// Construct from two const lvalues, disallowing implicit conversions.
 270:/Library/DaisyToolchain/0.2.0/arm/arm-none-eabi/include/c++/10.3.1/bits/stl_pair.h ****        template<typename _U1 = _T1, typename _U2=_T2, typename
 271:/Library/DaisyToolchain/0.2.0/arm/arm-none-eabi/include/c++/10.3.1/bits/stl_pair.h **** 		enable_if<_PCCP::template
 272:/Library/DaisyToolchain/0.2.0/arm/arm-none-eabi/include/c++/10.3.1/bits/stl_pair.h **** 			    _ConstructiblePair<_U1, _U2>()
 273:/Library/DaisyToolchain/0.2.0/arm/arm-none-eabi/include/c++/10.3.1/bits/stl_pair.h **** 	                  && !_PCCP::template
 274:/Library/DaisyToolchain/0.2.0/arm/arm-none-eabi/include/c++/10.3.1/bits/stl_pair.h **** 			    _ImplicitlyConvertiblePair<_U1, _U2>(),
 275:/Library/DaisyToolchain/0.2.0/arm/arm-none-eabi/include/c++/10.3.1/bits/stl_pair.h ****                          bool>::type=false>
 276:/Library/DaisyToolchain/0.2.0/arm/arm-none-eabi/include/c++/10.3.1/bits/stl_pair.h ****       explicit constexpr pair(const _T1& __a, const _T2& __b)
 277:/Library/DaisyToolchain/0.2.0/arm/arm-none-eabi/include/c++/10.3.1/bits/stl_pair.h ****       : first(__a), second(__b) { }
 278:/Library/DaisyToolchain/0.2.0/arm/arm-none-eabi/include/c++/10.3.1/bits/stl_pair.h **** #endif
 279:/Library/DaisyToolchain/0.2.0/arm/arm-none-eabi/include/c++/10.3.1/bits/stl_pair.h **** 
 280:/Library/DaisyToolchain/0.2.0/arm/arm-none-eabi/include/c++/10.3.1/bits/stl_pair.h **** #if __cplusplus < 201103L
 281:/Library/DaisyToolchain/0.2.0/arm/arm-none-eabi/include/c++/10.3.1/bits/stl_pair.h ****       /// There is also a templated constructor to convert from other pairs.
 282:/Library/DaisyToolchain/0.2.0/arm/arm-none-eabi/include/c++/10.3.1/bits/stl_pair.h ****       template<typename _U1, typename _U2>
 283:/Library/DaisyToolchain/0.2.0/arm/arm-none-eabi/include/c++/10.3.1/bits/stl_pair.h **** 	pair(const pair<_U1, _U2>& __p)
 284:/Library/DaisyToolchain/0.2.0/arm/arm-none-eabi/include/c++/10.3.1/bits/stl_pair.h **** 	: first(__p.first), second(__p.second) { }
 285:/Library/DaisyToolchain/0.2.0/arm/arm-none-eabi/include/c++/10.3.1/bits/stl_pair.h **** #else
 286:/Library/DaisyToolchain/0.2.0/arm/arm-none-eabi/include/c++/10.3.1/bits/stl_pair.h ****       // Shortcut for constraining the templates that take pairs.
 287:/Library/DaisyToolchain/0.2.0/arm/arm-none-eabi/include/c++/10.3.1/bits/stl_pair.h ****       /// @cond undocumented
 288:/Library/DaisyToolchain/0.2.0/arm/arm-none-eabi/include/c++/10.3.1/bits/stl_pair.h ****       template <typename _U1, typename _U2>
 289:/Library/DaisyToolchain/0.2.0/arm/arm-none-eabi/include/c++/10.3.1/bits/stl_pair.h ****         using _PCCFP = _PCC<!is_same<_T1, _U1>::value
 290:/Library/DaisyToolchain/0.2.0/arm/arm-none-eabi/include/c++/10.3.1/bits/stl_pair.h **** 			    || !is_same<_T2, _U2>::value,
 291:/Library/DaisyToolchain/0.2.0/arm/arm-none-eabi/include/c++/10.3.1/bits/stl_pair.h **** 			    _T1, _T2>;
 292:/Library/DaisyToolchain/0.2.0/arm/arm-none-eabi/include/c++/10.3.1/bits/stl_pair.h ****       /// @endcond
 293:/Library/DaisyToolchain/0.2.0/arm/arm-none-eabi/include/c++/10.3.1/bits/stl_pair.h **** 
 294:/Library/DaisyToolchain/0.2.0/arm/arm-none-eabi/include/c++/10.3.1/bits/stl_pair.h ****       template<typename _U1, typename _U2, typename
 295:/Library/DaisyToolchain/0.2.0/arm/arm-none-eabi/include/c++/10.3.1/bits/stl_pair.h **** 	       enable_if<_PCCFP<_U1, _U2>::template
 296:/Library/DaisyToolchain/0.2.0/arm/arm-none-eabi/include/c++/10.3.1/bits/stl_pair.h **** 			   _ConstructiblePair<_U1, _U2>()
 297:/Library/DaisyToolchain/0.2.0/arm/arm-none-eabi/include/c++/10.3.1/bits/stl_pair.h **** 	                 && _PCCFP<_U1, _U2>::template
 298:/Library/DaisyToolchain/0.2.0/arm/arm-none-eabi/include/c++/10.3.1/bits/stl_pair.h **** 			   _ImplicitlyConvertiblePair<_U1, _U2>(),
 299:/Library/DaisyToolchain/0.2.0/arm/arm-none-eabi/include/c++/10.3.1/bits/stl_pair.h **** 			  bool>::type=true>
 300:/Library/DaisyToolchain/0.2.0/arm/arm-none-eabi/include/c++/10.3.1/bits/stl_pair.h ****         constexpr pair(const pair<_U1, _U2>& __p)
 301:/Library/DaisyToolchain/0.2.0/arm/arm-none-eabi/include/c++/10.3.1/bits/stl_pair.h ****         : first(__p.first), second(__p.second) { }
 302:/Library/DaisyToolchain/0.2.0/arm/arm-none-eabi/include/c++/10.3.1/bits/stl_pair.h **** 
 303:/Library/DaisyToolchain/0.2.0/arm/arm-none-eabi/include/c++/10.3.1/bits/stl_pair.h ****       template<typename _U1, typename _U2, typename
 304:/Library/DaisyToolchain/0.2.0/arm/arm-none-eabi/include/c++/10.3.1/bits/stl_pair.h **** 	       enable_if<_PCCFP<_U1, _U2>::template
 305:/Library/DaisyToolchain/0.2.0/arm/arm-none-eabi/include/c++/10.3.1/bits/stl_pair.h **** 			   _ConstructiblePair<_U1, _U2>()
 306:/Library/DaisyToolchain/0.2.0/arm/arm-none-eabi/include/c++/10.3.1/bits/stl_pair.h **** 			 && !_PCCFP<_U1, _U2>::template
 307:/Library/DaisyToolchain/0.2.0/arm/arm-none-eabi/include/c++/10.3.1/bits/stl_pair.h **** 			   _ImplicitlyConvertiblePair<_U1, _U2>(),
 308:/Library/DaisyToolchain/0.2.0/arm/arm-none-eabi/include/c++/10.3.1/bits/stl_pair.h ****                          bool>::type=false>
 309:/Library/DaisyToolchain/0.2.0/arm/arm-none-eabi/include/c++/10.3.1/bits/stl_pair.h **** 	explicit constexpr pair(const pair<_U1, _U2>& __p)
 310:/Library/DaisyToolchain/0.2.0/arm/arm-none-eabi/include/c++/10.3.1/bits/stl_pair.h **** 	: first(__p.first), second(__p.second) { }
 311:/Library/DaisyToolchain/0.2.0/arm/arm-none-eabi/include/c++/10.3.1/bits/stl_pair.h **** #endif
 312:/Library/DaisyToolchain/0.2.0/arm/arm-none-eabi/include/c++/10.3.1/bits/stl_pair.h **** 
 313:/Library/DaisyToolchain/0.2.0/arm/arm-none-eabi/include/c++/10.3.1/bits/stl_pair.h **** #if __cplusplus >= 201103L
 314:/Library/DaisyToolchain/0.2.0/arm/arm-none-eabi/include/c++/10.3.1/bits/stl_pair.h ****       constexpr pair(const pair&) = default;	///< Copy constructor
 315:/Library/DaisyToolchain/0.2.0/arm/arm-none-eabi/include/c++/10.3.1/bits/stl_pair.h ****       constexpr pair(pair&&) = default;		///< Move constructor
 316:/Library/DaisyToolchain/0.2.0/arm/arm-none-eabi/include/c++/10.3.1/bits/stl_pair.h **** 
 317:/Library/DaisyToolchain/0.2.0/arm/arm-none-eabi/include/c++/10.3.1/bits/stl_pair.h ****       // DR 811.
 318:/Library/DaisyToolchain/0.2.0/arm/arm-none-eabi/include/c++/10.3.1/bits/stl_pair.h ****       template<typename _U1, typename
 319:/Library/DaisyToolchain/0.2.0/arm/arm-none-eabi/include/c++/10.3.1/bits/stl_pair.h **** 	       enable_if<_PCCP::template
 320:/Library/DaisyToolchain/0.2.0/arm/arm-none-eabi/include/c++/10.3.1/bits/stl_pair.h **** 			   _MoveCopyPair<true, _U1, _T2>(),
ARM GAS  /var/folders/wz/z09yph4n0qj4t7mjxhl6ttn80000gn/T//cco13aXs.s 			page 19


 321:/Library/DaisyToolchain/0.2.0/arm/arm-none-eabi/include/c++/10.3.1/bits/stl_pair.h ****                          bool>::type=true>
 322:/Library/DaisyToolchain/0.2.0/arm/arm-none-eabi/include/c++/10.3.1/bits/stl_pair.h ****        constexpr pair(_U1&& __x, const _T2& __y)
 323:/Library/DaisyToolchain/0.2.0/arm/arm-none-eabi/include/c++/10.3.1/bits/stl_pair.h ****        : first(std::forward<_U1>(__x)), second(__y) { }
 324:/Library/DaisyToolchain/0.2.0/arm/arm-none-eabi/include/c++/10.3.1/bits/stl_pair.h **** 
 325:/Library/DaisyToolchain/0.2.0/arm/arm-none-eabi/include/c++/10.3.1/bits/stl_pair.h ****       template<typename _U1, typename
 326:/Library/DaisyToolchain/0.2.0/arm/arm-none-eabi/include/c++/10.3.1/bits/stl_pair.h **** 	       enable_if<_PCCP::template
 327:/Library/DaisyToolchain/0.2.0/arm/arm-none-eabi/include/c++/10.3.1/bits/stl_pair.h **** 			   _MoveCopyPair<false, _U1, _T2>(),
 328:/Library/DaisyToolchain/0.2.0/arm/arm-none-eabi/include/c++/10.3.1/bits/stl_pair.h ****                          bool>::type=false>
 329:/Library/DaisyToolchain/0.2.0/arm/arm-none-eabi/include/c++/10.3.1/bits/stl_pair.h ****        explicit constexpr pair(_U1&& __x, const _T2& __y)
 330:/Library/DaisyToolchain/0.2.0/arm/arm-none-eabi/include/c++/10.3.1/bits/stl_pair.h ****        : first(std::forward<_U1>(__x)), second(__y) { }
 331:/Library/DaisyToolchain/0.2.0/arm/arm-none-eabi/include/c++/10.3.1/bits/stl_pair.h **** 
 332:/Library/DaisyToolchain/0.2.0/arm/arm-none-eabi/include/c++/10.3.1/bits/stl_pair.h ****       template<typename _U2, typename
 333:/Library/DaisyToolchain/0.2.0/arm/arm-none-eabi/include/c++/10.3.1/bits/stl_pair.h **** 	       enable_if<_PCCP::template
 334:/Library/DaisyToolchain/0.2.0/arm/arm-none-eabi/include/c++/10.3.1/bits/stl_pair.h **** 			   _CopyMovePair<true, _T1, _U2>(),
 335:/Library/DaisyToolchain/0.2.0/arm/arm-none-eabi/include/c++/10.3.1/bits/stl_pair.h ****                          bool>::type=true>
 336:/Library/DaisyToolchain/0.2.0/arm/arm-none-eabi/include/c++/10.3.1/bits/stl_pair.h ****        constexpr pair(const _T1& __x, _U2&& __y)
 337:/Library/DaisyToolchain/0.2.0/arm/arm-none-eabi/include/c++/10.3.1/bits/stl_pair.h ****        : first(__x), second(std::forward<_U2>(__y)) { }
 338:/Library/DaisyToolchain/0.2.0/arm/arm-none-eabi/include/c++/10.3.1/bits/stl_pair.h **** 
 339:/Library/DaisyToolchain/0.2.0/arm/arm-none-eabi/include/c++/10.3.1/bits/stl_pair.h ****       template<typename _U2, typename
 340:/Library/DaisyToolchain/0.2.0/arm/arm-none-eabi/include/c++/10.3.1/bits/stl_pair.h **** 	       enable_if<_PCCP::template
 341:/Library/DaisyToolchain/0.2.0/arm/arm-none-eabi/include/c++/10.3.1/bits/stl_pair.h **** 			   _CopyMovePair<false, _T1, _U2>(),
 342:/Library/DaisyToolchain/0.2.0/arm/arm-none-eabi/include/c++/10.3.1/bits/stl_pair.h ****                          bool>::type=false>
 343:/Library/DaisyToolchain/0.2.0/arm/arm-none-eabi/include/c++/10.3.1/bits/stl_pair.h ****        explicit pair(const _T1& __x, _U2&& __y)
 344:/Library/DaisyToolchain/0.2.0/arm/arm-none-eabi/include/c++/10.3.1/bits/stl_pair.h ****        : first(__x), second(std::forward<_U2>(__y)) { }
 345:/Library/DaisyToolchain/0.2.0/arm/arm-none-eabi/include/c++/10.3.1/bits/stl_pair.h **** 
 346:/Library/DaisyToolchain/0.2.0/arm/arm-none-eabi/include/c++/10.3.1/bits/stl_pair.h ****       template<typename _U1, typename _U2, typename
 347:/Library/DaisyToolchain/0.2.0/arm/arm-none-eabi/include/c++/10.3.1/bits/stl_pair.h **** 	       enable_if<_PCCP::template
 348:/Library/DaisyToolchain/0.2.0/arm/arm-none-eabi/include/c++/10.3.1/bits/stl_pair.h **** 			   _MoveConstructiblePair<_U1, _U2>()
 349:/Library/DaisyToolchain/0.2.0/arm/arm-none-eabi/include/c++/10.3.1/bits/stl_pair.h **** 			  && _PCCP::template
 350:/Library/DaisyToolchain/0.2.0/arm/arm-none-eabi/include/c++/10.3.1/bits/stl_pair.h **** 			   _ImplicitlyMoveConvertiblePair<_U1, _U2>(),
 351:/Library/DaisyToolchain/0.2.0/arm/arm-none-eabi/include/c++/10.3.1/bits/stl_pair.h ****                          bool>::type=true>
 352:/Library/DaisyToolchain/0.2.0/arm/arm-none-eabi/include/c++/10.3.1/bits/stl_pair.h **** 	constexpr pair(_U1&& __x, _U2&& __y)
 353:/Library/DaisyToolchain/0.2.0/arm/arm-none-eabi/include/c++/10.3.1/bits/stl_pair.h **** 	: first(std::forward<_U1>(__x)), second(std::forward<_U2>(__y)) { }
 354:/Library/DaisyToolchain/0.2.0/arm/arm-none-eabi/include/c++/10.3.1/bits/stl_pair.h **** 
 355:/Library/DaisyToolchain/0.2.0/arm/arm-none-eabi/include/c++/10.3.1/bits/stl_pair.h ****       template<typename _U1, typename _U2, typename
 356:/Library/DaisyToolchain/0.2.0/arm/arm-none-eabi/include/c++/10.3.1/bits/stl_pair.h **** 	       enable_if<_PCCP::template
 357:/Library/DaisyToolchain/0.2.0/arm/arm-none-eabi/include/c++/10.3.1/bits/stl_pair.h **** 			   _MoveConstructiblePair<_U1, _U2>()
 358:/Library/DaisyToolchain/0.2.0/arm/arm-none-eabi/include/c++/10.3.1/bits/stl_pair.h **** 			  && !_PCCP::template
 359:/Library/DaisyToolchain/0.2.0/arm/arm-none-eabi/include/c++/10.3.1/bits/stl_pair.h **** 			   _ImplicitlyMoveConvertiblePair<_U1, _U2>(),
 360:/Library/DaisyToolchain/0.2.0/arm/arm-none-eabi/include/c++/10.3.1/bits/stl_pair.h ****                          bool>::type=false>
 361:/Library/DaisyToolchain/0.2.0/arm/arm-none-eabi/include/c++/10.3.1/bits/stl_pair.h **** 	explicit constexpr pair(_U1&& __x, _U2&& __y)
 362:/Library/DaisyToolchain/0.2.0/arm/arm-none-eabi/include/c++/10.3.1/bits/stl_pair.h **** 	: first(std::forward<_U1>(__x)), second(std::forward<_U2>(__y)) { }
 363:/Library/DaisyToolchain/0.2.0/arm/arm-none-eabi/include/c++/10.3.1/bits/stl_pair.h **** 
 364:/Library/DaisyToolchain/0.2.0/arm/arm-none-eabi/include/c++/10.3.1/bits/stl_pair.h **** 
 365:/Library/DaisyToolchain/0.2.0/arm/arm-none-eabi/include/c++/10.3.1/bits/stl_pair.h ****       template<typename _U1, typename _U2, typename
 366:/Library/DaisyToolchain/0.2.0/arm/arm-none-eabi/include/c++/10.3.1/bits/stl_pair.h **** 	       enable_if<_PCCFP<_U1, _U2>::template
 367:/Library/DaisyToolchain/0.2.0/arm/arm-none-eabi/include/c++/10.3.1/bits/stl_pair.h **** 			   _MoveConstructiblePair<_U1, _U2>()
 368:/Library/DaisyToolchain/0.2.0/arm/arm-none-eabi/include/c++/10.3.1/bits/stl_pair.h **** 			  && _PCCFP<_U1, _U2>::template
 369:/Library/DaisyToolchain/0.2.0/arm/arm-none-eabi/include/c++/10.3.1/bits/stl_pair.h **** 			   _ImplicitlyMoveConvertiblePair<_U1, _U2>(),
 370:/Library/DaisyToolchain/0.2.0/arm/arm-none-eabi/include/c++/10.3.1/bits/stl_pair.h ****                          bool>::type=true>
 371:/Library/DaisyToolchain/0.2.0/arm/arm-none-eabi/include/c++/10.3.1/bits/stl_pair.h **** 	constexpr pair(pair<_U1, _U2>&& __p)
 372:/Library/DaisyToolchain/0.2.0/arm/arm-none-eabi/include/c++/10.3.1/bits/stl_pair.h **** 	: first(std::forward<_U1>(__p.first)),
 373:/Library/DaisyToolchain/0.2.0/arm/arm-none-eabi/include/c++/10.3.1/bits/stl_pair.h **** 	  second(std::forward<_U2>(__p.second)) { }
 374:/Library/DaisyToolchain/0.2.0/arm/arm-none-eabi/include/c++/10.3.1/bits/stl_pair.h **** 
 375:/Library/DaisyToolchain/0.2.0/arm/arm-none-eabi/include/c++/10.3.1/bits/stl_pair.h ****       template<typename _U1, typename _U2, typename
 376:/Library/DaisyToolchain/0.2.0/arm/arm-none-eabi/include/c++/10.3.1/bits/stl_pair.h **** 	       enable_if<_PCCFP<_U1, _U2>::template
 377:/Library/DaisyToolchain/0.2.0/arm/arm-none-eabi/include/c++/10.3.1/bits/stl_pair.h **** 			   _MoveConstructiblePair<_U1, _U2>()
ARM GAS  /var/folders/wz/z09yph4n0qj4t7mjxhl6ttn80000gn/T//cco13aXs.s 			page 20


 378:/Library/DaisyToolchain/0.2.0/arm/arm-none-eabi/include/c++/10.3.1/bits/stl_pair.h **** 			  && !_PCCFP<_U1, _U2>::template
 379:/Library/DaisyToolchain/0.2.0/arm/arm-none-eabi/include/c++/10.3.1/bits/stl_pair.h **** 			   _ImplicitlyMoveConvertiblePair<_U1, _U2>(),
 380:/Library/DaisyToolchain/0.2.0/arm/arm-none-eabi/include/c++/10.3.1/bits/stl_pair.h ****                          bool>::type=false>
 381:/Library/DaisyToolchain/0.2.0/arm/arm-none-eabi/include/c++/10.3.1/bits/stl_pair.h **** 	explicit constexpr pair(pair<_U1, _U2>&& __p)
 382:/Library/DaisyToolchain/0.2.0/arm/arm-none-eabi/include/c++/10.3.1/bits/stl_pair.h **** 	: first(std::forward<_U1>(__p.first)),
 383:/Library/DaisyToolchain/0.2.0/arm/arm-none-eabi/include/c++/10.3.1/bits/stl_pair.h **** 	  second(std::forward<_U2>(__p.second)) { }
 384:/Library/DaisyToolchain/0.2.0/arm/arm-none-eabi/include/c++/10.3.1/bits/stl_pair.h **** 
 385:/Library/DaisyToolchain/0.2.0/arm/arm-none-eabi/include/c++/10.3.1/bits/stl_pair.h ****       template<typename... _Args1, typename... _Args2>
 386:/Library/DaisyToolchain/0.2.0/arm/arm-none-eabi/include/c++/10.3.1/bits/stl_pair.h **** 	_GLIBCXX20_CONSTEXPR
 387:/Library/DaisyToolchain/0.2.0/arm/arm-none-eabi/include/c++/10.3.1/bits/stl_pair.h ****         pair(piecewise_construct_t, tuple<_Args1...>, tuple<_Args2...>);
 388:/Library/DaisyToolchain/0.2.0/arm/arm-none-eabi/include/c++/10.3.1/bits/stl_pair.h **** 
 389:/Library/DaisyToolchain/0.2.0/arm/arm-none-eabi/include/c++/10.3.1/bits/stl_pair.h ****       _GLIBCXX20_CONSTEXPR pair&
 390:/Library/DaisyToolchain/0.2.0/arm/arm-none-eabi/include/c++/10.3.1/bits/stl_pair.h ****       operator=(typename conditional<
 391:/Library/DaisyToolchain/0.2.0/arm/arm-none-eabi/include/c++/10.3.1/bits/stl_pair.h **** 		__and_<is_copy_assignable<_T1>,
 392:/Library/DaisyToolchain/0.2.0/arm/arm-none-eabi/include/c++/10.3.1/bits/stl_pair.h **** 		       is_copy_assignable<_T2>>::value,
 393:/Library/DaisyToolchain/0.2.0/arm/arm-none-eabi/include/c++/10.3.1/bits/stl_pair.h **** 		const pair&, const __nonesuch&>::type __p)
 394:/Library/DaisyToolchain/0.2.0/arm/arm-none-eabi/include/c++/10.3.1/bits/stl_pair.h ****       {
 395:/Library/DaisyToolchain/0.2.0/arm/arm-none-eabi/include/c++/10.3.1/bits/stl_pair.h **** 	first = __p.first;
 396:/Library/DaisyToolchain/0.2.0/arm/arm-none-eabi/include/c++/10.3.1/bits/stl_pair.h **** 	second = __p.second;
 397:/Library/DaisyToolchain/0.2.0/arm/arm-none-eabi/include/c++/10.3.1/bits/stl_pair.h **** 	return *this;
 398:/Library/DaisyToolchain/0.2.0/arm/arm-none-eabi/include/c++/10.3.1/bits/stl_pair.h ****       }
 399:/Library/DaisyToolchain/0.2.0/arm/arm-none-eabi/include/c++/10.3.1/bits/stl_pair.h **** 
 400:/Library/DaisyToolchain/0.2.0/arm/arm-none-eabi/include/c++/10.3.1/bits/stl_pair.h ****       _GLIBCXX20_CONSTEXPR pair&
 401:/Library/DaisyToolchain/0.2.0/arm/arm-none-eabi/include/c++/10.3.1/bits/stl_pair.h ****       operator=(typename conditional<
 402:/Library/DaisyToolchain/0.2.0/arm/arm-none-eabi/include/c++/10.3.1/bits/stl_pair.h **** 		__and_<is_move_assignable<_T1>,
 403:/Library/DaisyToolchain/0.2.0/arm/arm-none-eabi/include/c++/10.3.1/bits/stl_pair.h **** 		       is_move_assignable<_T2>>::value,
 404:/Library/DaisyToolchain/0.2.0/arm/arm-none-eabi/include/c++/10.3.1/bits/stl_pair.h **** 		pair&&, __nonesuch&&>::type __p)
 405:/Library/DaisyToolchain/0.2.0/arm/arm-none-eabi/include/c++/10.3.1/bits/stl_pair.h ****       noexcept(__and_<is_nothrow_move_assignable<_T1>,
 406:/Library/DaisyToolchain/0.2.0/arm/arm-none-eabi/include/c++/10.3.1/bits/stl_pair.h **** 		      is_nothrow_move_assignable<_T2>>::value)
 407:/Library/DaisyToolchain/0.2.0/arm/arm-none-eabi/include/c++/10.3.1/bits/stl_pair.h ****       {
 408:/Library/DaisyToolchain/0.2.0/arm/arm-none-eabi/include/c++/10.3.1/bits/stl_pair.h **** 	first = std::forward<first_type>(__p.first);
 409:/Library/DaisyToolchain/0.2.0/arm/arm-none-eabi/include/c++/10.3.1/bits/stl_pair.h **** 	second = std::forward<second_type>(__p.second);
 410:/Library/DaisyToolchain/0.2.0/arm/arm-none-eabi/include/c++/10.3.1/bits/stl_pair.h **** 	return *this;
 411:/Library/DaisyToolchain/0.2.0/arm/arm-none-eabi/include/c++/10.3.1/bits/stl_pair.h ****       }
 412:/Library/DaisyToolchain/0.2.0/arm/arm-none-eabi/include/c++/10.3.1/bits/stl_pair.h **** 
 413:/Library/DaisyToolchain/0.2.0/arm/arm-none-eabi/include/c++/10.3.1/bits/stl_pair.h ****       template<typename _U1, typename _U2>
 414:/Library/DaisyToolchain/0.2.0/arm/arm-none-eabi/include/c++/10.3.1/bits/stl_pair.h **** 	_GLIBCXX20_CONSTEXPR
 415:/Library/DaisyToolchain/0.2.0/arm/arm-none-eabi/include/c++/10.3.1/bits/stl_pair.h **** 	typename enable_if<__and_<is_assignable<_T1&, const _U1&>,
 416:/Library/DaisyToolchain/0.2.0/arm/arm-none-eabi/include/c++/10.3.1/bits/stl_pair.h **** 				  is_assignable<_T2&, const _U2&>>::value,
 417:/Library/DaisyToolchain/0.2.0/arm/arm-none-eabi/include/c++/10.3.1/bits/stl_pair.h **** 			   pair&>::type
 418:/Library/DaisyToolchain/0.2.0/arm/arm-none-eabi/include/c++/10.3.1/bits/stl_pair.h **** 	operator=(const pair<_U1, _U2>& __p)
 419:/Library/DaisyToolchain/0.2.0/arm/arm-none-eabi/include/c++/10.3.1/bits/stl_pair.h **** 	{
 420:/Library/DaisyToolchain/0.2.0/arm/arm-none-eabi/include/c++/10.3.1/bits/stl_pair.h **** 	  first = __p.first;
 421:/Library/DaisyToolchain/0.2.0/arm/arm-none-eabi/include/c++/10.3.1/bits/stl_pair.h **** 	  second = __p.second;
 422:/Library/DaisyToolchain/0.2.0/arm/arm-none-eabi/include/c++/10.3.1/bits/stl_pair.h **** 	  return *this;
 423:/Library/DaisyToolchain/0.2.0/arm/arm-none-eabi/include/c++/10.3.1/bits/stl_pair.h **** 	}
 424:/Library/DaisyToolchain/0.2.0/arm/arm-none-eabi/include/c++/10.3.1/bits/stl_pair.h **** 
 425:/Library/DaisyToolchain/0.2.0/arm/arm-none-eabi/include/c++/10.3.1/bits/stl_pair.h ****       template<typename _U1, typename _U2>
 426:/Library/DaisyToolchain/0.2.0/arm/arm-none-eabi/include/c++/10.3.1/bits/stl_pair.h **** 	_GLIBCXX20_CONSTEXPR
 427:/Library/DaisyToolchain/0.2.0/arm/arm-none-eabi/include/c++/10.3.1/bits/stl_pair.h **** 	typename enable_if<__and_<is_assignable<_T1&, _U1&&>,
 428:/Library/DaisyToolchain/0.2.0/arm/arm-none-eabi/include/c++/10.3.1/bits/stl_pair.h **** 				  is_assignable<_T2&, _U2&&>>::value,
 429:/Library/DaisyToolchain/0.2.0/arm/arm-none-eabi/include/c++/10.3.1/bits/stl_pair.h **** 			   pair&>::type
 430:/Library/DaisyToolchain/0.2.0/arm/arm-none-eabi/include/c++/10.3.1/bits/stl_pair.h **** 	operator=(pair<_U1, _U2>&& __p)
 431:/Library/DaisyToolchain/0.2.0/arm/arm-none-eabi/include/c++/10.3.1/bits/stl_pair.h **** 	{
 432:/Library/DaisyToolchain/0.2.0/arm/arm-none-eabi/include/c++/10.3.1/bits/stl_pair.h **** 	  first = std::forward<_U1>(__p.first);
 433:/Library/DaisyToolchain/0.2.0/arm/arm-none-eabi/include/c++/10.3.1/bits/stl_pair.h **** 	  second = std::forward<_U2>(__p.second);
 434:/Library/DaisyToolchain/0.2.0/arm/arm-none-eabi/include/c++/10.3.1/bits/stl_pair.h **** 	  return *this;
ARM GAS  /var/folders/wz/z09yph4n0qj4t7mjxhl6ttn80000gn/T//cco13aXs.s 			page 21


 435:/Library/DaisyToolchain/0.2.0/arm/arm-none-eabi/include/c++/10.3.1/bits/stl_pair.h **** 	}
 436:/Library/DaisyToolchain/0.2.0/arm/arm-none-eabi/include/c++/10.3.1/bits/stl_pair.h **** 
 437:/Library/DaisyToolchain/0.2.0/arm/arm-none-eabi/include/c++/10.3.1/bits/stl_pair.h ****       /// Swap the first members and then the second members.
 438:/Library/DaisyToolchain/0.2.0/arm/arm-none-eabi/include/c++/10.3.1/bits/stl_pair.h ****       _GLIBCXX20_CONSTEXPR void
 439:/Library/DaisyToolchain/0.2.0/arm/arm-none-eabi/include/c++/10.3.1/bits/stl_pair.h ****       swap(pair& __p)
 440:/Library/DaisyToolchain/0.2.0/arm/arm-none-eabi/include/c++/10.3.1/bits/stl_pair.h ****       noexcept(__and_<__is_nothrow_swappable<_T1>,
 441:/Library/DaisyToolchain/0.2.0/arm/arm-none-eabi/include/c++/10.3.1/bits/stl_pair.h ****                       __is_nothrow_swappable<_T2>>::value)
 442:/Library/DaisyToolchain/0.2.0/arm/arm-none-eabi/include/c++/10.3.1/bits/stl_pair.h ****       {
 443:/Library/DaisyToolchain/0.2.0/arm/arm-none-eabi/include/c++/10.3.1/bits/stl_pair.h **** 	using std::swap;
 444:/Library/DaisyToolchain/0.2.0/arm/arm-none-eabi/include/c++/10.3.1/bits/stl_pair.h **** 	swap(first, __p.first);
 445:/Library/DaisyToolchain/0.2.0/arm/arm-none-eabi/include/c++/10.3.1/bits/stl_pair.h **** 	swap(second, __p.second);
 446:/Library/DaisyToolchain/0.2.0/arm/arm-none-eabi/include/c++/10.3.1/bits/stl_pair.h ****       }
 447:/Library/DaisyToolchain/0.2.0/arm/arm-none-eabi/include/c++/10.3.1/bits/stl_pair.h **** 
 448:/Library/DaisyToolchain/0.2.0/arm/arm-none-eabi/include/c++/10.3.1/bits/stl_pair.h ****     private:
 449:/Library/DaisyToolchain/0.2.0/arm/arm-none-eabi/include/c++/10.3.1/bits/stl_pair.h ****       template<typename... _Args1, std::size_t... _Indexes1,
 450:/Library/DaisyToolchain/0.2.0/arm/arm-none-eabi/include/c++/10.3.1/bits/stl_pair.h ****                typename... _Args2, std::size_t... _Indexes2>
 451:/Library/DaisyToolchain/0.2.0/arm/arm-none-eabi/include/c++/10.3.1/bits/stl_pair.h **** 	_GLIBCXX20_CONSTEXPR
 452:/Library/DaisyToolchain/0.2.0/arm/arm-none-eabi/include/c++/10.3.1/bits/stl_pair.h ****         pair(tuple<_Args1...>&, tuple<_Args2...>&,
 453:/Library/DaisyToolchain/0.2.0/arm/arm-none-eabi/include/c++/10.3.1/bits/stl_pair.h ****              _Index_tuple<_Indexes1...>, _Index_tuple<_Indexes2...>);
 454:/Library/DaisyToolchain/0.2.0/arm/arm-none-eabi/include/c++/10.3.1/bits/stl_pair.h **** #endif // C++11
 455:/Library/DaisyToolchain/0.2.0/arm/arm-none-eabi/include/c++/10.3.1/bits/stl_pair.h ****     };
 456:/Library/DaisyToolchain/0.2.0/arm/arm-none-eabi/include/c++/10.3.1/bits/stl_pair.h **** 
 457:/Library/DaisyToolchain/0.2.0/arm/arm-none-eabi/include/c++/10.3.1/bits/stl_pair.h ****   /// @relates pair @{
 458:/Library/DaisyToolchain/0.2.0/arm/arm-none-eabi/include/c++/10.3.1/bits/stl_pair.h **** 
 459:/Library/DaisyToolchain/0.2.0/arm/arm-none-eabi/include/c++/10.3.1/bits/stl_pair.h **** #if __cpp_deduction_guides >= 201606
 460:/Library/DaisyToolchain/0.2.0/arm/arm-none-eabi/include/c++/10.3.1/bits/stl_pair.h ****   template<typename _T1, typename _T2> pair(_T1, _T2) -> pair<_T1, _T2>;
 461:/Library/DaisyToolchain/0.2.0/arm/arm-none-eabi/include/c++/10.3.1/bits/stl_pair.h **** #endif
 462:/Library/DaisyToolchain/0.2.0/arm/arm-none-eabi/include/c++/10.3.1/bits/stl_pair.h **** 
 463:/Library/DaisyToolchain/0.2.0/arm/arm-none-eabi/include/c++/10.3.1/bits/stl_pair.h ****   /// Two pairs of the same type are equal iff their members are equal.
 464:/Library/DaisyToolchain/0.2.0/arm/arm-none-eabi/include/c++/10.3.1/bits/stl_pair.h ****   template<typename _T1, typename _T2>
 465:/Library/DaisyToolchain/0.2.0/arm/arm-none-eabi/include/c++/10.3.1/bits/stl_pair.h ****     inline _GLIBCXX_CONSTEXPR bool
 466:/Library/DaisyToolchain/0.2.0/arm/arm-none-eabi/include/c++/10.3.1/bits/stl_pair.h ****     operator==(const pair<_T1, _T2>& __x, const pair<_T1, _T2>& __y)
 467:/Library/DaisyToolchain/0.2.0/arm/arm-none-eabi/include/c++/10.3.1/bits/stl_pair.h ****     { return __x.first == __y.first && __x.second == __y.second; }
 468:/Library/DaisyToolchain/0.2.0/arm/arm-none-eabi/include/c++/10.3.1/bits/stl_pair.h **** 
 469:/Library/DaisyToolchain/0.2.0/arm/arm-none-eabi/include/c++/10.3.1/bits/stl_pair.h **** #if __cpp_lib_three_way_comparison && __cpp_lib_concepts
 470:/Library/DaisyToolchain/0.2.0/arm/arm-none-eabi/include/c++/10.3.1/bits/stl_pair.h ****   template<typename _T1, typename _T2>
 471:/Library/DaisyToolchain/0.2.0/arm/arm-none-eabi/include/c++/10.3.1/bits/stl_pair.h ****     constexpr common_comparison_category_t<__detail::__synth3way_t<_T1>,
 472:/Library/DaisyToolchain/0.2.0/arm/arm-none-eabi/include/c++/10.3.1/bits/stl_pair.h **** 					   __detail::__synth3way_t<_T2>>
 473:/Library/DaisyToolchain/0.2.0/arm/arm-none-eabi/include/c++/10.3.1/bits/stl_pair.h ****     operator<=>(const pair<_T1, _T2>& __x, const pair<_T1, _T2>& __y)
 474:/Library/DaisyToolchain/0.2.0/arm/arm-none-eabi/include/c++/10.3.1/bits/stl_pair.h ****     {
 475:/Library/DaisyToolchain/0.2.0/arm/arm-none-eabi/include/c++/10.3.1/bits/stl_pair.h ****       if (auto __c = __detail::__synth3way(__x.first, __y.first); __c != 0)
 476:/Library/DaisyToolchain/0.2.0/arm/arm-none-eabi/include/c++/10.3.1/bits/stl_pair.h **** 	return __c;
 477:/Library/DaisyToolchain/0.2.0/arm/arm-none-eabi/include/c++/10.3.1/bits/stl_pair.h ****       return __detail::__synth3way(__x.second, __y.second);
 478:/Library/DaisyToolchain/0.2.0/arm/arm-none-eabi/include/c++/10.3.1/bits/stl_pair.h ****     }
 479:/Library/DaisyToolchain/0.2.0/arm/arm-none-eabi/include/c++/10.3.1/bits/stl_pair.h **** #else
 480:/Library/DaisyToolchain/0.2.0/arm/arm-none-eabi/include/c++/10.3.1/bits/stl_pair.h ****   /** Defines a lexicographical order for pairs.
 481:/Library/DaisyToolchain/0.2.0/arm/arm-none-eabi/include/c++/10.3.1/bits/stl_pair.h ****    *
 482:/Library/DaisyToolchain/0.2.0/arm/arm-none-eabi/include/c++/10.3.1/bits/stl_pair.h ****    * For two pairs of the same type, `P` is ordered before `Q` if
 483:/Library/DaisyToolchain/0.2.0/arm/arm-none-eabi/include/c++/10.3.1/bits/stl_pair.h ****    * `P.first` is less than `Q.first`, or if `P.first` and `Q.first`
 484:/Library/DaisyToolchain/0.2.0/arm/arm-none-eabi/include/c++/10.3.1/bits/stl_pair.h ****    * are equivalent (neither is less than the other) and `P.second` is less
 485:/Library/DaisyToolchain/0.2.0/arm/arm-none-eabi/include/c++/10.3.1/bits/stl_pair.h ****    * than `Q.second`.
 486:/Library/DaisyToolchain/0.2.0/arm/arm-none-eabi/include/c++/10.3.1/bits/stl_pair.h ****   */
 487:/Library/DaisyToolchain/0.2.0/arm/arm-none-eabi/include/c++/10.3.1/bits/stl_pair.h ****   template<typename _T1, typename _T2>
 488:/Library/DaisyToolchain/0.2.0/arm/arm-none-eabi/include/c++/10.3.1/bits/stl_pair.h ****     inline _GLIBCXX_CONSTEXPR bool
 489:/Library/DaisyToolchain/0.2.0/arm/arm-none-eabi/include/c++/10.3.1/bits/stl_pair.h ****     operator<(const pair<_T1, _T2>& __x, const pair<_T1, _T2>& __y)
 490:/Library/DaisyToolchain/0.2.0/arm/arm-none-eabi/include/c++/10.3.1/bits/stl_pair.h ****     { return __x.first < __y.first
 491:/Library/DaisyToolchain/0.2.0/arm/arm-none-eabi/include/c++/10.3.1/bits/stl_pair.h **** 	     || (!(__y.first < __x.first) && __x.second < __y.second); }
ARM GAS  /var/folders/wz/z09yph4n0qj4t7mjxhl6ttn80000gn/T//cco13aXs.s 			page 22


 492:/Library/DaisyToolchain/0.2.0/arm/arm-none-eabi/include/c++/10.3.1/bits/stl_pair.h **** 
 493:/Library/DaisyToolchain/0.2.0/arm/arm-none-eabi/include/c++/10.3.1/bits/stl_pair.h ****   /// Uses @c operator== to find the result.
 494:/Library/DaisyToolchain/0.2.0/arm/arm-none-eabi/include/c++/10.3.1/bits/stl_pair.h ****   template<typename _T1, typename _T2>
 495:/Library/DaisyToolchain/0.2.0/arm/arm-none-eabi/include/c++/10.3.1/bits/stl_pair.h ****     inline _GLIBCXX_CONSTEXPR bool
 496:/Library/DaisyToolchain/0.2.0/arm/arm-none-eabi/include/c++/10.3.1/bits/stl_pair.h ****     operator!=(const pair<_T1, _T2>& __x, const pair<_T1, _T2>& __y)
 497:/Library/DaisyToolchain/0.2.0/arm/arm-none-eabi/include/c++/10.3.1/bits/stl_pair.h ****     { return !(__x == __y); }
 498:/Library/DaisyToolchain/0.2.0/arm/arm-none-eabi/include/c++/10.3.1/bits/stl_pair.h **** 
 499:/Library/DaisyToolchain/0.2.0/arm/arm-none-eabi/include/c++/10.3.1/bits/stl_pair.h ****   /// Uses @c operator< to find the result.
 500:/Library/DaisyToolchain/0.2.0/arm/arm-none-eabi/include/c++/10.3.1/bits/stl_pair.h ****   template<typename _T1, typename _T2>
 501:/Library/DaisyToolchain/0.2.0/arm/arm-none-eabi/include/c++/10.3.1/bits/stl_pair.h ****     inline _GLIBCXX_CONSTEXPR bool
 502:/Library/DaisyToolchain/0.2.0/arm/arm-none-eabi/include/c++/10.3.1/bits/stl_pair.h ****     operator>(const pair<_T1, _T2>& __x, const pair<_T1, _T2>& __y)
 503:/Library/DaisyToolchain/0.2.0/arm/arm-none-eabi/include/c++/10.3.1/bits/stl_pair.h ****     { return __y < __x; }
 504:/Library/DaisyToolchain/0.2.0/arm/arm-none-eabi/include/c++/10.3.1/bits/stl_pair.h **** 
 505:/Library/DaisyToolchain/0.2.0/arm/arm-none-eabi/include/c++/10.3.1/bits/stl_pair.h ****   /// Uses @c operator< to find the result.
 506:/Library/DaisyToolchain/0.2.0/arm/arm-none-eabi/include/c++/10.3.1/bits/stl_pair.h ****   template<typename _T1, typename _T2>
 507:/Library/DaisyToolchain/0.2.0/arm/arm-none-eabi/include/c++/10.3.1/bits/stl_pair.h ****     inline _GLIBCXX_CONSTEXPR bool
 508:/Library/DaisyToolchain/0.2.0/arm/arm-none-eabi/include/c++/10.3.1/bits/stl_pair.h ****     operator<=(const pair<_T1, _T2>& __x, const pair<_T1, _T2>& __y)
 509:/Library/DaisyToolchain/0.2.0/arm/arm-none-eabi/include/c++/10.3.1/bits/stl_pair.h ****     { return !(__y < __x); }
 510:/Library/DaisyToolchain/0.2.0/arm/arm-none-eabi/include/c++/10.3.1/bits/stl_pair.h **** 
 511:/Library/DaisyToolchain/0.2.0/arm/arm-none-eabi/include/c++/10.3.1/bits/stl_pair.h ****   /// Uses @c operator< to find the result.
 512:/Library/DaisyToolchain/0.2.0/arm/arm-none-eabi/include/c++/10.3.1/bits/stl_pair.h ****   template<typename _T1, typename _T2>
 513:/Library/DaisyToolchain/0.2.0/arm/arm-none-eabi/include/c++/10.3.1/bits/stl_pair.h ****     inline _GLIBCXX_CONSTEXPR bool
 514:/Library/DaisyToolchain/0.2.0/arm/arm-none-eabi/include/c++/10.3.1/bits/stl_pair.h ****     operator>=(const pair<_T1, _T2>& __x, const pair<_T1, _T2>& __y)
 515:/Library/DaisyToolchain/0.2.0/arm/arm-none-eabi/include/c++/10.3.1/bits/stl_pair.h ****     { return !(__x < __y); }
 516:/Library/DaisyToolchain/0.2.0/arm/arm-none-eabi/include/c++/10.3.1/bits/stl_pair.h **** #endif // !(three_way_comparison && concepts)
 517:/Library/DaisyToolchain/0.2.0/arm/arm-none-eabi/include/c++/10.3.1/bits/stl_pair.h **** 
 518:/Library/DaisyToolchain/0.2.0/arm/arm-none-eabi/include/c++/10.3.1/bits/stl_pair.h **** #if __cplusplus >= 201103L
 519:/Library/DaisyToolchain/0.2.0/arm/arm-none-eabi/include/c++/10.3.1/bits/stl_pair.h ****   /** Swap overload for pairs. Calls std::pair::swap().
 520:/Library/DaisyToolchain/0.2.0/arm/arm-none-eabi/include/c++/10.3.1/bits/stl_pair.h ****    *
 521:/Library/DaisyToolchain/0.2.0/arm/arm-none-eabi/include/c++/10.3.1/bits/stl_pair.h ****    * @note This std::swap overload is not declared in C++03 mode,
 522:/Library/DaisyToolchain/0.2.0/arm/arm-none-eabi/include/c++/10.3.1/bits/stl_pair.h ****    * which has performance implications, e.g. see https://gcc.gnu.org/PR38466
 523:/Library/DaisyToolchain/0.2.0/arm/arm-none-eabi/include/c++/10.3.1/bits/stl_pair.h ****   */
 524:/Library/DaisyToolchain/0.2.0/arm/arm-none-eabi/include/c++/10.3.1/bits/stl_pair.h ****   template<typename _T1, typename _T2>
 525:/Library/DaisyToolchain/0.2.0/arm/arm-none-eabi/include/c++/10.3.1/bits/stl_pair.h ****     _GLIBCXX20_CONSTEXPR inline
 526:/Library/DaisyToolchain/0.2.0/arm/arm-none-eabi/include/c++/10.3.1/bits/stl_pair.h **** #if __cplusplus > 201402L || !defined(__STRICT_ANSI__) // c++1z or gnu++11
 527:/Library/DaisyToolchain/0.2.0/arm/arm-none-eabi/include/c++/10.3.1/bits/stl_pair.h ****     // Constrained free swap overload, see p0185r1
 528:/Library/DaisyToolchain/0.2.0/arm/arm-none-eabi/include/c++/10.3.1/bits/stl_pair.h ****     typename enable_if<__and_<__is_swappable<_T1>,
 529:/Library/DaisyToolchain/0.2.0/arm/arm-none-eabi/include/c++/10.3.1/bits/stl_pair.h ****                               __is_swappable<_T2>>::value>::type
 530:/Library/DaisyToolchain/0.2.0/arm/arm-none-eabi/include/c++/10.3.1/bits/stl_pair.h **** #else
 531:/Library/DaisyToolchain/0.2.0/arm/arm-none-eabi/include/c++/10.3.1/bits/stl_pair.h ****     void
 532:/Library/DaisyToolchain/0.2.0/arm/arm-none-eabi/include/c++/10.3.1/bits/stl_pair.h **** #endif
 533:/Library/DaisyToolchain/0.2.0/arm/arm-none-eabi/include/c++/10.3.1/bits/stl_pair.h ****     swap(pair<_T1, _T2>& __x, pair<_T1, _T2>& __y)
 534:/Library/DaisyToolchain/0.2.0/arm/arm-none-eabi/include/c++/10.3.1/bits/stl_pair.h ****     noexcept(noexcept(__x.swap(__y)))
 535:/Library/DaisyToolchain/0.2.0/arm/arm-none-eabi/include/c++/10.3.1/bits/stl_pair.h ****     { __x.swap(__y); }
 536:/Library/DaisyToolchain/0.2.0/arm/arm-none-eabi/include/c++/10.3.1/bits/stl_pair.h **** 
 537:/Library/DaisyToolchain/0.2.0/arm/arm-none-eabi/include/c++/10.3.1/bits/stl_pair.h **** #if __cplusplus > 201402L || !defined(__STRICT_ANSI__) // c++1z or gnu++11
 538:/Library/DaisyToolchain/0.2.0/arm/arm-none-eabi/include/c++/10.3.1/bits/stl_pair.h ****   template<typename _T1, typename _T2>
 539:/Library/DaisyToolchain/0.2.0/arm/arm-none-eabi/include/c++/10.3.1/bits/stl_pair.h ****     typename enable_if<!__and_<__is_swappable<_T1>,
 540:/Library/DaisyToolchain/0.2.0/arm/arm-none-eabi/include/c++/10.3.1/bits/stl_pair.h **** 			       __is_swappable<_T2>>::value>::type
 541:/Library/DaisyToolchain/0.2.0/arm/arm-none-eabi/include/c++/10.3.1/bits/stl_pair.h ****     swap(pair<_T1, _T2>&, pair<_T1, _T2>&) = delete;
 542:/Library/DaisyToolchain/0.2.0/arm/arm-none-eabi/include/c++/10.3.1/bits/stl_pair.h **** #endif
 543:/Library/DaisyToolchain/0.2.0/arm/arm-none-eabi/include/c++/10.3.1/bits/stl_pair.h **** #endif // __cplusplus >= 201103L
 544:/Library/DaisyToolchain/0.2.0/arm/arm-none-eabi/include/c++/10.3.1/bits/stl_pair.h **** 
 545:/Library/DaisyToolchain/0.2.0/arm/arm-none-eabi/include/c++/10.3.1/bits/stl_pair.h ****   /// @} relates pair
 546:/Library/DaisyToolchain/0.2.0/arm/arm-none-eabi/include/c++/10.3.1/bits/stl_pair.h **** 
 547:/Library/DaisyToolchain/0.2.0/arm/arm-none-eabi/include/c++/10.3.1/bits/stl_pair.h ****   /**
 548:/Library/DaisyToolchain/0.2.0/arm/arm-none-eabi/include/c++/10.3.1/bits/stl_pair.h ****    *  @brief A convenience wrapper for creating a pair from two objects.
ARM GAS  /var/folders/wz/z09yph4n0qj4t7mjxhl6ttn80000gn/T//cco13aXs.s 			page 23


 549:/Library/DaisyToolchain/0.2.0/arm/arm-none-eabi/include/c++/10.3.1/bits/stl_pair.h ****    *  @param  __x  The first object.
 550:/Library/DaisyToolchain/0.2.0/arm/arm-none-eabi/include/c++/10.3.1/bits/stl_pair.h ****    *  @param  __y  The second object.
 551:/Library/DaisyToolchain/0.2.0/arm/arm-none-eabi/include/c++/10.3.1/bits/stl_pair.h ****    *  @return   A newly-constructed pair<> object of the appropriate type.
 552:/Library/DaisyToolchain/0.2.0/arm/arm-none-eabi/include/c++/10.3.1/bits/stl_pair.h ****    *
 553:/Library/DaisyToolchain/0.2.0/arm/arm-none-eabi/include/c++/10.3.1/bits/stl_pair.h ****    *  The C++98 standard says the objects are passed by reference-to-const,
 554:/Library/DaisyToolchain/0.2.0/arm/arm-none-eabi/include/c++/10.3.1/bits/stl_pair.h ****    *  but C++03 says they are passed by value (this was LWG issue #181).
 555:/Library/DaisyToolchain/0.2.0/arm/arm-none-eabi/include/c++/10.3.1/bits/stl_pair.h ****    *
 556:/Library/DaisyToolchain/0.2.0/arm/arm-none-eabi/include/c++/10.3.1/bits/stl_pair.h ****    *  Since C++11 they have been passed by forwarding reference and then
 557:/Library/DaisyToolchain/0.2.0/arm/arm-none-eabi/include/c++/10.3.1/bits/stl_pair.h ****    *  forwarded to the new members of the pair. To create a pair with a
 558:/Library/DaisyToolchain/0.2.0/arm/arm-none-eabi/include/c++/10.3.1/bits/stl_pair.h ****    *  member of reference type, pass a `reference_wrapper` to this function.
 559:/Library/DaisyToolchain/0.2.0/arm/arm-none-eabi/include/c++/10.3.1/bits/stl_pair.h ****    */
 560:/Library/DaisyToolchain/0.2.0/arm/arm-none-eabi/include/c++/10.3.1/bits/stl_pair.h ****   // _GLIBCXX_RESOLVE_LIB_DEFECTS
 561:/Library/DaisyToolchain/0.2.0/arm/arm-none-eabi/include/c++/10.3.1/bits/stl_pair.h ****   // 181.  make_pair() unintended behavior
 562:/Library/DaisyToolchain/0.2.0/arm/arm-none-eabi/include/c++/10.3.1/bits/stl_pair.h **** #if __cplusplus >= 201103L
 563:/Library/DaisyToolchain/0.2.0/arm/arm-none-eabi/include/c++/10.3.1/bits/stl_pair.h ****   // NB: DR 706.
 564:/Library/DaisyToolchain/0.2.0/arm/arm-none-eabi/include/c++/10.3.1/bits/stl_pair.h ****   template<typename _T1, typename _T2>
 565:/Library/DaisyToolchain/0.2.0/arm/arm-none-eabi/include/c++/10.3.1/bits/stl_pair.h ****     constexpr pair<typename __decay_and_strip<_T1>::__type,
 566:/Library/DaisyToolchain/0.2.0/arm/arm-none-eabi/include/c++/10.3.1/bits/stl_pair.h ****                    typename __decay_and_strip<_T2>::__type>
 567:/Library/DaisyToolchain/0.2.0/arm/arm-none-eabi/include/c++/10.3.1/bits/stl_pair.h ****     make_pair(_T1&& __x, _T2&& __y)
 554              		.loc 4 567 5 is_stmt 1 view .LVU139
 555              	.LBB74:
 556              	.LBB75:
 557              	.LBI75:
 352:/Library/DaisyToolchain/0.2.0/arm/arm-none-eabi/include/c++/10.3.1/bits/stl_pair.h **** 	: first(std::forward<_U1>(__x)), second(std::forward<_U2>(__y)) { }
 558              		.loc 4 352 12 view .LVU140
 559              	.LBB76:
 560              	.LBB77:
 561              	.LBB78:
 562              	.LBI78:
 563              		.file 5 "/Library/DaisyToolchain/0.2.0/arm/arm-none-eabi/include/c++/10.3.1/bits/move.h"
   1:/Library/DaisyToolchain/0.2.0/arm/arm-none-eabi/include/c++/10.3.1/bits/move.h **** // Move, forward and identity for C++11 + swap -*- C++ -*-
   2:/Library/DaisyToolchain/0.2.0/arm/arm-none-eabi/include/c++/10.3.1/bits/move.h **** 
   3:/Library/DaisyToolchain/0.2.0/arm/arm-none-eabi/include/c++/10.3.1/bits/move.h **** // Copyright (C) 2007-2020 Free Software Foundation, Inc.
   4:/Library/DaisyToolchain/0.2.0/arm/arm-none-eabi/include/c++/10.3.1/bits/move.h **** //
   5:/Library/DaisyToolchain/0.2.0/arm/arm-none-eabi/include/c++/10.3.1/bits/move.h **** // This file is part of the GNU ISO C++ Library.  This library is free
   6:/Library/DaisyToolchain/0.2.0/arm/arm-none-eabi/include/c++/10.3.1/bits/move.h **** // software; you can redistribute it and/or modify it under the
   7:/Library/DaisyToolchain/0.2.0/arm/arm-none-eabi/include/c++/10.3.1/bits/move.h **** // terms of the GNU General Public License as published by the
   8:/Library/DaisyToolchain/0.2.0/arm/arm-none-eabi/include/c++/10.3.1/bits/move.h **** // Free Software Foundation; either version 3, or (at your option)
   9:/Library/DaisyToolchain/0.2.0/arm/arm-none-eabi/include/c++/10.3.1/bits/move.h **** // any later version.
  10:/Library/DaisyToolchain/0.2.0/arm/arm-none-eabi/include/c++/10.3.1/bits/move.h **** 
  11:/Library/DaisyToolchain/0.2.0/arm/arm-none-eabi/include/c++/10.3.1/bits/move.h **** // This library is distributed in the hope that it will be useful,
  12:/Library/DaisyToolchain/0.2.0/arm/arm-none-eabi/include/c++/10.3.1/bits/move.h **** // but WITHOUT ANY WARRANTY; without even the implied warranty of
  13:/Library/DaisyToolchain/0.2.0/arm/arm-none-eabi/include/c++/10.3.1/bits/move.h **** // MERCHANTABILITY or FITNESS FOR A PARTICULAR PURPOSE.  See the
  14:/Library/DaisyToolchain/0.2.0/arm/arm-none-eabi/include/c++/10.3.1/bits/move.h **** // GNU General Public License for more details.
  15:/Library/DaisyToolchain/0.2.0/arm/arm-none-eabi/include/c++/10.3.1/bits/move.h **** 
  16:/Library/DaisyToolchain/0.2.0/arm/arm-none-eabi/include/c++/10.3.1/bits/move.h **** // Under Section 7 of GPL version 3, you are granted additional
  17:/Library/DaisyToolchain/0.2.0/arm/arm-none-eabi/include/c++/10.3.1/bits/move.h **** // permissions described in the GCC Runtime Library Exception, version
  18:/Library/DaisyToolchain/0.2.0/arm/arm-none-eabi/include/c++/10.3.1/bits/move.h **** // 3.1, as published by the Free Software Foundation.
  19:/Library/DaisyToolchain/0.2.0/arm/arm-none-eabi/include/c++/10.3.1/bits/move.h **** 
  20:/Library/DaisyToolchain/0.2.0/arm/arm-none-eabi/include/c++/10.3.1/bits/move.h **** // You should have received a copy of the GNU General Public License and
  21:/Library/DaisyToolchain/0.2.0/arm/arm-none-eabi/include/c++/10.3.1/bits/move.h **** // a copy of the GCC Runtime Library Exception along with this program;
  22:/Library/DaisyToolchain/0.2.0/arm/arm-none-eabi/include/c++/10.3.1/bits/move.h **** // see the files COPYING3 and COPYING.RUNTIME respectively.  If not, see
  23:/Library/DaisyToolchain/0.2.0/arm/arm-none-eabi/include/c++/10.3.1/bits/move.h **** // <http://www.gnu.org/licenses/>.
  24:/Library/DaisyToolchain/0.2.0/arm/arm-none-eabi/include/c++/10.3.1/bits/move.h **** 
  25:/Library/DaisyToolchain/0.2.0/arm/arm-none-eabi/include/c++/10.3.1/bits/move.h **** /** @file bits/move.h
  26:/Library/DaisyToolchain/0.2.0/arm/arm-none-eabi/include/c++/10.3.1/bits/move.h ****  *  This is an internal header file, included by other library headers.
  27:/Library/DaisyToolchain/0.2.0/arm/arm-none-eabi/include/c++/10.3.1/bits/move.h ****  *  Do not attempt to use it directly. @headername{utility}
ARM GAS  /var/folders/wz/z09yph4n0qj4t7mjxhl6ttn80000gn/T//cco13aXs.s 			page 24


  28:/Library/DaisyToolchain/0.2.0/arm/arm-none-eabi/include/c++/10.3.1/bits/move.h ****  */
  29:/Library/DaisyToolchain/0.2.0/arm/arm-none-eabi/include/c++/10.3.1/bits/move.h **** 
  30:/Library/DaisyToolchain/0.2.0/arm/arm-none-eabi/include/c++/10.3.1/bits/move.h **** #ifndef _MOVE_H
  31:/Library/DaisyToolchain/0.2.0/arm/arm-none-eabi/include/c++/10.3.1/bits/move.h **** #define _MOVE_H 1
  32:/Library/DaisyToolchain/0.2.0/arm/arm-none-eabi/include/c++/10.3.1/bits/move.h **** 
  33:/Library/DaisyToolchain/0.2.0/arm/arm-none-eabi/include/c++/10.3.1/bits/move.h **** #include <bits/c++config.h>
  34:/Library/DaisyToolchain/0.2.0/arm/arm-none-eabi/include/c++/10.3.1/bits/move.h **** #if __cplusplus < 201103L
  35:/Library/DaisyToolchain/0.2.0/arm/arm-none-eabi/include/c++/10.3.1/bits/move.h **** # include <bits/concept_check.h>
  36:/Library/DaisyToolchain/0.2.0/arm/arm-none-eabi/include/c++/10.3.1/bits/move.h **** #endif
  37:/Library/DaisyToolchain/0.2.0/arm/arm-none-eabi/include/c++/10.3.1/bits/move.h **** 
  38:/Library/DaisyToolchain/0.2.0/arm/arm-none-eabi/include/c++/10.3.1/bits/move.h **** namespace std _GLIBCXX_VISIBILITY(default)
  39:/Library/DaisyToolchain/0.2.0/arm/arm-none-eabi/include/c++/10.3.1/bits/move.h **** {
  40:/Library/DaisyToolchain/0.2.0/arm/arm-none-eabi/include/c++/10.3.1/bits/move.h **** _GLIBCXX_BEGIN_NAMESPACE_VERSION
  41:/Library/DaisyToolchain/0.2.0/arm/arm-none-eabi/include/c++/10.3.1/bits/move.h **** 
  42:/Library/DaisyToolchain/0.2.0/arm/arm-none-eabi/include/c++/10.3.1/bits/move.h ****   // Used, in C++03 mode too, by allocators, etc.
  43:/Library/DaisyToolchain/0.2.0/arm/arm-none-eabi/include/c++/10.3.1/bits/move.h ****   /**
  44:/Library/DaisyToolchain/0.2.0/arm/arm-none-eabi/include/c++/10.3.1/bits/move.h ****    *  @brief Same as C++11 std::addressof
  45:/Library/DaisyToolchain/0.2.0/arm/arm-none-eabi/include/c++/10.3.1/bits/move.h ****    *  @ingroup utilities
  46:/Library/DaisyToolchain/0.2.0/arm/arm-none-eabi/include/c++/10.3.1/bits/move.h ****    */
  47:/Library/DaisyToolchain/0.2.0/arm/arm-none-eabi/include/c++/10.3.1/bits/move.h ****   template<typename _Tp>
  48:/Library/DaisyToolchain/0.2.0/arm/arm-none-eabi/include/c++/10.3.1/bits/move.h ****     inline _GLIBCXX_CONSTEXPR _Tp*
  49:/Library/DaisyToolchain/0.2.0/arm/arm-none-eabi/include/c++/10.3.1/bits/move.h ****     __addressof(_Tp& __r) _GLIBCXX_NOEXCEPT
  50:/Library/DaisyToolchain/0.2.0/arm/arm-none-eabi/include/c++/10.3.1/bits/move.h ****     { return __builtin_addressof(__r); }
  51:/Library/DaisyToolchain/0.2.0/arm/arm-none-eabi/include/c++/10.3.1/bits/move.h **** 
  52:/Library/DaisyToolchain/0.2.0/arm/arm-none-eabi/include/c++/10.3.1/bits/move.h **** #if __cplusplus >= 201103L
  53:/Library/DaisyToolchain/0.2.0/arm/arm-none-eabi/include/c++/10.3.1/bits/move.h **** 
  54:/Library/DaisyToolchain/0.2.0/arm/arm-none-eabi/include/c++/10.3.1/bits/move.h **** _GLIBCXX_END_NAMESPACE_VERSION
  55:/Library/DaisyToolchain/0.2.0/arm/arm-none-eabi/include/c++/10.3.1/bits/move.h **** } // namespace
  56:/Library/DaisyToolchain/0.2.0/arm/arm-none-eabi/include/c++/10.3.1/bits/move.h **** 
  57:/Library/DaisyToolchain/0.2.0/arm/arm-none-eabi/include/c++/10.3.1/bits/move.h **** #include <type_traits> // Brings in std::declval too.
  58:/Library/DaisyToolchain/0.2.0/arm/arm-none-eabi/include/c++/10.3.1/bits/move.h **** 
  59:/Library/DaisyToolchain/0.2.0/arm/arm-none-eabi/include/c++/10.3.1/bits/move.h **** namespace std _GLIBCXX_VISIBILITY(default)
  60:/Library/DaisyToolchain/0.2.0/arm/arm-none-eabi/include/c++/10.3.1/bits/move.h **** {
  61:/Library/DaisyToolchain/0.2.0/arm/arm-none-eabi/include/c++/10.3.1/bits/move.h **** _GLIBCXX_BEGIN_NAMESPACE_VERSION
  62:/Library/DaisyToolchain/0.2.0/arm/arm-none-eabi/include/c++/10.3.1/bits/move.h **** 
  63:/Library/DaisyToolchain/0.2.0/arm/arm-none-eabi/include/c++/10.3.1/bits/move.h ****   /**
  64:/Library/DaisyToolchain/0.2.0/arm/arm-none-eabi/include/c++/10.3.1/bits/move.h ****    *  @addtogroup utilities
  65:/Library/DaisyToolchain/0.2.0/arm/arm-none-eabi/include/c++/10.3.1/bits/move.h ****    *  @{
  66:/Library/DaisyToolchain/0.2.0/arm/arm-none-eabi/include/c++/10.3.1/bits/move.h ****    */
  67:/Library/DaisyToolchain/0.2.0/arm/arm-none-eabi/include/c++/10.3.1/bits/move.h **** 
  68:/Library/DaisyToolchain/0.2.0/arm/arm-none-eabi/include/c++/10.3.1/bits/move.h ****   /**
  69:/Library/DaisyToolchain/0.2.0/arm/arm-none-eabi/include/c++/10.3.1/bits/move.h ****    *  @brief  Forward an lvalue.
  70:/Library/DaisyToolchain/0.2.0/arm/arm-none-eabi/include/c++/10.3.1/bits/move.h ****    *  @return The parameter cast to the specified type.
  71:/Library/DaisyToolchain/0.2.0/arm/arm-none-eabi/include/c++/10.3.1/bits/move.h ****    *
  72:/Library/DaisyToolchain/0.2.0/arm/arm-none-eabi/include/c++/10.3.1/bits/move.h ****    *  This function is used to implement "perfect forwarding".
  73:/Library/DaisyToolchain/0.2.0/arm/arm-none-eabi/include/c++/10.3.1/bits/move.h ****    */
  74:/Library/DaisyToolchain/0.2.0/arm/arm-none-eabi/include/c++/10.3.1/bits/move.h ****   template<typename _Tp>
  75:/Library/DaisyToolchain/0.2.0/arm/arm-none-eabi/include/c++/10.3.1/bits/move.h ****     constexpr _Tp&&
  76:/Library/DaisyToolchain/0.2.0/arm/arm-none-eabi/include/c++/10.3.1/bits/move.h ****     forward(typename std::remove_reference<_Tp>::type& __t) noexcept
 564              		.loc 5 76 5 view .LVU141
 565              		.loc 5 76 5 is_stmt 0 view .LVU142
 566              	.LBE78:
 567              	.LBE77:
 568              	.LBE76:
 569              	.LBE75:
 570              	.LBE74:
 571              	.LBE73:
ARM GAS  /var/folders/wz/z09yph4n0qj4t7mjxhl6ttn80000gn/T//cco13aXs.s 			page 25


 572              	.LBB88:
 573              	.LBB89:
  57:DSP/Track.cpp ****         ph.readPos = 0;
 574              		.loc 2 57 37 view .LVU143
 575 0010 0A69     		ldr	r2, [r1, #16]
 576              	.LBE89:
 577              	.LBE88:
 578              	.LBB92:
 579              	.LBB86:
 580              	.LBB84:
 581              	.LBB82:
 582              	.LBB80:
 353:/Library/DaisyToolchain/0.2.0/arm/arm-none-eabi/include/c++/10.3.1/bits/stl_pair.h **** 
 583              		.loc 4 353 64 view .LVU144
 584 0012 0560     		str	r5, [r0]
 585              	.LVL27:
 586              	.LBB79:
 587              	.LBI79:
 588              		.loc 5 76 5 is_stmt 1 view .LVU145
 589              		.loc 5 76 5 is_stmt 0 view .LVU146
 590              	.LBE79:
 591              	.LBE80:
 592              	.LBE82:
 593              	.LBE84:
 594              	.LBE86:
 595              	.LBE92:
 596              	.LBB93:
 597              	.LBB90:
  57:DSP/Track.cpp ****         ph.readPos = 0;
 598              		.loc 2 57 37 view .LVU147
 599 0014 013A     		subs	r2, r2, #1
 600              	.LBE90:
 601              	.LBE93:
 602              	.LBB94:
 603              	.LBB87:
 604              	.LBB85:
 605              	.LBB83:
 606              	.LBB81:
 353:/Library/DaisyToolchain/0.2.0/arm/arm-none-eabi/include/c++/10.3.1/bits/stl_pair.h **** 
 607              		.loc 4 353 64 view .LVU148
 608 0016 4460     		str	r4, [r0, #4]
 609              	.LVL28:
 353:/Library/DaisyToolchain/0.2.0/arm/arm-none-eabi/include/c++/10.3.1/bits/stl_pair.h **** 
 610              		.loc 4 353 64 view .LVU149
 611              	.LBE81:
 612              	.LBE83:
 613              	.LBE85:
 614              	.LBE87:
 615              	.LBE94:
  85:DSP/Track.cpp ****     incrementReadPos();
 616              		.loc 2 85 5 is_stmt 1 view .LVU150
 617              	.LBB95:
 618              	.LBI88:
  55:DSP/Track.cpp **** {
 619              		.loc 2 55 6 view .LVU151
 620              	.LBB91:
  57:DSP/Track.cpp ****         ph.readPos = 0;
ARM GAS  /var/folders/wz/z09yph4n0qj4t7mjxhl6ttn80000gn/T//cco13aXs.s 			page 26


 621              		.loc 2 57 5 view .LVU152
 622 0018 9342     		cmp	r3, r2
  60:DSP/Track.cpp **** }
 623              		.loc 2 60 9 view .LVU153
  60:DSP/Track.cpp **** }
 624              		.loc 2 60 19 is_stmt 0 view .LVU154
 625 001a 34BF     		ite	cc
 626 001c 0133     		addcc	r3, r3, #1
  58:DSP/Track.cpp ****     else
 627              		.loc 2 58 20 view .LVU155
 628 001e 0023     		movcs	r3, #0
 629              	.LBE91:
 630              	.LBE95:
  86:DSP/Track.cpp **** 
  87:DSP/Track.cpp ****     return curSample;
  88:DSP/Track.cpp **** }...
 631              		.loc 2 88 1 view .LVU156
 632 0020 30BC     		pop	{r4, r5}
 633              		.cfi_restore 5
 634              		.cfi_restore 4
 635              		.cfi_def_cfa_offset 0
 636 0022 8B60     		str	r3, [r1, #8]
 637              	.LVL29:
  87:DSP/Track.cpp ****     return curSample;
 638              		.loc 2 87 5 is_stmt 1 view .LVU157
 639              		.loc 2 88 1 is_stmt 0 view .LVU158
 640 0024 7047     		bx	lr
 641              		.cfi_endproc
 642              	.LFE5132:
 644 0026 00BF     		.section	.text.startup._GLOBAL__sub_I_delayLine,"ax",%progbits
 645              		.align	1
 646              		.p2align 2,,3
 647              		.syntax unified
 648              		.thumb
 649              		.thumb_func
 651              	_GLOBAL__sub_I_delayLine:
 652              	.LFB5732:
 653              		.loc 2 88 1 is_stmt 1 view -0
 654              		.cfi_startproc
 655              		@ args = 0, pretend = 0, frame = 0
 656              		@ frame_needed = 0, uses_anonymous_args = 0
 657              		@ link register save eliminated.
 658              	.LVL30:
 659              	.LBB96:
 660              	.LBI96:
 661              		.loc 2 88 1 view .LVU160
 662              	.LBB97:
 663              	.LBB98:
 664              	.LBI98:
  23:../../../DaisySP//Source/Utility/delayline.h ****     ~DelayLine() {}
 665              		.loc 1 23 5 view .LVU161
  23:../../../DaisySP//Source/Utility/delayline.h ****     ~DelayLine() {}
 666              		.loc 1 23 5 is_stmt 0 view .LVU162
 667              	.LBE98:
 668              		.file 6 "DSP/FX/Delay.h"
   1:DSP/FX/Delay.h **** #ifndef DELAY_H
   2:DSP/FX/Delay.h **** #define DELAY_H
ARM GAS  /var/folders/wz/z09yph4n0qj4t7mjxhl6ttn80000gn/T//cco13aXs.s 			page 27


   3:DSP/FX/Delay.h **** 
   4:DSP/FX/Delay.h **** #include "../../Parameters/AudioParameter.h"
   5:DSP/FX/Delay.h **** 
   6:DSP/FX/Delay.h **** /************************************************************//**
   7:DSP/FX/Delay.h ****  *  Class name: Delay
   8:DSP/FX/Delay.h ****  *  Function: Processes delay effect for block of input sanples
   9:DSP/FX/Delay.h ****  ***************************************************************/
  10:DSP/FX/Delay.h **** using namespace daisysp;
  11:DSP/FX/Delay.h **** 
  12:DSP/FX/Delay.h **** DelayLine<float, MAXDELAY> DSY_SDRAM_BSS delayLine;
 669              		.loc 6 12 42 view .LVU163
 670 0000 024A     		ldr	r2, .L40
 671 0002 0349     		ldr	r1, .L40+4
 672 0004 0348     		ldr	r0, .L40+8
 673 0006 FFF7FEBF 		b	__aeabi_atexit
 674              	.LVL31:
 675              	.L41:
 676 000a 00BF     		.align	2
 677              	.L40:
 678 000c 00000000 		.word	__dso_handle
 679 0010 00000000 		.word	_ZN7daisysp9DelayLineIfLj240000EED1Ev
 680 0014 00000000 		.word	delayLine
 681              	.LBE97:
 682              	.LBE96:
 683              		.cfi_endproc
 684              	.LFE5732:
 686              		.section	.init_array,"aw",%init_array
 687              		.align	2
 688 0000 00000000 		.word	_GLOBAL__sub_I_delayLine(target1)
 689              		.global	delayLine
 690              		.section	.sdram_bss,"aw"
 691              		.align	2
 694              	delayLine:
 695 0000 00000000 		.space	960012
 695      00000000 
 695      00000000 
 695      00000000 
 695      00000000 
 696              		.text
 697              	.Letext0:
 698              		.file 7 "/Library/DaisyToolchain/0.2.0/arm/arm-none-eabi/include/machine/_default_types.h"
 699              		.file 8 "/Library/DaisyToolchain/0.2.0/arm/arm-none-eabi/include/sys/_stdint.h"
 700              		.file 9 "/Library/DaisyToolchain/0.2.0/arm/arm-none-eabi/include/stdint.h"
 701              		.file 10 "/Library/DaisyToolchain/0.2.0/arm/lib/gcc/arm-none-eabi/10.3.1/include/stddef.h"
 702              		.file 11 "/Library/DaisyToolchain/0.2.0/arm/arm-none-eabi/include/c++/10.3.1/cmath"
 703              		.file 12 "/Library/DaisyToolchain/0.2.0/arm/arm-none-eabi/include/c++/10.3.1/bits/std_abs.h"
 704              		.file 13 "/Library/DaisyToolchain/0.2.0/arm/arm-none-eabi/include/c++/10.3.1/cstdlib"
 705              		.file 14 "/Library/DaisyToolchain/0.2.0/arm/arm-none-eabi/include/c++/10.3.1/cstdint"
 706              		.file 15 "/Library/DaisyToolchain/0.2.0/arm/arm-none-eabi/include/c++/10.3.1/arm-none-eabi/thumb/v
 707              		.file 16 "/Library/DaisyToolchain/0.2.0/arm/arm-none-eabi/include/c++/10.3.1/type_traits"
 708              		.file 17 "/Library/DaisyToolchain/0.2.0/arm/arm-none-eabi/include/c++/10.3.1/debug/debug.h"
 709              		.file 18 "/Library/DaisyToolchain/0.2.0/arm/arm-none-eabi/include/c++/10.3.1/bits/algorithmfwd.h"
 710              		.file 19 "/Library/DaisyToolchain/0.2.0/arm/arm-none-eabi/include/c++/10.3.1/bits/exception_ptr.h"
 711              		.file 20 "/Library/DaisyToolchain/0.2.0/arm/arm-none-eabi/include/c++/10.3.1/cstdarg"
 712              		.file 21 "/Library/DaisyToolchain/0.2.0/arm/arm-none-eabi/include/c++/10.3.1/cstdio"
 713              		.file 22 "/Library/DaisyToolchain/0.2.0/arm/arm-none-eabi/include/c++/10.3.1/cstring"
 714              		.file 23 "/Library/DaisyToolchain/0.2.0/arm/arm-none-eabi/include/c++/10.3.1/cwchar"
ARM GAS  /var/folders/wz/z09yph4n0qj4t7mjxhl6ttn80000gn/T//cco13aXs.s 			page 28


 715              		.file 24 "/Library/DaisyToolchain/0.2.0/arm/arm-none-eabi/include/c++/10.3.1/clocale"
 716              		.file 25 "/Library/DaisyToolchain/0.2.0/arm/arm-none-eabi/include/c++/10.3.1/bits/basic_string.h"
 717              		.file 26 "/Library/DaisyToolchain/0.2.0/arm/arm-none-eabi/include/c++/10.3.1/bits/stl_iterator.h"
 718              		.file 27 "/Library/DaisyToolchain/0.2.0/arm/arm-none-eabi/include/c++/10.3.1/bits/uses_allocator.h
 719              		.file 28 "/Library/DaisyToolchain/0.2.0/arm/arm-none-eabi/include/c++/10.3.1/tuple"
 720              		.file 29 "/Library/DaisyToolchain/0.2.0/arm/arm-none-eabi/include/c++/10.3.1/bits/std_function.h"
 721              		.file 30 "/Library/DaisyToolchain/0.2.0/arm/arm-none-eabi/include/c++/10.3.1/functional"
 722              		.file 31 "/Library/DaisyToolchain/0.2.0/arm/arm-none-eabi/include/c++/10.3.1/bits/refwrap.h"
 723              		.file 32 "/Library/DaisyToolchain/0.2.0/arm/arm-none-eabi/include/c++/10.3.1/bits/predefined_ops.h
 724              		.file 33 "/Library/DaisyToolchain/0.2.0/arm/arm-none-eabi/include/sys/_types.h"
 725              		.file 34 "/Library/DaisyToolchain/0.2.0/arm/arm-none-eabi/include/sys/reent.h"
 726              		.file 35 "/Library/DaisyToolchain/0.2.0/arm/arm-none-eabi/include/sys/lock.h"
 727              		.file 36 "/Library/DaisyToolchain/0.2.0/arm/arm-none-eabi/include/math.h"
 728              		.file 37 "/Library/DaisyToolchain/0.2.0/arm/arm-none-eabi/include/stdlib.h"
 729              		.file 38 "/Library/DaisyToolchain/0.2.0/arm/arm-none-eabi/include/c++/10.3.1/math.h"
 730              		.file 39 "/Library/DaisyToolchain/0.2.0/arm/arm-none-eabi/include/c++/10.3.1/stdlib.h"
 731              		.file 40 "../../../libDaisy//src/daisy_core.h"
 732              		.file 41 "../../../libDaisy//src/hid/switch.h"
 733              		.file 42 "../../../libDaisy//src/util/wav_format.h"
 734              		.file 43 "../../../libDaisy//src/dev/max11300.h"
 735              		.file 44 "../../../libDaisy//src/daisy_seed.h"
 736              		.file 45 "../../../libDaisy//src/per/gpio.h"
 737              		.file 46 "/Library/DaisyToolchain/0.2.0/arm/lib/gcc/arm-none-eabi/10.3.1/include/stdarg.h"
 738              		.file 47 "/Library/DaisyToolchain/0.2.0/arm/arm-none-eabi/include/stdio.h"
 739              		.file 48 "/Library/DaisyToolchain/0.2.0/arm/arm-none-eabi/include/string.h"
 740              		.file 49 "../../../DaisySP//Source/Control/adenv.h"
 741              		.file 50 "../../../DaisySP//Source/Utility/dsp.h"
 742              		.file 51 "/Library/DaisyToolchain/0.2.0/arm/arm-none-eabi/include/wchar.h"
 743              		.file 52 "/Library/DaisyToolchain/0.2.0/arm/arm-none-eabi/include/locale.h"
 744              		.file 53 "DSP/FX/../../Parameters/AudioParameter.h"
 745              		.file 54 "DSP/../Parameters/BinaryParameter.h"
 746              		.file 55 "DSP/Track.h"
 747              		.file 56 "../../../libDaisy//src/dev/sr_595.h"
 748              		.file 57 "<built-in>"
ARM GAS  /var/folders/wz/z09yph4n0qj4t7mjxhl6ttn80000gn/T//cco13aXs.s 			page 29


DEFINED SYMBOLS
                            *ABS*:0000000000000000 Track.cpp
/var/folders/wz/z09yph4n0qj4t7mjxhl6ttn80000gn/T//cco13aXs.s:19     .text._ZN7daisysp9DelayLineIfLj240000EED2Ev:0000000000000000 $t
/var/folders/wz/z09yph4n0qj4t7mjxhl6ttn80000gn/T//cco13aXs.s:26     .text._ZN7daisysp9DelayLineIfLj240000EED2Ev:0000000000000000 _ZN7daisysp9DelayLineIfLj240000EED2Ev
/var/folders/wz/z09yph4n0qj4t7mjxhl6ttn80000gn/T//cco13aXs.s:26     .text._ZN7daisysp9DelayLineIfLj240000EED2Ev:0000000000000000 _ZN7daisysp9DelayLineIfLj240000EED1Ev
/var/folders/wz/z09yph4n0qj4t7mjxhl6ttn80000gn/T//cco13aXs.s:43     .text._ZN5Track4initEPPf:0000000000000000 $t
/var/folders/wz/z09yph4n0qj4t7mjxhl6ttn80000gn/T//cco13aXs.s:50     .text._ZN5Track4initEPPf:0000000000000000 _ZN5Track4initEPPf
/var/folders/wz/z09yph4n0qj4t7mjxhl6ttn80000gn/T//cco13aXs.s:182    .text._ZN5Track4initEPPf:0000000000000058 $d
/var/folders/wz/z09yph4n0qj4t7mjxhl6ttn80000gn/T//cco13aXs.s:191    .text._ZN5Track4tickEv:0000000000000000 $t
/var/folders/wz/z09yph4n0qj4t7mjxhl6ttn80000gn/T//cco13aXs.s:198    .text._ZN5Track4tickEv:0000000000000000 _ZN5Track4tickEv
/var/folders/wz/z09yph4n0qj4t7mjxhl6ttn80000gn/T//cco13aXs.s:212    .text._ZN5Track14setIsRecordingEv:0000000000000000 $t
/var/folders/wz/z09yph4n0qj4t7mjxhl6ttn80000gn/T//cco13aXs.s:219    .text._ZN5Track14setIsRecordingEv:0000000000000000 _ZN5Track14setIsRecordingEv
/var/folders/wz/z09yph4n0qj4t7mjxhl6ttn80000gn/T//cco13aXs.s:265    .text._ZN5Track12setIsPlayingEv:0000000000000000 $t
/var/folders/wz/z09yph4n0qj4t7mjxhl6ttn80000gn/T//cco13aXs.s:272    .text._ZN5Track12setIsPlayingEv:0000000000000000 _ZN5Track12setIsPlayingEv
/var/folders/wz/z09yph4n0qj4t7mjxhl6ttn80000gn/T//cco13aXs.s:316    .text._ZN5Track17incrementWritePosEv:0000000000000000 $t
/var/folders/wz/z09yph4n0qj4t7mjxhl6ttn80000gn/T//cco13aXs.s:323    .text._ZN5Track17incrementWritePosEv:0000000000000000 _ZN5Track17incrementWritePosEv
/var/folders/wz/z09yph4n0qj4t7mjxhl6ttn80000gn/T//cco13aXs.s:353    .text._ZN5Track16incrementReadPosEv:0000000000000000 $t
/var/folders/wz/z09yph4n0qj4t7mjxhl6ttn80000gn/T//cco13aXs.s:360    .text._ZN5Track16incrementReadPosEv:0000000000000000 _ZN5Track16incrementReadPosEv
/var/folders/wz/z09yph4n0qj4t7mjxhl6ttn80000gn/T//cco13aXs.s:390    .text._ZN5Track7prepareEv:0000000000000000 $t
/var/folders/wz/z09yph4n0qj4t7mjxhl6ttn80000gn/T//cco13aXs.s:397    .text._ZN5Track7prepareEv:0000000000000000 _ZN5Track7prepareEv
/var/folders/wz/z09yph4n0qj4t7mjxhl6ttn80000gn/T//cco13aXs.s:408    .text._ZN5Track17processInputBlockEPKfS1_j:0000000000000000 $t
/var/folders/wz/z09yph4n0qj4t7mjxhl6ttn80000gn/T//cco13aXs.s:415    .text._ZN5Track17processInputBlockEPKfS1_j:0000000000000000 _ZN5Track17processInputBlockEPKfS1_j
/var/folders/wz/z09yph4n0qj4t7mjxhl6ttn80000gn/T//cco13aXs.s:521    .text._ZN5Track13processOutputEv:0000000000000000 $t
/var/folders/wz/z09yph4n0qj4t7mjxhl6ttn80000gn/T//cco13aXs.s:528    .text._ZN5Track13processOutputEv:0000000000000000 _ZN5Track13processOutputEv
/var/folders/wz/z09yph4n0qj4t7mjxhl6ttn80000gn/T//cco13aXs.s:645    .text.startup._GLOBAL__sub_I_delayLine:0000000000000000 $t
/var/folders/wz/z09yph4n0qj4t7mjxhl6ttn80000gn/T//cco13aXs.s:651    .text.startup._GLOBAL__sub_I_delayLine:0000000000000000 _GLOBAL__sub_I_delayLine
/var/folders/wz/z09yph4n0qj4t7mjxhl6ttn80000gn/T//cco13aXs.s:678    .text.startup._GLOBAL__sub_I_delayLine:000000000000000c $d
/var/folders/wz/z09yph4n0qj4t7mjxhl6ttn80000gn/T//cco13aXs.s:694    .sdram_bss:0000000000000000 delayLine
/var/folders/wz/z09yph4n0qj4t7mjxhl6ttn80000gn/T//cco13aXs.s:687    .init_array:0000000000000000 $d
/var/folders/wz/z09yph4n0qj4t7mjxhl6ttn80000gn/T//cco13aXs.s:691    .sdram_bss:0000000000000000 $d
                           .group:0000000000000000 _ZN7daisysp9DelayLineIfLj240000EED5Ev

UNDEFINED SYMBOLS
memset
__aeabi_atexit
__dso_handle
