ARM GAS  /var/folders/wz/z09yph4n0qj4t7mjxhl6ttn80000gn/T//ccDvAwR0.s 			page 1


   1              		.cpu cortex-m7
   2              		.arch armv7e-m
   3              		.fpu fpv5-d16
   4              		.eabi_attribute 28, 1
   5              		.eabi_attribute 20, 1
   6              		.eabi_attribute 21, 1
   7              		.eabi_attribute 23, 3
   8              		.eabi_attribute 24, 1
   9              		.eabi_attribute 25, 1
  10              		.eabi_attribute 26, 1
  11              		.eabi_attribute 30, 2
  12              		.eabi_attribute 34, 1
  13              		.eabi_attribute 18, 4
  14              		.file	"Track.cpp"
  15              		.text
  16              	.Ltext0:
  17              		.cfi_sections	.debug_frame
  18              		.section	.text._ZN5Track4initEPPfj,"ax",%progbits
  19              		.align	1
  20              		.p2align 2,,3
  21              		.global	_ZN5Track4initEPPfj
  22              		.syntax unified
  23              		.thumb
  24              		.thumb_func
  26              	_ZN5Track4initEPPfj:
  27              	.LVL0:
  28              	.LFB1386:
  29              		.file 1 "DSP/Track.cpp"
   1:DSP/Track.cpp **** #include "Track.h"
   2:DSP/Track.cpp **** 
   3:DSP/Track.cpp **** void Track::init(float* mem[2], const size_t s)
   4:DSP/Track.cpp **** {
  30              		.loc 1 4 1 view -0
  31              		.cfi_startproc
  32              		@ args = 0, pretend = 0, frame = 8
  33              		@ frame_needed = 0, uses_anonymous_args = 0
   5:DSP/Track.cpp ****     bufferSize = s;
  34              		.loc 1 5 5 view .LVU1
   4:DSP/Track.cpp ****     bufferSize = s;
  35              		.loc 1 4 1 is_stmt 0 view .LVU2
  36 0000 30B5     		push	{r4, r5, lr}
  37              		.cfi_def_cfa_offset 12
  38              		.cfi_offset 4, -12
  39              		.cfi_offset 5, -8
  40              		.cfi_offset 14, -4
  41 0002 0446     		mov	r4, r0
  42              	.LBB10:
   6:DSP/Track.cpp ****     for(int i = 0 ; i < 2 ; i++)
   7:DSP/Track.cpp ****         buffer[i] = mem[i];
  43              		.loc 1 7 26 view .LVU3
  44 0004 0868     		ldr	r0, [r1]
  45              	.LVL1:
  46              		.loc 1 7 26 view .LVU4
  47              	.LBE10:
   4:DSP/Track.cpp ****     bufferSize = s;
  48              		.loc 1 4 1 view .LVU5
  49 0006 83B0     		sub	sp, sp, #12
ARM GAS  /var/folders/wz/z09yph4n0qj4t7mjxhl6ttn80000gn/T//ccDvAwR0.s 			page 2


  50              		.cfi_def_cfa_offset 24
  51              	.LBB11:
  52              		.loc 1 7 19 view .LVU6
  53 0008 2061     		str	r0, [r4, #16]
  54              		.loc 1 7 26 view .LVU7
  55 000a 4D68     		ldr	r5, [r1, #4]
  56              	.LBE11:
   5:DSP/Track.cpp ****     for(int i = 0 ; i < 2 ; i++)
  57              		.loc 1 5 16 view .LVU8
  58 000c A261     		str	r2, [r4, #24]
   6:DSP/Track.cpp ****     for(int i = 0 ; i < 2 ; i++)
  59              		.loc 1 6 5 is_stmt 1 view .LVU9
  60              	.LVL2:
  61              	.LBB12:
   6:DSP/Track.cpp ****     for(int i = 0 ; i < 2 ; i++)
  62              		.loc 1 6 23 view .LVU10
  63              		.loc 1 7 9 view .LVU11
   6:DSP/Track.cpp ****     for(int i = 0 ; i < 2 ; i++)
  64              		.loc 1 6 5 view .LVU12
   6:DSP/Track.cpp ****     for(int i = 0 ; i < 2 ; i++)
  65              		.loc 1 6 23 view .LVU13
  66              		.loc 1 7 9 view .LVU14
  67              		.loc 1 7 19 is_stmt 0 view .LVU15
  68 000e 6561     		str	r5, [r4, #20]
   6:DSP/Track.cpp ****     for(int i = 0 ; i < 2 ; i++)
  69              		.loc 1 6 5 is_stmt 1 view .LVU16
  70              	.LVL3:
   6:DSP/Track.cpp ****     for(int i = 0 ; i < 2 ; i++)
  71              		.loc 1 6 23 view .LVU17
   6:DSP/Track.cpp ****     for(int i = 0 ; i < 2 ; i++)
  72              		.loc 1 6 23 is_stmt 0 view .LVU18
  73              	.LBE12:
  74              	.LBB13:
   8:DSP/Track.cpp **** 
   9:DSP/Track.cpp ****     for(size_t i = 0 ; i < s ; i++)
  75              		.loc 1 9 26 is_stmt 1 view .LVU19
  76 0010 8AB1     		cbz	r2, .L2
  77 0012 1346     		mov	r3, r2
  78 0014 9200     		lsls	r2, r2, #2
  79              	.LVL4:
  80              		.loc 1 9 26 is_stmt 0 view .LVU20
  81 0016 05EB8303 		add	r3, r5, r3, lsl #2
  82              	.LVL5:
  83              		.loc 1 9 26 view .LVU21
  84 001a 9842     		cmp	r0, r3
  85 001c 02D2     		bcs	.L6
  86 001e 8118     		adds	r1, r0, r2
  87              	.LVL6:
  88              		.loc 1 9 26 view .LVU22
  89 0020 8D42     		cmp	r5, r1
  90 0022 10D3     		bcc	.L5
  91              	.L6:
  10:DSP/Track.cpp ****     {
  11:DSP/Track.cpp ****         buffer[L][i] = 0.0f;
  92              		.loc 1 11 22 view .LVU23
  93 0024 0021     		movs	r1, #0
  94 0026 0192     		str	r2, [sp, #4]
ARM GAS  /var/folders/wz/z09yph4n0qj4t7mjxhl6ttn80000gn/T//ccDvAwR0.s 			page 3


  95 0028 FFF7FEFF 		bl	memset
  96              	.LVL7:
  12:DSP/Track.cpp ****         buffer[R][i] = 0.0f;
  97              		.loc 1 12 22 view .LVU24
  98 002c 019A     		ldr	r2, [sp, #4]
  99 002e 0021     		movs	r1, #0
 100 0030 2846     		mov	r0, r5
 101 0032 FFF7FEFF 		bl	memset
 102              	.LVL8:
 103              	.L2:
 104              		.loc 1 12 22 view .LVU25
 105              	.LBE13:
  13:DSP/Track.cpp ****     }
  14:DSP/Track.cpp **** 
  15:DSP/Track.cpp ****     ph.isRecording = false;
 106              		.loc 1 15 5 is_stmt 1 view .LVU26
  16:DSP/Track.cpp ****     ph.isPlaying = false;
 107              		.loc 1 16 5 view .LVU27
  15:DSP/Track.cpp ****     ph.isPlaying = false;
 108              		.loc 1 15 20 is_stmt 0 view .LVU28
 109 0036 0023     		movs	r3, #0
  17:DSP/Track.cpp ****     ph.reset();
  18:DSP/Track.cpp **** 
  19:DSP/Track.cpp ****     ti.isEmpty = true;
 110              		.loc 1 19 16 view .LVU29
 111 0038 0122     		movs	r2, #1
  15:DSP/Track.cpp ****     ph.isPlaying = false;
 112              		.loc 1 15 20 view .LVU30
 113 003a 2380     		strh	r3, [r4]	@ movhi
  17:DSP/Track.cpp ****     ph.reset();
 114              		.loc 1 17 5 is_stmt 1 view .LVU31
 115              	.LVL9:
 116              	.LBB14:
 117              	.LBI14:
 118              		.file 2 "DSP/Helpers.h"
   1:DSP/Helpers.h **** #include "stddef.h"
   2:DSP/Helpers.h **** #include <algorithm>
   3:DSP/Helpers.h **** 
   4:DSP/Helpers.h **** // playhead
   5:DSP/Helpers.h **** struct Playhead
   6:DSP/Helpers.h **** {
   7:DSP/Helpers.h ****     bool isRecording;
   8:DSP/Helpers.h ****     bool isPlaying;
   9:DSP/Helpers.h ****     size_t pos;
  10:DSP/Helpers.h **** 
  11:DSP/Helpers.h ****     void reset() { pos = 0; }
 119              		.loc 2 11 10 view .LVU32
 120              	.LBB15:
 121              		.loc 2 11 20 view .LVU33
 122              		.loc 2 11 24 is_stmt 0 view .LVU34
 123 003c 6360     		str	r3, [r4, #4]
 124              	.LVL10:
 125              		.loc 2 11 24 view .LVU35
 126              	.LBE15:
 127              	.LBE14:
 128              		.loc 1 19 5 is_stmt 1 view .LVU36
 129              		.loc 1 19 16 is_stmt 0 view .LVU37
ARM GAS  /var/folders/wz/z09yph4n0qj4t7mjxhl6ttn80000gn/T//ccDvAwR0.s 			page 4


 130 003e 2272     		strb	r2, [r4, #8]
  20:DSP/Track.cpp ****     ti.loopLength = 0;
 131              		.loc 1 20 5 is_stmt 1 view .LVU38
 132              		.loc 1 20 19 is_stmt 0 view .LVU39
 133 0040 E360     		str	r3, [r4, #12]
  21:DSP/Track.cpp **** }
 134              		.loc 1 21 1 view .LVU40
 135 0042 03B0     		add	sp, sp, #12
 136              		.cfi_remember_state
 137              		.cfi_def_cfa_offset 12
 138              		@ sp needed
 139 0044 30BD     		pop	{r4, r5, pc}
 140              	.LVL11:
 141              	.L5:
 142              		.cfi_restore_state
 143              	.LBB16:
  11:DSP/Track.cpp ****         buffer[R][i] = 0.0f;
 144              		.loc 1 11 9 is_stmt 1 view .LVU41
  11:DSP/Track.cpp ****         buffer[R][i] = 0.0f;
 145              		.loc 1 11 22 is_stmt 0 view .LVU42
 146 0046 0023     		movs	r3, #0
 147 0048 40F8043B 		str	r3, [r0], #4	@ float
  12:DSP/Track.cpp ****     }
 148              		.loc 1 12 9 is_stmt 1 view .LVU43
   9:DSP/Track.cpp ****     {
 149              		.loc 1 9 26 is_stmt 0 view .LVU44
 150 004c 8842     		cmp	r0, r1
  12:DSP/Track.cpp ****     }
 151              		.loc 1 12 22 view .LVU45
 152 004e 45F8043B 		str	r3, [r5], #4	@ float
   9:DSP/Track.cpp ****     {
 153              		.loc 1 9 5 is_stmt 1 view .LVU46
   9:DSP/Track.cpp ****     {
 154              		.loc 1 9 26 view .LVU47
 155 0052 F0D0     		beq	.L2
  11:DSP/Track.cpp ****         buffer[R][i] = 0.0f;
 156              		.loc 1 11 9 view .LVU48
  11:DSP/Track.cpp ****         buffer[R][i] = 0.0f;
 157              		.loc 1 11 22 is_stmt 0 view .LVU49
 158 0054 0023     		movs	r3, #0
 159 0056 40F8043B 		str	r3, [r0], #4	@ float
  12:DSP/Track.cpp ****     }
 160              		.loc 1 12 9 is_stmt 1 view .LVU50
   9:DSP/Track.cpp ****     {
 161              		.loc 1 9 26 is_stmt 0 view .LVU51
 162 005a 8842     		cmp	r0, r1
  12:DSP/Track.cpp ****     }
 163              		.loc 1 12 22 view .LVU52
 164 005c 45F8043B 		str	r3, [r5], #4	@ float
   9:DSP/Track.cpp ****     {
 165              		.loc 1 9 5 is_stmt 1 view .LVU53
   9:DSP/Track.cpp ****     {
 166              		.loc 1 9 26 view .LVU54
 167 0060 F1D1     		bne	.L5
 168 0062 E8E7     		b	.L2
 169              	.LBE16:
 170              		.cfi_endproc
ARM GAS  /var/folders/wz/z09yph4n0qj4t7mjxhl6ttn80000gn/T//ccDvAwR0.s 			page 5


 171              	.LFE1386:
 173              		.section	.text._ZN5Track7prepareEv,"ax",%progbits
 174              		.align	1
 175              		.p2align 2,,3
 176              		.global	_ZN5Track7prepareEv
 177              		.syntax unified
 178              		.thumb
 179              		.thumb_func
 181              	_ZN5Track7prepareEv:
 182              	.LVL12:
 183              	.LFB1387:
  22:DSP/Track.cpp **** 
  23:DSP/Track.cpp **** void Track::prepare()
  24:DSP/Track.cpp **** {
 184              		.loc 1 24 1 view -0
 185              		.cfi_startproc
 186              		@ args = 0, pretend = 0, frame = 0
 187              		@ frame_needed = 0, uses_anonymous_args = 0
 188              		@ link register save eliminated.
  25:DSP/Track.cpp **** 
  26:DSP/Track.cpp **** }
 189              		.loc 1 26 1 is_stmt 0 view .LVU56
 190 0000 7047     		bx	lr
 191              		.cfi_endproc
 192              	.LFE1387:
 194 0002 00BF     		.section	.text._ZN5Track4tickEv,"ax",%progbits
 195              		.align	1
 196              		.p2align 2,,3
 197              		.global	_ZN5Track4tickEv
 198              		.syntax unified
 199              		.thumb
 200              		.thumb_func
 202              	_ZN5Track4tickEv:
 203              	.LVL13:
 204              	.LFB1388:
  27:DSP/Track.cpp **** 
  28:DSP/Track.cpp **** void Track::tick()
  29:DSP/Track.cpp **** {
 205              		.loc 1 29 1 is_stmt 1 view -0
 206              		.cfi_startproc
 207              		@ args = 0, pretend = 0, frame = 0
 208              		@ frame_needed = 0, uses_anonymous_args = 0
 209              		@ link register save eliminated.
  30:DSP/Track.cpp ****     if(!ph.isPlaying && !ph.isRecording)
 210              		.loc 1 30 5 view .LVU58
 211 0000 4378     		ldrb	r3, [r0, #1]	@ zero_extendqisi2
 212 0002 03B9     		cbnz	r3, .L20
 213              	.L15:
  31:DSP/Track.cpp ****         return;
  32:DSP/Track.cpp **** 
  33:DSP/Track.cpp ****     incrementPlayhead();
  34:DSP/Track.cpp **** }
 214              		.loc 1 34 1 is_stmt 0 view .LVU59
 215 0004 7047     		bx	lr
 216              	.L20:
  33:DSP/Track.cpp **** }
 217              		.loc 1 33 5 is_stmt 1 view .LVU60
ARM GAS  /var/folders/wz/z09yph4n0qj4t7mjxhl6ttn80000gn/T//ccDvAwR0.s 			page 6


 218              	.LVL14:
 219              	.LBB21:
 220              	.LBI21:
  35:DSP/Track.cpp **** 
  36:DSP/Track.cpp **** void Track::setIsRecording()
  37:DSP/Track.cpp **** {
  38:DSP/Track.cpp ****     ph.isRecording = !ph.isRecording;
  39:DSP/Track.cpp **** 
  40:DSP/Track.cpp ****     if(!ph.isRecording)
  41:DSP/Track.cpp ****     {
  42:DSP/Track.cpp ****         ti.isEmpty = false;
  43:DSP/Track.cpp ****         ti.loopLength = ph.pos;
  44:DSP/Track.cpp ****     }
  45:DSP/Track.cpp **** 
  46:DSP/Track.cpp ****     ph.reset();
  47:DSP/Track.cpp **** }
  48:DSP/Track.cpp **** 
  49:DSP/Track.cpp **** void Track::setIsPlaying()
  50:DSP/Track.cpp **** {
  51:DSP/Track.cpp ****     ph.isPlaying = !ph.isPlaying;
  52:DSP/Track.cpp ****     ph.reset();
  53:DSP/Track.cpp **** }
  54:DSP/Track.cpp **** 
  55:DSP/Track.cpp **** void Track::incrementPlayhead()
 221              		.loc 1 55 6 view .LVU61
 222              	.LBB22:
  56:DSP/Track.cpp **** {
  57:DSP/Track.cpp ****     if(!ph.isRecording || !ph.isPlaying)
 223              		.loc 1 57 5 view .LVU62
 224 0006 0378     		ldrb	r3, [r0]	@ zero_extendqisi2
 225 0008 002B     		cmp	r3, #0
 226 000a FBD0     		beq	.L15
 227              	.LVL15:
 228              	.LBB23:
 229              	.LBI23:
  55:DSP/Track.cpp **** {
 230              		.loc 1 55 6 view .LVU63
 231              	.LBB24:
  58:DSP/Track.cpp ****         return;
  59:DSP/Track.cpp **** 
  60:DSP/Track.cpp ****     if(ph.isRecording)
 232              		.loc 1 60 5 view .LVU64
  61:DSP/Track.cpp ****     {
  62:DSP/Track.cpp ****         if(ph.pos > (bufferSize - 1))
 233              		.loc 1 62 9 view .LVU65
 234              		.loc 1 62 33 is_stmt 0 view .LVU66
 235 000c 8369     		ldr	r3, [r0, #24]
 236              		.loc 1 62 15 view .LVU67
 237 000e 4268     		ldr	r2, [r0, #4]
 238              		.loc 1 62 33 view .LVU68
 239 0010 013B     		subs	r3, r3, #1
 240              		.loc 1 62 9 view .LVU69
 241 0012 9A42     		cmp	r2, r3
 242 0014 02D9     		bls	.L18
  63:DSP/Track.cpp ****             ph.pos = 0;
 243              		.loc 1 63 13 is_stmt 1 view .LVU70
 244              		.loc 1 63 20 is_stmt 0 view .LVU71
ARM GAS  /var/folders/wz/z09yph4n0qj4t7mjxhl6ttn80000gn/T//ccDvAwR0.s 			page 7


 245 0016 0023     		movs	r3, #0
 246 0018 4360     		str	r3, [r0, #4]
 247 001a 7047     		bx	lr
 248              	.L18:
  64:DSP/Track.cpp ****         else
  65:DSP/Track.cpp ****             ph.pos++;
 249              		.loc 1 65 13 is_stmt 1 view .LVU72
 250              		.loc 1 65 19 is_stmt 0 view .LVU73
 251 001c 0132     		adds	r2, r2, #1
 252 001e 4260     		str	r2, [r0, #4]
 253              	.LVL16:
 254              		.loc 1 65 19 view .LVU74
 255 0020 7047     		bx	lr
 256              	.LBE24:
 257              	.LBE23:
 258              	.LBE22:
 259              	.LBE21:
 260              		.cfi_endproc
 261              	.LFE1388:
 263 0022 00BF     		.section	.text._ZN5Track14setIsRecordingEv,"ax",%progbits
 264              		.align	1
 265              		.p2align 2,,3
 266              		.global	_ZN5Track14setIsRecordingEv
 267              		.syntax unified
 268              		.thumb
 269              		.thumb_func
 271              	_ZN5Track14setIsRecordingEv:
 272              	.LVL17:
 273              	.LFB1389:
  37:DSP/Track.cpp ****     ph.isRecording = !ph.isRecording;
 274              		.loc 1 37 1 is_stmt 1 view -0
 275              		.cfi_startproc
 276              		@ args = 0, pretend = 0, frame = 0
 277              		@ frame_needed = 0, uses_anonymous_args = 0
 278              		@ link register save eliminated.
  38:DSP/Track.cpp **** 
 279              		.loc 1 38 5 view .LVU76
  38:DSP/Track.cpp **** 
 280              		.loc 1 38 22 is_stmt 0 view .LVU77
 281 0000 0378     		ldrb	r3, [r0]	@ zero_extendqisi2
 282 0002 83F00103 		eor	r3, r3, #1
  38:DSP/Track.cpp **** 
 283              		.loc 1 38 20 view .LVU78
 284 0006 0370     		strb	r3, [r0]
  40:DSP/Track.cpp ****     {
 285              		.loc 1 40 5 is_stmt 1 view .LVU79
 286 0008 13B9     		cbnz	r3, .L22
  42:DSP/Track.cpp ****         ti.loopLength = ph.pos;
 287              		.loc 1 42 9 view .LVU80
  43:DSP/Track.cpp ****     }
 288              		.loc 1 43 23 is_stmt 0 view .LVU81
 289 000a 4268     		ldr	r2, [r0, #4]
  42:DSP/Track.cpp ****         ti.loopLength = ph.pos;
 290              		.loc 1 42 20 view .LVU82
 291 000c 0372     		strb	r3, [r0, #8]
  43:DSP/Track.cpp ****     }
 292              		.loc 1 43 9 is_stmt 1 view .LVU83
ARM GAS  /var/folders/wz/z09yph4n0qj4t7mjxhl6ttn80000gn/T//ccDvAwR0.s 			page 8


  43:DSP/Track.cpp ****     }
 293              		.loc 1 43 23 is_stmt 0 view .LVU84
 294 000e C260     		str	r2, [r0, #12]
 295              	.L22:
  46:DSP/Track.cpp **** }
 296              		.loc 1 46 5 is_stmt 1 view .LVU85
 297              	.LVL18:
 298              	.LBB25:
 299              	.LBI25:
 300              		.loc 2 11 10 view .LVU86
 301              	.LBB26:
 302              		.loc 2 11 20 view .LVU87
 303              		.loc 2 11 24 is_stmt 0 view .LVU88
 304 0010 0023     		movs	r3, #0
 305 0012 4360     		str	r3, [r0, #4]
 306              	.LVL19:
 307              		.loc 2 11 24 view .LVU89
 308              	.LBE26:
 309              	.LBE25:
  47:DSP/Track.cpp **** 
 310              		.loc 1 47 1 view .LVU90
 311 0014 7047     		bx	lr
 312              		.cfi_endproc
 313              	.LFE1389:
 315 0016 00BF     		.section	.text._ZN5Track12setIsPlayingEv,"ax",%progbits
 316              		.align	1
 317              		.p2align 2,,3
 318              		.global	_ZN5Track12setIsPlayingEv
 319              		.syntax unified
 320              		.thumb
 321              		.thumb_func
 323              	_ZN5Track12setIsPlayingEv:
 324              	.LVL20:
 325              	.LFB1390:
  50:DSP/Track.cpp ****     ph.isPlaying = !ph.isPlaying;
 326              		.loc 1 50 1 is_stmt 1 view -0
 327              		.cfi_startproc
 328              		@ args = 0, pretend = 0, frame = 0
 329              		@ frame_needed = 0, uses_anonymous_args = 0
 330              		@ link register save eliminated.
  51:DSP/Track.cpp ****     ph.reset();
 331              		.loc 1 51 5 view .LVU92
  51:DSP/Track.cpp ****     ph.reset();
 332              		.loc 1 51 20 is_stmt 0 view .LVU93
 333 0000 4378     		ldrb	r3, [r0, #1]	@ zero_extendqisi2
 334              	.LBB27:
 335              	.LBB28:
 336              		.loc 2 11 24 view .LVU94
 337 0002 0022     		movs	r2, #0
 338              	.LBE28:
 339              	.LBE27:
  51:DSP/Track.cpp ****     ph.reset();
 340              		.loc 1 51 20 view .LVU95
 341 0004 83F00103 		eor	r3, r3, #1
 342              	.LBB31:
 343              	.LBB29:
 344              		.loc 2 11 24 view .LVU96
ARM GAS  /var/folders/wz/z09yph4n0qj4t7mjxhl6ttn80000gn/T//ccDvAwR0.s 			page 9


 345 0008 4260     		str	r2, [r0, #4]
 346              	.LBE29:
 347              	.LBE31:
  51:DSP/Track.cpp ****     ph.reset();
 348              		.loc 1 51 18 view .LVU97
 349 000a 4370     		strb	r3, [r0, #1]
  52:DSP/Track.cpp **** }
 350              		.loc 1 52 5 is_stmt 1 view .LVU98
 351              	.LVL21:
 352              	.LBB32:
 353              	.LBI27:
 354              		.loc 2 11 10 view .LVU99
 355              	.LBB30:
 356              		.loc 2 11 20 view .LVU100
 357              		.loc 2 11 20 is_stmt 0 view .LVU101
 358              	.LBE30:
 359              	.LBE32:
  53:DSP/Track.cpp **** 
 360              		.loc 1 53 1 view .LVU102
 361 000c 7047     		bx	lr
 362              		.cfi_endproc
 363              	.LFE1390:
 365 000e 00BF     		.section	.text._ZN5Track17incrementPlayheadEv,"ax",%progbits
 366              		.align	1
 367              		.p2align 2,,3
 368              		.global	_ZN5Track17incrementPlayheadEv
 369              		.syntax unified
 370              		.thumb
 371              		.thumb_func
 373              	_ZN5Track17incrementPlayheadEv:
 374              	.LVL22:
 375              	.LFB1391:
  56:DSP/Track.cpp ****     if(!ph.isRecording || !ph.isPlaying)
 376              		.loc 1 56 1 is_stmt 1 view -0
 377              		.cfi_startproc
 378              		@ args = 0, pretend = 0, frame = 0
 379              		@ frame_needed = 0, uses_anonymous_args = 0
 380              		@ link register save eliminated.
  57:DSP/Track.cpp ****         return;
 381              		.loc 1 57 5 view .LVU104
 382 0000 0378     		ldrb	r3, [r0]	@ zero_extendqisi2
 383 0002 5BB1     		cbz	r3, .L24
  57:DSP/Track.cpp ****         return;
 384              		.loc 1 57 24 is_stmt 0 discriminator 1 view .LVU105
 385 0004 4378     		ldrb	r3, [r0, #1]	@ zero_extendqisi2
 386 0006 4BB1     		cbz	r3, .L24
 387              	.LVL23:
 388              	.LBB35:
 389              	.LBI35:
  55:DSP/Track.cpp **** {
 390              		.loc 1 55 6 is_stmt 1 view .LVU106
 391              	.LBB36:
  60:DSP/Track.cpp ****     {
 392              		.loc 1 60 5 view .LVU107
  62:DSP/Track.cpp ****             ph.pos = 0;
 393              		.loc 1 62 9 view .LVU108
  62:DSP/Track.cpp ****             ph.pos = 0;
ARM GAS  /var/folders/wz/z09yph4n0qj4t7mjxhl6ttn80000gn/T//ccDvAwR0.s 			page 10


 394              		.loc 1 62 33 is_stmt 0 view .LVU109
 395 0008 8369     		ldr	r3, [r0, #24]
  62:DSP/Track.cpp ****             ph.pos = 0;
 396              		.loc 1 62 15 view .LVU110
 397 000a 4268     		ldr	r2, [r0, #4]
  62:DSP/Track.cpp ****             ph.pos = 0;
 398              		.loc 1 62 33 view .LVU111
 399 000c 013B     		subs	r3, r3, #1
  62:DSP/Track.cpp ****             ph.pos = 0;
 400              		.loc 1 62 9 view .LVU112
 401 000e 9A42     		cmp	r2, r3
 402 0010 02D9     		bls	.L26
  63:DSP/Track.cpp ****         else
 403              		.loc 1 63 13 is_stmt 1 view .LVU113
  63:DSP/Track.cpp ****         else
 404              		.loc 1 63 20 is_stmt 0 view .LVU114
 405 0012 0023     		movs	r3, #0
 406 0014 4360     		str	r3, [r0, #4]
 407 0016 7047     		bx	lr
 408              	.L26:
 409              		.loc 1 65 13 is_stmt 1 view .LVU115
 410              		.loc 1 65 19 is_stmt 0 view .LVU116
 411 0018 0132     		adds	r2, r2, #1
 412 001a 4260     		str	r2, [r0, #4]
 413              	.LVL24:
 414              	.L24:
 415              		.loc 1 65 19 view .LVU117
 416              	.LBE36:
 417              	.LBE35:
  66:DSP/Track.cpp ****     } else if(ph.isPlaying)
  67:DSP/Track.cpp ****     {
  68:DSP/Track.cpp ****         if(ph.pos > (ti.loopLength - 1))
  69:DSP/Track.cpp ****             ph.pos = 0;
  70:DSP/Track.cpp ****         else
  71:DSP/Track.cpp ****             ph.pos++;
  72:DSP/Track.cpp ****     }
  73:DSP/Track.cpp **** }
 418              		.loc 1 73 1 view .LVU118
 419 001c 7047     		bx	lr
 420              		.cfi_endproc
 421              	.LFE1391:
 423 001e 00BF     		.section	.text._ZN5Track17processInputBlockEPKfS1_j,"ax",%progbits
 424              		.align	1
 425              		.p2align 2,,3
 426              		.global	_ZN5Track17processInputBlockEPKfS1_j
 427              		.syntax unified
 428              		.thumb
 429              		.thumb_func
 431              	_ZN5Track17processInputBlockEPKfS1_j:
 432              	.LVL25:
 433              	.LFB1392:
  74:DSP/Track.cpp **** 
  75:DSP/Track.cpp **** void Track::processInputBlock(const float* left, const float* right, size_t size)
  76:DSP/Track.cpp **** {
 434              		.loc 1 76 1 is_stmt 1 view -0
 435              		.cfi_startproc
 436              		@ args = 0, pretend = 0, frame = 0
ARM GAS  /var/folders/wz/z09yph4n0qj4t7mjxhl6ttn80000gn/T//ccDvAwR0.s 			page 11


 437              		@ frame_needed = 0, uses_anonymous_args = 0
  77:DSP/Track.cpp ****     //if(!ph.isRecording)
  78:DSP/Track.cpp ****         //return;
  79:DSP/Track.cpp **** 
  80:DSP/Track.cpp ****     for(size_t i = 0 ; i < size ; i++)
 438              		.loc 1 80 5 view .LVU120
 439              	.LBB44:
 440              		.loc 1 80 26 view .LVU121
 441 0000 7BB3     		cbz	r3, .L45
 442              	.LBE44:
  76:DSP/Track.cpp ****     //if(!ph.isRecording)
 443              		.loc 1 76 1 is_stmt 0 view .LVU122
 444 0002 2DE9F043 		push	{r4, r5, r6, r7, r8, r9, lr}
 445              		.cfi_def_cfa_offset 28
 446              		.cfi_offset 4, -28
 447              		.cfi_offset 5, -24
 448              		.cfi_offset 6, -20
 449              		.cfi_offset 7, -16
 450              		.cfi_offset 8, -12
 451              		.cfi_offset 9, -8
 452              		.cfi_offset 14, -4
 453              	.LBB59:
  81:DSP/Track.cpp ****     {
  82:DSP/Track.cpp ****         buffer[L][ph.pos] = left[i];
 454              		.loc 1 82 17 view .LVU123
 455 0006 0769     		ldr	r7, [r0, #16]
 456 0008 9146     		mov	r9, r2
 457 000a 01EB8304 		add	r4, r1, r3, lsl #2
  83:DSP/Track.cpp ****         buffer[R][ph.pos] = right[i];
 458              		.loc 1 83 17 view .LVU124
 459 000e 4669     		ldr	r6, [r0, #20]
 460              	.LBB45:
 461              	.LBB46:
  30:DSP/Track.cpp ****         return;
 462              		.loc 1 30 12 view .LVU125
 463 0010 4578     		ldrb	r5, [r0, #1]	@ zero_extendqisi2
 464 0012 01E0     		b	.L38
 465              	.LVL26:
 466              	.L36:
  30:DSP/Track.cpp ****         return;
 467              		.loc 1 30 12 view .LVU126
 468              	.LBE46:
 469              	.LBE45:
  80:DSP/Track.cpp ****     {
 470              		.loc 1 80 5 is_stmt 1 view .LVU127
  80:DSP/Track.cpp ****     {
 471              		.loc 1 80 26 view .LVU128
 472 0014 8C42     		cmp	r4, r1
 473 0016 22D0     		beq	.L48
 474              	.L38:
  82:DSP/Track.cpp ****         buffer[R][ph.pos] = right[i];
 475              		.loc 1 82 9 discriminator 2 view .LVU129
  82:DSP/Track.cpp ****         buffer[R][ph.pos] = right[i];
 476              		.loc 1 82 22 is_stmt 0 discriminator 2 view .LVU130
 477 0018 4368     		ldr	r3, [r0, #4]
  82:DSP/Track.cpp ****         buffer[R][ph.pos] = right[i];
 478              		.loc 1 82 35 discriminator 2 view .LVU131
ARM GAS  /var/folders/wz/z09yph4n0qj4t7mjxhl6ttn80000gn/T//ccDvAwR0.s 			page 12


 479 001a F1EC017A 		vldmia.32	r1!, {s15}
  82:DSP/Track.cpp ****         buffer[R][ph.pos] = right[i];
 480              		.loc 1 82 27 discriminator 2 view .LVU132
 481 001e 07EB830E 		add	lr, r7, r3, lsl #2
 482              		.loc 1 83 27 discriminator 2 view .LVU133
 483 0022 06EB830C 		add	ip, r6, r3, lsl #2
  82:DSP/Track.cpp ****         buffer[R][ph.pos] = right[i];
 484              		.loc 1 82 27 discriminator 2 view .LVU134
 485 0026 CEED007A 		vstr.32	s15, [lr]
 486              		.loc 1 83 9 is_stmt 1 discriminator 2 view .LVU135
 487              		.loc 1 83 36 is_stmt 0 discriminator 2 view .LVU136
 488 002a 59F804EB 		ldr	lr, [r9], #4	@ float
 489              		.loc 1 83 27 discriminator 2 view .LVU137
 490 002e CCF800E0 		str	lr, [ip]	@ float
  84:DSP/Track.cpp **** 
  85:DSP/Track.cpp ****         tick();
 491              		.loc 1 85 9 is_stmt 1 discriminator 2 view .LVU138
 492              	.LVL27:
 493              	.LBB58:
 494              	.LBI45:
  28:DSP/Track.cpp **** {
 495              		.loc 1 28 6 discriminator 2 view .LVU139
 496              	.LBB57:
  30:DSP/Track.cpp ****         return;
 497              		.loc 1 30 5 discriminator 2 view .LVU140
 498 0032 002D     		cmp	r5, #0
 499 0034 EED0     		beq	.L36
 500              	.LVL28:
 501              	.LBB47:
 502              	.LBB48:
 503              	.LBB49:
 504              	.LBI49:
  55:DSP/Track.cpp **** {
 505              		.loc 1 55 6 view .LVU141
 506              	.LBB50:
  60:DSP/Track.cpp ****     {
 507              		.loc 1 60 5 view .LVU142
  62:DSP/Track.cpp ****             ph.pos = 0;
 508              		.loc 1 62 9 view .LVU143
  63:DSP/Track.cpp ****         else
 509              		.loc 1 63 13 view .LVU144
  65:DSP/Track.cpp ****     } else if(ph.isPlaying)
 510              		.loc 1 65 13 view .LVU145
 511              	.LBE50:
 512              	.LBE49:
 513              	.LBE48:
 514              	.LBE47:
  33:DSP/Track.cpp **** }
 515              		.loc 1 33 5 view .LVU146
 516              	.LBB56:
 517              	.LBI47:
  55:DSP/Track.cpp **** {
 518              		.loc 1 55 6 view .LVU147
 519              	.LBB55:
  57:DSP/Track.cpp ****         return;
 520              		.loc 1 57 5 view .LVU148
 521 0036 90F800C0 		ldrb	ip, [r0]	@ zero_extendqisi2
ARM GAS  /var/folders/wz/z09yph4n0qj4t7mjxhl6ttn80000gn/T//ccDvAwR0.s 			page 13


 522              	.LBB53:
 523              	.LBB51:
  63:DSP/Track.cpp ****         else
 524              		.loc 1 63 20 is_stmt 0 view .LVU149
 525 003a 4FF00008 		mov	r8, #0
  65:DSP/Track.cpp ****     } else if(ph.isPlaying)
 526              		.loc 1 65 19 view .LVU150
 527 003e 03F1010E 		add	lr, r3, #1
 528              	.LBE51:
 529              	.LBE53:
  57:DSP/Track.cpp ****         return;
 530              		.loc 1 57 5 view .LVU151
 531 0042 BCF1000F 		cmp	ip, #0
 532 0046 E5D0     		beq	.L36
 533              	.LBB54:
 534              	.LBB52:
  62:DSP/Track.cpp ****             ph.pos = 0;
 535              		.loc 1 62 33 view .LVU152
 536 0048 8269     		ldr	r2, [r0, #24]
 537 004a 02F1FF3C 		add	ip, r2, #-1
  62:DSP/Track.cpp ****             ph.pos = 0;
 538              		.loc 1 62 9 view .LVU153
 539 004e 6345     		cmp	r3, ip
  63:DSP/Track.cpp ****         else
 540              		.loc 1 63 20 view .LVU154
 541 0050 8CBF     		ite	hi
 542 0052 C0F80480 		strhi	r8, [r0, #4]
  65:DSP/Track.cpp ****     } else if(ph.isPlaying)
 543              		.loc 1 65 19 view .LVU155
 544 0056 C0F804E0 		strls	lr, [r0, #4]
 545              	.LVL29:
  65:DSP/Track.cpp ****     } else if(ph.isPlaying)
 546              		.loc 1 65 19 view .LVU156
 547              	.LBE52:
 548              	.LBE54:
 549              	.LBE55:
 550              	.LBE56:
 551              	.LBE57:
 552              	.LBE58:
  80:DSP/Track.cpp ****     {
 553              		.loc 1 80 5 is_stmt 1 view .LVU157
  80:DSP/Track.cpp ****     {
 554              		.loc 1 80 26 view .LVU158
 555 005a 8C42     		cmp	r4, r1
 556 005c DCD1     		bne	.L38
 557              	.L48:
 558              	.LBE59:
  86:DSP/Track.cpp ****     }
  87:DSP/Track.cpp **** }
 559              		.loc 1 87 1 is_stmt 0 view .LVU159
 560 005e BDE8F083 		pop	{r4, r5, r6, r7, r8, r9, pc}
 561              	.LVL30:
 562              	.L45:
 563              		.cfi_def_cfa_offset 0
 564              		.cfi_restore 4
 565              		.cfi_restore 5
 566              		.cfi_restore 6
ARM GAS  /var/folders/wz/z09yph4n0qj4t7mjxhl6ttn80000gn/T//ccDvAwR0.s 			page 14


 567              		.cfi_restore 7
 568              		.cfi_restore 8
 569              		.cfi_restore 9
 570              		.cfi_restore 14
 571              		.loc 1 87 1 view .LVU160
 572 0062 7047     		bx	lr
 573              		.cfi_endproc
 574              	.LFE1392:
 576              		.section	.text._ZN5Track18processOutputBlockEPfS0_j,"ax",%progbits
 577              		.align	1
 578              		.p2align 2,,3
 579              		.global	_ZN5Track18processOutputBlockEPfS0_j
 580              		.syntax unified
 581              		.thumb
 582              		.thumb_func
 584              	_ZN5Track18processOutputBlockEPfS0_j:
 585              	.LVL31:
 586              	.LFB1393:
  88:DSP/Track.cpp **** 
  89:DSP/Track.cpp ****  void Track::processOutputBlock(float* left, float* right, size_t size)
  90:DSP/Track.cpp ****  {
 587              		.loc 1 90 2 is_stmt 1 view -0
 588              		.cfi_startproc
 589              		@ args = 0, pretend = 0, frame = 0
 590              		@ frame_needed = 0, uses_anonymous_args = 0
  91:DSP/Track.cpp ****     //if(!ph.isPlaying)
  92:DSP/Track.cpp ****         //return;
  93:DSP/Track.cpp **** 
  94:DSP/Track.cpp ****     for(size_t i = 0 ; i < size ; i++)
 591              		.loc 1 94 5 view .LVU162
 592              	.LBB67:
 593              		.loc 1 94 26 view .LVU163
 594 0000 7BB3     		cbz	r3, .L61
 595              	.LBE67:
  90:DSP/Track.cpp ****     //if(!ph.isPlaying)
 596              		.loc 1 90 2 is_stmt 0 view .LVU164
 597 0002 2DE9F043 		push	{r4, r5, r6, r7, r8, r9, lr}
 598              		.cfi_def_cfa_offset 28
 599              		.cfi_offset 4, -28
 600              		.cfi_offset 5, -24
 601              		.cfi_offset 6, -20
 602              		.cfi_offset 7, -16
 603              		.cfi_offset 8, -12
 604              		.cfi_offset 9, -8
 605              		.cfi_offset 14, -4
 606              	.LBB82:
  95:DSP/Track.cpp ****     {
  96:DSP/Track.cpp ****         left[i] = buffer[L][ph.pos];
 607              		.loc 1 96 27 view .LVU165
 608 0006 0769     		ldr	r7, [r0, #16]
 609 0008 9146     		mov	r9, r2
 610 000a 01EB8304 		add	r4, r1, r3, lsl #2
  97:DSP/Track.cpp ****         right[i] = buffer[R][ph.pos];
 611              		.loc 1 97 28 view .LVU166
 612 000e 4669     		ldr	r6, [r0, #20]
 613              	.LBB68:
 614              	.LBB69:
ARM GAS  /var/folders/wz/z09yph4n0qj4t7mjxhl6ttn80000gn/T//ccDvAwR0.s 			page 15


  30:DSP/Track.cpp ****         return;
 615              		.loc 1 30 12 view .LVU167
 616 0010 4578     		ldrb	r5, [r0, #1]	@ zero_extendqisi2
 617 0012 01E0     		b	.L54
 618              	.LVL32:
 619              	.L52:
  30:DSP/Track.cpp ****         return;
 620              		.loc 1 30 12 view .LVU168
 621              	.LBE69:
 622              	.LBE68:
  94:DSP/Track.cpp ****     {
 623              		.loc 1 94 5 is_stmt 1 view .LVU169
  94:DSP/Track.cpp ****     {
 624              		.loc 1 94 26 view .LVU170
 625 0014 A142     		cmp	r1, r4
 626 0016 22D0     		beq	.L64
 627              	.L54:
  96:DSP/Track.cpp ****         right[i] = buffer[R][ph.pos];
 628              		.loc 1 96 9 discriminator 2 view .LVU171
  96:DSP/Track.cpp ****         right[i] = buffer[R][ph.pos];
 629              		.loc 1 96 32 is_stmt 0 discriminator 2 view .LVU172
 630 0018 4368     		ldr	r3, [r0, #4]
  96:DSP/Track.cpp ****         right[i] = buffer[R][ph.pos];
 631              		.loc 1 96 35 discriminator 2 view .LVU173
 632 001a 07EB830E 		add	lr, r7, r3, lsl #2
 633              		.loc 1 97 36 discriminator 2 view .LVU174
 634 001e 06EB830C 		add	ip, r6, r3, lsl #2
  96:DSP/Track.cpp ****         right[i] = buffer[R][ph.pos];
 635              		.loc 1 96 35 discriminator 2 view .LVU175
 636 0022 DEF800E0 		ldr	lr, [lr]	@ float
  96:DSP/Track.cpp ****         right[i] = buffer[R][ph.pos];
 637              		.loc 1 96 17 discriminator 2 view .LVU176
 638 0026 41F804EB 		str	lr, [r1], #4	@ float
 639              		.loc 1 97 9 is_stmt 1 discriminator 2 view .LVU177
 640              		.loc 1 97 36 is_stmt 0 discriminator 2 view .LVU178
 641 002a DCF800C0 		ldr	ip, [ip]	@ float
 642              		.loc 1 97 18 discriminator 2 view .LVU179
 643 002e 49F804CB 		str	ip, [r9], #4	@ float
  98:DSP/Track.cpp **** 
  99:DSP/Track.cpp ****         tick();
 644              		.loc 1 99 9 is_stmt 1 discriminator 2 view .LVU180
 645              	.LVL33:
 646              	.LBB81:
 647              	.LBI68:
  28:DSP/Track.cpp **** {
 648              		.loc 1 28 6 discriminator 2 view .LVU181
 649              	.LBB80:
  30:DSP/Track.cpp ****         return;
 650              		.loc 1 30 5 discriminator 2 view .LVU182
 651 0032 002D     		cmp	r5, #0
 652 0034 EED0     		beq	.L52
 653              	.LVL34:
 654              	.LBB70:
 655              	.LBB71:
 656              	.LBB72:
 657              	.LBI72:
  55:DSP/Track.cpp **** {
ARM GAS  /var/folders/wz/z09yph4n0qj4t7mjxhl6ttn80000gn/T//ccDvAwR0.s 			page 16


 658              		.loc 1 55 6 view .LVU183
 659              	.LBB73:
  60:DSP/Track.cpp ****     {
 660              		.loc 1 60 5 view .LVU184
  62:DSP/Track.cpp ****             ph.pos = 0;
 661              		.loc 1 62 9 view .LVU185
  63:DSP/Track.cpp ****         else
 662              		.loc 1 63 13 view .LVU186
  65:DSP/Track.cpp ****     } else if(ph.isPlaying)
 663              		.loc 1 65 13 view .LVU187
 664              	.LBE73:
 665              	.LBE72:
 666              	.LBE71:
 667              	.LBE70:
  33:DSP/Track.cpp **** }
 668              		.loc 1 33 5 view .LVU188
 669              	.LBB79:
 670              	.LBI70:
  55:DSP/Track.cpp **** {
 671              		.loc 1 55 6 view .LVU189
 672              	.LBB78:
  57:DSP/Track.cpp ****         return;
 673              		.loc 1 57 5 view .LVU190
 674 0036 90F800C0 		ldrb	ip, [r0]	@ zero_extendqisi2
 675              	.LBB76:
 676              	.LBB74:
  63:DSP/Track.cpp ****         else
 677              		.loc 1 63 20 is_stmt 0 view .LVU191
 678 003a 4FF00008 		mov	r8, #0
  65:DSP/Track.cpp ****     } else if(ph.isPlaying)
 679              		.loc 1 65 19 view .LVU192
 680 003e 03F1010E 		add	lr, r3, #1
 681              	.LBE74:
 682              	.LBE76:
  57:DSP/Track.cpp ****         return;
 683              		.loc 1 57 5 view .LVU193
 684 0042 BCF1000F 		cmp	ip, #0
 685 0046 E5D0     		beq	.L52
 686              	.LBB77:
 687              	.LBB75:
  62:DSP/Track.cpp ****             ph.pos = 0;
 688              		.loc 1 62 33 view .LVU194
 689 0048 8269     		ldr	r2, [r0, #24]
 690 004a 02F1FF3C 		add	ip, r2, #-1
  62:DSP/Track.cpp ****             ph.pos = 0;
 691              		.loc 1 62 9 view .LVU195
 692 004e 6345     		cmp	r3, ip
  63:DSP/Track.cpp ****         else
 693              		.loc 1 63 20 view .LVU196
 694 0050 8CBF     		ite	hi
 695 0052 C0F80480 		strhi	r8, [r0, #4]
  65:DSP/Track.cpp ****     } else if(ph.isPlaying)
 696              		.loc 1 65 19 view .LVU197
 697 0056 C0F804E0 		strls	lr, [r0, #4]
 698              	.LVL35:
  65:DSP/Track.cpp ****     } else if(ph.isPlaying)
 699              		.loc 1 65 19 view .LVU198
ARM GAS  /var/folders/wz/z09yph4n0qj4t7mjxhl6ttn80000gn/T//ccDvAwR0.s 			page 17


 700              	.LBE75:
 701              	.LBE77:
 702              	.LBE78:
 703              	.LBE79:
 704              	.LBE80:
 705              	.LBE81:
  94:DSP/Track.cpp ****     {
 706              		.loc 1 94 5 is_stmt 1 view .LVU199
  94:DSP/Track.cpp ****     {
 707              		.loc 1 94 26 view .LVU200
 708 005a A142     		cmp	r1, r4
 709 005c DCD1     		bne	.L54
 710              	.L64:
 711              	.LBE82:
 100:DSP/Track.cpp ****     }
 101:DSP/Track.cpp ****  }...
 712              		.loc 1 101 2 is_stmt 0 view .LVU201
 713 005e BDE8F083 		pop	{r4, r5, r6, r7, r8, r9, pc}
 714              	.LVL36:
 715              	.L61:
 716              		.cfi_def_cfa_offset 0
 717              		.cfi_restore 4
 718              		.cfi_restore 5
 719              		.cfi_restore 6
 720              		.cfi_restore 7
 721              		.cfi_restore 8
 722              		.cfi_restore 9
 723              		.cfi_restore 14
 724              		.loc 1 101 2 view .LVU202
 725 0062 7047     		bx	lr
 726              		.cfi_endproc
 727              	.LFE1393:
 729              		.text
 730              	.Letext0:
 731              		.file 3 "/Library/DaisyToolchain/0.2.0/arm/arm-none-eabi/include/c++/10.3.1/cmath"
 732              		.file 4 "/Library/DaisyToolchain/0.2.0/arm/arm-none-eabi/include/c++/10.3.1/bits/std_abs.h"
 733              		.file 5 "/Library/DaisyToolchain/0.2.0/arm/arm-none-eabi/include/c++/10.3.1/type_traits"
 734              		.file 6 "/Library/DaisyToolchain/0.2.0/arm/arm-none-eabi/include/c++/10.3.1/debug/debug.h"
 735              		.file 7 "/Library/DaisyToolchain/0.2.0/arm/arm-none-eabi/include/c++/10.3.1/cstdlib"
 736              		.file 8 "/Library/DaisyToolchain/0.2.0/arm/arm-none-eabi/include/c++/10.3.1/arm-none-eabi/thumb/v7
 737              		.file 9 "/Library/DaisyToolchain/0.2.0/arm/arm-none-eabi/include/c++/10.3.1/bits/algorithmfwd.h"
 738              		.file 10 "/Library/DaisyToolchain/0.2.0/arm/arm-none-eabi/include/c++/10.3.1/bits/stl_pair.h"
 739              		.file 11 "/Library/DaisyToolchain/0.2.0/arm/arm-none-eabi/include/c++/10.3.1/bits/exception_ptr.h"
 740              		.file 12 "/Library/DaisyToolchain/0.2.0/arm/lib/gcc/arm-none-eabi/10.3.1/include/stddef.h"
 741              		.file 13 "/Library/DaisyToolchain/0.2.0/arm/arm-none-eabi/include/c++/10.3.1/bits/predefined_ops.h
 742              		.file 14 "/Library/DaisyToolchain/0.2.0/arm/arm-none-eabi/include/math.h"
 743              		.file 15 "/Library/DaisyToolchain/0.2.0/arm/arm-none-eabi/include/stdlib.h"
 744              		.file 16 "/Library/DaisyToolchain/0.2.0/arm/arm-none-eabi/include/c++/10.3.1/math.h"
 745              		.file 17 "DSP/Track.h"
 746              		.file 18 "<built-in>"
ARM GAS  /var/folders/wz/z09yph4n0qj4t7mjxhl6ttn80000gn/T//ccDvAwR0.s 			page 18


DEFINED SYMBOLS
                            *ABS*:0000000000000000 Track.cpp
/var/folders/wz/z09yph4n0qj4t7mjxhl6ttn80000gn/T//ccDvAwR0.s:19     .text._ZN5Track4initEPPfj:0000000000000000 $t
/var/folders/wz/z09yph4n0qj4t7mjxhl6ttn80000gn/T//ccDvAwR0.s:26     .text._ZN5Track4initEPPfj:0000000000000000 _ZN5Track4initEPPfj
/var/folders/wz/z09yph4n0qj4t7mjxhl6ttn80000gn/T//ccDvAwR0.s:174    .text._ZN5Track7prepareEv:0000000000000000 $t
/var/folders/wz/z09yph4n0qj4t7mjxhl6ttn80000gn/T//ccDvAwR0.s:181    .text._ZN5Track7prepareEv:0000000000000000 _ZN5Track7prepareEv
/var/folders/wz/z09yph4n0qj4t7mjxhl6ttn80000gn/T//ccDvAwR0.s:195    .text._ZN5Track4tickEv:0000000000000000 $t
/var/folders/wz/z09yph4n0qj4t7mjxhl6ttn80000gn/T//ccDvAwR0.s:202    .text._ZN5Track4tickEv:0000000000000000 _ZN5Track4tickEv
/var/folders/wz/z09yph4n0qj4t7mjxhl6ttn80000gn/T//ccDvAwR0.s:264    .text._ZN5Track14setIsRecordingEv:0000000000000000 $t
/var/folders/wz/z09yph4n0qj4t7mjxhl6ttn80000gn/T//ccDvAwR0.s:271    .text._ZN5Track14setIsRecordingEv:0000000000000000 _ZN5Track14setIsRecordingEv
/var/folders/wz/z09yph4n0qj4t7mjxhl6ttn80000gn/T//ccDvAwR0.s:316    .text._ZN5Track12setIsPlayingEv:0000000000000000 $t
/var/folders/wz/z09yph4n0qj4t7mjxhl6ttn80000gn/T//ccDvAwR0.s:323    .text._ZN5Track12setIsPlayingEv:0000000000000000 _ZN5Track12setIsPlayingEv
/var/folders/wz/z09yph4n0qj4t7mjxhl6ttn80000gn/T//ccDvAwR0.s:366    .text._ZN5Track17incrementPlayheadEv:0000000000000000 $t
/var/folders/wz/z09yph4n0qj4t7mjxhl6ttn80000gn/T//ccDvAwR0.s:373    .text._ZN5Track17incrementPlayheadEv:0000000000000000 _ZN5Track17incrementPlayheadEv
/var/folders/wz/z09yph4n0qj4t7mjxhl6ttn80000gn/T//ccDvAwR0.s:424    .text._ZN5Track17processInputBlockEPKfS1_j:0000000000000000 $t
/var/folders/wz/z09yph4n0qj4t7mjxhl6ttn80000gn/T//ccDvAwR0.s:431    .text._ZN5Track17processInputBlockEPKfS1_j:0000000000000000 _ZN5Track17processInputBlockEPKfS1_j
/var/folders/wz/z09yph4n0qj4t7mjxhl6ttn80000gn/T//ccDvAwR0.s:577    .text._ZN5Track18processOutputBlockEPfS0_j:0000000000000000 $t
/var/folders/wz/z09yph4n0qj4t7mjxhl6ttn80000gn/T//ccDvAwR0.s:584    .text._ZN5Track18processOutputBlockEPfS0_j:0000000000000000 _ZN5Track18processOutputBlockEPfS0_j

UNDEFINED SYMBOLS
memset
