ARM GAS  /var/folders/wz/z09yph4n0qj4t7mjxhl6ttn80000gn/T//ccofi4kh.s 			page 1


   1              		.cpu cortex-m7
   2              		.arch armv7e-m
   3              		.fpu fpv5-d16
   4              		.eabi_attribute 28, 1
   5              		.eabi_attribute 20, 1
   6              		.eabi_attribute 21, 1
   7              		.eabi_attribute 23, 3
   8              		.eabi_attribute 24, 1
   9              		.eabi_attribute 25, 1
  10              		.eabi_attribute 26, 1
  11              		.eabi_attribute 30, 2
  12              		.eabi_attribute 34, 1
  13              		.eabi_attribute 18, 4
  14              		.file	"Track.cpp"
  15              		.text
  16              	.Ltext0:
  17              		.cfi_sections	.debug_frame
  18              		.section	.text._ZN5Track4initEPPfj,"ax",%progbits
  19              		.align	1
  20              		.p2align 2,,3
  21              		.global	_ZN5Track4initEPPfj
  22              		.syntax unified
  23              		.thumb
  24              		.thumb_func
  26              	_ZN5Track4initEPPfj:
  27              	.LVL0:
  28              	.LFB1386:
  29              		.file 1 "DSP/Track.cpp"
   1:DSP/Track.cpp **** #include "Track.h"
   2:DSP/Track.cpp **** 
   3:DSP/Track.cpp **** void Track::init(float* mem[2], const size_t s)
   4:DSP/Track.cpp **** {
  30              		.loc 1 4 1 view -0
  31              		.cfi_startproc
  32              		@ args = 0, pretend = 0, frame = 8
  33              		@ frame_needed = 0, uses_anonymous_args = 0
   5:DSP/Track.cpp ****     bufferSize = s;
  34              		.loc 1 5 5 view .LVU1
   4:DSP/Track.cpp ****     bufferSize = s;
  35              		.loc 1 4 1 is_stmt 0 view .LVU2
  36 0000 30B5     		push	{r4, r5, lr}
  37              		.cfi_def_cfa_offset 12
  38              		.cfi_offset 4, -12
  39              		.cfi_offset 5, -8
  40              		.cfi_offset 14, -4
  41 0002 0446     		mov	r4, r0
  42              	.LBB10:
   6:DSP/Track.cpp ****     for(int i = 0 ; i < 2 ; i++)
   7:DSP/Track.cpp ****         buffer[i] = mem[i];
  43              		.loc 1 7 26 view .LVU3
  44 0004 0868     		ldr	r0, [r1]
  45              	.LVL1:
  46              		.loc 1 7 26 view .LVU4
  47              	.LBE10:
   4:DSP/Track.cpp ****     bufferSize = s;
  48              		.loc 1 4 1 view .LVU5
  49 0006 83B0     		sub	sp, sp, #12
ARM GAS  /var/folders/wz/z09yph4n0qj4t7mjxhl6ttn80000gn/T//ccofi4kh.s 			page 2


  50              		.cfi_def_cfa_offset 24
  51              	.LBB11:
  52              		.loc 1 7 19 view .LVU6
  53 0008 E060     		str	r0, [r4, #12]
  54              		.loc 1 7 26 view .LVU7
  55 000a 4D68     		ldr	r5, [r1, #4]
  56              	.LBE11:
   5:DSP/Track.cpp ****     for(int i = 0 ; i < 2 ; i++)
  57              		.loc 1 5 16 view .LVU8
  58 000c 6261     		str	r2, [r4, #20]
   6:DSP/Track.cpp ****     for(int i = 0 ; i < 2 ; i++)
  59              		.loc 1 6 5 is_stmt 1 view .LVU9
  60              	.LVL2:
  61              	.LBB12:
   6:DSP/Track.cpp ****     for(int i = 0 ; i < 2 ; i++)
  62              		.loc 1 6 23 view .LVU10
  63              		.loc 1 7 9 view .LVU11
   6:DSP/Track.cpp ****     for(int i = 0 ; i < 2 ; i++)
  64              		.loc 1 6 5 view .LVU12
   6:DSP/Track.cpp ****     for(int i = 0 ; i < 2 ; i++)
  65              		.loc 1 6 23 view .LVU13
  66              		.loc 1 7 9 view .LVU14
  67              		.loc 1 7 19 is_stmt 0 view .LVU15
  68 000e 2561     		str	r5, [r4, #16]
   6:DSP/Track.cpp ****     for(int i = 0 ; i < 2 ; i++)
  69              		.loc 1 6 5 is_stmt 1 view .LVU16
  70              	.LVL3:
   6:DSP/Track.cpp ****     for(int i = 0 ; i < 2 ; i++)
  71              		.loc 1 6 23 view .LVU17
   6:DSP/Track.cpp ****     for(int i = 0 ; i < 2 ; i++)
  72              		.loc 1 6 23 is_stmt 0 view .LVU18
  73              	.LBE12:
  74              	.LBB13:
   8:DSP/Track.cpp **** 
   9:DSP/Track.cpp ****     for(size_t i = 0 ; i < s ; i++)
  75              		.loc 1 9 26 is_stmt 1 view .LVU19
  76 0010 8AB1     		cbz	r2, .L2
  77 0012 1346     		mov	r3, r2
  78 0014 9200     		lsls	r2, r2, #2
  79              	.LVL4:
  80              		.loc 1 9 26 is_stmt 0 view .LVU20
  81 0016 05EB8303 		add	r3, r5, r3, lsl #2
  82              	.LVL5:
  83              		.loc 1 9 26 view .LVU21
  84 001a 9842     		cmp	r0, r3
  85 001c 02D2     		bcs	.L6
  86 001e 8118     		adds	r1, r0, r2
  87              	.LVL6:
  88              		.loc 1 9 26 view .LVU22
  89 0020 8D42     		cmp	r5, r1
  90 0022 0DD3     		bcc	.L5
  91              	.L6:
  10:DSP/Track.cpp ****     {
  11:DSP/Track.cpp ****         buffer[L][i] = 0.0f;
  92              		.loc 1 11 22 view .LVU23
  93 0024 0021     		movs	r1, #0
  94 0026 0192     		str	r2, [sp, #4]
ARM GAS  /var/folders/wz/z09yph4n0qj4t7mjxhl6ttn80000gn/T//ccofi4kh.s 			page 3


  95 0028 FFF7FEFF 		bl	memset
  96              	.LVL7:
  12:DSP/Track.cpp ****         buffer[R][i] = 0.0f;
  97              		.loc 1 12 22 view .LVU24
  98 002c 019A     		ldr	r2, [sp, #4]
  99 002e 0021     		movs	r1, #0
 100 0030 2846     		mov	r0, r5
 101 0032 FFF7FEFF 		bl	memset
 102              	.LVL8:
 103              	.L2:
 104              		.loc 1 12 22 view .LVU25
 105              	.LBE13:
  13:DSP/Track.cpp ****     }
  14:DSP/Track.cpp **** 
  15:DSP/Track.cpp ****     ph.isRecording = false;
 106              		.loc 1 15 5 is_stmt 1 view .LVU26
  16:DSP/Track.cpp ****     ph.isPlaying = false;
 107              		.loc 1 16 5 view .LVU27
  15:DSP/Track.cpp ****     ph.isPlaying = false;
 108              		.loc 1 15 20 is_stmt 0 view .LVU28
 109 0036 0023     		movs	r3, #0
 110 0038 2380     		strh	r3, [r4]	@ movhi
  17:DSP/Track.cpp ****     ph.reset();
 111              		.loc 1 17 5 is_stmt 1 view .LVU29
 112              	.LVL9:
 113              	.LBB14:
 114              	.LBI14:
 115              		.file 2 "DSP/Helpers.h"
   1:DSP/Helpers.h **** #include "stddef.h"
   2:DSP/Helpers.h **** #include <algorithm>
   3:DSP/Helpers.h **** 
   4:DSP/Helpers.h **** // playhead
   5:DSP/Helpers.h **** struct Playhead
   6:DSP/Helpers.h **** {
   7:DSP/Helpers.h ****     bool isRecording;
   8:DSP/Helpers.h ****     bool isPlaying;
   9:DSP/Helpers.h ****     size_t pos;
  10:DSP/Helpers.h **** 
  11:DSP/Helpers.h ****     void reset() { pos = 0; }
 116              		.loc 2 11 10 view .LVU30
 117              	.LBB15:
 118              		.loc 2 11 20 view .LVU31
 119              		.loc 2 11 24 is_stmt 0 view .LVU32
 120 003a 6360     		str	r3, [r4, #4]
 121              	.LVL10:
 122              		.loc 2 11 24 view .LVU33
 123              	.LBE15:
 124              	.LBE14:
  18:DSP/Track.cpp **** }
 125              		.loc 1 18 1 view .LVU34
 126 003c 03B0     		add	sp, sp, #12
 127              		.cfi_remember_state
 128              		.cfi_def_cfa_offset 12
 129              		@ sp needed
 130 003e 30BD     		pop	{r4, r5, pc}
 131              	.LVL11:
 132              	.L5:
ARM GAS  /var/folders/wz/z09yph4n0qj4t7mjxhl6ttn80000gn/T//ccofi4kh.s 			page 4


 133              		.cfi_restore_state
 134              	.LBB16:
  11:DSP/Track.cpp ****         buffer[R][i] = 0.0f;
 135              		.loc 1 11 9 is_stmt 1 view .LVU35
  11:DSP/Track.cpp ****         buffer[R][i] = 0.0f;
 136              		.loc 1 11 22 is_stmt 0 view .LVU36
 137 0040 0023     		movs	r3, #0
 138 0042 40F8043B 		str	r3, [r0], #4	@ float
  12:DSP/Track.cpp ****     }
 139              		.loc 1 12 9 is_stmt 1 view .LVU37
   9:DSP/Track.cpp ****     {
 140              		.loc 1 9 26 is_stmt 0 view .LVU38
 141 0046 8842     		cmp	r0, r1
  12:DSP/Track.cpp ****     }
 142              		.loc 1 12 22 view .LVU39
 143 0048 45F8043B 		str	r3, [r5], #4	@ float
   9:DSP/Track.cpp ****     {
 144              		.loc 1 9 5 is_stmt 1 view .LVU40
   9:DSP/Track.cpp ****     {
 145              		.loc 1 9 26 view .LVU41
 146 004c F3D0     		beq	.L2
  11:DSP/Track.cpp ****         buffer[R][i] = 0.0f;
 147              		.loc 1 11 9 view .LVU42
  11:DSP/Track.cpp ****         buffer[R][i] = 0.0f;
 148              		.loc 1 11 22 is_stmt 0 view .LVU43
 149 004e 0023     		movs	r3, #0
 150 0050 40F8043B 		str	r3, [r0], #4	@ float
  12:DSP/Track.cpp ****     }
 151              		.loc 1 12 9 is_stmt 1 view .LVU44
   9:DSP/Track.cpp ****     {
 152              		.loc 1 9 26 is_stmt 0 view .LVU45
 153 0054 8842     		cmp	r0, r1
  12:DSP/Track.cpp ****     }
 154              		.loc 1 12 22 view .LVU46
 155 0056 45F8043B 		str	r3, [r5], #4	@ float
   9:DSP/Track.cpp ****     {
 156              		.loc 1 9 5 is_stmt 1 view .LVU47
   9:DSP/Track.cpp ****     {
 157              		.loc 1 9 26 view .LVU48
 158 005a F1D1     		bne	.L5
 159 005c EBE7     		b	.L2
 160              	.LBE16:
 161              		.cfi_endproc
 162              	.LFE1386:
 164 005e 00BF     		.section	.text._ZN5Track7prepareEv,"ax",%progbits
 165              		.align	1
 166              		.p2align 2,,3
 167              		.global	_ZN5Track7prepareEv
 168              		.syntax unified
 169              		.thumb
 170              		.thumb_func
 172              	_ZN5Track7prepareEv:
 173              	.LVL12:
 174              	.LFB1387:
  19:DSP/Track.cpp **** 
  20:DSP/Track.cpp **** void Track::prepare()
  21:DSP/Track.cpp **** {
ARM GAS  /var/folders/wz/z09yph4n0qj4t7mjxhl6ttn80000gn/T//ccofi4kh.s 			page 5


 175              		.loc 1 21 1 view -0
 176              		.cfi_startproc
 177              		@ args = 0, pretend = 0, frame = 0
 178              		@ frame_needed = 0, uses_anonymous_args = 0
 179              		@ link register save eliminated.
  22:DSP/Track.cpp **** 
  23:DSP/Track.cpp **** }
 180              		.loc 1 23 1 is_stmt 0 view .LVU50
 181 0000 7047     		bx	lr
 182              		.cfi_endproc
 183              	.LFE1387:
 185 0002 00BF     		.section	.text._ZN5Track12processBlockEj,"ax",%progbits
 186              		.align	1
 187              		.p2align 2,,3
 188              		.global	_ZN5Track12processBlockEj
 189              		.syntax unified
 190              		.thumb
 191              		.thumb_func
 193              	_ZN5Track12processBlockEj:
 194              	.LVL13:
 195              	.LFB1388:
  24:DSP/Track.cpp **** 
  25:DSP/Track.cpp **** void Track::processBlock(size_t size)
  26:DSP/Track.cpp **** {
 196              		.loc 1 26 1 is_stmt 1 view -0
 197              		.cfi_startproc
 198              		@ args = 0, pretend = 0, frame = 0
 199              		@ frame_needed = 0, uses_anonymous_args = 0
 200              		@ link register save eliminated.
  27:DSP/Track.cpp ****     for(size_t i = 0 ; i < size ; i++)
 201              		.loc 1 27 5 view .LVU52
 202              	.LBB22:
 203              		.loc 1 27 26 view .LVU53
 204 0000 99B1     		cbz	r1, .L31
 205              		.loc 1 27 16 is_stmt 0 view .LVU54
 206 0002 0023     		movs	r3, #0
 207              	.LBE22:
  26:DSP/Track.cpp ****     for(size_t i = 0 ; i < size ; i++)
 208              		.loc 1 26 1 view .LVU55
 209 0004 F0B4     		push	{r4, r5, r6, r7}
 210              		.cfi_def_cfa_offset 16
 211              		.cfi_offset 4, -16
 212              		.cfi_offset 5, -12
 213              		.cfi_offset 6, -8
 214              		.cfi_offset 7, -4
 215              	.LBB31:
 216              	.LBB23:
 217              	.LBB24:
  28:DSP/Track.cpp ****     {
  29:DSP/Track.cpp ****         
  30:DSP/Track.cpp **** 
  31:DSP/Track.cpp **** 
  32:DSP/Track.cpp ****         incrementPlayhead();
  33:DSP/Track.cpp ****     }
  34:DSP/Track.cpp **** }
  35:DSP/Track.cpp **** 
  36:DSP/Track.cpp **** void Track::tick()
ARM GAS  /var/folders/wz/z09yph4n0qj4t7mjxhl6ttn80000gn/T//ccofi4kh.s 			page 6


  37:DSP/Track.cpp **** {
  38:DSP/Track.cpp ****     if(!ph.isPlaying || ph.isRecording)
  39:DSP/Track.cpp ****         return;
  40:DSP/Track.cpp **** 
  41:DSP/Track.cpp ****     incrementPlayhead();
  42:DSP/Track.cpp **** }
  43:DSP/Track.cpp **** 
  44:DSP/Track.cpp **** void Track::setIsRecording()
  45:DSP/Track.cpp **** {
  46:DSP/Track.cpp ****     ph.isRecording = !ph.isRecording;
  47:DSP/Track.cpp **** 
  48:DSP/Track.cpp ****     if(!ph.isRecording)
  49:DSP/Track.cpp ****         ti.loopLength = ph.pos;
  50:DSP/Track.cpp **** 
  51:DSP/Track.cpp ****     ph.reset();
  52:DSP/Track.cpp **** }
  53:DSP/Track.cpp **** 
  54:DSP/Track.cpp **** void Track::setIsPlaying()
  55:DSP/Track.cpp **** {
  56:DSP/Track.cpp ****     ph.isPlaying = !ph.isPlaying;
  57:DSP/Track.cpp ****     ph.reset();
  58:DSP/Track.cpp **** }
  59:DSP/Track.cpp **** 
  60:DSP/Track.cpp **** void Track::incrementPlayhead()
  61:DSP/Track.cpp **** {
  62:DSP/Track.cpp ****     if(!ph.isRecording || !ph.isPlaying)
 218              		.loc 1 62 12 view .LVU56
 219 0006 0578     		ldrb	r5, [r0]	@ zero_extendqisi2
 220              	.LVL14:
 221              	.L19:
 222              		.loc 1 62 12 view .LVU57
 223              	.LBE24:
 224              	.LBE23:
  32:DSP/Track.cpp ****     }
 225              		.loc 1 32 9 is_stmt 1 view .LVU58
 226              	.LBB30:
 227              	.LBI23:
  60:DSP/Track.cpp **** {
 228              		.loc 1 60 6 view .LVU59
 229              	.LBB29:
 230              		.loc 1 62 5 view .LVU60
 231              	.LBB25:
 232              	.LBI25:
  60:DSP/Track.cpp **** {
 233              		.loc 1 60 6 view .LVU61
 234              	.LBB26:
  63:DSP/Track.cpp ****         return;
  64:DSP/Track.cpp **** 
  65:DSP/Track.cpp ****     if(ph.isRecording)
 235              		.loc 1 65 5 view .LVU62
  66:DSP/Track.cpp ****     {
  67:DSP/Track.cpp ****         if(ph.pos > (bufferSize - 1))
 236              		.loc 1 67 9 view .LVU63
 237              	.LBE26:
 238              	.LBE25:
  62:DSP/Track.cpp ****         return;
 239              		.loc 1 62 5 is_stmt 0 view .LVU64
ARM GAS  /var/folders/wz/z09yph4n0qj4t7mjxhl6ttn80000gn/T//ccofi4kh.s 			page 7


 240 0008 55B1     		cbz	r5, .L17
  62:DSP/Track.cpp ****         return;
 241              		.loc 1 62 24 view .LVU65
 242 000a 4278     		ldrb	r2, [r0, #1]	@ zero_extendqisi2
 243 000c 42B1     		cbz	r2, .L17
 244              	.LBB28:
 245              	.LBB27:
  68:DSP/Track.cpp ****             ph.pos = 0;
 246              		.loc 1 68 13 is_stmt 1 view .LVU66
  69:DSP/Track.cpp ****         else
  70:DSP/Track.cpp ****             ph.pos++;
 247              		.loc 1 70 13 view .LVU67
  67:DSP/Track.cpp ****             ph.pos = 0;
 248              		.loc 1 67 33 is_stmt 0 view .LVU68
 249 000e 4269     		ldr	r2, [r0, #20]
  68:DSP/Track.cpp ****             ph.pos = 0;
 250              		.loc 1 68 20 view .LVU69
 251 0010 0027     		movs	r7, #0
  67:DSP/Track.cpp ****             ph.pos = 0;
 252              		.loc 1 67 15 view .LVU70
 253 0012 4468     		ldr	r4, [r0, #4]
  67:DSP/Track.cpp ****             ph.pos = 0;
 254              		.loc 1 67 33 view .LVU71
 255 0014 013A     		subs	r2, r2, #1
 256              		.loc 1 70 19 view .LVU72
 257 0016 661C     		adds	r6, r4, #1
  67:DSP/Track.cpp ****             ph.pos = 0;
 258              		.loc 1 67 9 view .LVU73
 259 0018 9442     		cmp	r4, r2
  68:DSP/Track.cpp ****             ph.pos = 0;
 260              		.loc 1 68 20 view .LVU74
 261 001a 8CBF     		ite	hi
 262 001c 4760     		strhi	r7, [r0, #4]
 263              		.loc 1 70 19 view .LVU75
 264 001e 4660     		strls	r6, [r0, #4]
 265              	.L17:
 266              	.LVL15:
 267              		.loc 1 70 19 view .LVU76
 268              	.LBE27:
 269              	.LBE28:
 270              	.LBE29:
 271              	.LBE30:
  27:DSP/Track.cpp ****     {
 272              		.loc 1 27 5 is_stmt 1 view .LVU77
 273 0020 0133     		adds	r3, r3, #1
 274              	.LVL16:
  27:DSP/Track.cpp ****     {
 275              		.loc 1 27 26 view .LVU78
 276 0022 9942     		cmp	r1, r3
 277 0024 F0D1     		bne	.L19
 278              	.LBE31:
  34:DSP/Track.cpp **** 
 279              		.loc 1 34 1 is_stmt 0 view .LVU79
 280 0026 F0BC     		pop	{r4, r5, r6, r7}
 281              		.cfi_restore 7
 282              		.cfi_restore 6
 283              		.cfi_restore 5
ARM GAS  /var/folders/wz/z09yph4n0qj4t7mjxhl6ttn80000gn/T//ccofi4kh.s 			page 8


 284              		.cfi_restore 4
 285              		.cfi_def_cfa_offset 0
 286 0028 7047     		bx	lr
 287              	.LVL17:
 288              	.L31:
  34:DSP/Track.cpp **** 
 289              		.loc 1 34 1 view .LVU80
 290 002a 7047     		bx	lr
 291              		.cfi_endproc
 292              	.LFE1388:
 294              		.section	.text._ZN5Track4tickEv,"ax",%progbits
 295              		.align	1
 296              		.p2align 2,,3
 297              		.global	_ZN5Track4tickEv
 298              		.syntax unified
 299              		.thumb
 300              		.thumb_func
 302              	_ZN5Track4tickEv:
 303              	.LVL18:
 304              	.LFB1389:
  37:DSP/Track.cpp ****     if(!ph.isPlaying || ph.isRecording)
 305              		.loc 1 37 1 is_stmt 1 view -0
 306              		.cfi_startproc
 307              		@ args = 0, pretend = 0, frame = 0
 308              		@ frame_needed = 0, uses_anonymous_args = 0
 309              		@ link register save eliminated.
  38:DSP/Track.cpp ****         return;
 310              		.loc 1 38 5 view .LVU82
  42:DSP/Track.cpp **** 
 311              		.loc 1 42 1 is_stmt 0 view .LVU83
 312 0000 7047     		bx	lr
 313              		.cfi_endproc
 314              	.LFE1389:
 316 0002 00BF     		.section	.text._ZN5Track14setIsRecordingEv,"ax",%progbits
 317              		.align	1
 318              		.p2align 2,,3
 319              		.global	_ZN5Track14setIsRecordingEv
 320              		.syntax unified
 321              		.thumb
 322              		.thumb_func
 324              	_ZN5Track14setIsRecordingEv:
 325              	.LVL19:
 326              	.LFB1390:
  45:DSP/Track.cpp ****     ph.isRecording = !ph.isRecording;
 327              		.loc 1 45 1 is_stmt 1 view -0
 328              		.cfi_startproc
 329              		@ args = 0, pretend = 0, frame = 0
 330              		@ frame_needed = 0, uses_anonymous_args = 0
 331              		@ link register save eliminated.
  46:DSP/Track.cpp **** 
 332              		.loc 1 46 5 view .LVU85
  46:DSP/Track.cpp **** 
 333              		.loc 1 46 22 is_stmt 0 view .LVU86
 334 0000 0378     		ldrb	r3, [r0]	@ zero_extendqisi2
 335 0002 83F00103 		eor	r3, r3, #1
  46:DSP/Track.cpp **** 
 336              		.loc 1 46 20 view .LVU87
ARM GAS  /var/folders/wz/z09yph4n0qj4t7mjxhl6ttn80000gn/T//ccofi4kh.s 			page 9


 337 0006 0370     		strb	r3, [r0]
  48:DSP/Track.cpp ****         ti.loopLength = ph.pos;
 338              		.loc 1 48 5 is_stmt 1 view .LVU88
 339 0008 0BB9     		cbnz	r3, .L36
  49:DSP/Track.cpp **** 
 340              		.loc 1 49 9 view .LVU89
  49:DSP/Track.cpp **** 
 341              		.loc 1 49 23 is_stmt 0 view .LVU90
 342 000a 4368     		ldr	r3, [r0, #4]
 343 000c 8360     		str	r3, [r0, #8]
 344              	.L36:
  51:DSP/Track.cpp **** }
 345              		.loc 1 51 5 is_stmt 1 view .LVU91
 346              	.LVL20:
 347              	.LBB36:
 348              	.LBI36:
 349              		.loc 2 11 10 view .LVU92
 350              	.LBB37:
 351              		.loc 2 11 20 view .LVU93
 352              		.loc 2 11 24 is_stmt 0 view .LVU94
 353 000e 0023     		movs	r3, #0
 354 0010 4360     		str	r3, [r0, #4]
 355              	.LVL21:
 356              		.loc 2 11 24 view .LVU95
 357              	.LBE37:
 358              	.LBE36:
  52:DSP/Track.cpp **** 
 359              		.loc 1 52 1 view .LVU96
 360 0012 7047     		bx	lr
 361              		.cfi_endproc
 362              	.LFE1390:
 364              		.section	.text._ZN5Track12setIsPlayingEv,"ax",%progbits
 365              		.align	1
 366              		.p2align 2,,3
 367              		.global	_ZN5Track12setIsPlayingEv
 368              		.syntax unified
 369              		.thumb
 370              		.thumb_func
 372              	_ZN5Track12setIsPlayingEv:
 373              	.LVL22:
 374              	.LFB1391:
  55:DSP/Track.cpp ****     ph.isPlaying = !ph.isPlaying;
 375              		.loc 1 55 1 is_stmt 1 view -0
 376              		.cfi_startproc
 377              		@ args = 0, pretend = 0, frame = 0
 378              		@ frame_needed = 0, uses_anonymous_args = 0
 379              		@ link register save eliminated.
  56:DSP/Track.cpp ****     ph.reset();
 380              		.loc 1 56 5 view .LVU98
  56:DSP/Track.cpp ****     ph.reset();
 381              		.loc 1 56 20 is_stmt 0 view .LVU99
 382 0000 4378     		ldrb	r3, [r0, #1]	@ zero_extendqisi2
 383              	.LBB38:
 384              	.LBB39:
 385              		.loc 2 11 24 view .LVU100
 386 0002 0022     		movs	r2, #0
 387              	.LBE39:
ARM GAS  /var/folders/wz/z09yph4n0qj4t7mjxhl6ttn80000gn/T//ccofi4kh.s 			page 10


 388              	.LBE38:
  56:DSP/Track.cpp ****     ph.reset();
 389              		.loc 1 56 20 view .LVU101
 390 0004 83F00103 		eor	r3, r3, #1
 391              	.LBB42:
 392              	.LBB40:
 393              		.loc 2 11 24 view .LVU102
 394 0008 4260     		str	r2, [r0, #4]
 395              	.LBE40:
 396              	.LBE42:
  56:DSP/Track.cpp ****     ph.reset();
 397              		.loc 1 56 18 view .LVU103
 398 000a 4370     		strb	r3, [r0, #1]
  57:DSP/Track.cpp **** }
 399              		.loc 1 57 5 is_stmt 1 view .LVU104
 400              	.LVL23:
 401              	.LBB43:
 402              	.LBI38:
 403              		.loc 2 11 10 view .LVU105
 404              	.LBB41:
 405              		.loc 2 11 20 view .LVU106
 406              		.loc 2 11 20 is_stmt 0 view .LVU107
 407              	.LBE41:
 408              	.LBE43:
  58:DSP/Track.cpp **** 
 409              		.loc 1 58 1 view .LVU108
 410 000c 7047     		bx	lr
 411              		.cfi_endproc
 412              	.LFE1391:
 414 000e 00BF     		.section	.text._ZN5Track17incrementPlayheadEv,"ax",%progbits
 415              		.align	1
 416              		.p2align 2,,3
 417              		.global	_ZN5Track17incrementPlayheadEv
 418              		.syntax unified
 419              		.thumb
 420              		.thumb_func
 422              	_ZN5Track17incrementPlayheadEv:
 423              	.LVL24:
 424              	.LFB1392:
  61:DSP/Track.cpp ****     if(!ph.isRecording || !ph.isPlaying)
 425              		.loc 1 61 1 is_stmt 1 view -0
 426              		.cfi_startproc
 427              		@ args = 0, pretend = 0, frame = 0
 428              		@ frame_needed = 0, uses_anonymous_args = 0
 429              		@ link register save eliminated.
  62:DSP/Track.cpp ****         return;
 430              		.loc 1 62 5 view .LVU110
 431 0000 0378     		ldrb	r3, [r0]	@ zero_extendqisi2
 432 0002 5BB1     		cbz	r3, .L38
  62:DSP/Track.cpp ****         return;
 433              		.loc 1 62 24 is_stmt 0 discriminator 1 view .LVU111
 434 0004 4378     		ldrb	r3, [r0, #1]	@ zero_extendqisi2
 435 0006 4BB1     		cbz	r3, .L38
 436              	.LVL25:
 437              	.LBB46:
 438              	.LBI46:
  60:DSP/Track.cpp **** {
ARM GAS  /var/folders/wz/z09yph4n0qj4t7mjxhl6ttn80000gn/T//ccofi4kh.s 			page 11


 439              		.loc 1 60 6 is_stmt 1 view .LVU112
 440              	.LBB47:
  65:DSP/Track.cpp ****     {
 441              		.loc 1 65 5 view .LVU113
  67:DSP/Track.cpp ****             ph.pos = 0;
 442              		.loc 1 67 9 view .LVU114
  67:DSP/Track.cpp ****             ph.pos = 0;
 443              		.loc 1 67 33 is_stmt 0 view .LVU115
 444 0008 4369     		ldr	r3, [r0, #20]
  67:DSP/Track.cpp ****             ph.pos = 0;
 445              		.loc 1 67 15 view .LVU116
 446 000a 4268     		ldr	r2, [r0, #4]
  67:DSP/Track.cpp ****             ph.pos = 0;
 447              		.loc 1 67 33 view .LVU117
 448 000c 013B     		subs	r3, r3, #1
  67:DSP/Track.cpp ****             ph.pos = 0;
 449              		.loc 1 67 9 view .LVU118
 450 000e 9A42     		cmp	r2, r3
 451 0010 02D9     		bls	.L40
  68:DSP/Track.cpp ****         else
 452              		.loc 1 68 13 is_stmt 1 view .LVU119
  68:DSP/Track.cpp ****         else
 453              		.loc 1 68 20 is_stmt 0 view .LVU120
 454 0012 0023     		movs	r3, #0
 455 0014 4360     		str	r3, [r0, #4]
 456 0016 7047     		bx	lr
 457              	.L40:
 458              		.loc 1 70 13 is_stmt 1 view .LVU121
 459              		.loc 1 70 19 is_stmt 0 view .LVU122
 460 0018 0132     		adds	r2, r2, #1
 461 001a 4260     		str	r2, [r0, #4]
 462              	.LVL26:
 463              	.L38:
 464              		.loc 1 70 19 view .LVU123
 465              	.LBE47:
 466              	.LBE46:
  71:DSP/Track.cpp ****     } else if(ph.isPlaying)
  72:DSP/Track.cpp ****     {
  73:DSP/Track.cpp ****         if(ph.pos > (ti.loopLength - 1))
  74:DSP/Track.cpp ****             ph.pos = 0;
  75:DSP/Track.cpp ****         else
  76:DSP/Track.cpp ****             ph.pos++;
  77:DSP/Track.cpp ****     }
  78:DSP/Track.cpp **** }
 467              		.loc 1 78 1 view .LVU124
 468 001c 7047     		bx	lr
 469              		.cfi_endproc
 470              	.LFE1392:
 472 001e 00BF     		.section	.text._ZN5Track12processInputEPKfS1_j,"ax",%progbits
 473              		.align	1
 474              		.p2align 2,,3
 475              		.global	_ZN5Track12processInputEPKfS1_j
 476              		.syntax unified
 477              		.thumb
 478              		.thumb_func
 480              	_ZN5Track12processInputEPKfS1_j:
 481              	.LVL27:
ARM GAS  /var/folders/wz/z09yph4n0qj4t7mjxhl6ttn80000gn/T//ccofi4kh.s 			page 12


 482              	.LFB1393:
  79:DSP/Track.cpp **** 
  80:DSP/Track.cpp **** void Track::processInput(const float* left, const float* right, size_t size)
  81:DSP/Track.cpp **** {
 483              		.loc 1 81 1 is_stmt 1 view -0
 484              		.cfi_startproc
 485              		@ args = 0, pretend = 0, frame = 0
 486              		@ frame_needed = 0, uses_anonymous_args = 0
  82:DSP/Track.cpp ****     if(!ph.isRecording)
 487              		.loc 1 82 5 view .LVU126
  81:DSP/Track.cpp ****     if(!ph.isRecording)
 488              		.loc 1 81 1 is_stmt 0 view .LVU127
 489 0000 2DE9F043 		push	{r4, r5, r6, r7, r8, r9, lr}
 490              		.cfi_def_cfa_offset 28
 491              		.cfi_offset 4, -28
 492              		.cfi_offset 5, -24
 493              		.cfi_offset 6, -20
 494              		.cfi_offset 7, -16
 495              		.cfi_offset 8, -12
 496              		.cfi_offset 9, -8
 497              		.cfi_offset 14, -4
 498              		.loc 1 82 5 view .LVU128
 499 0004 0478     		ldrb	r4, [r0]	@ zero_extendqisi2
 500 0006 1CB3     		cbz	r4, .L47
 501              	.LVL28:
 502              	.LBB53:
  83:DSP/Track.cpp ****         return;
  84:DSP/Track.cpp **** 
  85:DSP/Track.cpp ****     for(size_t i = 0 ; i < size ; i++)
 503              		.loc 1 85 26 is_stmt 1 view .LVU129
 504 0008 13B3     		cbz	r3, .L47
  86:DSP/Track.cpp ****     {
  87:DSP/Track.cpp ****         buffer[L][ph.pos] = left[i];
 505              		.loc 1 87 17 is_stmt 0 view .LVU130
 506 000a C768     		ldr	r7, [r0, #12]
 507 000c 9146     		mov	r9, r2
 508 000e 01EB8304 		add	r4, r1, r3, lsl #2
  88:DSP/Track.cpp ****         buffer[R][ph.pos] = right[i];
 509              		.loc 1 88 17 view .LVU131
 510 0012 0669     		ldr	r6, [r0, #16]
 511              	.LBB54:
 512              	.LBB55:
  62:DSP/Track.cpp ****         return;
 513              		.loc 1 62 31 view .LVU132
 514 0014 4578     		ldrb	r5, [r0, #1]	@ zero_extendqisi2
 515              	.LVL29:
 516              	.L51:
  62:DSP/Track.cpp ****         return;
 517              		.loc 1 62 31 view .LVU133
 518              	.LBE55:
 519              	.LBE54:
  87:DSP/Track.cpp ****         buffer[R][ph.pos] = right[i];
 520              		.loc 1 87 9 is_stmt 1 discriminator 2 view .LVU134
 521              	.LBB62:
 522              	.LBB60:
 523              	.LBB56:
 524              	.LBI56:
ARM GAS  /var/folders/wz/z09yph4n0qj4t7mjxhl6ttn80000gn/T//ccofi4kh.s 			page 13


  60:DSP/Track.cpp **** {
 525              		.loc 1 60 6 discriminator 2 view .LVU135
 526              	.LBB57:
  65:DSP/Track.cpp ****     {
 527              		.loc 1 65 5 discriminator 2 view .LVU136
  67:DSP/Track.cpp ****             ph.pos = 0;
 528              		.loc 1 67 9 discriminator 2 view .LVU137
 529              	.LBE57:
 530              	.LBE56:
 531              	.LBE60:
 532              	.LBE62:
  87:DSP/Track.cpp ****         buffer[R][ph.pos] = right[i];
 533              		.loc 1 87 22 is_stmt 0 discriminator 2 view .LVU138
 534 0016 4368     		ldr	r3, [r0, #4]
  87:DSP/Track.cpp ****         buffer[R][ph.pos] = right[i];
 535              		.loc 1 87 35 discriminator 2 view .LVU139
 536 0018 F1EC017A 		vldmia.32	r1!, {s15}
  87:DSP/Track.cpp ****         buffer[R][ph.pos] = right[i];
 537              		.loc 1 87 27 discriminator 2 view .LVU140
 538 001c 07EB830E 		add	lr, r7, r3, lsl #2
 539              		.loc 1 88 27 discriminator 2 view .LVU141
 540 0020 06EB830C 		add	ip, r6, r3, lsl #2
  87:DSP/Track.cpp ****         buffer[R][ph.pos] = right[i];
 541              		.loc 1 87 27 discriminator 2 view .LVU142
 542 0024 CEED007A 		vstr.32	s15, [lr]
 543              		.loc 1 88 9 is_stmt 1 discriminator 2 view .LVU143
 544              		.loc 1 88 36 is_stmt 0 discriminator 2 view .LVU144
 545 0028 59F804EB 		ldr	lr, [r9], #4	@ float
 546              		.loc 1 88 27 discriminator 2 view .LVU145
 547 002c CCF800E0 		str	lr, [ip]	@ float
  89:DSP/Track.cpp **** 
  90:DSP/Track.cpp ****         incrementPlayhead();
 548              		.loc 1 90 9 is_stmt 1 discriminator 2 view .LVU146
 549              	.LVL30:
 550              	.LBB63:
 551              	.LBI54:
  60:DSP/Track.cpp **** {
 552              		.loc 1 60 6 discriminator 2 view .LVU147
 553              	.LBB61:
  62:DSP/Track.cpp ****         return;
 554              		.loc 1 62 5 discriminator 2 view .LVU148
  62:DSP/Track.cpp ****         return;
 555              		.loc 1 62 24 is_stmt 0 discriminator 2 view .LVU149
 556 0030 65B1     		cbz	r5, .L49
 557              	.LBB59:
 558              	.LBB58:
  68:DSP/Track.cpp ****         else
 559              		.loc 1 68 13 is_stmt 1 view .LVU150
  70:DSP/Track.cpp ****     } else if(ph.isPlaying)
 560              		.loc 1 70 13 view .LVU151
  67:DSP/Track.cpp ****             ph.pos = 0;
 561              		.loc 1 67 33 is_stmt 0 view .LVU152
 562 0032 4269     		ldr	r2, [r0, #20]
  68:DSP/Track.cpp ****         else
 563              		.loc 1 68 20 view .LVU153
 564 0034 4FF00008 		mov	r8, #0
  70:DSP/Track.cpp ****     } else if(ph.isPlaying)
ARM GAS  /var/folders/wz/z09yph4n0qj4t7mjxhl6ttn80000gn/T//ccofi4kh.s 			page 14


 565              		.loc 1 70 19 view .LVU154
 566 0038 03F1010E 		add	lr, r3, #1
  67:DSP/Track.cpp ****             ph.pos = 0;
 567              		.loc 1 67 33 view .LVU155
 568 003c 02F1FF3C 		add	ip, r2, #-1
  67:DSP/Track.cpp ****             ph.pos = 0;
 569              		.loc 1 67 9 view .LVU156
 570 0040 6345     		cmp	r3, ip
  68:DSP/Track.cpp ****         else
 571              		.loc 1 68 20 view .LVU157
 572 0042 8CBF     		ite	hi
 573 0044 C0F80480 		strhi	r8, [r0, #4]
  70:DSP/Track.cpp ****     } else if(ph.isPlaying)
 574              		.loc 1 70 19 view .LVU158
 575 0048 C0F804E0 		strls	lr, [r0, #4]
 576              	.L49:
 577              	.LVL31:
  70:DSP/Track.cpp ****     } else if(ph.isPlaying)
 578              		.loc 1 70 19 view .LVU159
 579              	.LBE58:
 580              	.LBE59:
 581              	.LBE61:
 582              	.LBE63:
  85:DSP/Track.cpp ****     {
 583              		.loc 1 85 5 is_stmt 1 view .LVU160
  85:DSP/Track.cpp ****     {
 584              		.loc 1 85 26 view .LVU161
 585 004c A142     		cmp	r1, r4
 586 004e E2D1     		bne	.L51
 587              	.L47:
  85:DSP/Track.cpp ****     {
 588              		.loc 1 85 26 is_stmt 0 view .LVU162
 589              	.LBE53:
  91:DSP/Track.cpp ****     }
  92:DSP/Track.cpp **** }
 590              		.loc 1 92 1 view .LVU163
 591 0050 BDE8F083 		pop	{r4, r5, r6, r7, r8, r9, pc}
 592              		.cfi_endproc
 593              	.LFE1393:
 595              		.section	.text._ZN5Track17processOutputLeftEv,"ax",%progbits
 596              		.align	1
 597              		.p2align 2,,3
 598              		.global	_ZN5Track17processOutputLeftEv
 599              		.syntax unified
 600              		.thumb
 601              		.thumb_func
 603              	_ZN5Track17processOutputLeftEv:
 604              	.LVL32:
 605              	.LFB1394:
  93:DSP/Track.cpp **** 
  94:DSP/Track.cpp **** float* Track::processOutputLeft()
  95:DSP/Track.cpp **** {
 606              		.loc 1 95 1 is_stmt 1 view -0
 607              		.cfi_startproc
 608              		@ args = 0, pretend = 0, frame = 0
 609              		@ frame_needed = 0, uses_anonymous_args = 0
 610              		@ link register save eliminated.
ARM GAS  /var/folders/wz/z09yph4n0qj4t7mjxhl6ttn80000gn/T//ccofi4kh.s 			page 15


  96:DSP/Track.cpp ****     if(!ph.isPlaying)
 611              		.loc 1 96 5 view .LVU165
 612 0000 4378     		ldrb	r3, [r0, #1]	@ zero_extendqisi2
 613 0002 23B1     		cbz	r3, .L65
  97:DSP/Track.cpp ****         return nullptr;;
 614              		.loc 1 97 24 view .LVU166
  98:DSP/Track.cpp ****     
  99:DSP/Track.cpp ****     return &buffer[L][ph.pos];
 615              		.loc 1 99 5 view .LVU167
 616              		.loc 1 99 29 is_stmt 0 view .LVU168
 617 0004 4368     		ldr	r3, [r0, #4]
 618 0006 C068     		ldr	r0, [r0, #12]
 619              	.LVL33:
 620              		.loc 1 99 29 view .LVU169
 621 0008 00EB8300 		add	r0, r0, r3, lsl #2
 622 000c 7047     		bx	lr
 623              	.LVL34:
 624              	.L65:
  97:DSP/Track.cpp ****         return nullptr;;
 625              		.loc 1 97 16 view .LVU170
 626 000e 1846     		mov	r0, r3
 627              	.LVL35:
 100:DSP/Track.cpp **** }
 628              		.loc 1 100 1 view .LVU171
 629 0010 7047     		bx	lr
 630              		.cfi_endproc
 631              	.LFE1394:
 633 0012 00BF     		.section	.text._ZN5Track18processOutputRightEv,"ax",%progbits
 634              		.align	1
 635              		.p2align 2,,3
 636              		.global	_ZN5Track18processOutputRightEv
 637              		.syntax unified
 638              		.thumb
 639              		.thumb_func
 641              	_ZN5Track18processOutputRightEv:
 642              	.LVL36:
 643              	.LFB1395:
 101:DSP/Track.cpp **** 
 102:DSP/Track.cpp **** float* Track::processOutputRight()
 103:DSP/Track.cpp **** {
 644              		.loc 1 103 1 is_stmt 1 view -0
 645              		.cfi_startproc
 646              		@ args = 0, pretend = 0, frame = 0
 647              		@ frame_needed = 0, uses_anonymous_args = 0
 648              		@ link register save eliminated.
 104:DSP/Track.cpp ****     if(!ph.isPlaying)
 649              		.loc 1 104 5 view .LVU173
 650 0000 4378     		ldrb	r3, [r0, #1]	@ zero_extendqisi2
 651 0002 23B1     		cbz	r3, .L68
 105:DSP/Track.cpp ****         return nullptr;
 106:DSP/Track.cpp **** 
 107:DSP/Track.cpp ****     return &buffer[R][ph.pos];
 652              		.loc 1 107 5 view .LVU174
 653              		.loc 1 107 29 is_stmt 0 view .LVU175
 654 0004 4368     		ldr	r3, [r0, #4]
 655 0006 0069     		ldr	r0, [r0, #16]
 656              	.LVL37:
ARM GAS  /var/folders/wz/z09yph4n0qj4t7mjxhl6ttn80000gn/T//ccofi4kh.s 			page 16


 657              		.loc 1 107 29 view .LVU176
 658 0008 00EB8300 		add	r0, r0, r3, lsl #2
 659 000c 7047     		bx	lr
 660              	.LVL38:
 661              	.L68:
 105:DSP/Track.cpp ****         return nullptr;
 662              		.loc 1 105 16 view .LVU177
 663 000e 1846     		mov	r0, r3
 664              	.LVL39:
 108:DSP/Track.cpp **** }...
 665              		.loc 1 108 1 view .LVU178
 666 0010 7047     		bx	lr
 667              		.cfi_endproc
 668              	.LFE1395:
 670 0012 00BF     		.text
 671              	.Letext0:
 672              		.file 3 "/Library/DaisyToolchain/0.2.0/arm/arm-none-eabi/include/c++/10.3.1/cmath"
 673              		.file 4 "/Library/DaisyToolchain/0.2.0/arm/arm-none-eabi/include/c++/10.3.1/bits/std_abs.h"
 674              		.file 5 "/Library/DaisyToolchain/0.2.0/arm/arm-none-eabi/include/c++/10.3.1/type_traits"
 675              		.file 6 "/Library/DaisyToolchain/0.2.0/arm/arm-none-eabi/include/c++/10.3.1/debug/debug.h"
 676              		.file 7 "/Library/DaisyToolchain/0.2.0/arm/arm-none-eabi/include/c++/10.3.1/cstdlib"
 677              		.file 8 "/Library/DaisyToolchain/0.2.0/arm/arm-none-eabi/include/c++/10.3.1/arm-none-eabi/thumb/v7
 678              		.file 9 "/Library/DaisyToolchain/0.2.0/arm/arm-none-eabi/include/c++/10.3.1/bits/algorithmfwd.h"
 679              		.file 10 "/Library/DaisyToolchain/0.2.0/arm/arm-none-eabi/include/c++/10.3.1/bits/stl_pair.h"
 680              		.file 11 "/Library/DaisyToolchain/0.2.0/arm/arm-none-eabi/include/c++/10.3.1/bits/exception_ptr.h"
 681              		.file 12 "/Library/DaisyToolchain/0.2.0/arm/lib/gcc/arm-none-eabi/10.3.1/include/stddef.h"
 682              		.file 13 "/Library/DaisyToolchain/0.2.0/arm/arm-none-eabi/include/c++/10.3.1/bits/predefined_ops.h
 683              		.file 14 "/Library/DaisyToolchain/0.2.0/arm/arm-none-eabi/include/math.h"
 684              		.file 15 "/Library/DaisyToolchain/0.2.0/arm/arm-none-eabi/include/stdlib.h"
 685              		.file 16 "/Library/DaisyToolchain/0.2.0/arm/arm-none-eabi/include/c++/10.3.1/math.h"
 686              		.file 17 "DSP/Track.h"
 687              		.file 18 "<built-in>"
ARM GAS  /var/folders/wz/z09yph4n0qj4t7mjxhl6ttn80000gn/T//ccofi4kh.s 			page 17


DEFINED SYMBOLS
                            *ABS*:0000000000000000 Track.cpp
/var/folders/wz/z09yph4n0qj4t7mjxhl6ttn80000gn/T//ccofi4kh.s:19     .text._ZN5Track4initEPPfj:0000000000000000 $t
/var/folders/wz/z09yph4n0qj4t7mjxhl6ttn80000gn/T//ccofi4kh.s:26     .text._ZN5Track4initEPPfj:0000000000000000 _ZN5Track4initEPPfj
/var/folders/wz/z09yph4n0qj4t7mjxhl6ttn80000gn/T//ccofi4kh.s:165    .text._ZN5Track7prepareEv:0000000000000000 $t
/var/folders/wz/z09yph4n0qj4t7mjxhl6ttn80000gn/T//ccofi4kh.s:172    .text._ZN5Track7prepareEv:0000000000000000 _ZN5Track7prepareEv
/var/folders/wz/z09yph4n0qj4t7mjxhl6ttn80000gn/T//ccofi4kh.s:186    .text._ZN5Track12processBlockEj:0000000000000000 $t
/var/folders/wz/z09yph4n0qj4t7mjxhl6ttn80000gn/T//ccofi4kh.s:193    .text._ZN5Track12processBlockEj:0000000000000000 _ZN5Track12processBlockEj
/var/folders/wz/z09yph4n0qj4t7mjxhl6ttn80000gn/T//ccofi4kh.s:295    .text._ZN5Track4tickEv:0000000000000000 $t
/var/folders/wz/z09yph4n0qj4t7mjxhl6ttn80000gn/T//ccofi4kh.s:302    .text._ZN5Track4tickEv:0000000000000000 _ZN5Track4tickEv
/var/folders/wz/z09yph4n0qj4t7mjxhl6ttn80000gn/T//ccofi4kh.s:317    .text._ZN5Track14setIsRecordingEv:0000000000000000 $t
/var/folders/wz/z09yph4n0qj4t7mjxhl6ttn80000gn/T//ccofi4kh.s:324    .text._ZN5Track14setIsRecordingEv:0000000000000000 _ZN5Track14setIsRecordingEv
/var/folders/wz/z09yph4n0qj4t7mjxhl6ttn80000gn/T//ccofi4kh.s:365    .text._ZN5Track12setIsPlayingEv:0000000000000000 $t
/var/folders/wz/z09yph4n0qj4t7mjxhl6ttn80000gn/T//ccofi4kh.s:372    .text._ZN5Track12setIsPlayingEv:0000000000000000 _ZN5Track12setIsPlayingEv
/var/folders/wz/z09yph4n0qj4t7mjxhl6ttn80000gn/T//ccofi4kh.s:415    .text._ZN5Track17incrementPlayheadEv:0000000000000000 $t
/var/folders/wz/z09yph4n0qj4t7mjxhl6ttn80000gn/T//ccofi4kh.s:422    .text._ZN5Track17incrementPlayheadEv:0000000000000000 _ZN5Track17incrementPlayheadEv
/var/folders/wz/z09yph4n0qj4t7mjxhl6ttn80000gn/T//ccofi4kh.s:473    .text._ZN5Track12processInputEPKfS1_j:0000000000000000 $t
/var/folders/wz/z09yph4n0qj4t7mjxhl6ttn80000gn/T//ccofi4kh.s:480    .text._ZN5Track12processInputEPKfS1_j:0000000000000000 _ZN5Track12processInputEPKfS1_j
/var/folders/wz/z09yph4n0qj4t7mjxhl6ttn80000gn/T//ccofi4kh.s:596    .text._ZN5Track17processOutputLeftEv:0000000000000000 $t
/var/folders/wz/z09yph4n0qj4t7mjxhl6ttn80000gn/T//ccofi4kh.s:603    .text._ZN5Track17processOutputLeftEv:0000000000000000 _ZN5Track17processOutputLeftEv
/var/folders/wz/z09yph4n0qj4t7mjxhl6ttn80000gn/T//ccofi4kh.s:634    .text._ZN5Track18processOutputRightEv:0000000000000000 $t
/var/folders/wz/z09yph4n0qj4t7mjxhl6ttn80000gn/T//ccofi4kh.s:641    .text._ZN5Track18processOutputRightEv:0000000000000000 _ZN5Track18processOutputRightEv

UNDEFINED SYMBOLS
memset
